ARM GAS  /var/folders/0z/tsy30v1j4xl4_7kw94k978ww0000gn/T//ccS0VXUs.s 			page 1


   1              		.cpu cortex-m4
   2              		.arch armv7e-m
   3              		.fpu fpv4-sp-d16
   4              		.eabi_attribute 27, 1
   5              		.eabi_attribute 28, 1
   6              		.eabi_attribute 23, 1
   7              		.eabi_attribute 24, 1
   8              		.eabi_attribute 25, 1
   9              		.eabi_attribute 26, 1
  10              		.eabi_attribute 30, 2
  11              		.eabi_attribute 34, 1
  12              		.eabi_attribute 18, 4
  13              		.file	"lv_slider.c"
  14              		.text
  15              	.Ltext0:
  16              		.cfi_sections	.debug_frame
  17              		.section	.text.position_knob,"ax",%progbits
  18              		.align	1
  19              		.p2align 2,,3
  20              		.syntax unified
  21              		.thumb
  22              		.thumb_func
  24              	position_knob:
  25              	.LVL0:
  26              	.LFB181:
  27              		.file 1 "Drivers/lvgl/src/widgets/lv_slider.c"
   1:Drivers/lvgl/src/widgets/lv_slider.c **** /**
   2:Drivers/lvgl/src/widgets/lv_slider.c ****  * @file lv_slider.c
   3:Drivers/lvgl/src/widgets/lv_slider.c ****  *
   4:Drivers/lvgl/src/widgets/lv_slider.c ****  */
   5:Drivers/lvgl/src/widgets/lv_slider.c **** 
   6:Drivers/lvgl/src/widgets/lv_slider.c **** /*********************
   7:Drivers/lvgl/src/widgets/lv_slider.c ****  *      INCLUDES
   8:Drivers/lvgl/src/widgets/lv_slider.c ****  *********************/
   9:Drivers/lvgl/src/widgets/lv_slider.c **** #include "lv_slider.h"
  10:Drivers/lvgl/src/widgets/lv_slider.c **** #if LV_USE_SLIDER != 0
  11:Drivers/lvgl/src/widgets/lv_slider.c **** 
  12:Drivers/lvgl/src/widgets/lv_slider.c **** #include "../misc/lv_assert.h"
  13:Drivers/lvgl/src/widgets/lv_slider.c **** #include "../core/lv_group.h"
  14:Drivers/lvgl/src/widgets/lv_slider.c **** #include "../core/lv_indev.h"
  15:Drivers/lvgl/src/widgets/lv_slider.c **** #include "../draw/lv_draw.h"
  16:Drivers/lvgl/src/widgets/lv_slider.c **** #include "../misc/lv_math.h"
  17:Drivers/lvgl/src/widgets/lv_slider.c **** #include "../core/lv_disp.h"
  18:Drivers/lvgl/src/widgets/lv_slider.c **** #include "lv_img.h"
  19:Drivers/lvgl/src/widgets/lv_slider.c **** 
  20:Drivers/lvgl/src/widgets/lv_slider.c **** /*********************
  21:Drivers/lvgl/src/widgets/lv_slider.c ****  *      DEFINES
  22:Drivers/lvgl/src/widgets/lv_slider.c ****  *********************/
  23:Drivers/lvgl/src/widgets/lv_slider.c **** #define MY_CLASS &lv_slider_class
  24:Drivers/lvgl/src/widgets/lv_slider.c **** 
  25:Drivers/lvgl/src/widgets/lv_slider.c **** #define LV_SLIDER_KNOB_COORD(is_rtl, area) (is_rtl ? area.x1 : area.x2)
  26:Drivers/lvgl/src/widgets/lv_slider.c **** 
  27:Drivers/lvgl/src/widgets/lv_slider.c **** /**********************
  28:Drivers/lvgl/src/widgets/lv_slider.c ****  *      TYPEDEFS
  29:Drivers/lvgl/src/widgets/lv_slider.c ****  **********************/
  30:Drivers/lvgl/src/widgets/lv_slider.c **** 
  31:Drivers/lvgl/src/widgets/lv_slider.c **** /**********************
ARM GAS  /var/folders/0z/tsy30v1j4xl4_7kw94k978ww0000gn/T//ccS0VXUs.s 			page 2


  32:Drivers/lvgl/src/widgets/lv_slider.c ****  *  STATIC PROTOTYPES
  33:Drivers/lvgl/src/widgets/lv_slider.c ****  **********************/
  34:Drivers/lvgl/src/widgets/lv_slider.c **** static void lv_slider_constructor(const lv_obj_class_t * class_p, lv_obj_t * obj);
  35:Drivers/lvgl/src/widgets/lv_slider.c **** static void lv_slider_event(const lv_obj_class_t * class_p, lv_event_t * e);
  36:Drivers/lvgl/src/widgets/lv_slider.c **** static void position_knob(lv_obj_t * obj, lv_area_t * knob_area, const lv_coord_t knob_size, const 
  37:Drivers/lvgl/src/widgets/lv_slider.c **** static void draw_knob(lv_event_t * e);
  38:Drivers/lvgl/src/widgets/lv_slider.c **** static bool is_slider_horizontal(lv_obj_t * obj);
  39:Drivers/lvgl/src/widgets/lv_slider.c **** 
  40:Drivers/lvgl/src/widgets/lv_slider.c **** /**********************
  41:Drivers/lvgl/src/widgets/lv_slider.c ****  *  STATIC VARIABLES
  42:Drivers/lvgl/src/widgets/lv_slider.c ****  **********************/
  43:Drivers/lvgl/src/widgets/lv_slider.c **** const lv_obj_class_t lv_slider_class = {
  44:Drivers/lvgl/src/widgets/lv_slider.c ****     .constructor_cb = lv_slider_constructor,
  45:Drivers/lvgl/src/widgets/lv_slider.c ****     .event_cb = lv_slider_event,
  46:Drivers/lvgl/src/widgets/lv_slider.c ****     .editable = LV_OBJ_CLASS_EDITABLE_TRUE,
  47:Drivers/lvgl/src/widgets/lv_slider.c ****     .group_def = LV_OBJ_CLASS_GROUP_DEF_TRUE,
  48:Drivers/lvgl/src/widgets/lv_slider.c ****     .instance_size = sizeof(lv_slider_t),
  49:Drivers/lvgl/src/widgets/lv_slider.c ****     .base_class = &lv_bar_class
  50:Drivers/lvgl/src/widgets/lv_slider.c **** };
  51:Drivers/lvgl/src/widgets/lv_slider.c **** 
  52:Drivers/lvgl/src/widgets/lv_slider.c **** /**********************
  53:Drivers/lvgl/src/widgets/lv_slider.c ****  *      MACROS
  54:Drivers/lvgl/src/widgets/lv_slider.c ****  **********************/
  55:Drivers/lvgl/src/widgets/lv_slider.c **** 
  56:Drivers/lvgl/src/widgets/lv_slider.c **** /**********************
  57:Drivers/lvgl/src/widgets/lv_slider.c ****  *   GLOBAL FUNCTIONS
  58:Drivers/lvgl/src/widgets/lv_slider.c ****  **********************/
  59:Drivers/lvgl/src/widgets/lv_slider.c **** 
  60:Drivers/lvgl/src/widgets/lv_slider.c **** lv_obj_t * lv_slider_create(lv_obj_t * parent)
  61:Drivers/lvgl/src/widgets/lv_slider.c **** {
  62:Drivers/lvgl/src/widgets/lv_slider.c ****     LV_LOG_INFO("begin");
  63:Drivers/lvgl/src/widgets/lv_slider.c ****     lv_obj_t * obj = lv_obj_class_create_obj(MY_CLASS, parent);
  64:Drivers/lvgl/src/widgets/lv_slider.c ****     lv_obj_class_init_obj(obj);
  65:Drivers/lvgl/src/widgets/lv_slider.c ****     return obj;
  66:Drivers/lvgl/src/widgets/lv_slider.c **** }
  67:Drivers/lvgl/src/widgets/lv_slider.c **** 
  68:Drivers/lvgl/src/widgets/lv_slider.c **** bool lv_slider_is_dragged(const lv_obj_t * obj)
  69:Drivers/lvgl/src/widgets/lv_slider.c **** {
  70:Drivers/lvgl/src/widgets/lv_slider.c ****     LV_ASSERT_OBJ(obj, MY_CLASS);
  71:Drivers/lvgl/src/widgets/lv_slider.c ****     lv_slider_t * slider = (lv_slider_t *)obj;
  72:Drivers/lvgl/src/widgets/lv_slider.c **** 
  73:Drivers/lvgl/src/widgets/lv_slider.c ****     return slider->dragging ? true : false;
  74:Drivers/lvgl/src/widgets/lv_slider.c **** }
  75:Drivers/lvgl/src/widgets/lv_slider.c **** 
  76:Drivers/lvgl/src/widgets/lv_slider.c **** /**********************
  77:Drivers/lvgl/src/widgets/lv_slider.c ****  *   STATIC FUNCTIONS
  78:Drivers/lvgl/src/widgets/lv_slider.c ****  **********************/
  79:Drivers/lvgl/src/widgets/lv_slider.c **** 
  80:Drivers/lvgl/src/widgets/lv_slider.c **** static void lv_slider_constructor(const lv_obj_class_t * class_p, lv_obj_t * obj)
  81:Drivers/lvgl/src/widgets/lv_slider.c **** {
  82:Drivers/lvgl/src/widgets/lv_slider.c ****     LV_UNUSED(class_p);
  83:Drivers/lvgl/src/widgets/lv_slider.c ****     lv_slider_t * slider = (lv_slider_t *)obj;
  84:Drivers/lvgl/src/widgets/lv_slider.c **** 
  85:Drivers/lvgl/src/widgets/lv_slider.c ****     /*Initialize the allocated 'slider'*/
  86:Drivers/lvgl/src/widgets/lv_slider.c ****     slider->value_to_set = NULL;
  87:Drivers/lvgl/src/widgets/lv_slider.c ****     slider->dragging = 0U;
  88:Drivers/lvgl/src/widgets/lv_slider.c ****     slider->left_knob_focus = 0U;
ARM GAS  /var/folders/0z/tsy30v1j4xl4_7kw94k978ww0000gn/T//ccS0VXUs.s 			page 3


  89:Drivers/lvgl/src/widgets/lv_slider.c **** 
  90:Drivers/lvgl/src/widgets/lv_slider.c ****     lv_obj_clear_flag(obj, LV_OBJ_FLAG_SCROLL_CHAIN);
  91:Drivers/lvgl/src/widgets/lv_slider.c ****     lv_obj_clear_flag(obj, LV_OBJ_FLAG_SCROLLABLE);
  92:Drivers/lvgl/src/widgets/lv_slider.c ****     lv_obj_set_ext_click_area(obj, LV_DPX(8));
  93:Drivers/lvgl/src/widgets/lv_slider.c **** }
  94:Drivers/lvgl/src/widgets/lv_slider.c **** 
  95:Drivers/lvgl/src/widgets/lv_slider.c **** static void lv_slider_event(const lv_obj_class_t * class_p, lv_event_t * e)
  96:Drivers/lvgl/src/widgets/lv_slider.c **** {
  97:Drivers/lvgl/src/widgets/lv_slider.c ****     LV_UNUSED(class_p);
  98:Drivers/lvgl/src/widgets/lv_slider.c **** 
  99:Drivers/lvgl/src/widgets/lv_slider.c ****     lv_res_t res;
 100:Drivers/lvgl/src/widgets/lv_slider.c **** 
 101:Drivers/lvgl/src/widgets/lv_slider.c ****     /*Call the ancestor's event handler*/
 102:Drivers/lvgl/src/widgets/lv_slider.c ****     res = lv_obj_event_base(MY_CLASS, e);
 103:Drivers/lvgl/src/widgets/lv_slider.c ****     if(res != LV_RES_OK) return;
 104:Drivers/lvgl/src/widgets/lv_slider.c **** 
 105:Drivers/lvgl/src/widgets/lv_slider.c ****     lv_event_code_t code = lv_event_get_code(e);
 106:Drivers/lvgl/src/widgets/lv_slider.c ****     lv_obj_t * obj = lv_event_get_target(e);
 107:Drivers/lvgl/src/widgets/lv_slider.c ****     lv_slider_t * slider = (lv_slider_t *)obj;
 108:Drivers/lvgl/src/widgets/lv_slider.c ****     lv_slider_mode_t type = lv_slider_get_mode(obj);
 109:Drivers/lvgl/src/widgets/lv_slider.c **** 
 110:Drivers/lvgl/src/widgets/lv_slider.c ****     /*Advanced hit testing: react only on dragging the knob(s)*/
 111:Drivers/lvgl/src/widgets/lv_slider.c ****     if(code == LV_EVENT_HIT_TEST) {
 112:Drivers/lvgl/src/widgets/lv_slider.c ****         lv_hit_test_info_t * info = lv_event_get_param(e);
 113:Drivers/lvgl/src/widgets/lv_slider.c ****         lv_coord_t ext_click_area = obj->spec_attr ? obj->spec_attr->ext_click_pad : 0;
 114:Drivers/lvgl/src/widgets/lv_slider.c **** 
 115:Drivers/lvgl/src/widgets/lv_slider.c ****         /*Ordinary slider: was the knob area hit?*/
 116:Drivers/lvgl/src/widgets/lv_slider.c ****         lv_area_t a;
 117:Drivers/lvgl/src/widgets/lv_slider.c ****         lv_area_copy(&a, &slider->right_knob_area);
 118:Drivers/lvgl/src/widgets/lv_slider.c ****         lv_area_increase(&a, ext_click_area, ext_click_area);
 119:Drivers/lvgl/src/widgets/lv_slider.c ****         info->res = _lv_area_is_point_on(&a, info->point, 0);
 120:Drivers/lvgl/src/widgets/lv_slider.c **** 
 121:Drivers/lvgl/src/widgets/lv_slider.c ****         /*There's still a chance that there is a hit if there is another knob*/
 122:Drivers/lvgl/src/widgets/lv_slider.c ****         if((info->res == false) && (type == LV_SLIDER_MODE_RANGE)) {
 123:Drivers/lvgl/src/widgets/lv_slider.c ****             lv_area_copy(&a, &slider->left_knob_area);
 124:Drivers/lvgl/src/widgets/lv_slider.c ****             lv_area_increase(&a, ext_click_area, ext_click_area);
 125:Drivers/lvgl/src/widgets/lv_slider.c ****             info->res = _lv_area_is_point_on(&a, info->point, 0);
 126:Drivers/lvgl/src/widgets/lv_slider.c ****         }
 127:Drivers/lvgl/src/widgets/lv_slider.c ****     }
 128:Drivers/lvgl/src/widgets/lv_slider.c ****     else if(code == LV_EVENT_PRESSED) {
 129:Drivers/lvgl/src/widgets/lv_slider.c ****         lv_obj_invalidate(obj);
 130:Drivers/lvgl/src/widgets/lv_slider.c **** 
 131:Drivers/lvgl/src/widgets/lv_slider.c ****         lv_point_t p;
 132:Drivers/lvgl/src/widgets/lv_slider.c ****         slider->dragging = true;
 133:Drivers/lvgl/src/widgets/lv_slider.c ****         if(type == LV_SLIDER_MODE_NORMAL || type == LV_SLIDER_MODE_SYMMETRICAL) {
 134:Drivers/lvgl/src/widgets/lv_slider.c ****             slider->value_to_set = &slider->bar.cur_value;
 135:Drivers/lvgl/src/widgets/lv_slider.c ****         }
 136:Drivers/lvgl/src/widgets/lv_slider.c ****         else if(type == LV_SLIDER_MODE_RANGE) {
 137:Drivers/lvgl/src/widgets/lv_slider.c ****             lv_indev_get_point(lv_indev_get_act(), &p);
 138:Drivers/lvgl/src/widgets/lv_slider.c ****             bool hor = lv_obj_get_width(obj) >= lv_obj_get_height(obj);
 139:Drivers/lvgl/src/widgets/lv_slider.c ****             lv_base_dir_t base_dir = lv_obj_get_style_base_dir(obj, LV_PART_MAIN);
 140:Drivers/lvgl/src/widgets/lv_slider.c **** 
 141:Drivers/lvgl/src/widgets/lv_slider.c ****             lv_coord_t dist_left, dist_right;
 142:Drivers/lvgl/src/widgets/lv_slider.c ****             if(hor) {
 143:Drivers/lvgl/src/widgets/lv_slider.c ****                 if((base_dir != LV_BASE_DIR_RTL && p.x > slider->right_knob_area.x2) || (base_dir =
 144:Drivers/lvgl/src/widgets/lv_slider.c ****                                                                                          p.x < slid
 145:Drivers/lvgl/src/widgets/lv_slider.c ****                     slider->value_to_set = &slider->bar.cur_value;
ARM GAS  /var/folders/0z/tsy30v1j4xl4_7kw94k978ww0000gn/T//ccS0VXUs.s 			page 4


 146:Drivers/lvgl/src/widgets/lv_slider.c ****                 }
 147:Drivers/lvgl/src/widgets/lv_slider.c ****                 else if((base_dir != LV_BASE_DIR_RTL && p.x < slider->left_knob_area.x1) || (base_d
 148:Drivers/lvgl/src/widgets/lv_slider.c ****                                                                                              p.x > 
 149:Drivers/lvgl/src/widgets/lv_slider.c ****                     slider->value_to_set = &slider->bar.start_value;
 150:Drivers/lvgl/src/widgets/lv_slider.c ****                 }
 151:Drivers/lvgl/src/widgets/lv_slider.c ****                 else {
 152:Drivers/lvgl/src/widgets/lv_slider.c ****                     /*Calculate the distance from each knob*/
 153:Drivers/lvgl/src/widgets/lv_slider.c ****                     dist_left = LV_ABS((slider->left_knob_area.x1 + (slider->left_knob_area.x2 - sl
 154:Drivers/lvgl/src/widgets/lv_slider.c ****                     dist_right = LV_ABS((slider->right_knob_area.x1 + (slider->right_knob_area.x2 -
 155:Drivers/lvgl/src/widgets/lv_slider.c **** 
 156:Drivers/lvgl/src/widgets/lv_slider.c ****                     /*Use whichever one is closer*/
 157:Drivers/lvgl/src/widgets/lv_slider.c ****                     if(dist_right < dist_left) {
 158:Drivers/lvgl/src/widgets/lv_slider.c ****                         slider->value_to_set = &slider->bar.cur_value;
 159:Drivers/lvgl/src/widgets/lv_slider.c ****                         slider->left_knob_focus = 0;
 160:Drivers/lvgl/src/widgets/lv_slider.c ****                     }
 161:Drivers/lvgl/src/widgets/lv_slider.c ****                     else {
 162:Drivers/lvgl/src/widgets/lv_slider.c ****                         slider->value_to_set = &slider->bar.start_value;
 163:Drivers/lvgl/src/widgets/lv_slider.c ****                         slider->left_knob_focus = 1;
 164:Drivers/lvgl/src/widgets/lv_slider.c ****                     }
 165:Drivers/lvgl/src/widgets/lv_slider.c ****                 }
 166:Drivers/lvgl/src/widgets/lv_slider.c ****             }
 167:Drivers/lvgl/src/widgets/lv_slider.c ****             else {
 168:Drivers/lvgl/src/widgets/lv_slider.c ****                 if(p.y < slider->right_knob_area.y1) {
 169:Drivers/lvgl/src/widgets/lv_slider.c ****                     slider->value_to_set = &slider->bar.cur_value;
 170:Drivers/lvgl/src/widgets/lv_slider.c ****                 }
 171:Drivers/lvgl/src/widgets/lv_slider.c ****                 else if(p.y > slider->left_knob_area.y2) {
 172:Drivers/lvgl/src/widgets/lv_slider.c ****                     slider->value_to_set = &slider->bar.start_value;
 173:Drivers/lvgl/src/widgets/lv_slider.c ****                 }
 174:Drivers/lvgl/src/widgets/lv_slider.c ****                 else {
 175:Drivers/lvgl/src/widgets/lv_slider.c ****                     /*Calculate the distance from each knob*/
 176:Drivers/lvgl/src/widgets/lv_slider.c ****                     dist_left = LV_ABS((slider->left_knob_area.y1 + (slider->left_knob_area.y2 - sl
 177:Drivers/lvgl/src/widgets/lv_slider.c ****                     dist_right = LV_ABS((slider->right_knob_area.y1 + (slider->right_knob_area.y2 -
 178:Drivers/lvgl/src/widgets/lv_slider.c **** 
 179:Drivers/lvgl/src/widgets/lv_slider.c ****                     /*Use whichever one is closer*/
 180:Drivers/lvgl/src/widgets/lv_slider.c ****                     if(dist_right < dist_left) {
 181:Drivers/lvgl/src/widgets/lv_slider.c ****                         slider->value_to_set = &slider->bar.cur_value;
 182:Drivers/lvgl/src/widgets/lv_slider.c ****                         slider->left_knob_focus = 0;
 183:Drivers/lvgl/src/widgets/lv_slider.c ****                     }
 184:Drivers/lvgl/src/widgets/lv_slider.c ****                     else {
 185:Drivers/lvgl/src/widgets/lv_slider.c ****                         slider->value_to_set = &slider->bar.start_value;
 186:Drivers/lvgl/src/widgets/lv_slider.c ****                         slider->left_knob_focus = 1;
 187:Drivers/lvgl/src/widgets/lv_slider.c ****                     }
 188:Drivers/lvgl/src/widgets/lv_slider.c ****                 }
 189:Drivers/lvgl/src/widgets/lv_slider.c ****             }
 190:Drivers/lvgl/src/widgets/lv_slider.c ****         }
 191:Drivers/lvgl/src/widgets/lv_slider.c ****     }
 192:Drivers/lvgl/src/widgets/lv_slider.c ****     else if(code == LV_EVENT_PRESSING && slider->value_to_set != NULL) {
 193:Drivers/lvgl/src/widgets/lv_slider.c ****         lv_indev_t * indev = lv_indev_get_act();
 194:Drivers/lvgl/src/widgets/lv_slider.c ****         if(lv_indev_get_type(indev) != LV_INDEV_TYPE_POINTER) return;
 195:Drivers/lvgl/src/widgets/lv_slider.c **** 
 196:Drivers/lvgl/src/widgets/lv_slider.c ****         lv_point_t p;
 197:Drivers/lvgl/src/widgets/lv_slider.c ****         lv_indev_get_point(indev, &p);
 198:Drivers/lvgl/src/widgets/lv_slider.c ****         int32_t new_value = 0;
 199:Drivers/lvgl/src/widgets/lv_slider.c **** 
 200:Drivers/lvgl/src/widgets/lv_slider.c ****         const int32_t range = slider->bar.max_value - slider->bar.min_value;
 201:Drivers/lvgl/src/widgets/lv_slider.c ****         if(is_slider_horizontal(obj)) {
 202:Drivers/lvgl/src/widgets/lv_slider.c ****             const lv_coord_t bg_left = lv_obj_get_style_pad_left(obj, LV_PART_MAIN);
ARM GAS  /var/folders/0z/tsy30v1j4xl4_7kw94k978ww0000gn/T//ccS0VXUs.s 			page 5


 203:Drivers/lvgl/src/widgets/lv_slider.c ****             const lv_coord_t bg_right = lv_obj_get_style_pad_right(obj, LV_PART_MAIN);
 204:Drivers/lvgl/src/widgets/lv_slider.c ****             const lv_coord_t w = lv_obj_get_width(obj);
 205:Drivers/lvgl/src/widgets/lv_slider.c ****             const lv_coord_t indic_w = w - bg_left - bg_right;
 206:Drivers/lvgl/src/widgets/lv_slider.c **** 
 207:Drivers/lvgl/src/widgets/lv_slider.c ****             if(lv_obj_get_style_base_dir(obj, LV_PART_MAIN) == LV_BASE_DIR_RTL) {
 208:Drivers/lvgl/src/widgets/lv_slider.c ****                 /*Make the point relative to the indicator*/
 209:Drivers/lvgl/src/widgets/lv_slider.c ****                 new_value = (obj->coords.x2 - bg_right) - p.x;
 210:Drivers/lvgl/src/widgets/lv_slider.c ****             }
 211:Drivers/lvgl/src/widgets/lv_slider.c ****             else {
 212:Drivers/lvgl/src/widgets/lv_slider.c ****                 /*Make the point relative to the indicator*/
 213:Drivers/lvgl/src/widgets/lv_slider.c ****                 new_value = p.x - (obj->coords.x1 + bg_left);
 214:Drivers/lvgl/src/widgets/lv_slider.c ****             }
 215:Drivers/lvgl/src/widgets/lv_slider.c ****             new_value = (new_value * range + indic_w / 2) / indic_w;
 216:Drivers/lvgl/src/widgets/lv_slider.c ****             new_value += slider->bar.min_value;
 217:Drivers/lvgl/src/widgets/lv_slider.c ****         }
 218:Drivers/lvgl/src/widgets/lv_slider.c ****         else {
 219:Drivers/lvgl/src/widgets/lv_slider.c ****             const lv_coord_t bg_top = lv_obj_get_style_pad_top(obj, LV_PART_MAIN);
 220:Drivers/lvgl/src/widgets/lv_slider.c ****             const lv_coord_t bg_bottom = lv_obj_get_style_pad_bottom(obj, LV_PART_MAIN);
 221:Drivers/lvgl/src/widgets/lv_slider.c ****             const lv_coord_t h = lv_obj_get_height(obj);
 222:Drivers/lvgl/src/widgets/lv_slider.c ****             const lv_coord_t indic_h = h - bg_bottom - bg_top;
 223:Drivers/lvgl/src/widgets/lv_slider.c **** 
 224:Drivers/lvgl/src/widgets/lv_slider.c ****             /*Make the point relative to the indicator*/
 225:Drivers/lvgl/src/widgets/lv_slider.c ****             new_value = p.y - (obj->coords.y2 + bg_bottom);
 226:Drivers/lvgl/src/widgets/lv_slider.c ****             new_value = (-new_value * range + indic_h / 2) / indic_h;
 227:Drivers/lvgl/src/widgets/lv_slider.c ****             new_value += slider->bar.min_value;
 228:Drivers/lvgl/src/widgets/lv_slider.c ****         }
 229:Drivers/lvgl/src/widgets/lv_slider.c **** 
 230:Drivers/lvgl/src/widgets/lv_slider.c ****         int32_t real_max_value = slider->bar.max_value;
 231:Drivers/lvgl/src/widgets/lv_slider.c ****         int32_t real_min_value = slider->bar.min_value;
 232:Drivers/lvgl/src/widgets/lv_slider.c ****         /*Figure out the min. and max. for this mode*/
 233:Drivers/lvgl/src/widgets/lv_slider.c ****         if(slider->value_to_set == &slider->bar.start_value) {
 234:Drivers/lvgl/src/widgets/lv_slider.c ****             real_max_value = slider->bar.cur_value;
 235:Drivers/lvgl/src/widgets/lv_slider.c ****         }
 236:Drivers/lvgl/src/widgets/lv_slider.c ****         else {
 237:Drivers/lvgl/src/widgets/lv_slider.c ****             real_min_value = slider->bar.start_value;
 238:Drivers/lvgl/src/widgets/lv_slider.c ****         }
 239:Drivers/lvgl/src/widgets/lv_slider.c **** 
 240:Drivers/lvgl/src/widgets/lv_slider.c ****         new_value = LV_CLAMP(real_min_value, new_value, real_max_value);
 241:Drivers/lvgl/src/widgets/lv_slider.c ****         if(*slider->value_to_set != new_value) {
 242:Drivers/lvgl/src/widgets/lv_slider.c ****             if(slider->value_to_set == &slider->bar.start_value) {
 243:Drivers/lvgl/src/widgets/lv_slider.c ****                 lv_bar_set_start_value(obj, new_value, LV_ANIM_ON);
 244:Drivers/lvgl/src/widgets/lv_slider.c ****             }
 245:Drivers/lvgl/src/widgets/lv_slider.c ****             else {
 246:Drivers/lvgl/src/widgets/lv_slider.c ****                 lv_bar_set_value(obj, new_value, LV_ANIM_ON);
 247:Drivers/lvgl/src/widgets/lv_slider.c ****             }
 248:Drivers/lvgl/src/widgets/lv_slider.c ****             res = lv_event_send(obj, LV_EVENT_VALUE_CHANGED, NULL);
 249:Drivers/lvgl/src/widgets/lv_slider.c ****             if(res != LV_RES_OK) return;
 250:Drivers/lvgl/src/widgets/lv_slider.c ****         }
 251:Drivers/lvgl/src/widgets/lv_slider.c **** 
 252:Drivers/lvgl/src/widgets/lv_slider.c ****     }
 253:Drivers/lvgl/src/widgets/lv_slider.c ****     else if(code == LV_EVENT_RELEASED || code == LV_EVENT_PRESS_LOST) {
 254:Drivers/lvgl/src/widgets/lv_slider.c ****         slider->dragging = false;
 255:Drivers/lvgl/src/widgets/lv_slider.c ****         slider->value_to_set = NULL;
 256:Drivers/lvgl/src/widgets/lv_slider.c **** 
 257:Drivers/lvgl/src/widgets/lv_slider.c ****         lv_obj_invalidate(obj);
 258:Drivers/lvgl/src/widgets/lv_slider.c **** 
 259:Drivers/lvgl/src/widgets/lv_slider.c ****         /*Leave edit mode if released. (No need to wait for LONG_PRESS)*/
ARM GAS  /var/folders/0z/tsy30v1j4xl4_7kw94k978ww0000gn/T//ccS0VXUs.s 			page 6


 260:Drivers/lvgl/src/widgets/lv_slider.c ****         lv_group_t * g   = lv_obj_get_group(obj);
 261:Drivers/lvgl/src/widgets/lv_slider.c ****         bool editing     = lv_group_get_editing(g);
 262:Drivers/lvgl/src/widgets/lv_slider.c ****         lv_indev_type_t indev_type = lv_indev_get_type(lv_indev_get_act());
 263:Drivers/lvgl/src/widgets/lv_slider.c ****         if(indev_type == LV_INDEV_TYPE_ENCODER) {
 264:Drivers/lvgl/src/widgets/lv_slider.c ****             if(editing) {
 265:Drivers/lvgl/src/widgets/lv_slider.c ****                 if(lv_slider_get_mode(obj) == LV_SLIDER_MODE_RANGE) {
 266:Drivers/lvgl/src/widgets/lv_slider.c ****                     if(slider->left_knob_focus == 0) slider->left_knob_focus = 1;
 267:Drivers/lvgl/src/widgets/lv_slider.c ****                     else {
 268:Drivers/lvgl/src/widgets/lv_slider.c ****                         slider->left_knob_focus = 0;
 269:Drivers/lvgl/src/widgets/lv_slider.c ****                         lv_group_set_editing(g, false);
 270:Drivers/lvgl/src/widgets/lv_slider.c ****                     }
 271:Drivers/lvgl/src/widgets/lv_slider.c ****                 }
 272:Drivers/lvgl/src/widgets/lv_slider.c ****                 else {
 273:Drivers/lvgl/src/widgets/lv_slider.c ****                     lv_group_set_editing(g, false);
 274:Drivers/lvgl/src/widgets/lv_slider.c ****                 }
 275:Drivers/lvgl/src/widgets/lv_slider.c ****             }
 276:Drivers/lvgl/src/widgets/lv_slider.c ****         }
 277:Drivers/lvgl/src/widgets/lv_slider.c **** 
 278:Drivers/lvgl/src/widgets/lv_slider.c ****     }
 279:Drivers/lvgl/src/widgets/lv_slider.c ****     else if(code == LV_EVENT_FOCUSED) {
 280:Drivers/lvgl/src/widgets/lv_slider.c ****         lv_indev_type_t indev_type = lv_indev_get_type(lv_indev_get_act());
 281:Drivers/lvgl/src/widgets/lv_slider.c ****         if(indev_type == LV_INDEV_TYPE_ENCODER || indev_type == LV_INDEV_TYPE_KEYPAD) {
 282:Drivers/lvgl/src/widgets/lv_slider.c ****             slider->left_knob_focus = 0;
 283:Drivers/lvgl/src/widgets/lv_slider.c ****         }
 284:Drivers/lvgl/src/widgets/lv_slider.c ****     }
 285:Drivers/lvgl/src/widgets/lv_slider.c ****     else if(code == LV_EVENT_SIZE_CHANGED) {
 286:Drivers/lvgl/src/widgets/lv_slider.c ****         lv_obj_refresh_ext_draw_size(obj);
 287:Drivers/lvgl/src/widgets/lv_slider.c ****     }
 288:Drivers/lvgl/src/widgets/lv_slider.c ****     else if(code == LV_EVENT_REFR_EXT_DRAW_SIZE) {
 289:Drivers/lvgl/src/widgets/lv_slider.c ****         lv_coord_t knob_left = lv_obj_get_style_pad_left(obj, LV_PART_KNOB);
 290:Drivers/lvgl/src/widgets/lv_slider.c ****         lv_coord_t knob_right = lv_obj_get_style_pad_right(obj, LV_PART_KNOB);
 291:Drivers/lvgl/src/widgets/lv_slider.c ****         lv_coord_t knob_top = lv_obj_get_style_pad_top(obj, LV_PART_KNOB);
 292:Drivers/lvgl/src/widgets/lv_slider.c ****         lv_coord_t knob_bottom = lv_obj_get_style_pad_bottom(obj, LV_PART_KNOB);
 293:Drivers/lvgl/src/widgets/lv_slider.c **** 
 294:Drivers/lvgl/src/widgets/lv_slider.c ****         /*The smaller size is the knob diameter*/
 295:Drivers/lvgl/src/widgets/lv_slider.c ****         lv_coord_t zoom = lv_obj_get_style_transform_zoom(obj, LV_PART_KNOB);
 296:Drivers/lvgl/src/widgets/lv_slider.c ****         lv_coord_t trans_w = lv_obj_get_style_transform_width(obj, LV_PART_KNOB);
 297:Drivers/lvgl/src/widgets/lv_slider.c ****         lv_coord_t trans_h = lv_obj_get_style_transform_height(obj, LV_PART_KNOB);
 298:Drivers/lvgl/src/widgets/lv_slider.c ****         lv_coord_t knob_size = LV_MIN(lv_obj_get_width(obj) + 2 * trans_w, lv_obj_get_height(obj) +
 299:Drivers/lvgl/src/widgets/lv_slider.c ****         knob_size = (knob_size * zoom) >> 8;
 300:Drivers/lvgl/src/widgets/lv_slider.c ****         knob_size += LV_MAX(LV_MAX(knob_left, knob_right), LV_MAX(knob_bottom, knob_top));
 301:Drivers/lvgl/src/widgets/lv_slider.c ****         knob_size += 2;         /*For rounding error*/
 302:Drivers/lvgl/src/widgets/lv_slider.c ****         knob_size += lv_obj_calculate_ext_draw_size(obj, LV_PART_KNOB);
 303:Drivers/lvgl/src/widgets/lv_slider.c **** 
 304:Drivers/lvgl/src/widgets/lv_slider.c ****         /*Indic. size is handled by bar*/
 305:Drivers/lvgl/src/widgets/lv_slider.c ****         lv_coord_t * s = lv_event_get_param(e);
 306:Drivers/lvgl/src/widgets/lv_slider.c ****         *s  = LV_MAX(*s, knob_size);
 307:Drivers/lvgl/src/widgets/lv_slider.c **** 
 308:Drivers/lvgl/src/widgets/lv_slider.c ****     }
 309:Drivers/lvgl/src/widgets/lv_slider.c ****     else if(code == LV_EVENT_KEY) {
 310:Drivers/lvgl/src/widgets/lv_slider.c ****         char c = *((char *)lv_event_get_param(e));
 311:Drivers/lvgl/src/widgets/lv_slider.c **** 
 312:Drivers/lvgl/src/widgets/lv_slider.c ****         if(c == LV_KEY_RIGHT || c == LV_KEY_UP) {
 313:Drivers/lvgl/src/widgets/lv_slider.c ****             if(!slider->left_knob_focus) lv_slider_set_value(obj, lv_slider_get_value(obj) + 1, LV_
 314:Drivers/lvgl/src/widgets/lv_slider.c ****             else lv_slider_set_left_value(obj, lv_slider_get_left_value(obj) + 1, LV_ANIM_ON);
 315:Drivers/lvgl/src/widgets/lv_slider.c ****         }
 316:Drivers/lvgl/src/widgets/lv_slider.c ****         else if(c == LV_KEY_LEFT || c == LV_KEY_DOWN) {
ARM GAS  /var/folders/0z/tsy30v1j4xl4_7kw94k978ww0000gn/T//ccS0VXUs.s 			page 7


 317:Drivers/lvgl/src/widgets/lv_slider.c ****             if(!slider->left_knob_focus) lv_slider_set_value(obj, lv_slider_get_value(obj) - 1, LV_
 318:Drivers/lvgl/src/widgets/lv_slider.c ****             else lv_slider_set_left_value(obj, lv_slider_get_left_value(obj) - 1, LV_ANIM_ON);
 319:Drivers/lvgl/src/widgets/lv_slider.c ****         }
 320:Drivers/lvgl/src/widgets/lv_slider.c ****         else {
 321:Drivers/lvgl/src/widgets/lv_slider.c ****             return;
 322:Drivers/lvgl/src/widgets/lv_slider.c ****         }
 323:Drivers/lvgl/src/widgets/lv_slider.c **** 
 324:Drivers/lvgl/src/widgets/lv_slider.c ****         res = lv_event_send(obj, LV_EVENT_VALUE_CHANGED, NULL);
 325:Drivers/lvgl/src/widgets/lv_slider.c ****         if(res != LV_RES_OK) return;
 326:Drivers/lvgl/src/widgets/lv_slider.c ****     }
 327:Drivers/lvgl/src/widgets/lv_slider.c ****     else if(code == LV_EVENT_DRAW_MAIN) {
 328:Drivers/lvgl/src/widgets/lv_slider.c ****         draw_knob(e);
 329:Drivers/lvgl/src/widgets/lv_slider.c ****     }
 330:Drivers/lvgl/src/widgets/lv_slider.c **** }
 331:Drivers/lvgl/src/widgets/lv_slider.c **** 
 332:Drivers/lvgl/src/widgets/lv_slider.c **** static void draw_knob(lv_event_t * e)
 333:Drivers/lvgl/src/widgets/lv_slider.c **** {
 334:Drivers/lvgl/src/widgets/lv_slider.c ****     lv_obj_t * obj = lv_event_get_target(e);
 335:Drivers/lvgl/src/widgets/lv_slider.c ****     lv_slider_t * slider = (lv_slider_t *)obj;
 336:Drivers/lvgl/src/widgets/lv_slider.c ****     lv_draw_ctx_t * draw_ctx = lv_event_get_draw_ctx(e);
 337:Drivers/lvgl/src/widgets/lv_slider.c **** 
 338:Drivers/lvgl/src/widgets/lv_slider.c ****     const bool is_rtl = LV_BASE_DIR_RTL == lv_obj_get_style_base_dir(obj, LV_PART_MAIN);
 339:Drivers/lvgl/src/widgets/lv_slider.c ****     const bool is_horizontal = is_slider_horizontal(obj);
 340:Drivers/lvgl/src/widgets/lv_slider.c **** 
 341:Drivers/lvgl/src/widgets/lv_slider.c ****     lv_area_t knob_area;
 342:Drivers/lvgl/src/widgets/lv_slider.c ****     lv_coord_t knob_size;
 343:Drivers/lvgl/src/widgets/lv_slider.c ****     bool is_symmetrical = false;
 344:Drivers/lvgl/src/widgets/lv_slider.c ****     if(slider->bar.mode == LV_BAR_MODE_SYMMETRICAL && slider->bar.min_value < 0 &&
 345:Drivers/lvgl/src/widgets/lv_slider.c ****        slider->bar.max_value > 0) is_symmetrical = true;
 346:Drivers/lvgl/src/widgets/lv_slider.c **** 
 347:Drivers/lvgl/src/widgets/lv_slider.c ****     if(is_horizontal) {
 348:Drivers/lvgl/src/widgets/lv_slider.c ****         knob_size = lv_obj_get_height(obj);
 349:Drivers/lvgl/src/widgets/lv_slider.c ****         if(is_symmetrical && slider->bar.cur_value < 0) knob_area.x1 = slider->bar.indic_area.x1;
 350:Drivers/lvgl/src/widgets/lv_slider.c ****         else knob_area.x1 = LV_SLIDER_KNOB_COORD(is_rtl, slider->bar.indic_area);
 351:Drivers/lvgl/src/widgets/lv_slider.c ****     }
 352:Drivers/lvgl/src/widgets/lv_slider.c ****     else {
 353:Drivers/lvgl/src/widgets/lv_slider.c ****         knob_size = lv_obj_get_width(obj);
 354:Drivers/lvgl/src/widgets/lv_slider.c ****         if(is_symmetrical && slider->bar.cur_value < 0) knob_area.y1 = slider->bar.indic_area.y2;
 355:Drivers/lvgl/src/widgets/lv_slider.c ****         else knob_area.y1 = slider->bar.indic_area.y1;
 356:Drivers/lvgl/src/widgets/lv_slider.c ****     }
 357:Drivers/lvgl/src/widgets/lv_slider.c **** 
 358:Drivers/lvgl/src/widgets/lv_slider.c ****     lv_draw_rect_dsc_t knob_rect_dsc;
 359:Drivers/lvgl/src/widgets/lv_slider.c ****     lv_draw_rect_dsc_init(&knob_rect_dsc);
 360:Drivers/lvgl/src/widgets/lv_slider.c ****     lv_obj_init_draw_rect_dsc(obj, LV_PART_KNOB, &knob_rect_dsc);
 361:Drivers/lvgl/src/widgets/lv_slider.c ****     /* Update knob area with knob style */
 362:Drivers/lvgl/src/widgets/lv_slider.c ****     position_knob(obj, &knob_area, knob_size, is_horizontal);
 363:Drivers/lvgl/src/widgets/lv_slider.c ****     /* Update right knob area with calculated knob area */
 364:Drivers/lvgl/src/widgets/lv_slider.c ****     lv_area_copy(&slider->right_knob_area, &knob_area);
 365:Drivers/lvgl/src/widgets/lv_slider.c **** 
 366:Drivers/lvgl/src/widgets/lv_slider.c ****     lv_obj_draw_part_dsc_t part_draw_dsc;
 367:Drivers/lvgl/src/widgets/lv_slider.c ****     lv_obj_draw_dsc_init(&part_draw_dsc, draw_ctx);
 368:Drivers/lvgl/src/widgets/lv_slider.c ****     part_draw_dsc.part = LV_PART_KNOB;
 369:Drivers/lvgl/src/widgets/lv_slider.c ****     part_draw_dsc.class_p = MY_CLASS;
 370:Drivers/lvgl/src/widgets/lv_slider.c ****     part_draw_dsc.type = LV_SLIDER_DRAW_PART_KNOB;
 371:Drivers/lvgl/src/widgets/lv_slider.c ****     part_draw_dsc.id = 0;
 372:Drivers/lvgl/src/widgets/lv_slider.c ****     part_draw_dsc.draw_area = &slider->right_knob_area;
 373:Drivers/lvgl/src/widgets/lv_slider.c ****     part_draw_dsc.rect_dsc = &knob_rect_dsc;
ARM GAS  /var/folders/0z/tsy30v1j4xl4_7kw94k978ww0000gn/T//ccS0VXUs.s 			page 8


 374:Drivers/lvgl/src/widgets/lv_slider.c **** 
 375:Drivers/lvgl/src/widgets/lv_slider.c ****     if(lv_slider_get_mode(obj) != LV_SLIDER_MODE_RANGE) {
 376:Drivers/lvgl/src/widgets/lv_slider.c ****         lv_event_send(obj, LV_EVENT_DRAW_PART_BEGIN, &part_draw_dsc);
 377:Drivers/lvgl/src/widgets/lv_slider.c ****         lv_draw_rect(draw_ctx, &knob_rect_dsc, &slider->right_knob_area);
 378:Drivers/lvgl/src/widgets/lv_slider.c ****         lv_event_send(obj, LV_EVENT_DRAW_PART_END, &part_draw_dsc);
 379:Drivers/lvgl/src/widgets/lv_slider.c ****     }
 380:Drivers/lvgl/src/widgets/lv_slider.c ****     else {
 381:Drivers/lvgl/src/widgets/lv_slider.c ****         /*Save the draw part_draw_dsc. because it can be modified in the event*/
 382:Drivers/lvgl/src/widgets/lv_slider.c ****         lv_draw_rect_dsc_t knob_rect_dsc_tmp;
 383:Drivers/lvgl/src/widgets/lv_slider.c ****         lv_memcpy(&knob_rect_dsc_tmp, &knob_rect_dsc, sizeof(lv_draw_rect_dsc_t));
 384:Drivers/lvgl/src/widgets/lv_slider.c ****         /* Draw the right knob */
 385:Drivers/lvgl/src/widgets/lv_slider.c ****         lv_event_send(obj, LV_EVENT_DRAW_PART_BEGIN, &part_draw_dsc);
 386:Drivers/lvgl/src/widgets/lv_slider.c ****         lv_draw_rect(draw_ctx, &knob_rect_dsc, &slider->right_knob_area);
 387:Drivers/lvgl/src/widgets/lv_slider.c ****         lv_event_send(obj, LV_EVENT_DRAW_PART_END, &part_draw_dsc);
 388:Drivers/lvgl/src/widgets/lv_slider.c **** 
 389:Drivers/lvgl/src/widgets/lv_slider.c ****         /*Calculate the second knob area*/
 390:Drivers/lvgl/src/widgets/lv_slider.c ****         if(is_horizontal) {
 391:Drivers/lvgl/src/widgets/lv_slider.c ****             /*use !is_rtl to get the other knob*/
 392:Drivers/lvgl/src/widgets/lv_slider.c ****             knob_area.x1 = LV_SLIDER_KNOB_COORD(!is_rtl, slider->bar.indic_area);
 393:Drivers/lvgl/src/widgets/lv_slider.c ****         }
 394:Drivers/lvgl/src/widgets/lv_slider.c ****         else {
 395:Drivers/lvgl/src/widgets/lv_slider.c ****             knob_area.y1 = slider->bar.indic_area.y2;
 396:Drivers/lvgl/src/widgets/lv_slider.c ****         }
 397:Drivers/lvgl/src/widgets/lv_slider.c ****         position_knob(obj, &knob_area, knob_size, is_horizontal);
 398:Drivers/lvgl/src/widgets/lv_slider.c ****         lv_area_copy(&slider->left_knob_area, &knob_area);
 399:Drivers/lvgl/src/widgets/lv_slider.c **** 
 400:Drivers/lvgl/src/widgets/lv_slider.c ****         lv_memcpy(&knob_rect_dsc, &knob_rect_dsc_tmp, sizeof(lv_draw_rect_dsc_t));
 401:Drivers/lvgl/src/widgets/lv_slider.c ****         part_draw_dsc.type = LV_SLIDER_DRAW_PART_KNOB_LEFT;
 402:Drivers/lvgl/src/widgets/lv_slider.c ****         part_draw_dsc.draw_area = &slider->left_knob_area;
 403:Drivers/lvgl/src/widgets/lv_slider.c ****         part_draw_dsc.rect_dsc = &knob_rect_dsc;
 404:Drivers/lvgl/src/widgets/lv_slider.c ****         part_draw_dsc.id = 1;
 405:Drivers/lvgl/src/widgets/lv_slider.c **** 
 406:Drivers/lvgl/src/widgets/lv_slider.c ****         lv_event_send(obj, LV_EVENT_DRAW_PART_BEGIN, &part_draw_dsc);
 407:Drivers/lvgl/src/widgets/lv_slider.c ****         lv_draw_rect(draw_ctx, &knob_rect_dsc, &slider->left_knob_area);
 408:Drivers/lvgl/src/widgets/lv_slider.c ****         lv_event_send(obj, LV_EVENT_DRAW_PART_END, &part_draw_dsc);
 409:Drivers/lvgl/src/widgets/lv_slider.c ****     }
 410:Drivers/lvgl/src/widgets/lv_slider.c **** }
 411:Drivers/lvgl/src/widgets/lv_slider.c **** 
 412:Drivers/lvgl/src/widgets/lv_slider.c **** static void position_knob(lv_obj_t * obj, lv_area_t * knob_area, const lv_coord_t knob_size, const 
 413:Drivers/lvgl/src/widgets/lv_slider.c **** {
  28              		.loc 1 413 1 view -0
  29              		.cfi_startproc
  30              		@ args = 0, pretend = 0, frame = 0
  31              		@ frame_needed = 0, uses_anonymous_args = 0
 414:Drivers/lvgl/src/widgets/lv_slider.c ****     if(hor) {
  32              		.loc 1 414 5 view .LVU1
 413:Drivers/lvgl/src/widgets/lv_slider.c ****     if(hor) {
  33              		.loc 1 413 1 is_stmt 0 view .LVU2
  34 0000 2DE9F843 		push	{r3, r4, r5, r6, r7, r8, r9, lr}
  35              		.cfi_def_cfa_offset 32
  36              		.cfi_offset 3, -32
  37              		.cfi_offset 4, -28
  38              		.cfi_offset 5, -24
  39              		.cfi_offset 6, -20
  40              		.cfi_offset 7, -16
  41              		.cfi_offset 8, -12
  42              		.cfi_offset 9, -8
ARM GAS  /var/folders/0z/tsy30v1j4xl4_7kw94k978ww0000gn/T//ccS0VXUs.s 			page 9


  43              		.cfi_offset 14, -4
 413:Drivers/lvgl/src/widgets/lv_slider.c ****     if(hor) {
  44              		.loc 1 413 1 view .LVU3
  45 0004 0546     		mov	r5, r0
  46 0006 0C46     		mov	r4, r1
  47              		.loc 1 414 7 view .LVU4
  48 0008 002B     		cmp	r3, #0
  49 000a 4BD0     		beq	.L2
 415:Drivers/lvgl/src/widgets/lv_slider.c ****         knob_area->x1 -= (knob_size >> 1);
  50              		.loc 1 415 9 is_stmt 1 view .LVU5
  51              		.loc 1 415 23 is_stmt 0 view .LVU6
  52 000c 0B88     		ldrh	r3, [r1]
  53              	.LVL1:
  54              		.loc 1 415 23 view .LVU7
  55 000e A3EB6203 		sub	r3, r3, r2, asr #1
  56 0012 9BB2     		uxth	r3, r3
 416:Drivers/lvgl/src/widgets/lv_slider.c ****         knob_area->x2 = knob_area->x1 + knob_size - 1;
  57              		.loc 1 416 51 view .LVU8
  58 0014 511E     		subs	r1, r2, #1
  59              	.LVL2:
  60              		.loc 1 416 51 view .LVU9
  61 0016 5A18     		adds	r2, r3, r1
  62              	.LVL3:
 415:Drivers/lvgl/src/widgets/lv_slider.c ****         knob_area->x1 -= (knob_size >> 1);
  63              		.loc 1 415 23 view .LVU10
  64 0018 2380     		strh	r3, [r4]	@ movhi
  65              		.loc 1 416 9 is_stmt 1 view .LVU11
 417:Drivers/lvgl/src/widgets/lv_slider.c ****         knob_area->y1 = obj->coords.y1;
  66              		.loc 1 417 36 is_stmt 0 view .LVU12
  67 001a B0F91610 		ldrsh	r1, [r0, #22]
 418:Drivers/lvgl/src/widgets/lv_slider.c ****         knob_area->y2 = obj->coords.y2;
  68              		.loc 1 418 36 view .LVU13
  69 001e B0F91A30 		ldrsh	r3, [r0, #26]
  70              		.loc 1 418 23 view .LVU14
  71 0022 E380     		strh	r3, [r4, #6]	@ movhi
 416:Drivers/lvgl/src/widgets/lv_slider.c ****         knob_area->x2 = knob_area->x1 + knob_size - 1;
  72              		.loc 1 416 23 view .LVU15
  73 0024 A280     		strh	r2, [r4, #4]	@ movhi
 417:Drivers/lvgl/src/widgets/lv_slider.c ****         knob_area->y1 = obj->coords.y1;
  74              		.loc 1 417 9 is_stmt 1 view .LVU16
 417:Drivers/lvgl/src/widgets/lv_slider.c ****         knob_area->y1 = obj->coords.y1;
  75              		.loc 1 417 23 is_stmt 0 view .LVU17
  76 0026 6180     		strh	r1, [r4, #2]	@ movhi
  77              		.loc 1 418 9 is_stmt 1 view .LVU18
  78              	.L3:
 419:Drivers/lvgl/src/widgets/lv_slider.c ****     }
 420:Drivers/lvgl/src/widgets/lv_slider.c ****     else {
 421:Drivers/lvgl/src/widgets/lv_slider.c ****         knob_area->y1 -= (knob_size >> 1);
 422:Drivers/lvgl/src/widgets/lv_slider.c ****         knob_area->y2 = knob_area->y1 + knob_size - 1;
 423:Drivers/lvgl/src/widgets/lv_slider.c ****         knob_area->x1 = obj->coords.x1;
 424:Drivers/lvgl/src/widgets/lv_slider.c ****         knob_area->x2 = obj->coords.x2;
 425:Drivers/lvgl/src/widgets/lv_slider.c ****     }
 426:Drivers/lvgl/src/widgets/lv_slider.c **** 
 427:Drivers/lvgl/src/widgets/lv_slider.c ****     lv_coord_t knob_left = lv_obj_get_style_pad_left(obj, LV_PART_KNOB);
  79              		.loc 1 427 5 view .LVU19
  80              	.LVL4:
  81              	.LBB149:
ARM GAS  /var/folders/0z/tsy30v1j4xl4_7kw94k978ww0000gn/T//ccS0VXUs.s 			page 10


  82              	.LBI149:
  83              		.file 2 "Drivers/lvgl/src/widgets/../core/lv_obj_style_gen.h"
   1:Drivers/lvgl/src/widgets/../core/lv_obj_style_gen.h **** static inline lv_coord_t lv_obj_get_style_width(const struct _lv_obj_t * obj, uint32_t part)
   2:Drivers/lvgl/src/widgets/../core/lv_obj_style_gen.h **** {
   3:Drivers/lvgl/src/widgets/../core/lv_obj_style_gen.h ****     lv_style_value_t v = lv_obj_get_style_prop(obj, part, LV_STYLE_WIDTH);
   4:Drivers/lvgl/src/widgets/../core/lv_obj_style_gen.h ****     return (lv_coord_t)v.num;
   5:Drivers/lvgl/src/widgets/../core/lv_obj_style_gen.h **** }
   6:Drivers/lvgl/src/widgets/../core/lv_obj_style_gen.h **** 
   7:Drivers/lvgl/src/widgets/../core/lv_obj_style_gen.h **** static inline lv_coord_t lv_obj_get_style_min_width(const struct _lv_obj_t * obj, uint32_t part)
   8:Drivers/lvgl/src/widgets/../core/lv_obj_style_gen.h **** {
   9:Drivers/lvgl/src/widgets/../core/lv_obj_style_gen.h ****     lv_style_value_t v = lv_obj_get_style_prop(obj, part, LV_STYLE_MIN_WIDTH);
  10:Drivers/lvgl/src/widgets/../core/lv_obj_style_gen.h ****     return (lv_coord_t)v.num;
  11:Drivers/lvgl/src/widgets/../core/lv_obj_style_gen.h **** }
  12:Drivers/lvgl/src/widgets/../core/lv_obj_style_gen.h **** 
  13:Drivers/lvgl/src/widgets/../core/lv_obj_style_gen.h **** static inline lv_coord_t lv_obj_get_style_max_width(const struct _lv_obj_t * obj, uint32_t part)
  14:Drivers/lvgl/src/widgets/../core/lv_obj_style_gen.h **** {
  15:Drivers/lvgl/src/widgets/../core/lv_obj_style_gen.h ****     lv_style_value_t v = lv_obj_get_style_prop(obj, part, LV_STYLE_MAX_WIDTH);
  16:Drivers/lvgl/src/widgets/../core/lv_obj_style_gen.h ****     return (lv_coord_t)v.num;
  17:Drivers/lvgl/src/widgets/../core/lv_obj_style_gen.h **** }
  18:Drivers/lvgl/src/widgets/../core/lv_obj_style_gen.h **** 
  19:Drivers/lvgl/src/widgets/../core/lv_obj_style_gen.h **** static inline lv_coord_t lv_obj_get_style_height(const struct _lv_obj_t * obj, uint32_t part)
  20:Drivers/lvgl/src/widgets/../core/lv_obj_style_gen.h **** {
  21:Drivers/lvgl/src/widgets/../core/lv_obj_style_gen.h ****     lv_style_value_t v = lv_obj_get_style_prop(obj, part, LV_STYLE_HEIGHT);
  22:Drivers/lvgl/src/widgets/../core/lv_obj_style_gen.h ****     return (lv_coord_t)v.num;
  23:Drivers/lvgl/src/widgets/../core/lv_obj_style_gen.h **** }
  24:Drivers/lvgl/src/widgets/../core/lv_obj_style_gen.h **** 
  25:Drivers/lvgl/src/widgets/../core/lv_obj_style_gen.h **** static inline lv_coord_t lv_obj_get_style_min_height(const struct _lv_obj_t * obj, uint32_t part)
  26:Drivers/lvgl/src/widgets/../core/lv_obj_style_gen.h **** {
  27:Drivers/lvgl/src/widgets/../core/lv_obj_style_gen.h ****     lv_style_value_t v = lv_obj_get_style_prop(obj, part, LV_STYLE_MIN_HEIGHT);
  28:Drivers/lvgl/src/widgets/../core/lv_obj_style_gen.h ****     return (lv_coord_t)v.num;
  29:Drivers/lvgl/src/widgets/../core/lv_obj_style_gen.h **** }
  30:Drivers/lvgl/src/widgets/../core/lv_obj_style_gen.h **** 
  31:Drivers/lvgl/src/widgets/../core/lv_obj_style_gen.h **** static inline lv_coord_t lv_obj_get_style_max_height(const struct _lv_obj_t * obj, uint32_t part)
  32:Drivers/lvgl/src/widgets/../core/lv_obj_style_gen.h **** {
  33:Drivers/lvgl/src/widgets/../core/lv_obj_style_gen.h ****     lv_style_value_t v = lv_obj_get_style_prop(obj, part, LV_STYLE_MAX_HEIGHT);
  34:Drivers/lvgl/src/widgets/../core/lv_obj_style_gen.h ****     return (lv_coord_t)v.num;
  35:Drivers/lvgl/src/widgets/../core/lv_obj_style_gen.h **** }
  36:Drivers/lvgl/src/widgets/../core/lv_obj_style_gen.h **** 
  37:Drivers/lvgl/src/widgets/../core/lv_obj_style_gen.h **** static inline lv_coord_t lv_obj_get_style_x(const struct _lv_obj_t * obj, uint32_t part)
  38:Drivers/lvgl/src/widgets/../core/lv_obj_style_gen.h **** {
  39:Drivers/lvgl/src/widgets/../core/lv_obj_style_gen.h ****     lv_style_value_t v = lv_obj_get_style_prop(obj, part, LV_STYLE_X);
  40:Drivers/lvgl/src/widgets/../core/lv_obj_style_gen.h ****     return (lv_coord_t)v.num;
  41:Drivers/lvgl/src/widgets/../core/lv_obj_style_gen.h **** }
  42:Drivers/lvgl/src/widgets/../core/lv_obj_style_gen.h **** 
  43:Drivers/lvgl/src/widgets/../core/lv_obj_style_gen.h **** static inline lv_coord_t lv_obj_get_style_y(const struct _lv_obj_t * obj, uint32_t part)
  44:Drivers/lvgl/src/widgets/../core/lv_obj_style_gen.h **** {
  45:Drivers/lvgl/src/widgets/../core/lv_obj_style_gen.h ****     lv_style_value_t v = lv_obj_get_style_prop(obj, part, LV_STYLE_Y);
  46:Drivers/lvgl/src/widgets/../core/lv_obj_style_gen.h ****     return (lv_coord_t)v.num;
  47:Drivers/lvgl/src/widgets/../core/lv_obj_style_gen.h **** }
  48:Drivers/lvgl/src/widgets/../core/lv_obj_style_gen.h **** 
  49:Drivers/lvgl/src/widgets/../core/lv_obj_style_gen.h **** static inline lv_align_t lv_obj_get_style_align(const struct _lv_obj_t * obj, uint32_t part)
  50:Drivers/lvgl/src/widgets/../core/lv_obj_style_gen.h **** {
  51:Drivers/lvgl/src/widgets/../core/lv_obj_style_gen.h ****     lv_style_value_t v = lv_obj_get_style_prop(obj, part, LV_STYLE_ALIGN);
  52:Drivers/lvgl/src/widgets/../core/lv_obj_style_gen.h ****     return (lv_align_t)v.num;
  53:Drivers/lvgl/src/widgets/../core/lv_obj_style_gen.h **** }
  54:Drivers/lvgl/src/widgets/../core/lv_obj_style_gen.h **** 
  55:Drivers/lvgl/src/widgets/../core/lv_obj_style_gen.h **** static inline lv_coord_t lv_obj_get_style_transform_width(const struct _lv_obj_t * obj, uint32_t pa
ARM GAS  /var/folders/0z/tsy30v1j4xl4_7kw94k978ww0000gn/T//ccS0VXUs.s 			page 11


  56:Drivers/lvgl/src/widgets/../core/lv_obj_style_gen.h **** {
  57:Drivers/lvgl/src/widgets/../core/lv_obj_style_gen.h ****     lv_style_value_t v = lv_obj_get_style_prop(obj, part, LV_STYLE_TRANSFORM_WIDTH);
  58:Drivers/lvgl/src/widgets/../core/lv_obj_style_gen.h ****     return (lv_coord_t)v.num;
  59:Drivers/lvgl/src/widgets/../core/lv_obj_style_gen.h **** }
  60:Drivers/lvgl/src/widgets/../core/lv_obj_style_gen.h **** 
  61:Drivers/lvgl/src/widgets/../core/lv_obj_style_gen.h **** static inline lv_coord_t lv_obj_get_style_transform_height(const struct _lv_obj_t * obj, uint32_t p
  62:Drivers/lvgl/src/widgets/../core/lv_obj_style_gen.h **** {
  63:Drivers/lvgl/src/widgets/../core/lv_obj_style_gen.h ****     lv_style_value_t v = lv_obj_get_style_prop(obj, part, LV_STYLE_TRANSFORM_HEIGHT);
  64:Drivers/lvgl/src/widgets/../core/lv_obj_style_gen.h ****     return (lv_coord_t)v.num;
  65:Drivers/lvgl/src/widgets/../core/lv_obj_style_gen.h **** }
  66:Drivers/lvgl/src/widgets/../core/lv_obj_style_gen.h **** 
  67:Drivers/lvgl/src/widgets/../core/lv_obj_style_gen.h **** static inline lv_coord_t lv_obj_get_style_translate_x(const struct _lv_obj_t * obj, uint32_t part)
  68:Drivers/lvgl/src/widgets/../core/lv_obj_style_gen.h **** {
  69:Drivers/lvgl/src/widgets/../core/lv_obj_style_gen.h ****     lv_style_value_t v = lv_obj_get_style_prop(obj, part, LV_STYLE_TRANSLATE_X);
  70:Drivers/lvgl/src/widgets/../core/lv_obj_style_gen.h ****     return (lv_coord_t)v.num;
  71:Drivers/lvgl/src/widgets/../core/lv_obj_style_gen.h **** }
  72:Drivers/lvgl/src/widgets/../core/lv_obj_style_gen.h **** 
  73:Drivers/lvgl/src/widgets/../core/lv_obj_style_gen.h **** static inline lv_coord_t lv_obj_get_style_translate_y(const struct _lv_obj_t * obj, uint32_t part)
  74:Drivers/lvgl/src/widgets/../core/lv_obj_style_gen.h **** {
  75:Drivers/lvgl/src/widgets/../core/lv_obj_style_gen.h ****     lv_style_value_t v = lv_obj_get_style_prop(obj, part, LV_STYLE_TRANSLATE_Y);
  76:Drivers/lvgl/src/widgets/../core/lv_obj_style_gen.h ****     return (lv_coord_t)v.num;
  77:Drivers/lvgl/src/widgets/../core/lv_obj_style_gen.h **** }
  78:Drivers/lvgl/src/widgets/../core/lv_obj_style_gen.h **** 
  79:Drivers/lvgl/src/widgets/../core/lv_obj_style_gen.h **** static inline lv_coord_t lv_obj_get_style_transform_zoom(const struct _lv_obj_t * obj, uint32_t par
  80:Drivers/lvgl/src/widgets/../core/lv_obj_style_gen.h **** {
  81:Drivers/lvgl/src/widgets/../core/lv_obj_style_gen.h ****     lv_style_value_t v = lv_obj_get_style_prop(obj, part, LV_STYLE_TRANSFORM_ZOOM);
  82:Drivers/lvgl/src/widgets/../core/lv_obj_style_gen.h ****     return (lv_coord_t)v.num;
  83:Drivers/lvgl/src/widgets/../core/lv_obj_style_gen.h **** }
  84:Drivers/lvgl/src/widgets/../core/lv_obj_style_gen.h **** 
  85:Drivers/lvgl/src/widgets/../core/lv_obj_style_gen.h **** static inline lv_coord_t lv_obj_get_style_transform_angle(const struct _lv_obj_t * obj, uint32_t pa
  86:Drivers/lvgl/src/widgets/../core/lv_obj_style_gen.h **** {
  87:Drivers/lvgl/src/widgets/../core/lv_obj_style_gen.h ****     lv_style_value_t v = lv_obj_get_style_prop(obj, part, LV_STYLE_TRANSFORM_ANGLE);
  88:Drivers/lvgl/src/widgets/../core/lv_obj_style_gen.h ****     return (lv_coord_t)v.num;
  89:Drivers/lvgl/src/widgets/../core/lv_obj_style_gen.h **** }
  90:Drivers/lvgl/src/widgets/../core/lv_obj_style_gen.h **** 
  91:Drivers/lvgl/src/widgets/../core/lv_obj_style_gen.h **** static inline lv_coord_t lv_obj_get_style_transform_pivot_x(const struct _lv_obj_t * obj, uint32_t 
  92:Drivers/lvgl/src/widgets/../core/lv_obj_style_gen.h **** {
  93:Drivers/lvgl/src/widgets/../core/lv_obj_style_gen.h ****     lv_style_value_t v = lv_obj_get_style_prop(obj, part, LV_STYLE_TRANSFORM_PIVOT_X);
  94:Drivers/lvgl/src/widgets/../core/lv_obj_style_gen.h ****     return (lv_coord_t)v.num;
  95:Drivers/lvgl/src/widgets/../core/lv_obj_style_gen.h **** }
  96:Drivers/lvgl/src/widgets/../core/lv_obj_style_gen.h **** 
  97:Drivers/lvgl/src/widgets/../core/lv_obj_style_gen.h **** static inline lv_coord_t lv_obj_get_style_transform_pivot_y(const struct _lv_obj_t * obj, uint32_t 
  98:Drivers/lvgl/src/widgets/../core/lv_obj_style_gen.h **** {
  99:Drivers/lvgl/src/widgets/../core/lv_obj_style_gen.h ****     lv_style_value_t v = lv_obj_get_style_prop(obj, part, LV_STYLE_TRANSFORM_PIVOT_Y);
 100:Drivers/lvgl/src/widgets/../core/lv_obj_style_gen.h ****     return (lv_coord_t)v.num;
 101:Drivers/lvgl/src/widgets/../core/lv_obj_style_gen.h **** }
 102:Drivers/lvgl/src/widgets/../core/lv_obj_style_gen.h **** 
 103:Drivers/lvgl/src/widgets/../core/lv_obj_style_gen.h **** static inline lv_coord_t lv_obj_get_style_pad_top(const struct _lv_obj_t * obj, uint32_t part)
 104:Drivers/lvgl/src/widgets/../core/lv_obj_style_gen.h **** {
 105:Drivers/lvgl/src/widgets/../core/lv_obj_style_gen.h ****     lv_style_value_t v = lv_obj_get_style_prop(obj, part, LV_STYLE_PAD_TOP);
 106:Drivers/lvgl/src/widgets/../core/lv_obj_style_gen.h ****     return (lv_coord_t)v.num;
 107:Drivers/lvgl/src/widgets/../core/lv_obj_style_gen.h **** }
 108:Drivers/lvgl/src/widgets/../core/lv_obj_style_gen.h **** 
 109:Drivers/lvgl/src/widgets/../core/lv_obj_style_gen.h **** static inline lv_coord_t lv_obj_get_style_pad_bottom(const struct _lv_obj_t * obj, uint32_t part)
 110:Drivers/lvgl/src/widgets/../core/lv_obj_style_gen.h **** {
 111:Drivers/lvgl/src/widgets/../core/lv_obj_style_gen.h ****     lv_style_value_t v = lv_obj_get_style_prop(obj, part, LV_STYLE_PAD_BOTTOM);
 112:Drivers/lvgl/src/widgets/../core/lv_obj_style_gen.h ****     return (lv_coord_t)v.num;
ARM GAS  /var/folders/0z/tsy30v1j4xl4_7kw94k978ww0000gn/T//ccS0VXUs.s 			page 12


 113:Drivers/lvgl/src/widgets/../core/lv_obj_style_gen.h **** }
 114:Drivers/lvgl/src/widgets/../core/lv_obj_style_gen.h **** 
 115:Drivers/lvgl/src/widgets/../core/lv_obj_style_gen.h **** static inline lv_coord_t lv_obj_get_style_pad_left(const struct _lv_obj_t * obj, uint32_t part)
  84              		.loc 2 115 26 view .LVU20
  85              	.LBB150:
 116:Drivers/lvgl/src/widgets/../core/lv_obj_style_gen.h **** {
 117:Drivers/lvgl/src/widgets/../core/lv_obj_style_gen.h ****     lv_style_value_t v = lv_obj_get_style_prop(obj, part, LV_STYLE_PAD_LEFT);
  86              		.loc 2 117 5 view .LVU21
  87              		.loc 2 117 26 is_stmt 0 view .LVU22
  88 0028 1222     		movs	r2, #18
  89 002a 4FF44031 		mov	r1, #196608
  90 002e 2846     		mov	r0, r5
  91              	.LVL5:
  92              		.loc 2 117 26 view .LVU23
  93 0030 FFF7FEFF 		bl	lv_obj_get_style_prop
  94              	.LVL6:
  95              		.loc 2 117 26 view .LVU24
  96              	.LBE150:
  97              	.LBE149:
  98              	.LBB152:
  99              	.LBB153:
 118:Drivers/lvgl/src/widgets/../core/lv_obj_style_gen.h ****     return (lv_coord_t)v.num;
 119:Drivers/lvgl/src/widgets/../core/lv_obj_style_gen.h **** }
 120:Drivers/lvgl/src/widgets/../core/lv_obj_style_gen.h **** 
 121:Drivers/lvgl/src/widgets/../core/lv_obj_style_gen.h **** static inline lv_coord_t lv_obj_get_style_pad_right(const struct _lv_obj_t * obj, uint32_t part)
 122:Drivers/lvgl/src/widgets/../core/lv_obj_style_gen.h **** {
 123:Drivers/lvgl/src/widgets/../core/lv_obj_style_gen.h ****     lv_style_value_t v = lv_obj_get_style_prop(obj, part, LV_STYLE_PAD_RIGHT);
 100              		.loc 2 123 26 view .LVU25
 101 0034 1322     		movs	r2, #19
 102 0036 4FF44031 		mov	r1, #196608
 103              	.LBE153:
 104              	.LBE152:
 105              	.LBB156:
 106              	.LBB151:
 117:Drivers/lvgl/src/widgets/../core/lv_obj_style_gen.h ****     return (lv_coord_t)v.num;
 107              		.loc 2 117 26 view .LVU26
 108 003a 0746     		mov	r7, r0
 109              	.LVL7:
 118:Drivers/lvgl/src/widgets/../core/lv_obj_style_gen.h ****     return (lv_coord_t)v.num;
 110              		.loc 2 118 5 is_stmt 1 view .LVU27
 118:Drivers/lvgl/src/widgets/../core/lv_obj_style_gen.h ****     return (lv_coord_t)v.num;
 111              		.loc 2 118 5 is_stmt 0 view .LVU28
 112              	.LBE151:
 113              	.LBE156:
 428:Drivers/lvgl/src/widgets/lv_slider.c ****     lv_coord_t knob_right = lv_obj_get_style_pad_right(obj, LV_PART_KNOB);
 114              		.loc 1 428 5 is_stmt 1 view .LVU29
 115              	.LBB157:
 116              	.LBI152:
 121:Drivers/lvgl/src/widgets/../core/lv_obj_style_gen.h **** {
 117              		.loc 2 121 26 view .LVU30
 118              	.LBB154:
 119              		.loc 2 123 5 view .LVU31
 120              		.loc 2 123 26 is_stmt 0 view .LVU32
 121 003c 2846     		mov	r0, r5
 122 003e FFF7FEFF 		bl	lv_obj_get_style_prop
 123              	.LVL8:
 124              	.LBE154:
ARM GAS  /var/folders/0z/tsy30v1j4xl4_7kw94k978ww0000gn/T//ccS0VXUs.s 			page 13


 125              	.LBE157:
 126              	.LBB158:
 127              	.LBB159:
 105:Drivers/lvgl/src/widgets/../core/lv_obj_style_gen.h ****     return (lv_coord_t)v.num;
 128              		.loc 2 105 26 view .LVU33
 129 0042 1022     		movs	r2, #16
 130              	.LBE159:
 131              	.LBE158:
 132              	.LBB162:
 133              	.LBB155:
 134              		.loc 2 123 26 view .LVU34
 135 0044 8146     		mov	r9, r0
 136              	.LVL9:
 124:Drivers/lvgl/src/widgets/../core/lv_obj_style_gen.h ****     return (lv_coord_t)v.num;
 137              		.loc 2 124 5 is_stmt 1 view .LVU35
 138              		.loc 2 124 5 is_stmt 0 view .LVU36
 139              	.LBE155:
 140              	.LBE162:
 429:Drivers/lvgl/src/widgets/lv_slider.c ****     lv_coord_t knob_top = lv_obj_get_style_pad_top(obj, LV_PART_KNOB);
 141              		.loc 1 429 5 is_stmt 1 view .LVU37
 142              	.LBB163:
 143              	.LBI158:
 103:Drivers/lvgl/src/widgets/../core/lv_obj_style_gen.h **** {
 144              		.loc 2 103 26 view .LVU38
 145              	.LBB160:
 105:Drivers/lvgl/src/widgets/../core/lv_obj_style_gen.h ****     return (lv_coord_t)v.num;
 146              		.loc 2 105 5 view .LVU39
 105:Drivers/lvgl/src/widgets/../core/lv_obj_style_gen.h ****     return (lv_coord_t)v.num;
 147              		.loc 2 105 26 is_stmt 0 view .LVU40
 148 0046 4FF44031 		mov	r1, #196608
 149 004a 2846     		mov	r0, r5
 150 004c FFF7FEFF 		bl	lv_obj_get_style_prop
 151              	.LVL10:
 152              	.LBE160:
 153              	.LBE163:
 154              	.LBB164:
 155              	.LBB165:
 111:Drivers/lvgl/src/widgets/../core/lv_obj_style_gen.h ****     return (lv_coord_t)v.num;
 156              		.loc 2 111 26 view .LVU41
 157 0050 1122     		movs	r2, #17
 158              	.LBE165:
 159              	.LBE164:
 160              	.LBB168:
 161              	.LBB161:
 105:Drivers/lvgl/src/widgets/../core/lv_obj_style_gen.h ****     return (lv_coord_t)v.num;
 162              		.loc 2 105 26 view .LVU42
 163 0052 0646     		mov	r6, r0
 164              	.LVL11:
 106:Drivers/lvgl/src/widgets/../core/lv_obj_style_gen.h **** }
 165              		.loc 2 106 5 is_stmt 1 view .LVU43
 106:Drivers/lvgl/src/widgets/../core/lv_obj_style_gen.h **** }
 166              		.loc 2 106 5 is_stmt 0 view .LVU44
 167              	.LBE161:
 168              	.LBE168:
 430:Drivers/lvgl/src/widgets/lv_slider.c ****     lv_coord_t knob_bottom = lv_obj_get_style_pad_bottom(obj, LV_PART_KNOB);
 169              		.loc 1 430 5 is_stmt 1 view .LVU45
 170              	.LBB169:
ARM GAS  /var/folders/0z/tsy30v1j4xl4_7kw94k978ww0000gn/T//ccS0VXUs.s 			page 14


 171              	.LBI164:
 109:Drivers/lvgl/src/widgets/../core/lv_obj_style_gen.h **** {
 172              		.loc 2 109 26 view .LVU46
 173              	.LBB166:
 111:Drivers/lvgl/src/widgets/../core/lv_obj_style_gen.h ****     return (lv_coord_t)v.num;
 174              		.loc 2 111 5 view .LVU47
 111:Drivers/lvgl/src/widgets/../core/lv_obj_style_gen.h ****     return (lv_coord_t)v.num;
 175              		.loc 2 111 26 is_stmt 0 view .LVU48
 176 0054 4FF44031 		mov	r1, #196608
 177 0058 2846     		mov	r0, r5
 178 005a FFF7FEFF 		bl	lv_obj_get_style_prop
 179              	.LVL12:
 180              	.LBE166:
 181              	.LBE169:
 182              	.LBB170:
 183              	.LBB171:
  57:Drivers/lvgl/src/widgets/../core/lv_obj_style_gen.h ****     return (lv_coord_t)v.num;
 184              		.loc 2 57 26 view .LVU49
 185 005e 6922     		movs	r2, #105
 186              	.LBE171:
 187              	.LBE170:
 188              	.LBB174:
 189              	.LBB167:
 111:Drivers/lvgl/src/widgets/../core/lv_obj_style_gen.h ****     return (lv_coord_t)v.num;
 190              		.loc 2 111 26 view .LVU50
 191 0060 8046     		mov	r8, r0
 192              	.LVL13:
 112:Drivers/lvgl/src/widgets/../core/lv_obj_style_gen.h **** }
 193              		.loc 2 112 5 is_stmt 1 view .LVU51
 112:Drivers/lvgl/src/widgets/../core/lv_obj_style_gen.h **** }
 194              		.loc 2 112 5 is_stmt 0 view .LVU52
 195              	.LBE167:
 196              	.LBE174:
 431:Drivers/lvgl/src/widgets/lv_slider.c **** 
 432:Drivers/lvgl/src/widgets/lv_slider.c ****     lv_coord_t transf_w = lv_obj_get_style_transform_width(obj, LV_PART_KNOB);
 197              		.loc 1 432 5 is_stmt 1 view .LVU53
 198              	.LBB175:
 199              	.LBI170:
  55:Drivers/lvgl/src/widgets/../core/lv_obj_style_gen.h **** {
 200              		.loc 2 55 26 view .LVU54
 201              	.LBB172:
  57:Drivers/lvgl/src/widgets/../core/lv_obj_style_gen.h ****     return (lv_coord_t)v.num;
 202              		.loc 2 57 5 view .LVU55
  57:Drivers/lvgl/src/widgets/../core/lv_obj_style_gen.h ****     return (lv_coord_t)v.num;
 203              		.loc 2 57 26 is_stmt 0 view .LVU56
 204 0062 4FF44031 		mov	r1, #196608
 205 0066 2846     		mov	r0, r5
 206 0068 FFF7FEFF 		bl	lv_obj_get_style_prop
 207              	.LVL14:
 208 006c 0346     		mov	r3, r0
 209              	.LBE172:
 210              	.LBE175:
 211              	.LBB176:
 212              	.LBB177:
  63:Drivers/lvgl/src/widgets/../core/lv_obj_style_gen.h ****     return (lv_coord_t)v.num;
 213              		.loc 2 63 26 view .LVU57
 214 006e 6A22     		movs	r2, #106
ARM GAS  /var/folders/0z/tsy30v1j4xl4_7kw94k978ww0000gn/T//ccS0VXUs.s 			page 15


 215 0070 2846     		mov	r0, r5
 216 0072 4FF44031 		mov	r1, #196608
 217              	.LBE177:
 218              	.LBE176:
 219              	.LBB179:
 220              	.LBB173:
  57:Drivers/lvgl/src/widgets/../core/lv_obj_style_gen.h ****     return (lv_coord_t)v.num;
 221              		.loc 2 57 26 view .LVU58
 222 0076 1D46     		mov	r5, r3
 223              	.LVL15:
  58:Drivers/lvgl/src/widgets/../core/lv_obj_style_gen.h **** }
 224              		.loc 2 58 5 is_stmt 1 view .LVU59
  58:Drivers/lvgl/src/widgets/../core/lv_obj_style_gen.h **** }
 225              		.loc 2 58 5 is_stmt 0 view .LVU60
 226              	.LBE173:
 227              	.LBE179:
 433:Drivers/lvgl/src/widgets/lv_slider.c ****     lv_coord_t transf_h = lv_obj_get_style_transform_height(obj, LV_PART_KNOB);
 228              		.loc 1 433 5 is_stmt 1 view .LVU61
 229              	.LBB180:
 230              	.LBI176:
  61:Drivers/lvgl/src/widgets/../core/lv_obj_style_gen.h **** {
 231              		.loc 2 61 26 view .LVU62
 232              	.LBB178:
  63:Drivers/lvgl/src/widgets/../core/lv_obj_style_gen.h ****     return (lv_coord_t)v.num;
 233              		.loc 2 63 5 view .LVU63
  63:Drivers/lvgl/src/widgets/../core/lv_obj_style_gen.h ****     return (lv_coord_t)v.num;
 234              		.loc 2 63 26 is_stmt 0 view .LVU64
 235 0078 FFF7FEFF 		bl	lv_obj_get_style_prop
 236              	.LVL16:
  64:Drivers/lvgl/src/widgets/../core/lv_obj_style_gen.h **** }
 237              		.loc 2 64 5 is_stmt 1 view .LVU65
  64:Drivers/lvgl/src/widgets/../core/lv_obj_style_gen.h **** }
 238              		.loc 2 64 5 is_stmt 0 view .LVU66
 239              	.LBE178:
 240              	.LBE180:
 434:Drivers/lvgl/src/widgets/lv_slider.c **** 
 435:Drivers/lvgl/src/widgets/lv_slider.c ****     /*Apply the paddings on the knob area*/
 436:Drivers/lvgl/src/widgets/lv_slider.c ****     knob_area->x1 -= knob_left + transf_w;
 241              		.loc 1 436 5 is_stmt 1 view .LVU67
 242              		.loc 1 436 19 is_stmt 0 view .LVU68
 243 007c 2288     		ldrh	r2, [r4]
 244              		.loc 1 436 32 view .LVU69
 245 007e ABB2     		uxth	r3, r5
 246              		.loc 1 436 19 view .LVU70
 247 0080 1F44     		add	r7, r7, r3
 248              	.LVL17:
 249              		.loc 1 436 19 view .LVU71
 250 0082 D71B     		subs	r7, r2, r7
 437:Drivers/lvgl/src/widgets/lv_slider.c ****     knob_area->x2 += knob_right + transf_w;
 251              		.loc 1 437 19 view .LVU72
 252 0084 A288     		ldrh	r2, [r4, #4]
 436:Drivers/lvgl/src/widgets/lv_slider.c ****     knob_area->x2 += knob_right + transf_w;
 253              		.loc 1 436 19 view .LVU73
 254 0086 2780     		strh	r7, [r4]	@ movhi
 255              		.loc 1 437 5 is_stmt 1 view .LVU74
 256              		.loc 1 437 33 is_stmt 0 view .LVU75
 257 0088 4B44     		add	r3, r3, r9
ARM GAS  /var/folders/0z/tsy30v1j4xl4_7kw94k978ww0000gn/T//ccS0VXUs.s 			page 16


 258              		.loc 1 437 19 view .LVU76
 259 008a 1344     		add	r3, r3, r2
 438:Drivers/lvgl/src/widgets/lv_slider.c ****     knob_area->y1 -= knob_top + transf_h;
 260              		.loc 1 438 31 view .LVU77
 261 008c 80B2     		uxth	r0, r0
 262              		.loc 1 438 19 view .LVU78
 263 008e 6288     		ldrh	r2, [r4, #2]
 437:Drivers/lvgl/src/widgets/lv_slider.c ****     knob_area->x2 += knob_right + transf_w;
 264              		.loc 1 437 19 view .LVU79
 265 0090 A380     		strh	r3, [r4, #4]	@ movhi
 266              		.loc 1 438 5 is_stmt 1 view .LVU80
 439:Drivers/lvgl/src/widgets/lv_slider.c ****     knob_area->y2 += knob_bottom + transf_h;
 267              		.loc 1 439 19 is_stmt 0 view .LVU81
 268 0092 E388     		ldrh	r3, [r4, #6]
 438:Drivers/lvgl/src/widgets/lv_slider.c ****     knob_area->y1 -= knob_top + transf_h;
 269              		.loc 1 438 19 view .LVU82
 270 0094 0644     		add	r6, r6, r0
 271              	.LVL18:
 272              		.loc 1 439 34 view .LVU83
 273 0096 4044     		add	r0, r0, r8
 274              	.LVL19:
 438:Drivers/lvgl/src/widgets/lv_slider.c ****     knob_area->y1 -= knob_top + transf_h;
 275              		.loc 1 438 19 view .LVU84
 276 0098 961B     		subs	r6, r2, r6
 277              		.loc 1 439 19 view .LVU85
 278 009a 1844     		add	r0, r0, r3
 438:Drivers/lvgl/src/widgets/lv_slider.c ****     knob_area->y1 -= knob_top + transf_h;
 279              		.loc 1 438 19 view .LVU86
 280 009c 6680     		strh	r6, [r4, #2]	@ movhi
 281              		.loc 1 439 5 is_stmt 1 view .LVU87
 282              		.loc 1 439 19 is_stmt 0 view .LVU88
 283 009e E080     		strh	r0, [r4, #6]	@ movhi
 440:Drivers/lvgl/src/widgets/lv_slider.c **** }
 284              		.loc 1 440 1 view .LVU89
 285 00a0 BDE8F883 		pop	{r3, r4, r5, r6, r7, r8, r9, pc}
 286              	.LVL20:
 287              	.L2:
 421:Drivers/lvgl/src/widgets/lv_slider.c ****         knob_area->y2 = knob_area->y1 + knob_size - 1;
 288              		.loc 1 421 9 is_stmt 1 view .LVU90
 421:Drivers/lvgl/src/widgets/lv_slider.c ****         knob_area->y2 = knob_area->y1 + knob_size - 1;
 289              		.loc 1 421 23 is_stmt 0 view .LVU91
 290 00a4 4B88     		ldrh	r3, [r1, #2]
 291              	.LVL21:
 421:Drivers/lvgl/src/widgets/lv_slider.c ****         knob_area->y2 = knob_area->y1 + knob_size - 1;
 292              		.loc 1 421 23 view .LVU92
 293 00a6 A3EB6203 		sub	r3, r3, r2, asr #1
 294 00aa 9BB2     		uxth	r3, r3
 422:Drivers/lvgl/src/widgets/lv_slider.c ****         knob_area->x1 = obj->coords.x1;
 295              		.loc 1 422 51 view .LVU93
 296 00ac 511E     		subs	r1, r2, #1
 297              	.LVL22:
 422:Drivers/lvgl/src/widgets/lv_slider.c ****         knob_area->x1 = obj->coords.x1;
 298              		.loc 1 422 51 view .LVU94
 299 00ae 5A18     		adds	r2, r3, r1
 300              	.LVL23:
 421:Drivers/lvgl/src/widgets/lv_slider.c ****         knob_area->y2 = knob_area->y1 + knob_size - 1;
 301              		.loc 1 421 23 view .LVU95
ARM GAS  /var/folders/0z/tsy30v1j4xl4_7kw94k978ww0000gn/T//ccS0VXUs.s 			page 17


 302 00b0 6380     		strh	r3, [r4, #2]	@ movhi
 422:Drivers/lvgl/src/widgets/lv_slider.c ****         knob_area->x1 = obj->coords.x1;
 303              		.loc 1 422 9 is_stmt 1 view .LVU96
 423:Drivers/lvgl/src/widgets/lv_slider.c ****         knob_area->x2 = obj->coords.x2;
 304              		.loc 1 423 36 is_stmt 0 view .LVU97
 305 00b2 B0F91410 		ldrsh	r1, [r0, #20]
 424:Drivers/lvgl/src/widgets/lv_slider.c ****     }
 306              		.loc 1 424 36 view .LVU98
 307 00b6 B0F91830 		ldrsh	r3, [r0, #24]
 424:Drivers/lvgl/src/widgets/lv_slider.c ****     }
 308              		.loc 1 424 23 view .LVU99
 309 00ba A380     		strh	r3, [r4, #4]	@ movhi
 422:Drivers/lvgl/src/widgets/lv_slider.c ****         knob_area->x1 = obj->coords.x1;
 310              		.loc 1 422 23 view .LVU100
 311 00bc E280     		strh	r2, [r4, #6]	@ movhi
 423:Drivers/lvgl/src/widgets/lv_slider.c ****         knob_area->x2 = obj->coords.x2;
 312              		.loc 1 423 9 is_stmt 1 view .LVU101
 423:Drivers/lvgl/src/widgets/lv_slider.c ****         knob_area->x2 = obj->coords.x2;
 313              		.loc 1 423 23 is_stmt 0 view .LVU102
 314 00be 2180     		strh	r1, [r4]	@ movhi
 424:Drivers/lvgl/src/widgets/lv_slider.c ****     }
 315              		.loc 1 424 9 is_stmt 1 view .LVU103
 316 00c0 B2E7     		b	.L3
 317              		.cfi_endproc
 318              	.LFE181:
 320 00c2 00BF     		.section	.text.lv_slider_constructor,"ax",%progbits
 321              		.align	1
 322              		.p2align 2,,3
 323              		.syntax unified
 324              		.thumb
 325              		.thumb_func
 327              	lv_slider_constructor:
 328              	.LVL24:
 329              	.LFB178:
  81:Drivers/lvgl/src/widgets/lv_slider.c ****     LV_UNUSED(class_p);
 330              		.loc 1 81 1 view -0
 331              		.cfi_startproc
 332              		@ args = 0, pretend = 0, frame = 0
 333              		@ frame_needed = 0, uses_anonymous_args = 0
  82:Drivers/lvgl/src/widgets/lv_slider.c ****     lv_slider_t * slider = (lv_slider_t *)obj;
 334              		.loc 1 82 5 view .LVU105
  83:Drivers/lvgl/src/widgets/lv_slider.c **** 
 335              		.loc 1 83 5 view .LVU106
  81:Drivers/lvgl/src/widgets/lv_slider.c ****     LV_UNUSED(class_p);
 336              		.loc 1 81 1 is_stmt 0 view .LVU107
 337 0000 38B5     		push	{r3, r4, r5, lr}
 338              		.cfi_def_cfa_offset 16
 339              		.cfi_offset 3, -16
 340              		.cfi_offset 4, -12
 341              		.cfi_offset 5, -8
 342              		.cfi_offset 14, -4
  87:Drivers/lvgl/src/widgets/lv_slider.c ****     slider->left_knob_focus = 0U;
 343              		.loc 1 87 22 view .LVU108
 344 0002 91F87430 		ldrb	r3, [r1, #116]	@ zero_extendqisi2
  81:Drivers/lvgl/src/widgets/lv_slider.c ****     LV_UNUSED(class_p);
 345              		.loc 1 81 1 view .LVU109
 346 0006 0C46     		mov	r4, r1
ARM GAS  /var/folders/0z/tsy30v1j4xl4_7kw94k978ww0000gn/T//ccS0VXUs.s 			page 18


 347              	.LVL25:
  86:Drivers/lvgl/src/widgets/lv_slider.c ****     slider->dragging = 0U;
 348              		.loc 1 86 5 is_stmt 1 view .LVU110
  87:Drivers/lvgl/src/widgets/lv_slider.c ****     slider->left_knob_focus = 0U;
 349              		.loc 1 87 5 view .LVU111
  88:Drivers/lvgl/src/widgets/lv_slider.c **** 
 350              		.loc 1 88 5 view .LVU112
  87:Drivers/lvgl/src/widgets/lv_slider.c ****     slider->left_knob_focus = 0U;
 351              		.loc 1 87 22 is_stmt 0 view .LVU113
 352 0008 23F00303 		bic	r3, r3, #3
  86:Drivers/lvgl/src/widgets/lv_slider.c ****     slider->dragging = 0U;
 353              		.loc 1 86 26 view .LVU114
 354 000c 0025     		movs	r5, #0
  87:Drivers/lvgl/src/widgets/lv_slider.c ****     slider->left_knob_focus = 0U;
 355              		.loc 1 87 22 view .LVU115
 356 000e 84F87430 		strb	r3, [r4, #116]
  90:Drivers/lvgl/src/widgets/lv_slider.c ****     lv_obj_clear_flag(obj, LV_OBJ_FLAG_SCROLLABLE);
 357              		.loc 1 90 5 is_stmt 1 view .LVU116
 358 0012 4FF44071 		mov	r1, #768
 359              	.LVL26:
  90:Drivers/lvgl/src/widgets/lv_slider.c ****     lv_obj_clear_flag(obj, LV_OBJ_FLAG_SCROLLABLE);
 360              		.loc 1 90 5 is_stmt 0 view .LVU117
 361 0016 2046     		mov	r0, r4
 362              	.LVL27:
  86:Drivers/lvgl/src/widgets/lv_slider.c ****     slider->dragging = 0U;
 363              		.loc 1 86 26 view .LVU118
 364 0018 2567     		str	r5, [r4, #112]
  90:Drivers/lvgl/src/widgets/lv_slider.c ****     lv_obj_clear_flag(obj, LV_OBJ_FLAG_SCROLLABLE);
 365              		.loc 1 90 5 view .LVU119
 366 001a FFF7FEFF 		bl	lv_obj_clear_flag
 367              	.LVL28:
  91:Drivers/lvgl/src/widgets/lv_slider.c ****     lv_obj_set_ext_click_area(obj, LV_DPX(8));
 368              		.loc 1 91 5 is_stmt 1 view .LVU120
 369 001e 1021     		movs	r1, #16
 370 0020 2046     		mov	r0, r4
 371 0022 FFF7FEFF 		bl	lv_obj_clear_flag
 372              	.LVL29:
  92:Drivers/lvgl/src/widgets/lv_slider.c **** }
 373              		.loc 1 92 5 view .LVU121
  92:Drivers/lvgl/src/widgets/lv_slider.c **** }
 374              		.loc 1 92 36 is_stmt 0 view .LVU122
 375 0026 2846     		mov	r0, r5
 376 0028 FFF7FEFF 		bl	lv_disp_get_dpi
 377              	.LVL30:
  92:Drivers/lvgl/src/widgets/lv_slider.c **** }
 378              		.loc 1 92 5 view .LVU123
 379 002c 1D28     		cmp	r0, #29
 380 002e 05DC     		bgt	.L10
 381 0030 2046     		mov	r0, r4
 382 0032 0121     		movs	r1, #1
  93:Drivers/lvgl/src/widgets/lv_slider.c **** 
 383              		.loc 1 93 1 view .LVU124
 384 0034 BDE83840 		pop	{r3, r4, r5, lr}
 385              		.cfi_remember_state
 386              		.cfi_restore 14
 387              		.cfi_restore 5
 388              		.cfi_restore 4
ARM GAS  /var/folders/0z/tsy30v1j4xl4_7kw94k978ww0000gn/T//ccS0VXUs.s 			page 19


 389              		.cfi_restore 3
 390              		.cfi_def_cfa_offset 0
 391              	.LVL31:
  92:Drivers/lvgl/src/widgets/lv_slider.c **** }
 392              		.loc 1 92 5 view .LVU125
 393 0038 FFF7FEBF 		b	lv_obj_set_ext_click_area
 394              	.LVL32:
 395              	.L10:
 396              		.cfi_restore_state
  92:Drivers/lvgl/src/widgets/lv_slider.c **** }
 397              		.loc 1 92 36 discriminator 1 view .LVU126
 398 003c 2846     		mov	r0, r5
 399 003e FFF7FEFF 		bl	lv_disp_get_dpi
 400              	.LVL33:
 401 0042 064B     		ldr	r3, .L11
 402 0044 0A30     		adds	r0, r0, #10
 403 0046 83FB0023 		smull	r2, r3, r3, r0
 404 004a C117     		asrs	r1, r0, #31
 405 004c C1EBE301 		rsb	r1, r1, r3, asr #3
  92:Drivers/lvgl/src/widgets/lv_slider.c **** }
 406              		.loc 1 92 5 discriminator 1 view .LVU127
 407 0050 2046     		mov	r0, r4
 408 0052 09B2     		sxth	r1, r1
  93:Drivers/lvgl/src/widgets/lv_slider.c **** 
 409              		.loc 1 93 1 discriminator 1 view .LVU128
 410 0054 BDE83840 		pop	{r3, r4, r5, lr}
 411              		.cfi_restore 14
 412              		.cfi_restore 5
 413              		.cfi_restore 4
 414              		.cfi_restore 3
 415              		.cfi_def_cfa_offset 0
 416              	.LVL34:
  92:Drivers/lvgl/src/widgets/lv_slider.c **** }
 417              		.loc 1 92 5 discriminator 1 view .LVU129
 418 0058 FFF7FEBF 		b	lv_obj_set_ext_click_area
 419              	.LVL35:
 420              	.L12:
  92:Drivers/lvgl/src/widgets/lv_slider.c **** }
 421              		.loc 1 92 5 discriminator 1 view .LVU130
 422              		.align	2
 423              	.L11:
 424 005c 67666666 		.word	1717986919
 425              		.cfi_endproc
 426              	.LFE178:
 428              		.section	.text.lv_slider_event,"ax",%progbits
 429              		.align	1
 430              		.p2align 2,,3
 431              		.syntax unified
 432              		.thumb
 433              		.thumb_func
 435              	lv_slider_event:
 436              	.LVL36:
 437              	.LFB179:
  96:Drivers/lvgl/src/widgets/lv_slider.c ****     LV_UNUSED(class_p);
 438              		.loc 1 96 1 is_stmt 1 view -0
 439              		.cfi_startproc
 440              		@ args = 0, pretend = 0, frame = 200
ARM GAS  /var/folders/0z/tsy30v1j4xl4_7kw94k978ww0000gn/T//ccS0VXUs.s 			page 20


 441              		@ frame_needed = 0, uses_anonymous_args = 0
  97:Drivers/lvgl/src/widgets/lv_slider.c **** 
 442              		.loc 1 97 5 view .LVU132
  99:Drivers/lvgl/src/widgets/lv_slider.c **** 
 443              		.loc 1 99 5 view .LVU133
 102:Drivers/lvgl/src/widgets/lv_slider.c ****     if(res != LV_RES_OK) return;
 444              		.loc 1 102 5 view .LVU134
  96:Drivers/lvgl/src/widgets/lv_slider.c ****     LV_UNUSED(class_p);
 445              		.loc 1 96 1 is_stmt 0 view .LVU135
 446 0000 2DE9F04F 		push	{r4, r5, r6, r7, r8, r9, r10, fp, lr}
 447              		.cfi_def_cfa_offset 36
 448              		.cfi_offset 4, -36
 449              		.cfi_offset 5, -32
 450              		.cfi_offset 6, -28
 451              		.cfi_offset 7, -24
 452              		.cfi_offset 8, -20
 453              		.cfi_offset 9, -16
 454              		.cfi_offset 10, -12
 455              		.cfi_offset 11, -8
 456              		.cfi_offset 14, -4
 102:Drivers/lvgl/src/widgets/lv_slider.c ****     if(res != LV_RES_OK) return;
 457              		.loc 1 102 11 view .LVU136
 458 0004 CF48     		ldr	r0, .L135
 459              	.LVL37:
  96:Drivers/lvgl/src/widgets/lv_slider.c ****     LV_UNUSED(class_p);
 460              		.loc 1 96 1 view .LVU137
 461 0006 B3B0     		sub	sp, sp, #204
 462              		.cfi_def_cfa_offset 240
  96:Drivers/lvgl/src/widgets/lv_slider.c ****     LV_UNUSED(class_p);
 463              		.loc 1 96 1 view .LVU138
 464 0008 0E46     		mov	r6, r1
 102:Drivers/lvgl/src/widgets/lv_slider.c ****     if(res != LV_RES_OK) return;
 465              		.loc 1 102 11 view .LVU139
 466 000a FFF7FEFF 		bl	lv_obj_event_base
 467              	.LVL38:
 103:Drivers/lvgl/src/widgets/lv_slider.c **** 
 468              		.loc 1 103 5 is_stmt 1 view .LVU140
 103:Drivers/lvgl/src/widgets/lv_slider.c **** 
 469              		.loc 1 103 7 is_stmt 0 view .LVU141
 470 000e 0128     		cmp	r0, #1
 471 0010 02D0     		beq	.L123
 472              	.LVL39:
 473              	.L13:
 330:Drivers/lvgl/src/widgets/lv_slider.c **** 
 474              		.loc 1 330 1 view .LVU142
 475 0012 33B0     		add	sp, sp, #204
 476              		.cfi_remember_state
 477              		.cfi_def_cfa_offset 36
 478              		@ sp needed
 479 0014 BDE8F08F 		pop	{r4, r5, r6, r7, r8, r9, r10, fp, pc}
 480              	.LVL40:
 481              	.L123:
 482              		.cfi_restore_state
 483              	.LBB258:
 484              	.LBI258:
  95:Drivers/lvgl/src/widgets/lv_slider.c **** {
 485              		.loc 1 95 13 is_stmt 1 view .LVU143
ARM GAS  /var/folders/0z/tsy30v1j4xl4_7kw94k978ww0000gn/T//ccS0VXUs.s 			page 21


 486              	.LBB259:
 105:Drivers/lvgl/src/widgets/lv_slider.c ****     lv_obj_t * obj = lv_event_get_target(e);
 487              		.loc 1 105 5 view .LVU144
 105:Drivers/lvgl/src/widgets/lv_slider.c ****     lv_obj_t * obj = lv_event_get_target(e);
 488              		.loc 1 105 28 is_stmt 0 view .LVU145
 489 0018 3046     		mov	r0, r6
 490              	.LVL41:
 105:Drivers/lvgl/src/widgets/lv_slider.c ****     lv_obj_t * obj = lv_event_get_target(e);
 491              		.loc 1 105 28 view .LVU146
 492 001a FFF7FEFF 		bl	lv_event_get_code
 493              	.LVL42:
 494 001e 0446     		mov	r4, r0
 106:Drivers/lvgl/src/widgets/lv_slider.c ****     lv_slider_t * slider = (lv_slider_t *)obj;
 495              		.loc 1 106 22 view .LVU147
 496 0020 3046     		mov	r0, r6
 497              	.LVL43:
 106:Drivers/lvgl/src/widgets/lv_slider.c ****     lv_slider_t * slider = (lv_slider_t *)obj;
 498              		.loc 1 106 5 is_stmt 1 view .LVU148
 106:Drivers/lvgl/src/widgets/lv_slider.c ****     lv_slider_t * slider = (lv_slider_t *)obj;
 499              		.loc 1 106 22 is_stmt 0 view .LVU149
 500 0022 FFF7FEFF 		bl	lv_event_get_target
 501              	.LVL44:
 502 0026 0546     		mov	r5, r0
 503              	.LVL45:
 107:Drivers/lvgl/src/widgets/lv_slider.c ****     lv_slider_mode_t type = lv_slider_get_mode(obj);
 504              		.loc 1 107 5 is_stmt 1 view .LVU150
 108:Drivers/lvgl/src/widgets/lv_slider.c **** 
 505              		.loc 1 108 5 view .LVU151
 506              	.LBB260:
 507              	.LBI260:
 508              		.file 3 "Drivers/lvgl/src/widgets/lv_slider.h"
   1:Drivers/lvgl/src/widgets/lv_slider.h **** /**
   2:Drivers/lvgl/src/widgets/lv_slider.h ****  * @file lv_slider.h
   3:Drivers/lvgl/src/widgets/lv_slider.h ****  *
   4:Drivers/lvgl/src/widgets/lv_slider.h ****  */
   5:Drivers/lvgl/src/widgets/lv_slider.h **** 
   6:Drivers/lvgl/src/widgets/lv_slider.h **** #ifndef LV_SLIDER_H
   7:Drivers/lvgl/src/widgets/lv_slider.h **** #define LV_SLIDER_H
   8:Drivers/lvgl/src/widgets/lv_slider.h **** 
   9:Drivers/lvgl/src/widgets/lv_slider.h **** #ifdef __cplusplus
  10:Drivers/lvgl/src/widgets/lv_slider.h **** extern "C" {
  11:Drivers/lvgl/src/widgets/lv_slider.h **** #endif
  12:Drivers/lvgl/src/widgets/lv_slider.h **** 
  13:Drivers/lvgl/src/widgets/lv_slider.h **** /*********************
  14:Drivers/lvgl/src/widgets/lv_slider.h ****  *      INCLUDES
  15:Drivers/lvgl/src/widgets/lv_slider.h ****  *********************/
  16:Drivers/lvgl/src/widgets/lv_slider.h **** #include "../lv_conf_internal.h"
  17:Drivers/lvgl/src/widgets/lv_slider.h **** 
  18:Drivers/lvgl/src/widgets/lv_slider.h **** #if LV_USE_SLIDER != 0
  19:Drivers/lvgl/src/widgets/lv_slider.h **** 
  20:Drivers/lvgl/src/widgets/lv_slider.h **** /*Testing of dependencies*/
  21:Drivers/lvgl/src/widgets/lv_slider.h **** #if LV_USE_BAR == 0
  22:Drivers/lvgl/src/widgets/lv_slider.h **** #error "lv_slider: lv_bar is required. Enable it in lv_conf.h (LV_USE_BAR 1)"
  23:Drivers/lvgl/src/widgets/lv_slider.h **** #endif
  24:Drivers/lvgl/src/widgets/lv_slider.h **** 
  25:Drivers/lvgl/src/widgets/lv_slider.h **** #include "../core/lv_obj.h"
  26:Drivers/lvgl/src/widgets/lv_slider.h **** #include "lv_bar.h"
ARM GAS  /var/folders/0z/tsy30v1j4xl4_7kw94k978ww0000gn/T//ccS0VXUs.s 			page 22


  27:Drivers/lvgl/src/widgets/lv_slider.h **** 
  28:Drivers/lvgl/src/widgets/lv_slider.h **** /*********************
  29:Drivers/lvgl/src/widgets/lv_slider.h ****  *      DEFINES
  30:Drivers/lvgl/src/widgets/lv_slider.h ****  *********************/
  31:Drivers/lvgl/src/widgets/lv_slider.h **** 
  32:Drivers/lvgl/src/widgets/lv_slider.h **** /**********************
  33:Drivers/lvgl/src/widgets/lv_slider.h ****  *      TYPEDEFS
  34:Drivers/lvgl/src/widgets/lv_slider.h ****  **********************/
  35:Drivers/lvgl/src/widgets/lv_slider.h **** 
  36:Drivers/lvgl/src/widgets/lv_slider.h **** enum {
  37:Drivers/lvgl/src/widgets/lv_slider.h ****     LV_SLIDER_MODE_NORMAL = LV_BAR_MODE_NORMAL,
  38:Drivers/lvgl/src/widgets/lv_slider.h ****     LV_SLIDER_MODE_SYMMETRICAL = LV_BAR_MODE_SYMMETRICAL,
  39:Drivers/lvgl/src/widgets/lv_slider.h ****     LV_SLIDER_MODE_RANGE = LV_BAR_MODE_RANGE
  40:Drivers/lvgl/src/widgets/lv_slider.h **** };
  41:Drivers/lvgl/src/widgets/lv_slider.h **** typedef uint8_t lv_slider_mode_t;
  42:Drivers/lvgl/src/widgets/lv_slider.h **** 
  43:Drivers/lvgl/src/widgets/lv_slider.h **** typedef struct {
  44:Drivers/lvgl/src/widgets/lv_slider.h ****     lv_bar_t bar;       /*Add the ancestor's type first*/
  45:Drivers/lvgl/src/widgets/lv_slider.h ****     lv_area_t left_knob_area;
  46:Drivers/lvgl/src/widgets/lv_slider.h ****     lv_area_t right_knob_area;
  47:Drivers/lvgl/src/widgets/lv_slider.h ****     int32_t * value_to_set; /*Which bar value to set*/
  48:Drivers/lvgl/src/widgets/lv_slider.h ****     uint8_t dragging : 1;       /*1: the slider is being dragged*/
  49:Drivers/lvgl/src/widgets/lv_slider.h ****     uint8_t left_knob_focus : 1; /*1: with encoder now the right knob can be adjusted*/
  50:Drivers/lvgl/src/widgets/lv_slider.h **** } lv_slider_t;
  51:Drivers/lvgl/src/widgets/lv_slider.h **** 
  52:Drivers/lvgl/src/widgets/lv_slider.h **** extern const lv_obj_class_t lv_slider_class;
  53:Drivers/lvgl/src/widgets/lv_slider.h **** 
  54:Drivers/lvgl/src/widgets/lv_slider.h **** /**
  55:Drivers/lvgl/src/widgets/lv_slider.h ****  * `type` field in `lv_obj_draw_part_dsc_t` if `class_p = lv_slider_class`
  56:Drivers/lvgl/src/widgets/lv_slider.h ****  * Used in `LV_EVENT_DRAW_PART_BEGIN` and `LV_EVENT_DRAW_PART_END`
  57:Drivers/lvgl/src/widgets/lv_slider.h ****  */
  58:Drivers/lvgl/src/widgets/lv_slider.h **** typedef enum {
  59:Drivers/lvgl/src/widgets/lv_slider.h ****     LV_SLIDER_DRAW_PART_KNOB,           /**< The main (right) knob's rectangle*/
  60:Drivers/lvgl/src/widgets/lv_slider.h ****     LV_SLIDER_DRAW_PART_KNOB_LEFT,      /**< The left knob's rectangle*/
  61:Drivers/lvgl/src/widgets/lv_slider.h **** } lv_slider_draw_part_type_t;
  62:Drivers/lvgl/src/widgets/lv_slider.h **** 
  63:Drivers/lvgl/src/widgets/lv_slider.h **** /**********************
  64:Drivers/lvgl/src/widgets/lv_slider.h ****  * GLOBAL PROTOTYPES
  65:Drivers/lvgl/src/widgets/lv_slider.h ****  **********************/
  66:Drivers/lvgl/src/widgets/lv_slider.h **** 
  67:Drivers/lvgl/src/widgets/lv_slider.h **** /**
  68:Drivers/lvgl/src/widgets/lv_slider.h ****  * Create a slider object
  69:Drivers/lvgl/src/widgets/lv_slider.h ****  * @param parent    pointer to an object, it will be the parent of the new slider.
  70:Drivers/lvgl/src/widgets/lv_slider.h ****  * @return          pointer to the created slider
  71:Drivers/lvgl/src/widgets/lv_slider.h ****  */
  72:Drivers/lvgl/src/widgets/lv_slider.h **** lv_obj_t * lv_slider_create(lv_obj_t * parent);
  73:Drivers/lvgl/src/widgets/lv_slider.h **** 
  74:Drivers/lvgl/src/widgets/lv_slider.h **** /*=====================
  75:Drivers/lvgl/src/widgets/lv_slider.h ****  * Setter functions
  76:Drivers/lvgl/src/widgets/lv_slider.h ****  *====================*/
  77:Drivers/lvgl/src/widgets/lv_slider.h **** 
  78:Drivers/lvgl/src/widgets/lv_slider.h **** /**
  79:Drivers/lvgl/src/widgets/lv_slider.h ****  * Set a new value on the slider
  80:Drivers/lvgl/src/widgets/lv_slider.h ****  * @param obj       pointer to a slider object
  81:Drivers/lvgl/src/widgets/lv_slider.h ****  * @param value     the new value
  82:Drivers/lvgl/src/widgets/lv_slider.h ****  * @param anim      LV_ANIM_ON: set the value with an animation; LV_ANIM_OFF: change the value imme
  83:Drivers/lvgl/src/widgets/lv_slider.h ****  */
ARM GAS  /var/folders/0z/tsy30v1j4xl4_7kw94k978ww0000gn/T//ccS0VXUs.s 			page 23


  84:Drivers/lvgl/src/widgets/lv_slider.h **** static inline void lv_slider_set_value(lv_obj_t * obj, int32_t value, lv_anim_enable_t anim)
  85:Drivers/lvgl/src/widgets/lv_slider.h **** {
  86:Drivers/lvgl/src/widgets/lv_slider.h ****     lv_bar_set_value(obj, value, anim);
  87:Drivers/lvgl/src/widgets/lv_slider.h **** }
  88:Drivers/lvgl/src/widgets/lv_slider.h **** 
  89:Drivers/lvgl/src/widgets/lv_slider.h **** /**
  90:Drivers/lvgl/src/widgets/lv_slider.h ****  * Set a new value for the left knob of a slider
  91:Drivers/lvgl/src/widgets/lv_slider.h ****  * @param obj       pointer to a slider object
  92:Drivers/lvgl/src/widgets/lv_slider.h ****  * @param value     new value
  93:Drivers/lvgl/src/widgets/lv_slider.h ****  * @param anim      LV_ANIM_ON: set the value with an animation; LV_ANIM_OFF: change the value imme
  94:Drivers/lvgl/src/widgets/lv_slider.h ****  */
  95:Drivers/lvgl/src/widgets/lv_slider.h **** static inline void lv_slider_set_left_value(lv_obj_t * obj, int32_t value, lv_anim_enable_t anim)
  96:Drivers/lvgl/src/widgets/lv_slider.h **** {
  97:Drivers/lvgl/src/widgets/lv_slider.h ****     lv_bar_set_start_value(obj, value, anim);
  98:Drivers/lvgl/src/widgets/lv_slider.h **** }
  99:Drivers/lvgl/src/widgets/lv_slider.h **** 
 100:Drivers/lvgl/src/widgets/lv_slider.h **** /**
 101:Drivers/lvgl/src/widgets/lv_slider.h ****  * Set minimum and the maximum values of a bar
 102:Drivers/lvgl/src/widgets/lv_slider.h ****  * @param obj       pointer to the slider object
 103:Drivers/lvgl/src/widgets/lv_slider.h ****  * @param min       minimum value
 104:Drivers/lvgl/src/widgets/lv_slider.h ****  * @param max       maximum value
 105:Drivers/lvgl/src/widgets/lv_slider.h ****  */
 106:Drivers/lvgl/src/widgets/lv_slider.h **** static inline void lv_slider_set_range(lv_obj_t * obj, int32_t min, int32_t max)
 107:Drivers/lvgl/src/widgets/lv_slider.h **** {
 108:Drivers/lvgl/src/widgets/lv_slider.h ****     lv_bar_set_range(obj, min, max);
 109:Drivers/lvgl/src/widgets/lv_slider.h **** }
 110:Drivers/lvgl/src/widgets/lv_slider.h **** 
 111:Drivers/lvgl/src/widgets/lv_slider.h **** /**
 112:Drivers/lvgl/src/widgets/lv_slider.h ****  * Set the mode of slider.
 113:Drivers/lvgl/src/widgets/lv_slider.h ****  * @param obj       pointer to a slider object
 114:Drivers/lvgl/src/widgets/lv_slider.h ****  * @param mode      the mode of the slider. See ::lv_slider_mode_t
 115:Drivers/lvgl/src/widgets/lv_slider.h ****  */
 116:Drivers/lvgl/src/widgets/lv_slider.h **** static inline void lv_slider_set_mode(lv_obj_t * obj, lv_slider_mode_t mode)
 117:Drivers/lvgl/src/widgets/lv_slider.h **** {
 118:Drivers/lvgl/src/widgets/lv_slider.h ****     lv_bar_set_mode(obj, (lv_bar_mode_t)mode);
 119:Drivers/lvgl/src/widgets/lv_slider.h **** }
 120:Drivers/lvgl/src/widgets/lv_slider.h **** 
 121:Drivers/lvgl/src/widgets/lv_slider.h **** /*=====================
 122:Drivers/lvgl/src/widgets/lv_slider.h ****  * Getter functions
 123:Drivers/lvgl/src/widgets/lv_slider.h ****  *====================*/
 124:Drivers/lvgl/src/widgets/lv_slider.h **** 
 125:Drivers/lvgl/src/widgets/lv_slider.h **** /**
 126:Drivers/lvgl/src/widgets/lv_slider.h ****  * Get the value of the main knob of a slider
 127:Drivers/lvgl/src/widgets/lv_slider.h ****  * @param obj       pointer to a slider object
 128:Drivers/lvgl/src/widgets/lv_slider.h ****  * @return          the value of the main knob of the slider
 129:Drivers/lvgl/src/widgets/lv_slider.h ****  */
 130:Drivers/lvgl/src/widgets/lv_slider.h **** static inline int32_t lv_slider_get_value(const lv_obj_t * obj)
 131:Drivers/lvgl/src/widgets/lv_slider.h **** {
 132:Drivers/lvgl/src/widgets/lv_slider.h ****     return lv_bar_get_value(obj);
 133:Drivers/lvgl/src/widgets/lv_slider.h **** }
 134:Drivers/lvgl/src/widgets/lv_slider.h **** 
 135:Drivers/lvgl/src/widgets/lv_slider.h **** /**
 136:Drivers/lvgl/src/widgets/lv_slider.h ****  * Get the value of the left knob of a slider
 137:Drivers/lvgl/src/widgets/lv_slider.h ****  * @param obj       pointer to a slider object
 138:Drivers/lvgl/src/widgets/lv_slider.h ****  * @return          the value of the left knob of the slider
 139:Drivers/lvgl/src/widgets/lv_slider.h ****  */
 140:Drivers/lvgl/src/widgets/lv_slider.h **** static inline int32_t lv_slider_get_left_value(const lv_obj_t * obj)
ARM GAS  /var/folders/0z/tsy30v1j4xl4_7kw94k978ww0000gn/T//ccS0VXUs.s 			page 24


 141:Drivers/lvgl/src/widgets/lv_slider.h **** {
 142:Drivers/lvgl/src/widgets/lv_slider.h ****     return lv_bar_get_start_value(obj);
 143:Drivers/lvgl/src/widgets/lv_slider.h **** }
 144:Drivers/lvgl/src/widgets/lv_slider.h **** 
 145:Drivers/lvgl/src/widgets/lv_slider.h **** /**
 146:Drivers/lvgl/src/widgets/lv_slider.h ****  * Get the minimum value of a slider
 147:Drivers/lvgl/src/widgets/lv_slider.h ****  * @param obj       pointer to a slider object
 148:Drivers/lvgl/src/widgets/lv_slider.h ****  * @return          the minimum value of the slider
 149:Drivers/lvgl/src/widgets/lv_slider.h ****  */
 150:Drivers/lvgl/src/widgets/lv_slider.h **** static inline int32_t lv_slider_get_min_value(const lv_obj_t * obj)
 151:Drivers/lvgl/src/widgets/lv_slider.h **** {
 152:Drivers/lvgl/src/widgets/lv_slider.h ****     return lv_bar_get_min_value(obj);
 153:Drivers/lvgl/src/widgets/lv_slider.h **** }
 154:Drivers/lvgl/src/widgets/lv_slider.h **** 
 155:Drivers/lvgl/src/widgets/lv_slider.h **** /**
 156:Drivers/lvgl/src/widgets/lv_slider.h ****  * Get the maximum value of a slider
 157:Drivers/lvgl/src/widgets/lv_slider.h ****  * @param obj       pointer to a slider object
 158:Drivers/lvgl/src/widgets/lv_slider.h ****  * @return          the maximum value of the slider
 159:Drivers/lvgl/src/widgets/lv_slider.h ****  */
 160:Drivers/lvgl/src/widgets/lv_slider.h **** static inline int32_t lv_slider_get_max_value(const lv_obj_t * obj)
 161:Drivers/lvgl/src/widgets/lv_slider.h **** {
 162:Drivers/lvgl/src/widgets/lv_slider.h ****     return lv_bar_get_max_value(obj);
 163:Drivers/lvgl/src/widgets/lv_slider.h **** }
 164:Drivers/lvgl/src/widgets/lv_slider.h **** 
 165:Drivers/lvgl/src/widgets/lv_slider.h **** /**
 166:Drivers/lvgl/src/widgets/lv_slider.h ****  * Give the slider is being dragged or not
 167:Drivers/lvgl/src/widgets/lv_slider.h ****  * @param obj       pointer to a slider object
 168:Drivers/lvgl/src/widgets/lv_slider.h ****  * @return          true: drag in progress false: not dragged
 169:Drivers/lvgl/src/widgets/lv_slider.h ****  */
 170:Drivers/lvgl/src/widgets/lv_slider.h **** bool lv_slider_is_dragged(const lv_obj_t * obj);
 171:Drivers/lvgl/src/widgets/lv_slider.h **** 
 172:Drivers/lvgl/src/widgets/lv_slider.h **** /**
 173:Drivers/lvgl/src/widgets/lv_slider.h ****  * Get the mode of the slider.
 174:Drivers/lvgl/src/widgets/lv_slider.h ****  * @param obj       pointer to a bar object
 175:Drivers/lvgl/src/widgets/lv_slider.h ****  * @return          see ::lv_slider_mode_t
 176:Drivers/lvgl/src/widgets/lv_slider.h ****  */
 177:Drivers/lvgl/src/widgets/lv_slider.h **** static inline lv_slider_mode_t lv_slider_get_mode(lv_obj_t * slider)
 509              		.loc 3 177 32 view .LVU152
 510              	.LBB261:
 178:Drivers/lvgl/src/widgets/lv_slider.h **** {
 179:Drivers/lvgl/src/widgets/lv_slider.h ****     lv_bar_mode_t mode = lv_bar_get_mode(slider);
 511              		.loc 3 179 5 view .LVU153
 512              		.loc 3 179 26 is_stmt 0 view .LVU154
 513 0028 FFF7FEFF 		bl	lv_bar_get_mode
 514              	.LVL46:
 180:Drivers/lvgl/src/widgets/lv_slider.h ****     if(mode == LV_BAR_MODE_SYMMETRICAL) return LV_SLIDER_MODE_SYMMETRICAL;
 515              		.loc 3 180 7 view .LVU155
 516 002c 0128     		cmp	r0, #1
 179:Drivers/lvgl/src/widgets/lv_slider.h ****     if(mode == LV_BAR_MODE_SYMMETRICAL) return LV_SLIDER_MODE_SYMMETRICAL;
 517              		.loc 3 179 26 view .LVU156
 518 002e 0746     		mov	r7, r0
 519              	.LVL47:
 520              		.loc 3 180 5 is_stmt 1 view .LVU157
 521              		.loc 3 180 7 is_stmt 0 view .LVU158
 522 0030 00F0C380 		beq	.L124
 181:Drivers/lvgl/src/widgets/lv_slider.h ****     else if(mode == LV_BAR_MODE_RANGE) return LV_SLIDER_MODE_RANGE;
 523              		.loc 3 181 10 is_stmt 1 view .LVU159
ARM GAS  /var/folders/0z/tsy30v1j4xl4_7kw94k978ww0000gn/T//ccS0VXUs.s 			page 25


 524              		.loc 3 181 12 is_stmt 0 view .LVU160
 525 0034 0228     		cmp	r0, #2
 526 0036 00F0F580 		beq	.L20
 182:Drivers/lvgl/src/widgets/lv_slider.h ****     else return LV_SLIDER_MODE_NORMAL;
 527              		.loc 3 182 10 is_stmt 1 view .LVU161
 528              	.LVL48:
 529              		.loc 3 182 10 is_stmt 0 view .LVU162
 530              	.LBE261:
 531              	.LBE260:
 111:Drivers/lvgl/src/widgets/lv_slider.c ****         lv_hit_test_info_t * info = lv_event_get_param(e);
 532              		.loc 1 111 5 is_stmt 1 view .LVU163
 111:Drivers/lvgl/src/widgets/lv_slider.c ****         lv_hit_test_info_t * info = lv_event_get_param(e);
 533              		.loc 1 111 7 is_stmt 0 view .LVU164
 534 003a 112C     		cmp	r4, #17
 535 003c 00F05781 		beq	.L86
 536              	.LVL49:
 537              	.L119:
 128:Drivers/lvgl/src/widgets/lv_slider.c ****         lv_obj_invalidate(obj);
 538              		.loc 1 128 10 is_stmt 1 view .LVU165
 128:Drivers/lvgl/src/widgets/lv_slider.c ****         lv_obj_invalidate(obj);
 539              		.loc 1 128 12 is_stmt 0 view .LVU166
 540 0040 012C     		cmp	r4, #1
 541 0042 00F04781 		beq	.L125
 542              	.L18:
 192:Drivers/lvgl/src/widgets/lv_slider.c ****         lv_indev_t * indev = lv_indev_get_act();
 543              		.loc 1 192 10 is_stmt 1 view .LVU167
 192:Drivers/lvgl/src/widgets/lv_slider.c ****         lv_indev_t * indev = lv_indev_get_act();
 544              		.loc 1 192 12 is_stmt 0 view .LVU168
 545 0046 022C     		cmp	r4, #2
 546 0048 54D0     		beq	.L126
 253:Drivers/lvgl/src/widgets/lv_slider.c ****         slider->dragging = false;
 547              		.loc 1 253 10 is_stmt 1 view .LVU169
 548 004a 033C     		subs	r4, r4, #3
 549              	.LVL50:
 253:Drivers/lvgl/src/widgets/lv_slider.c ****         slider->dragging = false;
 550              		.loc 1 253 10 is_stmt 0 view .LVU170
 551 004c 262C     		cmp	r4, #38
 552 004e E0D8     		bhi	.L13
 553 0050 01A3     		adr	r3, .L49
 554 0052 53F824F0 		ldr	pc, [r3, r4, lsl #2]
 555 0056 00BF     		.p2align 2
 556              	.L49:
 557 0058 F3020000 		.word	.L54+1
 558 005c 13000000 		.word	.L13+1
 559 0060 13000000 		.word	.L13+1
 560 0064 13000000 		.word	.L13+1
 561 0068 13000000 		.word	.L13+1
 562 006c F3020000 		.word	.L54+1
 563 0070 13000000 		.word	.L13+1
 564 0074 13000000 		.word	.L13+1
 565 0078 13000000 		.word	.L13+1
 566 007c 13000000 		.word	.L13+1
 567 0080 49030000 		.word	.L53+1
 568 0084 7B040000 		.word	.L52+1
 569 0088 13000000 		.word	.L13+1
 570 008c 13000000 		.word	.L13+1
 571 0090 13000000 		.word	.L13+1
ARM GAS  /var/folders/0z/tsy30v1j4xl4_7kw94k978ww0000gn/T//ccS0VXUs.s 			page 26


 572 0094 13000000 		.word	.L13+1
 573 0098 9B030000 		.word	.L51+1
 574 009c 13000000 		.word	.L13+1
 575 00a0 9B040000 		.word	.L50+1
 576 00a4 13000000 		.word	.L13+1
 577 00a8 13000000 		.word	.L13+1
 578 00ac 13000000 		.word	.L13+1
 579 00b0 13000000 		.word	.L13+1
 580 00b4 13000000 		.word	.L13+1
 581 00b8 13000000 		.word	.L13+1
 582 00bc 13000000 		.word	.L13+1
 583 00c0 13000000 		.word	.L13+1
 584 00c4 13000000 		.word	.L13+1
 585 00c8 13000000 		.word	.L13+1
 586 00cc 13000000 		.word	.L13+1
 587 00d0 13000000 		.word	.L13+1
 588 00d4 13000000 		.word	.L13+1
 589 00d8 13000000 		.word	.L13+1
 590 00dc 13000000 		.word	.L13+1
 591 00e0 13000000 		.word	.L13+1
 592 00e4 13000000 		.word	.L13+1
 593 00e8 13000000 		.word	.L13+1
 594 00ec 13000000 		.word	.L13+1
 595 00f0 8F030000 		.word	.L48+1
 596              	.LVL51:
 597              		.p2align 1
 598              	.L126:
 192:Drivers/lvgl/src/widgets/lv_slider.c ****         lv_indev_t * indev = lv_indev_get_act();
 599              		.loc 1 192 39 view .LVU171
 600 00f4 2B6F     		ldr	r3, [r5, #112]
 601 00f6 002B     		cmp	r3, #0
 602 00f8 8BD0     		beq	.L13
 603              	.LBB263:
 193:Drivers/lvgl/src/widgets/lv_slider.c ****         if(lv_indev_get_type(indev) != LV_INDEV_TYPE_POINTER) return;
 604              		.loc 1 193 9 is_stmt 1 view .LVU172
 193:Drivers/lvgl/src/widgets/lv_slider.c ****         if(lv_indev_get_type(indev) != LV_INDEV_TYPE_POINTER) return;
 605              		.loc 1 193 30 is_stmt 0 view .LVU173
 606 00fa FFF7FEFF 		bl	lv_indev_get_act
 607              	.LVL52:
 608 00fe 0446     		mov	r4, r0
 609              	.LVL53:
 194:Drivers/lvgl/src/widgets/lv_slider.c **** 
 610              		.loc 1 194 9 is_stmt 1 view .LVU174
 194:Drivers/lvgl/src/widgets/lv_slider.c **** 
 611              		.loc 1 194 12 is_stmt 0 view .LVU175
 612 0100 FFF7FEFF 		bl	lv_indev_get_type
 613              	.LVL54:
 194:Drivers/lvgl/src/widgets/lv_slider.c **** 
 614              		.loc 1 194 11 view .LVU176
 615 0104 0128     		cmp	r0, #1
 616 0106 84D1     		bne	.L13
 196:Drivers/lvgl/src/widgets/lv_slider.c ****         lv_indev_get_point(indev, &p);
 617              		.loc 1 196 9 is_stmt 1 view .LVU177
 197:Drivers/lvgl/src/widgets/lv_slider.c ****         int32_t new_value = 0;
 618              		.loc 1 197 9 view .LVU178
 619 0108 20A9     		add	r1, sp, #128
 620 010a 2046     		mov	r0, r4
ARM GAS  /var/folders/0z/tsy30v1j4xl4_7kw94k978ww0000gn/T//ccS0VXUs.s 			page 27


 621 010c FFF7FEFF 		bl	lv_indev_get_point
 622              	.LVL55:
 198:Drivers/lvgl/src/widgets/lv_slider.c **** 
 623              		.loc 1 198 9 view .LVU179
 200:Drivers/lvgl/src/widgets/lv_slider.c ****         if(is_slider_horizontal(obj)) {
 624              		.loc 1 200 9 view .LVU180
 200:Drivers/lvgl/src/widgets/lv_slider.c ****         if(is_slider_horizontal(obj)) {
 625              		.loc 1 200 23 is_stmt 0 view .LVU181
 626 0110 D5E90A34 		ldrd	r3, r4, [r5, #40]
 627              	.LVL56:
 628              	.LBB264:
 629              	.LBB265:
 441:Drivers/lvgl/src/widgets/lv_slider.c **** 
 442:Drivers/lvgl/src/widgets/lv_slider.c **** static bool is_slider_horizontal(lv_obj_t * obj)
 443:Drivers/lvgl/src/widgets/lv_slider.c **** {
 444:Drivers/lvgl/src/widgets/lv_slider.c ****     return lv_obj_get_width(obj) >= lv_obj_get_height(obj);
 630              		.loc 1 444 12 view .LVU182
 631 0114 2846     		mov	r0, r5
 632              	.LBE265:
 633              	.LBE264:
 200:Drivers/lvgl/src/widgets/lv_slider.c ****         if(is_slider_horizontal(obj)) {
 634              		.loc 1 200 23 view .LVU183
 635 0116 E41A     		subs	r4, r4, r3
 636              	.LVL57:
 201:Drivers/lvgl/src/widgets/lv_slider.c ****             const lv_coord_t bg_left = lv_obj_get_style_pad_left(obj, LV_PART_MAIN);
 637              		.loc 1 201 9 is_stmt 1 view .LVU184
 638              	.LBB267:
 639              	.LBI264:
 442:Drivers/lvgl/src/widgets/lv_slider.c **** {
 640              		.loc 1 442 13 view .LVU185
 641              	.LBB266:
 642              		.loc 1 444 5 view .LVU186
 643              		.loc 1 444 12 is_stmt 0 view .LVU187
 644 0118 FFF7FEFF 		bl	lv_obj_get_width
 645              	.LVL58:
 646              		.loc 1 444 12 view .LVU188
 647 011c 0646     		mov	r6, r0
 648              	.LVL59:
 649              		.loc 1 444 37 view .LVU189
 650 011e 2846     		mov	r0, r5
 651 0120 FFF7FEFF 		bl	lv_obj_get_height
 652              	.LVL60:
 653              		.loc 1 444 37 view .LVU190
 654              	.LBE266:
 655              	.LBE267:
 201:Drivers/lvgl/src/widgets/lv_slider.c ****             const lv_coord_t bg_left = lv_obj_get_style_pad_left(obj, LV_PART_MAIN);
 656              		.loc 1 201 11 view .LVU191
 657 0124 8642     		cmp	r6, r0
 658 0126 C0F25E82 		blt	.L39
 659              	.LBB268:
 202:Drivers/lvgl/src/widgets/lv_slider.c ****             const lv_coord_t bg_right = lv_obj_get_style_pad_right(obj, LV_PART_MAIN);
 660              		.loc 1 202 13 is_stmt 1 view .LVU192
 661              	.LVL61:
 662              	.LBB269:
 663              	.LBI269:
 115:Drivers/lvgl/src/widgets/../core/lv_obj_style_gen.h **** {
 664              		.loc 2 115 26 view .LVU193
ARM GAS  /var/folders/0z/tsy30v1j4xl4_7kw94k978ww0000gn/T//ccS0VXUs.s 			page 28


 665              	.LBB270:
 117:Drivers/lvgl/src/widgets/../core/lv_obj_style_gen.h ****     return (lv_coord_t)v.num;
 666              		.loc 2 117 5 view .LVU194
 117:Drivers/lvgl/src/widgets/../core/lv_obj_style_gen.h ****     return (lv_coord_t)v.num;
 667              		.loc 2 117 26 is_stmt 0 view .LVU195
 668 012a 1222     		movs	r2, #18
 669 012c 0021     		movs	r1, #0
 670 012e 2846     		mov	r0, r5
 671 0130 FFF7FEFF 		bl	lv_obj_get_style_prop
 672              	.LVL62:
 673              	.LBE270:
 674              	.LBE269:
 675              	.LBB272:
 676              	.LBB273:
 123:Drivers/lvgl/src/widgets/../core/lv_obj_style_gen.h ****     return (lv_coord_t)v.num;
 677              		.loc 2 123 26 view .LVU196
 678 0134 1322     		movs	r2, #19
 679 0136 0021     		movs	r1, #0
 680              	.LBE273:
 681              	.LBE272:
 682              	.LBB275:
 683              	.LBB271:
 117:Drivers/lvgl/src/widgets/../core/lv_obj_style_gen.h ****     return (lv_coord_t)v.num;
 684              		.loc 2 117 26 view .LVU197
 685 0138 0746     		mov	r7, r0
 118:Drivers/lvgl/src/widgets/../core/lv_obj_style_gen.h **** }
 686              		.loc 2 118 5 is_stmt 1 view .LVU198
 687              	.LVL63:
 118:Drivers/lvgl/src/widgets/../core/lv_obj_style_gen.h **** }
 688              		.loc 2 118 5 is_stmt 0 view .LVU199
 689              	.LBE271:
 690              	.LBE275:
 203:Drivers/lvgl/src/widgets/lv_slider.c ****             const lv_coord_t w = lv_obj_get_width(obj);
 691              		.loc 1 203 13 is_stmt 1 view .LVU200
 692              	.LBB276:
 693              	.LBI272:
 121:Drivers/lvgl/src/widgets/../core/lv_obj_style_gen.h **** {
 694              		.loc 2 121 26 view .LVU201
 695              	.LBB274:
 123:Drivers/lvgl/src/widgets/../core/lv_obj_style_gen.h ****     return (lv_coord_t)v.num;
 696              		.loc 2 123 5 view .LVU202
 123:Drivers/lvgl/src/widgets/../core/lv_obj_style_gen.h ****     return (lv_coord_t)v.num;
 697              		.loc 2 123 26 is_stmt 0 view .LVU203
 698 013a 2846     		mov	r0, r5
 699 013c FFF7FEFF 		bl	lv_obj_get_style_prop
 700              	.LVL64:
 701 0140 8046     		mov	r8, r0
 702              		.loc 2 124 5 is_stmt 1 view .LVU204
 703              	.LVL65:
 704              		.loc 2 124 5 is_stmt 0 view .LVU205
 705              	.LBE274:
 706              	.LBE276:
 204:Drivers/lvgl/src/widgets/lv_slider.c ****             const lv_coord_t indic_w = w - bg_left - bg_right;
 707              		.loc 1 204 13 is_stmt 1 view .LVU206
 204:Drivers/lvgl/src/widgets/lv_slider.c ****             const lv_coord_t indic_w = w - bg_left - bg_right;
 708              		.loc 1 204 34 is_stmt 0 view .LVU207
 709 0142 2846     		mov	r0, r5
ARM GAS  /var/folders/0z/tsy30v1j4xl4_7kw94k978ww0000gn/T//ccS0VXUs.s 			page 29


 710 0144 FFF7FEFF 		bl	lv_obj_get_width
 711              	.LVL66:
 205:Drivers/lvgl/src/widgets/lv_slider.c **** 
 712              		.loc 1 205 13 is_stmt 1 view .LVU208
 205:Drivers/lvgl/src/widgets/lv_slider.c **** 
 713              		.loc 1 205 52 is_stmt 0 view .LVU209
 714 0148 07EB0803 		add	r3, r7, r8
 715 014c C01A     		subs	r0, r0, r3
 716              	.LVL67:
 205:Drivers/lvgl/src/widgets/lv_slider.c **** 
 717              		.loc 1 205 30 view .LVU210
 718 014e 06B2     		sxth	r6, r0
 719              	.LVL68:
 207:Drivers/lvgl/src/widgets/lv_slider.c ****                 /*Make the point relative to the indicator*/
 720              		.loc 1 207 13 is_stmt 1 view .LVU211
 721              	.LBB277:
 722              	.LBI277:
 125:Drivers/lvgl/src/widgets/../core/lv_obj_style_gen.h **** }
 126:Drivers/lvgl/src/widgets/../core/lv_obj_style_gen.h **** 
 127:Drivers/lvgl/src/widgets/../core/lv_obj_style_gen.h **** static inline lv_coord_t lv_obj_get_style_pad_row(const struct _lv_obj_t * obj, uint32_t part)
 128:Drivers/lvgl/src/widgets/../core/lv_obj_style_gen.h **** {
 129:Drivers/lvgl/src/widgets/../core/lv_obj_style_gen.h ****     lv_style_value_t v = lv_obj_get_style_prop(obj, part, LV_STYLE_PAD_ROW);
 130:Drivers/lvgl/src/widgets/../core/lv_obj_style_gen.h ****     return (lv_coord_t)v.num;
 131:Drivers/lvgl/src/widgets/../core/lv_obj_style_gen.h **** }
 132:Drivers/lvgl/src/widgets/../core/lv_obj_style_gen.h **** 
 133:Drivers/lvgl/src/widgets/../core/lv_obj_style_gen.h **** static inline lv_coord_t lv_obj_get_style_pad_column(const struct _lv_obj_t * obj, uint32_t part)
 134:Drivers/lvgl/src/widgets/../core/lv_obj_style_gen.h **** {
 135:Drivers/lvgl/src/widgets/../core/lv_obj_style_gen.h ****     lv_style_value_t v = lv_obj_get_style_prop(obj, part, LV_STYLE_PAD_COLUMN);
 136:Drivers/lvgl/src/widgets/../core/lv_obj_style_gen.h ****     return (lv_coord_t)v.num;
 137:Drivers/lvgl/src/widgets/../core/lv_obj_style_gen.h **** }
 138:Drivers/lvgl/src/widgets/../core/lv_obj_style_gen.h **** 
 139:Drivers/lvgl/src/widgets/../core/lv_obj_style_gen.h **** static inline lv_color_t lv_obj_get_style_bg_color(const struct _lv_obj_t * obj, uint32_t part)
 140:Drivers/lvgl/src/widgets/../core/lv_obj_style_gen.h **** {
 141:Drivers/lvgl/src/widgets/../core/lv_obj_style_gen.h ****     lv_style_value_t v = lv_obj_get_style_prop(obj, part, LV_STYLE_BG_COLOR);
 142:Drivers/lvgl/src/widgets/../core/lv_obj_style_gen.h ****     return v.color;
 143:Drivers/lvgl/src/widgets/../core/lv_obj_style_gen.h **** }
 144:Drivers/lvgl/src/widgets/../core/lv_obj_style_gen.h **** 
 145:Drivers/lvgl/src/widgets/../core/lv_obj_style_gen.h **** static inline lv_color_t lv_obj_get_style_bg_color_filtered(const struct _lv_obj_t * obj, uint32_t 
 146:Drivers/lvgl/src/widgets/../core/lv_obj_style_gen.h **** {
 147:Drivers/lvgl/src/widgets/../core/lv_obj_style_gen.h ****     lv_style_value_t v = _lv_obj_style_apply_color_filter(obj, part, lv_obj_get_style_prop(obj, par
 148:Drivers/lvgl/src/widgets/../core/lv_obj_style_gen.h ****     return v.color;
 149:Drivers/lvgl/src/widgets/../core/lv_obj_style_gen.h **** }
 150:Drivers/lvgl/src/widgets/../core/lv_obj_style_gen.h **** 
 151:Drivers/lvgl/src/widgets/../core/lv_obj_style_gen.h **** static inline lv_opa_t lv_obj_get_style_bg_opa(const struct _lv_obj_t * obj, uint32_t part)
 152:Drivers/lvgl/src/widgets/../core/lv_obj_style_gen.h **** {
 153:Drivers/lvgl/src/widgets/../core/lv_obj_style_gen.h ****     lv_style_value_t v = lv_obj_get_style_prop(obj, part, LV_STYLE_BG_OPA);
 154:Drivers/lvgl/src/widgets/../core/lv_obj_style_gen.h ****     return (lv_opa_t)v.num;
 155:Drivers/lvgl/src/widgets/../core/lv_obj_style_gen.h **** }
 156:Drivers/lvgl/src/widgets/../core/lv_obj_style_gen.h **** 
 157:Drivers/lvgl/src/widgets/../core/lv_obj_style_gen.h **** static inline lv_color_t lv_obj_get_style_bg_grad_color(const struct _lv_obj_t * obj, uint32_t part
 158:Drivers/lvgl/src/widgets/../core/lv_obj_style_gen.h **** {
 159:Drivers/lvgl/src/widgets/../core/lv_obj_style_gen.h ****     lv_style_value_t v = lv_obj_get_style_prop(obj, part, LV_STYLE_BG_GRAD_COLOR);
 160:Drivers/lvgl/src/widgets/../core/lv_obj_style_gen.h ****     return v.color;
 161:Drivers/lvgl/src/widgets/../core/lv_obj_style_gen.h **** }
 162:Drivers/lvgl/src/widgets/../core/lv_obj_style_gen.h **** 
 163:Drivers/lvgl/src/widgets/../core/lv_obj_style_gen.h **** static inline lv_color_t lv_obj_get_style_bg_grad_color_filtered(const struct _lv_obj_t * obj, uint
 164:Drivers/lvgl/src/widgets/../core/lv_obj_style_gen.h **** {
ARM GAS  /var/folders/0z/tsy30v1j4xl4_7kw94k978ww0000gn/T//ccS0VXUs.s 			page 30


 165:Drivers/lvgl/src/widgets/../core/lv_obj_style_gen.h ****     lv_style_value_t v = _lv_obj_style_apply_color_filter(obj, part, lv_obj_get_style_prop(obj, par
 166:Drivers/lvgl/src/widgets/../core/lv_obj_style_gen.h ****     return v.color;
 167:Drivers/lvgl/src/widgets/../core/lv_obj_style_gen.h **** }
 168:Drivers/lvgl/src/widgets/../core/lv_obj_style_gen.h **** 
 169:Drivers/lvgl/src/widgets/../core/lv_obj_style_gen.h **** static inline lv_grad_dir_t lv_obj_get_style_bg_grad_dir(const struct _lv_obj_t * obj, uint32_t par
 170:Drivers/lvgl/src/widgets/../core/lv_obj_style_gen.h **** {
 171:Drivers/lvgl/src/widgets/../core/lv_obj_style_gen.h ****     lv_style_value_t v = lv_obj_get_style_prop(obj, part, LV_STYLE_BG_GRAD_DIR);
 172:Drivers/lvgl/src/widgets/../core/lv_obj_style_gen.h ****     return (lv_grad_dir_t)v.num;
 173:Drivers/lvgl/src/widgets/../core/lv_obj_style_gen.h **** }
 174:Drivers/lvgl/src/widgets/../core/lv_obj_style_gen.h **** 
 175:Drivers/lvgl/src/widgets/../core/lv_obj_style_gen.h **** static inline lv_coord_t lv_obj_get_style_bg_main_stop(const struct _lv_obj_t * obj, uint32_t part)
 176:Drivers/lvgl/src/widgets/../core/lv_obj_style_gen.h **** {
 177:Drivers/lvgl/src/widgets/../core/lv_obj_style_gen.h ****     lv_style_value_t v = lv_obj_get_style_prop(obj, part, LV_STYLE_BG_MAIN_STOP);
 178:Drivers/lvgl/src/widgets/../core/lv_obj_style_gen.h ****     return (lv_coord_t)v.num;
 179:Drivers/lvgl/src/widgets/../core/lv_obj_style_gen.h **** }
 180:Drivers/lvgl/src/widgets/../core/lv_obj_style_gen.h **** 
 181:Drivers/lvgl/src/widgets/../core/lv_obj_style_gen.h **** static inline lv_coord_t lv_obj_get_style_bg_grad_stop(const struct _lv_obj_t * obj, uint32_t part)
 182:Drivers/lvgl/src/widgets/../core/lv_obj_style_gen.h **** {
 183:Drivers/lvgl/src/widgets/../core/lv_obj_style_gen.h ****     lv_style_value_t v = lv_obj_get_style_prop(obj, part, LV_STYLE_BG_GRAD_STOP);
 184:Drivers/lvgl/src/widgets/../core/lv_obj_style_gen.h ****     return (lv_coord_t)v.num;
 185:Drivers/lvgl/src/widgets/../core/lv_obj_style_gen.h **** }
 186:Drivers/lvgl/src/widgets/../core/lv_obj_style_gen.h **** 
 187:Drivers/lvgl/src/widgets/../core/lv_obj_style_gen.h **** static inline const lv_grad_dsc_t * lv_obj_get_style_bg_grad(const struct _lv_obj_t * obj, uint32_t
 188:Drivers/lvgl/src/widgets/../core/lv_obj_style_gen.h **** {
 189:Drivers/lvgl/src/widgets/../core/lv_obj_style_gen.h ****     lv_style_value_t v = lv_obj_get_style_prop(obj, part, LV_STYLE_BG_GRAD);
 190:Drivers/lvgl/src/widgets/../core/lv_obj_style_gen.h ****     return (const lv_grad_dsc_t *)v.ptr;
 191:Drivers/lvgl/src/widgets/../core/lv_obj_style_gen.h **** }
 192:Drivers/lvgl/src/widgets/../core/lv_obj_style_gen.h **** 
 193:Drivers/lvgl/src/widgets/../core/lv_obj_style_gen.h **** static inline lv_dither_mode_t lv_obj_get_style_bg_dither_mode(const struct _lv_obj_t * obj, uint32
 194:Drivers/lvgl/src/widgets/../core/lv_obj_style_gen.h **** {
 195:Drivers/lvgl/src/widgets/../core/lv_obj_style_gen.h ****     lv_style_value_t v = lv_obj_get_style_prop(obj, part, LV_STYLE_BG_DITHER_MODE);
 196:Drivers/lvgl/src/widgets/../core/lv_obj_style_gen.h ****     return (lv_dither_mode_t)v.num;
 197:Drivers/lvgl/src/widgets/../core/lv_obj_style_gen.h **** }
 198:Drivers/lvgl/src/widgets/../core/lv_obj_style_gen.h **** 
 199:Drivers/lvgl/src/widgets/../core/lv_obj_style_gen.h **** static inline const void * lv_obj_get_style_bg_img_src(const struct _lv_obj_t * obj, uint32_t part)
 200:Drivers/lvgl/src/widgets/../core/lv_obj_style_gen.h **** {
 201:Drivers/lvgl/src/widgets/../core/lv_obj_style_gen.h ****     lv_style_value_t v = lv_obj_get_style_prop(obj, part, LV_STYLE_BG_IMG_SRC);
 202:Drivers/lvgl/src/widgets/../core/lv_obj_style_gen.h ****     return (const void *)v.ptr;
 203:Drivers/lvgl/src/widgets/../core/lv_obj_style_gen.h **** }
 204:Drivers/lvgl/src/widgets/../core/lv_obj_style_gen.h **** 
 205:Drivers/lvgl/src/widgets/../core/lv_obj_style_gen.h **** static inline lv_opa_t lv_obj_get_style_bg_img_opa(const struct _lv_obj_t * obj, uint32_t part)
 206:Drivers/lvgl/src/widgets/../core/lv_obj_style_gen.h **** {
 207:Drivers/lvgl/src/widgets/../core/lv_obj_style_gen.h ****     lv_style_value_t v = lv_obj_get_style_prop(obj, part, LV_STYLE_BG_IMG_OPA);
 208:Drivers/lvgl/src/widgets/../core/lv_obj_style_gen.h ****     return (lv_opa_t)v.num;
 209:Drivers/lvgl/src/widgets/../core/lv_obj_style_gen.h **** }
 210:Drivers/lvgl/src/widgets/../core/lv_obj_style_gen.h **** 
 211:Drivers/lvgl/src/widgets/../core/lv_obj_style_gen.h **** static inline lv_color_t lv_obj_get_style_bg_img_recolor(const struct _lv_obj_t * obj, uint32_t par
 212:Drivers/lvgl/src/widgets/../core/lv_obj_style_gen.h **** {
 213:Drivers/lvgl/src/widgets/../core/lv_obj_style_gen.h ****     lv_style_value_t v = lv_obj_get_style_prop(obj, part, LV_STYLE_BG_IMG_RECOLOR);
 214:Drivers/lvgl/src/widgets/../core/lv_obj_style_gen.h ****     return v.color;
 215:Drivers/lvgl/src/widgets/../core/lv_obj_style_gen.h **** }
 216:Drivers/lvgl/src/widgets/../core/lv_obj_style_gen.h **** 
 217:Drivers/lvgl/src/widgets/../core/lv_obj_style_gen.h **** static inline lv_color_t lv_obj_get_style_bg_img_recolor_filtered(const struct _lv_obj_t * obj, uin
 218:Drivers/lvgl/src/widgets/../core/lv_obj_style_gen.h **** {
 219:Drivers/lvgl/src/widgets/../core/lv_obj_style_gen.h ****     lv_style_value_t v = _lv_obj_style_apply_color_filter(obj, part, lv_obj_get_style_prop(obj, par
 220:Drivers/lvgl/src/widgets/../core/lv_obj_style_gen.h ****     return v.color;
 221:Drivers/lvgl/src/widgets/../core/lv_obj_style_gen.h **** }
ARM GAS  /var/folders/0z/tsy30v1j4xl4_7kw94k978ww0000gn/T//ccS0VXUs.s 			page 31


 222:Drivers/lvgl/src/widgets/../core/lv_obj_style_gen.h **** 
 223:Drivers/lvgl/src/widgets/../core/lv_obj_style_gen.h **** static inline lv_opa_t lv_obj_get_style_bg_img_recolor_opa(const struct _lv_obj_t * obj, uint32_t p
 224:Drivers/lvgl/src/widgets/../core/lv_obj_style_gen.h **** {
 225:Drivers/lvgl/src/widgets/../core/lv_obj_style_gen.h ****     lv_style_value_t v = lv_obj_get_style_prop(obj, part, LV_STYLE_BG_IMG_RECOLOR_OPA);
 226:Drivers/lvgl/src/widgets/../core/lv_obj_style_gen.h ****     return (lv_opa_t)v.num;
 227:Drivers/lvgl/src/widgets/../core/lv_obj_style_gen.h **** }
 228:Drivers/lvgl/src/widgets/../core/lv_obj_style_gen.h **** 
 229:Drivers/lvgl/src/widgets/../core/lv_obj_style_gen.h **** static inline bool lv_obj_get_style_bg_img_tiled(const struct _lv_obj_t * obj, uint32_t part)
 230:Drivers/lvgl/src/widgets/../core/lv_obj_style_gen.h **** {
 231:Drivers/lvgl/src/widgets/../core/lv_obj_style_gen.h ****     lv_style_value_t v = lv_obj_get_style_prop(obj, part, LV_STYLE_BG_IMG_TILED);
 232:Drivers/lvgl/src/widgets/../core/lv_obj_style_gen.h ****     return (bool)v.num;
 233:Drivers/lvgl/src/widgets/../core/lv_obj_style_gen.h **** }
 234:Drivers/lvgl/src/widgets/../core/lv_obj_style_gen.h **** 
 235:Drivers/lvgl/src/widgets/../core/lv_obj_style_gen.h **** static inline lv_color_t lv_obj_get_style_border_color(const struct _lv_obj_t * obj, uint32_t part)
 236:Drivers/lvgl/src/widgets/../core/lv_obj_style_gen.h **** {
 237:Drivers/lvgl/src/widgets/../core/lv_obj_style_gen.h ****     lv_style_value_t v = lv_obj_get_style_prop(obj, part, LV_STYLE_BORDER_COLOR);
 238:Drivers/lvgl/src/widgets/../core/lv_obj_style_gen.h ****     return v.color;
 239:Drivers/lvgl/src/widgets/../core/lv_obj_style_gen.h **** }
 240:Drivers/lvgl/src/widgets/../core/lv_obj_style_gen.h **** 
 241:Drivers/lvgl/src/widgets/../core/lv_obj_style_gen.h **** static inline lv_color_t lv_obj_get_style_border_color_filtered(const struct _lv_obj_t * obj, uint3
 242:Drivers/lvgl/src/widgets/../core/lv_obj_style_gen.h **** {
 243:Drivers/lvgl/src/widgets/../core/lv_obj_style_gen.h ****     lv_style_value_t v = _lv_obj_style_apply_color_filter(obj, part, lv_obj_get_style_prop(obj, par
 244:Drivers/lvgl/src/widgets/../core/lv_obj_style_gen.h ****     return v.color;
 245:Drivers/lvgl/src/widgets/../core/lv_obj_style_gen.h **** }
 246:Drivers/lvgl/src/widgets/../core/lv_obj_style_gen.h **** 
 247:Drivers/lvgl/src/widgets/../core/lv_obj_style_gen.h **** static inline lv_opa_t lv_obj_get_style_border_opa(const struct _lv_obj_t * obj, uint32_t part)
 248:Drivers/lvgl/src/widgets/../core/lv_obj_style_gen.h **** {
 249:Drivers/lvgl/src/widgets/../core/lv_obj_style_gen.h ****     lv_style_value_t v = lv_obj_get_style_prop(obj, part, LV_STYLE_BORDER_OPA);
 250:Drivers/lvgl/src/widgets/../core/lv_obj_style_gen.h ****     return (lv_opa_t)v.num;
 251:Drivers/lvgl/src/widgets/../core/lv_obj_style_gen.h **** }
 252:Drivers/lvgl/src/widgets/../core/lv_obj_style_gen.h **** 
 253:Drivers/lvgl/src/widgets/../core/lv_obj_style_gen.h **** static inline lv_coord_t lv_obj_get_style_border_width(const struct _lv_obj_t * obj, uint32_t part)
 254:Drivers/lvgl/src/widgets/../core/lv_obj_style_gen.h **** {
 255:Drivers/lvgl/src/widgets/../core/lv_obj_style_gen.h ****     lv_style_value_t v = lv_obj_get_style_prop(obj, part, LV_STYLE_BORDER_WIDTH);
 256:Drivers/lvgl/src/widgets/../core/lv_obj_style_gen.h ****     return (lv_coord_t)v.num;
 257:Drivers/lvgl/src/widgets/../core/lv_obj_style_gen.h **** }
 258:Drivers/lvgl/src/widgets/../core/lv_obj_style_gen.h **** 
 259:Drivers/lvgl/src/widgets/../core/lv_obj_style_gen.h **** static inline lv_border_side_t lv_obj_get_style_border_side(const struct _lv_obj_t * obj, uint32_t 
 260:Drivers/lvgl/src/widgets/../core/lv_obj_style_gen.h **** {
 261:Drivers/lvgl/src/widgets/../core/lv_obj_style_gen.h ****     lv_style_value_t v = lv_obj_get_style_prop(obj, part, LV_STYLE_BORDER_SIDE);
 262:Drivers/lvgl/src/widgets/../core/lv_obj_style_gen.h ****     return (lv_border_side_t)v.num;
 263:Drivers/lvgl/src/widgets/../core/lv_obj_style_gen.h **** }
 264:Drivers/lvgl/src/widgets/../core/lv_obj_style_gen.h **** 
 265:Drivers/lvgl/src/widgets/../core/lv_obj_style_gen.h **** static inline bool lv_obj_get_style_border_post(const struct _lv_obj_t * obj, uint32_t part)
 266:Drivers/lvgl/src/widgets/../core/lv_obj_style_gen.h **** {
 267:Drivers/lvgl/src/widgets/../core/lv_obj_style_gen.h ****     lv_style_value_t v = lv_obj_get_style_prop(obj, part, LV_STYLE_BORDER_POST);
 268:Drivers/lvgl/src/widgets/../core/lv_obj_style_gen.h ****     return (bool)v.num;
 269:Drivers/lvgl/src/widgets/../core/lv_obj_style_gen.h **** }
 270:Drivers/lvgl/src/widgets/../core/lv_obj_style_gen.h **** 
 271:Drivers/lvgl/src/widgets/../core/lv_obj_style_gen.h **** static inline lv_coord_t lv_obj_get_style_outline_width(const struct _lv_obj_t * obj, uint32_t part
 272:Drivers/lvgl/src/widgets/../core/lv_obj_style_gen.h **** {
 273:Drivers/lvgl/src/widgets/../core/lv_obj_style_gen.h ****     lv_style_value_t v = lv_obj_get_style_prop(obj, part, LV_STYLE_OUTLINE_WIDTH);
 274:Drivers/lvgl/src/widgets/../core/lv_obj_style_gen.h ****     return (lv_coord_t)v.num;
 275:Drivers/lvgl/src/widgets/../core/lv_obj_style_gen.h **** }
 276:Drivers/lvgl/src/widgets/../core/lv_obj_style_gen.h **** 
 277:Drivers/lvgl/src/widgets/../core/lv_obj_style_gen.h **** static inline lv_color_t lv_obj_get_style_outline_color(const struct _lv_obj_t * obj, uint32_t part
 278:Drivers/lvgl/src/widgets/../core/lv_obj_style_gen.h **** {
ARM GAS  /var/folders/0z/tsy30v1j4xl4_7kw94k978ww0000gn/T//ccS0VXUs.s 			page 32


 279:Drivers/lvgl/src/widgets/../core/lv_obj_style_gen.h ****     lv_style_value_t v = lv_obj_get_style_prop(obj, part, LV_STYLE_OUTLINE_COLOR);
 280:Drivers/lvgl/src/widgets/../core/lv_obj_style_gen.h ****     return v.color;
 281:Drivers/lvgl/src/widgets/../core/lv_obj_style_gen.h **** }
 282:Drivers/lvgl/src/widgets/../core/lv_obj_style_gen.h **** 
 283:Drivers/lvgl/src/widgets/../core/lv_obj_style_gen.h **** static inline lv_color_t lv_obj_get_style_outline_color_filtered(const struct _lv_obj_t * obj, uint
 284:Drivers/lvgl/src/widgets/../core/lv_obj_style_gen.h **** {
 285:Drivers/lvgl/src/widgets/../core/lv_obj_style_gen.h ****     lv_style_value_t v = _lv_obj_style_apply_color_filter(obj, part, lv_obj_get_style_prop(obj, par
 286:Drivers/lvgl/src/widgets/../core/lv_obj_style_gen.h ****     return v.color;
 287:Drivers/lvgl/src/widgets/../core/lv_obj_style_gen.h **** }
 288:Drivers/lvgl/src/widgets/../core/lv_obj_style_gen.h **** 
 289:Drivers/lvgl/src/widgets/../core/lv_obj_style_gen.h **** static inline lv_opa_t lv_obj_get_style_outline_opa(const struct _lv_obj_t * obj, uint32_t part)
 290:Drivers/lvgl/src/widgets/../core/lv_obj_style_gen.h **** {
 291:Drivers/lvgl/src/widgets/../core/lv_obj_style_gen.h ****     lv_style_value_t v = lv_obj_get_style_prop(obj, part, LV_STYLE_OUTLINE_OPA);
 292:Drivers/lvgl/src/widgets/../core/lv_obj_style_gen.h ****     return (lv_opa_t)v.num;
 293:Drivers/lvgl/src/widgets/../core/lv_obj_style_gen.h **** }
 294:Drivers/lvgl/src/widgets/../core/lv_obj_style_gen.h **** 
 295:Drivers/lvgl/src/widgets/../core/lv_obj_style_gen.h **** static inline lv_coord_t lv_obj_get_style_outline_pad(const struct _lv_obj_t * obj, uint32_t part)
 296:Drivers/lvgl/src/widgets/../core/lv_obj_style_gen.h **** {
 297:Drivers/lvgl/src/widgets/../core/lv_obj_style_gen.h ****     lv_style_value_t v = lv_obj_get_style_prop(obj, part, LV_STYLE_OUTLINE_PAD);
 298:Drivers/lvgl/src/widgets/../core/lv_obj_style_gen.h ****     return (lv_coord_t)v.num;
 299:Drivers/lvgl/src/widgets/../core/lv_obj_style_gen.h **** }
 300:Drivers/lvgl/src/widgets/../core/lv_obj_style_gen.h **** 
 301:Drivers/lvgl/src/widgets/../core/lv_obj_style_gen.h **** static inline lv_coord_t lv_obj_get_style_shadow_width(const struct _lv_obj_t * obj, uint32_t part)
 302:Drivers/lvgl/src/widgets/../core/lv_obj_style_gen.h **** {
 303:Drivers/lvgl/src/widgets/../core/lv_obj_style_gen.h ****     lv_style_value_t v = lv_obj_get_style_prop(obj, part, LV_STYLE_SHADOW_WIDTH);
 304:Drivers/lvgl/src/widgets/../core/lv_obj_style_gen.h ****     return (lv_coord_t)v.num;
 305:Drivers/lvgl/src/widgets/../core/lv_obj_style_gen.h **** }
 306:Drivers/lvgl/src/widgets/../core/lv_obj_style_gen.h **** 
 307:Drivers/lvgl/src/widgets/../core/lv_obj_style_gen.h **** static inline lv_coord_t lv_obj_get_style_shadow_ofs_x(const struct _lv_obj_t * obj, uint32_t part)
 308:Drivers/lvgl/src/widgets/../core/lv_obj_style_gen.h **** {
 309:Drivers/lvgl/src/widgets/../core/lv_obj_style_gen.h ****     lv_style_value_t v = lv_obj_get_style_prop(obj, part, LV_STYLE_SHADOW_OFS_X);
 310:Drivers/lvgl/src/widgets/../core/lv_obj_style_gen.h ****     return (lv_coord_t)v.num;
 311:Drivers/lvgl/src/widgets/../core/lv_obj_style_gen.h **** }
 312:Drivers/lvgl/src/widgets/../core/lv_obj_style_gen.h **** 
 313:Drivers/lvgl/src/widgets/../core/lv_obj_style_gen.h **** static inline lv_coord_t lv_obj_get_style_shadow_ofs_y(const struct _lv_obj_t * obj, uint32_t part)
 314:Drivers/lvgl/src/widgets/../core/lv_obj_style_gen.h **** {
 315:Drivers/lvgl/src/widgets/../core/lv_obj_style_gen.h ****     lv_style_value_t v = lv_obj_get_style_prop(obj, part, LV_STYLE_SHADOW_OFS_Y);
 316:Drivers/lvgl/src/widgets/../core/lv_obj_style_gen.h ****     return (lv_coord_t)v.num;
 317:Drivers/lvgl/src/widgets/../core/lv_obj_style_gen.h **** }
 318:Drivers/lvgl/src/widgets/../core/lv_obj_style_gen.h **** 
 319:Drivers/lvgl/src/widgets/../core/lv_obj_style_gen.h **** static inline lv_coord_t lv_obj_get_style_shadow_spread(const struct _lv_obj_t * obj, uint32_t part
 320:Drivers/lvgl/src/widgets/../core/lv_obj_style_gen.h **** {
 321:Drivers/lvgl/src/widgets/../core/lv_obj_style_gen.h ****     lv_style_value_t v = lv_obj_get_style_prop(obj, part, LV_STYLE_SHADOW_SPREAD);
 322:Drivers/lvgl/src/widgets/../core/lv_obj_style_gen.h ****     return (lv_coord_t)v.num;
 323:Drivers/lvgl/src/widgets/../core/lv_obj_style_gen.h **** }
 324:Drivers/lvgl/src/widgets/../core/lv_obj_style_gen.h **** 
 325:Drivers/lvgl/src/widgets/../core/lv_obj_style_gen.h **** static inline lv_color_t lv_obj_get_style_shadow_color(const struct _lv_obj_t * obj, uint32_t part)
 326:Drivers/lvgl/src/widgets/../core/lv_obj_style_gen.h **** {
 327:Drivers/lvgl/src/widgets/../core/lv_obj_style_gen.h ****     lv_style_value_t v = lv_obj_get_style_prop(obj, part, LV_STYLE_SHADOW_COLOR);
 328:Drivers/lvgl/src/widgets/../core/lv_obj_style_gen.h ****     return v.color;
 329:Drivers/lvgl/src/widgets/../core/lv_obj_style_gen.h **** }
 330:Drivers/lvgl/src/widgets/../core/lv_obj_style_gen.h **** 
 331:Drivers/lvgl/src/widgets/../core/lv_obj_style_gen.h **** static inline lv_color_t lv_obj_get_style_shadow_color_filtered(const struct _lv_obj_t * obj, uint3
 332:Drivers/lvgl/src/widgets/../core/lv_obj_style_gen.h **** {
 333:Drivers/lvgl/src/widgets/../core/lv_obj_style_gen.h ****     lv_style_value_t v = _lv_obj_style_apply_color_filter(obj, part, lv_obj_get_style_prop(obj, par
 334:Drivers/lvgl/src/widgets/../core/lv_obj_style_gen.h ****     return v.color;
 335:Drivers/lvgl/src/widgets/../core/lv_obj_style_gen.h **** }
ARM GAS  /var/folders/0z/tsy30v1j4xl4_7kw94k978ww0000gn/T//ccS0VXUs.s 			page 33


 336:Drivers/lvgl/src/widgets/../core/lv_obj_style_gen.h **** 
 337:Drivers/lvgl/src/widgets/../core/lv_obj_style_gen.h **** static inline lv_opa_t lv_obj_get_style_shadow_opa(const struct _lv_obj_t * obj, uint32_t part)
 338:Drivers/lvgl/src/widgets/../core/lv_obj_style_gen.h **** {
 339:Drivers/lvgl/src/widgets/../core/lv_obj_style_gen.h ****     lv_style_value_t v = lv_obj_get_style_prop(obj, part, LV_STYLE_SHADOW_OPA);
 340:Drivers/lvgl/src/widgets/../core/lv_obj_style_gen.h ****     return (lv_opa_t)v.num;
 341:Drivers/lvgl/src/widgets/../core/lv_obj_style_gen.h **** }
 342:Drivers/lvgl/src/widgets/../core/lv_obj_style_gen.h **** 
 343:Drivers/lvgl/src/widgets/../core/lv_obj_style_gen.h **** static inline lv_opa_t lv_obj_get_style_img_opa(const struct _lv_obj_t * obj, uint32_t part)
 344:Drivers/lvgl/src/widgets/../core/lv_obj_style_gen.h **** {
 345:Drivers/lvgl/src/widgets/../core/lv_obj_style_gen.h ****     lv_style_value_t v = lv_obj_get_style_prop(obj, part, LV_STYLE_IMG_OPA);
 346:Drivers/lvgl/src/widgets/../core/lv_obj_style_gen.h ****     return (lv_opa_t)v.num;
 347:Drivers/lvgl/src/widgets/../core/lv_obj_style_gen.h **** }
 348:Drivers/lvgl/src/widgets/../core/lv_obj_style_gen.h **** 
 349:Drivers/lvgl/src/widgets/../core/lv_obj_style_gen.h **** static inline lv_color_t lv_obj_get_style_img_recolor(const struct _lv_obj_t * obj, uint32_t part)
 350:Drivers/lvgl/src/widgets/../core/lv_obj_style_gen.h **** {
 351:Drivers/lvgl/src/widgets/../core/lv_obj_style_gen.h ****     lv_style_value_t v = lv_obj_get_style_prop(obj, part, LV_STYLE_IMG_RECOLOR);
 352:Drivers/lvgl/src/widgets/../core/lv_obj_style_gen.h ****     return v.color;
 353:Drivers/lvgl/src/widgets/../core/lv_obj_style_gen.h **** }
 354:Drivers/lvgl/src/widgets/../core/lv_obj_style_gen.h **** 
 355:Drivers/lvgl/src/widgets/../core/lv_obj_style_gen.h **** static inline lv_color_t lv_obj_get_style_img_recolor_filtered(const struct _lv_obj_t * obj, uint32
 356:Drivers/lvgl/src/widgets/../core/lv_obj_style_gen.h **** {
 357:Drivers/lvgl/src/widgets/../core/lv_obj_style_gen.h ****     lv_style_value_t v = _lv_obj_style_apply_color_filter(obj, part, lv_obj_get_style_prop(obj, par
 358:Drivers/lvgl/src/widgets/../core/lv_obj_style_gen.h ****     return v.color;
 359:Drivers/lvgl/src/widgets/../core/lv_obj_style_gen.h **** }
 360:Drivers/lvgl/src/widgets/../core/lv_obj_style_gen.h **** 
 361:Drivers/lvgl/src/widgets/../core/lv_obj_style_gen.h **** static inline lv_opa_t lv_obj_get_style_img_recolor_opa(const struct _lv_obj_t * obj, uint32_t part
 362:Drivers/lvgl/src/widgets/../core/lv_obj_style_gen.h **** {
 363:Drivers/lvgl/src/widgets/../core/lv_obj_style_gen.h ****     lv_style_value_t v = lv_obj_get_style_prop(obj, part, LV_STYLE_IMG_RECOLOR_OPA);
 364:Drivers/lvgl/src/widgets/../core/lv_obj_style_gen.h ****     return (lv_opa_t)v.num;
 365:Drivers/lvgl/src/widgets/../core/lv_obj_style_gen.h **** }
 366:Drivers/lvgl/src/widgets/../core/lv_obj_style_gen.h **** 
 367:Drivers/lvgl/src/widgets/../core/lv_obj_style_gen.h **** static inline lv_coord_t lv_obj_get_style_line_width(const struct _lv_obj_t * obj, uint32_t part)
 368:Drivers/lvgl/src/widgets/../core/lv_obj_style_gen.h **** {
 369:Drivers/lvgl/src/widgets/../core/lv_obj_style_gen.h ****     lv_style_value_t v = lv_obj_get_style_prop(obj, part, LV_STYLE_LINE_WIDTH);
 370:Drivers/lvgl/src/widgets/../core/lv_obj_style_gen.h ****     return (lv_coord_t)v.num;
 371:Drivers/lvgl/src/widgets/../core/lv_obj_style_gen.h **** }
 372:Drivers/lvgl/src/widgets/../core/lv_obj_style_gen.h **** 
 373:Drivers/lvgl/src/widgets/../core/lv_obj_style_gen.h **** static inline lv_coord_t lv_obj_get_style_line_dash_width(const struct _lv_obj_t * obj, uint32_t pa
 374:Drivers/lvgl/src/widgets/../core/lv_obj_style_gen.h **** {
 375:Drivers/lvgl/src/widgets/../core/lv_obj_style_gen.h ****     lv_style_value_t v = lv_obj_get_style_prop(obj, part, LV_STYLE_LINE_DASH_WIDTH);
 376:Drivers/lvgl/src/widgets/../core/lv_obj_style_gen.h ****     return (lv_coord_t)v.num;
 377:Drivers/lvgl/src/widgets/../core/lv_obj_style_gen.h **** }
 378:Drivers/lvgl/src/widgets/../core/lv_obj_style_gen.h **** 
 379:Drivers/lvgl/src/widgets/../core/lv_obj_style_gen.h **** static inline lv_coord_t lv_obj_get_style_line_dash_gap(const struct _lv_obj_t * obj, uint32_t part
 380:Drivers/lvgl/src/widgets/../core/lv_obj_style_gen.h **** {
 381:Drivers/lvgl/src/widgets/../core/lv_obj_style_gen.h ****     lv_style_value_t v = lv_obj_get_style_prop(obj, part, LV_STYLE_LINE_DASH_GAP);
 382:Drivers/lvgl/src/widgets/../core/lv_obj_style_gen.h ****     return (lv_coord_t)v.num;
 383:Drivers/lvgl/src/widgets/../core/lv_obj_style_gen.h **** }
 384:Drivers/lvgl/src/widgets/../core/lv_obj_style_gen.h **** 
 385:Drivers/lvgl/src/widgets/../core/lv_obj_style_gen.h **** static inline bool lv_obj_get_style_line_rounded(const struct _lv_obj_t * obj, uint32_t part)
 386:Drivers/lvgl/src/widgets/../core/lv_obj_style_gen.h **** {
 387:Drivers/lvgl/src/widgets/../core/lv_obj_style_gen.h ****     lv_style_value_t v = lv_obj_get_style_prop(obj, part, LV_STYLE_LINE_ROUNDED);
 388:Drivers/lvgl/src/widgets/../core/lv_obj_style_gen.h ****     return (bool)v.num;
 389:Drivers/lvgl/src/widgets/../core/lv_obj_style_gen.h **** }
 390:Drivers/lvgl/src/widgets/../core/lv_obj_style_gen.h **** 
 391:Drivers/lvgl/src/widgets/../core/lv_obj_style_gen.h **** static inline lv_color_t lv_obj_get_style_line_color(const struct _lv_obj_t * obj, uint32_t part)
 392:Drivers/lvgl/src/widgets/../core/lv_obj_style_gen.h **** {
ARM GAS  /var/folders/0z/tsy30v1j4xl4_7kw94k978ww0000gn/T//ccS0VXUs.s 			page 34


 393:Drivers/lvgl/src/widgets/../core/lv_obj_style_gen.h ****     lv_style_value_t v = lv_obj_get_style_prop(obj, part, LV_STYLE_LINE_COLOR);
 394:Drivers/lvgl/src/widgets/../core/lv_obj_style_gen.h ****     return v.color;
 395:Drivers/lvgl/src/widgets/../core/lv_obj_style_gen.h **** }
 396:Drivers/lvgl/src/widgets/../core/lv_obj_style_gen.h **** 
 397:Drivers/lvgl/src/widgets/../core/lv_obj_style_gen.h **** static inline lv_color_t lv_obj_get_style_line_color_filtered(const struct _lv_obj_t * obj, uint32_
 398:Drivers/lvgl/src/widgets/../core/lv_obj_style_gen.h **** {
 399:Drivers/lvgl/src/widgets/../core/lv_obj_style_gen.h ****     lv_style_value_t v = _lv_obj_style_apply_color_filter(obj, part, lv_obj_get_style_prop(obj, par
 400:Drivers/lvgl/src/widgets/../core/lv_obj_style_gen.h ****     return v.color;
 401:Drivers/lvgl/src/widgets/../core/lv_obj_style_gen.h **** }
 402:Drivers/lvgl/src/widgets/../core/lv_obj_style_gen.h **** 
 403:Drivers/lvgl/src/widgets/../core/lv_obj_style_gen.h **** static inline lv_opa_t lv_obj_get_style_line_opa(const struct _lv_obj_t * obj, uint32_t part)
 404:Drivers/lvgl/src/widgets/../core/lv_obj_style_gen.h **** {
 405:Drivers/lvgl/src/widgets/../core/lv_obj_style_gen.h ****     lv_style_value_t v = lv_obj_get_style_prop(obj, part, LV_STYLE_LINE_OPA);
 406:Drivers/lvgl/src/widgets/../core/lv_obj_style_gen.h ****     return (lv_opa_t)v.num;
 407:Drivers/lvgl/src/widgets/../core/lv_obj_style_gen.h **** }
 408:Drivers/lvgl/src/widgets/../core/lv_obj_style_gen.h **** 
 409:Drivers/lvgl/src/widgets/../core/lv_obj_style_gen.h **** static inline lv_coord_t lv_obj_get_style_arc_width(const struct _lv_obj_t * obj, uint32_t part)
 410:Drivers/lvgl/src/widgets/../core/lv_obj_style_gen.h **** {
 411:Drivers/lvgl/src/widgets/../core/lv_obj_style_gen.h ****     lv_style_value_t v = lv_obj_get_style_prop(obj, part, LV_STYLE_ARC_WIDTH);
 412:Drivers/lvgl/src/widgets/../core/lv_obj_style_gen.h ****     return (lv_coord_t)v.num;
 413:Drivers/lvgl/src/widgets/../core/lv_obj_style_gen.h **** }
 414:Drivers/lvgl/src/widgets/../core/lv_obj_style_gen.h **** 
 415:Drivers/lvgl/src/widgets/../core/lv_obj_style_gen.h **** static inline bool lv_obj_get_style_arc_rounded(const struct _lv_obj_t * obj, uint32_t part)
 416:Drivers/lvgl/src/widgets/../core/lv_obj_style_gen.h **** {
 417:Drivers/lvgl/src/widgets/../core/lv_obj_style_gen.h ****     lv_style_value_t v = lv_obj_get_style_prop(obj, part, LV_STYLE_ARC_ROUNDED);
 418:Drivers/lvgl/src/widgets/../core/lv_obj_style_gen.h ****     return (bool)v.num;
 419:Drivers/lvgl/src/widgets/../core/lv_obj_style_gen.h **** }
 420:Drivers/lvgl/src/widgets/../core/lv_obj_style_gen.h **** 
 421:Drivers/lvgl/src/widgets/../core/lv_obj_style_gen.h **** static inline lv_color_t lv_obj_get_style_arc_color(const struct _lv_obj_t * obj, uint32_t part)
 422:Drivers/lvgl/src/widgets/../core/lv_obj_style_gen.h **** {
 423:Drivers/lvgl/src/widgets/../core/lv_obj_style_gen.h ****     lv_style_value_t v = lv_obj_get_style_prop(obj, part, LV_STYLE_ARC_COLOR);
 424:Drivers/lvgl/src/widgets/../core/lv_obj_style_gen.h ****     return v.color;
 425:Drivers/lvgl/src/widgets/../core/lv_obj_style_gen.h **** }
 426:Drivers/lvgl/src/widgets/../core/lv_obj_style_gen.h **** 
 427:Drivers/lvgl/src/widgets/../core/lv_obj_style_gen.h **** static inline lv_color_t lv_obj_get_style_arc_color_filtered(const struct _lv_obj_t * obj, uint32_t
 428:Drivers/lvgl/src/widgets/../core/lv_obj_style_gen.h **** {
 429:Drivers/lvgl/src/widgets/../core/lv_obj_style_gen.h ****     lv_style_value_t v = _lv_obj_style_apply_color_filter(obj, part, lv_obj_get_style_prop(obj, par
 430:Drivers/lvgl/src/widgets/../core/lv_obj_style_gen.h ****     return v.color;
 431:Drivers/lvgl/src/widgets/../core/lv_obj_style_gen.h **** }
 432:Drivers/lvgl/src/widgets/../core/lv_obj_style_gen.h **** 
 433:Drivers/lvgl/src/widgets/../core/lv_obj_style_gen.h **** static inline lv_opa_t lv_obj_get_style_arc_opa(const struct _lv_obj_t * obj, uint32_t part)
 434:Drivers/lvgl/src/widgets/../core/lv_obj_style_gen.h **** {
 435:Drivers/lvgl/src/widgets/../core/lv_obj_style_gen.h ****     lv_style_value_t v = lv_obj_get_style_prop(obj, part, LV_STYLE_ARC_OPA);
 436:Drivers/lvgl/src/widgets/../core/lv_obj_style_gen.h ****     return (lv_opa_t)v.num;
 437:Drivers/lvgl/src/widgets/../core/lv_obj_style_gen.h **** }
 438:Drivers/lvgl/src/widgets/../core/lv_obj_style_gen.h **** 
 439:Drivers/lvgl/src/widgets/../core/lv_obj_style_gen.h **** static inline const void * lv_obj_get_style_arc_img_src(const struct _lv_obj_t * obj, uint32_t part
 440:Drivers/lvgl/src/widgets/../core/lv_obj_style_gen.h **** {
 441:Drivers/lvgl/src/widgets/../core/lv_obj_style_gen.h ****     lv_style_value_t v = lv_obj_get_style_prop(obj, part, LV_STYLE_ARC_IMG_SRC);
 442:Drivers/lvgl/src/widgets/../core/lv_obj_style_gen.h ****     return (const void *)v.ptr;
 443:Drivers/lvgl/src/widgets/../core/lv_obj_style_gen.h **** }
 444:Drivers/lvgl/src/widgets/../core/lv_obj_style_gen.h **** 
 445:Drivers/lvgl/src/widgets/../core/lv_obj_style_gen.h **** static inline lv_color_t lv_obj_get_style_text_color(const struct _lv_obj_t * obj, uint32_t part)
 446:Drivers/lvgl/src/widgets/../core/lv_obj_style_gen.h **** {
 447:Drivers/lvgl/src/widgets/../core/lv_obj_style_gen.h ****     lv_style_value_t v = lv_obj_get_style_prop(obj, part, LV_STYLE_TEXT_COLOR);
 448:Drivers/lvgl/src/widgets/../core/lv_obj_style_gen.h ****     return v.color;
 449:Drivers/lvgl/src/widgets/../core/lv_obj_style_gen.h **** }
ARM GAS  /var/folders/0z/tsy30v1j4xl4_7kw94k978ww0000gn/T//ccS0VXUs.s 			page 35


 450:Drivers/lvgl/src/widgets/../core/lv_obj_style_gen.h **** 
 451:Drivers/lvgl/src/widgets/../core/lv_obj_style_gen.h **** static inline lv_color_t lv_obj_get_style_text_color_filtered(const struct _lv_obj_t * obj, uint32_
 452:Drivers/lvgl/src/widgets/../core/lv_obj_style_gen.h **** {
 453:Drivers/lvgl/src/widgets/../core/lv_obj_style_gen.h ****     lv_style_value_t v = _lv_obj_style_apply_color_filter(obj, part, lv_obj_get_style_prop(obj, par
 454:Drivers/lvgl/src/widgets/../core/lv_obj_style_gen.h ****     return v.color;
 455:Drivers/lvgl/src/widgets/../core/lv_obj_style_gen.h **** }
 456:Drivers/lvgl/src/widgets/../core/lv_obj_style_gen.h **** 
 457:Drivers/lvgl/src/widgets/../core/lv_obj_style_gen.h **** static inline lv_opa_t lv_obj_get_style_text_opa(const struct _lv_obj_t * obj, uint32_t part)
 458:Drivers/lvgl/src/widgets/../core/lv_obj_style_gen.h **** {
 459:Drivers/lvgl/src/widgets/../core/lv_obj_style_gen.h ****     lv_style_value_t v = lv_obj_get_style_prop(obj, part, LV_STYLE_TEXT_OPA);
 460:Drivers/lvgl/src/widgets/../core/lv_obj_style_gen.h ****     return (lv_opa_t)v.num;
 461:Drivers/lvgl/src/widgets/../core/lv_obj_style_gen.h **** }
 462:Drivers/lvgl/src/widgets/../core/lv_obj_style_gen.h **** 
 463:Drivers/lvgl/src/widgets/../core/lv_obj_style_gen.h **** static inline const lv_font_t * lv_obj_get_style_text_font(const struct _lv_obj_t * obj, uint32_t p
 464:Drivers/lvgl/src/widgets/../core/lv_obj_style_gen.h **** {
 465:Drivers/lvgl/src/widgets/../core/lv_obj_style_gen.h ****     lv_style_value_t v = lv_obj_get_style_prop(obj, part, LV_STYLE_TEXT_FONT);
 466:Drivers/lvgl/src/widgets/../core/lv_obj_style_gen.h ****     return (const lv_font_t *)v.ptr;
 467:Drivers/lvgl/src/widgets/../core/lv_obj_style_gen.h **** }
 468:Drivers/lvgl/src/widgets/../core/lv_obj_style_gen.h **** 
 469:Drivers/lvgl/src/widgets/../core/lv_obj_style_gen.h **** static inline lv_coord_t lv_obj_get_style_text_letter_space(const struct _lv_obj_t * obj, uint32_t 
 470:Drivers/lvgl/src/widgets/../core/lv_obj_style_gen.h **** {
 471:Drivers/lvgl/src/widgets/../core/lv_obj_style_gen.h ****     lv_style_value_t v = lv_obj_get_style_prop(obj, part, LV_STYLE_TEXT_LETTER_SPACE);
 472:Drivers/lvgl/src/widgets/../core/lv_obj_style_gen.h ****     return (lv_coord_t)v.num;
 473:Drivers/lvgl/src/widgets/../core/lv_obj_style_gen.h **** }
 474:Drivers/lvgl/src/widgets/../core/lv_obj_style_gen.h **** 
 475:Drivers/lvgl/src/widgets/../core/lv_obj_style_gen.h **** static inline lv_coord_t lv_obj_get_style_text_line_space(const struct _lv_obj_t * obj, uint32_t pa
 476:Drivers/lvgl/src/widgets/../core/lv_obj_style_gen.h **** {
 477:Drivers/lvgl/src/widgets/../core/lv_obj_style_gen.h ****     lv_style_value_t v = lv_obj_get_style_prop(obj, part, LV_STYLE_TEXT_LINE_SPACE);
 478:Drivers/lvgl/src/widgets/../core/lv_obj_style_gen.h ****     return (lv_coord_t)v.num;
 479:Drivers/lvgl/src/widgets/../core/lv_obj_style_gen.h **** }
 480:Drivers/lvgl/src/widgets/../core/lv_obj_style_gen.h **** 
 481:Drivers/lvgl/src/widgets/../core/lv_obj_style_gen.h **** static inline lv_text_decor_t lv_obj_get_style_text_decor(const struct _lv_obj_t * obj, uint32_t pa
 482:Drivers/lvgl/src/widgets/../core/lv_obj_style_gen.h **** {
 483:Drivers/lvgl/src/widgets/../core/lv_obj_style_gen.h ****     lv_style_value_t v = lv_obj_get_style_prop(obj, part, LV_STYLE_TEXT_DECOR);
 484:Drivers/lvgl/src/widgets/../core/lv_obj_style_gen.h ****     return (lv_text_decor_t)v.num;
 485:Drivers/lvgl/src/widgets/../core/lv_obj_style_gen.h **** }
 486:Drivers/lvgl/src/widgets/../core/lv_obj_style_gen.h **** 
 487:Drivers/lvgl/src/widgets/../core/lv_obj_style_gen.h **** static inline lv_text_align_t lv_obj_get_style_text_align(const struct _lv_obj_t * obj, uint32_t pa
 488:Drivers/lvgl/src/widgets/../core/lv_obj_style_gen.h **** {
 489:Drivers/lvgl/src/widgets/../core/lv_obj_style_gen.h ****     lv_style_value_t v = lv_obj_get_style_prop(obj, part, LV_STYLE_TEXT_ALIGN);
 490:Drivers/lvgl/src/widgets/../core/lv_obj_style_gen.h ****     return (lv_text_align_t)v.num;
 491:Drivers/lvgl/src/widgets/../core/lv_obj_style_gen.h **** }
 492:Drivers/lvgl/src/widgets/../core/lv_obj_style_gen.h **** 
 493:Drivers/lvgl/src/widgets/../core/lv_obj_style_gen.h **** static inline lv_coord_t lv_obj_get_style_radius(const struct _lv_obj_t * obj, uint32_t part)
 494:Drivers/lvgl/src/widgets/../core/lv_obj_style_gen.h **** {
 495:Drivers/lvgl/src/widgets/../core/lv_obj_style_gen.h ****     lv_style_value_t v = lv_obj_get_style_prop(obj, part, LV_STYLE_RADIUS);
 496:Drivers/lvgl/src/widgets/../core/lv_obj_style_gen.h ****     return (lv_coord_t)v.num;
 497:Drivers/lvgl/src/widgets/../core/lv_obj_style_gen.h **** }
 498:Drivers/lvgl/src/widgets/../core/lv_obj_style_gen.h **** 
 499:Drivers/lvgl/src/widgets/../core/lv_obj_style_gen.h **** static inline bool lv_obj_get_style_clip_corner(const struct _lv_obj_t * obj, uint32_t part)
 500:Drivers/lvgl/src/widgets/../core/lv_obj_style_gen.h **** {
 501:Drivers/lvgl/src/widgets/../core/lv_obj_style_gen.h ****     lv_style_value_t v = lv_obj_get_style_prop(obj, part, LV_STYLE_CLIP_CORNER);
 502:Drivers/lvgl/src/widgets/../core/lv_obj_style_gen.h ****     return (bool)v.num;
 503:Drivers/lvgl/src/widgets/../core/lv_obj_style_gen.h **** }
 504:Drivers/lvgl/src/widgets/../core/lv_obj_style_gen.h **** 
 505:Drivers/lvgl/src/widgets/../core/lv_obj_style_gen.h **** static inline lv_opa_t lv_obj_get_style_opa(const struct _lv_obj_t * obj, uint32_t part)
 506:Drivers/lvgl/src/widgets/../core/lv_obj_style_gen.h **** {
ARM GAS  /var/folders/0z/tsy30v1j4xl4_7kw94k978ww0000gn/T//ccS0VXUs.s 			page 36


 507:Drivers/lvgl/src/widgets/../core/lv_obj_style_gen.h ****     lv_style_value_t v = lv_obj_get_style_prop(obj, part, LV_STYLE_OPA);
 508:Drivers/lvgl/src/widgets/../core/lv_obj_style_gen.h ****     return (lv_opa_t)v.num;
 509:Drivers/lvgl/src/widgets/../core/lv_obj_style_gen.h **** }
 510:Drivers/lvgl/src/widgets/../core/lv_obj_style_gen.h **** 
 511:Drivers/lvgl/src/widgets/../core/lv_obj_style_gen.h **** static inline lv_opa_t lv_obj_get_style_opa_layered(const struct _lv_obj_t * obj, uint32_t part)
 512:Drivers/lvgl/src/widgets/../core/lv_obj_style_gen.h **** {
 513:Drivers/lvgl/src/widgets/../core/lv_obj_style_gen.h ****     lv_style_value_t v = lv_obj_get_style_prop(obj, part, LV_STYLE_OPA_LAYERED);
 514:Drivers/lvgl/src/widgets/../core/lv_obj_style_gen.h ****     return (lv_opa_t)v.num;
 515:Drivers/lvgl/src/widgets/../core/lv_obj_style_gen.h **** }
 516:Drivers/lvgl/src/widgets/../core/lv_obj_style_gen.h **** 
 517:Drivers/lvgl/src/widgets/../core/lv_obj_style_gen.h **** static inline const lv_color_filter_dsc_t * lv_obj_get_style_color_filter_dsc(const struct _lv_obj_
 518:Drivers/lvgl/src/widgets/../core/lv_obj_style_gen.h **** {
 519:Drivers/lvgl/src/widgets/../core/lv_obj_style_gen.h ****     lv_style_value_t v = lv_obj_get_style_prop(obj, part, LV_STYLE_COLOR_FILTER_DSC);
 520:Drivers/lvgl/src/widgets/../core/lv_obj_style_gen.h ****     return (const lv_color_filter_dsc_t *)v.ptr;
 521:Drivers/lvgl/src/widgets/../core/lv_obj_style_gen.h **** }
 522:Drivers/lvgl/src/widgets/../core/lv_obj_style_gen.h **** 
 523:Drivers/lvgl/src/widgets/../core/lv_obj_style_gen.h **** static inline lv_opa_t lv_obj_get_style_color_filter_opa(const struct _lv_obj_t * obj, uint32_t par
 524:Drivers/lvgl/src/widgets/../core/lv_obj_style_gen.h **** {
 525:Drivers/lvgl/src/widgets/../core/lv_obj_style_gen.h ****     lv_style_value_t v = lv_obj_get_style_prop(obj, part, LV_STYLE_COLOR_FILTER_OPA);
 526:Drivers/lvgl/src/widgets/../core/lv_obj_style_gen.h ****     return (lv_opa_t)v.num;
 527:Drivers/lvgl/src/widgets/../core/lv_obj_style_gen.h **** }
 528:Drivers/lvgl/src/widgets/../core/lv_obj_style_gen.h **** 
 529:Drivers/lvgl/src/widgets/../core/lv_obj_style_gen.h **** static inline const lv_anim_t * lv_obj_get_style_anim(const struct _lv_obj_t * obj, uint32_t part)
 530:Drivers/lvgl/src/widgets/../core/lv_obj_style_gen.h **** {
 531:Drivers/lvgl/src/widgets/../core/lv_obj_style_gen.h ****     lv_style_value_t v = lv_obj_get_style_prop(obj, part, LV_STYLE_ANIM);
 532:Drivers/lvgl/src/widgets/../core/lv_obj_style_gen.h ****     return (const lv_anim_t *)v.ptr;
 533:Drivers/lvgl/src/widgets/../core/lv_obj_style_gen.h **** }
 534:Drivers/lvgl/src/widgets/../core/lv_obj_style_gen.h **** 
 535:Drivers/lvgl/src/widgets/../core/lv_obj_style_gen.h **** static inline uint32_t lv_obj_get_style_anim_time(const struct _lv_obj_t * obj, uint32_t part)
 536:Drivers/lvgl/src/widgets/../core/lv_obj_style_gen.h **** {
 537:Drivers/lvgl/src/widgets/../core/lv_obj_style_gen.h ****     lv_style_value_t v = lv_obj_get_style_prop(obj, part, LV_STYLE_ANIM_TIME);
 538:Drivers/lvgl/src/widgets/../core/lv_obj_style_gen.h ****     return (uint32_t)v.num;
 539:Drivers/lvgl/src/widgets/../core/lv_obj_style_gen.h **** }
 540:Drivers/lvgl/src/widgets/../core/lv_obj_style_gen.h **** 
 541:Drivers/lvgl/src/widgets/../core/lv_obj_style_gen.h **** static inline uint32_t lv_obj_get_style_anim_speed(const struct _lv_obj_t * obj, uint32_t part)
 542:Drivers/lvgl/src/widgets/../core/lv_obj_style_gen.h **** {
 543:Drivers/lvgl/src/widgets/../core/lv_obj_style_gen.h ****     lv_style_value_t v = lv_obj_get_style_prop(obj, part, LV_STYLE_ANIM_SPEED);
 544:Drivers/lvgl/src/widgets/../core/lv_obj_style_gen.h ****     return (uint32_t)v.num;
 545:Drivers/lvgl/src/widgets/../core/lv_obj_style_gen.h **** }
 546:Drivers/lvgl/src/widgets/../core/lv_obj_style_gen.h **** 
 547:Drivers/lvgl/src/widgets/../core/lv_obj_style_gen.h **** static inline const lv_style_transition_dsc_t * lv_obj_get_style_transition(const struct _lv_obj_t 
 548:Drivers/lvgl/src/widgets/../core/lv_obj_style_gen.h **** {
 549:Drivers/lvgl/src/widgets/../core/lv_obj_style_gen.h ****     lv_style_value_t v = lv_obj_get_style_prop(obj, part, LV_STYLE_TRANSITION);
 550:Drivers/lvgl/src/widgets/../core/lv_obj_style_gen.h ****     return (const lv_style_transition_dsc_t *)v.ptr;
 551:Drivers/lvgl/src/widgets/../core/lv_obj_style_gen.h **** }
 552:Drivers/lvgl/src/widgets/../core/lv_obj_style_gen.h **** 
 553:Drivers/lvgl/src/widgets/../core/lv_obj_style_gen.h **** static inline lv_blend_mode_t lv_obj_get_style_blend_mode(const struct _lv_obj_t * obj, uint32_t pa
 554:Drivers/lvgl/src/widgets/../core/lv_obj_style_gen.h **** {
 555:Drivers/lvgl/src/widgets/../core/lv_obj_style_gen.h ****     lv_style_value_t v = lv_obj_get_style_prop(obj, part, LV_STYLE_BLEND_MODE);
 556:Drivers/lvgl/src/widgets/../core/lv_obj_style_gen.h ****     return (lv_blend_mode_t)v.num;
 557:Drivers/lvgl/src/widgets/../core/lv_obj_style_gen.h **** }
 558:Drivers/lvgl/src/widgets/../core/lv_obj_style_gen.h **** 
 559:Drivers/lvgl/src/widgets/../core/lv_obj_style_gen.h **** static inline uint16_t lv_obj_get_style_layout(const struct _lv_obj_t * obj, uint32_t part)
 560:Drivers/lvgl/src/widgets/../core/lv_obj_style_gen.h **** {
 561:Drivers/lvgl/src/widgets/../core/lv_obj_style_gen.h ****     lv_style_value_t v = lv_obj_get_style_prop(obj, part, LV_STYLE_LAYOUT);
 562:Drivers/lvgl/src/widgets/../core/lv_obj_style_gen.h ****     return (uint16_t)v.num;
 563:Drivers/lvgl/src/widgets/../core/lv_obj_style_gen.h **** }
ARM GAS  /var/folders/0z/tsy30v1j4xl4_7kw94k978ww0000gn/T//ccS0VXUs.s 			page 37


 564:Drivers/lvgl/src/widgets/../core/lv_obj_style_gen.h **** 
 565:Drivers/lvgl/src/widgets/../core/lv_obj_style_gen.h **** static inline lv_base_dir_t lv_obj_get_style_base_dir(const struct _lv_obj_t * obj, uint32_t part)
 723              		.loc 2 565 29 view .LVU212
 724              	.LBB278:
 566:Drivers/lvgl/src/widgets/../core/lv_obj_style_gen.h **** {
 567:Drivers/lvgl/src/widgets/../core/lv_obj_style_gen.h ****     lv_style_value_t v = lv_obj_get_style_prop(obj, part, LV_STYLE_BASE_DIR);
 725              		.loc 2 567 5 view .LVU213
 726              		.loc 2 567 26 is_stmt 0 view .LVU214
 727 0150 1622     		movs	r2, #22
 728 0152 0021     		movs	r1, #0
 729 0154 2846     		mov	r0, r5
 730 0156 FFF7FEFF 		bl	lv_obj_get_style_prop
 731              	.LVL69:
 568:Drivers/lvgl/src/widgets/../core/lv_obj_style_gen.h ****     return (lv_base_dir_t)v.num;
 732              		.loc 2 568 5 is_stmt 1 view .LVU215
 733              		.loc 2 568 12 is_stmt 0 view .LVU216
 734 015a C3B2     		uxtb	r3, r0
 735              	.LVL70:
 736              		.loc 2 568 12 view .LVU217
 737              	.LBE278:
 738              	.LBE277:
 207:Drivers/lvgl/src/widgets/lv_slider.c ****                 /*Make the point relative to the indicator*/
 739              		.loc 1 207 15 view .LVU218
 740 015c 012B     		cmp	r3, #1
 741 015e 00F00283 		beq	.L127
 213:Drivers/lvgl/src/widgets/lv_slider.c ****             }
 742              		.loc 1 213 17 is_stmt 1 view .LVU219
 213:Drivers/lvgl/src/widgets/lv_slider.c ****             }
 743              		.loc 1 213 47 is_stmt 0 view .LVU220
 744 0162 B5F91430 		ldrsh	r3, [r5, #20]
 213:Drivers/lvgl/src/widgets/lv_slider.c ****             }
 745              		.loc 1 213 30 view .LVU221
 746 0166 BDF98020 		ldrsh	r2, [sp, #128]
 213:Drivers/lvgl/src/widgets/lv_slider.c ****             }
 747              		.loc 1 213 51 view .LVU222
 748 016a 03FA87F7 		sxtah	r7, r3, r7
 749              	.LVL71:
 213:Drivers/lvgl/src/widgets/lv_slider.c ****             }
 750              		.loc 1 213 27 view .LVU223
 751 016e D21B     		subs	r2, r2, r7
 752              	.LVL72:
 753              	.L41:
 215:Drivers/lvgl/src/widgets/lv_slider.c ****             new_value += slider->bar.min_value;
 754              		.loc 1 215 13 is_stmt 1 view .LVU224
 216:Drivers/lvgl/src/widgets/lv_slider.c ****         }
 755              		.loc 1 216 37 is_stmt 0 view .LVU225
 756 0170 A86A     		ldr	r0, [r5, #40]
 215:Drivers/lvgl/src/widgets/lv_slider.c ****             new_value += slider->bar.min_value;
 757              		.loc 1 215 54 view .LVU226
 758 0172 06EBD673 		add	r3, r6, r6, lsr #31
 759 0176 5B10     		asrs	r3, r3, #1
 215:Drivers/lvgl/src/widgets/lv_slider.c ****             new_value += slider->bar.min_value;
 760              		.loc 1 215 44 view .LVU227
 761 0178 02FB0433 		mla	r3, r2, r4, r3
 215:Drivers/lvgl/src/widgets/lv_slider.c ****             new_value += slider->bar.min_value;
 762              		.loc 1 215 23 view .LVU228
 763 017c 93FBF6F3 		sdiv	r3, r3, r6
ARM GAS  /var/folders/0z/tsy30v1j4xl4_7kw94k978ww0000gn/T//ccS0VXUs.s 			page 38


 764              	.LVL73:
 216:Drivers/lvgl/src/widgets/lv_slider.c ****         }
 765              		.loc 1 216 13 is_stmt 1 view .LVU229
 216:Drivers/lvgl/src/widgets/lv_slider.c ****         }
 766              		.loc 1 216 23 is_stmt 0 view .LVU230
 767 0180 0344     		add	r3, r3, r0
 768              	.LVL74:
 769              	.L42:
 216:Drivers/lvgl/src/widgets/lv_slider.c ****         }
 770              		.loc 1 216 23 view .LVU231
 771              	.LBE268:
 230:Drivers/lvgl/src/widgets/lv_slider.c ****         int32_t real_min_value = slider->bar.min_value;
 772              		.loc 1 230 9 is_stmt 1 view .LVU232
 233:Drivers/lvgl/src/widgets/lv_slider.c ****             real_max_value = slider->bar.cur_value;
 773              		.loc 1 233 18 is_stmt 0 view .LVU233
 774 0182 2C6F     		ldr	r4, [r5, #112]
 775              	.LVL75:
 230:Drivers/lvgl/src/widgets/lv_slider.c ****         int32_t real_min_value = slider->bar.min_value;
 776              		.loc 1 230 17 view .LVU234
 777 0184 E96A     		ldr	r1, [r5, #44]
 778              	.LVL76:
 231:Drivers/lvgl/src/widgets/lv_slider.c ****         /*Figure out the min. and max. for this mode*/
 779              		.loc 1 231 9 is_stmt 1 view .LVU235
 233:Drivers/lvgl/src/widgets/lv_slider.c ****             real_max_value = slider->bar.cur_value;
 780              		.loc 1 233 9 view .LVU236
 233:Drivers/lvgl/src/widgets/lv_slider.c ****             real_max_value = slider->bar.cur_value;
 781              		.loc 1 233 36 is_stmt 0 view .LVU237
 782 0186 05F13002 		add	r2, r5, #48
 233:Drivers/lvgl/src/widgets/lv_slider.c ****             real_max_value = slider->bar.cur_value;
 783              		.loc 1 233 11 view .LVU238
 784 018a 9442     		cmp	r4, r2
 785 018c 00F0CA82 		beq	.L128
 237:Drivers/lvgl/src/widgets/lv_slider.c ****         }
 786              		.loc 1 237 13 is_stmt 1 view .LVU239
 787              	.LVL77:
 240:Drivers/lvgl/src/widgets/lv_slider.c ****         if(*slider->value_to_set != new_value) {
 788              		.loc 1 240 9 view .LVU240
 240:Drivers/lvgl/src/widgets/lv_slider.c ****         if(*slider->value_to_set != new_value) {
 789              		.loc 1 240 21 is_stmt 0 view .LVU241
 790 0190 9942     		cmp	r1, r3
 240:Drivers/lvgl/src/widgets/lv_slider.c ****         if(*slider->value_to_set != new_value) {
 791              		.loc 1 240 19 view .LVU242
 792 0192 2A6B     		ldr	r2, [r5, #48]
 793              	.LVL78:
 240:Drivers/lvgl/src/widgets/lv_slider.c ****         if(*slider->value_to_set != new_value) {
 794              		.loc 1 240 21 view .LVU243
 795 0194 A8BF     		it	ge
 796 0196 1946     		movge	r1, r3
 797              	.LVL79:
 240:Drivers/lvgl/src/widgets/lv_slider.c ****         if(*slider->value_to_set != new_value) {
 798              		.loc 1 240 19 view .LVU244
 799 0198 9142     		cmp	r1, r2
 241:Drivers/lvgl/src/widgets/lv_slider.c ****             if(slider->value_to_set == &slider->bar.start_value) {
 800              		.loc 1 241 11 view .LVU245
 801 019a 2368     		ldr	r3, [r4]
 802              	.LVL80:
 240:Drivers/lvgl/src/widgets/lv_slider.c ****         if(*slider->value_to_set != new_value) {
ARM GAS  /var/folders/0z/tsy30v1j4xl4_7kw94k978ww0000gn/T//ccS0VXUs.s 			page 39


 803              		.loc 1 240 19 view .LVU246
 804 019c B8BF     		it	lt
 805 019e 1146     		movlt	r1, r2
 806              	.LVL81:
 241:Drivers/lvgl/src/widgets/lv_slider.c ****             if(slider->value_to_set == &slider->bar.start_value) {
 807              		.loc 1 241 9 is_stmt 1 view .LVU247
 241:Drivers/lvgl/src/widgets/lv_slider.c ****             if(slider->value_to_set == &slider->bar.start_value) {
 808              		.loc 1 241 11 is_stmt 0 view .LVU248
 809 01a0 9942     		cmp	r1, r3
 810 01a2 3FF436AF 		beq	.L13
 242:Drivers/lvgl/src/widgets/lv_slider.c ****                 lv_bar_set_start_value(obj, new_value, LV_ANIM_ON);
 811              		.loc 1 242 13 is_stmt 1 view .LVU249
 246:Drivers/lvgl/src/widgets/lv_slider.c ****             }
 812              		.loc 1 246 17 view .LVU250
 813 01a6 0122     		movs	r2, #1
 814              	.LVL82:
 246:Drivers/lvgl/src/widgets/lv_slider.c ****             }
 815              		.loc 1 246 17 is_stmt 0 view .LVU251
 816 01a8 2846     		mov	r0, r5
 817 01aa FFF7FEFF 		bl	lv_bar_set_value
 818              	.LVL83:
 819              	.L47:
 248:Drivers/lvgl/src/widgets/lv_slider.c ****             if(res != LV_RES_OK) return;
 820              		.loc 1 248 13 is_stmt 1 view .LVU252
 248:Drivers/lvgl/src/widgets/lv_slider.c ****             if(res != LV_RES_OK) return;
 821              		.loc 1 248 19 is_stmt 0 view .LVU253
 822 01ae 0022     		movs	r2, #0
 823 01b0 1C21     		movs	r1, #28
 824 01b2 2846     		mov	r0, r5
 825 01b4 FFF7FEFF 		bl	lv_event_send
 826              	.LVL84:
 249:Drivers/lvgl/src/widgets/lv_slider.c ****         }
 827              		.loc 1 249 13 is_stmt 1 view .LVU254
 828 01b8 2BE7     		b	.L13
 829              	.LVL85:
 830              	.L124:
 249:Drivers/lvgl/src/widgets/lv_slider.c ****         }
 831              		.loc 1 249 13 is_stmt 0 view .LVU255
 832              	.LBE263:
 111:Drivers/lvgl/src/widgets/lv_slider.c ****         lv_hit_test_info_t * info = lv_event_get_param(e);
 833              		.loc 1 111 5 is_stmt 1 view .LVU256
 111:Drivers/lvgl/src/widgets/lv_slider.c ****         lv_hit_test_info_t * info = lv_event_get_param(e);
 834              		.loc 1 111 7 is_stmt 0 view .LVU257
 835 01ba 112C     		cmp	r4, #17
 836 01bc 7FF440AF 		bne	.L119
 837              	.LVL86:
 838              	.L17:
 839              	.LBB289:
 112:Drivers/lvgl/src/widgets/lv_slider.c ****         lv_coord_t ext_click_area = obj->spec_attr ? obj->spec_attr->ext_click_pad : 0;
 840              		.loc 1 112 9 is_stmt 1 view .LVU258
 112:Drivers/lvgl/src/widgets/lv_slider.c ****         lv_coord_t ext_click_area = obj->spec_attr ? obj->spec_attr->ext_click_pad : 0;
 841              		.loc 1 112 37 is_stmt 0 view .LVU259
 842 01c0 3046     		mov	r0, r6
 843 01c2 FFF7FEFF 		bl	lv_event_get_param
 844              	.LVL87:
 113:Drivers/lvgl/src/widgets/lv_slider.c **** 
 845              		.loc 1 113 40 view .LVU260
ARM GAS  /var/folders/0z/tsy30v1j4xl4_7kw94k978ww0000gn/T//ccS0VXUs.s 			page 40


 846 01c6 AC68     		ldr	r4, [r5, #8]
 847              	.LVL88:
 112:Drivers/lvgl/src/widgets/lv_slider.c ****         lv_coord_t ext_click_area = obj->spec_attr ? obj->spec_attr->ext_click_pad : 0;
 848              		.loc 1 112 37 view .LVU261
 849 01c8 8046     		mov	r8, r0
 850              	.LVL89:
 113:Drivers/lvgl/src/widgets/lv_slider.c **** 
 851              		.loc 1 113 9 is_stmt 1 view .LVU262
 113:Drivers/lvgl/src/widgets/lv_slider.c **** 
 852              		.loc 1 113 20 is_stmt 0 view .LVU263
 853 01ca 0CB1     		cbz	r4, .L23
 854 01cc B4F91440 		ldrsh	r4, [r4, #20]
 855              	.L23:
 856              	.LVL90:
 116:Drivers/lvgl/src/widgets/lv_slider.c ****         lv_area_copy(&a, &slider->right_knob_area);
 857              		.loc 1 116 9 is_stmt 1 view .LVU264
 117:Drivers/lvgl/src/widgets/lv_slider.c ****         lv_area_increase(&a, ext_click_area, ext_click_area);
 858              		.loc 1 117 9 view .LVU265
 859              	.LBB290:
 860              	.LBI290:
 861              		.file 4 "Drivers/lvgl/src/widgets/../core/../misc/../font/../misc/lv_area.h"
   1:Drivers/lvgl/src/widgets/../core/../misc/../font/../misc/lv_area.h **** /**
   2:Drivers/lvgl/src/widgets/../core/../misc/../font/../misc/lv_area.h ****  * @file lv_area.h
   3:Drivers/lvgl/src/widgets/../core/../misc/../font/../misc/lv_area.h ****  *
   4:Drivers/lvgl/src/widgets/../core/../misc/../font/../misc/lv_area.h ****  */
   5:Drivers/lvgl/src/widgets/../core/../misc/../font/../misc/lv_area.h **** 
   6:Drivers/lvgl/src/widgets/../core/../misc/../font/../misc/lv_area.h **** #ifndef LV_AREA_H
   7:Drivers/lvgl/src/widgets/../core/../misc/../font/../misc/lv_area.h **** #define LV_AREA_H
   8:Drivers/lvgl/src/widgets/../core/../misc/../font/../misc/lv_area.h **** 
   9:Drivers/lvgl/src/widgets/../core/../misc/../font/../misc/lv_area.h **** #ifdef __cplusplus
  10:Drivers/lvgl/src/widgets/../core/../misc/../font/../misc/lv_area.h **** extern "C" {
  11:Drivers/lvgl/src/widgets/../core/../misc/../font/../misc/lv_area.h **** #endif
  12:Drivers/lvgl/src/widgets/../core/../misc/../font/../misc/lv_area.h **** 
  13:Drivers/lvgl/src/widgets/../core/../misc/../font/../misc/lv_area.h **** /*********************
  14:Drivers/lvgl/src/widgets/../core/../misc/../font/../misc/lv_area.h ****  *      INCLUDES
  15:Drivers/lvgl/src/widgets/../core/../misc/../font/../misc/lv_area.h ****  *********************/
  16:Drivers/lvgl/src/widgets/../core/../misc/../font/../misc/lv_area.h **** #include "../lv_conf_internal.h"
  17:Drivers/lvgl/src/widgets/../core/../misc/../font/../misc/lv_area.h **** #include <stdbool.h>
  18:Drivers/lvgl/src/widgets/../core/../misc/../font/../misc/lv_area.h **** #include <stdint.h>
  19:Drivers/lvgl/src/widgets/../core/../misc/../font/../misc/lv_area.h **** 
  20:Drivers/lvgl/src/widgets/../core/../misc/../font/../misc/lv_area.h **** /*********************
  21:Drivers/lvgl/src/widgets/../core/../misc/../font/../misc/lv_area.h ****  *      DEFINES
  22:Drivers/lvgl/src/widgets/../core/../misc/../font/../misc/lv_area.h ****  *********************/
  23:Drivers/lvgl/src/widgets/../core/../misc/../font/../misc/lv_area.h **** 
  24:Drivers/lvgl/src/widgets/../core/../misc/../font/../misc/lv_area.h **** #if LV_USE_LARGE_COORD
  25:Drivers/lvgl/src/widgets/../core/../misc/../font/../misc/lv_area.h **** typedef int32_t lv_coord_t;
  26:Drivers/lvgl/src/widgets/../core/../misc/../font/../misc/lv_area.h **** #else
  27:Drivers/lvgl/src/widgets/../core/../misc/../font/../misc/lv_area.h **** typedef int16_t lv_coord_t;
  28:Drivers/lvgl/src/widgets/../core/../misc/../font/../misc/lv_area.h **** #endif
  29:Drivers/lvgl/src/widgets/../core/../misc/../font/../misc/lv_area.h **** 
  30:Drivers/lvgl/src/widgets/../core/../misc/../font/../misc/lv_area.h **** /**********************
  31:Drivers/lvgl/src/widgets/../core/../misc/../font/../misc/lv_area.h ****  *      TYPEDEFS
  32:Drivers/lvgl/src/widgets/../core/../misc/../font/../misc/lv_area.h ****  **********************/
  33:Drivers/lvgl/src/widgets/../core/../misc/../font/../misc/lv_area.h **** 
  34:Drivers/lvgl/src/widgets/../core/../misc/../font/../misc/lv_area.h **** /**
  35:Drivers/lvgl/src/widgets/../core/../misc/../font/../misc/lv_area.h ****  * Represents a point on the screen.
  36:Drivers/lvgl/src/widgets/../core/../misc/../font/../misc/lv_area.h ****  */
ARM GAS  /var/folders/0z/tsy30v1j4xl4_7kw94k978ww0000gn/T//ccS0VXUs.s 			page 41


  37:Drivers/lvgl/src/widgets/../core/../misc/../font/../misc/lv_area.h **** typedef struct {
  38:Drivers/lvgl/src/widgets/../core/../misc/../font/../misc/lv_area.h ****     lv_coord_t x;
  39:Drivers/lvgl/src/widgets/../core/../misc/../font/../misc/lv_area.h ****     lv_coord_t y;
  40:Drivers/lvgl/src/widgets/../core/../misc/../font/../misc/lv_area.h **** } lv_point_t;
  41:Drivers/lvgl/src/widgets/../core/../misc/../font/../misc/lv_area.h **** 
  42:Drivers/lvgl/src/widgets/../core/../misc/../font/../misc/lv_area.h **** /** Represents an area of the screen.*/
  43:Drivers/lvgl/src/widgets/../core/../misc/../font/../misc/lv_area.h **** typedef struct {
  44:Drivers/lvgl/src/widgets/../core/../misc/../font/../misc/lv_area.h ****     lv_coord_t x1;
  45:Drivers/lvgl/src/widgets/../core/../misc/../font/../misc/lv_area.h ****     lv_coord_t y1;
  46:Drivers/lvgl/src/widgets/../core/../misc/../font/../misc/lv_area.h ****     lv_coord_t x2;
  47:Drivers/lvgl/src/widgets/../core/../misc/../font/../misc/lv_area.h ****     lv_coord_t y2;
  48:Drivers/lvgl/src/widgets/../core/../misc/../font/../misc/lv_area.h **** } lv_area_t;
  49:Drivers/lvgl/src/widgets/../core/../misc/../font/../misc/lv_area.h **** 
  50:Drivers/lvgl/src/widgets/../core/../misc/../font/../misc/lv_area.h **** /** Alignments*/
  51:Drivers/lvgl/src/widgets/../core/../misc/../font/../misc/lv_area.h **** enum {
  52:Drivers/lvgl/src/widgets/../core/../misc/../font/../misc/lv_area.h ****     LV_ALIGN_DEFAULT = 0,
  53:Drivers/lvgl/src/widgets/../core/../misc/../font/../misc/lv_area.h ****     LV_ALIGN_TOP_LEFT,
  54:Drivers/lvgl/src/widgets/../core/../misc/../font/../misc/lv_area.h ****     LV_ALIGN_TOP_MID,
  55:Drivers/lvgl/src/widgets/../core/../misc/../font/../misc/lv_area.h ****     LV_ALIGN_TOP_RIGHT,
  56:Drivers/lvgl/src/widgets/../core/../misc/../font/../misc/lv_area.h ****     LV_ALIGN_BOTTOM_LEFT,
  57:Drivers/lvgl/src/widgets/../core/../misc/../font/../misc/lv_area.h ****     LV_ALIGN_BOTTOM_MID,
  58:Drivers/lvgl/src/widgets/../core/../misc/../font/../misc/lv_area.h ****     LV_ALIGN_BOTTOM_RIGHT,
  59:Drivers/lvgl/src/widgets/../core/../misc/../font/../misc/lv_area.h ****     LV_ALIGN_LEFT_MID,
  60:Drivers/lvgl/src/widgets/../core/../misc/../font/../misc/lv_area.h ****     LV_ALIGN_RIGHT_MID,
  61:Drivers/lvgl/src/widgets/../core/../misc/../font/../misc/lv_area.h ****     LV_ALIGN_CENTER,
  62:Drivers/lvgl/src/widgets/../core/../misc/../font/../misc/lv_area.h **** 
  63:Drivers/lvgl/src/widgets/../core/../misc/../font/../misc/lv_area.h ****     LV_ALIGN_OUT_TOP_LEFT,
  64:Drivers/lvgl/src/widgets/../core/../misc/../font/../misc/lv_area.h ****     LV_ALIGN_OUT_TOP_MID,
  65:Drivers/lvgl/src/widgets/../core/../misc/../font/../misc/lv_area.h ****     LV_ALIGN_OUT_TOP_RIGHT,
  66:Drivers/lvgl/src/widgets/../core/../misc/../font/../misc/lv_area.h ****     LV_ALIGN_OUT_BOTTOM_LEFT,
  67:Drivers/lvgl/src/widgets/../core/../misc/../font/../misc/lv_area.h ****     LV_ALIGN_OUT_BOTTOM_MID,
  68:Drivers/lvgl/src/widgets/../core/../misc/../font/../misc/lv_area.h ****     LV_ALIGN_OUT_BOTTOM_RIGHT,
  69:Drivers/lvgl/src/widgets/../core/../misc/../font/../misc/lv_area.h ****     LV_ALIGN_OUT_LEFT_TOP,
  70:Drivers/lvgl/src/widgets/../core/../misc/../font/../misc/lv_area.h ****     LV_ALIGN_OUT_LEFT_MID,
  71:Drivers/lvgl/src/widgets/../core/../misc/../font/../misc/lv_area.h ****     LV_ALIGN_OUT_LEFT_BOTTOM,
  72:Drivers/lvgl/src/widgets/../core/../misc/../font/../misc/lv_area.h ****     LV_ALIGN_OUT_RIGHT_TOP,
  73:Drivers/lvgl/src/widgets/../core/../misc/../font/../misc/lv_area.h ****     LV_ALIGN_OUT_RIGHT_MID,
  74:Drivers/lvgl/src/widgets/../core/../misc/../font/../misc/lv_area.h ****     LV_ALIGN_OUT_RIGHT_BOTTOM,
  75:Drivers/lvgl/src/widgets/../core/../misc/../font/../misc/lv_area.h **** };
  76:Drivers/lvgl/src/widgets/../core/../misc/../font/../misc/lv_area.h **** typedef uint8_t lv_align_t;
  77:Drivers/lvgl/src/widgets/../core/../misc/../font/../misc/lv_area.h **** 
  78:Drivers/lvgl/src/widgets/../core/../misc/../font/../misc/lv_area.h **** enum {
  79:Drivers/lvgl/src/widgets/../core/../misc/../font/../misc/lv_area.h ****     LV_DIR_NONE     = 0x00,
  80:Drivers/lvgl/src/widgets/../core/../misc/../font/../misc/lv_area.h ****     LV_DIR_LEFT     = (1 << 0),
  81:Drivers/lvgl/src/widgets/../core/../misc/../font/../misc/lv_area.h ****     LV_DIR_RIGHT    = (1 << 1),
  82:Drivers/lvgl/src/widgets/../core/../misc/../font/../misc/lv_area.h ****     LV_DIR_TOP      = (1 << 2),
  83:Drivers/lvgl/src/widgets/../core/../misc/../font/../misc/lv_area.h ****     LV_DIR_BOTTOM   = (1 << 3),
  84:Drivers/lvgl/src/widgets/../core/../misc/../font/../misc/lv_area.h ****     LV_DIR_HOR      = LV_DIR_LEFT | LV_DIR_RIGHT,
  85:Drivers/lvgl/src/widgets/../core/../misc/../font/../misc/lv_area.h ****     LV_DIR_VER      = LV_DIR_TOP | LV_DIR_BOTTOM,
  86:Drivers/lvgl/src/widgets/../core/../misc/../font/../misc/lv_area.h ****     LV_DIR_ALL      = LV_DIR_HOR | LV_DIR_VER,
  87:Drivers/lvgl/src/widgets/../core/../misc/../font/../misc/lv_area.h **** };
  88:Drivers/lvgl/src/widgets/../core/../misc/../font/../misc/lv_area.h **** 
  89:Drivers/lvgl/src/widgets/../core/../misc/../font/../misc/lv_area.h **** typedef uint8_t lv_dir_t;
  90:Drivers/lvgl/src/widgets/../core/../misc/../font/../misc/lv_area.h **** 
  91:Drivers/lvgl/src/widgets/../core/../misc/../font/../misc/lv_area.h **** /**********************
  92:Drivers/lvgl/src/widgets/../core/../misc/../font/../misc/lv_area.h ****  * GLOBAL PROTOTYPES
  93:Drivers/lvgl/src/widgets/../core/../misc/../font/../misc/lv_area.h ****  **********************/
ARM GAS  /var/folders/0z/tsy30v1j4xl4_7kw94k978ww0000gn/T//ccS0VXUs.s 			page 42


  94:Drivers/lvgl/src/widgets/../core/../misc/../font/../misc/lv_area.h **** 
  95:Drivers/lvgl/src/widgets/../core/../misc/../font/../misc/lv_area.h **** /**
  96:Drivers/lvgl/src/widgets/../core/../misc/../font/../misc/lv_area.h ****  * Initialize an area
  97:Drivers/lvgl/src/widgets/../core/../misc/../font/../misc/lv_area.h ****  * @param area_p pointer to an area
  98:Drivers/lvgl/src/widgets/../core/../misc/../font/../misc/lv_area.h ****  * @param x1 left coordinate of the area
  99:Drivers/lvgl/src/widgets/../core/../misc/../font/../misc/lv_area.h ****  * @param y1 top coordinate of the area
 100:Drivers/lvgl/src/widgets/../core/../misc/../font/../misc/lv_area.h ****  * @param x2 right coordinate of the area
 101:Drivers/lvgl/src/widgets/../core/../misc/../font/../misc/lv_area.h ****  * @param y2 bottom coordinate of the area
 102:Drivers/lvgl/src/widgets/../core/../misc/../font/../misc/lv_area.h ****  */
 103:Drivers/lvgl/src/widgets/../core/../misc/../font/../misc/lv_area.h **** void lv_area_set(lv_area_t * area_p, lv_coord_t x1, lv_coord_t y1, lv_coord_t x2, lv_coord_t y2);
 104:Drivers/lvgl/src/widgets/../core/../misc/../font/../misc/lv_area.h **** 
 105:Drivers/lvgl/src/widgets/../core/../misc/../font/../misc/lv_area.h **** /**
 106:Drivers/lvgl/src/widgets/../core/../misc/../font/../misc/lv_area.h ****  * Copy an area
 107:Drivers/lvgl/src/widgets/../core/../misc/../font/../misc/lv_area.h ****  * @param dest pointer to the destination area
 108:Drivers/lvgl/src/widgets/../core/../misc/../font/../misc/lv_area.h ****  * @param src pointer to the source area
 109:Drivers/lvgl/src/widgets/../core/../misc/../font/../misc/lv_area.h ****  */
 110:Drivers/lvgl/src/widgets/../core/../misc/../font/../misc/lv_area.h **** inline static void lv_area_copy(lv_area_t * dest, const lv_area_t * src)
 862              		.loc 4 110 20 view .LVU266
 863              	.LBB291:
 111:Drivers/lvgl/src/widgets/../core/../misc/../font/../misc/lv_area.h **** {
 112:Drivers/lvgl/src/widgets/../core/../misc/../font/../misc/lv_area.h ****     dest->x1 = src->x1;
 864              		.loc 4 112 5 view .LVU267
 865              		.loc 4 112 19 is_stmt 0 view .LVU268
 866 01d0 EB6E     		ldr	r3, [r5, #108]	@ unaligned
 113:Drivers/lvgl/src/widgets/../core/../misc/../font/../misc/lv_area.h ****     dest->y1 = src->y1;
 867              		.loc 4 113 5 is_stmt 1 view .LVU269
 114:Drivers/lvgl/src/widgets/../core/../misc/../font/../misc/lv_area.h ****     dest->x2 = src->x2;
 868              		.loc 4 114 5 view .LVU270
 115:Drivers/lvgl/src/widgets/../core/../misc/../font/../misc/lv_area.h ****     dest->y2 = src->y2;
 869              		.loc 4 115 5 view .LVU271
 112:Drivers/lvgl/src/widgets/../core/../misc/../font/../misc/lv_area.h ****     dest->y1 = src->y1;
 870              		.loc 4 112 19 is_stmt 0 view .LVU272
 871 01d2 AA6E     		ldr	r2, [r5, #104]	@ unaligned
 872              	.LBE291:
 873              	.LBE290:
 118:Drivers/lvgl/src/widgets/lv_slider.c ****         info->res = _lv_area_is_point_on(&a, info->point, 0);
 874              		.loc 1 118 9 view .LVU273
 875 01d4 2146     		mov	r1, r4
 876              	.LBB293:
 877              	.LBB292:
 112:Drivers/lvgl/src/widgets/../core/../misc/../font/../misc/lv_area.h ****     dest->y1 = src->y1;
 878              		.loc 4 112 14 view .LVU274
 879 01d6 CDE92023 		strd	r2, r3, [sp, #128]
 880              	.LVL91:
 112:Drivers/lvgl/src/widgets/../core/../misc/../font/../misc/lv_area.h ****     dest->y1 = src->y1;
 881              		.loc 4 112 14 view .LVU275
 882              	.LBE292:
 883              	.LBE293:
 118:Drivers/lvgl/src/widgets/lv_slider.c ****         info->res = _lv_area_is_point_on(&a, info->point, 0);
 884              		.loc 1 118 9 is_stmt 1 view .LVU276
 885 01da 20A8     		add	r0, sp, #128
 886              	.LVL92:
 118:Drivers/lvgl/src/widgets/lv_slider.c ****         info->res = _lv_area_is_point_on(&a, info->point, 0);
 887              		.loc 1 118 9 is_stmt 0 view .LVU277
 888 01dc 2246     		mov	r2, r4
 889 01de FFF7FEFF 		bl	lv_area_increase
 890              	.LVL93:
ARM GAS  /var/folders/0z/tsy30v1j4xl4_7kw94k978ww0000gn/T//ccS0VXUs.s 			page 43


 119:Drivers/lvgl/src/widgets/lv_slider.c **** 
 891              		.loc 1 119 9 is_stmt 1 view .LVU278
 119:Drivers/lvgl/src/widgets/lv_slider.c **** 
 892              		.loc 1 119 21 is_stmt 0 view .LVU279
 893 01e2 D8F80010 		ldr	r1, [r8]
 894 01e6 0022     		movs	r2, #0
 895 01e8 20A8     		add	r0, sp, #128
 896 01ea FFF7FEFF 		bl	_lv_area_is_point_on
 897              	.LVL94:
 898 01ee 0646     		mov	r6, r0
 899              	.LVL95:
 119:Drivers/lvgl/src/widgets/lv_slider.c **** 
 900              		.loc 1 119 19 view .LVU280
 901 01f0 88F80400 		strb	r0, [r8, #4]
 122:Drivers/lvgl/src/widgets/lv_slider.c ****             lv_area_copy(&a, &slider->left_knob_area);
 902              		.loc 1 122 9 is_stmt 1 view .LVU281
 122:Drivers/lvgl/src/widgets/lv_slider.c ****             lv_area_copy(&a, &slider->left_knob_area);
 903              		.loc 1 122 11 is_stmt 0 view .LVU282
 904 01f4 0028     		cmp	r0, #0
 905 01f6 7FF40CAF 		bne	.L13
 122:Drivers/lvgl/src/widgets/lv_slider.c ****             lv_area_copy(&a, &slider->left_knob_area);
 906              		.loc 1 122 33 view .LVU283
 907 01fa 022F     		cmp	r7, #2
 908 01fc 7FF409AF 		bne	.L13
 123:Drivers/lvgl/src/widgets/lv_slider.c ****             lv_area_increase(&a, ext_click_area, ext_click_area);
 909              		.loc 1 123 13 is_stmt 1 view .LVU284
 910              	.LVL96:
 911              	.LBB294:
 912              	.LBI294:
 110:Drivers/lvgl/src/widgets/../core/../misc/../font/../misc/lv_area.h **** {
 913              		.loc 4 110 20 view .LVU285
 914              	.LBB295:
 112:Drivers/lvgl/src/widgets/../core/../misc/../font/../misc/lv_area.h ****     dest->y1 = src->y1;
 915              		.loc 4 112 5 view .LVU286
 112:Drivers/lvgl/src/widgets/../core/../misc/../font/../misc/lv_area.h ****     dest->y1 = src->y1;
 916              		.loc 4 112 19 is_stmt 0 view .LVU287
 917 0200 6B6E     		ldr	r3, [r5, #100]	@ unaligned
 113:Drivers/lvgl/src/widgets/../core/../misc/../font/../misc/lv_area.h ****     dest->x2 = src->x2;
 918              		.loc 4 113 5 is_stmt 1 view .LVU288
 114:Drivers/lvgl/src/widgets/../core/../misc/../font/../misc/lv_area.h ****     dest->y2 = src->y2;
 919              		.loc 4 114 5 view .LVU289
 920              		.loc 4 115 5 view .LVU290
 112:Drivers/lvgl/src/widgets/../core/../misc/../font/../misc/lv_area.h ****     dest->y1 = src->y1;
 921              		.loc 4 112 19 is_stmt 0 view .LVU291
 922 0202 2A6E     		ldr	r2, [r5, #96]	@ unaligned
 923              	.LBE295:
 924              	.LBE294:
 124:Drivers/lvgl/src/widgets/lv_slider.c ****             info->res = _lv_area_is_point_on(&a, info->point, 0);
 925              		.loc 1 124 13 view .LVU292
 926 0204 2146     		mov	r1, r4
 927              	.LBB297:
 928              	.LBB296:
 112:Drivers/lvgl/src/widgets/../core/../misc/../font/../misc/lv_area.h ****     dest->y1 = src->y1;
 929              		.loc 4 112 14 view .LVU293
 930 0206 CDE92023 		strd	r2, r3, [sp, #128]
 931              	.LVL97:
 112:Drivers/lvgl/src/widgets/../core/../misc/../font/../misc/lv_area.h ****     dest->y1 = src->y1;
ARM GAS  /var/folders/0z/tsy30v1j4xl4_7kw94k978ww0000gn/T//ccS0VXUs.s 			page 44


 932              		.loc 4 112 14 view .LVU294
 933              	.LBE296:
 934              	.LBE297:
 124:Drivers/lvgl/src/widgets/lv_slider.c ****             info->res = _lv_area_is_point_on(&a, info->point, 0);
 935              		.loc 1 124 13 is_stmt 1 view .LVU295
 936 020a 20A8     		add	r0, sp, #128
 937 020c 2246     		mov	r2, r4
 938 020e FFF7FEFF 		bl	lv_area_increase
 939              	.LVL98:
 125:Drivers/lvgl/src/widgets/lv_slider.c ****         }
 940              		.loc 1 125 13 view .LVU296
 125:Drivers/lvgl/src/widgets/lv_slider.c ****         }
 941              		.loc 1 125 25 is_stmt 0 view .LVU297
 942 0212 D8F80010 		ldr	r1, [r8]
 943 0216 3246     		mov	r2, r6
 944 0218 20A8     		add	r0, sp, #128
 945 021a FFF7FEFF 		bl	_lv_area_is_point_on
 946              	.LVL99:
 125:Drivers/lvgl/src/widgets/lv_slider.c ****         }
 947              		.loc 1 125 23 view .LVU298
 948 021e 88F80400 		strb	r0, [r8, #4]
 949 0222 F6E6     		b	.L13
 950              	.LVL100:
 951              	.L20:
 125:Drivers/lvgl/src/widgets/lv_slider.c ****         }
 952              		.loc 1 125 23 view .LVU299
 953              	.LBE289:
 111:Drivers/lvgl/src/widgets/lv_slider.c ****         lv_hit_test_info_t * info = lv_event_get_param(e);
 954              		.loc 1 111 5 is_stmt 1 view .LVU300
 111:Drivers/lvgl/src/widgets/lv_slider.c ****         lv_hit_test_info_t * info = lv_event_get_param(e);
 955              		.loc 1 111 7 is_stmt 0 view .LVU301
 956 0224 112C     		cmp	r4, #17
 957 0226 CBD0     		beq	.L17
 128:Drivers/lvgl/src/widgets/lv_slider.c ****         lv_obj_invalidate(obj);
 958              		.loc 1 128 10 is_stmt 1 view .LVU302
 128:Drivers/lvgl/src/widgets/lv_slider.c ****         lv_obj_invalidate(obj);
 959              		.loc 1 128 12 is_stmt 0 view .LVU303
 960 0228 012C     		cmp	r4, #1
 961 022a 7FF40CAF 		bne	.L18
 962              	.LBB298:
 129:Drivers/lvgl/src/widgets/lv_slider.c **** 
 963              		.loc 1 129 9 is_stmt 1 view .LVU304
 964 022e 2846     		mov	r0, r5
 965 0230 FFF7FEFF 		bl	lv_obj_invalidate
 966              	.LVL101:
 131:Drivers/lvgl/src/widgets/lv_slider.c ****         slider->dragging = true;
 967              		.loc 1 131 9 view .LVU305
 132:Drivers/lvgl/src/widgets/lv_slider.c ****         if(type == LV_SLIDER_MODE_NORMAL || type == LV_SLIDER_MODE_SYMMETRICAL) {
 968              		.loc 1 132 9 view .LVU306
 132:Drivers/lvgl/src/widgets/lv_slider.c ****         if(type == LV_SLIDER_MODE_NORMAL || type == LV_SLIDER_MODE_SYMMETRICAL) {
 969              		.loc 1 132 26 is_stmt 0 view .LVU307
 970 0234 95F87430 		ldrb	r3, [r5, #116]	@ zero_extendqisi2
 971 0238 43F00103 		orr	r3, r3, #1
 972 023c 85F87430 		strb	r3, [r5, #116]
 133:Drivers/lvgl/src/widgets/lv_slider.c ****             slider->value_to_set = &slider->bar.cur_value;
 973              		.loc 1 133 9 is_stmt 1 view .LVU308
 136:Drivers/lvgl/src/widgets/lv_slider.c ****             lv_indev_get_point(lv_indev_get_act(), &p);
ARM GAS  /var/folders/0z/tsy30v1j4xl4_7kw94k978ww0000gn/T//ccS0VXUs.s 			page 45


 974              		.loc 1 136 14 view .LVU309
 975              	.LBB299:
 137:Drivers/lvgl/src/widgets/lv_slider.c ****             bool hor = lv_obj_get_width(obj) >= lv_obj_get_height(obj);
 976              		.loc 1 137 13 view .LVU310
 137:Drivers/lvgl/src/widgets/lv_slider.c ****             bool hor = lv_obj_get_width(obj) >= lv_obj_get_height(obj);
 977              		.loc 1 137 32 is_stmt 0 view .LVU311
 978 0240 FFF7FEFF 		bl	lv_indev_get_act
 979              	.LVL102:
 137:Drivers/lvgl/src/widgets/lv_slider.c ****             bool hor = lv_obj_get_width(obj) >= lv_obj_get_height(obj);
 980              		.loc 1 137 13 view .LVU312
 981 0244 20A9     		add	r1, sp, #128
 982 0246 FFF7FEFF 		bl	lv_indev_get_point
 983              	.LVL103:
 138:Drivers/lvgl/src/widgets/lv_slider.c ****             lv_base_dir_t base_dir = lv_obj_get_style_base_dir(obj, LV_PART_MAIN);
 984              		.loc 1 138 13 is_stmt 1 view .LVU313
 138:Drivers/lvgl/src/widgets/lv_slider.c ****             lv_base_dir_t base_dir = lv_obj_get_style_base_dir(obj, LV_PART_MAIN);
 985              		.loc 1 138 24 is_stmt 0 view .LVU314
 986 024a 2846     		mov	r0, r5
 987 024c FFF7FEFF 		bl	lv_obj_get_width
 988              	.LVL104:
 989 0250 0646     		mov	r6, r0
 990              	.LVL105:
 138:Drivers/lvgl/src/widgets/lv_slider.c ****             lv_base_dir_t base_dir = lv_obj_get_style_base_dir(obj, LV_PART_MAIN);
 991              		.loc 1 138 49 view .LVU315
 992 0252 2846     		mov	r0, r5
 993 0254 FFF7FEFF 		bl	lv_obj_get_height
 994              	.LVL106:
 995              	.LBB300:
 996              	.LBB301:
 567:Drivers/lvgl/src/widgets/../core/lv_obj_style_gen.h ****     return (lv_base_dir_t)v.num;
 997              		.loc 2 567 26 view .LVU316
 998 0258 1622     		movs	r2, #22
 999              	.LBE301:
 1000              	.LBE300:
 138:Drivers/lvgl/src/widgets/lv_slider.c ****             lv_base_dir_t base_dir = lv_obj_get_style_base_dir(obj, LV_PART_MAIN);
 1001              		.loc 1 138 49 view .LVU317
 1002 025a 0446     		mov	r4, r0
 1003              	.LVL107:
 139:Drivers/lvgl/src/widgets/lv_slider.c **** 
 1004              		.loc 1 139 13 is_stmt 1 view .LVU318
 1005              	.LBB303:
 1006              	.LBI300:
 565:Drivers/lvgl/src/widgets/../core/lv_obj_style_gen.h **** {
 1007              		.loc 2 565 29 view .LVU319
 1008              	.LBB302:
 567:Drivers/lvgl/src/widgets/../core/lv_obj_style_gen.h ****     return (lv_base_dir_t)v.num;
 1009              		.loc 2 567 5 view .LVU320
 567:Drivers/lvgl/src/widgets/../core/lv_obj_style_gen.h ****     return (lv_base_dir_t)v.num;
 1010              		.loc 2 567 26 is_stmt 0 view .LVU321
 1011 025c 0021     		movs	r1, #0
 1012 025e 2846     		mov	r0, r5
 1013 0260 FFF7FEFF 		bl	lv_obj_get_style_prop
 1014              	.LVL108:
 1015              		.loc 2 568 5 is_stmt 1 view .LVU322
 1016              		.loc 2 568 5 is_stmt 0 view .LVU323
 1017              	.LBE302:
 1018              	.LBE303:
ARM GAS  /var/folders/0z/tsy30v1j4xl4_7kw94k978ww0000gn/T//ccS0VXUs.s 			page 46


 141:Drivers/lvgl/src/widgets/lv_slider.c ****             if(hor) {
 1019              		.loc 1 141 13 is_stmt 1 view .LVU324
 142:Drivers/lvgl/src/widgets/lv_slider.c ****                 if((base_dir != LV_BASE_DIR_RTL && p.x > slider->right_knob_area.x2) || (base_dir =
 1020              		.loc 1 142 13 view .LVU325
 142:Drivers/lvgl/src/widgets/lv_slider.c ****                 if((base_dir != LV_BASE_DIR_RTL && p.x > slider->right_knob_area.x2) || (base_dir =
 1021              		.loc 1 142 15 is_stmt 0 view .LVU326
 1022 0264 A642     		cmp	r6, r4
 1023 0266 C0F2EC81 		blt	.L129
 143:Drivers/lvgl/src/widgets/lv_slider.c ****                                                                                          p.x < slid
 1024              		.loc 1 143 17 is_stmt 1 view .LVU327
 143:Drivers/lvgl/src/widgets/lv_slider.c ****                                                                                          p.x < slid
 1025              		.loc 1 143 19 is_stmt 0 view .LVU328
 1026 026a C3B2     		uxtb	r3, r0
 1027 026c 012B     		cmp	r3, #1
 143:Drivers/lvgl/src/widgets/lv_slider.c ****                                                                                          p.x < slid
 1028              		.loc 1 143 53 view .LVU329
 1029 026e BDF98010 		ldrsh	r1, [sp, #128]
 143:Drivers/lvgl/src/widgets/lv_slider.c ****                                                                                          p.x < slid
 1030              		.loc 1 143 19 view .LVU330
 1031 0272 00F08282 		beq	.L26
 143:Drivers/lvgl/src/widgets/lv_slider.c ****                                                                                          p.x < slid
 1032              		.loc 1 143 49 view .LVU331
 1033 0276 B5F96C00 		ldrsh	r0, [r5, #108]
 1034              	.LVL109:
 143:Drivers/lvgl/src/widgets/lv_slider.c ****                                                                                          p.x < slid
 1035              		.loc 1 143 49 view .LVU332
 1036 027a 8842     		cmp	r0, r1
 1037 027c C0F21182 		blt	.L115
 147:Drivers/lvgl/src/widgets/lv_slider.c ****                                                                                              p.x > 
 1038              		.loc 1 147 22 is_stmt 1 view .LVU333
 147:Drivers/lvgl/src/widgets/lv_slider.c ****                                                                                              p.x > 
 1039              		.loc 1 147 54 is_stmt 0 view .LVU334
 1040 0280 B5F96030 		ldrsh	r3, [r5, #96]
 1041              	.LVL110:
 147:Drivers/lvgl/src/widgets/lv_slider.c ****                                                                                              p.x > 
 1042              		.loc 1 147 54 view .LVU335
 1043 0284 8B42     		cmp	r3, r1
 1044 0286 00F36682 		bgt	.L116
 1045 028a B5F96820 		ldrsh	r2, [r5, #104]
 1046 028e B5F96440 		ldrsh	r4, [r5, #100]
 1047              	.LVL111:
 1048              	.L31:
 153:Drivers/lvgl/src/widgets/lv_slider.c ****                     dist_right = LV_ABS((slider->right_knob_area.x1 + (slider->right_knob_area.x2 -
 1049              		.loc 1 153 21 is_stmt 1 view .LVU336
 154:Drivers/lvgl/src/widgets/lv_slider.c **** 
 1050              		.loc 1 154 21 view .LVU337
 157:Drivers/lvgl/src/widgets/lv_slider.c ****                         slider->value_to_set = &slider->bar.cur_value;
 1051              		.loc 1 157 21 view .LVU338
 153:Drivers/lvgl/src/widgets/lv_slider.c ****                     dist_right = LV_ABS((slider->right_knob_area.x1 + (slider->right_knob_area.x2 -
 1052              		.loc 1 153 33 is_stmt 0 view .LVU339
 1053 0292 E41A     		subs	r4, r4, r3
 154:Drivers/lvgl/src/widgets/lv_slider.c **** 
 1054              		.loc 1 154 34 view .LVU340
 1055 0294 801A     		subs	r0, r0, r2
 153:Drivers/lvgl/src/widgets/lv_slider.c ****                     dist_right = LV_ABS((slider->right_knob_area.x1 + (slider->right_knob_area.x2 -
 1056              		.loc 1 153 33 view .LVU341
 1057 0296 04EBD474 		add	r4, r4, r4, lsr #31
ARM GAS  /var/folders/0z/tsy30v1j4xl4_7kw94k978ww0000gn/T//ccS0VXUs.s 			page 47


 1058 029a 03EB6403 		add	r3, r3, r4, asr #1
 1059              	.LVL112:
 154:Drivers/lvgl/src/widgets/lv_slider.c **** 
 1060              		.loc 1 154 34 view .LVU342
 1061 029e 00EBD070 		add	r0, r0, r0, lsr #31
 153:Drivers/lvgl/src/widgets/lv_slider.c ****                     dist_right = LV_ABS((slider->right_knob_area.x1 + (slider->right_knob_area.x2 -
 1062              		.loc 1 153 33 view .LVU343
 1063 02a2 5B1A     		subs	r3, r3, r1
 154:Drivers/lvgl/src/widgets/lv_slider.c **** 
 1064              		.loc 1 154 34 view .LVU344
 1065 02a4 02EB6002 		add	r2, r2, r0, asr #1
 1066              	.LVL113:
 154:Drivers/lvgl/src/widgets/lv_slider.c **** 
 1067              		.loc 1 154 34 view .LVU345
 1068 02a8 521A     		subs	r2, r2, r1
 153:Drivers/lvgl/src/widgets/lv_slider.c ****                     dist_right = LV_ABS((slider->right_knob_area.x1 + (slider->right_knob_area.x2 -
 1069              		.loc 1 153 33 view .LVU346
 1070 02aa 002B     		cmp	r3, #0
 1071 02ac B8BF     		it	lt
 1072 02ae 5B42     		rsblt	r3, r3, #0
 154:Drivers/lvgl/src/widgets/lv_slider.c **** 
 1073              		.loc 1 154 34 view .LVU347
 1074 02b0 002A     		cmp	r2, #0
 1075 02b2 B8BF     		it	lt
 1076 02b4 5242     		rsblt	r2, r2, #0
 157:Drivers/lvgl/src/widgets/lv_slider.c ****                         slider->value_to_set = &slider->bar.cur_value;
 1077              		.loc 1 157 23 view .LVU348
 1078 02b6 1BB2     		sxth	r3, r3
 1079 02b8 12B2     		sxth	r2, r2
 1080 02ba 9342     		cmp	r3, r2
 159:Drivers/lvgl/src/widgets/lv_slider.c ****                     }
 1081              		.loc 1 159 49 view .LVU349
 1082 02bc 95F87430 		ldrb	r3, [r5, #116]	@ zero_extendqisi2
 157:Drivers/lvgl/src/widgets/lv_slider.c ****                         slider->value_to_set = &slider->bar.cur_value;
 1083              		.loc 1 157 23 view .LVU350
 1084 02c0 40F3E781 		ble	.L35
 1085              	.L117:
 181:Drivers/lvgl/src/widgets/lv_slider.c ****                         slider->left_knob_focus = 0;
 1086              		.loc 1 181 25 is_stmt 1 view .LVU351
 181:Drivers/lvgl/src/widgets/lv_slider.c ****                         slider->left_knob_focus = 0;
 1087              		.loc 1 181 48 is_stmt 0 view .LVU352
 1088 02c4 05F12402 		add	r2, r5, #36
 182:Drivers/lvgl/src/widgets/lv_slider.c ****                     }
 1089              		.loc 1 182 49 view .LVU353
 1090 02c8 6FF34103 		bfc	r3, #1, #1
 181:Drivers/lvgl/src/widgets/lv_slider.c ****                         slider->left_knob_focus = 0;
 1091              		.loc 1 181 46 view .LVU354
 1092 02cc 2A67     		str	r2, [r5, #112]
 182:Drivers/lvgl/src/widgets/lv_slider.c ****                     }
 1093              		.loc 1 182 25 is_stmt 1 view .LVU355
 182:Drivers/lvgl/src/widgets/lv_slider.c ****                     }
 1094              		.loc 1 182 49 is_stmt 0 view .LVU356
 1095 02ce 85F87430 		strb	r3, [r5, #116]
 1096 02d2 9EE6     		b	.L13
 1097              	.LVL114:
 1098              	.L125:
 182:Drivers/lvgl/src/widgets/lv_slider.c ****                     }
ARM GAS  /var/folders/0z/tsy30v1j4xl4_7kw94k978ww0000gn/T//ccS0VXUs.s 			page 48


 1099              		.loc 1 182 49 view .LVU357
 1100              	.LBE299:
 129:Drivers/lvgl/src/widgets/lv_slider.c **** 
 1101              		.loc 1 129 9 is_stmt 1 view .LVU358
 1102 02d4 2846     		mov	r0, r5
 1103 02d6 FFF7FEFF 		bl	lv_obj_invalidate
 1104              	.LVL115:
 131:Drivers/lvgl/src/widgets/lv_slider.c ****         slider->dragging = true;
 1105              		.loc 1 131 9 view .LVU359
 132:Drivers/lvgl/src/widgets/lv_slider.c ****         if(type == LV_SLIDER_MODE_NORMAL || type == LV_SLIDER_MODE_SYMMETRICAL) {
 1106              		.loc 1 132 9 view .LVU360
 133:Drivers/lvgl/src/widgets/lv_slider.c ****             slider->value_to_set = &slider->bar.cur_value;
 1107              		.loc 1 133 9 view .LVU361
 132:Drivers/lvgl/src/widgets/lv_slider.c ****         if(type == LV_SLIDER_MODE_NORMAL || type == LV_SLIDER_MODE_SYMMETRICAL) {
 1108              		.loc 1 132 26 is_stmt 0 view .LVU362
 1109 02da 95F87430 		ldrb	r3, [r5, #116]	@ zero_extendqisi2
 134:Drivers/lvgl/src/widgets/lv_slider.c ****         }
 1110              		.loc 1 134 36 view .LVU363
 1111 02de 05F12402 		add	r2, r5, #36
 132:Drivers/lvgl/src/widgets/lv_slider.c ****         if(type == LV_SLIDER_MODE_NORMAL || type == LV_SLIDER_MODE_SYMMETRICAL) {
 1112              		.loc 1 132 26 view .LVU364
 1113 02e2 43F00103 		orr	r3, r3, #1
 1114 02e6 85F87430 		strb	r3, [r5, #116]
 134:Drivers/lvgl/src/widgets/lv_slider.c ****         }
 1115              		.loc 1 134 13 is_stmt 1 view .LVU365
 134:Drivers/lvgl/src/widgets/lv_slider.c ****         }
 1116              		.loc 1 134 34 is_stmt 0 view .LVU366
 1117 02ea 2A67     		str	r2, [r5, #112]
 1118 02ec 91E6     		b	.L13
 1119              	.LVL116:
 1120              	.L86:
 134:Drivers/lvgl/src/widgets/lv_slider.c ****         }
 1121              		.loc 1 134 34 view .LVU367
 1122              	.LBE298:
 1123              	.LBB307:
 1124              	.LBB262:
 1125              		.loc 3 182 17 view .LVU368
 1126 02ee 0027     		movs	r7, #0
 1127 02f0 66E7     		b	.L17
 1128              	.LVL117:
 1129              	.L54:
 1130              		.loc 3 182 17 view .LVU369
 1131              	.LBE262:
 1132              	.LBE307:
 1133              	.LBB308:
 254:Drivers/lvgl/src/widgets/lv_slider.c ****         slider->value_to_set = NULL;
 1134              		.loc 1 254 9 is_stmt 1 view .LVU370
 254:Drivers/lvgl/src/widgets/lv_slider.c ****         slider->value_to_set = NULL;
 1135              		.loc 1 254 26 is_stmt 0 view .LVU371
 1136 02f2 95F87430 		ldrb	r3, [r5, #116]	@ zero_extendqisi2
 255:Drivers/lvgl/src/widgets/lv_slider.c **** 
 1137              		.loc 1 255 30 view .LVU372
 1138 02f6 0026     		movs	r6, #0
 1139              	.LVL118:
 254:Drivers/lvgl/src/widgets/lv_slider.c ****         slider->value_to_set = NULL;
 1140              		.loc 1 254 26 view .LVU373
 1141 02f8 6FF30003 		bfc	r3, #0, #1
ARM GAS  /var/folders/0z/tsy30v1j4xl4_7kw94k978ww0000gn/T//ccS0VXUs.s 			page 49


 1142 02fc 85F87430 		strb	r3, [r5, #116]
 255:Drivers/lvgl/src/widgets/lv_slider.c **** 
 1143              		.loc 1 255 9 is_stmt 1 view .LVU374
 257:Drivers/lvgl/src/widgets/lv_slider.c **** 
 1144              		.loc 1 257 9 is_stmt 0 view .LVU375
 1145 0300 2846     		mov	r0, r5
 255:Drivers/lvgl/src/widgets/lv_slider.c **** 
 1146              		.loc 1 255 30 view .LVU376
 1147 0302 2E67     		str	r6, [r5, #112]
 257:Drivers/lvgl/src/widgets/lv_slider.c **** 
 1148              		.loc 1 257 9 is_stmt 1 view .LVU377
 1149 0304 FFF7FEFF 		bl	lv_obj_invalidate
 1150              	.LVL119:
 260:Drivers/lvgl/src/widgets/lv_slider.c ****         bool editing     = lv_group_get_editing(g);
 1151              		.loc 1 260 9 view .LVU378
 260:Drivers/lvgl/src/widgets/lv_slider.c ****         bool editing     = lv_group_get_editing(g);
 1152              		.loc 1 260 28 is_stmt 0 view .LVU379
 1153 0308 2846     		mov	r0, r5
 1154 030a FFF7FEFF 		bl	lv_obj_get_group
 1155              	.LVL120:
 1156 030e 0746     		mov	r7, r0
 1157              	.LVL121:
 261:Drivers/lvgl/src/widgets/lv_slider.c ****         lv_indev_type_t indev_type = lv_indev_get_type(lv_indev_get_act());
 1158              		.loc 1 261 9 is_stmt 1 view .LVU380
 261:Drivers/lvgl/src/widgets/lv_slider.c ****         lv_indev_type_t indev_type = lv_indev_get_type(lv_indev_get_act());
 1159              		.loc 1 261 28 is_stmt 0 view .LVU381
 1160 0310 FFF7FEFF 		bl	lv_group_get_editing
 1161              	.LVL122:
 261:Drivers/lvgl/src/widgets/lv_slider.c ****         lv_indev_type_t indev_type = lv_indev_get_type(lv_indev_get_act());
 1162              		.loc 1 261 28 view .LVU382
 1163 0314 0446     		mov	r4, r0
 1164              	.LVL123:
 262:Drivers/lvgl/src/widgets/lv_slider.c ****         if(indev_type == LV_INDEV_TYPE_ENCODER) {
 1165              		.loc 1 262 9 is_stmt 1 view .LVU383
 262:Drivers/lvgl/src/widgets/lv_slider.c ****         if(indev_type == LV_INDEV_TYPE_ENCODER) {
 1166              		.loc 1 262 56 is_stmt 0 view .LVU384
 1167 0316 FFF7FEFF 		bl	lv_indev_get_act
 1168              	.LVL124:
 262:Drivers/lvgl/src/widgets/lv_slider.c ****         if(indev_type == LV_INDEV_TYPE_ENCODER) {
 1169              		.loc 1 262 38 view .LVU385
 1170 031a FFF7FEFF 		bl	lv_indev_get_type
 1171              	.LVL125:
 263:Drivers/lvgl/src/widgets/lv_slider.c ****             if(editing) {
 1172              		.loc 1 263 9 is_stmt 1 view .LVU386
 263:Drivers/lvgl/src/widgets/lv_slider.c ****             if(editing) {
 1173              		.loc 1 263 11 is_stmt 0 view .LVU387
 1174 031e 0428     		cmp	r0, #4
 1175 0320 7FF477AE 		bne	.L13
 264:Drivers/lvgl/src/widgets/lv_slider.c ****                 if(lv_slider_get_mode(obj) == LV_SLIDER_MODE_RANGE) {
 1176              		.loc 1 264 13 is_stmt 1 view .LVU388
 264:Drivers/lvgl/src/widgets/lv_slider.c ****                 if(lv_slider_get_mode(obj) == LV_SLIDER_MODE_RANGE) {
 1177              		.loc 1 264 15 is_stmt 0 view .LVU389
 1178 0324 002C     		cmp	r4, #0
 1179 0326 3FF474AE 		beq	.L13
 265:Drivers/lvgl/src/widgets/lv_slider.c ****                     if(slider->left_knob_focus == 0) slider->left_knob_focus = 1;
 1180              		.loc 1 265 17 is_stmt 1 view .LVU390
 1181              	.LVL126:
ARM GAS  /var/folders/0z/tsy30v1j4xl4_7kw94k978ww0000gn/T//ccS0VXUs.s 			page 50


 1182              	.LBB309:
 1183              	.LBI309:
 177:Drivers/lvgl/src/widgets/lv_slider.h **** {
 1184              		.loc 3 177 32 view .LVU391
 1185              	.LBB310:
 179:Drivers/lvgl/src/widgets/lv_slider.h ****     if(mode == LV_BAR_MODE_SYMMETRICAL) return LV_SLIDER_MODE_SYMMETRICAL;
 1186              		.loc 3 179 5 view .LVU392
 179:Drivers/lvgl/src/widgets/lv_slider.h ****     if(mode == LV_BAR_MODE_SYMMETRICAL) return LV_SLIDER_MODE_SYMMETRICAL;
 1187              		.loc 3 179 26 is_stmt 0 view .LVU393
 1188 032a 2846     		mov	r0, r5
 1189              	.LVL127:
 179:Drivers/lvgl/src/widgets/lv_slider.h ****     if(mode == LV_BAR_MODE_SYMMETRICAL) return LV_SLIDER_MODE_SYMMETRICAL;
 1190              		.loc 3 179 26 view .LVU394
 1191 032c FFF7FEFF 		bl	lv_bar_get_mode
 1192              	.LVL128:
 180:Drivers/lvgl/src/widgets/lv_slider.h ****     else if(mode == LV_BAR_MODE_RANGE) return LV_SLIDER_MODE_RANGE;
 1193              		.loc 3 180 5 is_stmt 1 view .LVU395
 181:Drivers/lvgl/src/widgets/lv_slider.h ****     else return LV_SLIDER_MODE_NORMAL;
 1194              		.loc 3 181 10 view .LVU396
 181:Drivers/lvgl/src/widgets/lv_slider.h ****     else return LV_SLIDER_MODE_NORMAL;
 1195              		.loc 3 181 12 is_stmt 0 view .LVU397
 1196 0330 0228     		cmp	r0, #2
 1197 0332 00F02F82 		beq	.L130
 1198              	.LVL129:
 1199              	.L55:
 181:Drivers/lvgl/src/widgets/lv_slider.h ****     else return LV_SLIDER_MODE_NORMAL;
 1200              		.loc 3 181 12 view .LVU398
 1201              	.LBE310:
 1202              	.LBE309:
 273:Drivers/lvgl/src/widgets/lv_slider.c ****                 }
 1203              		.loc 1 273 21 is_stmt 1 view .LVU399
 1204 0336 3146     		mov	r1, r6
 1205 0338 3846     		mov	r0, r7
 1206              	.LBE308:
 1207              	.LBE259:
 1208              	.LBE258:
 330:Drivers/lvgl/src/widgets/lv_slider.c **** 
 1209              		.loc 1 330 1 is_stmt 0 view .LVU400
 1210 033a 33B0     		add	sp, sp, #204
 1211              		.cfi_remember_state
 1212              		.cfi_def_cfa_offset 36
 1213              		@ sp needed
 1214 033c BDE8F04F 		pop	{r4, r5, r6, r7, r8, r9, r10, fp, lr}
 1215              		.cfi_restore 14
 1216              		.cfi_restore 11
 1217              		.cfi_restore 10
 1218              		.cfi_restore 9
 1219              		.cfi_restore 8
 1220              		.cfi_restore 7
 1221              		.cfi_restore 6
 1222              		.cfi_restore 5
 1223              		.cfi_restore 4
 1224              		.cfi_def_cfa_offset 0
 1225              	.LVL130:
 1226              	.LBB433:
 1227              	.LBB430:
 1228              	.LBB311:
ARM GAS  /var/folders/0z/tsy30v1j4xl4_7kw94k978ww0000gn/T//ccS0VXUs.s 			page 51


 273:Drivers/lvgl/src/widgets/lv_slider.c ****                 }
 1229              		.loc 1 273 21 view .LVU401
 1230 0340 FFF7FEBF 		b	lv_group_set_editing
 1231              	.LVL131:
 1232              	.L136:
 273:Drivers/lvgl/src/widgets/lv_slider.c ****                 }
 1233              		.loc 1 273 21 view .LVU402
 1234              		.align	2
 1235              	.L135:
 1236 0344 00000000 		.word	.LANCHOR0
 1237              	.LVL132:
 1238              	.L53:
 1239              		.cfi_restore_state
 273:Drivers/lvgl/src/widgets/lv_slider.c ****                 }
 1240              		.loc 1 273 21 view .LVU403
 1241              	.LBE311:
 1242              	.LBB312:
 310:Drivers/lvgl/src/widgets/lv_slider.c **** 
 1243              		.loc 1 310 9 is_stmt 1 view .LVU404
 310:Drivers/lvgl/src/widgets/lv_slider.c **** 
 1244              		.loc 1 310 28 is_stmt 0 view .LVU405
 1245 0348 3046     		mov	r0, r6
 1246 034a FFF7FEFF 		bl	lv_event_get_param
 1247              	.LVL133:
 310:Drivers/lvgl/src/widgets/lv_slider.c **** 
 1248              		.loc 1 310 14 view .LVU406
 1249 034e 0378     		ldrb	r3, [r0]	@ zero_extendqisi2
 1250              	.LVL134:
 312:Drivers/lvgl/src/widgets/lv_slider.c ****             if(!slider->left_knob_focus) lv_slider_set_value(obj, lv_slider_get_value(obj) + 1, LV_
 1251              		.loc 1 312 9 is_stmt 1 view .LVU407
 312:Drivers/lvgl/src/widgets/lv_slider.c ****             if(!slider->left_knob_focus) lv_slider_set_value(obj, lv_slider_get_value(obj) + 1, LV_
 1252              		.loc 1 312 30 is_stmt 0 view .LVU408
 1253 0350 03F0FD02 		and	r2, r3, #253
 1254 0354 112A     		cmp	r2, #17
 1255 0356 00F02181 		beq	.L131
 316:Drivers/lvgl/src/widgets/lv_slider.c ****             if(!slider->left_knob_focus) lv_slider_set_value(obj, lv_slider_get_value(obj) - 1, LV_
 1256              		.loc 1 316 14 is_stmt 1 view .LVU409
 316:Drivers/lvgl/src/widgets/lv_slider.c ****             if(!slider->left_knob_focus) lv_slider_set_value(obj, lv_slider_get_value(obj) - 1, LV_
 1257              		.loc 1 316 16 is_stmt 0 view .LVU410
 1258 035a 142B     		cmp	r3, #20
 1259 035c 02D0     		beq	.L63
 316:Drivers/lvgl/src/widgets/lv_slider.c ****             if(!slider->left_knob_focus) lv_slider_set_value(obj, lv_slider_get_value(obj) - 1, LV_
 1260              		.loc 1 316 34 view .LVU411
 1261 035e 122B     		cmp	r3, #18
 1262 0360 7FF457AE 		bne	.L13
 1263              	.L63:
 317:Drivers/lvgl/src/widgets/lv_slider.c ****             else lv_slider_set_left_value(obj, lv_slider_get_left_value(obj) - 1, LV_ANIM_ON);
 1264              		.loc 1 317 13 is_stmt 1 view .LVU412
 317:Drivers/lvgl/src/widgets/lv_slider.c ****             else lv_slider_set_left_value(obj, lv_slider_get_left_value(obj) - 1, LV_ANIM_ON);
 1265              		.loc 1 317 16 is_stmt 0 view .LVU413
 1266 0364 95F87430 		ldrb	r3, [r5, #116]	@ zero_extendqisi2
 1267              	.LVL135:
 317:Drivers/lvgl/src/widgets/lv_slider.c ****             else lv_slider_set_left_value(obj, lv_slider_get_left_value(obj) - 1, LV_ANIM_ON);
 1268              		.loc 1 317 15 view .LVU414
 1269 0368 9B07     		lsls	r3, r3, #30
 1270              	.LBB313:
 1271              	.LBB314:
ARM GAS  /var/folders/0z/tsy30v1j4xl4_7kw94k978ww0000gn/T//ccS0VXUs.s 			page 52


 132:Drivers/lvgl/src/widgets/lv_slider.h **** }
 1272              		.loc 3 132 12 view .LVU415
 1273 036a 2846     		mov	r0, r5
 1274              	.LVL136:
 132:Drivers/lvgl/src/widgets/lv_slider.h **** }
 1275              		.loc 3 132 12 view .LVU416
 1276              	.LBE314:
 1277              	.LBE313:
 317:Drivers/lvgl/src/widgets/lv_slider.c ****             else lv_slider_set_left_value(obj, lv_slider_get_left_value(obj) - 1, LV_ANIM_ON);
 1278              		.loc 1 317 15 view .LVU417
 1279 036c 00F1EB81 		bmi	.L64
 1280              	.LVL137:
 317:Drivers/lvgl/src/widgets/lv_slider.c ****             else lv_slider_set_left_value(obj, lv_slider_get_left_value(obj) - 1, LV_ANIM_ON);
 1281              		.loc 1 317 42 is_stmt 1 view .LVU418
 1282              	.LBB316:
 1283              	.LBI313:
 130:Drivers/lvgl/src/widgets/lv_slider.h **** {
 1284              		.loc 3 130 23 view .LVU419
 1285              	.LBB315:
 132:Drivers/lvgl/src/widgets/lv_slider.h **** }
 1286              		.loc 3 132 5 view .LVU420
 132:Drivers/lvgl/src/widgets/lv_slider.h **** }
 1287              		.loc 3 132 12 is_stmt 0 view .LVU421
 1288 0370 FFF7FEFF 		bl	lv_bar_get_value
 1289              	.LVL138:
 132:Drivers/lvgl/src/widgets/lv_slider.h **** }
 1290              		.loc 3 132 12 view .LVU422
 1291              	.LBE315:
 1292              	.LBE316:
 1293              	.LBB317:
 1294              	.LBI317:
  84:Drivers/lvgl/src/widgets/lv_slider.h **** {
 1295              		.loc 3 84 20 is_stmt 1 view .LVU423
 1296              	.LBB318:
  86:Drivers/lvgl/src/widgets/lv_slider.h **** }
 1297              		.loc 3 86 5 view .LVU424
 1298 0374 0122     		movs	r2, #1
 1299 0376 411E     		subs	r1, r0, #1
 1300              	.LVL139:
  86:Drivers/lvgl/src/widgets/lv_slider.h **** }
 1301              		.loc 3 86 5 is_stmt 0 view .LVU425
 1302 0378 2846     		mov	r0, r5
 1303 037a FFF7FEFF 		bl	lv_bar_set_value
 1304              	.LVL140:
 1305              	.L62:
  86:Drivers/lvgl/src/widgets/lv_slider.h **** }
 1306              		.loc 3 86 5 view .LVU426
 1307              	.LBE318:
 1308              	.LBE317:
 324:Drivers/lvgl/src/widgets/lv_slider.c ****         if(res != LV_RES_OK) return;
 1309              		.loc 1 324 9 is_stmt 1 view .LVU427
 324:Drivers/lvgl/src/widgets/lv_slider.c ****         if(res != LV_RES_OK) return;
 1310              		.loc 1 324 15 is_stmt 0 view .LVU428
 1311 037e 0022     		movs	r2, #0
 1312 0380 1C21     		movs	r1, #28
 1313 0382 2846     		mov	r0, r5
 1314              	.LBE312:
ARM GAS  /var/folders/0z/tsy30v1j4xl4_7kw94k978ww0000gn/T//ccS0VXUs.s 			page 53


 1315              	.LBE430:
 1316              	.LBE433:
 330:Drivers/lvgl/src/widgets/lv_slider.c **** 
 1317              		.loc 1 330 1 view .LVU429
 1318 0384 33B0     		add	sp, sp, #204
 1319              		.cfi_remember_state
 1320              		.cfi_def_cfa_offset 36
 1321              		@ sp needed
 1322 0386 BDE8F04F 		pop	{r4, r5, r6, r7, r8, r9, r10, fp, lr}
 1323              		.cfi_restore 14
 1324              		.cfi_restore 11
 1325              		.cfi_restore 10
 1326              		.cfi_restore 9
 1327              		.cfi_restore 8
 1328              		.cfi_restore 7
 1329              		.cfi_restore 6
 1330              		.cfi_restore 5
 1331              		.cfi_restore 4
 1332              		.cfi_def_cfa_offset 0
 1333              	.LVL141:
 1334              	.LBB434:
 1335              	.LBB431:
 1336              	.LBB333:
 324:Drivers/lvgl/src/widgets/lv_slider.c ****         if(res != LV_RES_OK) return;
 1337              		.loc 1 324 15 view .LVU430
 1338 038a FFF7FEBF 		b	lv_event_send
 1339              	.LVL142:
 1340              	.L48:
 1341              		.cfi_restore_state
 324:Drivers/lvgl/src/widgets/lv_slider.c ****         if(res != LV_RES_OK) return;
 1342              		.loc 1 324 15 view .LVU431
 1343              	.LBE333:
 286:Drivers/lvgl/src/widgets/lv_slider.c ****     }
 1344              		.loc 1 286 9 is_stmt 1 view .LVU432
 1345 038e 2846     		mov	r0, r5
 1346              	.LBE431:
 1347              	.LBE434:
 330:Drivers/lvgl/src/widgets/lv_slider.c **** 
 1348              		.loc 1 330 1 is_stmt 0 view .LVU433
 1349 0390 33B0     		add	sp, sp, #204
 1350              		.cfi_remember_state
 1351              		.cfi_def_cfa_offset 36
 1352              		@ sp needed
 1353 0392 BDE8F04F 		pop	{r4, r5, r6, r7, r8, r9, r10, fp, lr}
 1354              		.cfi_restore 14
 1355              		.cfi_restore 11
 1356              		.cfi_restore 10
 1357              		.cfi_restore 9
 1358              		.cfi_restore 8
 1359              		.cfi_restore 7
 1360              		.cfi_restore 6
 1361              		.cfi_restore 5
 1362              		.cfi_restore 4
 1363              		.cfi_def_cfa_offset 0
 1364              	.LVL143:
 1365              	.LBB435:
 1366              	.LBB432:
ARM GAS  /var/folders/0z/tsy30v1j4xl4_7kw94k978ww0000gn/T//ccS0VXUs.s 			page 54


 286:Drivers/lvgl/src/widgets/lv_slider.c ****     }
 1367              		.loc 1 286 9 view .LVU434
 1368 0396 FFF7FEBF 		b	lv_obj_refresh_ext_draw_size
 1369              	.LVL144:
 1370              	.L51:
 1371              		.cfi_restore_state
 1372              	.LBB334:
 289:Drivers/lvgl/src/widgets/lv_slider.c ****         lv_coord_t knob_right = lv_obj_get_style_pad_right(obj, LV_PART_KNOB);
 1373              		.loc 1 289 9 is_stmt 1 view .LVU435
 1374              	.LBB335:
 1375              	.LBI335:
 115:Drivers/lvgl/src/widgets/../core/lv_obj_style_gen.h **** {
 1376              		.loc 2 115 26 view .LVU436
 1377              	.LBB336:
 117:Drivers/lvgl/src/widgets/../core/lv_obj_style_gen.h ****     return (lv_coord_t)v.num;
 1378              		.loc 2 117 5 view .LVU437
 117:Drivers/lvgl/src/widgets/../core/lv_obj_style_gen.h ****     return (lv_coord_t)v.num;
 1379              		.loc 2 117 26 is_stmt 0 view .LVU438
 1380 039a 1222     		movs	r2, #18
 1381 039c 4FF44031 		mov	r1, #196608
 1382 03a0 2846     		mov	r0, r5
 1383 03a2 FFF7FEFF 		bl	lv_obj_get_style_prop
 1384              	.LVL145:
 118:Drivers/lvgl/src/widgets/../core/lv_obj_style_gen.h **** }
 1385              		.loc 2 118 5 is_stmt 1 view .LVU439
 1386              	.LBE336:
 1387              	.LBE335:
 1388              	.LBB338:
 1389              	.LBB339:
 123:Drivers/lvgl/src/widgets/../core/lv_obj_style_gen.h ****     return (lv_coord_t)v.num;
 1390              		.loc 2 123 26 is_stmt 0 view .LVU440
 1391 03a6 1322     		movs	r2, #19
 1392 03a8 4FF44031 		mov	r1, #196608
 1393              	.LBE339:
 1394              	.LBE338:
 1395              	.LBB342:
 1396              	.LBB337:
 118:Drivers/lvgl/src/widgets/../core/lv_obj_style_gen.h **** }
 1397              		.loc 2 118 12 view .LVU441
 1398 03ac 04B2     		sxth	r4, r0
 1399              	.LVL146:
 118:Drivers/lvgl/src/widgets/../core/lv_obj_style_gen.h **** }
 1400              		.loc 2 118 12 view .LVU442
 1401              	.LBE337:
 1402              	.LBE342:
 290:Drivers/lvgl/src/widgets/lv_slider.c ****         lv_coord_t knob_top = lv_obj_get_style_pad_top(obj, LV_PART_KNOB);
 1403              		.loc 1 290 9 is_stmt 1 view .LVU443
 1404              	.LBB343:
 1405              	.LBI338:
 121:Drivers/lvgl/src/widgets/../core/lv_obj_style_gen.h **** {
 1406              		.loc 2 121 26 view .LVU444
 1407              	.LBB340:
 123:Drivers/lvgl/src/widgets/../core/lv_obj_style_gen.h ****     return (lv_coord_t)v.num;
 1408              		.loc 2 123 5 view .LVU445
 123:Drivers/lvgl/src/widgets/../core/lv_obj_style_gen.h ****     return (lv_coord_t)v.num;
 1409              		.loc 2 123 26 is_stmt 0 view .LVU446
 1410 03ae 2846     		mov	r0, r5
ARM GAS  /var/folders/0z/tsy30v1j4xl4_7kw94k978ww0000gn/T//ccS0VXUs.s 			page 55


 1411 03b0 FFF7FEFF 		bl	lv_obj_get_style_prop
 1412              	.LVL147:
 124:Drivers/lvgl/src/widgets/../core/lv_obj_style_gen.h **** }
 1413              		.loc 2 124 5 is_stmt 1 view .LVU447
 1414              	.LBE340:
 1415              	.LBE343:
 1416              	.LBB344:
 1417              	.LBB345:
 105:Drivers/lvgl/src/widgets/../core/lv_obj_style_gen.h ****     return (lv_coord_t)v.num;
 1418              		.loc 2 105 26 is_stmt 0 view .LVU448
 1419 03b4 1022     		movs	r2, #16
 1420 03b6 4FF44031 		mov	r1, #196608
 1421              	.LBE345:
 1422              	.LBE344:
 1423              	.LBB348:
 1424              	.LBB341:
 124:Drivers/lvgl/src/widgets/../core/lv_obj_style_gen.h **** }
 1425              		.loc 2 124 12 view .LVU449
 1426 03ba 0FFA80FB 		sxth	fp, r0
 1427              	.LVL148:
 124:Drivers/lvgl/src/widgets/../core/lv_obj_style_gen.h **** }
 1428              		.loc 2 124 12 view .LVU450
 1429              	.LBE341:
 1430              	.LBE348:
 291:Drivers/lvgl/src/widgets/lv_slider.c ****         lv_coord_t knob_bottom = lv_obj_get_style_pad_bottom(obj, LV_PART_KNOB);
 1431              		.loc 1 291 9 is_stmt 1 view .LVU451
 1432              	.LBB349:
 1433              	.LBI344:
 103:Drivers/lvgl/src/widgets/../core/lv_obj_style_gen.h **** {
 1434              		.loc 2 103 26 view .LVU452
 1435              	.LBB346:
 105:Drivers/lvgl/src/widgets/../core/lv_obj_style_gen.h ****     return (lv_coord_t)v.num;
 1436              		.loc 2 105 5 view .LVU453
 105:Drivers/lvgl/src/widgets/../core/lv_obj_style_gen.h ****     return (lv_coord_t)v.num;
 1437              		.loc 2 105 26 is_stmt 0 view .LVU454
 1438 03be 2846     		mov	r0, r5
 1439 03c0 FFF7FEFF 		bl	lv_obj_get_style_prop
 1440              	.LVL149:
 106:Drivers/lvgl/src/widgets/../core/lv_obj_style_gen.h **** }
 1441              		.loc 2 106 5 is_stmt 1 view .LVU455
 1442              	.LBE346:
 1443              	.LBE349:
 1444              	.LBB350:
 1445              	.LBB351:
 111:Drivers/lvgl/src/widgets/../core/lv_obj_style_gen.h ****     return (lv_coord_t)v.num;
 1446              		.loc 2 111 26 is_stmt 0 view .LVU456
 1447 03c4 1122     		movs	r2, #17
 1448 03c6 4FF44031 		mov	r1, #196608
 1449              	.LBE351:
 1450              	.LBE350:
 1451              	.LBB354:
 1452              	.LBB347:
 106:Drivers/lvgl/src/widgets/../core/lv_obj_style_gen.h **** }
 1453              		.loc 2 106 12 view .LVU457
 1454 03ca 0FFA80FA 		sxth	r10, r0
 1455              	.LVL150:
 106:Drivers/lvgl/src/widgets/../core/lv_obj_style_gen.h **** }
ARM GAS  /var/folders/0z/tsy30v1j4xl4_7kw94k978ww0000gn/T//ccS0VXUs.s 			page 56


 1456              		.loc 2 106 12 view .LVU458
 1457              	.LBE347:
 1458              	.LBE354:
 292:Drivers/lvgl/src/widgets/lv_slider.c **** 
 1459              		.loc 1 292 9 is_stmt 1 view .LVU459
 1460              	.LBB355:
 1461              	.LBI350:
 109:Drivers/lvgl/src/widgets/../core/lv_obj_style_gen.h **** {
 1462              		.loc 2 109 26 view .LVU460
 1463              	.LBB352:
 111:Drivers/lvgl/src/widgets/../core/lv_obj_style_gen.h ****     return (lv_coord_t)v.num;
 1464              		.loc 2 111 5 view .LVU461
 111:Drivers/lvgl/src/widgets/../core/lv_obj_style_gen.h ****     return (lv_coord_t)v.num;
 1465              		.loc 2 111 26 is_stmt 0 view .LVU462
 1466 03ce 2846     		mov	r0, r5
 1467 03d0 FFF7FEFF 		bl	lv_obj_get_style_prop
 1468              	.LVL151:
 112:Drivers/lvgl/src/widgets/../core/lv_obj_style_gen.h **** }
 1469              		.loc 2 112 5 is_stmt 1 view .LVU463
 1470              	.LBE352:
 1471              	.LBE355:
 1472              	.LBB356:
 1473              	.LBB357:
  81:Drivers/lvgl/src/widgets/../core/lv_obj_style_gen.h ****     return (lv_coord_t)v.num;
 1474              		.loc 2 81 26 is_stmt 0 view .LVU464
 1475 03d4 6D22     		movs	r2, #109
 1476 03d6 4FF44031 		mov	r1, #196608
 1477              	.LBE357:
 1478              	.LBE356:
 1479              	.LBB360:
 1480              	.LBB353:
 112:Drivers/lvgl/src/widgets/../core/lv_obj_style_gen.h **** }
 1481              		.loc 2 112 12 view .LVU465
 1482 03da 0FFA80F9 		sxth	r9, r0
 1483              	.LVL152:
 112:Drivers/lvgl/src/widgets/../core/lv_obj_style_gen.h **** }
 1484              		.loc 2 112 12 view .LVU466
 1485              	.LBE353:
 1486              	.LBE360:
 295:Drivers/lvgl/src/widgets/lv_slider.c ****         lv_coord_t trans_w = lv_obj_get_style_transform_width(obj, LV_PART_KNOB);
 1487              		.loc 1 295 9 is_stmt 1 view .LVU467
 1488              	.LBB361:
 1489              	.LBI356:
  79:Drivers/lvgl/src/widgets/../core/lv_obj_style_gen.h **** {
 1490              		.loc 2 79 26 view .LVU468
 1491              	.LBB358:
  81:Drivers/lvgl/src/widgets/../core/lv_obj_style_gen.h ****     return (lv_coord_t)v.num;
 1492              		.loc 2 81 5 view .LVU469
  81:Drivers/lvgl/src/widgets/../core/lv_obj_style_gen.h ****     return (lv_coord_t)v.num;
 1493              		.loc 2 81 26 is_stmt 0 view .LVU470
 1494 03de 2846     		mov	r0, r5
 1495 03e0 FFF7FEFF 		bl	lv_obj_get_style_prop
 1496              	.LVL153:
  82:Drivers/lvgl/src/widgets/../core/lv_obj_style_gen.h **** }
 1497              		.loc 2 82 5 is_stmt 1 view .LVU471
 1498              	.LBE358:
 1499              	.LBE361:
ARM GAS  /var/folders/0z/tsy30v1j4xl4_7kw94k978ww0000gn/T//ccS0VXUs.s 			page 57


 1500              	.LBB362:
 1501              	.LBB363:
  57:Drivers/lvgl/src/widgets/../core/lv_obj_style_gen.h ****     return (lv_coord_t)v.num;
 1502              		.loc 2 57 26 is_stmt 0 view .LVU472
 1503 03e4 6922     		movs	r2, #105
 1504 03e6 4FF44031 		mov	r1, #196608
 1505              	.LBE363:
 1506              	.LBE362:
 1507              	.LBB366:
 1508              	.LBB359:
  82:Drivers/lvgl/src/widgets/../core/lv_obj_style_gen.h **** }
 1509              		.loc 2 82 12 view .LVU473
 1510 03ea 07B2     		sxth	r7, r0
 1511              	.LVL154:
  82:Drivers/lvgl/src/widgets/../core/lv_obj_style_gen.h **** }
 1512              		.loc 2 82 12 view .LVU474
 1513              	.LBE359:
 1514              	.LBE366:
 296:Drivers/lvgl/src/widgets/lv_slider.c ****         lv_coord_t trans_h = lv_obj_get_style_transform_height(obj, LV_PART_KNOB);
 1515              		.loc 1 296 9 is_stmt 1 view .LVU475
 1516              	.LBB367:
 1517              	.LBI362:
  55:Drivers/lvgl/src/widgets/../core/lv_obj_style_gen.h **** {
 1518              		.loc 2 55 26 view .LVU476
 1519              	.LBB364:
  57:Drivers/lvgl/src/widgets/../core/lv_obj_style_gen.h ****     return (lv_coord_t)v.num;
 1520              		.loc 2 57 5 view .LVU477
  57:Drivers/lvgl/src/widgets/../core/lv_obj_style_gen.h ****     return (lv_coord_t)v.num;
 1521              		.loc 2 57 26 is_stmt 0 view .LVU478
 1522 03ec 2846     		mov	r0, r5
 1523 03ee FFF7FEFF 		bl	lv_obj_get_style_prop
 1524              	.LVL155:
  58:Drivers/lvgl/src/widgets/../core/lv_obj_style_gen.h **** }
 1525              		.loc 2 58 5 is_stmt 1 view .LVU479
 1526              	.LBE364:
 1527              	.LBE367:
 1528              	.LBB368:
 1529              	.LBB369:
  63:Drivers/lvgl/src/widgets/../core/lv_obj_style_gen.h ****     return (lv_coord_t)v.num;
 1530              		.loc 2 63 26 is_stmt 0 view .LVU480
 1531 03f2 6A22     		movs	r2, #106
 1532              	.LBE369:
 1533              	.LBE368:
 1534              	.LBB372:
 1535              	.LBB365:
  58:Drivers/lvgl/src/widgets/../core/lv_obj_style_gen.h **** }
 1536              		.loc 2 58 12 view .LVU481
 1537 03f4 0FFA80F8 		sxth	r8, r0
 1538              	.LVL156:
  58:Drivers/lvgl/src/widgets/../core/lv_obj_style_gen.h **** }
 1539              		.loc 2 58 12 view .LVU482
 1540              	.LBE365:
 1541              	.LBE372:
 297:Drivers/lvgl/src/widgets/lv_slider.c ****         lv_coord_t knob_size = LV_MIN(lv_obj_get_width(obj) + 2 * trans_w, lv_obj_get_height(obj) +
 1542              		.loc 1 297 9 is_stmt 1 view .LVU483
 1543              	.LBB373:
 1544              	.LBI368:
ARM GAS  /var/folders/0z/tsy30v1j4xl4_7kw94k978ww0000gn/T//ccS0VXUs.s 			page 58


  61:Drivers/lvgl/src/widgets/../core/lv_obj_style_gen.h **** {
 1545              		.loc 2 61 26 view .LVU484
 1546              	.LBB370:
  63:Drivers/lvgl/src/widgets/../core/lv_obj_style_gen.h ****     return (lv_coord_t)v.num;
 1547              		.loc 2 63 5 view .LVU485
  63:Drivers/lvgl/src/widgets/../core/lv_obj_style_gen.h ****     return (lv_coord_t)v.num;
 1548              		.loc 2 63 26 is_stmt 0 view .LVU486
 1549 03f8 4FF44031 		mov	r1, #196608
 1550 03fc 2846     		mov	r0, r5
 1551 03fe FFF7FEFF 		bl	lv_obj_get_style_prop
 1552              	.LVL157:
  64:Drivers/lvgl/src/widgets/../core/lv_obj_style_gen.h **** }
 1553              		.loc 2 64 5 is_stmt 1 view .LVU487
  64:Drivers/lvgl/src/widgets/../core/lv_obj_style_gen.h **** }
 1554              		.loc 2 64 12 is_stmt 0 view .LVU488
 1555 0402 03B2     		sxth	r3, r0
 1556              	.LBE370:
 1557              	.LBE373:
 298:Drivers/lvgl/src/widgets/lv_slider.c ****         knob_size = (knob_size * zoom) >> 8;
 1558              		.loc 1 298 32 view .LVU489
 1559 0404 2846     		mov	r0, r5
 1560              	.LBB374:
 1561              	.LBB371:
  64:Drivers/lvgl/src/widgets/../core/lv_obj_style_gen.h **** }
 1562              		.loc 2 64 12 view .LVU490
 1563 0406 0193     		str	r3, [sp, #4]
 1564              	.LVL158:
  64:Drivers/lvgl/src/widgets/../core/lv_obj_style_gen.h **** }
 1565              		.loc 2 64 12 view .LVU491
 1566              	.LBE371:
 1567              	.LBE374:
 298:Drivers/lvgl/src/widgets/lv_slider.c ****         knob_size = (knob_size * zoom) >> 8;
 1568              		.loc 1 298 9 is_stmt 1 view .LVU492
 298:Drivers/lvgl/src/widgets/lv_slider.c ****         knob_size = (knob_size * zoom) >> 8;
 1569              		.loc 1 298 32 is_stmt 0 view .LVU493
 1570 0408 FFF7FEFF 		bl	lv_obj_get_width
 1571              	.LVL159:
 1572 040c 00EB4802 		add	r2, r0, r8, lsl #1
 1573 0410 2846     		mov	r0, r5
 1574 0412 0092     		str	r2, [sp]
 1575 0414 FFF7FEFF 		bl	lv_obj_get_height
 1576              	.LVL160:
 1577 0418 019B     		ldr	r3, [sp, #4]
 298:Drivers/lvgl/src/widgets/lv_slider.c ****         knob_size = (knob_size * zoom) >> 8;
 1578              		.loc 1 298 20 view .LVU494
 1579 041a 009A     		ldr	r2, [sp]
 298:Drivers/lvgl/src/widgets/lv_slider.c ****         knob_size = (knob_size * zoom) >> 8;
 1580              		.loc 1 298 32 view .LVU495
 1581 041c 00EB4300 		add	r0, r0, r3, lsl #1
 298:Drivers/lvgl/src/widgets/lv_slider.c ****         knob_size = (knob_size * zoom) >> 8;
 1582              		.loc 1 298 20 view .LVU496
 1583 0420 8242     		cmp	r2, r0
 298:Drivers/lvgl/src/widgets/lv_slider.c ****         knob_size = (knob_size * zoom) >> 8;
 1584              		.loc 1 298 32 view .LVU497
 1585 0422 4FEA4808 		lsl	r8, r8, #1
 1586              	.LVL161:
 298:Drivers/lvgl/src/widgets/lv_slider.c ****         knob_size = (knob_size * zoom) >> 8;
ARM GAS  /var/folders/0z/tsy30v1j4xl4_7kw94k978ww0000gn/T//ccS0VXUs.s 			page 59


 1587              		.loc 1 298 32 view .LVU498
 1588 0426 4FEA4303 		lsl	r3, r3, #1
 298:Drivers/lvgl/src/widgets/lv_slider.c ****         knob_size = (knob_size * zoom) >> 8;
 1589              		.loc 1 298 20 view .LVU499
 1590 042a 80F2C480 		bge	.L58
 298:Drivers/lvgl/src/widgets/lv_slider.c ****         knob_size = (knob_size * zoom) >> 8;
 1591              		.loc 1 298 32 view .LVU500
 1592 042e 2846     		mov	r0, r5
 1593 0430 FFF7FEFF 		bl	lv_obj_get_width
 1594              	.LVL162:
 1595 0434 4044     		add	r0, r0, r8
 298:Drivers/lvgl/src/widgets/lv_slider.c ****         knob_size = (knob_size * zoom) >> 8;
 1596              		.loc 1 298 20 view .LVU501
 1597 0436 40F34F08 		sbfx	r8, r0, #1, #16
 1598              	.L59:
 1599              	.LVL163:
 299:Drivers/lvgl/src/widgets/lv_slider.c ****         knob_size += LV_MAX(LV_MAX(knob_left, knob_right), LV_MAX(knob_bottom, knob_top));
 1600              		.loc 1 299 9 is_stmt 1 view .LVU502
 300:Drivers/lvgl/src/widgets/lv_slider.c ****         knob_size += 2;         /*For rounding error*/
 1601              		.loc 1 300 9 view .LVU503
 301:Drivers/lvgl/src/widgets/lv_slider.c ****         knob_size += lv_obj_calculate_ext_draw_size(obj, LV_PART_KNOB);
 1602              		.loc 1 301 9 view .LVU504
 302:Drivers/lvgl/src/widgets/lv_slider.c **** 
 1603              		.loc 1 302 9 view .LVU505
 302:Drivers/lvgl/src/widgets/lv_slider.c **** 
 1604              		.loc 1 302 22 is_stmt 0 view .LVU506
 1605 043a 2846     		mov	r0, r5
 1606 043c 4FF44031 		mov	r1, #196608
 1607 0440 FFF7FEFF 		bl	lv_obj_calculate_ext_draw_size
 1608              	.LVL164:
 1609 0444 0546     		mov	r5, r0
 1610              	.LVL165:
 305:Drivers/lvgl/src/widgets/lv_slider.c ****         *s  = LV_MAX(*s, knob_size);
 1611              		.loc 1 305 26 view .LVU507
 1612 0446 3046     		mov	r0, r6
 1613              	.LVL166:
 305:Drivers/lvgl/src/widgets/lv_slider.c ****         *s  = LV_MAX(*s, knob_size);
 1614              		.loc 1 305 9 is_stmt 1 view .LVU508
 305:Drivers/lvgl/src/widgets/lv_slider.c ****         *s  = LV_MAX(*s, knob_size);
 1615              		.loc 1 305 26 is_stmt 0 view .LVU509
 1616 0448 FFF7FEFF 		bl	lv_event_get_param
 1617              	.LVL167:
 300:Drivers/lvgl/src/widgets/lv_slider.c ****         knob_size += 2;         /*For rounding error*/
 1618              		.loc 1 300 22 view .LVU510
 1619 044c 5C45     		cmp	r4, fp
 1620 044e B8BF     		it	lt
 1621 0450 5C46     		movlt	r4, fp
 1622              	.LVL168:
 300:Drivers/lvgl/src/widgets/lv_slider.c ****         knob_size += 2;         /*For rounding error*/
 1623              		.loc 1 300 22 view .LVU511
 1624 0452 5445     		cmp	r4, r10
 1625 0454 B8BF     		it	lt
 1626 0456 5446     		movlt	r4, r10
 1627 0458 4C45     		cmp	r4, r9
 1628 045a B8BF     		it	lt
 1629 045c 4C46     		movlt	r4, r9
 1630              	.LVL169:
ARM GAS  /var/folders/0z/tsy30v1j4xl4_7kw94k978ww0000gn/T//ccS0VXUs.s 			page 60


 306:Drivers/lvgl/src/widgets/lv_slider.c **** 
 1631              		.loc 1 306 9 is_stmt 1 view .LVU512
 302:Drivers/lvgl/src/widgets/lv_slider.c **** 
 1632              		.loc 1 302 19 is_stmt 0 view .LVU513
 1633 045e A31C     		adds	r3, r4, #2
 1634 0460 2B44     		add	r3, r3, r5
 299:Drivers/lvgl/src/widgets/lv_slider.c ****         knob_size += LV_MAX(LV_MAX(knob_left, knob_right), LV_MAX(knob_bottom, knob_top));
 1635              		.loc 1 299 32 view .LVU514
 1636 0462 08FB07F7 		mul	r7, r8, r7
 1637              	.LVL170:
 306:Drivers/lvgl/src/widgets/lv_slider.c **** 
 1638              		.loc 1 306 15 view .LVU515
 1639 0466 B0F90020 		ldrsh	r2, [r0]
 302:Drivers/lvgl/src/widgets/lv_slider.c **** 
 1640              		.loc 1 302 19 view .LVU516
 1641 046a 03EB2723 		add	r3, r3, r7, asr #8
 306:Drivers/lvgl/src/widgets/lv_slider.c **** 
 1642              		.loc 1 306 15 view .LVU517
 1643 046e 1BB2     		sxth	r3, r3
 1644 0470 9342     		cmp	r3, r2
 1645 0472 B8BF     		it	lt
 1646 0474 1346     		movlt	r3, r2
 306:Drivers/lvgl/src/widgets/lv_slider.c **** 
 1647              		.loc 1 306 13 view .LVU518
 1648 0476 0380     		strh	r3, [r0]	@ movhi
 1649              	.LBE334:
 1650 0478 CBE5     		b	.L13
 1651              	.LVL171:
 1652              	.L52:
 1653              	.LBB375:
 280:Drivers/lvgl/src/widgets/lv_slider.c ****         if(indev_type == LV_INDEV_TYPE_ENCODER || indev_type == LV_INDEV_TYPE_KEYPAD) {
 1654              		.loc 1 280 9 is_stmt 1 view .LVU519
 280:Drivers/lvgl/src/widgets/lv_slider.c ****         if(indev_type == LV_INDEV_TYPE_ENCODER || indev_type == LV_INDEV_TYPE_KEYPAD) {
 1655              		.loc 1 280 56 is_stmt 0 view .LVU520
 1656 047a FFF7FEFF 		bl	lv_indev_get_act
 1657              	.LVL172:
 280:Drivers/lvgl/src/widgets/lv_slider.c ****         if(indev_type == LV_INDEV_TYPE_ENCODER || indev_type == LV_INDEV_TYPE_KEYPAD) {
 1658              		.loc 1 280 38 view .LVU521
 1659 047e FFF7FEFF 		bl	lv_indev_get_type
 1660              	.LVL173:
 281:Drivers/lvgl/src/widgets/lv_slider.c ****             slider->left_knob_focus = 0;
 1661              		.loc 1 281 9 is_stmt 1 view .LVU522
 281:Drivers/lvgl/src/widgets/lv_slider.c ****             slider->left_knob_focus = 0;
 1662              		.loc 1 281 11 is_stmt 0 view .LVU523
 1663 0482 0428     		cmp	r0, #4
 1664 0484 02D0     		beq	.L57
 281:Drivers/lvgl/src/widgets/lv_slider.c ****             slider->left_knob_focus = 0;
 1665              		.loc 1 281 48 view .LVU524
 1666 0486 0228     		cmp	r0, #2
 1667 0488 7FF4C3AD 		bne	.L13
 1668              	.L57:
 282:Drivers/lvgl/src/widgets/lv_slider.c ****         }
 1669              		.loc 1 282 13 is_stmt 1 view .LVU525
 282:Drivers/lvgl/src/widgets/lv_slider.c ****         }
 1670              		.loc 1 282 37 is_stmt 0 view .LVU526
 1671 048c 95F87430 		ldrb	r3, [r5, #116]	@ zero_extendqisi2
 1672 0490 6FF34103 		bfc	r3, #1, #1
ARM GAS  /var/folders/0z/tsy30v1j4xl4_7kw94k978ww0000gn/T//ccS0VXUs.s 			page 61


 1673 0494 85F87430 		strb	r3, [r5, #116]
 1674 0498 BBE5     		b	.L13
 1675              	.LVL174:
 1676              	.L50:
 282:Drivers/lvgl/src/widgets/lv_slider.c ****         }
 1677              		.loc 1 282 37 view .LVU527
 1678              	.LBE375:
 328:Drivers/lvgl/src/widgets/lv_slider.c ****     }
 1679              		.loc 1 328 9 is_stmt 1 view .LVU528
 1680              	.LBB376:
 1681              	.LBI376:
 332:Drivers/lvgl/src/widgets/lv_slider.c **** {
 1682              		.loc 1 332 13 view .LVU529
 1683              	.LBB377:
 334:Drivers/lvgl/src/widgets/lv_slider.c ****     lv_slider_t * slider = (lv_slider_t *)obj;
 1684              		.loc 1 334 5 view .LVU530
 334:Drivers/lvgl/src/widgets/lv_slider.c ****     lv_slider_t * slider = (lv_slider_t *)obj;
 1685              		.loc 1 334 22 is_stmt 0 view .LVU531
 1686 049a 3046     		mov	r0, r6
 1687 049c FFF7FEFF 		bl	lv_event_get_target
 1688              	.LVL175:
 1689 04a0 0446     		mov	r4, r0
 1690              	.LVL176:
 335:Drivers/lvgl/src/widgets/lv_slider.c ****     lv_draw_ctx_t * draw_ctx = lv_event_get_draw_ctx(e);
 1691              		.loc 1 335 5 is_stmt 1 view .LVU532
 336:Drivers/lvgl/src/widgets/lv_slider.c **** 
 1692              		.loc 1 336 5 view .LVU533
 336:Drivers/lvgl/src/widgets/lv_slider.c **** 
 1693              		.loc 1 336 32 is_stmt 0 view .LVU534
 1694 04a2 3046     		mov	r0, r6
 1695              	.LVL177:
 336:Drivers/lvgl/src/widgets/lv_slider.c **** 
 1696              		.loc 1 336 32 view .LVU535
 1697 04a4 FFF7FEFF 		bl	lv_event_get_draw_ctx
 1698              	.LVL178:
 1699              	.LBB378:
 1700              	.LBB379:
 567:Drivers/lvgl/src/widgets/../core/lv_obj_style_gen.h ****     return (lv_base_dir_t)v.num;
 1701              		.loc 2 567 26 view .LVU536
 1702 04a8 1622     		movs	r2, #22
 1703 04aa 0021     		movs	r1, #0
 1704              	.LBE379:
 1705              	.LBE378:
 336:Drivers/lvgl/src/widgets/lv_slider.c **** 
 1706              		.loc 1 336 32 view .LVU537
 1707 04ac 0646     		mov	r6, r0
 1708              	.LVL179:
 1709              	.LBB383:
 1710              	.LBB380:
 567:Drivers/lvgl/src/widgets/../core/lv_obj_style_gen.h ****     return (lv_base_dir_t)v.num;
 1711              		.loc 2 567 26 view .LVU538
 1712 04ae 2046     		mov	r0, r4
 1713              	.LVL180:
 567:Drivers/lvgl/src/widgets/../core/lv_obj_style_gen.h ****     return (lv_base_dir_t)v.num;
 1714              		.loc 2 567 26 view .LVU539
 1715              	.LBE380:
 1716              	.LBE383:
ARM GAS  /var/folders/0z/tsy30v1j4xl4_7kw94k978ww0000gn/T//ccS0VXUs.s 			page 62


 338:Drivers/lvgl/src/widgets/lv_slider.c ****     const bool is_horizontal = is_slider_horizontal(obj);
 1717              		.loc 1 338 5 is_stmt 1 view .LVU540
 1718              	.LBB384:
 1719              	.LBI378:
 565:Drivers/lvgl/src/widgets/../core/lv_obj_style_gen.h **** {
 1720              		.loc 2 565 29 view .LVU541
 1721              	.LBB381:
 567:Drivers/lvgl/src/widgets/../core/lv_obj_style_gen.h ****     return (lv_base_dir_t)v.num;
 1722              		.loc 2 567 5 view .LVU542
 567:Drivers/lvgl/src/widgets/../core/lv_obj_style_gen.h ****     return (lv_base_dir_t)v.num;
 1723              		.loc 2 567 26 is_stmt 0 view .LVU543
 1724 04b0 FFF7FEFF 		bl	lv_obj_get_style_prop
 1725              	.LVL181:
 1726              		.loc 2 568 5 is_stmt 1 view .LVU544
 567:Drivers/lvgl/src/widgets/../core/lv_obj_style_gen.h ****     return (lv_base_dir_t)v.num;
 1727              		.loc 2 567 26 is_stmt 0 view .LVU545
 1728 04b4 8146     		mov	r9, r0
 1729              	.LBE381:
 1730              	.LBE384:
 1731              	.LBB385:
 1732              	.LBB386:
 1733              		.loc 1 444 12 view .LVU546
 1734 04b6 2046     		mov	r0, r4
 1735 04b8 FFF7FEFF 		bl	lv_obj_get_width
 1736              	.LVL182:
 1737 04bc 8046     		mov	r8, r0
 1738              		.loc 1 444 37 view .LVU547
 1739 04be 2046     		mov	r0, r4
 1740 04c0 FFF7FEFF 		bl	lv_obj_get_height
 1741              	.LVL183:
 1742              	.LBE386:
 1743              	.LBE385:
 344:Drivers/lvgl/src/widgets/lv_slider.c ****        slider->bar.max_value > 0) is_symmetrical = true;
 1744              		.loc 1 344 25 view .LVU548
 1745 04c4 94F85C30 		ldrb	r3, [r4, #92]	@ zero_extendqisi2
 1746              	.LBB391:
 1747              	.LBB387:
 1748              		.loc 1 444 34 view .LVU549
 1749 04c8 8045     		cmp	r8, r0
 1750              	.LBE387:
 1751              	.LBE391:
 344:Drivers/lvgl/src/widgets/lv_slider.c ****        slider->bar.max_value > 0) is_symmetrical = true;
 1752              		.loc 1 344 7 view .LVU550
 1753 04ca 03F00303 		and	r3, r3, #3
 1754              	.LBB392:
 1755              	.LBB388:
 1756              		.loc 1 444 34 view .LVU551
 1757 04ce B4BF     		ite	lt
 1758 04d0 4FF0000A 		movlt	r10, #0
 1759 04d4 4FF0010A 		movge	r10, #1
 1760              	.LBE388:
 1761              	.LBE392:
 344:Drivers/lvgl/src/widgets/lv_slider.c ****        slider->bar.max_value > 0) is_symmetrical = true;
 1762              		.loc 1 344 7 view .LVU552
 1763 04d8 012B     		cmp	r3, #1
 1764              	.LBB393:
 1765              	.LBB382:
ARM GAS  /var/folders/0z/tsy30v1j4xl4_7kw94k978ww0000gn/T//ccS0VXUs.s 			page 63


 1766              		.loc 2 568 12 view .LVU553
 1767 04da 5FFA89F9 		uxtb	r9, r9
 1768              	.LVL184:
 1769              		.loc 2 568 12 view .LVU554
 1770              	.LBE382:
 1771              	.LBE393:
 339:Drivers/lvgl/src/widgets/lv_slider.c **** 
 1772              		.loc 1 339 5 is_stmt 1 view .LVU555
 1773              	.LBB394:
 1774              	.LBI385:
 442:Drivers/lvgl/src/widgets/lv_slider.c **** {
 1775              		.loc 1 442 13 view .LVU556
 1776              	.LBB389:
 1777              		.loc 1 444 5 view .LVU557
 1778              		.loc 1 444 5 is_stmt 0 view .LVU558
 1779              	.LBE389:
 1780              	.LBE394:
 341:Drivers/lvgl/src/widgets/lv_slider.c ****     lv_coord_t knob_size;
 1781              		.loc 1 341 5 is_stmt 1 view .LVU559
 342:Drivers/lvgl/src/widgets/lv_slider.c ****     bool is_symmetrical = false;
 1782              		.loc 1 342 5 view .LVU560
 343:Drivers/lvgl/src/widgets/lv_slider.c ****     if(slider->bar.mode == LV_BAR_MODE_SYMMETRICAL && slider->bar.min_value < 0 &&
 1783              		.loc 1 343 5 view .LVU561
 344:Drivers/lvgl/src/widgets/lv_slider.c ****        slider->bar.max_value > 0) is_symmetrical = true;
 1784              		.loc 1 344 5 view .LVU562
 1785              	.LBB395:
 1786              	.LBB390:
 1787              		.loc 1 444 37 is_stmt 0 view .LVU563
 1788 04de 0746     		mov	r7, r0
 1789              	.LBE390:
 1790              	.LBE395:
 344:Drivers/lvgl/src/widgets/lv_slider.c ****        slider->bar.max_value > 0) is_symmetrical = true;
 1791              		.loc 1 344 7 view .LVU564
 1792 04e0 49D0     		beq	.L132
 1793              	.L65:
 347:Drivers/lvgl/src/widgets/lv_slider.c ****         knob_size = lv_obj_get_height(obj);
 1794              		.loc 1 347 5 is_stmt 1 view .LVU565
 348:Drivers/lvgl/src/widgets/lv_slider.c ****         if(is_symmetrical && slider->bar.cur_value < 0) knob_area.x1 = slider->bar.indic_area.x1;
 1795              		.loc 1 348 21 is_stmt 0 view .LVU566
 1796 04e2 2046     		mov	r0, r4
 1797              	.LVL185:
 1798              	.L122:
 347:Drivers/lvgl/src/widgets/lv_slider.c ****         knob_size = lv_obj_get_height(obj);
 1799              		.loc 1 347 7 view .LVU567
 1800 04e4 B845     		cmp	r8, r7
 1801 04e6 6FDB     		blt	.L75
 348:Drivers/lvgl/src/widgets/lv_slider.c ****         if(is_symmetrical && slider->bar.cur_value < 0) knob_area.x1 = slider->bar.indic_area.x1;
 1802              		.loc 1 348 9 is_stmt 1 view .LVU568
 348:Drivers/lvgl/src/widgets/lv_slider.c ****         if(is_symmetrical && slider->bar.cur_value < 0) knob_area.x1 = slider->bar.indic_area.x1;
 1803              		.loc 1 348 21 is_stmt 0 view .LVU569
 1804 04e8 FFF7FEFF 		bl	lv_obj_get_height
 1805              	.LVL186:
 348:Drivers/lvgl/src/widgets/lv_slider.c ****         if(is_symmetrical && slider->bar.cur_value < 0) knob_area.x1 = slider->bar.indic_area.x1;
 1806              		.loc 1 348 21 view .LVU570
 1807 04ec 0546     		mov	r5, r0
 1808              	.LVL187:
 349:Drivers/lvgl/src/widgets/lv_slider.c ****         else knob_area.x1 = LV_SLIDER_KNOB_COORD(is_rtl, slider->bar.indic_area);
ARM GAS  /var/folders/0z/tsy30v1j4xl4_7kw94k978ww0000gn/T//ccS0VXUs.s 			page 64


 1809              		.loc 1 349 9 is_stmt 1 view .LVU571
 1810              	.L70:
 350:Drivers/lvgl/src/widgets/lv_slider.c ****     }
 1811              		.loc 1 350 14 view .LVU572
 350:Drivers/lvgl/src/widgets/lv_slider.c ****     }
 1812              		.loc 1 350 27 is_stmt 0 view .LVU573
 1813 04ee B9F1010F 		cmp	r9, #1
 1814 04f2 0CBF     		ite	eq
 1815 04f4 B4F93430 		ldrsheq	r3, [r4, #52]
 1816 04f8 B4F93830 		ldrshne	r3, [r4, #56]
 1817 04fc ADF80830 		strh	r3, [sp, #8]	@ movhi
 1818              	.L76:
 358:Drivers/lvgl/src/widgets/lv_slider.c ****     lv_draw_rect_dsc_init(&knob_rect_dsc);
 1819              		.loc 1 358 5 is_stmt 1 view .LVU574
 359:Drivers/lvgl/src/widgets/lv_slider.c ****     lv_obj_init_draw_rect_dsc(obj, LV_PART_KNOB, &knob_rect_dsc);
 1820              		.loc 1 359 5 view .LVU575
 1821 0500 04A8     		add	r0, sp, #16
 1822 0502 FFF7FEFF 		bl	lv_draw_rect_dsc_init
 1823              	.LVL188:
 360:Drivers/lvgl/src/widgets/lv_slider.c ****     /* Update knob area with knob style */
 1824              		.loc 1 360 5 view .LVU576
 1825 0506 04AA     		add	r2, sp, #16
 1826 0508 4FF44031 		mov	r1, #196608
 1827 050c 2046     		mov	r0, r4
 1828 050e FFF7FEFF 		bl	lv_obj_init_draw_rect_dsc
 1829              	.LVL189:
 362:Drivers/lvgl/src/widgets/lv_slider.c ****     /* Update right knob area with calculated knob area */
 1830              		.loc 1 362 5 view .LVU577
 1831 0512 2A46     		mov	r2, r5
 1832 0514 5346     		mov	r3, r10
 1833 0516 02A9     		add	r1, sp, #8
 1834 0518 2046     		mov	r0, r4
 1835 051a FFF7FEFF 		bl	position_knob
 1836              	.LVL190:
 364:Drivers/lvgl/src/widgets/lv_slider.c **** 
 1837              		.loc 1 364 5 view .LVU578
 1838              	.LBB396:
 1839              	.LBB397:
 112:Drivers/lvgl/src/widgets/../core/../misc/../font/../misc/lv_area.h ****     dest->y1 = src->y1;
 1840              		.loc 4 112 19 is_stmt 0 view .LVU579
 1841 051e 039B     		ldr	r3, [sp, #12]
 112:Drivers/lvgl/src/widgets/../core/../misc/../font/../misc/lv_area.h ****     dest->y1 = src->y1;
 1842              		.loc 4 112 14 view .LVU580
 1843 0520 E366     		str	r3, [r4, #108]	@ unaligned
 1844 0522 029B     		ldr	r3, [sp, #8]
 1845 0524 A366     		str	r3, [r4, #104]	@ unaligned
 1846              	.LBE397:
 1847              	.LBE396:
 367:Drivers/lvgl/src/widgets/lv_slider.c ****     part_draw_dsc.part = LV_PART_KNOB;
 1848              		.loc 1 367 5 view .LVU581
 1849 0526 3146     		mov	r1, r6
 1850 0528 20A8     		add	r0, sp, #128
 1851 052a FFF7FEFF 		bl	lv_obj_draw_dsc_init
 1852              	.LVL191:
 373:Drivers/lvgl/src/widgets/lv_slider.c **** 
 1853              		.loc 1 373 28 view .LVU582
 1854 052e 04AB     		add	r3, sp, #16
ARM GAS  /var/folders/0z/tsy30v1j4xl4_7kw94k978ww0000gn/T//ccS0VXUs.s 			page 65


 1855 0530 2493     		str	r3, [sp, #144]
 370:Drivers/lvgl/src/widgets/lv_slider.c ****     part_draw_dsc.id = 0;
 1856              		.loc 1 370 24 view .LVU583
 1857 0532 0023     		movs	r3, #0
 1858 0534 2293     		str	r3, [sp, #136]
 371:Drivers/lvgl/src/widgets/lv_slider.c ****     part_draw_dsc.draw_area = &slider->right_knob_area;
 1859              		.loc 1 371 22 view .LVU584
 1860 0536 2E93     		str	r3, [sp, #184]
 369:Drivers/lvgl/src/widgets/lv_slider.c ****     part_draw_dsc.type = LV_SLIDER_DRAW_PART_KNOB;
 1861              		.loc 1 369 27 view .LVU585
 1862 0538 9D4B     		ldr	r3, .L137
 1863 053a 2193     		str	r3, [sp, #132]
 364:Drivers/lvgl/src/widgets/lv_slider.c **** 
 1864              		.loc 1 364 5 view .LVU586
 1865 053c 04F1680B 		add	fp, r4, #104
 1866              	.LVL192:
 1867              	.LBB399:
 1868              	.LBI396:
 110:Drivers/lvgl/src/widgets/../core/../misc/../font/../misc/lv_area.h **** {
 1869              		.loc 4 110 20 is_stmt 1 view .LVU587
 1870              	.LBB398:
 112:Drivers/lvgl/src/widgets/../core/../misc/../font/../misc/lv_area.h ****     dest->y1 = src->y1;
 1871              		.loc 4 112 5 view .LVU588
 113:Drivers/lvgl/src/widgets/../core/../misc/../font/../misc/lv_area.h ****     dest->x2 = src->x2;
 1872              		.loc 4 113 5 view .LVU589
 114:Drivers/lvgl/src/widgets/../core/../misc/../font/../misc/lv_area.h ****     dest->y2 = src->y2;
 1873              		.loc 4 114 5 view .LVU590
 1874              		.loc 4 115 5 view .LVU591
 1875              		.loc 4 115 5 is_stmt 0 view .LVU592
 1876              	.LBE398:
 1877              	.LBE399:
 366:Drivers/lvgl/src/widgets/lv_slider.c ****     lv_obj_draw_dsc_init(&part_draw_dsc, draw_ctx);
 1878              		.loc 1 366 5 is_stmt 1 view .LVU593
 367:Drivers/lvgl/src/widgets/lv_slider.c ****     part_draw_dsc.part = LV_PART_KNOB;
 1879              		.loc 1 367 5 view .LVU594
 368:Drivers/lvgl/src/widgets/lv_slider.c ****     part_draw_dsc.class_p = MY_CLASS;
 1880              		.loc 1 368 5 view .LVU595
 368:Drivers/lvgl/src/widgets/lv_slider.c ****     part_draw_dsc.class_p = MY_CLASS;
 1881              		.loc 1 368 24 is_stmt 0 view .LVU596
 1882 0540 4FF44033 		mov	r3, #196608
 1883              	.LBB400:
 1884              	.LBB401:
 179:Drivers/lvgl/src/widgets/lv_slider.h ****     if(mode == LV_BAR_MODE_SYMMETRICAL) return LV_SLIDER_MODE_SYMMETRICAL;
 1885              		.loc 3 179 26 view .LVU597
 1886 0544 2046     		mov	r0, r4
 1887              	.LBE401:
 1888              	.LBE400:
 372:Drivers/lvgl/src/widgets/lv_slider.c ****     part_draw_dsc.rect_dsc = &knob_rect_dsc;
 1889              		.loc 1 372 29 view .LVU598
 1890 0546 CDF88CB0 		str	fp, [sp, #140]
 368:Drivers/lvgl/src/widgets/lv_slider.c ****     part_draw_dsc.class_p = MY_CLASS;
 1891              		.loc 1 368 24 view .LVU599
 1892 054a 2D93     		str	r3, [sp, #180]
 369:Drivers/lvgl/src/widgets/lv_slider.c ****     part_draw_dsc.type = LV_SLIDER_DRAW_PART_KNOB;
 1893              		.loc 1 369 5 is_stmt 1 view .LVU600
 370:Drivers/lvgl/src/widgets/lv_slider.c ****     part_draw_dsc.id = 0;
 1894              		.loc 1 370 5 view .LVU601
ARM GAS  /var/folders/0z/tsy30v1j4xl4_7kw94k978ww0000gn/T//ccS0VXUs.s 			page 66


 371:Drivers/lvgl/src/widgets/lv_slider.c ****     part_draw_dsc.draw_area = &slider->right_knob_area;
 1895              		.loc 1 371 5 view .LVU602
 372:Drivers/lvgl/src/widgets/lv_slider.c ****     part_draw_dsc.rect_dsc = &knob_rect_dsc;
 1896              		.loc 1 372 5 view .LVU603
 373:Drivers/lvgl/src/widgets/lv_slider.c **** 
 1897              		.loc 1 373 5 view .LVU604
 375:Drivers/lvgl/src/widgets/lv_slider.c ****         lv_event_send(obj, LV_EVENT_DRAW_PART_BEGIN, &part_draw_dsc);
 1898              		.loc 1 375 5 view .LVU605
 1899              	.LVL193:
 1900              	.LBB403:
 1901              	.LBI400:
 177:Drivers/lvgl/src/widgets/lv_slider.h **** {
 1902              		.loc 3 177 32 view .LVU606
 1903              	.LBB402:
 179:Drivers/lvgl/src/widgets/lv_slider.h ****     if(mode == LV_BAR_MODE_SYMMETRICAL) return LV_SLIDER_MODE_SYMMETRICAL;
 1904              		.loc 3 179 5 view .LVU607
 179:Drivers/lvgl/src/widgets/lv_slider.h ****     if(mode == LV_BAR_MODE_SYMMETRICAL) return LV_SLIDER_MODE_SYMMETRICAL;
 1905              		.loc 3 179 26 is_stmt 0 view .LVU608
 1906 054c FFF7FEFF 		bl	lv_bar_get_mode
 1907              	.LVL194:
 180:Drivers/lvgl/src/widgets/lv_slider.h ****     else if(mode == LV_BAR_MODE_RANGE) return LV_SLIDER_MODE_RANGE;
 1908              		.loc 3 180 5 is_stmt 1 view .LVU609
 181:Drivers/lvgl/src/widgets/lv_slider.h ****     else return LV_SLIDER_MODE_NORMAL;
 1909              		.loc 3 181 10 view .LVU610
 181:Drivers/lvgl/src/widgets/lv_slider.h ****     else return LV_SLIDER_MODE_NORMAL;
 1910              		.loc 3 181 12 is_stmt 0 view .LVU611
 1911 0550 0228     		cmp	r0, #2
 1912 0552 00F0AA80 		beq	.L133
 1913              	.LVL195:
 181:Drivers/lvgl/src/widgets/lv_slider.h ****     else return LV_SLIDER_MODE_NORMAL;
 1914              		.loc 3 181 12 view .LVU612
 1915              	.LBE402:
 1916              	.LBE403:
 376:Drivers/lvgl/src/widgets/lv_slider.c ****         lv_draw_rect(draw_ctx, &knob_rect_dsc, &slider->right_knob_area);
 1917              		.loc 1 376 9 is_stmt 1 view .LVU613
 1918 0556 20AA     		add	r2, sp, #128
 1919 0558 2046     		mov	r0, r4
 1920 055a 1A21     		movs	r1, #26
 1921 055c FFF7FEFF 		bl	lv_event_send
 1922              	.LVL196:
 377:Drivers/lvgl/src/widgets/lv_slider.c ****         lv_event_send(obj, LV_EVENT_DRAW_PART_END, &part_draw_dsc);
 1923              		.loc 1 377 9 view .LVU614
 1924 0560 5A46     		mov	r2, fp
 1925              	.LVL197:
 1926              	.L114:
 1927              	.LBB404:
 407:Drivers/lvgl/src/widgets/lv_slider.c ****         lv_event_send(obj, LV_EVENT_DRAW_PART_END, &part_draw_dsc);
 1928              		.loc 1 407 9 is_stmt 0 view .LVU615
 1929 0562 04A9     		add	r1, sp, #16
 1930 0564 3046     		mov	r0, r6
 1931 0566 FFF7FEFF 		bl	lv_draw_rect
 1932              	.LVL198:
 408:Drivers/lvgl/src/widgets/lv_slider.c ****     }
 1933              		.loc 1 408 9 is_stmt 1 view .LVU616
 1934 056a 20AA     		add	r2, sp, #128
 1935 056c 1B21     		movs	r1, #27
 1936 056e 2046     		mov	r0, r4
ARM GAS  /var/folders/0z/tsy30v1j4xl4_7kw94k978ww0000gn/T//ccS0VXUs.s 			page 67


 1937 0570 FFF7FEFF 		bl	lv_event_send
 1938              	.LVL199:
 408:Drivers/lvgl/src/widgets/lv_slider.c ****     }
 1939              		.loc 1 408 9 is_stmt 0 view .LVU617
 1940              	.LBE404:
 410:Drivers/lvgl/src/widgets/lv_slider.c **** 
 1941              		.loc 1 410 1 view .LVU618
 1942 0574 4DE5     		b	.L13
 1943              	.LVL200:
 1944              	.L132:
 344:Drivers/lvgl/src/widgets/lv_slider.c ****        slider->bar.max_value > 0) is_symmetrical = true;
 1945              		.loc 1 344 52 view .LVU619
 1946 0576 A36A     		ldr	r3, [r4, #40]
 1947 0578 002B     		cmp	r3, #0
 1948 057a B2DA     		bge	.L65
 344:Drivers/lvgl/src/widgets/lv_slider.c ****        slider->bar.max_value > 0) is_symmetrical = true;
 1949              		.loc 1 344 81 view .LVU620
 1950 057c E36A     		ldr	r3, [r4, #44]
 1951 057e 002B     		cmp	r3, #0
 348:Drivers/lvgl/src/widgets/lv_slider.c ****         if(is_symmetrical && slider->bar.cur_value < 0) knob_area.x1 = slider->bar.indic_area.x1;
 1952              		.loc 1 348 21 view .LVU621
 1953 0580 2046     		mov	r0, r4
 344:Drivers/lvgl/src/widgets/lv_slider.c ****        slider->bar.max_value > 0) is_symmetrical = true;
 1954              		.loc 1 344 81 view .LVU622
 1955 0582 AFDD     		ble	.L122
 1956              	.LVL201:
 345:Drivers/lvgl/src/widgets/lv_slider.c **** 
 1957              		.loc 1 345 35 is_stmt 1 view .LVU623
 347:Drivers/lvgl/src/widgets/lv_slider.c ****         knob_size = lv_obj_get_height(obj);
 1958              		.loc 1 347 5 view .LVU624
 347:Drivers/lvgl/src/widgets/lv_slider.c ****         knob_size = lv_obj_get_height(obj);
 1959              		.loc 1 347 7 is_stmt 0 view .LVU625
 1960 0584 B845     		cmp	r8, r7
 1961 0586 52DB     		blt	.L68
 348:Drivers/lvgl/src/widgets/lv_slider.c ****         if(is_symmetrical && slider->bar.cur_value < 0) knob_area.x1 = slider->bar.indic_area.x1;
 1962              		.loc 1 348 9 is_stmt 1 view .LVU626
 348:Drivers/lvgl/src/widgets/lv_slider.c ****         if(is_symmetrical && slider->bar.cur_value < 0) knob_area.x1 = slider->bar.indic_area.x1;
 1963              		.loc 1 348 21 is_stmt 0 view .LVU627
 1964 0588 FFF7FEFF 		bl	lv_obj_get_height
 1965              	.LVL202:
 349:Drivers/lvgl/src/widgets/lv_slider.c ****         else knob_area.x1 = LV_SLIDER_KNOB_COORD(is_rtl, slider->bar.indic_area);
 1966              		.loc 1 349 27 view .LVU628
 1967 058c 636A     		ldr	r3, [r4, #36]
 1968 058e 002B     		cmp	r3, #0
 348:Drivers/lvgl/src/widgets/lv_slider.c ****         if(is_symmetrical && slider->bar.cur_value < 0) knob_area.x1 = slider->bar.indic_area.x1;
 1969              		.loc 1 348 21 view .LVU629
 1970 0590 0546     		mov	r5, r0
 1971              	.LVL203:
 349:Drivers/lvgl/src/widgets/lv_slider.c ****         else knob_area.x1 = LV_SLIDER_KNOB_COORD(is_rtl, slider->bar.indic_area);
 1972              		.loc 1 349 9 is_stmt 1 view .LVU630
 349:Drivers/lvgl/src/widgets/lv_slider.c ****         else knob_area.x1 = LV_SLIDER_KNOB_COORD(is_rtl, slider->bar.indic_area);
 1973              		.loc 1 349 27 is_stmt 0 view .LVU631
 1974 0592 ACDA     		bge	.L70
 349:Drivers/lvgl/src/widgets/lv_slider.c ****         else knob_area.x1 = LV_SLIDER_KNOB_COORD(is_rtl, slider->bar.indic_area);
 1975              		.loc 1 349 57 is_stmt 1 view .LVU632
 349:Drivers/lvgl/src/widgets/lv_slider.c ****         else knob_area.x1 = LV_SLIDER_KNOB_COORD(is_rtl, slider->bar.indic_area);
 1976              		.loc 1 349 70 is_stmt 0 view .LVU633
ARM GAS  /var/folders/0z/tsy30v1j4xl4_7kw94k978ww0000gn/T//ccS0VXUs.s 			page 68


 1977 0594 A38E     		ldrh	r3, [r4, #52]
 1978 0596 ADF80830 		strh	r3, [sp, #8]	@ movhi
 1979 059a B1E7     		b	.L76
 1980              	.LVL204:
 1981              	.L131:
 349:Drivers/lvgl/src/widgets/lv_slider.c ****         else knob_area.x1 = LV_SLIDER_KNOB_COORD(is_rtl, slider->bar.indic_area);
 1982              		.loc 1 349 70 view .LVU634
 1983              	.LBE377:
 1984              	.LBE376:
 1985              	.LBB415:
 313:Drivers/lvgl/src/widgets/lv_slider.c ****             else lv_slider_set_left_value(obj, lv_slider_get_left_value(obj) + 1, LV_ANIM_ON);
 1986              		.loc 1 313 13 is_stmt 1 view .LVU635
 313:Drivers/lvgl/src/widgets/lv_slider.c ****             else lv_slider_set_left_value(obj, lv_slider_get_left_value(obj) + 1, LV_ANIM_ON);
 1987              		.loc 1 313 16 is_stmt 0 view .LVU636
 1988 059c 95F87430 		ldrb	r3, [r5, #116]	@ zero_extendqisi2
 1989              	.LVL205:
 313:Drivers/lvgl/src/widgets/lv_slider.c ****             else lv_slider_set_left_value(obj, lv_slider_get_left_value(obj) + 1, LV_ANIM_ON);
 1990              		.loc 1 313 15 view .LVU637
 1991 05a0 9A07     		lsls	r2, r3, #30
 1992              	.LBB319:
 1993              	.LBB320:
 132:Drivers/lvgl/src/widgets/lv_slider.h **** }
 1994              		.loc 3 132 12 view .LVU638
 1995 05a2 2846     		mov	r0, r5
 1996              	.LVL206:
