ARM GAS  /var/folders/lp/x54gwt890xv47sdkqj1k04q40000gn/T//ccdiwc3F.s 			page 1


   1              		.cpu cortex-m4
   2              		.arch armv7e-m
   3              		.fpu fpv4-sp-d16
   4              		.eabi_attribute 27, 1
   5              		.eabi_attribute 28, 1
   6              		.eabi_attribute 20, 1
   7              		.eabi_attribute 21, 1
   8              		.eabi_attribute 23, 3
   9              		.eabi_attribute 24, 1
  10              		.eabi_attribute 25, 1
  11              		.eabi_attribute 26, 1
  12              		.eabi_attribute 30, 2
  13              		.eabi_attribute 34, 1
  14              		.eabi_attribute 18, 4
  15              		.file	"lv_style_gen.c"
  16              		.text
  17              	.Ltext0:
  18              		.cfi_sections	.debug_frame
  19              		.file 1 "Drivers/lvgl/src/misc/lv_style_gen.c"
  20              		.section	.text.lv_style_set_width,"ax",%progbits
  21              		.align	1
  22              		.p2align 2,,3
  23              		.global	lv_style_set_width
  24              		.syntax unified
  25              		.thumb
  26              		.thumb_func
  28              	lv_style_set_width:
  29              	.LVL0:
  30              	.LFB54:
   1:Drivers/lvgl/src/misc/lv_style_gen.c **** #include "lv_style.h"
   2:Drivers/lvgl/src/misc/lv_style_gen.c **** 
   3:Drivers/lvgl/src/misc/lv_style_gen.c **** void lv_style_set_width(lv_style_t * style, lv_coord_t value)
   4:Drivers/lvgl/src/misc/lv_style_gen.c **** {
  31              		.loc 1 4 1 view -0
  32              		.cfi_startproc
  33              		@ args = 0, pretend = 0, frame = 0
  34              		@ frame_needed = 0, uses_anonymous_args = 0
  35              		@ link register save eliminated.
   5:Drivers/lvgl/src/misc/lv_style_gen.c ****     lv_style_value_t v = {
  36              		.loc 1 5 5 view .LVU1
   6:Drivers/lvgl/src/misc/lv_style_gen.c ****         .num = (int32_t)value
   7:Drivers/lvgl/src/misc/lv_style_gen.c ****     };
   8:Drivers/lvgl/src/misc/lv_style_gen.c ****     lv_style_set_prop(style, LV_STYLE_WIDTH, v);
  37              		.loc 1 8 5 view .LVU2
   4:Drivers/lvgl/src/misc/lv_style_gen.c ****     lv_style_value_t v = {
  38              		.loc 1 4 1 is_stmt 0 view .LVU3
  39 0000 0A46     		mov	r2, r1
  40              		.loc 1 8 5 view .LVU4
  41 0002 0121     		movs	r1, #1
  42              	.LVL1:
  43              		.loc 1 8 5 view .LVU5
  44 0004 FFF7FEBF 		b	lv_style_set_prop
  45              	.LVL2:
  46              		.loc 1 8 5 view .LVU6
  47              		.cfi_endproc
  48              	.LFE54:
  50              		.section	.text.lv_style_set_min_width,"ax",%progbits
ARM GAS  /var/folders/lp/x54gwt890xv47sdkqj1k04q40000gn/T//ccdiwc3F.s 			page 2


  51              		.align	1
  52              		.p2align 2,,3
  53              		.global	lv_style_set_min_width
  54              		.syntax unified
  55              		.thumb
  56              		.thumb_func
  58              	lv_style_set_min_width:
  59              	.LVL3:
  60              	.LFB55:
   9:Drivers/lvgl/src/misc/lv_style_gen.c **** }
  10:Drivers/lvgl/src/misc/lv_style_gen.c **** 
  11:Drivers/lvgl/src/misc/lv_style_gen.c **** void lv_style_set_min_width(lv_style_t * style, lv_coord_t value)
  12:Drivers/lvgl/src/misc/lv_style_gen.c **** {
  61              		.loc 1 12 1 is_stmt 1 view -0
  62              		.cfi_startproc
  63              		@ args = 0, pretend = 0, frame = 0
  64              		@ frame_needed = 0, uses_anonymous_args = 0
  65              		@ link register save eliminated.
  13:Drivers/lvgl/src/misc/lv_style_gen.c ****     lv_style_value_t v = {
  66              		.loc 1 13 5 view .LVU8
  14:Drivers/lvgl/src/misc/lv_style_gen.c ****         .num = (int32_t)value
  15:Drivers/lvgl/src/misc/lv_style_gen.c ****     };
  16:Drivers/lvgl/src/misc/lv_style_gen.c ****     lv_style_set_prop(style, LV_STYLE_MIN_WIDTH, v);
  67              		.loc 1 16 5 view .LVU9
  12:Drivers/lvgl/src/misc/lv_style_gen.c ****     lv_style_value_t v = {
  68              		.loc 1 12 1 is_stmt 0 view .LVU10
  69 0000 0A46     		mov	r2, r1
  70              		.loc 1 16 5 view .LVU11
  71 0002 0221     		movs	r1, #2
  72              	.LVL4:
  73              		.loc 1 16 5 view .LVU12
  74 0004 FFF7FEBF 		b	lv_style_set_prop
  75              	.LVL5:
  76              		.loc 1 16 5 view .LVU13
  77              		.cfi_endproc
  78              	.LFE55:
  80              		.section	.text.lv_style_set_max_width,"ax",%progbits
  81              		.align	1
  82              		.p2align 2,,3
  83              		.global	lv_style_set_max_width
  84              		.syntax unified
  85              		.thumb
  86              		.thumb_func
  88              	lv_style_set_max_width:
  89              	.LVL6:
  90              	.LFB56:
  17:Drivers/lvgl/src/misc/lv_style_gen.c **** }
  18:Drivers/lvgl/src/misc/lv_style_gen.c **** 
  19:Drivers/lvgl/src/misc/lv_style_gen.c **** void lv_style_set_max_width(lv_style_t * style, lv_coord_t value)
  20:Drivers/lvgl/src/misc/lv_style_gen.c **** {
  91              		.loc 1 20 1 is_stmt 1 view -0
  92              		.cfi_startproc
  93              		@ args = 0, pretend = 0, frame = 0
  94              		@ frame_needed = 0, uses_anonymous_args = 0
  95              		@ link register save eliminated.
  21:Drivers/lvgl/src/misc/lv_style_gen.c ****     lv_style_value_t v = {
  96              		.loc 1 21 5 view .LVU15
ARM GAS  /var/folders/lp/x54gwt890xv47sdkqj1k04q40000gn/T//ccdiwc3F.s 			page 3


  22:Drivers/lvgl/src/misc/lv_style_gen.c ****         .num = (int32_t)value
  23:Drivers/lvgl/src/misc/lv_style_gen.c ****     };
  24:Drivers/lvgl/src/misc/lv_style_gen.c ****     lv_style_set_prop(style, LV_STYLE_MAX_WIDTH, v);
  97              		.loc 1 24 5 view .LVU16
  20:Drivers/lvgl/src/misc/lv_style_gen.c ****     lv_style_value_t v = {
  98              		.loc 1 20 1 is_stmt 0 view .LVU17
  99 0000 0A46     		mov	r2, r1
 100              		.loc 1 24 5 view .LVU18
 101 0002 0321     		movs	r1, #3
 102              	.LVL7:
 103              		.loc 1 24 5 view .LVU19
 104 0004 FFF7FEBF 		b	lv_style_set_prop
 105              	.LVL8:
 106              		.loc 1 24 5 view .LVU20
 107              		.cfi_endproc
 108              	.LFE56:
 110              		.section	.text.lv_style_set_height,"ax",%progbits
 111              		.align	1
 112              		.p2align 2,,3
 113              		.global	lv_style_set_height
 114              		.syntax unified
 115              		.thumb
 116              		.thumb_func
 118              	lv_style_set_height:
 119              	.LVL9:
 120              	.LFB57:
  25:Drivers/lvgl/src/misc/lv_style_gen.c **** }
  26:Drivers/lvgl/src/misc/lv_style_gen.c **** 
  27:Drivers/lvgl/src/misc/lv_style_gen.c **** void lv_style_set_height(lv_style_t * style, lv_coord_t value)
  28:Drivers/lvgl/src/misc/lv_style_gen.c **** {
 121              		.loc 1 28 1 is_stmt 1 view -0
 122              		.cfi_startproc
 123              		@ args = 0, pretend = 0, frame = 0
 124              		@ frame_needed = 0, uses_anonymous_args = 0
 125              		@ link register save eliminated.
  29:Drivers/lvgl/src/misc/lv_style_gen.c ****     lv_style_value_t v = {
 126              		.loc 1 29 5 view .LVU22
  30:Drivers/lvgl/src/misc/lv_style_gen.c ****         .num = (int32_t)value
  31:Drivers/lvgl/src/misc/lv_style_gen.c ****     };
  32:Drivers/lvgl/src/misc/lv_style_gen.c ****     lv_style_set_prop(style, LV_STYLE_HEIGHT, v);
 127              		.loc 1 32 5 view .LVU23
  28:Drivers/lvgl/src/misc/lv_style_gen.c ****     lv_style_value_t v = {
 128              		.loc 1 28 1 is_stmt 0 view .LVU24
 129 0000 0A46     		mov	r2, r1
 130              		.loc 1 32 5 view .LVU25
 131 0002 0421     		movs	r1, #4
 132              	.LVL10:
 133              		.loc 1 32 5 view .LVU26
 134 0004 FFF7FEBF 		b	lv_style_set_prop
 135              	.LVL11:
 136              		.loc 1 32 5 view .LVU27
 137              		.cfi_endproc
 138              	.LFE57:
 140              		.section	.text.lv_style_set_min_height,"ax",%progbits
 141              		.align	1
 142              		.p2align 2,,3
 143              		.global	lv_style_set_min_height
ARM GAS  /var/folders/lp/x54gwt890xv47sdkqj1k04q40000gn/T//ccdiwc3F.s 			page 4


 144              		.syntax unified
 145              		.thumb
 146              		.thumb_func
 148              	lv_style_set_min_height:
 149              	.LVL12:
 150              	.LFB58:
  33:Drivers/lvgl/src/misc/lv_style_gen.c **** }
  34:Drivers/lvgl/src/misc/lv_style_gen.c **** 
  35:Drivers/lvgl/src/misc/lv_style_gen.c **** void lv_style_set_min_height(lv_style_t * style, lv_coord_t value)
  36:Drivers/lvgl/src/misc/lv_style_gen.c **** {
 151              		.loc 1 36 1 is_stmt 1 view -0
 152              		.cfi_startproc
 153              		@ args = 0, pretend = 0, frame = 0
 154              		@ frame_needed = 0, uses_anonymous_args = 0
 155              		@ link register save eliminated.
  37:Drivers/lvgl/src/misc/lv_style_gen.c ****     lv_style_value_t v = {
 156              		.loc 1 37 5 view .LVU29
  38:Drivers/lvgl/src/misc/lv_style_gen.c ****         .num = (int32_t)value
  39:Drivers/lvgl/src/misc/lv_style_gen.c ****     };
  40:Drivers/lvgl/src/misc/lv_style_gen.c ****     lv_style_set_prop(style, LV_STYLE_MIN_HEIGHT, v);
 157              		.loc 1 40 5 view .LVU30
  36:Drivers/lvgl/src/misc/lv_style_gen.c ****     lv_style_value_t v = {
 158              		.loc 1 36 1 is_stmt 0 view .LVU31
 159 0000 0A46     		mov	r2, r1
 160              		.loc 1 40 5 view .LVU32
 161 0002 0521     		movs	r1, #5
 162              	.LVL13:
 163              		.loc 1 40 5 view .LVU33
 164 0004 FFF7FEBF 		b	lv_style_set_prop
 165              	.LVL14:
 166              		.loc 1 40 5 view .LVU34
 167              		.cfi_endproc
 168              	.LFE58:
 170              		.section	.text.lv_style_set_max_height,"ax",%progbits
 171              		.align	1
 172              		.p2align 2,,3
 173              		.global	lv_style_set_max_height
 174              		.syntax unified
 175              		.thumb
 176              		.thumb_func
 178              	lv_style_set_max_height:
 179              	.LVL15:
 180              	.LFB59:
  41:Drivers/lvgl/src/misc/lv_style_gen.c **** }
  42:Drivers/lvgl/src/misc/lv_style_gen.c **** 
  43:Drivers/lvgl/src/misc/lv_style_gen.c **** void lv_style_set_max_height(lv_style_t * style, lv_coord_t value)
  44:Drivers/lvgl/src/misc/lv_style_gen.c **** {
 181              		.loc 1 44 1 is_stmt 1 view -0
 182              		.cfi_startproc
 183              		@ args = 0, pretend = 0, frame = 0
 184              		@ frame_needed = 0, uses_anonymous_args = 0
 185              		@ link register save eliminated.
  45:Drivers/lvgl/src/misc/lv_style_gen.c ****     lv_style_value_t v = {
 186              		.loc 1 45 5 view .LVU36
  46:Drivers/lvgl/src/misc/lv_style_gen.c ****         .num = (int32_t)value
  47:Drivers/lvgl/src/misc/lv_style_gen.c ****     };
  48:Drivers/lvgl/src/misc/lv_style_gen.c ****     lv_style_set_prop(style, LV_STYLE_MAX_HEIGHT, v);
ARM GAS  /var/folders/lp/x54gwt890xv47sdkqj1k04q40000gn/T//ccdiwc3F.s 			page 5


 187              		.loc 1 48 5 view .LVU37
  44:Drivers/lvgl/src/misc/lv_style_gen.c ****     lv_style_value_t v = {
 188              		.loc 1 44 1 is_stmt 0 view .LVU38
 189 0000 0A46     		mov	r2, r1
 190              		.loc 1 48 5 view .LVU39
 191 0002 0621     		movs	r1, #6
 192              	.LVL16:
 193              		.loc 1 48 5 view .LVU40
 194 0004 FFF7FEBF 		b	lv_style_set_prop
 195              	.LVL17:
 196              		.loc 1 48 5 view .LVU41
 197              		.cfi_endproc
 198              	.LFE59:
 200              		.section	.text.lv_style_set_x,"ax",%progbits
 201              		.align	1
 202              		.p2align 2,,3
 203              		.global	lv_style_set_x
 204              		.syntax unified
 205              		.thumb
 206              		.thumb_func
 208              	lv_style_set_x:
 209              	.LVL18:
 210              	.LFB60:
  49:Drivers/lvgl/src/misc/lv_style_gen.c **** }
  50:Drivers/lvgl/src/misc/lv_style_gen.c **** 
  51:Drivers/lvgl/src/misc/lv_style_gen.c **** void lv_style_set_x(lv_style_t * style, lv_coord_t value)
  52:Drivers/lvgl/src/misc/lv_style_gen.c **** {
 211              		.loc 1 52 1 is_stmt 1 view -0
 212              		.cfi_startproc
 213              		@ args = 0, pretend = 0, frame = 0
 214              		@ frame_needed = 0, uses_anonymous_args = 0
 215              		@ link register save eliminated.
  53:Drivers/lvgl/src/misc/lv_style_gen.c ****     lv_style_value_t v = {
 216              		.loc 1 53 5 view .LVU43
  54:Drivers/lvgl/src/misc/lv_style_gen.c ****         .num = (int32_t)value
  55:Drivers/lvgl/src/misc/lv_style_gen.c ****     };
  56:Drivers/lvgl/src/misc/lv_style_gen.c ****     lv_style_set_prop(style, LV_STYLE_X, v);
 217              		.loc 1 56 5 view .LVU44
  52:Drivers/lvgl/src/misc/lv_style_gen.c ****     lv_style_value_t v = {
 218              		.loc 1 52 1 is_stmt 0 view .LVU45
 219 0000 0A46     		mov	r2, r1
 220              		.loc 1 56 5 view .LVU46
 221 0002 0721     		movs	r1, #7
 222              	.LVL19:
 223              		.loc 1 56 5 view .LVU47
 224 0004 FFF7FEBF 		b	lv_style_set_prop
 225              	.LVL20:
 226              		.loc 1 56 5 view .LVU48
 227              		.cfi_endproc
 228              	.LFE60:
 230              		.section	.text.lv_style_set_y,"ax",%progbits
 231              		.align	1
 232              		.p2align 2,,3
 233              		.global	lv_style_set_y
 234              		.syntax unified
 235              		.thumb
 236              		.thumb_func
ARM GAS  /var/folders/lp/x54gwt890xv47sdkqj1k04q40000gn/T//ccdiwc3F.s 			page 6


 238              	lv_style_set_y:
 239              	.LVL21:
 240              	.LFB61:
  57:Drivers/lvgl/src/misc/lv_style_gen.c **** }
  58:Drivers/lvgl/src/misc/lv_style_gen.c **** 
  59:Drivers/lvgl/src/misc/lv_style_gen.c **** void lv_style_set_y(lv_style_t * style, lv_coord_t value)
  60:Drivers/lvgl/src/misc/lv_style_gen.c **** {
 241              		.loc 1 60 1 is_stmt 1 view -0
 242              		.cfi_startproc
 243              		@ args = 0, pretend = 0, frame = 0
 244              		@ frame_needed = 0, uses_anonymous_args = 0
 245              		@ link register save eliminated.
  61:Drivers/lvgl/src/misc/lv_style_gen.c ****     lv_style_value_t v = {
 246              		.loc 1 61 5 view .LVU50
  62:Drivers/lvgl/src/misc/lv_style_gen.c ****         .num = (int32_t)value
  63:Drivers/lvgl/src/misc/lv_style_gen.c ****     };
  64:Drivers/lvgl/src/misc/lv_style_gen.c ****     lv_style_set_prop(style, LV_STYLE_Y, v);
 247              		.loc 1 64 5 view .LVU51
  60:Drivers/lvgl/src/misc/lv_style_gen.c ****     lv_style_value_t v = {
 248              		.loc 1 60 1 is_stmt 0 view .LVU52
 249 0000 0A46     		mov	r2, r1
 250              		.loc 1 64 5 view .LVU53
 251 0002 0821     		movs	r1, #8
 252              	.LVL22:
 253              		.loc 1 64 5 view .LVU54
 254 0004 FFF7FEBF 		b	lv_style_set_prop
 255              	.LVL23:
 256              		.loc 1 64 5 view .LVU55
 257              		.cfi_endproc
 258              	.LFE61:
 260              		.section	.text.lv_style_set_align,"ax",%progbits
 261              		.align	1
 262              		.p2align 2,,3
 263              		.global	lv_style_set_align
 264              		.syntax unified
 265              		.thumb
 266              		.thumb_func
 268              	lv_style_set_align:
 269              	.LVL24:
 270              	.LFB62:
  65:Drivers/lvgl/src/misc/lv_style_gen.c **** }
  66:Drivers/lvgl/src/misc/lv_style_gen.c **** 
  67:Drivers/lvgl/src/misc/lv_style_gen.c **** void lv_style_set_align(lv_style_t * style, lv_align_t value)
  68:Drivers/lvgl/src/misc/lv_style_gen.c **** {
 271              		.loc 1 68 1 is_stmt 1 view -0
 272              		.cfi_startproc
 273              		@ args = 0, pretend = 0, frame = 0
 274              		@ frame_needed = 0, uses_anonymous_args = 0
 275              		@ link register save eliminated.
  69:Drivers/lvgl/src/misc/lv_style_gen.c ****     lv_style_value_t v = {
 276              		.loc 1 69 5 view .LVU57
  70:Drivers/lvgl/src/misc/lv_style_gen.c ****         .num = (int32_t)value
  71:Drivers/lvgl/src/misc/lv_style_gen.c ****     };
  72:Drivers/lvgl/src/misc/lv_style_gen.c ****     lv_style_set_prop(style, LV_STYLE_ALIGN, v);
 277              		.loc 1 72 5 view .LVU58
  68:Drivers/lvgl/src/misc/lv_style_gen.c ****     lv_style_value_t v = {
 278              		.loc 1 68 1 is_stmt 0 view .LVU59
ARM GAS  /var/folders/lp/x54gwt890xv47sdkqj1k04q40000gn/T//ccdiwc3F.s 			page 7


 279 0000 0A46     		mov	r2, r1
 280              		.loc 1 72 5 view .LVU60
 281 0002 0921     		movs	r1, #9
 282              	.LVL25:
 283              		.loc 1 72 5 view .LVU61
 284 0004 FFF7FEBF 		b	lv_style_set_prop
 285              	.LVL26:
 286              		.loc 1 72 5 view .LVU62
 287              		.cfi_endproc
 288              	.LFE62:
 290              		.section	.text.lv_style_set_transform_width,"ax",%progbits
 291              		.align	1
 292              		.p2align 2,,3
 293              		.global	lv_style_set_transform_width
 294              		.syntax unified
 295              		.thumb
 296              		.thumb_func
 298              	lv_style_set_transform_width:
 299              	.LVL27:
 300              	.LFB63:
  73:Drivers/lvgl/src/misc/lv_style_gen.c **** }
  74:Drivers/lvgl/src/misc/lv_style_gen.c **** 
  75:Drivers/lvgl/src/misc/lv_style_gen.c **** void lv_style_set_transform_width(lv_style_t * style, lv_coord_t value)
  76:Drivers/lvgl/src/misc/lv_style_gen.c **** {
 301              		.loc 1 76 1 is_stmt 1 view -0
 302              		.cfi_startproc
 303              		@ args = 0, pretend = 0, frame = 0
 304              		@ frame_needed = 0, uses_anonymous_args = 0
 305              		@ link register save eliminated.
  77:Drivers/lvgl/src/misc/lv_style_gen.c ****     lv_style_value_t v = {
 306              		.loc 1 77 5 view .LVU64
  78:Drivers/lvgl/src/misc/lv_style_gen.c ****         .num = (int32_t)value
  79:Drivers/lvgl/src/misc/lv_style_gen.c ****     };
  80:Drivers/lvgl/src/misc/lv_style_gen.c ****     lv_style_set_prop(style, LV_STYLE_TRANSFORM_WIDTH, v);
 307              		.loc 1 80 5 view .LVU65
  76:Drivers/lvgl/src/misc/lv_style_gen.c ****     lv_style_value_t v = {
 308              		.loc 1 76 1 is_stmt 0 view .LVU66
 309 0000 0A46     		mov	r2, r1
 310              		.loc 1 80 5 view .LVU67
 311 0002 6921     		movs	r1, #105
 312              	.LVL28:
 313              		.loc 1 80 5 view .LVU68
 314 0004 FFF7FEBF 		b	lv_style_set_prop
 315              	.LVL29:
 316              		.loc 1 80 5 view .LVU69
 317              		.cfi_endproc
 318              	.LFE63:
 320              		.section	.text.lv_style_set_transform_height,"ax",%progbits
 321              		.align	1
 322              		.p2align 2,,3
 323              		.global	lv_style_set_transform_height
 324              		.syntax unified
 325              		.thumb
 326              		.thumb_func
 328              	lv_style_set_transform_height:
 329              	.LVL30:
 330              	.LFB64:
ARM GAS  /var/folders/lp/x54gwt890xv47sdkqj1k04q40000gn/T//ccdiwc3F.s 			page 8


  81:Drivers/lvgl/src/misc/lv_style_gen.c **** }
  82:Drivers/lvgl/src/misc/lv_style_gen.c **** 
  83:Drivers/lvgl/src/misc/lv_style_gen.c **** void lv_style_set_transform_height(lv_style_t * style, lv_coord_t value)
  84:Drivers/lvgl/src/misc/lv_style_gen.c **** {
 331              		.loc 1 84 1 is_stmt 1 view -0
 332              		.cfi_startproc
 333              		@ args = 0, pretend = 0, frame = 0
 334              		@ frame_needed = 0, uses_anonymous_args = 0
 335              		@ link register save eliminated.
  85:Drivers/lvgl/src/misc/lv_style_gen.c ****     lv_style_value_t v = {
 336              		.loc 1 85 5 view .LVU71
  86:Drivers/lvgl/src/misc/lv_style_gen.c ****         .num = (int32_t)value
  87:Drivers/lvgl/src/misc/lv_style_gen.c ****     };
  88:Drivers/lvgl/src/misc/lv_style_gen.c ****     lv_style_set_prop(style, LV_STYLE_TRANSFORM_HEIGHT, v);
 337              		.loc 1 88 5 view .LVU72
  84:Drivers/lvgl/src/misc/lv_style_gen.c ****     lv_style_value_t v = {
 338              		.loc 1 84 1 is_stmt 0 view .LVU73
 339 0000 0A46     		mov	r2, r1
 340              		.loc 1 88 5 view .LVU74
 341 0002 6A21     		movs	r1, #106
 342              	.LVL31:
 343              		.loc 1 88 5 view .LVU75
 344 0004 FFF7FEBF 		b	lv_style_set_prop
 345              	.LVL32:
 346              		.loc 1 88 5 view .LVU76
 347              		.cfi_endproc
 348              	.LFE64:
 350              		.section	.text.lv_style_set_translate_x,"ax",%progbits
 351              		.align	1
 352              		.p2align 2,,3
 353              		.global	lv_style_set_translate_x
 354              		.syntax unified
 355              		.thumb
 356              		.thumb_func
 358              	lv_style_set_translate_x:
 359              	.LVL33:
 360              	.LFB65:
  89:Drivers/lvgl/src/misc/lv_style_gen.c **** }
  90:Drivers/lvgl/src/misc/lv_style_gen.c **** 
  91:Drivers/lvgl/src/misc/lv_style_gen.c **** void lv_style_set_translate_x(lv_style_t * style, lv_coord_t value)
  92:Drivers/lvgl/src/misc/lv_style_gen.c **** {
 361              		.loc 1 92 1 is_stmt 1 view -0
 362              		.cfi_startproc
 363              		@ args = 0, pretend = 0, frame = 0
 364              		@ frame_needed = 0, uses_anonymous_args = 0
 365              		@ link register save eliminated.
  93:Drivers/lvgl/src/misc/lv_style_gen.c ****     lv_style_value_t v = {
 366              		.loc 1 93 5 view .LVU78
  94:Drivers/lvgl/src/misc/lv_style_gen.c ****         .num = (int32_t)value
  95:Drivers/lvgl/src/misc/lv_style_gen.c ****     };
  96:Drivers/lvgl/src/misc/lv_style_gen.c ****     lv_style_set_prop(style, LV_STYLE_TRANSLATE_X, v);
 367              		.loc 1 96 5 view .LVU79
  92:Drivers/lvgl/src/misc/lv_style_gen.c ****     lv_style_value_t v = {
 368              		.loc 1 92 1 is_stmt 0 view .LVU80
 369 0000 0A46     		mov	r2, r1
 370              		.loc 1 96 5 view .LVU81
 371 0002 6B21     		movs	r1, #107
ARM GAS  /var/folders/lp/x54gwt890xv47sdkqj1k04q40000gn/T//ccdiwc3F.s 			page 9


 372              	.LVL34:
 373              		.loc 1 96 5 view .LVU82
 374 0004 FFF7FEBF 		b	lv_style_set_prop
 375              	.LVL35:
 376              		.loc 1 96 5 view .LVU83
 377              		.cfi_endproc
 378              	.LFE65:
 380              		.section	.text.lv_style_set_translate_y,"ax",%progbits
 381              		.align	1
 382              		.p2align 2,,3
 383              		.global	lv_style_set_translate_y
 384              		.syntax unified
 385              		.thumb
 386              		.thumb_func
 388              	lv_style_set_translate_y:
 389              	.LVL36:
 390              	.LFB66:
  97:Drivers/lvgl/src/misc/lv_style_gen.c **** }
  98:Drivers/lvgl/src/misc/lv_style_gen.c **** 
  99:Drivers/lvgl/src/misc/lv_style_gen.c **** void lv_style_set_translate_y(lv_style_t * style, lv_coord_t value)
 100:Drivers/lvgl/src/misc/lv_style_gen.c **** {
 391              		.loc 1 100 1 is_stmt 1 view -0
 392              		.cfi_startproc
 393              		@ args = 0, pretend = 0, frame = 0
 394              		@ frame_needed = 0, uses_anonymous_args = 0
 395              		@ link register save eliminated.
 101:Drivers/lvgl/src/misc/lv_style_gen.c ****     lv_style_value_t v = {
 396              		.loc 1 101 5 view .LVU85
 102:Drivers/lvgl/src/misc/lv_style_gen.c ****         .num = (int32_t)value
 103:Drivers/lvgl/src/misc/lv_style_gen.c ****     };
 104:Drivers/lvgl/src/misc/lv_style_gen.c ****     lv_style_set_prop(style, LV_STYLE_TRANSLATE_Y, v);
 397              		.loc 1 104 5 view .LVU86
 100:Drivers/lvgl/src/misc/lv_style_gen.c ****     lv_style_value_t v = {
 398              		.loc 1 100 1 is_stmt 0 view .LVU87
 399 0000 0A46     		mov	r2, r1
 400              		.loc 1 104 5 view .LVU88
 401 0002 6C21     		movs	r1, #108
 402              	.LVL37:
 403              		.loc 1 104 5 view .LVU89
 404 0004 FFF7FEBF 		b	lv_style_set_prop
 405              	.LVL38:
 406              		.loc 1 104 5 view .LVU90
 407              		.cfi_endproc
 408              	.LFE66:
 410              		.section	.text.lv_style_set_transform_zoom,"ax",%progbits
 411              		.align	1
 412              		.p2align 2,,3
 413              		.global	lv_style_set_transform_zoom
 414              		.syntax unified
 415              		.thumb
 416              		.thumb_func
 418              	lv_style_set_transform_zoom:
 419              	.LVL39:
 420              	.LFB67:
 105:Drivers/lvgl/src/misc/lv_style_gen.c **** }
 106:Drivers/lvgl/src/misc/lv_style_gen.c **** 
 107:Drivers/lvgl/src/misc/lv_style_gen.c **** void lv_style_set_transform_zoom(lv_style_t * style, lv_coord_t value)
ARM GAS  /var/folders/lp/x54gwt890xv47sdkqj1k04q40000gn/T//ccdiwc3F.s 			page 10


 108:Drivers/lvgl/src/misc/lv_style_gen.c **** {
 421              		.loc 1 108 1 is_stmt 1 view -0
 422              		.cfi_startproc
 423              		@ args = 0, pretend = 0, frame = 0
 424              		@ frame_needed = 0, uses_anonymous_args = 0
 425              		@ link register save eliminated.
 109:Drivers/lvgl/src/misc/lv_style_gen.c ****     lv_style_value_t v = {
 426              		.loc 1 109 5 view .LVU92
 110:Drivers/lvgl/src/misc/lv_style_gen.c ****         .num = (int32_t)value
 111:Drivers/lvgl/src/misc/lv_style_gen.c ****     };
 112:Drivers/lvgl/src/misc/lv_style_gen.c ****     lv_style_set_prop(style, LV_STYLE_TRANSFORM_ZOOM, v);
 427              		.loc 1 112 5 view .LVU93
 108:Drivers/lvgl/src/misc/lv_style_gen.c ****     lv_style_value_t v = {
 428              		.loc 1 108 1 is_stmt 0 view .LVU94
 429 0000 0A46     		mov	r2, r1
 430              		.loc 1 112 5 view .LVU95
 431 0002 6D21     		movs	r1, #109
 432              	.LVL40:
 433              		.loc 1 112 5 view .LVU96
 434 0004 FFF7FEBF 		b	lv_style_set_prop
 435              	.LVL41:
 436              		.loc 1 112 5 view .LVU97
 437              		.cfi_endproc
 438              	.LFE67:
 440              		.section	.text.lv_style_set_transform_angle,"ax",%progbits
 441              		.align	1
 442              		.p2align 2,,3
 443              		.global	lv_style_set_transform_angle
 444              		.syntax unified
 445              		.thumb
 446              		.thumb_func
 448              	lv_style_set_transform_angle:
 449              	.LVL42:
 450              	.LFB68:
 113:Drivers/lvgl/src/misc/lv_style_gen.c **** }
 114:Drivers/lvgl/src/misc/lv_style_gen.c **** 
 115:Drivers/lvgl/src/misc/lv_style_gen.c **** void lv_style_set_transform_angle(lv_style_t * style, lv_coord_t value)
 116:Drivers/lvgl/src/misc/lv_style_gen.c **** {
 451              		.loc 1 116 1 is_stmt 1 view -0
 452              		.cfi_startproc
 453              		@ args = 0, pretend = 0, frame = 0
 454              		@ frame_needed = 0, uses_anonymous_args = 0
 455              		@ link register save eliminated.
 117:Drivers/lvgl/src/misc/lv_style_gen.c ****     lv_style_value_t v = {
 456              		.loc 1 117 5 view .LVU99
 118:Drivers/lvgl/src/misc/lv_style_gen.c ****         .num = (int32_t)value
 119:Drivers/lvgl/src/misc/lv_style_gen.c ****     };
 120:Drivers/lvgl/src/misc/lv_style_gen.c ****     lv_style_set_prop(style, LV_STYLE_TRANSFORM_ANGLE, v);
 457              		.loc 1 120 5 view .LVU100
 116:Drivers/lvgl/src/misc/lv_style_gen.c ****     lv_style_value_t v = {
 458              		.loc 1 116 1 is_stmt 0 view .LVU101
 459 0000 0A46     		mov	r2, r1
 460              		.loc 1 120 5 view .LVU102
 461 0002 6E21     		movs	r1, #110
 462              	.LVL43:
 463              		.loc 1 120 5 view .LVU103
 464 0004 FFF7FEBF 		b	lv_style_set_prop
ARM GAS  /var/folders/lp/x54gwt890xv47sdkqj1k04q40000gn/T//ccdiwc3F.s 			page 11


 465              	.LVL44:
 466              		.loc 1 120 5 view .LVU104
 467              		.cfi_endproc
 468              	.LFE68:
 470              		.section	.text.lv_style_set_transform_pivot_x,"ax",%progbits
 471              		.align	1
 472              		.p2align 2,,3
 473              		.global	lv_style_set_transform_pivot_x
 474              		.syntax unified
 475              		.thumb
 476              		.thumb_func
 478              	lv_style_set_transform_pivot_x:
 479              	.LVL45:
 480              	.LFB69:
 121:Drivers/lvgl/src/misc/lv_style_gen.c **** }
 122:Drivers/lvgl/src/misc/lv_style_gen.c **** 
 123:Drivers/lvgl/src/misc/lv_style_gen.c **** void lv_style_set_transform_pivot_x(lv_style_t * style, lv_coord_t value)
 124:Drivers/lvgl/src/misc/lv_style_gen.c **** {
 481              		.loc 1 124 1 is_stmt 1 view -0
 482              		.cfi_startproc
 483              		@ args = 0, pretend = 0, frame = 0
 484              		@ frame_needed = 0, uses_anonymous_args = 0
 485              		@ link register save eliminated.
 125:Drivers/lvgl/src/misc/lv_style_gen.c ****     lv_style_value_t v = {
 486              		.loc 1 125 5 view .LVU106
 126:Drivers/lvgl/src/misc/lv_style_gen.c ****         .num = (int32_t)value
 127:Drivers/lvgl/src/misc/lv_style_gen.c ****     };
 128:Drivers/lvgl/src/misc/lv_style_gen.c ****     lv_style_set_prop(style, LV_STYLE_TRANSFORM_PIVOT_X, v);
 487              		.loc 1 128 5 view .LVU107
 124:Drivers/lvgl/src/misc/lv_style_gen.c ****     lv_style_value_t v = {
 488              		.loc 1 124 1 is_stmt 0 view .LVU108
 489 0000 0A46     		mov	r2, r1
 490              		.loc 1 128 5 view .LVU109
 491 0002 6F21     		movs	r1, #111
 492              	.LVL46:
 493              		.loc 1 128 5 view .LVU110
 494 0004 FFF7FEBF 		b	lv_style_set_prop
 495              	.LVL47:
 496              		.loc 1 128 5 view .LVU111
 497              		.cfi_endproc
 498              	.LFE69:
 500              		.section	.text.lv_style_set_transform_pivot_y,"ax",%progbits
 501              		.align	1
 502              		.p2align 2,,3
 503              		.global	lv_style_set_transform_pivot_y
 504              		.syntax unified
 505              		.thumb
 506              		.thumb_func
 508              	lv_style_set_transform_pivot_y:
 509              	.LVL48:
 510              	.LFB70:
 129:Drivers/lvgl/src/misc/lv_style_gen.c **** }
 130:Drivers/lvgl/src/misc/lv_style_gen.c **** 
 131:Drivers/lvgl/src/misc/lv_style_gen.c **** void lv_style_set_transform_pivot_y(lv_style_t * style, lv_coord_t value)
 132:Drivers/lvgl/src/misc/lv_style_gen.c **** {
 511              		.loc 1 132 1 is_stmt 1 view -0
 512              		.cfi_startproc
ARM GAS  /var/folders/lp/x54gwt890xv47sdkqj1k04q40000gn/T//ccdiwc3F.s 			page 12


 513              		@ args = 0, pretend = 0, frame = 0
 514              		@ frame_needed = 0, uses_anonymous_args = 0
 515              		@ link register save eliminated.
 133:Drivers/lvgl/src/misc/lv_style_gen.c ****     lv_style_value_t v = {
 516              		.loc 1 133 5 view .LVU113
 134:Drivers/lvgl/src/misc/lv_style_gen.c ****         .num = (int32_t)value
 135:Drivers/lvgl/src/misc/lv_style_gen.c ****     };
 136:Drivers/lvgl/src/misc/lv_style_gen.c ****     lv_style_set_prop(style, LV_STYLE_TRANSFORM_PIVOT_Y, v);
 517              		.loc 1 136 5 view .LVU114
 132:Drivers/lvgl/src/misc/lv_style_gen.c ****     lv_style_value_t v = {
 518              		.loc 1 132 1 is_stmt 0 view .LVU115
 519 0000 0A46     		mov	r2, r1
 520              		.loc 1 136 5 view .LVU116
 521 0002 7021     		movs	r1, #112
 522              	.LVL49:
 523              		.loc 1 136 5 view .LVU117
 524 0004 FFF7FEBF 		b	lv_style_set_prop
 525              	.LVL50:
 526              		.loc 1 136 5 view .LVU118
 527              		.cfi_endproc
 528              	.LFE70:
 530              		.section	.text.lv_style_set_pad_top,"ax",%progbits
 531              		.align	1
 532              		.p2align 2,,3
 533              		.global	lv_style_set_pad_top
 534              		.syntax unified
 535              		.thumb
 536              		.thumb_func
 538              	lv_style_set_pad_top:
 539              	.LVL51:
 540              	.LFB71:
 137:Drivers/lvgl/src/misc/lv_style_gen.c **** }
 138:Drivers/lvgl/src/misc/lv_style_gen.c **** 
 139:Drivers/lvgl/src/misc/lv_style_gen.c **** void lv_style_set_pad_top(lv_style_t * style, lv_coord_t value)
 140:Drivers/lvgl/src/misc/lv_style_gen.c **** {
 541              		.loc 1 140 1 is_stmt 1 view -0
 542              		.cfi_startproc
 543              		@ args = 0, pretend = 0, frame = 0
 544              		@ frame_needed = 0, uses_anonymous_args = 0
 545              		@ link register save eliminated.
 141:Drivers/lvgl/src/misc/lv_style_gen.c ****     lv_style_value_t v = {
 546              		.loc 1 141 5 view .LVU120
 142:Drivers/lvgl/src/misc/lv_style_gen.c ****         .num = (int32_t)value
 143:Drivers/lvgl/src/misc/lv_style_gen.c ****     };
 144:Drivers/lvgl/src/misc/lv_style_gen.c ****     lv_style_set_prop(style, LV_STYLE_PAD_TOP, v);
 547              		.loc 1 144 5 view .LVU121
 140:Drivers/lvgl/src/misc/lv_style_gen.c ****     lv_style_value_t v = {
 548              		.loc 1 140 1 is_stmt 0 view .LVU122
 549 0000 0A46     		mov	r2, r1
 550              		.loc 1 144 5 view .LVU123
 551 0002 1021     		movs	r1, #16
 552              	.LVL52:
 553              		.loc 1 144 5 view .LVU124
 554 0004 FFF7FEBF 		b	lv_style_set_prop
 555              	.LVL53:
 556              		.loc 1 144 5 view .LVU125
 557              		.cfi_endproc
ARM GAS  /var/folders/lp/x54gwt890xv47sdkqj1k04q40000gn/T//ccdiwc3F.s 			page 13


 558              	.LFE71:
 560              		.section	.text.lv_style_set_pad_bottom,"ax",%progbits
 561              		.align	1
 562              		.p2align 2,,3
 563              		.global	lv_style_set_pad_bottom
 564              		.syntax unified
 565              		.thumb
 566              		.thumb_func
 568              	lv_style_set_pad_bottom:
 569              	.LVL54:
 570              	.LFB72:
 145:Drivers/lvgl/src/misc/lv_style_gen.c **** }
 146:Drivers/lvgl/src/misc/lv_style_gen.c **** 
 147:Drivers/lvgl/src/misc/lv_style_gen.c **** void lv_style_set_pad_bottom(lv_style_t * style, lv_coord_t value)
 148:Drivers/lvgl/src/misc/lv_style_gen.c **** {
 571              		.loc 1 148 1 is_stmt 1 view -0
 572              		.cfi_startproc
 573              		@ args = 0, pretend = 0, frame = 0
 574              		@ frame_needed = 0, uses_anonymous_args = 0
 575              		@ link register save eliminated.
 149:Drivers/lvgl/src/misc/lv_style_gen.c ****     lv_style_value_t v = {
 576              		.loc 1 149 5 view .LVU127
 150:Drivers/lvgl/src/misc/lv_style_gen.c ****         .num = (int32_t)value
 151:Drivers/lvgl/src/misc/lv_style_gen.c ****     };
 152:Drivers/lvgl/src/misc/lv_style_gen.c ****     lv_style_set_prop(style, LV_STYLE_PAD_BOTTOM, v);
 577              		.loc 1 152 5 view .LVU128
 148:Drivers/lvgl/src/misc/lv_style_gen.c ****     lv_style_value_t v = {
 578              		.loc 1 148 1 is_stmt 0 view .LVU129
 579 0000 0A46     		mov	r2, r1
 580              		.loc 1 152 5 view .LVU130
 581 0002 1121     		movs	r1, #17
 582              	.LVL55:
 583              		.loc 1 152 5 view .LVU131
 584 0004 FFF7FEBF 		b	lv_style_set_prop
 585              	.LVL56:
 586              		.loc 1 152 5 view .LVU132
 587              		.cfi_endproc
 588              	.LFE72:
 590              		.section	.text.lv_style_set_pad_left,"ax",%progbits
 591              		.align	1
 592              		.p2align 2,,3
 593              		.global	lv_style_set_pad_left
 594              		.syntax unified
 595              		.thumb
 596              		.thumb_func
 598              	lv_style_set_pad_left:
 599              	.LVL57:
 600              	.LFB73:
 153:Drivers/lvgl/src/misc/lv_style_gen.c **** }
 154:Drivers/lvgl/src/misc/lv_style_gen.c **** 
 155:Drivers/lvgl/src/misc/lv_style_gen.c **** void lv_style_set_pad_left(lv_style_t * style, lv_coord_t value)
 156:Drivers/lvgl/src/misc/lv_style_gen.c **** {
 601              		.loc 1 156 1 is_stmt 1 view -0
 602              		.cfi_startproc
 603              		@ args = 0, pretend = 0, frame = 0
 604              		@ frame_needed = 0, uses_anonymous_args = 0
 605              		@ link register save eliminated.
ARM GAS  /var/folders/lp/x54gwt890xv47sdkqj1k04q40000gn/T//ccdiwc3F.s 			page 14


 157:Drivers/lvgl/src/misc/lv_style_gen.c ****     lv_style_value_t v = {
 606              		.loc 1 157 5 view .LVU134
 158:Drivers/lvgl/src/misc/lv_style_gen.c ****         .num = (int32_t)value
 159:Drivers/lvgl/src/misc/lv_style_gen.c ****     };
 160:Drivers/lvgl/src/misc/lv_style_gen.c ****     lv_style_set_prop(style, LV_STYLE_PAD_LEFT, v);
 607              		.loc 1 160 5 view .LVU135
 156:Drivers/lvgl/src/misc/lv_style_gen.c ****     lv_style_value_t v = {
 608              		.loc 1 156 1 is_stmt 0 view .LVU136
 609 0000 0A46     		mov	r2, r1
 610              		.loc 1 160 5 view .LVU137
 611 0002 1221     		movs	r1, #18
 612              	.LVL58:
 613              		.loc 1 160 5 view .LVU138
 614 0004 FFF7FEBF 		b	lv_style_set_prop
 615              	.LVL59:
 616              		.loc 1 160 5 view .LVU139
 617              		.cfi_endproc
 618              	.LFE73:
 620              		.section	.text.lv_style_set_pad_right,"ax",%progbits
 621              		.align	1
 622              		.p2align 2,,3
 623              		.global	lv_style_set_pad_right
 624              		.syntax unified
 625              		.thumb
 626              		.thumb_func
 628              	lv_style_set_pad_right:
 629              	.LVL60:
 630              	.LFB74:
 161:Drivers/lvgl/src/misc/lv_style_gen.c **** }
 162:Drivers/lvgl/src/misc/lv_style_gen.c **** 
 163:Drivers/lvgl/src/misc/lv_style_gen.c **** void lv_style_set_pad_right(lv_style_t * style, lv_coord_t value)
 164:Drivers/lvgl/src/misc/lv_style_gen.c **** {
 631              		.loc 1 164 1 is_stmt 1 view -0
 632              		.cfi_startproc
 633              		@ args = 0, pretend = 0, frame = 0
 634              		@ frame_needed = 0, uses_anonymous_args = 0
 635              		@ link register save eliminated.
 165:Drivers/lvgl/src/misc/lv_style_gen.c ****     lv_style_value_t v = {
 636              		.loc 1 165 5 view .LVU141
 166:Drivers/lvgl/src/misc/lv_style_gen.c ****         .num = (int32_t)value
 167:Drivers/lvgl/src/misc/lv_style_gen.c ****     };
 168:Drivers/lvgl/src/misc/lv_style_gen.c ****     lv_style_set_prop(style, LV_STYLE_PAD_RIGHT, v);
 637              		.loc 1 168 5 view .LVU142
 164:Drivers/lvgl/src/misc/lv_style_gen.c ****     lv_style_value_t v = {
 638              		.loc 1 164 1 is_stmt 0 view .LVU143
 639 0000 0A46     		mov	r2, r1
 640              		.loc 1 168 5 view .LVU144
 641 0002 1321     		movs	r1, #19
 642              	.LVL61:
 643              		.loc 1 168 5 view .LVU145
 644 0004 FFF7FEBF 		b	lv_style_set_prop
 645              	.LVL62:
 646              		.loc 1 168 5 view .LVU146
 647              		.cfi_endproc
 648              	.LFE74:
 650              		.section	.text.lv_style_set_pad_row,"ax",%progbits
 651              		.align	1
ARM GAS  /var/folders/lp/x54gwt890xv47sdkqj1k04q40000gn/T//ccdiwc3F.s 			page 15


 652              		.p2align 2,,3
 653              		.global	lv_style_set_pad_row
 654              		.syntax unified
 655              		.thumb
 656              		.thumb_func
 658              	lv_style_set_pad_row:
 659              	.LVL63:
 660              	.LFB75:
 169:Drivers/lvgl/src/misc/lv_style_gen.c **** }
 170:Drivers/lvgl/src/misc/lv_style_gen.c **** 
 171:Drivers/lvgl/src/misc/lv_style_gen.c **** void lv_style_set_pad_row(lv_style_t * style, lv_coord_t value)
 172:Drivers/lvgl/src/misc/lv_style_gen.c **** {
 661              		.loc 1 172 1 is_stmt 1 view -0
 662              		.cfi_startproc
 663              		@ args = 0, pretend = 0, frame = 0
 664              		@ frame_needed = 0, uses_anonymous_args = 0
 665              		@ link register save eliminated.
 173:Drivers/lvgl/src/misc/lv_style_gen.c ****     lv_style_value_t v = {
 666              		.loc 1 173 5 view .LVU148
 174:Drivers/lvgl/src/misc/lv_style_gen.c ****         .num = (int32_t)value
 175:Drivers/lvgl/src/misc/lv_style_gen.c ****     };
 176:Drivers/lvgl/src/misc/lv_style_gen.c ****     lv_style_set_prop(style, LV_STYLE_PAD_ROW, v);
 667              		.loc 1 176 5 view .LVU149
 172:Drivers/lvgl/src/misc/lv_style_gen.c ****     lv_style_value_t v = {
 668              		.loc 1 172 1 is_stmt 0 view .LVU150
 669 0000 0A46     		mov	r2, r1
 670              		.loc 1 176 5 view .LVU151
 671 0002 1421     		movs	r1, #20
 672              	.LVL64:
 673              		.loc 1 176 5 view .LVU152
 674 0004 FFF7FEBF 		b	lv_style_set_prop
 675              	.LVL65:
 676              		.loc 1 176 5 view .LVU153
 677              		.cfi_endproc
 678              	.LFE75:
 680              		.section	.text.lv_style_set_pad_column,"ax",%progbits
 681              		.align	1
 682              		.p2align 2,,3
 683              		.global	lv_style_set_pad_column
 684              		.syntax unified
 685              		.thumb
 686              		.thumb_func
 688              	lv_style_set_pad_column:
 689              	.LVL66:
 690              	.LFB76:
 177:Drivers/lvgl/src/misc/lv_style_gen.c **** }
 178:Drivers/lvgl/src/misc/lv_style_gen.c **** 
 179:Drivers/lvgl/src/misc/lv_style_gen.c **** void lv_style_set_pad_column(lv_style_t * style, lv_coord_t value)
 180:Drivers/lvgl/src/misc/lv_style_gen.c **** {
 691              		.loc 1 180 1 is_stmt 1 view -0
 692              		.cfi_startproc
 693              		@ args = 0, pretend = 0, frame = 0
 694              		@ frame_needed = 0, uses_anonymous_args = 0
 695              		@ link register save eliminated.
 181:Drivers/lvgl/src/misc/lv_style_gen.c ****     lv_style_value_t v = {
 696              		.loc 1 181 5 view .LVU155
 182:Drivers/lvgl/src/misc/lv_style_gen.c ****         .num = (int32_t)value
ARM GAS  /var/folders/lp/x54gwt890xv47sdkqj1k04q40000gn/T//ccdiwc3F.s 			page 16


 183:Drivers/lvgl/src/misc/lv_style_gen.c ****     };
 184:Drivers/lvgl/src/misc/lv_style_gen.c ****     lv_style_set_prop(style, LV_STYLE_PAD_COLUMN, v);
 697              		.loc 1 184 5 view .LVU156
 180:Drivers/lvgl/src/misc/lv_style_gen.c ****     lv_style_value_t v = {
 698              		.loc 1 180 1 is_stmt 0 view .LVU157
 699 0000 0A46     		mov	r2, r1
 700              		.loc 1 184 5 view .LVU158
 701 0002 1521     		movs	r1, #21
 702              	.LVL67:
 703              		.loc 1 184 5 view .LVU159
 704 0004 FFF7FEBF 		b	lv_style_set_prop
 705              	.LVL68:
 706              		.loc 1 184 5 view .LVU160
 707              		.cfi_endproc
 708              	.LFE76:
 710              		.section	.text.lv_style_set_bg_color,"ax",%progbits
 711              		.align	1
 712              		.p2align 2,,3
 713              		.global	lv_style_set_bg_color
 714              		.syntax unified
 715              		.thumb
 716              		.thumb_func
 718              	lv_style_set_bg_color:
 719              	.LVL69:
 720              	.LFB77:
 185:Drivers/lvgl/src/misc/lv_style_gen.c **** }
 186:Drivers/lvgl/src/misc/lv_style_gen.c **** 
 187:Drivers/lvgl/src/misc/lv_style_gen.c **** void lv_style_set_bg_color(lv_style_t * style, lv_color_t value)
 188:Drivers/lvgl/src/misc/lv_style_gen.c **** {
 721              		.loc 1 188 1 is_stmt 1 view -0
 722              		.cfi_startproc
 723              		@ args = 0, pretend = 0, frame = 8
 724              		@ frame_needed = 0, uses_anonymous_args = 0
 725              		@ link register save eliminated.
 189:Drivers/lvgl/src/misc/lv_style_gen.c ****     lv_style_value_t v = {
 726              		.loc 1 189 5 view .LVU162
 190:Drivers/lvgl/src/misc/lv_style_gen.c ****         .color = value
 191:Drivers/lvgl/src/misc/lv_style_gen.c ****     };
 192:Drivers/lvgl/src/misc/lv_style_gen.c ****     lv_style_set_prop(style, LV_STYLE_BG_COLOR, v);
 727              		.loc 1 192 5 view .LVU163
 188:Drivers/lvgl/src/misc/lv_style_gen.c ****     lv_style_value_t v = {
 728              		.loc 1 188 1 is_stmt 0 view .LVU164
 729 0000 82B0     		sub	sp, sp, #8
 730              		.cfi_def_cfa_offset 8
 189:Drivers/lvgl/src/misc/lv_style_gen.c ****     lv_style_value_t v = {
 731              		.loc 1 189 22 view .LVU165
 732 0002 0023     		movs	r3, #0
 733              		.loc 1 192 5 view .LVU166
 734 0004 8AB2     		uxth	r2, r1
 735 0006 2021     		movs	r1, #32
 736              	.LVL70:
 189:Drivers/lvgl/src/misc/lv_style_gen.c ****     lv_style_value_t v = {
 737              		.loc 1 189 22 view .LVU167
 738 0008 ADF80030 		strh	r3, [sp]	@ movhi
 193:Drivers/lvgl/src/misc/lv_style_gen.c **** }
 739              		.loc 1 193 1 view .LVU168
 740 000c 02B0     		add	sp, sp, #8
ARM GAS  /var/folders/lp/x54gwt890xv47sdkqj1k04q40000gn/T//ccdiwc3F.s 			page 17


 741              		.cfi_def_cfa_offset 0
 742              		@ sp needed
 192:Drivers/lvgl/src/misc/lv_style_gen.c **** }
 743              		.loc 1 192 5 view .LVU169
 744 000e FFF7FEBF 		b	lv_style_set_prop
 745              	.LVL71:
 192:Drivers/lvgl/src/misc/lv_style_gen.c **** }
 746              		.loc 1 192 5 view .LVU170
 747              		.cfi_endproc
 748              	.LFE77:
 750 0012 00BF     		.section	.text.lv_style_set_bg_opa,"ax",%progbits
 751              		.align	1
 752              		.p2align 2,,3
 753              		.global	lv_style_set_bg_opa
 754              		.syntax unified
 755              		.thumb
 756              		.thumb_func
 758              	lv_style_set_bg_opa:
 759              	.LVL72:
 760              	.LFB78:
 194:Drivers/lvgl/src/misc/lv_style_gen.c **** 
 195:Drivers/lvgl/src/misc/lv_style_gen.c **** void lv_style_set_bg_opa(lv_style_t * style, lv_opa_t value)
 196:Drivers/lvgl/src/misc/lv_style_gen.c **** {
 761              		.loc 1 196 1 is_stmt 1 view -0
 762              		.cfi_startproc
 763              		@ args = 0, pretend = 0, frame = 0
 764              		@ frame_needed = 0, uses_anonymous_args = 0
 765              		@ link register save eliminated.
 197:Drivers/lvgl/src/misc/lv_style_gen.c ****     lv_style_value_t v = {
 766              		.loc 1 197 5 view .LVU172
 198:Drivers/lvgl/src/misc/lv_style_gen.c ****         .num = (int32_t)value
 199:Drivers/lvgl/src/misc/lv_style_gen.c ****     };
 200:Drivers/lvgl/src/misc/lv_style_gen.c ****     lv_style_set_prop(style, LV_STYLE_BG_OPA, v);
 767              		.loc 1 200 5 view .LVU173
 196:Drivers/lvgl/src/misc/lv_style_gen.c ****     lv_style_value_t v = {
 768              		.loc 1 196 1 is_stmt 0 view .LVU174
 769 0000 0A46     		mov	r2, r1
 770              		.loc 1 200 5 view .LVU175
 771 0002 2121     		movs	r1, #33
 772              	.LVL73:
 773              		.loc 1 200 5 view .LVU176
 774 0004 FFF7FEBF 		b	lv_style_set_prop
 775              	.LVL74:
 776              		.loc 1 200 5 view .LVU177
 777              		.cfi_endproc
 778              	.LFE78:
 780              		.section	.text.lv_style_set_bg_grad_color,"ax",%progbits
 781              		.align	1
 782              		.p2align 2,,3
 783              		.global	lv_style_set_bg_grad_color
 784              		.syntax unified
 785              		.thumb
 786              		.thumb_func
 788              	lv_style_set_bg_grad_color:
 789              	.LVL75:
 790              	.LFB79:
 201:Drivers/lvgl/src/misc/lv_style_gen.c **** }
ARM GAS  /var/folders/lp/x54gwt890xv47sdkqj1k04q40000gn/T//ccdiwc3F.s 			page 18


 202:Drivers/lvgl/src/misc/lv_style_gen.c **** 
 203:Drivers/lvgl/src/misc/lv_style_gen.c **** void lv_style_set_bg_grad_color(lv_style_t * style, lv_color_t value)
 204:Drivers/lvgl/src/misc/lv_style_gen.c **** {
 791              		.loc 1 204 1 is_stmt 1 view -0
 792              		.cfi_startproc
 793              		@ args = 0, pretend = 0, frame = 8
 794              		@ frame_needed = 0, uses_anonymous_args = 0
 795              		@ link register save eliminated.
 205:Drivers/lvgl/src/misc/lv_style_gen.c ****     lv_style_value_t v = {
 796              		.loc 1 205 5 view .LVU179
 206:Drivers/lvgl/src/misc/lv_style_gen.c ****         .color = value
 207:Drivers/lvgl/src/misc/lv_style_gen.c ****     };
 208:Drivers/lvgl/src/misc/lv_style_gen.c ****     lv_style_set_prop(style, LV_STYLE_BG_GRAD_COLOR, v);
 797              		.loc 1 208 5 view .LVU180
 204:Drivers/lvgl/src/misc/lv_style_gen.c ****     lv_style_value_t v = {
 798              		.loc 1 204 1 is_stmt 0 view .LVU181
 799 0000 82B0     		sub	sp, sp, #8
 800              		.cfi_def_cfa_offset 8
 205:Drivers/lvgl/src/misc/lv_style_gen.c ****     lv_style_value_t v = {
 801              		.loc 1 205 22 view .LVU182
 802 0002 0023     		movs	r3, #0
 803              		.loc 1 208 5 view .LVU183
 804 0004 8AB2     		uxth	r2, r1
 805 0006 2221     		movs	r1, #34
 806              	.LVL76:
 205:Drivers/lvgl/src/misc/lv_style_gen.c ****     lv_style_value_t v = {
 807              		.loc 1 205 22 view .LVU184
 808 0008 ADF80030 		strh	r3, [sp]	@ movhi
 209:Drivers/lvgl/src/misc/lv_style_gen.c **** }
 809              		.loc 1 209 1 view .LVU185
 810 000c 02B0     		add	sp, sp, #8
 811              		.cfi_def_cfa_offset 0
 812              		@ sp needed
 208:Drivers/lvgl/src/misc/lv_style_gen.c **** }
 813              		.loc 1 208 5 view .LVU186
 814 000e FFF7FEBF 		b	lv_style_set_prop
 815              	.LVL77:
 208:Drivers/lvgl/src/misc/lv_style_gen.c **** }
 816              		.loc 1 208 5 view .LVU187
 817              		.cfi_endproc
 818              	.LFE79:
 820 0012 00BF     		.section	.text.lv_style_set_bg_grad_dir,"ax",%progbits
 821              		.align	1
 822              		.p2align 2,,3
 823              		.global	lv_style_set_bg_grad_dir
 824              		.syntax unified
 825              		.thumb
 826              		.thumb_func
 828              	lv_style_set_bg_grad_dir:
 829              	.LVL78:
 830              	.LFB80:
 210:Drivers/lvgl/src/misc/lv_style_gen.c **** 
 211:Drivers/lvgl/src/misc/lv_style_gen.c **** void lv_style_set_bg_grad_dir(lv_style_t * style, lv_grad_dir_t value)
 212:Drivers/lvgl/src/misc/lv_style_gen.c **** {
 831              		.loc 1 212 1 is_stmt 1 view -0
 832              		.cfi_startproc
 833              		@ args = 0, pretend = 0, frame = 0
ARM GAS  /var/folders/lp/x54gwt890xv47sdkqj1k04q40000gn/T//ccdiwc3F.s 			page 19


 834              		@ frame_needed = 0, uses_anonymous_args = 0
 835              		@ link register save eliminated.
 213:Drivers/lvgl/src/misc/lv_style_gen.c ****     lv_style_value_t v = {
 836              		.loc 1 213 5 view .LVU189
 214:Drivers/lvgl/src/misc/lv_style_gen.c ****         .num = (int32_t)value
 215:Drivers/lvgl/src/misc/lv_style_gen.c ****     };
 216:Drivers/lvgl/src/misc/lv_style_gen.c ****     lv_style_set_prop(style, LV_STYLE_BG_GRAD_DIR, v);
 837              		.loc 1 216 5 view .LVU190
 212:Drivers/lvgl/src/misc/lv_style_gen.c ****     lv_style_value_t v = {
 838              		.loc 1 212 1 is_stmt 0 view .LVU191
 839 0000 0A46     		mov	r2, r1
 840              		.loc 1 216 5 view .LVU192
 841 0002 2321     		movs	r1, #35
 842              	.LVL79:
 843              		.loc 1 216 5 view .LVU193
 844 0004 FFF7FEBF 		b	lv_style_set_prop
 845              	.LVL80:
 846              		.loc 1 216 5 view .LVU194
 847              		.cfi_endproc
 848              	.LFE80:
 850              		.section	.text.lv_style_set_bg_main_stop,"ax",%progbits
 851              		.align	1
 852              		.p2align 2,,3
 853              		.global	lv_style_set_bg_main_stop
 854              		.syntax unified
 855              		.thumb
 856              		.thumb_func
 858              	lv_style_set_bg_main_stop:
 859              	.LVL81:
 860              	.LFB81:
 217:Drivers/lvgl/src/misc/lv_style_gen.c **** }
 218:Drivers/lvgl/src/misc/lv_style_gen.c **** 
 219:Drivers/lvgl/src/misc/lv_style_gen.c **** void lv_style_set_bg_main_stop(lv_style_t * style, lv_coord_t value)
 220:Drivers/lvgl/src/misc/lv_style_gen.c **** {
 861              		.loc 1 220 1 is_stmt 1 view -0
 862              		.cfi_startproc
 863              		@ args = 0, pretend = 0, frame = 0
 864              		@ frame_needed = 0, uses_anonymous_args = 0
 865              		@ link register save eliminated.
 221:Drivers/lvgl/src/misc/lv_style_gen.c ****     lv_style_value_t v = {
 866              		.loc 1 221 5 view .LVU196
 222:Drivers/lvgl/src/misc/lv_style_gen.c ****         .num = (int32_t)value
 223:Drivers/lvgl/src/misc/lv_style_gen.c ****     };
 224:Drivers/lvgl/src/misc/lv_style_gen.c ****     lv_style_set_prop(style, LV_STYLE_BG_MAIN_STOP, v);
 867              		.loc 1 224 5 view .LVU197
 220:Drivers/lvgl/src/misc/lv_style_gen.c ****     lv_style_value_t v = {
 868              		.loc 1 220 1 is_stmt 0 view .LVU198
 869 0000 0A46     		mov	r2, r1
 870              		.loc 1 224 5 view .LVU199
 871 0002 2421     		movs	r1, #36
 872              	.LVL82:
 873              		.loc 1 224 5 view .LVU200
 874 0004 FFF7FEBF 		b	lv_style_set_prop
 875              	.LVL83:
 876              		.loc 1 224 5 view .LVU201
 877              		.cfi_endproc
 878              	.LFE81:
ARM GAS  /var/folders/lp/x54gwt890xv47sdkqj1k04q40000gn/T//ccdiwc3F.s 			page 20


 880              		.section	.text.lv_style_set_bg_grad_stop,"ax",%progbits
 881              		.align	1
 882              		.p2align 2,,3
 883              		.global	lv_style_set_bg_grad_stop
 884              		.syntax unified
 885              		.thumb
 886              		.thumb_func
 888              	lv_style_set_bg_grad_stop:
 889              	.LVL84:
 890              	.LFB82:
 225:Drivers/lvgl/src/misc/lv_style_gen.c **** }
 226:Drivers/lvgl/src/misc/lv_style_gen.c **** 
 227:Drivers/lvgl/src/misc/lv_style_gen.c **** void lv_style_set_bg_grad_stop(lv_style_t * style, lv_coord_t value)
 228:Drivers/lvgl/src/misc/lv_style_gen.c **** {
 891              		.loc 1 228 1 is_stmt 1 view -0
 892              		.cfi_startproc
 893              		@ args = 0, pretend = 0, frame = 0
 894              		@ frame_needed = 0, uses_anonymous_args = 0
 895              		@ link register save eliminated.
 229:Drivers/lvgl/src/misc/lv_style_gen.c ****     lv_style_value_t v = {
 896              		.loc 1 229 5 view .LVU203
 230:Drivers/lvgl/src/misc/lv_style_gen.c ****         .num = (int32_t)value
 231:Drivers/lvgl/src/misc/lv_style_gen.c ****     };
 232:Drivers/lvgl/src/misc/lv_style_gen.c ****     lv_style_set_prop(style, LV_STYLE_BG_GRAD_STOP, v);
 897              		.loc 1 232 5 view .LVU204
 228:Drivers/lvgl/src/misc/lv_style_gen.c ****     lv_style_value_t v = {
 898              		.loc 1 228 1 is_stmt 0 view .LVU205
 899 0000 0A46     		mov	r2, r1
 900              		.loc 1 232 5 view .LVU206
 901 0002 2521     		movs	r1, #37
 902              	.LVL85:
 903              		.loc 1 232 5 view .LVU207
 904 0004 FFF7FEBF 		b	lv_style_set_prop
 905              	.LVL86:
 906              		.loc 1 232 5 view .LVU208
 907              		.cfi_endproc
 908              	.LFE82:
 910              		.section	.text.lv_style_set_bg_grad,"ax",%progbits
 911              		.align	1
 912              		.p2align 2,,3
 913              		.global	lv_style_set_bg_grad
 914              		.syntax unified
 915              		.thumb
 916              		.thumb_func
 918              	lv_style_set_bg_grad:
 919              	.LVL87:
 920              	.LFB83:
 233:Drivers/lvgl/src/misc/lv_style_gen.c **** }
 234:Drivers/lvgl/src/misc/lv_style_gen.c **** 
 235:Drivers/lvgl/src/misc/lv_style_gen.c **** void lv_style_set_bg_grad(lv_style_t * style, const lv_grad_dsc_t * value)
 236:Drivers/lvgl/src/misc/lv_style_gen.c **** {
 921              		.loc 1 236 1 is_stmt 1 view -0
 922              		.cfi_startproc
 923              		@ args = 0, pretend = 0, frame = 0
 924              		@ frame_needed = 0, uses_anonymous_args = 0
 925              		@ link register save eliminated.
 237:Drivers/lvgl/src/misc/lv_style_gen.c ****     lv_style_value_t v = {
ARM GAS  /var/folders/lp/x54gwt890xv47sdkqj1k04q40000gn/T//ccdiwc3F.s 			page 21


 926              		.loc 1 237 5 view .LVU210
 238:Drivers/lvgl/src/misc/lv_style_gen.c ****         .ptr = value
 239:Drivers/lvgl/src/misc/lv_style_gen.c ****     };
 240:Drivers/lvgl/src/misc/lv_style_gen.c ****     lv_style_set_prop(style, LV_STYLE_BG_GRAD, v);
 927              		.loc 1 240 5 view .LVU211
 236:Drivers/lvgl/src/misc/lv_style_gen.c ****     lv_style_value_t v = {
 928              		.loc 1 236 1 is_stmt 0 view .LVU212
 929 0000 0A46     		mov	r2, r1
 930              		.loc 1 240 5 view .LVU213
 931 0002 2621     		movs	r1, #38
 932              	.LVL88:
 933              		.loc 1 240 5 view .LVU214
 934 0004 FFF7FEBF 		b	lv_style_set_prop
 935              	.LVL89:
 936              		.loc 1 240 5 view .LVU215
 937              		.cfi_endproc
 938              	.LFE83:
 940              		.section	.text.lv_style_set_bg_dither_mode,"ax",%progbits
 941              		.align	1
 942              		.p2align 2,,3
 943              		.global	lv_style_set_bg_dither_mode
 944              		.syntax unified
 945              		.thumb
 946              		.thumb_func
 948              	lv_style_set_bg_dither_mode:
 949              	.LVL90:
 950              	.LFB84:
 241:Drivers/lvgl/src/misc/lv_style_gen.c **** }
 242:Drivers/lvgl/src/misc/lv_style_gen.c **** 
 243:Drivers/lvgl/src/misc/lv_style_gen.c **** void lv_style_set_bg_dither_mode(lv_style_t * style, lv_dither_mode_t value)
 244:Drivers/lvgl/src/misc/lv_style_gen.c **** {
 951              		.loc 1 244 1 is_stmt 1 view -0
 952              		.cfi_startproc
 953              		@ args = 0, pretend = 0, frame = 0
 954              		@ frame_needed = 0, uses_anonymous_args = 0
 955              		@ link register save eliminated.
 245:Drivers/lvgl/src/misc/lv_style_gen.c ****     lv_style_value_t v = {
 956              		.loc 1 245 5 view .LVU217
 246:Drivers/lvgl/src/misc/lv_style_gen.c ****         .num = (int32_t)value
 247:Drivers/lvgl/src/misc/lv_style_gen.c ****     };
 248:Drivers/lvgl/src/misc/lv_style_gen.c ****     lv_style_set_prop(style, LV_STYLE_BG_DITHER_MODE, v);
 957              		.loc 1 248 5 view .LVU218
 244:Drivers/lvgl/src/misc/lv_style_gen.c ****     lv_style_value_t v = {
 958              		.loc 1 244 1 is_stmt 0 view .LVU219
 959 0000 0A46     		mov	r2, r1
 960              		.loc 1 248 5 view .LVU220
 961 0002 2721     		movs	r1, #39
 962              	.LVL91:
 963              		.loc 1 248 5 view .LVU221
 964 0004 FFF7FEBF 		b	lv_style_set_prop
 965              	.LVL92:
 966              		.loc 1 248 5 view .LVU222
 967              		.cfi_endproc
 968              	.LFE84:
 970              		.section	.text.lv_style_set_bg_img_src,"ax",%progbits
 971              		.align	1
 972              		.p2align 2,,3
ARM GAS  /var/folders/lp/x54gwt890xv47sdkqj1k04q40000gn/T//ccdiwc3F.s 			page 22


 973              		.global	lv_style_set_bg_img_src
 974              		.syntax unified
 975              		.thumb
 976              		.thumb_func
 978              	lv_style_set_bg_img_src:
 979              	.LVL93:
 980              	.LFB85:
 249:Drivers/lvgl/src/misc/lv_style_gen.c **** }
 250:Drivers/lvgl/src/misc/lv_style_gen.c **** 
 251:Drivers/lvgl/src/misc/lv_style_gen.c **** void lv_style_set_bg_img_src(lv_style_t * style, const void * value)
 252:Drivers/lvgl/src/misc/lv_style_gen.c **** {
 981              		.loc 1 252 1 is_stmt 1 view -0
 982              		.cfi_startproc
 983              		@ args = 0, pretend = 0, frame = 0
 984              		@ frame_needed = 0, uses_anonymous_args = 0
 985              		@ link register save eliminated.
 253:Drivers/lvgl/src/misc/lv_style_gen.c ****     lv_style_value_t v = {
 986              		.loc 1 253 5 view .LVU224
 254:Drivers/lvgl/src/misc/lv_style_gen.c ****         .ptr = value
 255:Drivers/lvgl/src/misc/lv_style_gen.c ****     };
 256:Drivers/lvgl/src/misc/lv_style_gen.c ****     lv_style_set_prop(style, LV_STYLE_BG_IMG_SRC, v);
 987              		.loc 1 256 5 view .LVU225
 252:Drivers/lvgl/src/misc/lv_style_gen.c ****     lv_style_value_t v = {
 988              		.loc 1 252 1 is_stmt 0 view .LVU226
 989 0000 0A46     		mov	r2, r1
 990              		.loc 1 256 5 view .LVU227
 991 0002 2821     		movs	r1, #40
 992              	.LVL94:
 993              		.loc 1 256 5 view .LVU228
 994 0004 FFF7FEBF 		b	lv_style_set_prop
 995              	.LVL95:
 996              		.loc 1 256 5 view .LVU229
 997              		.cfi_endproc
 998              	.LFE85:
 1000              		.section	.text.lv_style_set_bg_img_opa,"ax",%progbits
 1001              		.align	1
 1002              		.p2align 2,,3
 1003              		.global	lv_style_set_bg_img_opa
 1004              		.syntax unified
 1005              		.thumb
 1006              		.thumb_func
 1008              	lv_style_set_bg_img_opa:
 1009              	.LVL96:
 1010              	.LFB86:
 257:Drivers/lvgl/src/misc/lv_style_gen.c **** }
 258:Drivers/lvgl/src/misc/lv_style_gen.c **** 
 259:Drivers/lvgl/src/misc/lv_style_gen.c **** void lv_style_set_bg_img_opa(lv_style_t * style, lv_opa_t value)
 260:Drivers/lvgl/src/misc/lv_style_gen.c **** {
 1011              		.loc 1 260 1 is_stmt 1 view -0
 1012              		.cfi_startproc
 1013              		@ args = 0, pretend = 0, frame = 0
 1014              		@ frame_needed = 0, uses_anonymous_args = 0
 1015              		@ link register save eliminated.
 261:Drivers/lvgl/src/misc/lv_style_gen.c ****     lv_style_value_t v = {
 1016              		.loc 1 261 5 view .LVU231
 262:Drivers/lvgl/src/misc/lv_style_gen.c ****         .num = (int32_t)value
 263:Drivers/lvgl/src/misc/lv_style_gen.c ****     };
ARM GAS  /var/folders/lp/x54gwt890xv47sdkqj1k04q40000gn/T//ccdiwc3F.s 			page 23


 264:Drivers/lvgl/src/misc/lv_style_gen.c ****     lv_style_set_prop(style, LV_STYLE_BG_IMG_OPA, v);
 1017              		.loc 1 264 5 view .LVU232
 260:Drivers/lvgl/src/misc/lv_style_gen.c ****     lv_style_value_t v = {
 1018              		.loc 1 260 1 is_stmt 0 view .LVU233
 1019 0000 0A46     		mov	r2, r1
 1020              		.loc 1 264 5 view .LVU234
 1021 0002 2921     		movs	r1, #41
 1022              	.LVL97:
 1023              		.loc 1 264 5 view .LVU235
 1024 0004 FFF7FEBF 		b	lv_style_set_prop
 1025              	.LVL98:
 1026              		.loc 1 264 5 view .LVU236
 1027              		.cfi_endproc
 1028              	.LFE86:
 1030              		.section	.text.lv_style_set_bg_img_recolor,"ax",%progbits
 1031              		.align	1
 1032              		.p2align 2,,3
 1033              		.global	lv_style_set_bg_img_recolor
 1034              		.syntax unified
 1035              		.thumb
 1036              		.thumb_func
 1038              	lv_style_set_bg_img_recolor:
 1039              	.LVL99:
 1040              	.LFB87:
 265:Drivers/lvgl/src/misc/lv_style_gen.c **** }
 266:Drivers/lvgl/src/misc/lv_style_gen.c **** 
 267:Drivers/lvgl/src/misc/lv_style_gen.c **** void lv_style_set_bg_img_recolor(lv_style_t * style, lv_color_t value)
 268:Drivers/lvgl/src/misc/lv_style_gen.c **** {
 1041              		.loc 1 268 1 is_stmt 1 view -0
 1042              		.cfi_startproc
 1043              		@ args = 0, pretend = 0, frame = 8
 1044              		@ frame_needed = 0, uses_anonymous_args = 0
 1045              		@ link register save eliminated.
 269:Drivers/lvgl/src/misc/lv_style_gen.c ****     lv_style_value_t v = {
 1046              		.loc 1 269 5 view .LVU238
 270:Drivers/lvgl/src/misc/lv_style_gen.c ****         .color = value
 271:Drivers/lvgl/src/misc/lv_style_gen.c ****     };
 272:Drivers/lvgl/src/misc/lv_style_gen.c ****     lv_style_set_prop(style, LV_STYLE_BG_IMG_RECOLOR, v);
 1047              		.loc 1 272 5 view .LVU239
 268:Drivers/lvgl/src/misc/lv_style_gen.c ****     lv_style_value_t v = {
 1048              		.loc 1 268 1 is_stmt 0 view .LVU240
 1049 0000 82B0     		sub	sp, sp, #8
 1050              		.cfi_def_cfa_offset 8
 269:Drivers/lvgl/src/misc/lv_style_gen.c ****     lv_style_value_t v = {
 1051              		.loc 1 269 22 view .LVU241
 1052 0002 0023     		movs	r3, #0
 1053              		.loc 1 272 5 view .LVU242
 1054 0004 8AB2     		uxth	r2, r1
 1055 0006 2A21     		movs	r1, #42
 1056              	.LVL100:
 269:Drivers/lvgl/src/misc/lv_style_gen.c ****     lv_style_value_t v = {
 1057              		.loc 1 269 22 view .LVU243
 1058 0008 ADF80030 		strh	r3, [sp]	@ movhi
 273:Drivers/lvgl/src/misc/lv_style_gen.c **** }
 1059              		.loc 1 273 1 view .LVU244
 1060 000c 02B0     		add	sp, sp, #8
 1061              		.cfi_def_cfa_offset 0
ARM GAS  /var/folders/lp/x54gwt890xv47sdkqj1k04q40000gn/T//ccdiwc3F.s 			page 24


 1062              		@ sp needed
 272:Drivers/lvgl/src/misc/lv_style_gen.c **** }
 1063              		.loc 1 272 5 view .LVU245
 1064 000e FFF7FEBF 		b	lv_style_set_prop
 1065              	.LVL101:
 272:Drivers/lvgl/src/misc/lv_style_gen.c **** }
 1066              		.loc 1 272 5 view .LVU246
 1067              		.cfi_endproc
 1068              	.LFE87:
 1070 0012 00BF     		.section	.text.lv_style_set_bg_img_recolor_opa,"ax",%progbits
 1071              		.align	1
 1072              		.p2align 2,,3
 1073              		.global	lv_style_set_bg_img_recolor_opa
 1074              		.syntax unified
 1075              		.thumb
 1076              		.thumb_func
 1078              	lv_style_set_bg_img_recolor_opa:
 1079              	.LVL102:
 1080              	.LFB88:
 274:Drivers/lvgl/src/misc/lv_style_gen.c **** 
 275:Drivers/lvgl/src/misc/lv_style_gen.c **** void lv_style_set_bg_img_recolor_opa(lv_style_t * style, lv_opa_t value)
 276:Drivers/lvgl/src/misc/lv_style_gen.c **** {
 1081              		.loc 1 276 1 is_stmt 1 view -0
 1082              		.cfi_startproc
 1083              		@ args = 0, pretend = 0, frame = 0
 1084              		@ frame_needed = 0, uses_anonymous_args = 0
 1085              		@ link register save eliminated.
 277:Drivers/lvgl/src/misc/lv_style_gen.c ****     lv_style_value_t v = {
 1086              		.loc 1 277 5 view .LVU248
 278:Drivers/lvgl/src/misc/lv_style_gen.c ****         .num = (int32_t)value
 279:Drivers/lvgl/src/misc/lv_style_gen.c ****     };
 280:Drivers/lvgl/src/misc/lv_style_gen.c ****     lv_style_set_prop(style, LV_STYLE_BG_IMG_RECOLOR_OPA, v);
 1087              		.loc 1 280 5 view .LVU249
 276:Drivers/lvgl/src/misc/lv_style_gen.c ****     lv_style_value_t v = {
 1088              		.loc 1 276 1 is_stmt 0 view .LVU250
 1089 0000 0A46     		mov	r2, r1
 1090              		.loc 1 280 5 view .LVU251
 1091 0002 2B21     		movs	r1, #43
 1092              	.LVL103:
 1093              		.loc 1 280 5 view .LVU252
 1094 0004 FFF7FEBF 		b	lv_style_set_prop
 1095              	.LVL104:
 1096              		.loc 1 280 5 view .LVU253
 1097              		.cfi_endproc
 1098              	.LFE88:
 1100              		.section	.text.lv_style_set_bg_img_tiled,"ax",%progbits
 1101              		.align	1
 1102              		.p2align 2,,3
 1103              		.global	lv_style_set_bg_img_tiled
 1104              		.syntax unified
 1105              		.thumb
 1106              		.thumb_func
 1108              	lv_style_set_bg_img_tiled:
 1109              	.LVL105:
 1110              	.LFB89:
 281:Drivers/lvgl/src/misc/lv_style_gen.c **** }
 282:Drivers/lvgl/src/misc/lv_style_gen.c **** 
ARM GAS  /var/folders/lp/x54gwt890xv47sdkqj1k04q40000gn/T//ccdiwc3F.s 			page 25


 283:Drivers/lvgl/src/misc/lv_style_gen.c **** void lv_style_set_bg_img_tiled(lv_style_t * style, bool value)
 284:Drivers/lvgl/src/misc/lv_style_gen.c **** {
 1111              		.loc 1 284 1 is_stmt 1 view -0
 1112              		.cfi_startproc
 1113              		@ args = 0, pretend = 0, frame = 0
 1114              		@ frame_needed = 0, uses_anonymous_args = 0
 1115              		@ link register save eliminated.
 285:Drivers/lvgl/src/misc/lv_style_gen.c ****     lv_style_value_t v = {
 1116              		.loc 1 285 5 view .LVU255
 286:Drivers/lvgl/src/misc/lv_style_gen.c ****         .num = (int32_t)value
 287:Drivers/lvgl/src/misc/lv_style_gen.c ****     };
 288:Drivers/lvgl/src/misc/lv_style_gen.c ****     lv_style_set_prop(style, LV_STYLE_BG_IMG_TILED, v);
 1117              		.loc 1 288 5 view .LVU256
 284:Drivers/lvgl/src/misc/lv_style_gen.c ****     lv_style_value_t v = {
 1118              		.loc 1 284 1 is_stmt 0 view .LVU257
 1119 0000 0A46     		mov	r2, r1
 1120              		.loc 1 288 5 view .LVU258
 1121 0002 2C21     		movs	r1, #44
 1122              	.LVL106:
 1123              		.loc 1 288 5 view .LVU259
 1124 0004 FFF7FEBF 		b	lv_style_set_prop
 1125              	.LVL107:
 1126              		.loc 1 288 5 view .LVU260
 1127              		.cfi_endproc
 1128              	.LFE89:
 1130              		.section	.text.lv_style_set_border_color,"ax",%progbits
 1131              		.align	1
 1132              		.p2align 2,,3
 1133              		.global	lv_style_set_border_color
 1134              		.syntax unified
 1135              		.thumb
 1136              		.thumb_func
 1138              	lv_style_set_border_color:
 1139              	.LVL108:
 1140              	.LFB90:
 289:Drivers/lvgl/src/misc/lv_style_gen.c **** }
 290:Drivers/lvgl/src/misc/lv_style_gen.c **** 
 291:Drivers/lvgl/src/misc/lv_style_gen.c **** void lv_style_set_border_color(lv_style_t * style, lv_color_t value)
 292:Drivers/lvgl/src/misc/lv_style_gen.c **** {
 1141              		.loc 1 292 1 is_stmt 1 view -0
 1142              		.cfi_startproc
 1143              		@ args = 0, pretend = 0, frame = 8
 1144              		@ frame_needed = 0, uses_anonymous_args = 0
 1145              		@ link register save eliminated.
 293:Drivers/lvgl/src/misc/lv_style_gen.c ****     lv_style_value_t v = {
 1146              		.loc 1 293 5 view .LVU262
 294:Drivers/lvgl/src/misc/lv_style_gen.c ****         .color = value
 295:Drivers/lvgl/src/misc/lv_style_gen.c ****     };
 296:Drivers/lvgl/src/misc/lv_style_gen.c ****     lv_style_set_prop(style, LV_STYLE_BORDER_COLOR, v);
 1147              		.loc 1 296 5 view .LVU263
 292:Drivers/lvgl/src/misc/lv_style_gen.c ****     lv_style_value_t v = {
 1148              		.loc 1 292 1 is_stmt 0 view .LVU264
 1149 0000 82B0     		sub	sp, sp, #8
 1150              		.cfi_def_cfa_offset 8
 293:Drivers/lvgl/src/misc/lv_style_gen.c ****     lv_style_value_t v = {
 1151              		.loc 1 293 22 view .LVU265
 1152 0002 0023     		movs	r3, #0
ARM GAS  /var/folders/lp/x54gwt890xv47sdkqj1k04q40000gn/T//ccdiwc3F.s 			page 26


 1153              		.loc 1 296 5 view .LVU266
 1154 0004 8AB2     		uxth	r2, r1
 1155 0006 3021     		movs	r1, #48
 1156              	.LVL109:
 293:Drivers/lvgl/src/misc/lv_style_gen.c ****     lv_style_value_t v = {
 1157              		.loc 1 293 22 view .LVU267
 1158 0008 ADF80030 		strh	r3, [sp]	@ movhi
 297:Drivers/lvgl/src/misc/lv_style_gen.c **** }
 1159              		.loc 1 297 1 view .LVU268
 1160 000c 02B0     		add	sp, sp, #8
 1161              		.cfi_def_cfa_offset 0
 1162              		@ sp needed
 296:Drivers/lvgl/src/misc/lv_style_gen.c **** }
 1163              		.loc 1 296 5 view .LVU269
 1164 000e FFF7FEBF 		b	lv_style_set_prop
 1165              	.LVL110:
 296:Drivers/lvgl/src/misc/lv_style_gen.c **** }
 1166              		.loc 1 296 5 view .LVU270
 1167              		.cfi_endproc
 1168              	.LFE90:
 1170 0012 00BF     		.section	.text.lv_style_set_border_opa,"ax",%progbits
 1171              		.align	1
 1172              		.p2align 2,,3
 1173              		.global	lv_style_set_border_opa
 1174              		.syntax unified
 1175              		.thumb
 1176              		.thumb_func
 1178              	lv_style_set_border_opa:
 1179              	.LVL111:
 1180              	.LFB91:
 298:Drivers/lvgl/src/misc/lv_style_gen.c **** 
 299:Drivers/lvgl/src/misc/lv_style_gen.c **** void lv_style_set_border_opa(lv_style_t * style, lv_opa_t value)
 300:Drivers/lvgl/src/misc/lv_style_gen.c **** {
 1181              		.loc 1 300 1 is_stmt 1 view -0
 1182              		.cfi_startproc
 1183              		@ args = 0, pretend = 0, frame = 0
 1184              		@ frame_needed = 0, uses_anonymous_args = 0
 1185              		@ link register save eliminated.
 301:Drivers/lvgl/src/misc/lv_style_gen.c ****     lv_style_value_t v = {
 1186              		.loc 1 301 5 view .LVU272
 302:Drivers/lvgl/src/misc/lv_style_gen.c ****         .num = (int32_t)value
 303:Drivers/lvgl/src/misc/lv_style_gen.c ****     };
 304:Drivers/lvgl/src/misc/lv_style_gen.c ****     lv_style_set_prop(style, LV_STYLE_BORDER_OPA, v);
 1187              		.loc 1 304 5 view .LVU273
 300:Drivers/lvgl/src/misc/lv_style_gen.c ****     lv_style_value_t v = {
 1188              		.loc 1 300 1 is_stmt 0 view .LVU274
 1189 0000 0A46     		mov	r2, r1
 1190              		.loc 1 304 5 view .LVU275
 1191 0002 3121     		movs	r1, #49
 1192              	.LVL112:
 1193              		.loc 1 304 5 view .LVU276
 1194 0004 FFF7FEBF 		b	lv_style_set_prop
 1195              	.LVL113:
 1196              		.loc 1 304 5 view .LVU277
 1197              		.cfi_endproc
 1198              	.LFE91:
 1200              		.section	.text.lv_style_set_border_width,"ax",%progbits
ARM GAS  /var/folders/lp/x54gwt890xv47sdkqj1k04q40000gn/T//ccdiwc3F.s 			page 27


 1201              		.align	1
 1202              		.p2align 2,,3
 1203              		.global	lv_style_set_border_width
 1204              		.syntax unified
 1205              		.thumb
 1206              		.thumb_func
 1208              	lv_style_set_border_width:
 1209              	.LVL114:
 1210              	.LFB92:
 305:Drivers/lvgl/src/misc/lv_style_gen.c **** }
 306:Drivers/lvgl/src/misc/lv_style_gen.c **** 
 307:Drivers/lvgl/src/misc/lv_style_gen.c **** void lv_style_set_border_width(lv_style_t * style, lv_coord_t value)
 308:Drivers/lvgl/src/misc/lv_style_gen.c **** {
 1211              		.loc 1 308 1 is_stmt 1 view -0
 1212              		.cfi_startproc
 1213              		@ args = 0, pretend = 0, frame = 0
 1214              		@ frame_needed = 0, uses_anonymous_args = 0
 1215              		@ link register save eliminated.
 309:Drivers/lvgl/src/misc/lv_style_gen.c ****     lv_style_value_t v = {
 1216              		.loc 1 309 5 view .LVU279
 310:Drivers/lvgl/src/misc/lv_style_gen.c ****         .num = (int32_t)value
 311:Drivers/lvgl/src/misc/lv_style_gen.c ****     };
 312:Drivers/lvgl/src/misc/lv_style_gen.c ****     lv_style_set_prop(style, LV_STYLE_BORDER_WIDTH, v);
 1217              		.loc 1 312 5 view .LVU280
 308:Drivers/lvgl/src/misc/lv_style_gen.c ****     lv_style_value_t v = {
 1218              		.loc 1 308 1 is_stmt 0 view .LVU281
 1219 0000 0A46     		mov	r2, r1
 1220              		.loc 1 312 5 view .LVU282
 1221 0002 3221     		movs	r1, #50
 1222              	.LVL115:
 1223              		.loc 1 312 5 view .LVU283
 1224 0004 FFF7FEBF 		b	lv_style_set_prop
 1225              	.LVL116:
 1226              		.loc 1 312 5 view .LVU284
 1227              		.cfi_endproc
 1228              	.LFE92:
 1230              		.section	.text.lv_style_set_border_side,"ax",%progbits
 1231              		.align	1
 1232              		.p2align 2,,3
 1233              		.global	lv_style_set_border_side
 1234              		.syntax unified
 1235              		.thumb
 1236              		.thumb_func
 1238              	lv_style_set_border_side:
 1239              	.LVL117:
 1240              	.LFB93:
 313:Drivers/lvgl/src/misc/lv_style_gen.c **** }
 314:Drivers/lvgl/src/misc/lv_style_gen.c **** 
 315:Drivers/lvgl/src/misc/lv_style_gen.c **** void lv_style_set_border_side(lv_style_t * style, lv_border_side_t value)
 316:Drivers/lvgl/src/misc/lv_style_gen.c **** {
 1241              		.loc 1 316 1 is_stmt 1 view -0
 1242              		.cfi_startproc
 1243              		@ args = 0, pretend = 0, frame = 0
 1244              		@ frame_needed = 0, uses_anonymous_args = 0
 1245              		@ link register save eliminated.
 317:Drivers/lvgl/src/misc/lv_style_gen.c ****     lv_style_value_t v = {
 1246              		.loc 1 317 5 view .LVU286
ARM GAS  /var/folders/lp/x54gwt890xv47sdkqj1k04q40000gn/T//ccdiwc3F.s 			page 28


 318:Drivers/lvgl/src/misc/lv_style_gen.c ****         .num = (int32_t)value
 319:Drivers/lvgl/src/misc/lv_style_gen.c ****     };
 320:Drivers/lvgl/src/misc/lv_style_gen.c ****     lv_style_set_prop(style, LV_STYLE_BORDER_SIDE, v);
 1247              		.loc 1 320 5 view .LVU287
 316:Drivers/lvgl/src/misc/lv_style_gen.c ****     lv_style_value_t v = {
 1248              		.loc 1 316 1 is_stmt 0 view .LVU288
 1249 0000 0A46     		mov	r2, r1
 1250              		.loc 1 320 5 view .LVU289
 1251 0002 3321     		movs	r1, #51
 1252              	.LVL118:
 1253              		.loc 1 320 5 view .LVU290
 1254 0004 FFF7FEBF 		b	lv_style_set_prop
 1255              	.LVL119:
 1256              		.loc 1 320 5 view .LVU291
 1257              		.cfi_endproc
 1258              	.LFE93:
 1260              		.section	.text.lv_style_set_border_post,"ax",%progbits
 1261              		.align	1
 1262              		.p2align 2,,3
 1263              		.global	lv_style_set_border_post
 1264              		.syntax unified
 1265              		.thumb
 1266              		.thumb_func
 1268              	lv_style_set_border_post:
 1269              	.LVL120:
 1270              	.LFB94:
 321:Drivers/lvgl/src/misc/lv_style_gen.c **** }
 322:Drivers/lvgl/src/misc/lv_style_gen.c **** 
 323:Drivers/lvgl/src/misc/lv_style_gen.c **** void lv_style_set_border_post(lv_style_t * style, bool value)
 324:Drivers/lvgl/src/misc/lv_style_gen.c **** {
 1271              		.loc 1 324 1 is_stmt 1 view -0
 1272              		.cfi_startproc
 1273              		@ args = 0, pretend = 0, frame = 0
 1274              		@ frame_needed = 0, uses_anonymous_args = 0
 1275              		@ link register save eliminated.
 325:Drivers/lvgl/src/misc/lv_style_gen.c ****     lv_style_value_t v = {
 1276              		.loc 1 325 5 view .LVU293
 326:Drivers/lvgl/src/misc/lv_style_gen.c ****         .num = (int32_t)value
 327:Drivers/lvgl/src/misc/lv_style_gen.c ****     };
 328:Drivers/lvgl/src/misc/lv_style_gen.c ****     lv_style_set_prop(style, LV_STYLE_BORDER_POST, v);
 1277              		.loc 1 328 5 view .LVU294
 324:Drivers/lvgl/src/misc/lv_style_gen.c ****     lv_style_value_t v = {
 1278              		.loc 1 324 1 is_stmt 0 view .LVU295
 1279 0000 0A46     		mov	r2, r1
 1280              		.loc 1 328 5 view .LVU296
 1281 0002 3421     		movs	r1, #52
 1282              	.LVL121:
 1283              		.loc 1 328 5 view .LVU297
 1284 0004 FFF7FEBF 		b	lv_style_set_prop
 1285              	.LVL122:
 1286              		.loc 1 328 5 view .LVU298
 1287              		.cfi_endproc
 1288              	.LFE94:
 1290              		.section	.text.lv_style_set_outline_width,"ax",%progbits
 1291              		.align	1
 1292              		.p2align 2,,3
 1293              		.global	lv_style_set_outline_width
ARM GAS  /var/folders/lp/x54gwt890xv47sdkqj1k04q40000gn/T//ccdiwc3F.s 			page 29


 1294              		.syntax unified
 1295              		.thumb
 1296              		.thumb_func
 1298              	lv_style_set_outline_width:
 1299              	.LVL123:
 1300              	.LFB95:
 329:Drivers/lvgl/src/misc/lv_style_gen.c **** }
 330:Drivers/lvgl/src/misc/lv_style_gen.c **** 
 331:Drivers/lvgl/src/misc/lv_style_gen.c **** void lv_style_set_outline_width(lv_style_t * style, lv_coord_t value)
 332:Drivers/lvgl/src/misc/lv_style_gen.c **** {
 1301              		.loc 1 332 1 is_stmt 1 view -0
 1302              		.cfi_startproc
 1303              		@ args = 0, pretend = 0, frame = 0
 1304              		@ frame_needed = 0, uses_anonymous_args = 0
 1305              		@ link register save eliminated.
 333:Drivers/lvgl/src/misc/lv_style_gen.c ****     lv_style_value_t v = {
 1306              		.loc 1 333 5 view .LVU300
 334:Drivers/lvgl/src/misc/lv_style_gen.c ****         .num = (int32_t)value
 335:Drivers/lvgl/src/misc/lv_style_gen.c ****     };
 336:Drivers/lvgl/src/misc/lv_style_gen.c ****     lv_style_set_prop(style, LV_STYLE_OUTLINE_WIDTH, v);
 1307              		.loc 1 336 5 view .LVU301
 332:Drivers/lvgl/src/misc/lv_style_gen.c ****     lv_style_value_t v = {
 1308              		.loc 1 332 1 is_stmt 0 view .LVU302
 1309 0000 0A46     		mov	r2, r1
 1310              		.loc 1 336 5 view .LVU303
 1311 0002 3521     		movs	r1, #53
 1312              	.LVL124:
 1313              		.loc 1 336 5 view .LVU304
 1314 0004 FFF7FEBF 		b	lv_style_set_prop
 1315              	.LVL125:
 1316              		.loc 1 336 5 view .LVU305
 1317              		.cfi_endproc
 1318              	.LFE95:
 1320              		.section	.text.lv_style_set_outline_color,"ax",%progbits
 1321              		.align	1
 1322              		.p2align 2,,3
 1323              		.global	lv_style_set_outline_color
 1324              		.syntax unified
 1325              		.thumb
 1326              		.thumb_func
 1328              	lv_style_set_outline_color:
 1329              	.LVL126:
 1330              	.LFB96:
 337:Drivers/lvgl/src/misc/lv_style_gen.c **** }
 338:Drivers/lvgl/src/misc/lv_style_gen.c **** 
 339:Drivers/lvgl/src/misc/lv_style_gen.c **** void lv_style_set_outline_color(lv_style_t * style, lv_color_t value)
 340:Drivers/lvgl/src/misc/lv_style_gen.c **** {
 1331              		.loc 1 340 1 is_stmt 1 view -0
 1332              		.cfi_startproc
 1333              		@ args = 0, pretend = 0, frame = 8
 1334              		@ frame_needed = 0, uses_anonymous_args = 0
 1335              		@ link register save eliminated.
 341:Drivers/lvgl/src/misc/lv_style_gen.c ****     lv_style_value_t v = {
 1336              		.loc 1 341 5 view .LVU307
 342:Drivers/lvgl/src/misc/lv_style_gen.c ****         .color = value
 343:Drivers/lvgl/src/misc/lv_style_gen.c ****     };
 344:Drivers/lvgl/src/misc/lv_style_gen.c ****     lv_style_set_prop(style, LV_STYLE_OUTLINE_COLOR, v);
ARM GAS  /var/folders/lp/x54gwt890xv47sdkqj1k04q40000gn/T//ccdiwc3F.s 			page 30


 1337              		.loc 1 344 5 view .LVU308
 340:Drivers/lvgl/src/misc/lv_style_gen.c ****     lv_style_value_t v = {
 1338              		.loc 1 340 1 is_stmt 0 view .LVU309
 1339 0000 82B0     		sub	sp, sp, #8
 1340              		.cfi_def_cfa_offset 8
 341:Drivers/lvgl/src/misc/lv_style_gen.c ****     lv_style_value_t v = {
 1341              		.loc 1 341 22 view .LVU310
 1342 0002 0023     		movs	r3, #0
 1343              		.loc 1 344 5 view .LVU311
 1344 0004 8AB2     		uxth	r2, r1
 1345 0006 3621     		movs	r1, #54
 1346              	.LVL127:
 341:Drivers/lvgl/src/misc/lv_style_gen.c ****     lv_style_value_t v = {
 1347              		.loc 1 341 22 view .LVU312
 1348 0008 ADF80030 		strh	r3, [sp]	@ movhi
 345:Drivers/lvgl/src/misc/lv_style_gen.c **** }
 1349              		.loc 1 345 1 view .LVU313
 1350 000c 02B0     		add	sp, sp, #8
 1351              		.cfi_def_cfa_offset 0
 1352              		@ sp needed
 344:Drivers/lvgl/src/misc/lv_style_gen.c **** }
 1353              		.loc 1 344 5 view .LVU314
 1354 000e FFF7FEBF 		b	lv_style_set_prop
 1355              	.LVL128:
 344:Drivers/lvgl/src/misc/lv_style_gen.c **** }
 1356              		.loc 1 344 5 view .LVU315
 1357              		.cfi_endproc
 1358              	.LFE96:
 1360 0012 00BF     		.section	.text.lv_style_set_outline_opa,"ax",%progbits
 1361              		.align	1
 1362              		.p2align 2,,3
 1363              		.global	lv_style_set_outline_opa
 1364              		.syntax unified
 1365              		.thumb
 1366              		.thumb_func
 1368              	lv_style_set_outline_opa:
 1369              	.LVL129:
 1370              	.LFB97:
 346:Drivers/lvgl/src/misc/lv_style_gen.c **** 
 347:Drivers/lvgl/src/misc/lv_style_gen.c **** void lv_style_set_outline_opa(lv_style_t * style, lv_opa_t value)
 348:Drivers/lvgl/src/misc/lv_style_gen.c **** {
 1371              		.loc 1 348 1 is_stmt 1 view -0
 1372              		.cfi_startproc
 1373              		@ args = 0, pretend = 0, frame = 0
 1374              		@ frame_needed = 0, uses_anonymous_args = 0
 1375              		@ link register save eliminated.
 349:Drivers/lvgl/src/misc/lv_style_gen.c ****     lv_style_value_t v = {
 1376              		.loc 1 349 5 view .LVU317
 350:Drivers/lvgl/src/misc/lv_style_gen.c ****         .num = (int32_t)value
 351:Drivers/lvgl/src/misc/lv_style_gen.c ****     };
 352:Drivers/lvgl/src/misc/lv_style_gen.c ****     lv_style_set_prop(style, LV_STYLE_OUTLINE_OPA, v);
 1377              		.loc 1 352 5 view .LVU318
 348:Drivers/lvgl/src/misc/lv_style_gen.c ****     lv_style_value_t v = {
 1378              		.loc 1 348 1 is_stmt 0 view .LVU319
 1379 0000 0A46     		mov	r2, r1
 1380              		.loc 1 352 5 view .LVU320
 1381 0002 3721     		movs	r1, #55
ARM GAS  /var/folders/lp/x54gwt890xv47sdkqj1k04q40000gn/T//ccdiwc3F.s 			page 31


 1382              	.LVL130:
 1383              		.loc 1 352 5 view .LVU321
 1384 0004 FFF7FEBF 		b	lv_style_set_prop
 1385              	.LVL131:
 1386              		.loc 1 352 5 view .LVU322
 1387              		.cfi_endproc
 1388              	.LFE97:
 1390              		.section	.text.lv_style_set_outline_pad,"ax",%progbits
 1391              		.align	1
 1392              		.p2align 2,,3
 1393              		.global	lv_style_set_outline_pad
 1394              		.syntax unified
 1395              		.thumb
 1396              		.thumb_func
 1398              	lv_style_set_outline_pad:
 1399              	.LVL132:
 1400              	.LFB98:
 353:Drivers/lvgl/src/misc/lv_style_gen.c **** }
 354:Drivers/lvgl/src/misc/lv_style_gen.c **** 
 355:Drivers/lvgl/src/misc/lv_style_gen.c **** void lv_style_set_outline_pad(lv_style_t * style, lv_coord_t value)
 356:Drivers/lvgl/src/misc/lv_style_gen.c **** {
 1401              		.loc 1 356 1 is_stmt 1 view -0
 1402              		.cfi_startproc
 1403              		@ args = 0, pretend = 0, frame = 0
 1404              		@ frame_needed = 0, uses_anonymous_args = 0
 1405              		@ link register save eliminated.
 357:Drivers/lvgl/src/misc/lv_style_gen.c ****     lv_style_value_t v = {
 1406              		.loc 1 357 5 view .LVU324
 358:Drivers/lvgl/src/misc/lv_style_gen.c ****         .num = (int32_t)value
 359:Drivers/lvgl/src/misc/lv_style_gen.c ****     };
 360:Drivers/lvgl/src/misc/lv_style_gen.c ****     lv_style_set_prop(style, LV_STYLE_OUTLINE_PAD, v);
 1407              		.loc 1 360 5 view .LVU325
 356:Drivers/lvgl/src/misc/lv_style_gen.c ****     lv_style_value_t v = {
 1408              		.loc 1 356 1 is_stmt 0 view .LVU326
 1409 0000 0A46     		mov	r2, r1
 1410              		.loc 1 360 5 view .LVU327
 1411 0002 3821     		movs	r1, #56
 1412              	.LVL133:
 1413              		.loc 1 360 5 view .LVU328
 1414 0004 FFF7FEBF 		b	lv_style_set_prop
 1415              	.LVL134:
 1416              		.loc 1 360 5 view .LVU329
 1417              		.cfi_endproc
 1418              	.LFE98:
 1420              		.section	.text.lv_style_set_shadow_width,"ax",%progbits
 1421              		.align	1
 1422              		.p2align 2,,3
 1423              		.global	lv_style_set_shadow_width
 1424              		.syntax unified
 1425              		.thumb
 1426              		.thumb_func
 1428              	lv_style_set_shadow_width:
 1429              	.LVL135:
 1430              	.LFB99:
 361:Drivers/lvgl/src/misc/lv_style_gen.c **** }
 362:Drivers/lvgl/src/misc/lv_style_gen.c **** 
 363:Drivers/lvgl/src/misc/lv_style_gen.c **** void lv_style_set_shadow_width(lv_style_t * style, lv_coord_t value)
ARM GAS  /var/folders/lp/x54gwt890xv47sdkqj1k04q40000gn/T//ccdiwc3F.s 			page 32


 364:Drivers/lvgl/src/misc/lv_style_gen.c **** {
 1431              		.loc 1 364 1 is_stmt 1 view -0
 1432              		.cfi_startproc
 1433              		@ args = 0, pretend = 0, frame = 0
 1434              		@ frame_needed = 0, uses_anonymous_args = 0
 1435              		@ link register save eliminated.
 365:Drivers/lvgl/src/misc/lv_style_gen.c ****     lv_style_value_t v = {
 1436              		.loc 1 365 5 view .LVU331
 366:Drivers/lvgl/src/misc/lv_style_gen.c ****         .num = (int32_t)value
 367:Drivers/lvgl/src/misc/lv_style_gen.c ****     };
 368:Drivers/lvgl/src/misc/lv_style_gen.c ****     lv_style_set_prop(style, LV_STYLE_SHADOW_WIDTH, v);
 1437              		.loc 1 368 5 view .LVU332
 364:Drivers/lvgl/src/misc/lv_style_gen.c ****     lv_style_value_t v = {
 1438              		.loc 1 364 1 is_stmt 0 view .LVU333
 1439 0000 0A46     		mov	r2, r1
 1440              		.loc 1 368 5 view .LVU334
 1441 0002 4021     		movs	r1, #64
 1442              	.LVL136:
 1443              		.loc 1 368 5 view .LVU335
 1444 0004 FFF7FEBF 		b	lv_style_set_prop
 1445              	.LVL137:
 1446              		.loc 1 368 5 view .LVU336
 1447              		.cfi_endproc
 1448              	.LFE99:
 1450              		.section	.text.lv_style_set_shadow_ofs_x,"ax",%progbits
 1451              		.align	1
 1452              		.p2align 2,,3
 1453              		.global	lv_style_set_shadow_ofs_x
 1454              		.syntax unified
 1455              		.thumb
 1456              		.thumb_func
 1458              	lv_style_set_shadow_ofs_x:
 1459              	.LVL138:
 1460              	.LFB100:
 369:Drivers/lvgl/src/misc/lv_style_gen.c **** }
 370:Drivers/lvgl/src/misc/lv_style_gen.c **** 
 371:Drivers/lvgl/src/misc/lv_style_gen.c **** void lv_style_set_shadow_ofs_x(lv_style_t * style, lv_coord_t value)
 372:Drivers/lvgl/src/misc/lv_style_gen.c **** {
 1461              		.loc 1 372 1 is_stmt 1 view -0
 1462              		.cfi_startproc
 1463              		@ args = 0, pretend = 0, frame = 0
 1464              		@ frame_needed = 0, uses_anonymous_args = 0
 1465              		@ link register save eliminated.
 373:Drivers/lvgl/src/misc/lv_style_gen.c ****     lv_style_value_t v = {
 1466              		.loc 1 373 5 view .LVU338
 374:Drivers/lvgl/src/misc/lv_style_gen.c ****         .num = (int32_t)value
 375:Drivers/lvgl/src/misc/lv_style_gen.c ****     };
 376:Drivers/lvgl/src/misc/lv_style_gen.c ****     lv_style_set_prop(style, LV_STYLE_SHADOW_OFS_X, v);
 1467              		.loc 1 376 5 view .LVU339
 372:Drivers/lvgl/src/misc/lv_style_gen.c ****     lv_style_value_t v = {
 1468              		.loc 1 372 1 is_stmt 0 view .LVU340
 1469 0000 0A46     		mov	r2, r1
 1470              		.loc 1 376 5 view .LVU341
 1471 0002 4121     		movs	r1, #65
 1472              	.LVL139:
 1473              		.loc 1 376 5 view .LVU342
 1474 0004 FFF7FEBF 		b	lv_style_set_prop
ARM GAS  /var/folders/lp/x54gwt890xv47sdkqj1k04q40000gn/T//ccdiwc3F.s 			page 33


 1475              	.LVL140:
 1476              		.loc 1 376 5 view .LVU343
 1477              		.cfi_endproc
 1478              	.LFE100:
 1480              		.section	.text.lv_style_set_shadow_ofs_y,"ax",%progbits
 1481              		.align	1
 1482              		.p2align 2,,3
 1483              		.global	lv_style_set_shadow_ofs_y
 1484              		.syntax unified
 1485              		.thumb
 1486              		.thumb_func
 1488              	lv_style_set_shadow_ofs_y:
 1489              	.LVL141:
 1490              	.LFB101:
 377:Drivers/lvgl/src/misc/lv_style_gen.c **** }
 378:Drivers/lvgl/src/misc/lv_style_gen.c **** 
 379:Drivers/lvgl/src/misc/lv_style_gen.c **** void lv_style_set_shadow_ofs_y(lv_style_t * style, lv_coord_t value)
 380:Drivers/lvgl/src/misc/lv_style_gen.c **** {
 1491              		.loc 1 380 1 is_stmt 1 view -0
 1492              		.cfi_startproc
 1493              		@ args = 0, pretend = 0, frame = 0
 1494              		@ frame_needed = 0, uses_anonymous_args = 0
 1495              		@ link register save eliminated.
 381:Drivers/lvgl/src/misc/lv_style_gen.c ****     lv_style_value_t v = {
 1496              		.loc 1 381 5 view .LVU345
 382:Drivers/lvgl/src/misc/lv_style_gen.c ****         .num = (int32_t)value
 383:Drivers/lvgl/src/misc/lv_style_gen.c ****     };
 384:Drivers/lvgl/src/misc/lv_style_gen.c ****     lv_style_set_prop(style, LV_STYLE_SHADOW_OFS_Y, v);
 1497              		.loc 1 384 5 view .LVU346
 380:Drivers/lvgl/src/misc/lv_style_gen.c ****     lv_style_value_t v = {
 1498              		.loc 1 380 1 is_stmt 0 view .LVU347
 1499 0000 0A46     		mov	r2, r1
 1500              		.loc 1 384 5 view .LVU348
 1501 0002 4221     		movs	r1, #66
 1502              	.LVL142:
 1503              		.loc 1 384 5 view .LVU349
 1504 0004 FFF7FEBF 		b	lv_style_set_prop
 1505              	.LVL143:
 1506              		.loc 1 384 5 view .LVU350
 1507              		.cfi_endproc
 1508              	.LFE101:
 1510              		.section	.text.lv_style_set_shadow_spread,"ax",%progbits
 1511              		.align	1
 1512              		.p2align 2,,3
 1513              		.global	lv_style_set_shadow_spread
 1514              		.syntax unified
 1515              		.thumb
 1516              		.thumb_func
 1518              	lv_style_set_shadow_spread:
 1519              	.LVL144:
 1520              	.LFB102:
 385:Drivers/lvgl/src/misc/lv_style_gen.c **** }
 386:Drivers/lvgl/src/misc/lv_style_gen.c **** 
 387:Drivers/lvgl/src/misc/lv_style_gen.c **** void lv_style_set_shadow_spread(lv_style_t * style, lv_coord_t value)
 388:Drivers/lvgl/src/misc/lv_style_gen.c **** {
 1521              		.loc 1 388 1 is_stmt 1 view -0
 1522              		.cfi_startproc
ARM GAS  /var/folders/lp/x54gwt890xv47sdkqj1k04q40000gn/T//ccdiwc3F.s 			page 34


 1523              		@ args = 0, pretend = 0, frame = 0
 1524              		@ frame_needed = 0, uses_anonymous_args = 0
 1525              		@ link register save eliminated.
 389:Drivers/lvgl/src/misc/lv_style_gen.c ****     lv_style_value_t v = {
 1526              		.loc 1 389 5 view .LVU352
 390:Drivers/lvgl/src/misc/lv_style_gen.c ****         .num = (int32_t)value
 391:Drivers/lvgl/src/misc/lv_style_gen.c ****     };
 392:Drivers/lvgl/src/misc/lv_style_gen.c ****     lv_style_set_prop(style, LV_STYLE_SHADOW_SPREAD, v);
 1527              		.loc 1 392 5 view .LVU353
 388:Drivers/lvgl/src/misc/lv_style_gen.c ****     lv_style_value_t v = {
 1528              		.loc 1 388 1 is_stmt 0 view .LVU354
 1529 0000 0A46     		mov	r2, r1
 1530              		.loc 1 392 5 view .LVU355
 1531 0002 4321     		movs	r1, #67
 1532              	.LVL145:
 1533              		.loc 1 392 5 view .LVU356
 1534 0004 FFF7FEBF 		b	lv_style_set_prop
 1535              	.LVL146:
 1536              		.loc 1 392 5 view .LVU357
 1537              		.cfi_endproc
 1538              	.LFE102:
 1540              		.section	.text.lv_style_set_shadow_color,"ax",%progbits
 1541              		.align	1
 1542              		.p2align 2,,3
 1543              		.global	lv_style_set_shadow_color
 1544              		.syntax unified
 1545              		.thumb
 1546              		.thumb_func
 1548              	lv_style_set_shadow_color:
 1549              	.LVL147:
 1550              	.LFB103:
 393:Drivers/lvgl/src/misc/lv_style_gen.c **** }
 394:Drivers/lvgl/src/misc/lv_style_gen.c **** 
 395:Drivers/lvgl/src/misc/lv_style_gen.c **** void lv_style_set_shadow_color(lv_style_t * style, lv_color_t value)
 396:Drivers/lvgl/src/misc/lv_style_gen.c **** {
 1551              		.loc 1 396 1 is_stmt 1 view -0
 1552              		.cfi_startproc
 1553              		@ args = 0, pretend = 0, frame = 8
 1554              		@ frame_needed = 0, uses_anonymous_args = 0
 1555              		@ link register save eliminated.
 397:Drivers/lvgl/src/misc/lv_style_gen.c ****     lv_style_value_t v = {
 1556              		.loc 1 397 5 view .LVU359
 398:Drivers/lvgl/src/misc/lv_style_gen.c ****         .color = value
 399:Drivers/lvgl/src/misc/lv_style_gen.c ****     };
 400:Drivers/lvgl/src/misc/lv_style_gen.c ****     lv_style_set_prop(style, LV_STYLE_SHADOW_COLOR, v);
 1557              		.loc 1 400 5 view .LVU360
 396:Drivers/lvgl/src/misc/lv_style_gen.c ****     lv_style_value_t v = {
 1558              		.loc 1 396 1 is_stmt 0 view .LVU361
 1559 0000 82B0     		sub	sp, sp, #8
 1560              		.cfi_def_cfa_offset 8
 397:Drivers/lvgl/src/misc/lv_style_gen.c ****     lv_style_value_t v = {
 1561              		.loc 1 397 22 view .LVU362
 1562 0002 0023     		movs	r3, #0
 1563              		.loc 1 400 5 view .LVU363
 1564 0004 8AB2     		uxth	r2, r1
 1565 0006 4421     		movs	r1, #68
 1566              	.LVL148:
ARM GAS  /var/folders/lp/x54gwt890xv47sdkqj1k04q40000gn/T//ccdiwc3F.s 			page 35


 397:Drivers/lvgl/src/misc/lv_style_gen.c ****     lv_style_value_t v = {
 1567              		.loc 1 397 22 view .LVU364
 1568 0008 ADF80030 		strh	r3, [sp]	@ movhi
 401:Drivers/lvgl/src/misc/lv_style_gen.c **** }
 1569              		.loc 1 401 1 view .LVU365
 1570 000c 02B0     		add	sp, sp, #8
 1571              		.cfi_def_cfa_offset 0
 1572              		@ sp needed
 400:Drivers/lvgl/src/misc/lv_style_gen.c **** }
 1573              		.loc 1 400 5 view .LVU366
 1574 000e FFF7FEBF 		b	lv_style_set_prop
 1575              	.LVL149:
 400:Drivers/lvgl/src/misc/lv_style_gen.c **** }
 1576              		.loc 1 400 5 view .LVU367
 1577              		.cfi_endproc
 1578              	.LFE103:
 1580 0012 00BF     		.section	.text.lv_style_set_shadow_opa,"ax",%progbits
 1581              		.align	1
 1582              		.p2align 2,,3
 1583              		.global	lv_style_set_shadow_opa
 1584              		.syntax unified
 1585              		.thumb
 1586              		.thumb_func
 1588              	lv_style_set_shadow_opa:
 1589              	.LVL150:
 1590              	.LFB104:
 402:Drivers/lvgl/src/misc/lv_style_gen.c **** 
 403:Drivers/lvgl/src/misc/lv_style_gen.c **** void lv_style_set_shadow_opa(lv_style_t * style, lv_opa_t value)
 404:Drivers/lvgl/src/misc/lv_style_gen.c **** {
 1591              		.loc 1 404 1 is_stmt 1 view -0
 1592              		.cfi_startproc
 1593              		@ args = 0, pretend = 0, frame = 0
 1594              		@ frame_needed = 0, uses_anonymous_args = 0
 1595              		@ link register save eliminated.
 405:Drivers/lvgl/src/misc/lv_style_gen.c ****     lv_style_value_t v = {
 1596              		.loc 1 405 5 view .LVU369
 406:Drivers/lvgl/src/misc/lv_style_gen.c ****         .num = (int32_t)value
 407:Drivers/lvgl/src/misc/lv_style_gen.c ****     };
 408:Drivers/lvgl/src/misc/lv_style_gen.c ****     lv_style_set_prop(style, LV_STYLE_SHADOW_OPA, v);
 1597              		.loc 1 408 5 view .LVU370
 404:Drivers/lvgl/src/misc/lv_style_gen.c ****     lv_style_value_t v = {
 1598              		.loc 1 404 1 is_stmt 0 view .LVU371
 1599 0000 0A46     		mov	r2, r1
 1600              		.loc 1 408 5 view .LVU372
 1601 0002 4521     		movs	r1, #69
 1602              	.LVL151:
 1603              		.loc 1 408 5 view .LVU373
 1604 0004 FFF7FEBF 		b	lv_style_set_prop
 1605              	.LVL152:
 1606              		.loc 1 408 5 view .LVU374
 1607              		.cfi_endproc
 1608              	.LFE104:
 1610              		.section	.text.lv_style_set_img_opa,"ax",%progbits
 1611              		.align	1
 1612              		.p2align 2,,3
 1613              		.global	lv_style_set_img_opa
 1614              		.syntax unified
ARM GAS  /var/folders/lp/x54gwt890xv47sdkqj1k04q40000gn/T//ccdiwc3F.s 			page 36


 1615              		.thumb
 1616              		.thumb_func
 1618              	lv_style_set_img_opa:
 1619              	.LVL153:
 1620              	.LFB105:
 409:Drivers/lvgl/src/misc/lv_style_gen.c **** }
 410:Drivers/lvgl/src/misc/lv_style_gen.c **** 
 411:Drivers/lvgl/src/misc/lv_style_gen.c **** void lv_style_set_img_opa(lv_style_t * style, lv_opa_t value)
 412:Drivers/lvgl/src/misc/lv_style_gen.c **** {
 1621              		.loc 1 412 1 is_stmt 1 view -0
 1622              		.cfi_startproc
 1623              		@ args = 0, pretend = 0, frame = 0
 1624              		@ frame_needed = 0, uses_anonymous_args = 0
 1625              		@ link register save eliminated.
 413:Drivers/lvgl/src/misc/lv_style_gen.c ****     lv_style_value_t v = {
 1626              		.loc 1 413 5 view .LVU376
 414:Drivers/lvgl/src/misc/lv_style_gen.c ****         .num = (int32_t)value
 415:Drivers/lvgl/src/misc/lv_style_gen.c ****     };
 416:Drivers/lvgl/src/misc/lv_style_gen.c ****     lv_style_set_prop(style, LV_STYLE_IMG_OPA, v);
 1627              		.loc 1 416 5 view .LVU377
 412:Drivers/lvgl/src/misc/lv_style_gen.c ****     lv_style_value_t v = {
 1628              		.loc 1 412 1 is_stmt 0 view .LVU378
 1629 0000 0A46     		mov	r2, r1
 1630              		.loc 1 416 5 view .LVU379
 1631 0002 4621     		movs	r1, #70
 1632              	.LVL154:
 1633              		.loc 1 416 5 view .LVU380
 1634 0004 FFF7FEBF 		b	lv_style_set_prop
 1635              	.LVL155:
 1636              		.loc 1 416 5 view .LVU381
 1637              		.cfi_endproc
 1638              	.LFE105:
 1640              		.section	.text.lv_style_set_img_recolor,"ax",%progbits
 1641              		.align	1
 1642              		.p2align 2,,3
 1643              		.global	lv_style_set_img_recolor
 1644              		.syntax unified
 1645              		.thumb
 1646              		.thumb_func
 1648              	lv_style_set_img_recolor:
 1649              	.LVL156:
 1650              	.LFB106:
 417:Drivers/lvgl/src/misc/lv_style_gen.c **** }
 418:Drivers/lvgl/src/misc/lv_style_gen.c **** 
 419:Drivers/lvgl/src/misc/lv_style_gen.c **** void lv_style_set_img_recolor(lv_style_t * style, lv_color_t value)
 420:Drivers/lvgl/src/misc/lv_style_gen.c **** {
 1651              		.loc 1 420 1 is_stmt 1 view -0
 1652              		.cfi_startproc
 1653              		@ args = 0, pretend = 0, frame = 8
 1654              		@ frame_needed = 0, uses_anonymous_args = 0
 1655              		@ link register save eliminated.
 421:Drivers/lvgl/src/misc/lv_style_gen.c ****     lv_style_value_t v = {
 1656              		.loc 1 421 5 view .LVU383
 422:Drivers/lvgl/src/misc/lv_style_gen.c ****         .color = value
 423:Drivers/lvgl/src/misc/lv_style_gen.c ****     };
 424:Drivers/lvgl/src/misc/lv_style_gen.c ****     lv_style_set_prop(style, LV_STYLE_IMG_RECOLOR, v);
 1657              		.loc 1 424 5 view .LVU384
ARM GAS  /var/folders/lp/x54gwt890xv47sdkqj1k04q40000gn/T//ccdiwc3F.s 			page 37


 420:Drivers/lvgl/src/misc/lv_style_gen.c ****     lv_style_value_t v = {
 1658              		.loc 1 420 1 is_stmt 0 view .LVU385
 1659 0000 82B0     		sub	sp, sp, #8
 1660              		.cfi_def_cfa_offset 8
 421:Drivers/lvgl/src/misc/lv_style_gen.c ****     lv_style_value_t v = {
 1661              		.loc 1 421 22 view .LVU386
 1662 0002 0023     		movs	r3, #0
 1663              		.loc 1 424 5 view .LVU387
 1664 0004 8AB2     		uxth	r2, r1
 1665 0006 4721     		movs	r1, #71
 1666              	.LVL157:
 421:Drivers/lvgl/src/misc/lv_style_gen.c ****     lv_style_value_t v = {
 1667              		.loc 1 421 22 view .LVU388
 1668 0008 ADF80030 		strh	r3, [sp]	@ movhi
 425:Drivers/lvgl/src/misc/lv_style_gen.c **** }
 1669              		.loc 1 425 1 view .LVU389
 1670 000c 02B0     		add	sp, sp, #8
 1671              		.cfi_def_cfa_offset 0
 1672              		@ sp needed
 424:Drivers/lvgl/src/misc/lv_style_gen.c **** }
 1673              		.loc 1 424 5 view .LVU390
 1674 000e FFF7FEBF 		b	lv_style_set_prop
 1675              	.LVL158:
 424:Drivers/lvgl/src/misc/lv_style_gen.c **** }
 1676              		.loc 1 424 5 view .LVU391
 1677              		.cfi_endproc
 1678              	.LFE106:
 1680 0012 00BF     		.section	.text.lv_style_set_img_recolor_opa,"ax",%progbits
 1681              		.align	1
 1682              		.p2align 2,,3
 1683              		.global	lv_style_set_img_recolor_opa
 1684              		.syntax unified
 1685              		.thumb
 1686              		.thumb_func
 1688              	lv_style_set_img_recolor_opa:
 1689              	.LVL159:
 1690              	.LFB107:
 426:Drivers/lvgl/src/misc/lv_style_gen.c **** 
 427:Drivers/lvgl/src/misc/lv_style_gen.c **** void lv_style_set_img_recolor_opa(lv_style_t * style, lv_opa_t value)
 428:Drivers/lvgl/src/misc/lv_style_gen.c **** {
 1691              		.loc 1 428 1 is_stmt 1 view -0
 1692              		.cfi_startproc
 1693              		@ args = 0, pretend = 0, frame = 0
 1694              		@ frame_needed = 0, uses_anonymous_args = 0
 1695              		@ link register save eliminated.
 429:Drivers/lvgl/src/misc/lv_style_gen.c ****     lv_style_value_t v = {
 1696              		.loc 1 429 5 view .LVU393
 430:Drivers/lvgl/src/misc/lv_style_gen.c ****         .num = (int32_t)value
 431:Drivers/lvgl/src/misc/lv_style_gen.c ****     };
 432:Drivers/lvgl/src/misc/lv_style_gen.c ****     lv_style_set_prop(style, LV_STYLE_IMG_RECOLOR_OPA, v);
 1697              		.loc 1 432 5 view .LVU394
 428:Drivers/lvgl/src/misc/lv_style_gen.c ****     lv_style_value_t v = {
 1698              		.loc 1 428 1 is_stmt 0 view .LVU395
 1699 0000 0A46     		mov	r2, r1
 1700              		.loc 1 432 5 view .LVU396
 1701 0002 4821     		movs	r1, #72
 1702              	.LVL160:
ARM GAS  /var/folders/lp/x54gwt890xv47sdkqj1k04q40000gn/T//ccdiwc3F.s 			page 38


 1703              		.loc 1 432 5 view .LVU397
 1704 0004 FFF7FEBF 		b	lv_style_set_prop
 1705              	.LVL161:
 1706              		.loc 1 432 5 view .LVU398
 1707              		.cfi_endproc
 1708              	.LFE107:
 1710              		.section	.text.lv_style_set_line_width,"ax",%progbits
 1711              		.align	1
 1712              		.p2align 2,,3
 1713              		.global	lv_style_set_line_width
 1714              		.syntax unified
 1715              		.thumb
 1716              		.thumb_func
 1718              	lv_style_set_line_width:
 1719              	.LVL162:
 1720              	.LFB108:
 433:Drivers/lvgl/src/misc/lv_style_gen.c **** }
 434:Drivers/lvgl/src/misc/lv_style_gen.c **** 
 435:Drivers/lvgl/src/misc/lv_style_gen.c **** void lv_style_set_line_width(lv_style_t * style, lv_coord_t value)
 436:Drivers/lvgl/src/misc/lv_style_gen.c **** {
 1721              		.loc 1 436 1 is_stmt 1 view -0
 1722              		.cfi_startproc
 1723              		@ args = 0, pretend = 0, frame = 0
 1724              		@ frame_needed = 0, uses_anonymous_args = 0
 1725              		@ link register save eliminated.
 437:Drivers/lvgl/src/misc/lv_style_gen.c ****     lv_style_value_t v = {
 1726              		.loc 1 437 5 view .LVU400
 438:Drivers/lvgl/src/misc/lv_style_gen.c ****         .num = (int32_t)value
 439:Drivers/lvgl/src/misc/lv_style_gen.c ****     };
 440:Drivers/lvgl/src/misc/lv_style_gen.c ****     lv_style_set_prop(style, LV_STYLE_LINE_WIDTH, v);
 1727              		.loc 1 440 5 view .LVU401
 436:Drivers/lvgl/src/misc/lv_style_gen.c ****     lv_style_value_t v = {
 1728              		.loc 1 436 1 is_stmt 0 view .LVU402
 1729 0000 0A46     		mov	r2, r1
 1730              		.loc 1 440 5 view .LVU403
 1731 0002 4921     		movs	r1, #73
 1732              	.LVL163:
 1733              		.loc 1 440 5 view .LVU404
 1734 0004 FFF7FEBF 		b	lv_style_set_prop
 1735              	.LVL164:
 1736              		.loc 1 440 5 view .LVU405
 1737              		.cfi_endproc
 1738              	.LFE108:
 1740              		.section	.text.lv_style_set_line_dash_width,"ax",%progbits
 1741              		.align	1
 1742              		.p2align 2,,3
 1743              		.global	lv_style_set_line_dash_width
 1744              		.syntax unified
 1745              		.thumb
 1746              		.thumb_func
 1748              	lv_style_set_line_dash_width:
 1749              	.LVL165:
 1750              	.LFB109:
 441:Drivers/lvgl/src/misc/lv_style_gen.c **** }
 442:Drivers/lvgl/src/misc/lv_style_gen.c **** 
 443:Drivers/lvgl/src/misc/lv_style_gen.c **** void lv_style_set_line_dash_width(lv_style_t * style, lv_coord_t value)
 444:Drivers/lvgl/src/misc/lv_style_gen.c **** {
ARM GAS  /var/folders/lp/x54gwt890xv47sdkqj1k04q40000gn/T//ccdiwc3F.s 			page 39


 1751              		.loc 1 444 1 is_stmt 1 view -0
 1752              		.cfi_startproc
 1753              		@ args = 0, pretend = 0, frame = 0
 1754              		@ frame_needed = 0, uses_anonymous_args = 0
 1755              		@ link register save eliminated.
 445:Drivers/lvgl/src/misc/lv_style_gen.c ****     lv_style_value_t v = {
 1756              		.loc 1 445 5 view .LVU407
 446:Drivers/lvgl/src/misc/lv_style_gen.c ****         .num = (int32_t)value
 447:Drivers/lvgl/src/misc/lv_style_gen.c ****     };
 448:Drivers/lvgl/src/misc/lv_style_gen.c ****     lv_style_set_prop(style, LV_STYLE_LINE_DASH_WIDTH, v);
 1757              		.loc 1 448 5 view .LVU408
 444:Drivers/lvgl/src/misc/lv_style_gen.c ****     lv_style_value_t v = {
 1758              		.loc 1 444 1 is_stmt 0 view .LVU409
 1759 0000 0A46     		mov	r2, r1
 1760              		.loc 1 448 5 view .LVU410
 1761 0002 4A21     		movs	r1, #74
 1762              	.LVL166:
 1763              		.loc 1 448 5 view .LVU411
 1764 0004 FFF7FEBF 		b	lv_style_set_prop
 1765              	.LVL167:
 1766              		.loc 1 448 5 view .LVU412
 1767              		.cfi_endproc
 1768              	.LFE109:
 1770              		.section	.text.lv_style_set_line_dash_gap,"ax",%progbits
 1771              		.align	1
 1772              		.p2align 2,,3
 1773              		.global	lv_style_set_line_dash_gap
 1774              		.syntax unified
 1775              		.thumb
 1776              		.thumb_func
 1778              	lv_style_set_line_dash_gap:
 1779              	.LVL168:
 1780              	.LFB110:
 449:Drivers/lvgl/src/misc/lv_style_gen.c **** }
 450:Drivers/lvgl/src/misc/lv_style_gen.c **** 
 451:Drivers/lvgl/src/misc/lv_style_gen.c **** void lv_style_set_line_dash_gap(lv_style_t * style, lv_coord_t value)
 452:Drivers/lvgl/src/misc/lv_style_gen.c **** {
 1781              		.loc 1 452 1 is_stmt 1 view -0
 1782              		.cfi_startproc
 1783              		@ args = 0, pretend = 0, frame = 0
 1784              		@ frame_needed = 0, uses_anonymous_args = 0
 1785              		@ link register save eliminated.
 453:Drivers/lvgl/src/misc/lv_style_gen.c ****     lv_style_value_t v = {
 1786              		.loc 1 453 5 view .LVU414
 454:Drivers/lvgl/src/misc/lv_style_gen.c ****         .num = (int32_t)value
 455:Drivers/lvgl/src/misc/lv_style_gen.c ****     };
 456:Drivers/lvgl/src/misc/lv_style_gen.c ****     lv_style_set_prop(style, LV_STYLE_LINE_DASH_GAP, v);
 1787              		.loc 1 456 5 view .LVU415
 452:Drivers/lvgl/src/misc/lv_style_gen.c ****     lv_style_value_t v = {
 1788              		.loc 1 452 1 is_stmt 0 view .LVU416
 1789 0000 0A46     		mov	r2, r1
 1790              		.loc 1 456 5 view .LVU417
 1791 0002 4B21     		movs	r1, #75
 1792              	.LVL169:
 1793              		.loc 1 456 5 view .LVU418
 1794 0004 FFF7FEBF 		b	lv_style_set_prop
 1795              	.LVL170:
ARM GAS  /var/folders/lp/x54gwt890xv47sdkqj1k04q40000gn/T//ccdiwc3F.s 			page 40


 1796              		.loc 1 456 5 view .LVU419
 1797              		.cfi_endproc
 1798              	.LFE110:
 1800              		.section	.text.lv_style_set_line_rounded,"ax",%progbits
 1801              		.align	1
 1802              		.p2align 2,,3
 1803              		.global	lv_style_set_line_rounded
 1804              		.syntax unified
 1805              		.thumb
 1806              		.thumb_func
 1808              	lv_style_set_line_rounded:
 1809              	.LVL171:
 1810              	.LFB111:
 457:Drivers/lvgl/src/misc/lv_style_gen.c **** }
 458:Drivers/lvgl/src/misc/lv_style_gen.c **** 
 459:Drivers/lvgl/src/misc/lv_style_gen.c **** void lv_style_set_line_rounded(lv_style_t * style, bool value)
 460:Drivers/lvgl/src/misc/lv_style_gen.c **** {
 1811              		.loc 1 460 1 is_stmt 1 view -0
 1812              		.cfi_startproc
 1813              		@ args = 0, pretend = 0, frame = 0
 1814              		@ frame_needed = 0, uses_anonymous_args = 0
 1815              		@ link register save eliminated.
 461:Drivers/lvgl/src/misc/lv_style_gen.c ****     lv_style_value_t v = {
 1816              		.loc 1 461 5 view .LVU421
 462:Drivers/lvgl/src/misc/lv_style_gen.c ****         .num = (int32_t)value
 463:Drivers/lvgl/src/misc/lv_style_gen.c ****     };
 464:Drivers/lvgl/src/misc/lv_style_gen.c ****     lv_style_set_prop(style, LV_STYLE_LINE_ROUNDED, v);
 1817              		.loc 1 464 5 view .LVU422
 460:Drivers/lvgl/src/misc/lv_style_gen.c ****     lv_style_value_t v = {
 1818              		.loc 1 460 1 is_stmt 0 view .LVU423
 1819 0000 0A46     		mov	r2, r1
 1820              		.loc 1 464 5 view .LVU424
 1821 0002 4C21     		movs	r1, #76
 1822              	.LVL172:
 1823              		.loc 1 464 5 view .LVU425
 1824 0004 FFF7FEBF 		b	lv_style_set_prop
 1825              	.LVL173:
 1826              		.loc 1 464 5 view .LVU426
 1827              		.cfi_endproc
 1828              	.LFE111:
 1830              		.section	.text.lv_style_set_line_color,"ax",%progbits
 1831              		.align	1
 1832              		.p2align 2,,3
 1833              		.global	lv_style_set_line_color
 1834              		.syntax unified
 1835              		.thumb
 1836              		.thumb_func
 1838              	lv_style_set_line_color:
 1839              	.LVL174:
 1840              	.LFB112:
 465:Drivers/lvgl/src/misc/lv_style_gen.c **** }
 466:Drivers/lvgl/src/misc/lv_style_gen.c **** 
 467:Drivers/lvgl/src/misc/lv_style_gen.c **** void lv_style_set_line_color(lv_style_t * style, lv_color_t value)
 468:Drivers/lvgl/src/misc/lv_style_gen.c **** {
 1841              		.loc 1 468 1 is_stmt 1 view -0
 1842              		.cfi_startproc
 1843              		@ args = 0, pretend = 0, frame = 8
ARM GAS  /var/folders/lp/x54gwt890xv47sdkqj1k04q40000gn/T//ccdiwc3F.s 			page 41


 1844              		@ frame_needed = 0, uses_anonymous_args = 0
 1845              		@ link register save eliminated.
 469:Drivers/lvgl/src/misc/lv_style_gen.c ****     lv_style_value_t v = {
 1846              		.loc 1 469 5 view .LVU428
 470:Drivers/lvgl/src/misc/lv_style_gen.c ****         .color = value
 471:Drivers/lvgl/src/misc/lv_style_gen.c ****     };
 472:Drivers/lvgl/src/misc/lv_style_gen.c ****     lv_style_set_prop(style, LV_STYLE_LINE_COLOR, v);
 1847              		.loc 1 472 5 view .LVU429
 468:Drivers/lvgl/src/misc/lv_style_gen.c ****     lv_style_value_t v = {
 1848              		.loc 1 468 1 is_stmt 0 view .LVU430
 1849 0000 82B0     		sub	sp, sp, #8
 1850              		.cfi_def_cfa_offset 8
 469:Drivers/lvgl/src/misc/lv_style_gen.c ****     lv_style_value_t v = {
 1851              		.loc 1 469 22 view .LVU431
 1852 0002 0023     		movs	r3, #0
 1853              		.loc 1 472 5 view .LVU432
 1854 0004 8AB2     		uxth	r2, r1
 1855 0006 4D21     		movs	r1, #77
 1856              	.LVL175:
 469:Drivers/lvgl/src/misc/lv_style_gen.c ****     lv_style_value_t v = {
 1857              		.loc 1 469 22 view .LVU433
 1858 0008 ADF80030 		strh	r3, [sp]	@ movhi
 473:Drivers/lvgl/src/misc/lv_style_gen.c **** }
 1859              		.loc 1 473 1 view .LVU434
 1860 000c 02B0     		add	sp, sp, #8
 1861              		.cfi_def_cfa_offset 0
 1862              		@ sp needed
 472:Drivers/lvgl/src/misc/lv_style_gen.c **** }
 1863              		.loc 1 472 5 view .LVU435
 1864 000e FFF7FEBF 		b	lv_style_set_prop
 1865              	.LVL176:
 472:Drivers/lvgl/src/misc/lv_style_gen.c **** }
 1866              		.loc 1 472 5 view .LVU436
 1867              		.cfi_endproc
 1868              	.LFE112:
 1870 0012 00BF     		.section	.text.lv_style_set_line_opa,"ax",%progbits
 1871              		.align	1
 1872              		.p2align 2,,3
 1873              		.global	lv_style_set_line_opa
 1874              		.syntax unified
 1875              		.thumb
 1876              		.thumb_func
 1878              	lv_style_set_line_opa:
 1879              	.LVL177:
 1880              	.LFB113:
 474:Drivers/lvgl/src/misc/lv_style_gen.c **** 
 475:Drivers/lvgl/src/misc/lv_style_gen.c **** void lv_style_set_line_opa(lv_style_t * style, lv_opa_t value)
 476:Drivers/lvgl/src/misc/lv_style_gen.c **** {
 1881              		.loc 1 476 1 is_stmt 1 view -0
 1882              		.cfi_startproc
 1883              		@ args = 0, pretend = 0, frame = 0
 1884              		@ frame_needed = 0, uses_anonymous_args = 0
 1885              		@ link register save eliminated.
 477:Drivers/lvgl/src/misc/lv_style_gen.c ****     lv_style_value_t v = {
 1886              		.loc 1 477 5 view .LVU438
 478:Drivers/lvgl/src/misc/lv_style_gen.c ****         .num = (int32_t)value
 479:Drivers/lvgl/src/misc/lv_style_gen.c ****     };
ARM GAS  /var/folders/lp/x54gwt890xv47sdkqj1k04q40000gn/T//ccdiwc3F.s 			page 42


 480:Drivers/lvgl/src/misc/lv_style_gen.c ****     lv_style_set_prop(style, LV_STYLE_LINE_OPA, v);
 1887              		.loc 1 480 5 view .LVU439
 476:Drivers/lvgl/src/misc/lv_style_gen.c ****     lv_style_value_t v = {
 1888              		.loc 1 476 1 is_stmt 0 view .LVU440
 1889 0000 0A46     		mov	r2, r1
 1890              		.loc 1 480 5 view .LVU441
 1891 0002 4E21     		movs	r1, #78
 1892              	.LVL178:
 1893              		.loc 1 480 5 view .LVU442
 1894 0004 FFF7FEBF 		b	lv_style_set_prop
 1895              	.LVL179:
 1896              		.loc 1 480 5 view .LVU443
 1897              		.cfi_endproc
 1898              	.LFE113:
 1900              		.section	.text.lv_style_set_arc_width,"ax",%progbits
 1901              		.align	1
 1902              		.p2align 2,,3
 1903              		.global	lv_style_set_arc_width
 1904              		.syntax unified
 1905              		.thumb
 1906              		.thumb_func
 1908              	lv_style_set_arc_width:
 1909              	.LVL180:
 1910              	.LFB114:
 481:Drivers/lvgl/src/misc/lv_style_gen.c **** }
 482:Drivers/lvgl/src/misc/lv_style_gen.c **** 
 483:Drivers/lvgl/src/misc/lv_style_gen.c **** void lv_style_set_arc_width(lv_style_t * style, lv_coord_t value)
 484:Drivers/lvgl/src/misc/lv_style_gen.c **** {
 1911              		.loc 1 484 1 is_stmt 1 view -0
 1912              		.cfi_startproc
 1913              		@ args = 0, pretend = 0, frame = 0
 1914              		@ frame_needed = 0, uses_anonymous_args = 0
 1915              		@ link register save eliminated.
 485:Drivers/lvgl/src/misc/lv_style_gen.c ****     lv_style_value_t v = {
 1916              		.loc 1 485 5 view .LVU445
 486:Drivers/lvgl/src/misc/lv_style_gen.c ****         .num = (int32_t)value
 487:Drivers/lvgl/src/misc/lv_style_gen.c ****     };
 488:Drivers/lvgl/src/misc/lv_style_gen.c ****     lv_style_set_prop(style, LV_STYLE_ARC_WIDTH, v);
 1917              		.loc 1 488 5 view .LVU446
 484:Drivers/lvgl/src/misc/lv_style_gen.c ****     lv_style_value_t v = {
 1918              		.loc 1 484 1 is_stmt 0 view .LVU447
 1919 0000 0A46     		mov	r2, r1
 1920              		.loc 1 488 5 view .LVU448
 1921 0002 5021     		movs	r1, #80
 1922              	.LVL181:
 1923              		.loc 1 488 5 view .LVU449
 1924 0004 FFF7FEBF 		b	lv_style_set_prop
 1925              	.LVL182:
 1926              		.loc 1 488 5 view .LVU450
 1927              		.cfi_endproc
 1928              	.LFE114:
 1930              		.section	.text.lv_style_set_arc_rounded,"ax",%progbits
 1931              		.align	1
 1932              		.p2align 2,,3
 1933              		.global	lv_style_set_arc_rounded
 1934              		.syntax unified
 1935              		.thumb
ARM GAS  /var/folders/lp/x54gwt890xv47sdkqj1k04q40000gn/T//ccdiwc3F.s 			page 43


 1936              		.thumb_func
 1938              	lv_style_set_arc_rounded:
 1939              	.LVL183:
 1940              	.LFB115:
 489:Drivers/lvgl/src/misc/lv_style_gen.c **** }
 490:Drivers/lvgl/src/misc/lv_style_gen.c **** 
 491:Drivers/lvgl/src/misc/lv_style_gen.c **** void lv_style_set_arc_rounded(lv_style_t * style, bool value)
 492:Drivers/lvgl/src/misc/lv_style_gen.c **** {
 1941              		.loc 1 492 1 is_stmt 1 view -0
 1942              		.cfi_startproc
 1943              		@ args = 0, pretend = 0, frame = 0
 1944              		@ frame_needed = 0, uses_anonymous_args = 0
 1945              		@ link register save eliminated.
 493:Drivers/lvgl/src/misc/lv_style_gen.c ****     lv_style_value_t v = {
 1946              		.loc 1 493 5 view .LVU452
 494:Drivers/lvgl/src/misc/lv_style_gen.c ****         .num = (int32_t)value
 495:Drivers/lvgl/src/misc/lv_style_gen.c ****     };
 496:Drivers/lvgl/src/misc/lv_style_gen.c ****     lv_style_set_prop(style, LV_STYLE_ARC_ROUNDED, v);
 1947              		.loc 1 496 5 view .LVU453
 492:Drivers/lvgl/src/misc/lv_style_gen.c ****     lv_style_value_t v = {
 1948              		.loc 1 492 1 is_stmt 0 view .LVU454
 1949 0000 0A46     		mov	r2, r1
 1950              		.loc 1 496 5 view .LVU455
 1951 0002 5121     		movs	r1, #81
 1952              	.LVL184:
 1953              		.loc 1 496 5 view .LVU456
 1954 0004 FFF7FEBF 		b	lv_style_set_prop
 1955              	.LVL185:
 1956              		.loc 1 496 5 view .LVU457
 1957              		.cfi_endproc
 1958              	.LFE115:
 1960              		.section	.text.lv_style_set_arc_color,"ax",%progbits
 1961              		.align	1
 1962              		.p2align 2,,3
 1963              		.global	lv_style_set_arc_color
 1964              		.syntax unified
 1965              		.thumb
 1966              		.thumb_func
 1968              	lv_style_set_arc_color:
 1969              	.LVL186:
 1970              	.LFB116:
 497:Drivers/lvgl/src/misc/lv_style_gen.c **** }
 498:Drivers/lvgl/src/misc/lv_style_gen.c **** 
 499:Drivers/lvgl/src/misc/lv_style_gen.c **** void lv_style_set_arc_color(lv_style_t * style, lv_color_t value)
 500:Drivers/lvgl/src/misc/lv_style_gen.c **** {
 1971              		.loc 1 500 1 is_stmt 1 view -0
 1972              		.cfi_startproc
 1973              		@ args = 0, pretend = 0, frame = 8
 1974              		@ frame_needed = 0, uses_anonymous_args = 0
 1975              		@ link register save eliminated.
 501:Drivers/lvgl/src/misc/lv_style_gen.c ****     lv_style_value_t v = {
 1976              		.loc 1 501 5 view .LVU459
 502:Drivers/lvgl/src/misc/lv_style_gen.c ****         .color = value
 503:Drivers/lvgl/src/misc/lv_style_gen.c ****     };
 504:Drivers/lvgl/src/misc/lv_style_gen.c ****     lv_style_set_prop(style, LV_STYLE_ARC_COLOR, v);
 1977              		.loc 1 504 5 view .LVU460
 500:Drivers/lvgl/src/misc/lv_style_gen.c ****     lv_style_value_t v = {
ARM GAS  /var/folders/lp/x54gwt890xv47sdkqj1k04q40000gn/T//ccdiwc3F.s 			page 44


 1978              		.loc 1 500 1 is_stmt 0 view .LVU461
 1979 0000 82B0     		sub	sp, sp, #8
 1980              		.cfi_def_cfa_offset 8
 501:Drivers/lvgl/src/misc/lv_style_gen.c ****     lv_style_value_t v = {
 1981              		.loc 1 501 22 view .LVU462
 1982 0002 0023     		movs	r3, #0
 1983              		.loc 1 504 5 view .LVU463
 1984 0004 8AB2     		uxth	r2, r1
 1985 0006 5221     		movs	r1, #82
 1986              	.LVL187:
 501:Drivers/lvgl/src/misc/lv_style_gen.c ****     lv_style_value_t v = {
 1987              		.loc 1 501 22 view .LVU464
 1988 0008 ADF80030 		strh	r3, [sp]	@ movhi
 505:Drivers/lvgl/src/misc/lv_style_gen.c **** }
 1989              		.loc 1 505 1 view .LVU465
 1990 000c 02B0     		add	sp, sp, #8
 1991              		.cfi_def_cfa_offset 0
 1992              		@ sp needed
 504:Drivers/lvgl/src/misc/lv_style_gen.c **** }
 1993              		.loc 1 504 5 view .LVU466
 1994 000e FFF7FEBF 		b	lv_style_set_prop
 1995              	.LVL188:
 504:Drivers/lvgl/src/misc/lv_style_gen.c **** }
 1996              		.loc 1 504 5 view .LVU467
 1997              		.cfi_endproc
 1998              	.LFE116:
 2000 0012 00BF     		.section	.text.lv_style_set_arc_opa,"ax",%progbits
 2001              		.align	1
 2002              		.p2align 2,,3
 2003              		.global	lv_style_set_arc_opa
 2004              		.syntax unified
 2005              		.thumb
 2006              		.thumb_func
 2008              	lv_style_set_arc_opa:
 2009              	.LVL189:
 2010              	.LFB117:
 506:Drivers/lvgl/src/misc/lv_style_gen.c **** 
 507:Drivers/lvgl/src/misc/lv_style_gen.c **** void lv_style_set_arc_opa(lv_style_t * style, lv_opa_t value)
 508:Drivers/lvgl/src/misc/lv_style_gen.c **** {
 2011              		.loc 1 508 1 is_stmt 1 view -0
 2012              		.cfi_startproc
 2013              		@ args = 0, pretend = 0, frame = 0
 2014              		@ frame_needed = 0, uses_anonymous_args = 0
 2015              		@ link register save eliminated.
 509:Drivers/lvgl/src/misc/lv_style_gen.c ****     lv_style_value_t v = {
 2016              		.loc 1 509 5 view .LVU469
 510:Drivers/lvgl/src/misc/lv_style_gen.c ****         .num = (int32_t)value
 511:Drivers/lvgl/src/misc/lv_style_gen.c ****     };
 512:Drivers/lvgl/src/misc/lv_style_gen.c ****     lv_style_set_prop(style, LV_STYLE_ARC_OPA, v);
 2017              		.loc 1 512 5 view .LVU470
 508:Drivers/lvgl/src/misc/lv_style_gen.c ****     lv_style_value_t v = {
 2018              		.loc 1 508 1 is_stmt 0 view .LVU471
 2019 0000 0A46     		mov	r2, r1
 2020              		.loc 1 512 5 view .LVU472
 2021 0002 5321     		movs	r1, #83
 2022              	.LVL190:
 2023              		.loc 1 512 5 view .LVU473
ARM GAS  /var/folders/lp/x54gwt890xv47sdkqj1k04q40000gn/T//ccdiwc3F.s 			page 45


 2024 0004 FFF7FEBF 		b	lv_style_set_prop
 2025              	.LVL191:
 2026              		.loc 1 512 5 view .LVU474
 2027              		.cfi_endproc
 2028              	.LFE117:
 2030              		.section	.text.lv_style_set_arc_img_src,"ax",%progbits
 2031              		.align	1
 2032              		.p2align 2,,3
 2033              		.global	lv_style_set_arc_img_src
 2034              		.syntax unified
 2035              		.thumb
 2036              		.thumb_func
 2038              	lv_style_set_arc_img_src:
 2039              	.LVL192:
 2040              	.LFB118:
 513:Drivers/lvgl/src/misc/lv_style_gen.c **** }
 514:Drivers/lvgl/src/misc/lv_style_gen.c **** 
 515:Drivers/lvgl/src/misc/lv_style_gen.c **** void lv_style_set_arc_img_src(lv_style_t * style, const void * value)
 516:Drivers/lvgl/src/misc/lv_style_gen.c **** {
 2041              		.loc 1 516 1 is_stmt 1 view -0
 2042              		.cfi_startproc
 2043              		@ args = 0, pretend = 0, frame = 0
 2044              		@ frame_needed = 0, uses_anonymous_args = 0
 2045              		@ link register save eliminated.
 517:Drivers/lvgl/src/misc/lv_style_gen.c ****     lv_style_value_t v = {
 2046              		.loc 1 517 5 view .LVU476
 518:Drivers/lvgl/src/misc/lv_style_gen.c ****         .ptr = value
 519:Drivers/lvgl/src/misc/lv_style_gen.c ****     };
 520:Drivers/lvgl/src/misc/lv_style_gen.c ****     lv_style_set_prop(style, LV_STYLE_ARC_IMG_SRC, v);
 2047              		.loc 1 520 5 view .LVU477
 516:Drivers/lvgl/src/misc/lv_style_gen.c ****     lv_style_value_t v = {
 2048              		.loc 1 516 1 is_stmt 0 view .LVU478
 2049 0000 0A46     		mov	r2, r1
 2050              		.loc 1 520 5 view .LVU479
 2051 0002 5421     		movs	r1, #84
 2052              	.LVL193:
 2053              		.loc 1 520 5 view .LVU480
 2054 0004 FFF7FEBF 		b	lv_style_set_prop
 2055              	.LVL194:
 2056              		.loc 1 520 5 view .LVU481
 2057              		.cfi_endproc
 2058              	.LFE118:
 2060              		.section	.text.lv_style_set_text_color,"ax",%progbits
 2061              		.align	1
 2062              		.p2align 2,,3
 2063              		.global	lv_style_set_text_color
 2064              		.syntax unified
 2065              		.thumb
 2066              		.thumb_func
 2068              	lv_style_set_text_color:
 2069              	.LVL195:
 2070              	.LFB119:
 521:Drivers/lvgl/src/misc/lv_style_gen.c **** }
 522:Drivers/lvgl/src/misc/lv_style_gen.c **** 
 523:Drivers/lvgl/src/misc/lv_style_gen.c **** void lv_style_set_text_color(lv_style_t * style, lv_color_t value)
 524:Drivers/lvgl/src/misc/lv_style_gen.c **** {
 2071              		.loc 1 524 1 is_stmt 1 view -0
ARM GAS  /var/folders/lp/x54gwt890xv47sdkqj1k04q40000gn/T//ccdiwc3F.s 			page 46


 2072              		.cfi_startproc
 2073              		@ args = 0, pretend = 0, frame = 8
 2074              		@ frame_needed = 0, uses_anonymous_args = 0
 2075              		@ link register save eliminated.
 525:Drivers/lvgl/src/misc/lv_style_gen.c ****     lv_style_value_t v = {
 2076              		.loc 1 525 5 view .LVU483
 526:Drivers/lvgl/src/misc/lv_style_gen.c ****         .color = value
 527:Drivers/lvgl/src/misc/lv_style_gen.c ****     };
 528:Drivers/lvgl/src/misc/lv_style_gen.c ****     lv_style_set_prop(style, LV_STYLE_TEXT_COLOR, v);
 2077              		.loc 1 528 5 view .LVU484
 524:Drivers/lvgl/src/misc/lv_style_gen.c ****     lv_style_value_t v = {
 2078              		.loc 1 524 1 is_stmt 0 view .LVU485
 2079 0000 82B0     		sub	sp, sp, #8
 2080              		.cfi_def_cfa_offset 8
 525:Drivers/lvgl/src/misc/lv_style_gen.c ****     lv_style_value_t v = {
 2081              		.loc 1 525 22 view .LVU486
 2082 0002 0023     		movs	r3, #0
 2083              		.loc 1 528 5 view .LVU487
 2084 0004 8AB2     		uxth	r2, r1
 2085 0006 5521     		movs	r1, #85
 2086              	.LVL196:
 525:Drivers/lvgl/src/misc/lv_style_gen.c ****     lv_style_value_t v = {
 2087              		.loc 1 525 22 view .LVU488
 2088 0008 ADF80030 		strh	r3, [sp]	@ movhi
 529:Drivers/lvgl/src/misc/lv_style_gen.c **** }
 2089              		.loc 1 529 1 view .LVU489
 2090 000c 02B0     		add	sp, sp, #8
 2091              		.cfi_def_cfa_offset 0
 2092              		@ sp needed
 528:Drivers/lvgl/src/misc/lv_style_gen.c **** }
 2093              		.loc 1 528 5 view .LVU490
 2094 000e FFF7FEBF 		b	lv_style_set_prop
 2095              	.LVL197:
 528:Drivers/lvgl/src/misc/lv_style_gen.c **** }
 2096              		.loc 1 528 5 view .LVU491
 2097              		.cfi_endproc
 2098              	.LFE119:
 2100 0012 00BF     		.section	.text.lv_style_set_text_opa,"ax",%progbits
 2101              		.align	1
 2102              		.p2align 2,,3
 2103              		.global	lv_style_set_text_opa
 2104              		.syntax unified
 2105              		.thumb
 2106              		.thumb_func
 2108              	lv_style_set_text_opa:
 2109              	.LVL198:
 2110              	.LFB120:
 530:Drivers/lvgl/src/misc/lv_style_gen.c **** 
 531:Drivers/lvgl/src/misc/lv_style_gen.c **** void lv_style_set_text_opa(lv_style_t * style, lv_opa_t value)
 532:Drivers/lvgl/src/misc/lv_style_gen.c **** {
 2111              		.loc 1 532 1 is_stmt 1 view -0
 2112              		.cfi_startproc
 2113              		@ args = 0, pretend = 0, frame = 0
 2114              		@ frame_needed = 0, uses_anonymous_args = 0
 2115              		@ link register save eliminated.
 533:Drivers/lvgl/src/misc/lv_style_gen.c ****     lv_style_value_t v = {
 2116              		.loc 1 533 5 view .LVU493
ARM GAS  /var/folders/lp/x54gwt890xv47sdkqj1k04q40000gn/T//ccdiwc3F.s 			page 47


 534:Drivers/lvgl/src/misc/lv_style_gen.c ****         .num = (int32_t)value
 535:Drivers/lvgl/src/misc/lv_style_gen.c ****     };
 536:Drivers/lvgl/src/misc/lv_style_gen.c ****     lv_style_set_prop(style, LV_STYLE_TEXT_OPA, v);
 2117              		.loc 1 536 5 view .LVU494
 532:Drivers/lvgl/src/misc/lv_style_gen.c ****     lv_style_value_t v = {
 2118              		.loc 1 532 1 is_stmt 0 view .LVU495
 2119 0000 0A46     		mov	r2, r1
 2120              		.loc 1 536 5 view .LVU496
 2121 0002 5621     		movs	r1, #86
 2122              	.LVL199:
 2123              		.loc 1 536 5 view .LVU497
 2124 0004 FFF7FEBF 		b	lv_style_set_prop
 2125              	.LVL200:
 2126              		.loc 1 536 5 view .LVU498
 2127              		.cfi_endproc
 2128              	.LFE120:
 2130              		.section	.text.lv_style_set_text_font,"ax",%progbits
 2131              		.align	1
 2132              		.p2align 2,,3
 2133              		.global	lv_style_set_text_font
 2134              		.syntax unified
 2135              		.thumb
 2136              		.thumb_func
 2138              	lv_style_set_text_font:
 2139              	.LVL201:
 2140              	.LFB121:
 537:Drivers/lvgl/src/misc/lv_style_gen.c **** }
 538:Drivers/lvgl/src/misc/lv_style_gen.c **** 
 539:Drivers/lvgl/src/misc/lv_style_gen.c **** void lv_style_set_text_font(lv_style_t * style, const lv_font_t * value)
 540:Drivers/lvgl/src/misc/lv_style_gen.c **** {
 2141              		.loc 1 540 1 is_stmt 1 view -0
 2142              		.cfi_startproc
 2143              		@ args = 0, pretend = 0, frame = 0
 2144              		@ frame_needed = 0, uses_anonymous_args = 0
 2145              		@ link register save eliminated.
 541:Drivers/lvgl/src/misc/lv_style_gen.c ****     lv_style_value_t v = {
 2146              		.loc 1 541 5 view .LVU500
 542:Drivers/lvgl/src/misc/lv_style_gen.c ****         .ptr = value
 543:Drivers/lvgl/src/misc/lv_style_gen.c ****     };
 544:Drivers/lvgl/src/misc/lv_style_gen.c ****     lv_style_set_prop(style, LV_STYLE_TEXT_FONT, v);
 2147              		.loc 1 544 5 view .LVU501
 540:Drivers/lvgl/src/misc/lv_style_gen.c ****     lv_style_value_t v = {
 2148              		.loc 1 540 1 is_stmt 0 view .LVU502
 2149 0000 0A46     		mov	r2, r1
 2150              		.loc 1 544 5 view .LVU503
 2151 0002 5721     		movs	r1, #87
 2152              	.LVL202:
 2153              		.loc 1 544 5 view .LVU504
 2154 0004 FFF7FEBF 		b	lv_style_set_prop
 2155              	.LVL203:
 2156              		.loc 1 544 5 view .LVU505
 2157              		.cfi_endproc
 2158              	.LFE121:
 2160              		.section	.text.lv_style_set_text_letter_space,"ax",%progbits
 2161              		.align	1
 2162              		.p2align 2,,3
 2163              		.global	lv_style_set_text_letter_space
ARM GAS  /var/folders/lp/x54gwt890xv47sdkqj1k04q40000gn/T//ccdiwc3F.s 			page 48


 2164              		.syntax unified
 2165              		.thumb
 2166              		.thumb_func
 2168              	lv_style_set_text_letter_space:
 2169              	.LVL204:
 2170              	.LFB122:
 545:Drivers/lvgl/src/misc/lv_style_gen.c **** }
 546:Drivers/lvgl/src/misc/lv_style_gen.c **** 
 547:Drivers/lvgl/src/misc/lv_style_gen.c **** void lv_style_set_text_letter_space(lv_style_t * style, lv_coord_t value)
 548:Drivers/lvgl/src/misc/lv_style_gen.c **** {
 2171              		.loc 1 548 1 is_stmt 1 view -0
 2172              		.cfi_startproc
 2173              		@ args = 0, pretend = 0, frame = 0
 2174              		@ frame_needed = 0, uses_anonymous_args = 0
 2175              		@ link register save eliminated.
 549:Drivers/lvgl/src/misc/lv_style_gen.c ****     lv_style_value_t v = {
 2176              		.loc 1 549 5 view .LVU507
 550:Drivers/lvgl/src/misc/lv_style_gen.c ****         .num = (int32_t)value
 551:Drivers/lvgl/src/misc/lv_style_gen.c ****     };
 552:Drivers/lvgl/src/misc/lv_style_gen.c ****     lv_style_set_prop(style, LV_STYLE_TEXT_LETTER_SPACE, v);
 2177              		.loc 1 552 5 view .LVU508
 548:Drivers/lvgl/src/misc/lv_style_gen.c ****     lv_style_value_t v = {
 2178              		.loc 1 548 1 is_stmt 0 view .LVU509
 2179 0000 0A46     		mov	r2, r1
 2180              		.loc 1 552 5 view .LVU510
 2181 0002 5821     		movs	r1, #88
 2182              	.LVL205:
 2183              		.loc 1 552 5 view .LVU511
 2184 0004 FFF7FEBF 		b	lv_style_set_prop
 2185              	.LVL206:
 2186              		.loc 1 552 5 view .LVU512
 2187              		.cfi_endproc
 2188              	.LFE122:
 2190              		.section	.text.lv_style_set_text_line_space,"ax",%progbits
 2191              		.align	1
 2192              		.p2align 2,,3
 2193              		.global	lv_style_set_text_line_space
 2194              		.syntax unified
 2195              		.thumb
 2196              		.thumb_func
 2198              	lv_style_set_text_line_space:
 2199              	.LVL207:
 2200              	.LFB123:
 553:Drivers/lvgl/src/misc/lv_style_gen.c **** }
 554:Drivers/lvgl/src/misc/lv_style_gen.c **** 
 555:Drivers/lvgl/src/misc/lv_style_gen.c **** void lv_style_set_text_line_space(lv_style_t * style, lv_coord_t value)
 556:Drivers/lvgl/src/misc/lv_style_gen.c **** {
 2201              		.loc 1 556 1 is_stmt 1 view -0
 2202              		.cfi_startproc
 2203              		@ args = 0, pretend = 0, frame = 0
 2204              		@ frame_needed = 0, uses_anonymous_args = 0
 2205              		@ link register save eliminated.
 557:Drivers/lvgl/src/misc/lv_style_gen.c ****     lv_style_value_t v = {
 2206              		.loc 1 557 5 view .LVU514
 558:Drivers/lvgl/src/misc/lv_style_gen.c ****         .num = (int32_t)value
 559:Drivers/lvgl/src/misc/lv_style_gen.c ****     };
 560:Drivers/lvgl/src/misc/lv_style_gen.c ****     lv_style_set_prop(style, LV_STYLE_TEXT_LINE_SPACE, v);
ARM GAS  /var/folders/lp/x54gwt890xv47sdkqj1k04q40000gn/T//ccdiwc3F.s 			page 49


 2207              		.loc 1 560 5 view .LVU515
 556:Drivers/lvgl/src/misc/lv_style_gen.c ****     lv_style_value_t v = {
 2208              		.loc 1 556 1 is_stmt 0 view .LVU516
 2209 0000 0A46     		mov	r2, r1
 2210              		.loc 1 560 5 view .LVU517
 2211 0002 5921     		movs	r1, #89
 2212              	.LVL208:
 2213              		.loc 1 560 5 view .LVU518
 2214 0004 FFF7FEBF 		b	lv_style_set_prop
 2215              	.LVL209:
 2216              		.loc 1 560 5 view .LVU519
 2217              		.cfi_endproc
 2218              	.LFE123:
 2220              		.section	.text.lv_style_set_text_decor,"ax",%progbits
 2221              		.align	1
 2222              		.p2align 2,,3
 2223              		.global	lv_style_set_text_decor
 2224              		.syntax unified
 2225              		.thumb
 2226              		.thumb_func
 2228              	lv_style_set_text_decor:
 2229              	.LVL210:
 2230              	.LFB124:
 561:Drivers/lvgl/src/misc/lv_style_gen.c **** }
 562:Drivers/lvgl/src/misc/lv_style_gen.c **** 
 563:Drivers/lvgl/src/misc/lv_style_gen.c **** void lv_style_set_text_decor(lv_style_t * style, lv_text_decor_t value)
 564:Drivers/lvgl/src/misc/lv_style_gen.c **** {
 2231              		.loc 1 564 1 is_stmt 1 view -0
 2232              		.cfi_startproc
 2233              		@ args = 0, pretend = 0, frame = 0
 2234              		@ frame_needed = 0, uses_anonymous_args = 0
 2235              		@ link register save eliminated.
 565:Drivers/lvgl/src/misc/lv_style_gen.c ****     lv_style_value_t v = {
 2236              		.loc 1 565 5 view .LVU521
 566:Drivers/lvgl/src/misc/lv_style_gen.c ****         .num = (int32_t)value
 567:Drivers/lvgl/src/misc/lv_style_gen.c ****     };
 568:Drivers/lvgl/src/misc/lv_style_gen.c ****     lv_style_set_prop(style, LV_STYLE_TEXT_DECOR, v);
 2237              		.loc 1 568 5 view .LVU522
 564:Drivers/lvgl/src/misc/lv_style_gen.c ****     lv_style_value_t v = {
 2238              		.loc 1 564 1 is_stmt 0 view .LVU523
 2239 0000 0A46     		mov	r2, r1
 2240              		.loc 1 568 5 view .LVU524
 2241 0002 5A21     		movs	r1, #90
 2242              	.LVL211:
 2243              		.loc 1 568 5 view .LVU525
 2244 0004 FFF7FEBF 		b	lv_style_set_prop
 2245              	.LVL212:
 2246              		.loc 1 568 5 view .LVU526
 2247              		.cfi_endproc
 2248              	.LFE124:
 2250              		.section	.text.lv_style_set_text_align,"ax",%progbits
 2251              		.align	1
 2252              		.p2align 2,,3
 2253              		.global	lv_style_set_text_align
 2254              		.syntax unified
 2255              		.thumb
 2256              		.thumb_func
ARM GAS  /var/folders/lp/x54gwt890xv47sdkqj1k04q40000gn/T//ccdiwc3F.s 			page 50


 2258              	lv_style_set_text_align:
 2259              	.LVL213:
 2260              	.LFB125:
 569:Drivers/lvgl/src/misc/lv_style_gen.c **** }
 570:Drivers/lvgl/src/misc/lv_style_gen.c **** 
 571:Drivers/lvgl/src/misc/lv_style_gen.c **** void lv_style_set_text_align(lv_style_t * style, lv_text_align_t value)
 572:Drivers/lvgl/src/misc/lv_style_gen.c **** {
 2261              		.loc 1 572 1 is_stmt 1 view -0
 2262              		.cfi_startproc
 2263              		@ args = 0, pretend = 0, frame = 0
 2264              		@ frame_needed = 0, uses_anonymous_args = 0
 2265              		@ link register save eliminated.
 573:Drivers/lvgl/src/misc/lv_style_gen.c ****     lv_style_value_t v = {
 2266              		.loc 1 573 5 view .LVU528
 574:Drivers/lvgl/src/misc/lv_style_gen.c ****         .num = (int32_t)value
 575:Drivers/lvgl/src/misc/lv_style_gen.c ****     };
 576:Drivers/lvgl/src/misc/lv_style_gen.c ****     lv_style_set_prop(style, LV_STYLE_TEXT_ALIGN, v);
 2267              		.loc 1 576 5 view .LVU529
 572:Drivers/lvgl/src/misc/lv_style_gen.c ****     lv_style_value_t v = {
 2268              		.loc 1 572 1 is_stmt 0 view .LVU530
 2269 0000 0A46     		mov	r2, r1
 2270              		.loc 1 576 5 view .LVU531
 2271 0002 5B21     		movs	r1, #91
 2272              	.LVL214:
 2273              		.loc 1 576 5 view .LVU532
 2274 0004 FFF7FEBF 		b	lv_style_set_prop
 2275              	.LVL215:
 2276              		.loc 1 576 5 view .LVU533
 2277              		.cfi_endproc
 2278              	.LFE125:
 2280              		.section	.text.lv_style_set_radius,"ax",%progbits
 2281              		.align	1
 2282              		.p2align 2,,3
 2283              		.global	lv_style_set_radius
 2284              		.syntax unified
 2285              		.thumb
 2286              		.thumb_func
 2288              	lv_style_set_radius:
 2289              	.LVL216:
 2290              	.LFB126:
 577:Drivers/lvgl/src/misc/lv_style_gen.c **** }
 578:Drivers/lvgl/src/misc/lv_style_gen.c **** 
 579:Drivers/lvgl/src/misc/lv_style_gen.c **** void lv_style_set_radius(lv_style_t * style, lv_coord_t value)
 580:Drivers/lvgl/src/misc/lv_style_gen.c **** {
 2291              		.loc 1 580 1 is_stmt 1 view -0
 2292              		.cfi_startproc
 2293              		@ args = 0, pretend = 0, frame = 0
 2294              		@ frame_needed = 0, uses_anonymous_args = 0
 2295              		@ link register save eliminated.
 581:Drivers/lvgl/src/misc/lv_style_gen.c ****     lv_style_value_t v = {
 2296              		.loc 1 581 5 view .LVU535
 582:Drivers/lvgl/src/misc/lv_style_gen.c ****         .num = (int32_t)value
 583:Drivers/lvgl/src/misc/lv_style_gen.c ****     };
 584:Drivers/lvgl/src/misc/lv_style_gen.c ****     lv_style_set_prop(style, LV_STYLE_RADIUS, v);
 2297              		.loc 1 584 5 view .LVU536
 580:Drivers/lvgl/src/misc/lv_style_gen.c ****     lv_style_value_t v = {
 2298              		.loc 1 580 1 is_stmt 0 view .LVU537
ARM GAS  /var/folders/lp/x54gwt890xv47sdkqj1k04q40000gn/T//ccdiwc3F.s 			page 51


 2299 0000 0A46     		mov	r2, r1
 2300              		.loc 1 584 5 view .LVU538
 2301 0002 0B21     		movs	r1, #11
 2302              	.LVL217:
 2303              		.loc 1 584 5 view .LVU539
 2304 0004 FFF7FEBF 		b	lv_style_set_prop
 2305              	.LVL218:
 2306              		.loc 1 584 5 view .LVU540
 2307              		.cfi_endproc
 2308              	.LFE126:
 2310              		.section	.text.lv_style_set_clip_corner,"ax",%progbits
 2311              		.align	1
 2312              		.p2align 2,,3
 2313              		.global	lv_style_set_clip_corner
 2314              		.syntax unified
 2315              		.thumb
 2316              		.thumb_func
 2318              	lv_style_set_clip_corner:
 2319              	.LVL219:
 2320              	.LFB127:
 585:Drivers/lvgl/src/misc/lv_style_gen.c **** }
 586:Drivers/lvgl/src/misc/lv_style_gen.c **** 
 587:Drivers/lvgl/src/misc/lv_style_gen.c **** void lv_style_set_clip_corner(lv_style_t * style, bool value)
 588:Drivers/lvgl/src/misc/lv_style_gen.c **** {
 2321              		.loc 1 588 1 is_stmt 1 view -0
 2322              		.cfi_startproc
 2323              		@ args = 0, pretend = 0, frame = 0
 2324              		@ frame_needed = 0, uses_anonymous_args = 0
 2325              		@ link register save eliminated.
 589:Drivers/lvgl/src/misc/lv_style_gen.c ****     lv_style_value_t v = {
 2326              		.loc 1 589 5 view .LVU542
 590:Drivers/lvgl/src/misc/lv_style_gen.c ****         .num = (int32_t)value
 591:Drivers/lvgl/src/misc/lv_style_gen.c ****     };
 592:Drivers/lvgl/src/misc/lv_style_gen.c ****     lv_style_set_prop(style, LV_STYLE_CLIP_CORNER, v);
 2327              		.loc 1 592 5 view .LVU543
 588:Drivers/lvgl/src/misc/lv_style_gen.c ****     lv_style_value_t v = {
 2328              		.loc 1 588 1 is_stmt 0 view .LVU544
 2329 0000 0A46     		mov	r2, r1
 2330              		.loc 1 592 5 view .LVU545
 2331 0002 1721     		movs	r1, #23
 2332              	.LVL220:
 2333              		.loc 1 592 5 view .LVU546
 2334 0004 FFF7FEBF 		b	lv_style_set_prop
 2335              	.LVL221:
 2336              		.loc 1 592 5 view .LVU547
 2337              		.cfi_endproc
 2338              	.LFE127:
 2340              		.section	.text.lv_style_set_opa,"ax",%progbits
 2341              		.align	1
 2342              		.p2align 2,,3
 2343              		.global	lv_style_set_opa
 2344              		.syntax unified
 2345              		.thumb
 2346              		.thumb_func
 2348              	lv_style_set_opa:
 2349              	.LVL222:
 2350              	.LFB128:
ARM GAS  /var/folders/lp/x54gwt890xv47sdkqj1k04q40000gn/T//ccdiwc3F.s 			page 52


 593:Drivers/lvgl/src/misc/lv_style_gen.c **** }
 594:Drivers/lvgl/src/misc/lv_style_gen.c **** 
 595:Drivers/lvgl/src/misc/lv_style_gen.c **** void lv_style_set_opa(lv_style_t * style, lv_opa_t value)
 596:Drivers/lvgl/src/misc/lv_style_gen.c **** {
 2351              		.loc 1 596 1 is_stmt 1 view -0
 2352              		.cfi_startproc
 2353              		@ args = 0, pretend = 0, frame = 0
 2354              		@ frame_needed = 0, uses_anonymous_args = 0
 2355              		@ link register save eliminated.
 597:Drivers/lvgl/src/misc/lv_style_gen.c ****     lv_style_value_t v = {
 2356              		.loc 1 597 5 view .LVU549
 598:Drivers/lvgl/src/misc/lv_style_gen.c ****         .num = (int32_t)value
 599:Drivers/lvgl/src/misc/lv_style_gen.c ****     };
 600:Drivers/lvgl/src/misc/lv_style_gen.c ****     lv_style_set_prop(style, LV_STYLE_OPA, v);
 2357              		.loc 1 600 5 view .LVU550
 596:Drivers/lvgl/src/misc/lv_style_gen.c ****     lv_style_value_t v = {
 2358              		.loc 1 596 1 is_stmt 0 view .LVU551
 2359 0000 0A46     		mov	r2, r1
 2360              		.loc 1 600 5 view .LVU552
 2361 0002 6021     		movs	r1, #96
 2362              	.LVL223:
 2363              		.loc 1 600 5 view .LVU553
 2364 0004 FFF7FEBF 		b	lv_style_set_prop
 2365              	.LVL224:
 2366              		.loc 1 600 5 view .LVU554
 2367              		.cfi_endproc
 2368              	.LFE128:
 2370              		.section	.text.lv_style_set_opa_layered,"ax",%progbits
 2371              		.align	1
 2372              		.p2align 2,,3
 2373              		.global	lv_style_set_opa_layered
 2374              		.syntax unified
 2375              		.thumb
 2376              		.thumb_func
 2378              	lv_style_set_opa_layered:
 2379              	.LVL225:
 2380              	.LFB129:
 601:Drivers/lvgl/src/misc/lv_style_gen.c **** }
 602:Drivers/lvgl/src/misc/lv_style_gen.c **** 
 603:Drivers/lvgl/src/misc/lv_style_gen.c **** void lv_style_set_opa_layered(lv_style_t * style, lv_opa_t value)
 604:Drivers/lvgl/src/misc/lv_style_gen.c **** {
 2381              		.loc 1 604 1 is_stmt 1 view -0
 2382              		.cfi_startproc
 2383              		@ args = 0, pretend = 0, frame = 0
 2384              		@ frame_needed = 0, uses_anonymous_args = 0
 2385              		@ link register save eliminated.
 605:Drivers/lvgl/src/misc/lv_style_gen.c ****     lv_style_value_t v = {
 2386              		.loc 1 605 5 view .LVU556
 606:Drivers/lvgl/src/misc/lv_style_gen.c ****         .num = (int32_t)value
 607:Drivers/lvgl/src/misc/lv_style_gen.c ****     };
 608:Drivers/lvgl/src/misc/lv_style_gen.c ****     lv_style_set_prop(style, LV_STYLE_OPA_LAYERED, v);
 2387              		.loc 1 608 5 view .LVU557
 604:Drivers/lvgl/src/misc/lv_style_gen.c ****     lv_style_value_t v = {
 2388              		.loc 1 604 1 is_stmt 0 view .LVU558
 2389 0000 0A46     		mov	r2, r1
 2390              		.loc 1 608 5 view .LVU559
 2391 0002 6121     		movs	r1, #97
ARM GAS  /var/folders/lp/x54gwt890xv47sdkqj1k04q40000gn/T//ccdiwc3F.s 			page 53


 2392              	.LVL226:
 2393              		.loc 1 608 5 view .LVU560
 2394 0004 FFF7FEBF 		b	lv_style_set_prop
 2395              	.LVL227:
 2396              		.loc 1 608 5 view .LVU561
 2397              		.cfi_endproc
 2398              	.LFE129:
 2400              		.section	.text.lv_style_set_color_filter_dsc,"ax",%progbits
 2401              		.align	1
 2402              		.p2align 2,,3
 2403              		.global	lv_style_set_color_filter_dsc
 2404              		.syntax unified
 2405              		.thumb
 2406              		.thumb_func
 2408              	lv_style_set_color_filter_dsc:
 2409              	.LVL228:
 2410              	.LFB130:
 609:Drivers/lvgl/src/misc/lv_style_gen.c **** }
 610:Drivers/lvgl/src/misc/lv_style_gen.c **** 
 611:Drivers/lvgl/src/misc/lv_style_gen.c **** void lv_style_set_color_filter_dsc(lv_style_t * style, const lv_color_filter_dsc_t * value)
 612:Drivers/lvgl/src/misc/lv_style_gen.c **** {
 2411              		.loc 1 612 1 is_stmt 1 view -0
 2412              		.cfi_startproc
 2413              		@ args = 0, pretend = 0, frame = 0
 2414              		@ frame_needed = 0, uses_anonymous_args = 0
 2415              		@ link register save eliminated.
 613:Drivers/lvgl/src/misc/lv_style_gen.c ****     lv_style_value_t v = {
 2416              		.loc 1 613 5 view .LVU563
 614:Drivers/lvgl/src/misc/lv_style_gen.c ****         .ptr = value
 615:Drivers/lvgl/src/misc/lv_style_gen.c ****     };
 616:Drivers/lvgl/src/misc/lv_style_gen.c ****     lv_style_set_prop(style, LV_STYLE_COLOR_FILTER_DSC, v);
 2417              		.loc 1 616 5 view .LVU564
 612:Drivers/lvgl/src/misc/lv_style_gen.c ****     lv_style_value_t v = {
 2418              		.loc 1 612 1 is_stmt 0 view .LVU565
 2419 0000 0A46     		mov	r2, r1
 2420              		.loc 1 616 5 view .LVU566
 2421 0002 6221     		movs	r1, #98
 2422              	.LVL229:
 2423              		.loc 1 616 5 view .LVU567
 2424 0004 FFF7FEBF 		b	lv_style_set_prop
 2425              	.LVL230:
 2426              		.loc 1 616 5 view .LVU568
 2427              		.cfi_endproc
 2428              	.LFE130:
 2430              		.section	.text.lv_style_set_color_filter_opa,"ax",%progbits
 2431              		.align	1
 2432              		.p2align 2,,3
 2433              		.global	lv_style_set_color_filter_opa
 2434              		.syntax unified
 2435              		.thumb
 2436              		.thumb_func
 2438              	lv_style_set_color_filter_opa:
 2439              	.LVL231:
 2440              	.LFB131:
 617:Drivers/lvgl/src/misc/lv_style_gen.c **** }
 618:Drivers/lvgl/src/misc/lv_style_gen.c **** 
 619:Drivers/lvgl/src/misc/lv_style_gen.c **** void lv_style_set_color_filter_opa(lv_style_t * style, lv_opa_t value)
ARM GAS  /var/folders/lp/x54gwt890xv47sdkqj1k04q40000gn/T//ccdiwc3F.s 			page 54


 620:Drivers/lvgl/src/misc/lv_style_gen.c **** {
 2441              		.loc 1 620 1 is_stmt 1 view -0
 2442              		.cfi_startproc
 2443              		@ args = 0, pretend = 0, frame = 0
 2444              		@ frame_needed = 0, uses_anonymous_args = 0
 2445              		@ link register save eliminated.
 621:Drivers/lvgl/src/misc/lv_style_gen.c ****     lv_style_value_t v = {
 2446              		.loc 1 621 5 view .LVU570
 622:Drivers/lvgl/src/misc/lv_style_gen.c ****         .num = (int32_t)value
 623:Drivers/lvgl/src/misc/lv_style_gen.c ****     };
 624:Drivers/lvgl/src/misc/lv_style_gen.c ****     lv_style_set_prop(style, LV_STYLE_COLOR_FILTER_OPA, v);
 2447              		.loc 1 624 5 view .LVU571
 620:Drivers/lvgl/src/misc/lv_style_gen.c ****     lv_style_value_t v = {
 2448              		.loc 1 620 1 is_stmt 0 view .LVU572
 2449 0000 0A46     		mov	r2, r1
 2450              		.loc 1 624 5 view .LVU573
 2451 0002 6321     		movs	r1, #99
 2452              	.LVL232:
 2453              		.loc 1 624 5 view .LVU574
 2454 0004 FFF7FEBF 		b	lv_style_set_prop
 2455              	.LVL233:
 2456              		.loc 1 624 5 view .LVU575
 2457              		.cfi_endproc
 2458              	.LFE131:
 2460              		.section	.text.lv_style_set_anim,"ax",%progbits
 2461              		.align	1
 2462              		.p2align 2,,3
 2463              		.global	lv_style_set_anim
 2464              		.syntax unified
 2465              		.thumb
 2466              		.thumb_func
 2468              	lv_style_set_anim:
 2469              	.LVL234:
 2470              	.LFB132:
 625:Drivers/lvgl/src/misc/lv_style_gen.c **** }
 626:Drivers/lvgl/src/misc/lv_style_gen.c **** 
 627:Drivers/lvgl/src/misc/lv_style_gen.c **** void lv_style_set_anim(lv_style_t * style, const lv_anim_t * value)
 628:Drivers/lvgl/src/misc/lv_style_gen.c **** {
 2471              		.loc 1 628 1 is_stmt 1 view -0
 2472              		.cfi_startproc
 2473              		@ args = 0, pretend = 0, frame = 0
 2474              		@ frame_needed = 0, uses_anonymous_args = 0
 2475              		@ link register save eliminated.
 629:Drivers/lvgl/src/misc/lv_style_gen.c ****     lv_style_value_t v = {
 2476              		.loc 1 629 5 view .LVU577
 630:Drivers/lvgl/src/misc/lv_style_gen.c ****         .ptr = value
 631:Drivers/lvgl/src/misc/lv_style_gen.c ****     };
 632:Drivers/lvgl/src/misc/lv_style_gen.c ****     lv_style_set_prop(style, LV_STYLE_ANIM, v);
 2477              		.loc 1 632 5 view .LVU578
 628:Drivers/lvgl/src/misc/lv_style_gen.c ****     lv_style_value_t v = {
 2478              		.loc 1 628 1 is_stmt 0 view .LVU579
 2479 0000 0A46     		mov	r2, r1
 2480              		.loc 1 632 5 view .LVU580
 2481 0002 6421     		movs	r1, #100
 2482              	.LVL235:
 2483              		.loc 1 632 5 view .LVU581
 2484 0004 FFF7FEBF 		b	lv_style_set_prop
ARM GAS  /var/folders/lp/x54gwt890xv47sdkqj1k04q40000gn/T//ccdiwc3F.s 			page 55


 2485              	.LVL236:
 2486              		.loc 1 632 5 view .LVU582
 2487              		.cfi_endproc
 2488              	.LFE132:
 2490              		.section	.text.lv_style_set_anim_time,"ax",%progbits
 2491              		.align	1
 2492              		.p2align 2,,3
 2493              		.global	lv_style_set_anim_time
 2494              		.syntax unified
 2495              		.thumb
 2496              		.thumb_func
 2498              	lv_style_set_anim_time:
 2499              	.LVL237:
 2500              	.LFB133:
 633:Drivers/lvgl/src/misc/lv_style_gen.c **** }
 634:Drivers/lvgl/src/misc/lv_style_gen.c **** 
 635:Drivers/lvgl/src/misc/lv_style_gen.c **** void lv_style_set_anim_time(lv_style_t * style, uint32_t value)
 636:Drivers/lvgl/src/misc/lv_style_gen.c **** {
 2501              		.loc 1 636 1 is_stmt 1 view -0
 2502              		.cfi_startproc
 2503              		@ args = 0, pretend = 0, frame = 0
 2504              		@ frame_needed = 0, uses_anonymous_args = 0
 2505              		@ link register save eliminated.
 637:Drivers/lvgl/src/misc/lv_style_gen.c ****     lv_style_value_t v = {
 2506              		.loc 1 637 5 view .LVU584
 638:Drivers/lvgl/src/misc/lv_style_gen.c ****         .num = (int32_t)value
 639:Drivers/lvgl/src/misc/lv_style_gen.c ****     };
 640:Drivers/lvgl/src/misc/lv_style_gen.c ****     lv_style_set_prop(style, LV_STYLE_ANIM_TIME, v);
 2507              		.loc 1 640 5 view .LVU585
 636:Drivers/lvgl/src/misc/lv_style_gen.c ****     lv_style_value_t v = {
 2508              		.loc 1 636 1 is_stmt 0 view .LVU586
 2509 0000 0A46     		mov	r2, r1
 2510              		.loc 1 640 5 view .LVU587
 2511 0002 6521     		movs	r1, #101
 2512              	.LVL238:
 2513              		.loc 1 640 5 view .LVU588
 2514 0004 FFF7FEBF 		b	lv_style_set_prop
 2515              	.LVL239:
 2516              		.loc 1 640 5 view .LVU589
 2517              		.cfi_endproc
 2518              	.LFE133:
 2520              		.section	.text.lv_style_set_anim_speed,"ax",%progbits
 2521              		.align	1
 2522              		.p2align 2,,3
 2523              		.global	lv_style_set_anim_speed
 2524              		.syntax unified
 2525              		.thumb
 2526              		.thumb_func
 2528              	lv_style_set_anim_speed:
 2529              	.LVL240:
 2530              	.LFB134:
 641:Drivers/lvgl/src/misc/lv_style_gen.c **** }
 642:Drivers/lvgl/src/misc/lv_style_gen.c **** 
 643:Drivers/lvgl/src/misc/lv_style_gen.c **** void lv_style_set_anim_speed(lv_style_t * style, uint32_t value)
 644:Drivers/lvgl/src/misc/lv_style_gen.c **** {
 2531              		.loc 1 644 1 is_stmt 1 view -0
 2532              		.cfi_startproc
ARM GAS  /var/folders/lp/x54gwt890xv47sdkqj1k04q40000gn/T//ccdiwc3F.s 			page 56


 2533              		@ args = 0, pretend = 0, frame = 0
 2534              		@ frame_needed = 0, uses_anonymous_args = 0
 2535              		@ link register save eliminated.
 645:Drivers/lvgl/src/misc/lv_style_gen.c ****     lv_style_value_t v = {
 2536              		.loc 1 645 5 view .LVU591
 646:Drivers/lvgl/src/misc/lv_style_gen.c ****         .num = (int32_t)value
 647:Drivers/lvgl/src/misc/lv_style_gen.c ****     };
 648:Drivers/lvgl/src/misc/lv_style_gen.c ****     lv_style_set_prop(style, LV_STYLE_ANIM_SPEED, v);
 2537              		.loc 1 648 5 view .LVU592
 644:Drivers/lvgl/src/misc/lv_style_gen.c ****     lv_style_value_t v = {
 2538              		.loc 1 644 1 is_stmt 0 view .LVU593
 2539 0000 0A46     		mov	r2, r1
 2540              		.loc 1 648 5 view .LVU594
 2541 0002 6621     		movs	r1, #102
 2542              	.LVL241:
 2543              		.loc 1 648 5 view .LVU595
 2544 0004 FFF7FEBF 		b	lv_style_set_prop
 2545              	.LVL242:
 2546              		.loc 1 648 5 view .LVU596
 2547              		.cfi_endproc
 2548              	.LFE134:
 2550              		.section	.text.lv_style_set_transition,"ax",%progbits
 2551              		.align	1
 2552              		.p2align 2,,3
 2553              		.global	lv_style_set_transition
 2554              		.syntax unified
 2555              		.thumb
 2556              		.thumb_func
 2558              	lv_style_set_transition:
 2559              	.LVL243:
 2560              	.LFB135:
 649:Drivers/lvgl/src/misc/lv_style_gen.c **** }
 650:Drivers/lvgl/src/misc/lv_style_gen.c **** 
 651:Drivers/lvgl/src/misc/lv_style_gen.c **** void lv_style_set_transition(lv_style_t * style, const lv_style_transition_dsc_t * value)
 652:Drivers/lvgl/src/misc/lv_style_gen.c **** {
 2561              		.loc 1 652 1 is_stmt 1 view -0
 2562              		.cfi_startproc
 2563              		@ args = 0, pretend = 0, frame = 0
 2564              		@ frame_needed = 0, uses_anonymous_args = 0
 2565              		@ link register save eliminated.
 653:Drivers/lvgl/src/misc/lv_style_gen.c ****     lv_style_value_t v = {
 2566              		.loc 1 653 5 view .LVU598
 654:Drivers/lvgl/src/misc/lv_style_gen.c ****         .ptr = value
 655:Drivers/lvgl/src/misc/lv_style_gen.c ****     };
 656:Drivers/lvgl/src/misc/lv_style_gen.c ****     lv_style_set_prop(style, LV_STYLE_TRANSITION, v);
 2567              		.loc 1 656 5 view .LVU599
 652:Drivers/lvgl/src/misc/lv_style_gen.c ****     lv_style_value_t v = {
 2568              		.loc 1 652 1 is_stmt 0 view .LVU600
 2569 0000 0A46     		mov	r2, r1
 2570              		.loc 1 656 5 view .LVU601
 2571 0002 6721     		movs	r1, #103
 2572              	.LVL244:
 2573              		.loc 1 656 5 view .LVU602
 2574 0004 FFF7FEBF 		b	lv_style_set_prop
 2575              	.LVL245:
 2576              		.loc 1 656 5 view .LVU603
 2577              		.cfi_endproc
ARM GAS  /var/folders/lp/x54gwt890xv47sdkqj1k04q40000gn/T//ccdiwc3F.s 			page 57


 2578              	.LFE135:
 2580              		.section	.text.lv_style_set_blend_mode,"ax",%progbits
 2581              		.align	1
 2582              		.p2align 2,,3
 2583              		.global	lv_style_set_blend_mode
 2584              		.syntax unified
 2585              		.thumb
 2586              		.thumb_func
 2588              	lv_style_set_blend_mode:
 2589              	.LVL246:
 2590              	.LFB136:
 657:Drivers/lvgl/src/misc/lv_style_gen.c **** }
 658:Drivers/lvgl/src/misc/lv_style_gen.c **** 
 659:Drivers/lvgl/src/misc/lv_style_gen.c **** void lv_style_set_blend_mode(lv_style_t * style, lv_blend_mode_t value)
 660:Drivers/lvgl/src/misc/lv_style_gen.c **** {
 2591              		.loc 1 660 1 is_stmt 1 view -0
 2592              		.cfi_startproc
 2593              		@ args = 0, pretend = 0, frame = 0
 2594              		@ frame_needed = 0, uses_anonymous_args = 0
 2595              		@ link register save eliminated.
 661:Drivers/lvgl/src/misc/lv_style_gen.c ****     lv_style_value_t v = {
 2596              		.loc 1 661 5 view .LVU605
 662:Drivers/lvgl/src/misc/lv_style_gen.c ****         .num = (int32_t)value
 663:Drivers/lvgl/src/misc/lv_style_gen.c ****     };
 664:Drivers/lvgl/src/misc/lv_style_gen.c ****     lv_style_set_prop(style, LV_STYLE_BLEND_MODE, v);
 2597              		.loc 1 664 5 view .LVU606
 660:Drivers/lvgl/src/misc/lv_style_gen.c ****     lv_style_value_t v = {
 2598              		.loc 1 660 1 is_stmt 0 view .LVU607
 2599 0000 0A46     		mov	r2, r1
 2600              		.loc 1 664 5 view .LVU608
 2601 0002 6821     		movs	r1, #104
 2602              	.LVL247:
 2603              		.loc 1 664 5 view .LVU609
 2604 0004 FFF7FEBF 		b	lv_style_set_prop
 2605              	.LVL248:
 2606              		.loc 1 664 5 view .LVU610
 2607              		.cfi_endproc
 2608              	.LFE136:
 2610              		.section	.text.lv_style_set_layout,"ax",%progbits
 2611              		.align	1
 2612              		.p2align 2,,3
 2613              		.global	lv_style_set_layout
 2614              		.syntax unified
 2615              		.thumb
 2616              		.thumb_func
 2618              	lv_style_set_layout:
 2619              	.LVL249:
 2620              	.LFB137:
 665:Drivers/lvgl/src/misc/lv_style_gen.c **** }
 666:Drivers/lvgl/src/misc/lv_style_gen.c **** 
 667:Drivers/lvgl/src/misc/lv_style_gen.c **** void lv_style_set_layout(lv_style_t * style, uint16_t value)
 668:Drivers/lvgl/src/misc/lv_style_gen.c **** {
 2621              		.loc 1 668 1 is_stmt 1 view -0
 2622              		.cfi_startproc
 2623              		@ args = 0, pretend = 0, frame = 0
 2624              		@ frame_needed = 0, uses_anonymous_args = 0
 2625              		@ link register save eliminated.
ARM GAS  /var/folders/lp/x54gwt890xv47sdkqj1k04q40000gn/T//ccdiwc3F.s 			page 58


 669:Drivers/lvgl/src/misc/lv_style_gen.c ****     lv_style_value_t v = {
 2626              		.loc 1 669 5 view .LVU612
 670:Drivers/lvgl/src/misc/lv_style_gen.c ****         .num = (int32_t)value
 671:Drivers/lvgl/src/misc/lv_style_gen.c ****     };
 672:Drivers/lvgl/src/misc/lv_style_gen.c ****     lv_style_set_prop(style, LV_STYLE_LAYOUT, v);
 2627              		.loc 1 672 5 view .LVU613
 668:Drivers/lvgl/src/misc/lv_style_gen.c ****     lv_style_value_t v = {
 2628              		.loc 1 668 1 is_stmt 0 view .LVU614
 2629 0000 0A46     		mov	r2, r1
 2630              		.loc 1 672 5 view .LVU615
 2631 0002 0A21     		movs	r1, #10
 2632              	.LVL250:
 2633              		.loc 1 672 5 view .LVU616
 2634 0004 FFF7FEBF 		b	lv_style_set_prop
 2635              	.LVL251:
 2636              		.loc 1 672 5 view .LVU617
 2637              		.cfi_endproc
 2638              	.LFE137:
 2640              		.section	.text.lv_style_set_base_dir,"ax",%progbits
 2641              		.align	1
 2642              		.p2align 2,,3
 2643              		.global	lv_style_set_base_dir
 2644              		.syntax unified
 2645              		.thumb
 2646              		.thumb_func
 2648              	lv_style_set_base_dir:
 2649              	.LVL252:
 2650              	.LFB138:
 673:Drivers/lvgl/src/misc/lv_style_gen.c **** }
 674:Drivers/lvgl/src/misc/lv_style_gen.c **** 
 675:Drivers/lvgl/src/misc/lv_style_gen.c **** void lv_style_set_base_dir(lv_style_t * style, lv_base_dir_t value)
 676:Drivers/lvgl/src/misc/lv_style_gen.c **** {
 2651              		.loc 1 676 1 is_stmt 1 view -0
 2652              		.cfi_startproc
 2653              		@ args = 0, pretend = 0, frame = 0
 2654              		@ frame_needed = 0, uses_anonymous_args = 0
 2655              		@ link register save eliminated.
 677:Drivers/lvgl/src/misc/lv_style_gen.c ****     lv_style_value_t v = {
 2656              		.loc 1 677 5 view .LVU619
 678:Drivers/lvgl/src/misc/lv_style_gen.c ****         .num = (int32_t)value
 679:Drivers/lvgl/src/misc/lv_style_gen.c ****     };
 680:Drivers/lvgl/src/misc/lv_style_gen.c ****     lv_style_set_prop(style, LV_STYLE_BASE_DIR, v);
 2657              		.loc 1 680 5 view .LVU620
 676:Drivers/lvgl/src/misc/lv_style_gen.c ****     lv_style_value_t v = {
 2658              		.loc 1 676 1 is_stmt 0 view .LVU621
 2659 0000 0A46     		mov	r2, r1
 2660              		.loc 1 680 5 view .LVU622
 2661 0002 1621     		movs	r1, #22
 2662              	.LVL253:
 2663              		.loc 1 680 5 view .LVU623
 2664 0004 FFF7FEBF 		b	lv_style_set_prop
 2665              	.LVL254:
 2666              		.loc 1 680 5 view .LVU624
 2667              		.cfi_endproc
 2668              	.LFE138:
 2670              		.text
 2671              	.Letext0:
ARM GAS  /var/folders/lp/x54gwt890xv47sdkqj1k04q40000gn/T//ccdiwc3F.s 			page 59


 2672              		.file 2 "/Users/jr/Library/Application Support/Code/User/globalStorage/bmd.stm32-for-vscode/@xpack
 2673              		.file 3 "/Users/jr/Library/Application Support/Code/User/globalStorage/bmd.stm32-for-vscode/@xpack
 2674              		.file 4 "Drivers/lvgl/src/misc/../font/../misc/lv_area.h"
 2675              		.file 5 "Drivers/lvgl/src/misc/../font/lv_font.h"
 2676              		.file 6 "Drivers/lvgl/src/misc/lv_color.h"
 2677              		.file 7 "Drivers/lvgl/src/misc/lv_anim.h"
 2678              		.file 8 "Drivers/lvgl/src/misc/lv_txt.h"
 2679              		.file 9 "Drivers/lvgl/src/misc/lv_bidi.h"
 2680              		.file 10 "Drivers/lvgl/src/misc/lv_style.h"
ARM GAS  /var/folders/lp/x54gwt890xv47sdkqj1k04q40000gn/T//ccdiwc3F.s 			page 60


DEFINED SYMBOLS
                            *ABS*:00000000 lv_style_gen.c
/var/folders/lp/x54gwt890xv47sdkqj1k04q40000gn/T//ccdiwc3F.s:21     .text.lv_style_set_width:00000000 $t
/var/folders/lp/x54gwt890xv47sdkqj1k04q40000gn/T//ccdiwc3F.s:28     .text.lv_style_set_width:00000000 lv_style_set_width
/var/folders/lp/x54gwt890xv47sdkqj1k04q40000gn/T//ccdiwc3F.s:51     .text.lv_style_set_min_width:00000000 $t
/var/folders/lp/x54gwt890xv47sdkqj1k04q40000gn/T//ccdiwc3F.s:58     .text.lv_style_set_min_width:00000000 lv_style_set_min_width
/var/folders/lp/x54gwt890xv47sdkqj1k04q40000gn/T//ccdiwc3F.s:81     .text.lv_style_set_max_width:00000000 $t
/var/folders/lp/x54gwt890xv47sdkqj1k04q40000gn/T//ccdiwc3F.s:88     .text.lv_style_set_max_width:00000000 lv_style_set_max_width
/var/folders/lp/x54gwt890xv47sdkqj1k04q40000gn/T//ccdiwc3F.s:111    .text.lv_style_set_height:00000000 $t
/var/folders/lp/x54gwt890xv47sdkqj1k04q40000gn/T//ccdiwc3F.s:118    .text.lv_style_set_height:00000000 lv_style_set_height
/var/folders/lp/x54gwt890xv47sdkqj1k04q40000gn/T//ccdiwc3F.s:141    .text.lv_style_set_min_height:00000000 $t
/var/folders/lp/x54gwt890xv47sdkqj1k04q40000gn/T//ccdiwc3F.s:148    .text.lv_style_set_min_height:00000000 lv_style_set_min_height
/var/folders/lp/x54gwt890xv47sdkqj1k04q40000gn/T//ccdiwc3F.s:171    .text.lv_style_set_max_height:00000000 $t
/var/folders/lp/x54gwt890xv47sdkqj1k04q40000gn/T//ccdiwc3F.s:178    .text.lv_style_set_max_height:00000000 lv_style_set_max_height
/var/folders/lp/x54gwt890xv47sdkqj1k04q40000gn/T//ccdiwc3F.s:201    .text.lv_style_set_x:00000000 $t
/var/folders/lp/x54gwt890xv47sdkqj1k04q40000gn/T//ccdiwc3F.s:208    .text.lv_style_set_x:00000000 lv_style_set_x
/var/folders/lp/x54gwt890xv47sdkqj1k04q40000gn/T//ccdiwc3F.s:231    .text.lv_style_set_y:00000000 $t
/var/folders/lp/x54gwt890xv47sdkqj1k04q40000gn/T//ccdiwc3F.s:238    .text.lv_style_set_y:00000000 lv_style_set_y
/var/folders/lp/x54gwt890xv47sdkqj1k04q40000gn/T//ccdiwc3F.s:261    .text.lv_style_set_align:00000000 $t
/var/folders/lp/x54gwt890xv47sdkqj1k04q40000gn/T//ccdiwc3F.s:268    .text.lv_style_set_align:00000000 lv_style_set_align
/var/folders/lp/x54gwt890xv47sdkqj1k04q40000gn/T//ccdiwc3F.s:291    .text.lv_style_set_transform_width:00000000 $t
/var/folders/lp/x54gwt890xv47sdkqj1k04q40000gn/T//ccdiwc3F.s:298    .text.lv_style_set_transform_width:00000000 lv_style_set_transform_width
/var/folders/lp/x54gwt890xv47sdkqj1k04q40000gn/T//ccdiwc3F.s:321    .text.lv_style_set_transform_height:00000000 $t
/var/folders/lp/x54gwt890xv47sdkqj1k04q40000gn/T//ccdiwc3F.s:328    .text.lv_style_set_transform_height:00000000 lv_style_set_transform_height
/var/folders/lp/x54gwt890xv47sdkqj1k04q40000gn/T//ccdiwc3F.s:351    .text.lv_style_set_translate_x:00000000 $t
/var/folders/lp/x54gwt890xv47sdkqj1k04q40000gn/T//ccdiwc3F.s:358    .text.lv_style_set_translate_x:00000000 lv_style_set_translate_x
/var/folders/lp/x54gwt890xv47sdkqj1k04q40000gn/T//ccdiwc3F.s:381    .text.lv_style_set_translate_y:00000000 $t
/var/folders/lp/x54gwt890xv47sdkqj1k04q40000gn/T//ccdiwc3F.s:388    .text.lv_style_set_translate_y:00000000 lv_style_set_translate_y
/var/folders/lp/x54gwt890xv47sdkqj1k04q40000gn/T//ccdiwc3F.s:411    .text.lv_style_set_transform_zoom:00000000 $t
/var/folders/lp/x54gwt890xv47sdkqj1k04q40000gn/T//ccdiwc3F.s:418    .text.lv_style_set_transform_zoom:00000000 lv_style_set_transform_zoom
/var/folders/lp/x54gwt890xv47sdkqj1k04q40000gn/T//ccdiwc3F.s:441    .text.lv_style_set_transform_angle:00000000 $t
/var/folders/lp/x54gwt890xv47sdkqj1k04q40000gn/T//ccdiwc3F.s:448    .text.lv_style_set_transform_angle:00000000 lv_style_set_transform_angle
/var/folders/lp/x54gwt890xv47sdkqj1k04q40000gn/T//ccdiwc3F.s:471    .text.lv_style_set_transform_pivot_x:00000000 $t
/var/folders/lp/x54gwt890xv47sdkqj1k04q40000gn/T//ccdiwc3F.s:478    .text.lv_style_set_transform_pivot_x:00000000 lv_style_set_transform_pivot_x
/var/folders/lp/x54gwt890xv47sdkqj1k04q40000gn/T//ccdiwc3F.s:501    .text.lv_style_set_transform_pivot_y:00000000 $t
/var/folders/lp/x54gwt890xv47sdkqj1k04q40000gn/T//ccdiwc3F.s:508    .text.lv_style_set_transform_pivot_y:00000000 lv_style_set_transform_pivot_y
/var/folders/lp/x54gwt890xv47sdkqj1k04q40000gn/T//ccdiwc3F.s:531    .text.lv_style_set_pad_top:00000000 $t
/var/folders/lp/x54gwt890xv47sdkqj1k04q40000gn/T//ccdiwc3F.s:538    .text.lv_style_set_pad_top:00000000 lv_style_set_pad_top
/var/folders/lp/x54gwt890xv47sdkqj1k04q40000gn/T//ccdiwc3F.s:561    .text.lv_style_set_pad_bottom:00000000 $t
/var/folders/lp/x54gwt890xv47sdkqj1k04q40000gn/T//ccdiwc3F.s:568    .text.lv_style_set_pad_bottom:00000000 lv_style_set_pad_bottom
/var/folders/lp/x54gwt890xv47sdkqj1k04q40000gn/T//ccdiwc3F.s:591    .text.lv_style_set_pad_left:00000000 $t
/var/folders/lp/x54gwt890xv47sdkqj1k04q40000gn/T//ccdiwc3F.s:598    .text.lv_style_set_pad_left:00000000 lv_style_set_pad_left
/var/folders/lp/x54gwt890xv47sdkqj1k04q40000gn/T//ccdiwc3F.s:621    .text.lv_style_set_pad_right:00000000 $t
/var/folders/lp/x54gwt890xv47sdkqj1k04q40000gn/T//ccdiwc3F.s:628    .text.lv_style_set_pad_right:00000000 lv_style_set_pad_right
/var/folders/lp/x54gwt890xv47sdkqj1k04q40000gn/T//ccdiwc3F.s:651    .text.lv_style_set_pad_row:00000000 $t
/var/folders/lp/x54gwt890xv47sdkqj1k04q40000gn/T//ccdiwc3F.s:658    .text.lv_style_set_pad_row:00000000 lv_style_set_pad_row
/var/folders/lp/x54gwt890xv47sdkqj1k04q40000gn/T//ccdiwc3F.s:681    .text.lv_style_set_pad_column:00000000 $t
/var/folders/lp/x54gwt890xv47sdkqj1k04q40000gn/T//ccdiwc3F.s:688    .text.lv_style_set_pad_column:00000000 lv_style_set_pad_column
/var/folders/lp/x54gwt890xv47sdkqj1k04q40000gn/T//ccdiwc3F.s:711    .text.lv_style_set_bg_color:00000000 $t
/var/folders/lp/x54gwt890xv47sdkqj1k04q40000gn/T//ccdiwc3F.s:718    .text.lv_style_set_bg_color:00000000 lv_style_set_bg_color
/var/folders/lp/x54gwt890xv47sdkqj1k04q40000gn/T//ccdiwc3F.s:751    .text.lv_style_set_bg_opa:00000000 $t
/var/folders/lp/x54gwt890xv47sdkqj1k04q40000gn/T//ccdiwc3F.s:758    .text.lv_style_set_bg_opa:00000000 lv_style_set_bg_opa
/var/folders/lp/x54gwt890xv47sdkqj1k04q40000gn/T//ccdiwc3F.s:781    .text.lv_style_set_bg_grad_color:00000000 $t
/var/folders/lp/x54gwt890xv47sdkqj1k04q40000gn/T//ccdiwc3F.s:788    .text.lv_style_set_bg_grad_color:00000000 lv_style_set_bg_grad_color
/var/folders/lp/x54gwt890xv47sdkqj1k04q40000gn/T//ccdiwc3F.s:821    .text.lv_style_set_bg_grad_dir:00000000 $t
/var/folders/lp/x54gwt890xv47sdkqj1k04q40000gn/T//ccdiwc3F.s:828    .text.lv_style_set_bg_grad_dir:00000000 lv_style_set_bg_grad_dir
/var/folders/lp/x54gwt890xv47sdkqj1k04q40000gn/T//ccdiwc3F.s:851    .text.lv_style_set_bg_main_stop:00000000 $t
ARM GAS  /var/folders/lp/x54gwt890xv47sdkqj1k04q40000gn/T//ccdiwc3F.s 			page 61


/var/folders/lp/x54gwt890xv47sdkqj1k04q40000gn/T//ccdiwc3F.s:858    .text.lv_style_set_bg_main_stop:00000000 lv_style_set_bg_main_stop
/var/folders/lp/x54gwt890xv47sdkqj1k04q40000gn/T//ccdiwc3F.s:881    .text.lv_style_set_bg_grad_stop:00000000 $t
/var/folders/lp/x54gwt890xv47sdkqj1k04q40000gn/T//ccdiwc3F.s:888    .text.lv_style_set_bg_grad_stop:00000000 lv_style_set_bg_grad_stop
/var/folders/lp/x54gwt890xv47sdkqj1k04q40000gn/T//ccdiwc3F.s:911    .text.lv_style_set_bg_grad:00000000 $t
/var/folders/lp/x54gwt890xv47sdkqj1k04q40000gn/T//ccdiwc3F.s:918    .text.lv_style_set_bg_grad:00000000 lv_style_set_bg_grad
/var/folders/lp/x54gwt890xv47sdkqj1k04q40000gn/T//ccdiwc3F.s:941    .text.lv_style_set_bg_dither_mode:00000000 $t
/var/folders/lp/x54gwt890xv47sdkqj1k04q40000gn/T//ccdiwc3F.s:948    .text.lv_style_set_bg_dither_mode:00000000 lv_style_set_bg_dither_mode
/var/folders/lp/x54gwt890xv47sdkqj1k04q40000gn/T//ccdiwc3F.s:971    .text.lv_style_set_bg_img_src:00000000 $t
/var/folders/lp/x54gwt890xv47sdkqj1k04q40000gn/T//ccdiwc3F.s:978    .text.lv_style_set_bg_img_src:00000000 lv_style_set_bg_img_src
/var/folders/lp/x54gwt890xv47sdkqj1k04q40000gn/T//ccdiwc3F.s:1001   .text.lv_style_set_bg_img_opa:00000000 $t
/var/folders/lp/x54gwt890xv47sdkqj1k04q40000gn/T//ccdiwc3F.s:1008   .text.lv_style_set_bg_img_opa:00000000 lv_style_set_bg_img_opa
/var/folders/lp/x54gwt890xv47sdkqj1k04q40000gn/T//ccdiwc3F.s:1031   .text.lv_style_set_bg_img_recolor:00000000 $t
/var/folders/lp/x54gwt890xv47sdkqj1k04q40000gn/T//ccdiwc3F.s:1038   .text.lv_style_set_bg_img_recolor:00000000 lv_style_set_bg_img_recolor
/var/folders/lp/x54gwt890xv47sdkqj1k04q40000gn/T//ccdiwc3F.s:1071   .text.lv_style_set_bg_img_recolor_opa:00000000 $t
/var/folders/lp/x54gwt890xv47sdkqj1k04q40000gn/T//ccdiwc3F.s:1078   .text.lv_style_set_bg_img_recolor_opa:00000000 lv_style_set_bg_img_recolor_opa
/var/folders/lp/x54gwt890xv47sdkqj1k04q40000gn/T//ccdiwc3F.s:1101   .text.lv_style_set_bg_img_tiled:00000000 $t
/var/folders/lp/x54gwt890xv47sdkqj1k04q40000gn/T//ccdiwc3F.s:1108   .text.lv_style_set_bg_img_tiled:00000000 lv_style_set_bg_img_tiled
/var/folders/lp/x54gwt890xv47sdkqj1k04q40000gn/T//ccdiwc3F.s:1131   .text.lv_style_set_border_color:00000000 $t
/var/folders/lp/x54gwt890xv47sdkqj1k04q40000gn/T//ccdiwc3F.s:1138   .text.lv_style_set_border_color:00000000 lv_style_set_border_color
/var/folders/lp/x54gwt890xv47sdkqj1k04q40000gn/T//ccdiwc3F.s:1171   .text.lv_style_set_border_opa:00000000 $t
/var/folders/lp/x54gwt890xv47sdkqj1k04q40000gn/T//ccdiwc3F.s:1178   .text.lv_style_set_border_opa:00000000 lv_style_set_border_opa
/var/folders/lp/x54gwt890xv47sdkqj1k04q40000gn/T//ccdiwc3F.s:1201   .text.lv_style_set_border_width:00000000 $t
/var/folders/lp/x54gwt890xv47sdkqj1k04q40000gn/T//ccdiwc3F.s:1208   .text.lv_style_set_border_width:00000000 lv_style_set_border_width
/var/folders/lp/x54gwt890xv47sdkqj1k04q40000gn/T//ccdiwc3F.s:1231   .text.lv_style_set_border_side:00000000 $t
/var/folders/lp/x54gwt890xv47sdkqj1k04q40000gn/T//ccdiwc3F.s:1238   .text.lv_style_set_border_side:00000000 lv_style_set_border_side
/var/folders/lp/x54gwt890xv47sdkqj1k04q40000gn/T//ccdiwc3F.s:1261   .text.lv_style_set_border_post:00000000 $t
/var/folders/lp/x54gwt890xv47sdkqj1k04q40000gn/T//ccdiwc3F.s:1268   .text.lv_style_set_border_post:00000000 lv_style_set_border_post
/var/folders/lp/x54gwt890xv47sdkqj1k04q40000gn/T//ccdiwc3F.s:1291   .text.lv_style_set_outline_width:00000000 $t
/var/folders/lp/x54gwt890xv47sdkqj1k04q40000gn/T//ccdiwc3F.s:1298   .text.lv_style_set_outline_width:00000000 lv_style_set_outline_width
/var/folders/lp/x54gwt890xv47sdkqj1k04q40000gn/T//ccdiwc3F.s:1321   .text.lv_style_set_outline_color:00000000 $t
/var/folders/lp/x54gwt890xv47sdkqj1k04q40000gn/T//ccdiwc3F.s:1328   .text.lv_style_set_outline_color:00000000 lv_style_set_outline_color
/var/folders/lp/x54gwt890xv47sdkqj1k04q40000gn/T//ccdiwc3F.s:1361   .text.lv_style_set_outline_opa:00000000 $t
/var/folders/lp/x54gwt890xv47sdkqj1k04q40000gn/T//ccdiwc3F.s:1368   .text.lv_style_set_outline_opa:00000000 lv_style_set_outline_opa
/var/folders/lp/x54gwt890xv47sdkqj1k04q40000gn/T//ccdiwc3F.s:1391   .text.lv_style_set_outline_pad:00000000 $t
/var/folders/lp/x54gwt890xv47sdkqj1k04q40000gn/T//ccdiwc3F.s:1398   .text.lv_style_set_outline_pad:00000000 lv_style_set_outline_pad
/var/folders/lp/x54gwt890xv47sdkqj1k04q40000gn/T//ccdiwc3F.s:1421   .text.lv_style_set_shadow_width:00000000 $t
/var/folders/lp/x54gwt890xv47sdkqj1k04q40000gn/T//ccdiwc3F.s:1428   .text.lv_style_set_shadow_width:00000000 lv_style_set_shadow_width
/var/folders/lp/x54gwt890xv47sdkqj1k04q40000gn/T//ccdiwc3F.s:1451   .text.lv_style_set_shadow_ofs_x:00000000 $t
/var/folders/lp/x54gwt890xv47sdkqj1k04q40000gn/T//ccdiwc3F.s:1458   .text.lv_style_set_shadow_ofs_x:00000000 lv_style_set_shadow_ofs_x
/var/folders/lp/x54gwt890xv47sdkqj1k04q40000gn/T//ccdiwc3F.s:1481   .text.lv_style_set_shadow_ofs_y:00000000 $t
/var/folders/lp/x54gwt890xv47sdkqj1k04q40000gn/T//ccdiwc3F.s:1488   .text.lv_style_set_shadow_ofs_y:00000000 lv_style_set_shadow_ofs_y
/var/folders/lp/x54gwt890xv47sdkqj1k04q40000gn/T//ccdiwc3F.s:1511   .text.lv_style_set_shadow_spread:00000000 $t
/var/folders/lp/x54gwt890xv47sdkqj1k04q40000gn/T//ccdiwc3F.s:1518   .text.lv_style_set_shadow_spread:00000000 lv_style_set_shadow_spread
/var/folders/lp/x54gwt890xv47sdkqj1k04q40000gn/T//ccdiwc3F.s:1541   .text.lv_style_set_shadow_color:00000000 $t
/var/folders/lp/x54gwt890xv47sdkqj1k04q40000gn/T//ccdiwc3F.s:1548   .text.lv_style_set_shadow_color:00000000 lv_style_set_shadow_color
/var/folders/lp/x54gwt890xv47sdkqj1k04q40000gn/T//ccdiwc3F.s:1581   .text.lv_style_set_shadow_opa:00000000 $t
/var/folders/lp/x54gwt890xv47sdkqj1k04q40000gn/T//ccdiwc3F.s:1588   .text.lv_style_set_shadow_opa:00000000 lv_style_set_shadow_opa
/var/folders/lp/x54gwt890xv47sdkqj1k04q40000gn/T//ccdiwc3F.s:1611   .text.lv_style_set_img_opa:00000000 $t
/var/folders/lp/x54gwt890xv47sdkqj1k04q40000gn/T//ccdiwc3F.s:1618   .text.lv_style_set_img_opa:00000000 lv_style_set_img_opa
/var/folders/lp/x54gwt890xv47sdkqj1k04q40000gn/T//ccdiwc3F.s:1641   .text.lv_style_set_img_recolor:00000000 $t
/var/folders/lp/x54gwt890xv47sdkqj1k04q40000gn/T//ccdiwc3F.s:1648   .text.lv_style_set_img_recolor:00000000 lv_style_set_img_recolor
/var/folders/lp/x54gwt890xv47sdkqj1k04q40000gn/T//ccdiwc3F.s:1681   .text.lv_style_set_img_recolor_opa:00000000 $t
/var/folders/lp/x54gwt890xv47sdkqj1k04q40000gn/T//ccdiwc3F.s:1688   .text.lv_style_set_img_recolor_opa:00000000 lv_style_set_img_recolor_opa
/var/folders/lp/x54gwt890xv47sdkqj1k04q40000gn/T//ccdiwc3F.s:1711   .text.lv_style_set_line_width:00000000 $t
/var/folders/lp/x54gwt890xv47sdkqj1k04q40000gn/T//ccdiwc3F.s:1718   .text.lv_style_set_line_width:00000000 lv_style_set_line_width
/var/folders/lp/x54gwt890xv47sdkqj1k04q40000gn/T//ccdiwc3F.s:1741   .text.lv_style_set_line_dash_width:00000000 $t
/var/folders/lp/x54gwt890xv47sdkqj1k04q40000gn/T//ccdiwc3F.s:1748   .text.lv_style_set_line_dash_width:00000000 lv_style_set_line_dash_width
ARM GAS  /var/folders/lp/x54gwt890xv47sdkqj1k04q40000gn/T//ccdiwc3F.s 			page 62


/var/folders/lp/x54gwt890xv47sdkqj1k04q40000gn/T//ccdiwc3F.s:1771   .text.lv_style_set_line_dash_gap:00000000 $t
/var/folders/lp/x54gwt890xv47sdkqj1k04q40000gn/T//ccdiwc3F.s:1778   .text.lv_style_set_line_dash_gap:00000000 lv_style_set_line_dash_gap
/var/folders/lp/x54gwt890xv47sdkqj1k04q40000gn/T//ccdiwc3F.s:1801   .text.lv_style_set_line_rounded:00000000 $t
/var/folders/lp/x54gwt890xv47sdkqj1k04q40000gn/T//ccdiwc3F.s:1808   .text.lv_style_set_line_rounded:00000000 lv_style_set_line_rounded
/var/folders/lp/x54gwt890xv47sdkqj1k04q40000gn/T//ccdiwc3F.s:1831   .text.lv_style_set_line_color:00000000 $t
/var/folders/lp/x54gwt890xv47sdkqj1k04q40000gn/T//ccdiwc3F.s:1838   .text.lv_style_set_line_color:00000000 lv_style_set_line_color
/var/folders/lp/x54gwt890xv47sdkqj1k04q40000gn/T//ccdiwc3F.s:1871   .text.lv_style_set_line_opa:00000000 $t
/var/folders/lp/x54gwt890xv47sdkqj1k04q40000gn/T//ccdiwc3F.s:1878   .text.lv_style_set_line_opa:00000000 lv_style_set_line_opa
/var/folders/lp/x54gwt890xv47sdkqj1k04q40000gn/T//ccdiwc3F.s:1901   .text.lv_style_set_arc_width:00000000 $t
/var/folders/lp/x54gwt890xv47sdkqj1k04q40000gn/T//ccdiwc3F.s:1908   .text.lv_style_set_arc_width:00000000 lv_style_set_arc_width
/var/folders/lp/x54gwt890xv47sdkqj1k04q40000gn/T//ccdiwc3F.s:1931   .text.lv_style_set_arc_rounded:00000000 $t
/var/folders/lp/x54gwt890xv47sdkqj1k04q40000gn/T//ccdiwc3F.s:1938   .text.lv_style_set_arc_rounded:00000000 lv_style_set_arc_rounded
/var/folders/lp/x54gwt890xv47sdkqj1k04q40000gn/T//ccdiwc3F.s:1961   .text.lv_style_set_arc_color:00000000 $t
/var/folders/lp/x54gwt890xv47sdkqj1k04q40000gn/T//ccdiwc3F.s:1968   .text.lv_style_set_arc_color:00000000 lv_style_set_arc_color
/var/folders/lp/x54gwt890xv47sdkqj1k04q40000gn/T//ccdiwc3F.s:2001   .text.lv_style_set_arc_opa:00000000 $t
/var/folders/lp/x54gwt890xv47sdkqj1k04q40000gn/T//ccdiwc3F.s:2008   .text.lv_style_set_arc_opa:00000000 lv_style_set_arc_opa
/var/folders/lp/x54gwt890xv47sdkqj1k04q40000gn/T//ccdiwc3F.s:2031   .text.lv_style_set_arc_img_src:00000000 $t
/var/folders/lp/x54gwt890xv47sdkqj1k04q40000gn/T//ccdiwc3F.s:2038   .text.lv_style_set_arc_img_src:00000000 lv_style_set_arc_img_src
/var/folders/lp/x54gwt890xv47sdkqj1k04q40000gn/T//ccdiwc3F.s:2061   .text.lv_style_set_text_color:00000000 $t
/var/folders/lp/x54gwt890xv47sdkqj1k04q40000gn/T//ccdiwc3F.s:2068   .text.lv_style_set_text_color:00000000 lv_style_set_text_color
/var/folders/lp/x54gwt890xv47sdkqj1k04q40000gn/T//ccdiwc3F.s:2101   .text.lv_style_set_text_opa:00000000 $t
/var/folders/lp/x54gwt890xv47sdkqj1k04q40000gn/T//ccdiwc3F.s:2108   .text.lv_style_set_text_opa:00000000 lv_style_set_text_opa
/var/folders/lp/x54gwt890xv47sdkqj1k04q40000gn/T//ccdiwc3F.s:2131   .text.lv_style_set_text_font:00000000 $t
/var/folders/lp/x54gwt890xv47sdkqj1k04q40000gn/T//ccdiwc3F.s:2138   .text.lv_style_set_text_font:00000000 lv_style_set_text_font
/var/folders/lp/x54gwt890xv47sdkqj1k04q40000gn/T//ccdiwc3F.s:2161   .text.lv_style_set_text_letter_space:00000000 $t
/var/folders/lp/x54gwt890xv47sdkqj1k04q40000gn/T//ccdiwc3F.s:2168   .text.lv_style_set_text_letter_space:00000000 lv_style_set_text_letter_space
/var/folders/lp/x54gwt890xv47sdkqj1k04q40000gn/T//ccdiwc3F.s:2191   .text.lv_style_set_text_line_space:00000000 $t
/var/folders/lp/x54gwt890xv47sdkqj1k04q40000gn/T//ccdiwc3F.s:2198   .text.lv_style_set_text_line_space:00000000 lv_style_set_text_line_space
/var/folders/lp/x54gwt890xv47sdkqj1k04q40000gn/T//ccdiwc3F.s:2221   .text.lv_style_set_text_decor:00000000 $t
/var/folders/lp/x54gwt890xv47sdkqj1k04q40000gn/T//ccdiwc3F.s:2228   .text.lv_style_set_text_decor:00000000 lv_style_set_text_decor
/var/folders/lp/x54gwt890xv47sdkqj1k04q40000gn/T//ccdiwc3F.s:2251   .text.lv_style_set_text_align:00000000 $t
/var/folders/lp/x54gwt890xv47sdkqj1k04q40000gn/T//ccdiwc3F.s:2258   .text.lv_style_set_text_align:00000000 lv_style_set_text_align
/var/folders/lp/x54gwt890xv47sdkqj1k04q40000gn/T//ccdiwc3F.s:2281   .text.lv_style_set_radius:00000000 $t
/var/folders/lp/x54gwt890xv47sdkqj1k04q40000gn/T//ccdiwc3F.s:2288   .text.lv_style_set_radius:00000000 lv_style_set_radius
/var/folders/lp/x54gwt890xv47sdkqj1k04q40000gn/T//ccdiwc3F.s:2311   .text.lv_style_set_clip_corner:00000000 $t
/var/folders/lp/x54gwt890xv47sdkqj1k04q40000gn/T//ccdiwc3F.s:2318   .text.lv_style_set_clip_corner:00000000 lv_style_set_clip_corner
/var/folders/lp/x54gwt890xv47sdkqj1k04q40000gn/T//ccdiwc3F.s:2341   .text.lv_style_set_opa:00000000 $t
/var/folders/lp/x54gwt890xv47sdkqj1k04q40000gn/T//ccdiwc3F.s:2348   .text.lv_style_set_opa:00000000 lv_style_set_opa
/var/folders/lp/x54gwt890xv47sdkqj1k04q40000gn/T//ccdiwc3F.s:2371   .text.lv_style_set_opa_layered:00000000 $t
/var/folders/lp/x54gwt890xv47sdkqj1k04q40000gn/T//ccdiwc3F.s:2378   .text.lv_style_set_opa_layered:00000000 lv_style_set_opa_layered
/var/folders/lp/x54gwt890xv47sdkqj1k04q40000gn/T//ccdiwc3F.s:2401   .text.lv_style_set_color_filter_dsc:00000000 $t
/var/folders/lp/x54gwt890xv47sdkqj1k04q40000gn/T//ccdiwc3F.s:2408   .text.lv_style_set_color_filter_dsc:00000000 lv_style_set_color_filter_dsc
/var/folders/lp/x54gwt890xv47sdkqj1k04q40000gn/T//ccdiwc3F.s:2431   .text.lv_style_set_color_filter_opa:00000000 $t
/var/folders/lp/x54gwt890xv47sdkqj1k04q40000gn/T//ccdiwc3F.s:2438   .text.lv_style_set_color_filter_opa:00000000 lv_style_set_color_filter_opa
/var/folders/lp/x54gwt890xv47sdkqj1k04q40000gn/T//ccdiwc3F.s:2461   .text.lv_style_set_anim:00000000 $t
/var/folders/lp/x54gwt890xv47sdkqj1k04q40000gn/T//ccdiwc3F.s:2468   .text.lv_style_set_anim:00000000 lv_style_set_anim
/var/folders/lp/x54gwt890xv47sdkqj1k04q40000gn/T//ccdiwc3F.s:2491   .text.lv_style_set_anim_time:00000000 $t
/var/folders/lp/x54gwt890xv47sdkqj1k04q40000gn/T//ccdiwc3F.s:2498   .text.lv_style_set_anim_time:00000000 lv_style_set_anim_time
/var/folders/lp/x54gwt890xv47sdkqj1k04q40000gn/T//ccdiwc3F.s:2521   .text.lv_style_set_anim_speed:00000000 $t
/var/folders/lp/x54gwt890xv47sdkqj1k04q40000gn/T//ccdiwc3F.s:2528   .text.lv_style_set_anim_speed:00000000 lv_style_set_anim_speed
/var/folders/lp/x54gwt890xv47sdkqj1k04q40000gn/T//ccdiwc3F.s:2551   .text.lv_style_set_transition:00000000 $t
/var/folders/lp/x54gwt890xv47sdkqj1k04q40000gn/T//ccdiwc3F.s:2558   .text.lv_style_set_transition:00000000 lv_style_set_transition
/var/folders/lp/x54gwt890xv47sdkqj1k04q40000gn/T//ccdiwc3F.s:2581   .text.lv_style_set_blend_mode:00000000 $t
/var/folders/lp/x54gwt890xv47sdkqj1k04q40000gn/T//ccdiwc3F.s:2588   .text.lv_style_set_blend_mode:00000000 lv_style_set_blend_mode
/var/folders/lp/x54gwt890xv47sdkqj1k04q40000gn/T//ccdiwc3F.s:2611   .text.lv_style_set_layout:00000000 $t
/var/folders/lp/x54gwt890xv47sdkqj1k04q40000gn/T//ccdiwc3F.s:2618   .text.lv_style_set_layout:00000000 lv_style_set_layout
/var/folders/lp/x54gwt890xv47sdkqj1k04q40000gn/T//ccdiwc3F.s:2641   .text.lv_style_set_base_dir:00000000 $t
ARM GAS  /var/folders/lp/x54gwt890xv47sdkqj1k04q40000gn/T//ccdiwc3F.s 			page 63


/var/folders/lp/x54gwt890xv47sdkqj1k04q40000gn/T//ccdiwc3F.s:2648   .text.lv_style_set_base_dir:00000000 lv_style_set_base_dir

UNDEFINED SYMBOLS
lv_style_set_prop
