ARM GAS  /var/folders/lp/x54gwt890xv47sdkqj1k04q40000gn/T//ccgYd7pL.s 			page 1


   1              		.cpu cortex-m4
   2              		.arch armv7e-m
   3              		.fpu fpv4-sp-d16
   4              		.eabi_attribute 27, 1
   5              		.eabi_attribute 28, 1
   6              		.eabi_attribute 20, 1
   7              		.eabi_attribute 21, 1
   8              		.eabi_attribute 23, 3
   9              		.eabi_attribute 24, 1
  10              		.eabi_attribute 25, 1
  11              		.eabi_attribute 26, 1
  12              		.eabi_attribute 30, 2
  13              		.eabi_attribute 34, 1
  14              		.eabi_attribute 18, 4
  15              		.file	"lv_spinbox.c"
  16              		.text
  17              	.Ltext0:
  18              		.cfi_sections	.debug_frame
  19              		.file 1 "Drivers/lvgl/src/extra/widgets/spinbox/lv_spinbox.c"
  20              		.section	.rodata.lv_spinbox_updatevalue.str1.4,"aMS",%progbits,1
  21              		.align	2
  22              	.LC0:
  23 0000 256C6400 		.ascii	"%ld\000"
  24              		.section	.text.lv_spinbox_updatevalue,"ax",%progbits
  25              		.align	1
  26              		.p2align 2,,3
  27              		.syntax unified
  28              		.thumb
  29              		.thumb_func
  31              	lv_spinbox_updatevalue:
  32              	.LVL0:
  33              	.LFB221:
   1:Drivers/lvgl/src/extra/widgets/spinbox/lv_spinbox.c **** /**
   2:Drivers/lvgl/src/extra/widgets/spinbox/lv_spinbox.c ****  * @file lv_spinbox.c
   3:Drivers/lvgl/src/extra/widgets/spinbox/lv_spinbox.c ****  *
   4:Drivers/lvgl/src/extra/widgets/spinbox/lv_spinbox.c ****  */
   5:Drivers/lvgl/src/extra/widgets/spinbox/lv_spinbox.c **** 
   6:Drivers/lvgl/src/extra/widgets/spinbox/lv_spinbox.c **** /*********************
   7:Drivers/lvgl/src/extra/widgets/spinbox/lv_spinbox.c ****  *      INCLUDES
   8:Drivers/lvgl/src/extra/widgets/spinbox/lv_spinbox.c ****  *********************/
   9:Drivers/lvgl/src/extra/widgets/spinbox/lv_spinbox.c **** #include "lv_spinbox.h"
  10:Drivers/lvgl/src/extra/widgets/spinbox/lv_spinbox.c **** #if LV_USE_SPINBOX
  11:Drivers/lvgl/src/extra/widgets/spinbox/lv_spinbox.c **** 
  12:Drivers/lvgl/src/extra/widgets/spinbox/lv_spinbox.c **** #include "../../../misc/lv_assert.h"
  13:Drivers/lvgl/src/extra/widgets/spinbox/lv_spinbox.c **** 
  14:Drivers/lvgl/src/extra/widgets/spinbox/lv_spinbox.c **** /*********************
  15:Drivers/lvgl/src/extra/widgets/spinbox/lv_spinbox.c ****  *      DEFINES
  16:Drivers/lvgl/src/extra/widgets/spinbox/lv_spinbox.c ****  *********************/
  17:Drivers/lvgl/src/extra/widgets/spinbox/lv_spinbox.c **** #define MY_CLASS    &lv_spinbox_class
  18:Drivers/lvgl/src/extra/widgets/spinbox/lv_spinbox.c **** 
  19:Drivers/lvgl/src/extra/widgets/spinbox/lv_spinbox.c **** /**********************
  20:Drivers/lvgl/src/extra/widgets/spinbox/lv_spinbox.c ****  *      TYPEDEFS
  21:Drivers/lvgl/src/extra/widgets/spinbox/lv_spinbox.c ****  **********************/
  22:Drivers/lvgl/src/extra/widgets/spinbox/lv_spinbox.c **** 
  23:Drivers/lvgl/src/extra/widgets/spinbox/lv_spinbox.c **** /**********************
  24:Drivers/lvgl/src/extra/widgets/spinbox/lv_spinbox.c ****  *  STATIC PROTOTYPES
  25:Drivers/lvgl/src/extra/widgets/spinbox/lv_spinbox.c ****  **********************/
ARM GAS  /var/folders/lp/x54gwt890xv47sdkqj1k04q40000gn/T//ccgYd7pL.s 			page 2


  26:Drivers/lvgl/src/extra/widgets/spinbox/lv_spinbox.c **** 
  27:Drivers/lvgl/src/extra/widgets/spinbox/lv_spinbox.c **** static void lv_spinbox_constructor(const lv_obj_class_t * class_p, lv_obj_t * obj);
  28:Drivers/lvgl/src/extra/widgets/spinbox/lv_spinbox.c **** static void lv_spinbox_event(const lv_obj_class_t * class_p, lv_event_t * e);
  29:Drivers/lvgl/src/extra/widgets/spinbox/lv_spinbox.c **** static void lv_spinbox_updatevalue(lv_obj_t * obj);
  30:Drivers/lvgl/src/extra/widgets/spinbox/lv_spinbox.c **** 
  31:Drivers/lvgl/src/extra/widgets/spinbox/lv_spinbox.c **** /**********************
  32:Drivers/lvgl/src/extra/widgets/spinbox/lv_spinbox.c ****  *  STATIC VARIABLES
  33:Drivers/lvgl/src/extra/widgets/spinbox/lv_spinbox.c ****  **********************/
  34:Drivers/lvgl/src/extra/widgets/spinbox/lv_spinbox.c **** const lv_obj_class_t lv_spinbox_class = {
  35:Drivers/lvgl/src/extra/widgets/spinbox/lv_spinbox.c ****     .constructor_cb = lv_spinbox_constructor,
  36:Drivers/lvgl/src/extra/widgets/spinbox/lv_spinbox.c ****     .event_cb = lv_spinbox_event,
  37:Drivers/lvgl/src/extra/widgets/spinbox/lv_spinbox.c ****     .width_def = LV_DPI_DEF,
  38:Drivers/lvgl/src/extra/widgets/spinbox/lv_spinbox.c ****     .instance_size = sizeof(lv_spinbox_t),
  39:Drivers/lvgl/src/extra/widgets/spinbox/lv_spinbox.c ****     .editable = LV_OBJ_CLASS_EDITABLE_TRUE,
  40:Drivers/lvgl/src/extra/widgets/spinbox/lv_spinbox.c ****     .base_class = &lv_textarea_class
  41:Drivers/lvgl/src/extra/widgets/spinbox/lv_spinbox.c **** };
  42:Drivers/lvgl/src/extra/widgets/spinbox/lv_spinbox.c **** /**********************
  43:Drivers/lvgl/src/extra/widgets/spinbox/lv_spinbox.c ****  *      MACROS
  44:Drivers/lvgl/src/extra/widgets/spinbox/lv_spinbox.c ****  **********************/
  45:Drivers/lvgl/src/extra/widgets/spinbox/lv_spinbox.c **** 
  46:Drivers/lvgl/src/extra/widgets/spinbox/lv_spinbox.c **** /**********************
  47:Drivers/lvgl/src/extra/widgets/spinbox/lv_spinbox.c ****  *   GLOBAL FUNCTIONS
  48:Drivers/lvgl/src/extra/widgets/spinbox/lv_spinbox.c ****  **********************/
  49:Drivers/lvgl/src/extra/widgets/spinbox/lv_spinbox.c **** 
  50:Drivers/lvgl/src/extra/widgets/spinbox/lv_spinbox.c **** lv_obj_t * lv_spinbox_create(lv_obj_t * parent)
  51:Drivers/lvgl/src/extra/widgets/spinbox/lv_spinbox.c **** {
  52:Drivers/lvgl/src/extra/widgets/spinbox/lv_spinbox.c ****     LV_LOG_INFO("begin");
  53:Drivers/lvgl/src/extra/widgets/spinbox/lv_spinbox.c ****     lv_obj_t * obj = lv_obj_class_create_obj(MY_CLASS, parent);
  54:Drivers/lvgl/src/extra/widgets/spinbox/lv_spinbox.c ****     lv_obj_class_init_obj(obj);
  55:Drivers/lvgl/src/extra/widgets/spinbox/lv_spinbox.c ****     return obj;
  56:Drivers/lvgl/src/extra/widgets/spinbox/lv_spinbox.c **** }
  57:Drivers/lvgl/src/extra/widgets/spinbox/lv_spinbox.c **** 
  58:Drivers/lvgl/src/extra/widgets/spinbox/lv_spinbox.c **** /*=====================
  59:Drivers/lvgl/src/extra/widgets/spinbox/lv_spinbox.c ****  * Setter functions
  60:Drivers/lvgl/src/extra/widgets/spinbox/lv_spinbox.c ****  *====================*/
  61:Drivers/lvgl/src/extra/widgets/spinbox/lv_spinbox.c **** 
  62:Drivers/lvgl/src/extra/widgets/spinbox/lv_spinbox.c **** /**
  63:Drivers/lvgl/src/extra/widgets/spinbox/lv_spinbox.c ****  * Set spinbox value
  64:Drivers/lvgl/src/extra/widgets/spinbox/lv_spinbox.c ****  * @param obj pointer to spinbox
  65:Drivers/lvgl/src/extra/widgets/spinbox/lv_spinbox.c ****  * @param i value to be set
  66:Drivers/lvgl/src/extra/widgets/spinbox/lv_spinbox.c ****  */
  67:Drivers/lvgl/src/extra/widgets/spinbox/lv_spinbox.c **** void lv_spinbox_set_value(lv_obj_t * obj, int32_t i)
  68:Drivers/lvgl/src/extra/widgets/spinbox/lv_spinbox.c **** {
  69:Drivers/lvgl/src/extra/widgets/spinbox/lv_spinbox.c ****     LV_ASSERT_OBJ(obj, MY_CLASS);
  70:Drivers/lvgl/src/extra/widgets/spinbox/lv_spinbox.c ****     lv_spinbox_t * spinbox = (lv_spinbox_t *)obj;
  71:Drivers/lvgl/src/extra/widgets/spinbox/lv_spinbox.c **** 
  72:Drivers/lvgl/src/extra/widgets/spinbox/lv_spinbox.c ****     if(i > spinbox->range_max) i = spinbox->range_max;
  73:Drivers/lvgl/src/extra/widgets/spinbox/lv_spinbox.c ****     if(i < spinbox->range_min) i = spinbox->range_min;
  74:Drivers/lvgl/src/extra/widgets/spinbox/lv_spinbox.c **** 
  75:Drivers/lvgl/src/extra/widgets/spinbox/lv_spinbox.c ****     spinbox->value = i;
  76:Drivers/lvgl/src/extra/widgets/spinbox/lv_spinbox.c **** 
  77:Drivers/lvgl/src/extra/widgets/spinbox/lv_spinbox.c ****     lv_spinbox_updatevalue(obj);
  78:Drivers/lvgl/src/extra/widgets/spinbox/lv_spinbox.c **** }
  79:Drivers/lvgl/src/extra/widgets/spinbox/lv_spinbox.c **** 
  80:Drivers/lvgl/src/extra/widgets/spinbox/lv_spinbox.c **** /**
  81:Drivers/lvgl/src/extra/widgets/spinbox/lv_spinbox.c ****  * Set spinbox rollover function
  82:Drivers/lvgl/src/extra/widgets/spinbox/lv_spinbox.c ****  * @param spinbox pointer to spinbox
ARM GAS  /var/folders/lp/x54gwt890xv47sdkqj1k04q40000gn/T//ccgYd7pL.s 			page 3


  83:Drivers/lvgl/src/extra/widgets/spinbox/lv_spinbox.c ****  * @param b true or false to enable or disable (default)
  84:Drivers/lvgl/src/extra/widgets/spinbox/lv_spinbox.c ****  */
  85:Drivers/lvgl/src/extra/widgets/spinbox/lv_spinbox.c **** void lv_spinbox_set_rollover(lv_obj_t * obj, bool b)
  86:Drivers/lvgl/src/extra/widgets/spinbox/lv_spinbox.c **** {
  87:Drivers/lvgl/src/extra/widgets/spinbox/lv_spinbox.c ****     LV_ASSERT_OBJ(obj, MY_CLASS);
  88:Drivers/lvgl/src/extra/widgets/spinbox/lv_spinbox.c ****     lv_spinbox_t * spinbox = (lv_spinbox_t *)obj;
  89:Drivers/lvgl/src/extra/widgets/spinbox/lv_spinbox.c **** 
  90:Drivers/lvgl/src/extra/widgets/spinbox/lv_spinbox.c ****     spinbox->rollover = b;
  91:Drivers/lvgl/src/extra/widgets/spinbox/lv_spinbox.c **** }
  92:Drivers/lvgl/src/extra/widgets/spinbox/lv_spinbox.c **** 
  93:Drivers/lvgl/src/extra/widgets/spinbox/lv_spinbox.c **** /**
  94:Drivers/lvgl/src/extra/widgets/spinbox/lv_spinbox.c ****  * Set spinbox digit format (digit count and decimal format)
  95:Drivers/lvgl/src/extra/widgets/spinbox/lv_spinbox.c ****  * @param spinbox pointer to spinbox
  96:Drivers/lvgl/src/extra/widgets/spinbox/lv_spinbox.c ****  * @param digit_count number of digit excluding the decimal separator and the sign
  97:Drivers/lvgl/src/extra/widgets/spinbox/lv_spinbox.c ****  * @param separator_position number of digit before the decimal point. If 0, decimal point is not
  98:Drivers/lvgl/src/extra/widgets/spinbox/lv_spinbox.c ****  * shown
  99:Drivers/lvgl/src/extra/widgets/spinbox/lv_spinbox.c ****  */
 100:Drivers/lvgl/src/extra/widgets/spinbox/lv_spinbox.c **** void lv_spinbox_set_digit_format(lv_obj_t * obj, uint8_t digit_count, uint8_t separator_position)
 101:Drivers/lvgl/src/extra/widgets/spinbox/lv_spinbox.c **** {
 102:Drivers/lvgl/src/extra/widgets/spinbox/lv_spinbox.c ****     LV_ASSERT_OBJ(obj, MY_CLASS);
 103:Drivers/lvgl/src/extra/widgets/spinbox/lv_spinbox.c ****     lv_spinbox_t * spinbox = (lv_spinbox_t *)obj;
 104:Drivers/lvgl/src/extra/widgets/spinbox/lv_spinbox.c **** 
 105:Drivers/lvgl/src/extra/widgets/spinbox/lv_spinbox.c ****     if(digit_count > LV_SPINBOX_MAX_DIGIT_COUNT) digit_count = LV_SPINBOX_MAX_DIGIT_COUNT;
 106:Drivers/lvgl/src/extra/widgets/spinbox/lv_spinbox.c **** 
 107:Drivers/lvgl/src/extra/widgets/spinbox/lv_spinbox.c ****     if(separator_position >= digit_count) separator_position = 0;
 108:Drivers/lvgl/src/extra/widgets/spinbox/lv_spinbox.c **** 
 109:Drivers/lvgl/src/extra/widgets/spinbox/lv_spinbox.c ****     if(digit_count < LV_SPINBOX_MAX_DIGIT_COUNT) {
 110:Drivers/lvgl/src/extra/widgets/spinbox/lv_spinbox.c ****         int64_t max_val = lv_pow(10, digit_count);
 111:Drivers/lvgl/src/extra/widgets/spinbox/lv_spinbox.c ****         if(spinbox->range_max > max_val - 1) spinbox->range_max = max_val - 1;
 112:Drivers/lvgl/src/extra/widgets/spinbox/lv_spinbox.c ****         if(spinbox->range_min < - max_val  + 1) spinbox->range_min = - max_val  + 1;
 113:Drivers/lvgl/src/extra/widgets/spinbox/lv_spinbox.c ****     }
 114:Drivers/lvgl/src/extra/widgets/spinbox/lv_spinbox.c **** 
 115:Drivers/lvgl/src/extra/widgets/spinbox/lv_spinbox.c ****     spinbox->digit_count   = digit_count;
 116:Drivers/lvgl/src/extra/widgets/spinbox/lv_spinbox.c ****     spinbox->dec_point_pos = separator_position;
 117:Drivers/lvgl/src/extra/widgets/spinbox/lv_spinbox.c **** 
 118:Drivers/lvgl/src/extra/widgets/spinbox/lv_spinbox.c ****     lv_spinbox_updatevalue(obj);
 119:Drivers/lvgl/src/extra/widgets/spinbox/lv_spinbox.c **** }
 120:Drivers/lvgl/src/extra/widgets/spinbox/lv_spinbox.c **** 
 121:Drivers/lvgl/src/extra/widgets/spinbox/lv_spinbox.c **** /**
 122:Drivers/lvgl/src/extra/widgets/spinbox/lv_spinbox.c ****  * Set spinbox step
 123:Drivers/lvgl/src/extra/widgets/spinbox/lv_spinbox.c ****  * @param spinbox pointer to spinbox
 124:Drivers/lvgl/src/extra/widgets/spinbox/lv_spinbox.c ****  * @param step steps on increment/decrement
 125:Drivers/lvgl/src/extra/widgets/spinbox/lv_spinbox.c ****  */
 126:Drivers/lvgl/src/extra/widgets/spinbox/lv_spinbox.c **** void lv_spinbox_set_step(lv_obj_t * obj, uint32_t step)
 127:Drivers/lvgl/src/extra/widgets/spinbox/lv_spinbox.c **** {
 128:Drivers/lvgl/src/extra/widgets/spinbox/lv_spinbox.c ****     LV_ASSERT_OBJ(obj, MY_CLASS);
 129:Drivers/lvgl/src/extra/widgets/spinbox/lv_spinbox.c ****     lv_spinbox_t * spinbox = (lv_spinbox_t *)obj;
 130:Drivers/lvgl/src/extra/widgets/spinbox/lv_spinbox.c **** 
 131:Drivers/lvgl/src/extra/widgets/spinbox/lv_spinbox.c ****     spinbox->step = step;
 132:Drivers/lvgl/src/extra/widgets/spinbox/lv_spinbox.c ****     lv_spinbox_updatevalue(obj);
 133:Drivers/lvgl/src/extra/widgets/spinbox/lv_spinbox.c **** }
 134:Drivers/lvgl/src/extra/widgets/spinbox/lv_spinbox.c **** 
 135:Drivers/lvgl/src/extra/widgets/spinbox/lv_spinbox.c **** /**
 136:Drivers/lvgl/src/extra/widgets/spinbox/lv_spinbox.c ****  * Set spinbox value range
 137:Drivers/lvgl/src/extra/widgets/spinbox/lv_spinbox.c ****  * @param spinbox pointer to spinbox
 138:Drivers/lvgl/src/extra/widgets/spinbox/lv_spinbox.c ****  * @param range_min maximum value, inclusive
 139:Drivers/lvgl/src/extra/widgets/spinbox/lv_spinbox.c ****  * @param range_max minimum value, inclusive
ARM GAS  /var/folders/lp/x54gwt890xv47sdkqj1k04q40000gn/T//ccgYd7pL.s 			page 4


 140:Drivers/lvgl/src/extra/widgets/spinbox/lv_spinbox.c ****  */
 141:Drivers/lvgl/src/extra/widgets/spinbox/lv_spinbox.c **** void lv_spinbox_set_range(lv_obj_t * obj, int32_t range_min, int32_t range_max)
 142:Drivers/lvgl/src/extra/widgets/spinbox/lv_spinbox.c **** {
 143:Drivers/lvgl/src/extra/widgets/spinbox/lv_spinbox.c ****     LV_ASSERT_OBJ(obj, MY_CLASS);
 144:Drivers/lvgl/src/extra/widgets/spinbox/lv_spinbox.c ****     lv_spinbox_t * spinbox = (lv_spinbox_t *)obj;
 145:Drivers/lvgl/src/extra/widgets/spinbox/lv_spinbox.c **** 
 146:Drivers/lvgl/src/extra/widgets/spinbox/lv_spinbox.c ****     spinbox->range_max = range_max;
 147:Drivers/lvgl/src/extra/widgets/spinbox/lv_spinbox.c ****     spinbox->range_min = range_min;
 148:Drivers/lvgl/src/extra/widgets/spinbox/lv_spinbox.c **** 
 149:Drivers/lvgl/src/extra/widgets/spinbox/lv_spinbox.c ****     if(spinbox->value > spinbox->range_max) spinbox->value = spinbox->range_max;
 150:Drivers/lvgl/src/extra/widgets/spinbox/lv_spinbox.c ****     if(spinbox->value < spinbox->range_min) spinbox->value = spinbox->range_min;
 151:Drivers/lvgl/src/extra/widgets/spinbox/lv_spinbox.c **** 
 152:Drivers/lvgl/src/extra/widgets/spinbox/lv_spinbox.c ****     lv_spinbox_updatevalue(obj);
 153:Drivers/lvgl/src/extra/widgets/spinbox/lv_spinbox.c **** }
 154:Drivers/lvgl/src/extra/widgets/spinbox/lv_spinbox.c **** 
 155:Drivers/lvgl/src/extra/widgets/spinbox/lv_spinbox.c **** /**
 156:Drivers/lvgl/src/extra/widgets/spinbox/lv_spinbox.c ****  * Set cursor position to a specific digit for edition
 157:Drivers/lvgl/src/extra/widgets/spinbox/lv_spinbox.c ****  * @param spinbox pointer to spinbox
 158:Drivers/lvgl/src/extra/widgets/spinbox/lv_spinbox.c ****  * @param pos selected position in spinbox
 159:Drivers/lvgl/src/extra/widgets/spinbox/lv_spinbox.c ****  */
 160:Drivers/lvgl/src/extra/widgets/spinbox/lv_spinbox.c **** void lv_spinbox_set_cursor_pos(lv_obj_t * obj, uint8_t pos)
 161:Drivers/lvgl/src/extra/widgets/spinbox/lv_spinbox.c **** {
 162:Drivers/lvgl/src/extra/widgets/spinbox/lv_spinbox.c ****     LV_ASSERT_OBJ(obj, MY_CLASS);
 163:Drivers/lvgl/src/extra/widgets/spinbox/lv_spinbox.c ****     lv_spinbox_t * spinbox = (lv_spinbox_t *)obj;
 164:Drivers/lvgl/src/extra/widgets/spinbox/lv_spinbox.c ****     int32_t step_limit;
 165:Drivers/lvgl/src/extra/widgets/spinbox/lv_spinbox.c ****     step_limit       = LV_MAX(spinbox->range_max, (spinbox->range_min < 0 ? (-spinbox->range_min) :
 166:Drivers/lvgl/src/extra/widgets/spinbox/lv_spinbox.c ****     int32_t new_step = spinbox->step * lv_pow(10, pos);
 167:Drivers/lvgl/src/extra/widgets/spinbox/lv_spinbox.c ****     if(pos <= 0) spinbox->step = 1;
 168:Drivers/lvgl/src/extra/widgets/spinbox/lv_spinbox.c ****     else if(new_step <= step_limit) spinbox->step = new_step;
 169:Drivers/lvgl/src/extra/widgets/spinbox/lv_spinbox.c **** 
 170:Drivers/lvgl/src/extra/widgets/spinbox/lv_spinbox.c ****     lv_spinbox_updatevalue(obj);
 171:Drivers/lvgl/src/extra/widgets/spinbox/lv_spinbox.c **** }
 172:Drivers/lvgl/src/extra/widgets/spinbox/lv_spinbox.c **** 
 173:Drivers/lvgl/src/extra/widgets/spinbox/lv_spinbox.c **** /**
 174:Drivers/lvgl/src/extra/widgets/spinbox/lv_spinbox.c ****  * Set direction of digit step when clicking an encoder button while in editing mode
 175:Drivers/lvgl/src/extra/widgets/spinbox/lv_spinbox.c ****  * @param spinbox pointer to spinbox
 176:Drivers/lvgl/src/extra/widgets/spinbox/lv_spinbox.c ****  * @param direction the direction (LV_DIR_RIGHT or LV_DIR_LEFT)
 177:Drivers/lvgl/src/extra/widgets/spinbox/lv_spinbox.c ****  */
 178:Drivers/lvgl/src/extra/widgets/spinbox/lv_spinbox.c **** void lv_spinbox_set_digit_step_direction(lv_obj_t * obj, lv_dir_t direction)
 179:Drivers/lvgl/src/extra/widgets/spinbox/lv_spinbox.c **** {
 180:Drivers/lvgl/src/extra/widgets/spinbox/lv_spinbox.c ****     LV_ASSERT_OBJ(obj, MY_CLASS);
 181:Drivers/lvgl/src/extra/widgets/spinbox/lv_spinbox.c ****     lv_spinbox_t * spinbox = (lv_spinbox_t *)obj;
 182:Drivers/lvgl/src/extra/widgets/spinbox/lv_spinbox.c ****     spinbox->digit_step_dir = direction;
 183:Drivers/lvgl/src/extra/widgets/spinbox/lv_spinbox.c **** 
 184:Drivers/lvgl/src/extra/widgets/spinbox/lv_spinbox.c ****     lv_spinbox_updatevalue(obj);
 185:Drivers/lvgl/src/extra/widgets/spinbox/lv_spinbox.c **** }
 186:Drivers/lvgl/src/extra/widgets/spinbox/lv_spinbox.c **** /*=====================
 187:Drivers/lvgl/src/extra/widgets/spinbox/lv_spinbox.c ****  * Getter functions
 188:Drivers/lvgl/src/extra/widgets/spinbox/lv_spinbox.c ****  *====================*/
 189:Drivers/lvgl/src/extra/widgets/spinbox/lv_spinbox.c **** 
 190:Drivers/lvgl/src/extra/widgets/spinbox/lv_spinbox.c **** /**
 191:Drivers/lvgl/src/extra/widgets/spinbox/lv_spinbox.c ****  * Get the spinbox numeral value (user has to convert to float according to its digit format)
 192:Drivers/lvgl/src/extra/widgets/spinbox/lv_spinbox.c ****  * @param obj pointer to spinbox
 193:Drivers/lvgl/src/extra/widgets/spinbox/lv_spinbox.c ****  * @return value integer value of the spinbox
 194:Drivers/lvgl/src/extra/widgets/spinbox/lv_spinbox.c ****  */
 195:Drivers/lvgl/src/extra/widgets/spinbox/lv_spinbox.c **** int32_t lv_spinbox_get_value(lv_obj_t * obj)
 196:Drivers/lvgl/src/extra/widgets/spinbox/lv_spinbox.c **** {
ARM GAS  /var/folders/lp/x54gwt890xv47sdkqj1k04q40000gn/T//ccgYd7pL.s 			page 5


 197:Drivers/lvgl/src/extra/widgets/spinbox/lv_spinbox.c ****     LV_ASSERT_OBJ(obj, MY_CLASS);
 198:Drivers/lvgl/src/extra/widgets/spinbox/lv_spinbox.c ****     lv_spinbox_t * spinbox = (lv_spinbox_t *)obj;
 199:Drivers/lvgl/src/extra/widgets/spinbox/lv_spinbox.c **** 
 200:Drivers/lvgl/src/extra/widgets/spinbox/lv_spinbox.c ****     return spinbox->value;
 201:Drivers/lvgl/src/extra/widgets/spinbox/lv_spinbox.c **** }
 202:Drivers/lvgl/src/extra/widgets/spinbox/lv_spinbox.c **** /**
 203:Drivers/lvgl/src/extra/widgets/spinbox/lv_spinbox.c ****  * Get the spinbox step value (user has to convert to float according to its digit format)
 204:Drivers/lvgl/src/extra/widgets/spinbox/lv_spinbox.c ****  * @param obj pointer to spinbox
 205:Drivers/lvgl/src/extra/widgets/spinbox/lv_spinbox.c ****  * @return value integer step value of the spinbox
 206:Drivers/lvgl/src/extra/widgets/spinbox/lv_spinbox.c ****  */
 207:Drivers/lvgl/src/extra/widgets/spinbox/lv_spinbox.c **** int32_t lv_spinbox_get_step(lv_obj_t * obj)
 208:Drivers/lvgl/src/extra/widgets/spinbox/lv_spinbox.c **** {
 209:Drivers/lvgl/src/extra/widgets/spinbox/lv_spinbox.c ****     LV_ASSERT_OBJ(obj, MY_CLASS);
 210:Drivers/lvgl/src/extra/widgets/spinbox/lv_spinbox.c ****     lv_spinbox_t * spinbox = (lv_spinbox_t *)obj;
 211:Drivers/lvgl/src/extra/widgets/spinbox/lv_spinbox.c **** 
 212:Drivers/lvgl/src/extra/widgets/spinbox/lv_spinbox.c ****     return spinbox->step;
 213:Drivers/lvgl/src/extra/widgets/spinbox/lv_spinbox.c **** }
 214:Drivers/lvgl/src/extra/widgets/spinbox/lv_spinbox.c **** 
 215:Drivers/lvgl/src/extra/widgets/spinbox/lv_spinbox.c **** /*=====================
 216:Drivers/lvgl/src/extra/widgets/spinbox/lv_spinbox.c ****  * Other functions
 217:Drivers/lvgl/src/extra/widgets/spinbox/lv_spinbox.c ****  *====================*/
 218:Drivers/lvgl/src/extra/widgets/spinbox/lv_spinbox.c **** 
 219:Drivers/lvgl/src/extra/widgets/spinbox/lv_spinbox.c **** /**
 220:Drivers/lvgl/src/extra/widgets/spinbox/lv_spinbox.c ****  * Select next lower digit for edition
 221:Drivers/lvgl/src/extra/widgets/spinbox/lv_spinbox.c ****  * @param obj pointer to spinbox
 222:Drivers/lvgl/src/extra/widgets/spinbox/lv_spinbox.c ****  */
 223:Drivers/lvgl/src/extra/widgets/spinbox/lv_spinbox.c **** void lv_spinbox_step_next(lv_obj_t * obj)
 224:Drivers/lvgl/src/extra/widgets/spinbox/lv_spinbox.c **** {
 225:Drivers/lvgl/src/extra/widgets/spinbox/lv_spinbox.c ****     LV_ASSERT_OBJ(obj, MY_CLASS);
 226:Drivers/lvgl/src/extra/widgets/spinbox/lv_spinbox.c ****     lv_spinbox_t * spinbox = (lv_spinbox_t *)obj;
 227:Drivers/lvgl/src/extra/widgets/spinbox/lv_spinbox.c **** 
 228:Drivers/lvgl/src/extra/widgets/spinbox/lv_spinbox.c ****     int32_t new_step = spinbox->step / 10;
 229:Drivers/lvgl/src/extra/widgets/spinbox/lv_spinbox.c ****     if((new_step) > 0)
 230:Drivers/lvgl/src/extra/widgets/spinbox/lv_spinbox.c ****         spinbox->step = new_step;
 231:Drivers/lvgl/src/extra/widgets/spinbox/lv_spinbox.c ****     else
 232:Drivers/lvgl/src/extra/widgets/spinbox/lv_spinbox.c ****         spinbox->step = 1;
 233:Drivers/lvgl/src/extra/widgets/spinbox/lv_spinbox.c **** 
 234:Drivers/lvgl/src/extra/widgets/spinbox/lv_spinbox.c ****     lv_spinbox_updatevalue(obj);
 235:Drivers/lvgl/src/extra/widgets/spinbox/lv_spinbox.c **** }
 236:Drivers/lvgl/src/extra/widgets/spinbox/lv_spinbox.c **** 
 237:Drivers/lvgl/src/extra/widgets/spinbox/lv_spinbox.c **** /**
 238:Drivers/lvgl/src/extra/widgets/spinbox/lv_spinbox.c ****  * Select next higher digit for edition
 239:Drivers/lvgl/src/extra/widgets/spinbox/lv_spinbox.c ****  * @param obj pointer to spinbox
 240:Drivers/lvgl/src/extra/widgets/spinbox/lv_spinbox.c ****  */
 241:Drivers/lvgl/src/extra/widgets/spinbox/lv_spinbox.c **** void lv_spinbox_step_prev(lv_obj_t * obj)
 242:Drivers/lvgl/src/extra/widgets/spinbox/lv_spinbox.c **** {
 243:Drivers/lvgl/src/extra/widgets/spinbox/lv_spinbox.c ****     LV_ASSERT_OBJ(obj, MY_CLASS);
 244:Drivers/lvgl/src/extra/widgets/spinbox/lv_spinbox.c ****     lv_spinbox_t * spinbox = (lv_spinbox_t *)obj;
 245:Drivers/lvgl/src/extra/widgets/spinbox/lv_spinbox.c ****     int32_t step_limit;
 246:Drivers/lvgl/src/extra/widgets/spinbox/lv_spinbox.c ****     step_limit       = LV_MAX(spinbox->range_max, (spinbox->range_min < 0 ? (-spinbox->range_min) :
 247:Drivers/lvgl/src/extra/widgets/spinbox/lv_spinbox.c ****     int32_t new_step = spinbox->step * 10;
 248:Drivers/lvgl/src/extra/widgets/spinbox/lv_spinbox.c ****     if(new_step <= step_limit) spinbox->step = new_step;
 249:Drivers/lvgl/src/extra/widgets/spinbox/lv_spinbox.c **** 
 250:Drivers/lvgl/src/extra/widgets/spinbox/lv_spinbox.c ****     lv_spinbox_updatevalue(obj);
 251:Drivers/lvgl/src/extra/widgets/spinbox/lv_spinbox.c **** }
 252:Drivers/lvgl/src/extra/widgets/spinbox/lv_spinbox.c **** 
 253:Drivers/lvgl/src/extra/widgets/spinbox/lv_spinbox.c **** /**
ARM GAS  /var/folders/lp/x54gwt890xv47sdkqj1k04q40000gn/T//ccgYd7pL.s 			page 6


 254:Drivers/lvgl/src/extra/widgets/spinbox/lv_spinbox.c ****  * Get spinbox rollover function status
 255:Drivers/lvgl/src/extra/widgets/spinbox/lv_spinbox.c ****  * @param obj pointer to spinbox
 256:Drivers/lvgl/src/extra/widgets/spinbox/lv_spinbox.c ****  */
 257:Drivers/lvgl/src/extra/widgets/spinbox/lv_spinbox.c **** bool lv_spinbox_get_rollover(lv_obj_t * obj)
 258:Drivers/lvgl/src/extra/widgets/spinbox/lv_spinbox.c **** {
 259:Drivers/lvgl/src/extra/widgets/spinbox/lv_spinbox.c ****     LV_ASSERT_OBJ(obj, MY_CLASS);
 260:Drivers/lvgl/src/extra/widgets/spinbox/lv_spinbox.c ****     lv_spinbox_t * spinbox = (lv_spinbox_t *)obj;
 261:Drivers/lvgl/src/extra/widgets/spinbox/lv_spinbox.c **** 
 262:Drivers/lvgl/src/extra/widgets/spinbox/lv_spinbox.c ****     return spinbox->rollover;
 263:Drivers/lvgl/src/extra/widgets/spinbox/lv_spinbox.c **** }
 264:Drivers/lvgl/src/extra/widgets/spinbox/lv_spinbox.c **** 
 265:Drivers/lvgl/src/extra/widgets/spinbox/lv_spinbox.c **** /**
 266:Drivers/lvgl/src/extra/widgets/spinbox/lv_spinbox.c ****  * Increment spinbox value by one step
 267:Drivers/lvgl/src/extra/widgets/spinbox/lv_spinbox.c ****  * @param obj pointer to spinbox
 268:Drivers/lvgl/src/extra/widgets/spinbox/lv_spinbox.c ****  */
 269:Drivers/lvgl/src/extra/widgets/spinbox/lv_spinbox.c **** void lv_spinbox_increment(lv_obj_t * obj)
 270:Drivers/lvgl/src/extra/widgets/spinbox/lv_spinbox.c **** {
 271:Drivers/lvgl/src/extra/widgets/spinbox/lv_spinbox.c ****     LV_ASSERT_OBJ(obj, MY_CLASS);
 272:Drivers/lvgl/src/extra/widgets/spinbox/lv_spinbox.c ****     lv_spinbox_t * spinbox = (lv_spinbox_t *)obj;
 273:Drivers/lvgl/src/extra/widgets/spinbox/lv_spinbox.c **** 
 274:Drivers/lvgl/src/extra/widgets/spinbox/lv_spinbox.c ****     if(spinbox->value + spinbox->step <= spinbox->range_max) {
 275:Drivers/lvgl/src/extra/widgets/spinbox/lv_spinbox.c ****         /*Special mode when zero crossing*/
 276:Drivers/lvgl/src/extra/widgets/spinbox/lv_spinbox.c ****         if((spinbox->value + spinbox->step) > 0 && spinbox->value < 0) spinbox->value = -spinbox->v
 277:Drivers/lvgl/src/extra/widgets/spinbox/lv_spinbox.c ****         spinbox->value += spinbox->step;
 278:Drivers/lvgl/src/extra/widgets/spinbox/lv_spinbox.c **** 
 279:Drivers/lvgl/src/extra/widgets/spinbox/lv_spinbox.c ****     }
 280:Drivers/lvgl/src/extra/widgets/spinbox/lv_spinbox.c ****     else {
 281:Drivers/lvgl/src/extra/widgets/spinbox/lv_spinbox.c ****         // Rollover?
 282:Drivers/lvgl/src/extra/widgets/spinbox/lv_spinbox.c ****         if((spinbox->rollover) && (spinbox->value == spinbox->range_max))
 283:Drivers/lvgl/src/extra/widgets/spinbox/lv_spinbox.c ****             spinbox->value = spinbox->range_min;
 284:Drivers/lvgl/src/extra/widgets/spinbox/lv_spinbox.c ****         else
 285:Drivers/lvgl/src/extra/widgets/spinbox/lv_spinbox.c ****             spinbox->value = spinbox->range_max;
 286:Drivers/lvgl/src/extra/widgets/spinbox/lv_spinbox.c ****     }
 287:Drivers/lvgl/src/extra/widgets/spinbox/lv_spinbox.c **** 
 288:Drivers/lvgl/src/extra/widgets/spinbox/lv_spinbox.c ****     lv_spinbox_updatevalue(obj);
 289:Drivers/lvgl/src/extra/widgets/spinbox/lv_spinbox.c **** }
 290:Drivers/lvgl/src/extra/widgets/spinbox/lv_spinbox.c **** 
 291:Drivers/lvgl/src/extra/widgets/spinbox/lv_spinbox.c **** /**
 292:Drivers/lvgl/src/extra/widgets/spinbox/lv_spinbox.c ****  * Decrement spinbox value by one step
 293:Drivers/lvgl/src/extra/widgets/spinbox/lv_spinbox.c ****  * @param obj pointer to spinbox
 294:Drivers/lvgl/src/extra/widgets/spinbox/lv_spinbox.c ****  */
 295:Drivers/lvgl/src/extra/widgets/spinbox/lv_spinbox.c **** void lv_spinbox_decrement(lv_obj_t * obj)
 296:Drivers/lvgl/src/extra/widgets/spinbox/lv_spinbox.c **** {
 297:Drivers/lvgl/src/extra/widgets/spinbox/lv_spinbox.c ****     LV_ASSERT_OBJ(obj, MY_CLASS);
 298:Drivers/lvgl/src/extra/widgets/spinbox/lv_spinbox.c ****     lv_spinbox_t * spinbox = (lv_spinbox_t *)obj;
 299:Drivers/lvgl/src/extra/widgets/spinbox/lv_spinbox.c **** 
 300:Drivers/lvgl/src/extra/widgets/spinbox/lv_spinbox.c ****     if(spinbox->value - spinbox->step >= spinbox->range_min) {
 301:Drivers/lvgl/src/extra/widgets/spinbox/lv_spinbox.c ****         /*Special mode when zero crossing*/
 302:Drivers/lvgl/src/extra/widgets/spinbox/lv_spinbox.c ****         if((spinbox->value - spinbox->step) < 0 && spinbox->value > 0) spinbox->value = -spinbox->v
 303:Drivers/lvgl/src/extra/widgets/spinbox/lv_spinbox.c ****         spinbox->value -= spinbox->step;
 304:Drivers/lvgl/src/extra/widgets/spinbox/lv_spinbox.c ****     }
 305:Drivers/lvgl/src/extra/widgets/spinbox/lv_spinbox.c ****     else {
 306:Drivers/lvgl/src/extra/widgets/spinbox/lv_spinbox.c ****         /*Rollover?*/
 307:Drivers/lvgl/src/extra/widgets/spinbox/lv_spinbox.c ****         if((spinbox->rollover) && (spinbox->value == spinbox->range_min))
 308:Drivers/lvgl/src/extra/widgets/spinbox/lv_spinbox.c ****             spinbox->value = spinbox->range_max;
 309:Drivers/lvgl/src/extra/widgets/spinbox/lv_spinbox.c ****         else
 310:Drivers/lvgl/src/extra/widgets/spinbox/lv_spinbox.c ****             spinbox->value = spinbox->range_min;
ARM GAS  /var/folders/lp/x54gwt890xv47sdkqj1k04q40000gn/T//ccgYd7pL.s 			page 7


 311:Drivers/lvgl/src/extra/widgets/spinbox/lv_spinbox.c ****     }
 312:Drivers/lvgl/src/extra/widgets/spinbox/lv_spinbox.c **** 
 313:Drivers/lvgl/src/extra/widgets/spinbox/lv_spinbox.c ****     lv_spinbox_updatevalue(obj);
 314:Drivers/lvgl/src/extra/widgets/spinbox/lv_spinbox.c **** }
 315:Drivers/lvgl/src/extra/widgets/spinbox/lv_spinbox.c **** 
 316:Drivers/lvgl/src/extra/widgets/spinbox/lv_spinbox.c **** /**********************
 317:Drivers/lvgl/src/extra/widgets/spinbox/lv_spinbox.c ****  *   STATIC FUNCTIONS
 318:Drivers/lvgl/src/extra/widgets/spinbox/lv_spinbox.c ****  **********************/
 319:Drivers/lvgl/src/extra/widgets/spinbox/lv_spinbox.c **** 
 320:Drivers/lvgl/src/extra/widgets/spinbox/lv_spinbox.c **** static void lv_spinbox_constructor(const lv_obj_class_t * class_p, lv_obj_t * obj)
 321:Drivers/lvgl/src/extra/widgets/spinbox/lv_spinbox.c **** {
 322:Drivers/lvgl/src/extra/widgets/spinbox/lv_spinbox.c ****     LV_UNUSED(class_p);
 323:Drivers/lvgl/src/extra/widgets/spinbox/lv_spinbox.c ****     LV_LOG_TRACE("begin");
 324:Drivers/lvgl/src/extra/widgets/spinbox/lv_spinbox.c **** 
 325:Drivers/lvgl/src/extra/widgets/spinbox/lv_spinbox.c ****     lv_spinbox_t * spinbox = (lv_spinbox_t *)obj;
 326:Drivers/lvgl/src/extra/widgets/spinbox/lv_spinbox.c **** 
 327:Drivers/lvgl/src/extra/widgets/spinbox/lv_spinbox.c ****     /*Initialize the allocated 'ext'*/
 328:Drivers/lvgl/src/extra/widgets/spinbox/lv_spinbox.c ****     spinbox->value              = 0;
 329:Drivers/lvgl/src/extra/widgets/spinbox/lv_spinbox.c ****     spinbox->dec_point_pos      = 0;
 330:Drivers/lvgl/src/extra/widgets/spinbox/lv_spinbox.c ****     spinbox->digit_count        = 5;
 331:Drivers/lvgl/src/extra/widgets/spinbox/lv_spinbox.c ****     spinbox->step               = 1;
 332:Drivers/lvgl/src/extra/widgets/spinbox/lv_spinbox.c ****     spinbox->range_max          = 99999;
 333:Drivers/lvgl/src/extra/widgets/spinbox/lv_spinbox.c ****     spinbox->range_min          = -99999;
 334:Drivers/lvgl/src/extra/widgets/spinbox/lv_spinbox.c ****     spinbox->rollover           = false;
 335:Drivers/lvgl/src/extra/widgets/spinbox/lv_spinbox.c ****     spinbox->digit_step_dir     = LV_DIR_RIGHT;
 336:Drivers/lvgl/src/extra/widgets/spinbox/lv_spinbox.c **** 
 337:Drivers/lvgl/src/extra/widgets/spinbox/lv_spinbox.c ****     lv_textarea_set_one_line(obj, true);
 338:Drivers/lvgl/src/extra/widgets/spinbox/lv_spinbox.c ****     lv_textarea_set_cursor_click_pos(obj, true);
 339:Drivers/lvgl/src/extra/widgets/spinbox/lv_spinbox.c **** 
 340:Drivers/lvgl/src/extra/widgets/spinbox/lv_spinbox.c ****     lv_spinbox_updatevalue(obj);
 341:Drivers/lvgl/src/extra/widgets/spinbox/lv_spinbox.c **** 
 342:Drivers/lvgl/src/extra/widgets/spinbox/lv_spinbox.c ****     LV_LOG_TRACE("Spinbox constructor finished");
 343:Drivers/lvgl/src/extra/widgets/spinbox/lv_spinbox.c **** }
 344:Drivers/lvgl/src/extra/widgets/spinbox/lv_spinbox.c **** 
 345:Drivers/lvgl/src/extra/widgets/spinbox/lv_spinbox.c **** static void lv_spinbox_event(const lv_obj_class_t * class_p, lv_event_t * e)
 346:Drivers/lvgl/src/extra/widgets/spinbox/lv_spinbox.c **** {
 347:Drivers/lvgl/src/extra/widgets/spinbox/lv_spinbox.c ****     LV_UNUSED(class_p);
 348:Drivers/lvgl/src/extra/widgets/spinbox/lv_spinbox.c **** 
 349:Drivers/lvgl/src/extra/widgets/spinbox/lv_spinbox.c ****     /*Call the ancestor's event handler*/
 350:Drivers/lvgl/src/extra/widgets/spinbox/lv_spinbox.c ****     lv_res_t res = LV_RES_OK;
 351:Drivers/lvgl/src/extra/widgets/spinbox/lv_spinbox.c ****     res = lv_obj_event_base(MY_CLASS, e);
 352:Drivers/lvgl/src/extra/widgets/spinbox/lv_spinbox.c ****     if(res != LV_RES_OK) return;
 353:Drivers/lvgl/src/extra/widgets/spinbox/lv_spinbox.c **** 
 354:Drivers/lvgl/src/extra/widgets/spinbox/lv_spinbox.c ****     lv_event_code_t code = lv_event_get_code(e);
 355:Drivers/lvgl/src/extra/widgets/spinbox/lv_spinbox.c ****     lv_obj_t * obj = lv_event_get_target(e);
 356:Drivers/lvgl/src/extra/widgets/spinbox/lv_spinbox.c ****     lv_spinbox_t * spinbox = (lv_spinbox_t *)obj;
 357:Drivers/lvgl/src/extra/widgets/spinbox/lv_spinbox.c ****     if(code == LV_EVENT_RELEASED) {
 358:Drivers/lvgl/src/extra/widgets/spinbox/lv_spinbox.c ****         /*If released with an ENCODER then move to the next digit*/
 359:Drivers/lvgl/src/extra/widgets/spinbox/lv_spinbox.c ****         lv_indev_t * indev = lv_indev_get_act();
 360:Drivers/lvgl/src/extra/widgets/spinbox/lv_spinbox.c ****         if(lv_indev_get_type(indev) == LV_INDEV_TYPE_ENCODER) {
 361:Drivers/lvgl/src/extra/widgets/spinbox/lv_spinbox.c ****             if(lv_group_get_editing(lv_obj_get_group(obj))) {
 362:Drivers/lvgl/src/extra/widgets/spinbox/lv_spinbox.c ****                 if(spinbox->digit_count > 1) {
 363:Drivers/lvgl/src/extra/widgets/spinbox/lv_spinbox.c ****                     if(spinbox->digit_step_dir == LV_DIR_RIGHT) {
 364:Drivers/lvgl/src/extra/widgets/spinbox/lv_spinbox.c ****                         if(spinbox->step > 1) {
 365:Drivers/lvgl/src/extra/widgets/spinbox/lv_spinbox.c ****                             lv_spinbox_step_next(obj);
 366:Drivers/lvgl/src/extra/widgets/spinbox/lv_spinbox.c ****                         }
 367:Drivers/lvgl/src/extra/widgets/spinbox/lv_spinbox.c ****                         else {
ARM GAS  /var/folders/lp/x54gwt890xv47sdkqj1k04q40000gn/T//ccgYd7pL.s 			page 8


 368:Drivers/lvgl/src/extra/widgets/spinbox/lv_spinbox.c ****                             /*Restart from the MSB*/
 369:Drivers/lvgl/src/extra/widgets/spinbox/lv_spinbox.c ****                             spinbox->step = lv_pow(10, spinbox->digit_count - 2);
 370:Drivers/lvgl/src/extra/widgets/spinbox/lv_spinbox.c ****                             lv_spinbox_step_prev(obj);
 371:Drivers/lvgl/src/extra/widgets/spinbox/lv_spinbox.c ****                         }
 372:Drivers/lvgl/src/extra/widgets/spinbox/lv_spinbox.c ****                     }
 373:Drivers/lvgl/src/extra/widgets/spinbox/lv_spinbox.c ****                     else {
 374:Drivers/lvgl/src/extra/widgets/spinbox/lv_spinbox.c ****                         if(spinbox->step < lv_pow(10, spinbox->digit_count - 1)) {
 375:Drivers/lvgl/src/extra/widgets/spinbox/lv_spinbox.c ****                             lv_spinbox_step_prev(obj);
 376:Drivers/lvgl/src/extra/widgets/spinbox/lv_spinbox.c ****                         }
 377:Drivers/lvgl/src/extra/widgets/spinbox/lv_spinbox.c ****                         else {
 378:Drivers/lvgl/src/extra/widgets/spinbox/lv_spinbox.c ****                             /*Restart from the LSB*/
 379:Drivers/lvgl/src/extra/widgets/spinbox/lv_spinbox.c ****                             spinbox->step = 10;
 380:Drivers/lvgl/src/extra/widgets/spinbox/lv_spinbox.c ****                             lv_spinbox_step_next(obj);
 381:Drivers/lvgl/src/extra/widgets/spinbox/lv_spinbox.c ****                         }
 382:Drivers/lvgl/src/extra/widgets/spinbox/lv_spinbox.c ****                     }
 383:Drivers/lvgl/src/extra/widgets/spinbox/lv_spinbox.c ****                 }
 384:Drivers/lvgl/src/extra/widgets/spinbox/lv_spinbox.c ****             }
 385:Drivers/lvgl/src/extra/widgets/spinbox/lv_spinbox.c ****         }
 386:Drivers/lvgl/src/extra/widgets/spinbox/lv_spinbox.c ****         /*The cursor has been positioned to a digit.
 387:Drivers/lvgl/src/extra/widgets/spinbox/lv_spinbox.c ****          * Set `step` accordingly*/
 388:Drivers/lvgl/src/extra/widgets/spinbox/lv_spinbox.c ****         else {
 389:Drivers/lvgl/src/extra/widgets/spinbox/lv_spinbox.c ****             const char * txt = lv_textarea_get_text(obj);
 390:Drivers/lvgl/src/extra/widgets/spinbox/lv_spinbox.c ****             size_t txt_len = strlen(txt);
 391:Drivers/lvgl/src/extra/widgets/spinbox/lv_spinbox.c **** 
 392:Drivers/lvgl/src/extra/widgets/spinbox/lv_spinbox.c ****             if(txt[spinbox->ta.cursor.pos] == '.') {
 393:Drivers/lvgl/src/extra/widgets/spinbox/lv_spinbox.c ****                 lv_textarea_cursor_left(obj);
 394:Drivers/lvgl/src/extra/widgets/spinbox/lv_spinbox.c ****             }
 395:Drivers/lvgl/src/extra/widgets/spinbox/lv_spinbox.c ****             else if(spinbox->ta.cursor.pos == (uint32_t)txt_len) {
 396:Drivers/lvgl/src/extra/widgets/spinbox/lv_spinbox.c ****                 lv_textarea_set_cursor_pos(obj, txt_len - 1);
 397:Drivers/lvgl/src/extra/widgets/spinbox/lv_spinbox.c ****             }
 398:Drivers/lvgl/src/extra/widgets/spinbox/lv_spinbox.c ****             else if(spinbox->ta.cursor.pos == 0 && spinbox->range_min < 0) {
 399:Drivers/lvgl/src/extra/widgets/spinbox/lv_spinbox.c ****                 lv_textarea_set_cursor_pos(obj, 1);
 400:Drivers/lvgl/src/extra/widgets/spinbox/lv_spinbox.c ****             }
 401:Drivers/lvgl/src/extra/widgets/spinbox/lv_spinbox.c **** 
 402:Drivers/lvgl/src/extra/widgets/spinbox/lv_spinbox.c ****             size_t len = spinbox->digit_count - 1;
 403:Drivers/lvgl/src/extra/widgets/spinbox/lv_spinbox.c ****             uint16_t cp = spinbox->ta.cursor.pos;
 404:Drivers/lvgl/src/extra/widgets/spinbox/lv_spinbox.c **** 
 405:Drivers/lvgl/src/extra/widgets/spinbox/lv_spinbox.c ****             if(spinbox->ta.cursor.pos > spinbox->dec_point_pos && spinbox->dec_point_pos != 0) cp--
 406:Drivers/lvgl/src/extra/widgets/spinbox/lv_spinbox.c ****             uint32_t pos = len - cp;
 407:Drivers/lvgl/src/extra/widgets/spinbox/lv_spinbox.c **** 
 408:Drivers/lvgl/src/extra/widgets/spinbox/lv_spinbox.c ****             if(spinbox->range_min < 0) pos++;
 409:Drivers/lvgl/src/extra/widgets/spinbox/lv_spinbox.c **** 
 410:Drivers/lvgl/src/extra/widgets/spinbox/lv_spinbox.c ****             spinbox->step = 1;
 411:Drivers/lvgl/src/extra/widgets/spinbox/lv_spinbox.c ****             uint16_t i;
 412:Drivers/lvgl/src/extra/widgets/spinbox/lv_spinbox.c ****             for(i = 0; i < pos; i++) spinbox->step *= 10;
 413:Drivers/lvgl/src/extra/widgets/spinbox/lv_spinbox.c ****         }
 414:Drivers/lvgl/src/extra/widgets/spinbox/lv_spinbox.c ****     }
 415:Drivers/lvgl/src/extra/widgets/spinbox/lv_spinbox.c ****     else if(code == LV_EVENT_KEY) {
 416:Drivers/lvgl/src/extra/widgets/spinbox/lv_spinbox.c ****         lv_indev_type_t indev_type = lv_indev_get_type(lv_indev_get_act());
 417:Drivers/lvgl/src/extra/widgets/spinbox/lv_spinbox.c **** 
 418:Drivers/lvgl/src/extra/widgets/spinbox/lv_spinbox.c ****         uint32_t c = *((uint32_t *)lv_event_get_param(e)); /*uint32_t because can be UTF-8*/
 419:Drivers/lvgl/src/extra/widgets/spinbox/lv_spinbox.c ****         if(c == LV_KEY_RIGHT) {
 420:Drivers/lvgl/src/extra/widgets/spinbox/lv_spinbox.c ****             if(indev_type == LV_INDEV_TYPE_ENCODER)
 421:Drivers/lvgl/src/extra/widgets/spinbox/lv_spinbox.c ****                 lv_spinbox_increment(obj);
 422:Drivers/lvgl/src/extra/widgets/spinbox/lv_spinbox.c ****             else
 423:Drivers/lvgl/src/extra/widgets/spinbox/lv_spinbox.c ****                 lv_spinbox_step_next(obj);
 424:Drivers/lvgl/src/extra/widgets/spinbox/lv_spinbox.c ****         }
ARM GAS  /var/folders/lp/x54gwt890xv47sdkqj1k04q40000gn/T//ccgYd7pL.s 			page 9


 425:Drivers/lvgl/src/extra/widgets/spinbox/lv_spinbox.c ****         else if(c == LV_KEY_LEFT) {
 426:Drivers/lvgl/src/extra/widgets/spinbox/lv_spinbox.c ****             if(indev_type == LV_INDEV_TYPE_ENCODER)
 427:Drivers/lvgl/src/extra/widgets/spinbox/lv_spinbox.c ****                 lv_spinbox_decrement(obj);
 428:Drivers/lvgl/src/extra/widgets/spinbox/lv_spinbox.c ****             else
 429:Drivers/lvgl/src/extra/widgets/spinbox/lv_spinbox.c ****                 lv_spinbox_step_prev(obj);
 430:Drivers/lvgl/src/extra/widgets/spinbox/lv_spinbox.c ****         }
 431:Drivers/lvgl/src/extra/widgets/spinbox/lv_spinbox.c ****         else if(c == LV_KEY_UP) {
 432:Drivers/lvgl/src/extra/widgets/spinbox/lv_spinbox.c ****             lv_spinbox_increment(obj);
 433:Drivers/lvgl/src/extra/widgets/spinbox/lv_spinbox.c ****         }
 434:Drivers/lvgl/src/extra/widgets/spinbox/lv_spinbox.c ****         else if(c == LV_KEY_DOWN) {
 435:Drivers/lvgl/src/extra/widgets/spinbox/lv_spinbox.c ****             lv_spinbox_decrement(obj);
 436:Drivers/lvgl/src/extra/widgets/spinbox/lv_spinbox.c ****         }
 437:Drivers/lvgl/src/extra/widgets/spinbox/lv_spinbox.c ****     }
 438:Drivers/lvgl/src/extra/widgets/spinbox/lv_spinbox.c **** }
 439:Drivers/lvgl/src/extra/widgets/spinbox/lv_spinbox.c **** 
 440:Drivers/lvgl/src/extra/widgets/spinbox/lv_spinbox.c **** static void lv_spinbox_updatevalue(lv_obj_t * obj)
 441:Drivers/lvgl/src/extra/widgets/spinbox/lv_spinbox.c **** {
  34              		.loc 1 441 1 view -0
  35              		.cfi_startproc
  36              		@ args = 0, pretend = 0, frame = 40
  37              		@ frame_needed = 0, uses_anonymous_args = 0
 442:Drivers/lvgl/src/extra/widgets/spinbox/lv_spinbox.c ****     lv_spinbox_t * spinbox = (lv_spinbox_t *)obj;
  38              		.loc 1 442 5 view .LVU1
 441:Drivers/lvgl/src/extra/widgets/spinbox/lv_spinbox.c ****     lv_spinbox_t * spinbox = (lv_spinbox_t *)obj;
  39              		.loc 1 441 1 is_stmt 0 view .LVU2
  40 0000 2DE9F047 		push	{r4, r5, r6, r7, r8, r9, r10, lr}
  41              		.cfi_def_cfa_offset 32
  42              		.cfi_offset 4, -32
  43              		.cfi_offset 5, -28
  44              		.cfi_offset 6, -24
  45              		.cfi_offset 7, -20
  46              		.cfi_offset 8, -16
  47              		.cfi_offset 9, -12
  48              		.cfi_offset 10, -8
  49              		.cfi_offset 14, -4
  50 0004 0446     		mov	r4, r0
  51 0006 8AB0     		sub	sp, sp, #40
  52              		.cfi_def_cfa_offset 72
 443:Drivers/lvgl/src/extra/widgets/spinbox/lv_spinbox.c **** 
 444:Drivers/lvgl/src/extra/widgets/spinbox/lv_spinbox.c ****     char buf[LV_SPINBOX_MAX_DIGIT_COUNT + 8];
 445:Drivers/lvgl/src/extra/widgets/spinbox/lv_spinbox.c ****     lv_memset_00(buf, sizeof(buf));
  53              		.loc 1 445 5 view .LVU3
  54 0008 1221     		movs	r1, #18
  55 000a 05A8     		add	r0, sp, #20
  56              	.LVL1:
 444:Drivers/lvgl/src/extra/widgets/spinbox/lv_spinbox.c ****     lv_memset_00(buf, sizeof(buf));
  57              		.loc 1 444 5 is_stmt 1 view .LVU4
  58              		.loc 1 445 5 view .LVU5
  59 000c FFF7FEFF 		bl	lv_memset_00
  60              	.LVL2:
 446:Drivers/lvgl/src/extra/widgets/spinbox/lv_spinbox.c ****     char * buf_p = buf;
  61              		.loc 1 446 5 view .LVU6
 447:Drivers/lvgl/src/extra/widgets/spinbox/lv_spinbox.c ****     uint8_t cur_shift_left = 0;
  62              		.loc 1 447 5 view .LVU7
 448:Drivers/lvgl/src/extra/widgets/spinbox/lv_spinbox.c **** 
 449:Drivers/lvgl/src/extra/widgets/spinbox/lv_spinbox.c ****     if(spinbox->range_min < 0) {  // hide sign if there are only positive values
  63              		.loc 1 449 5 view .LVU8
ARM GAS  /var/folders/lp/x54gwt890xv47sdkqj1k04q40000gn/T//ccgYd7pL.s 			page 10


  64              		.loc 1 449 7 is_stmt 0 view .LVU9
  65 0010 E36E     		ldr	r3, [r4, #108]
  66 0012 002B     		cmp	r3, #0
 450:Drivers/lvgl/src/extra/widgets/spinbox/lv_spinbox.c ****         /*Add the sign*/
 451:Drivers/lvgl/src/extra/widgets/spinbox/lv_spinbox.c ****         (*buf_p) = spinbox->value >= 0 ? '+' : '-';
  67              		.loc 1 451 27 view .LVU10
  68 0014 636E     		ldr	r3, [r4, #100]
 449:Drivers/lvgl/src/extra/widgets/spinbox/lv_spinbox.c ****         /*Add the sign*/
  69              		.loc 1 449 7 view .LVU11
  70 0016 7DDB     		blt	.L2
 452:Drivers/lvgl/src/extra/widgets/spinbox/lv_spinbox.c ****         buf_p++;
 453:Drivers/lvgl/src/extra/widgets/spinbox/lv_spinbox.c ****     }
 454:Drivers/lvgl/src/extra/widgets/spinbox/lv_spinbox.c ****     else {
 455:Drivers/lvgl/src/extra/widgets/spinbox/lv_spinbox.c ****         /*Cursor need shift to left*/
 456:Drivers/lvgl/src/extra/widgets/spinbox/lv_spinbox.c ****         cur_shift_left++;
  71              		.loc 1 456 23 view .LVU12
  72 0018 0125     		movs	r5, #1
 446:Drivers/lvgl/src/extra/widgets/spinbox/lv_spinbox.c ****     uint8_t cur_shift_left = 0;
  73              		.loc 1 446 12 view .LVU13
  74 001a 05AF     		add	r7, sp, #20
  75              	.LVL3:
  76              	.L3:
 457:Drivers/lvgl/src/extra/widgets/spinbox/lv_spinbox.c ****     }
 458:Drivers/lvgl/src/extra/widgets/spinbox/lv_spinbox.c **** 
 459:Drivers/lvgl/src/extra/widgets/spinbox/lv_spinbox.c ****     int32_t i;
  77              		.loc 1 459 5 is_stmt 1 view .LVU14
 460:Drivers/lvgl/src/extra/widgets/spinbox/lv_spinbox.c ****     char digits[LV_SPINBOX_MAX_DIGIT_COUNT + 4];
  78              		.loc 1 460 5 view .LVU15
 461:Drivers/lvgl/src/extra/widgets/spinbox/lv_spinbox.c ****     /*Convert the numbers to string (the sign is already handled so always covert positive number)*
 462:Drivers/lvgl/src/extra/widgets/spinbox/lv_spinbox.c ****     lv_snprintf(digits, sizeof(digits), "%" LV_PRId32, LV_ABS(spinbox->value));
  79              		.loc 1 462 5 view .LVU16
  80 001c 002B     		cmp	r3, #0
  81 001e 0DF10408 		add	r8, sp, #4
  82 0022 414A     		ldr	r2, .L32
  83 0024 B8BF     		it	lt
  84 0026 5B42     		rsblt	r3, r3, #0
  85 0028 0E21     		movs	r1, #14
  86 002a 4046     		mov	r0, r8
  87 002c FFF7FEFF 		bl	lv_snprintf
  88              	.LVL4:
 463:Drivers/lvgl/src/extra/widgets/spinbox/lv_spinbox.c **** 
 464:Drivers/lvgl/src/extra/widgets/spinbox/lv_spinbox.c ****     /*Add leading zeros*/
 465:Drivers/lvgl/src/extra/widgets/spinbox/lv_spinbox.c ****     int lz_cnt = spinbox->digit_count - (int)strlen(digits);
  89              		.loc 1 465 5 view .LVU17
  90              		.loc 1 465 46 is_stmt 0 view .LVU18
  91 0030 4046     		mov	r0, r8
  92 0032 FFF7FEFF 		bl	strlen
  93              	.LVL5:
  94              		.loc 1 465 25 view .LVU19
  95 0036 94F874A0 		ldrb	r10, [r4, #116]	@ zero_extendqisi2
  96 003a 0AF00F09 		and	r9, r10, #15
  97              		.loc 1 465 9 discriminator 1 view .LVU20
  98 003e A9EB0002 		sub	r2, r9, r0
  99              	.LVL6:
 466:Drivers/lvgl/src/extra/widgets/spinbox/lv_spinbox.c ****     if(lz_cnt > 0) {
 100              		.loc 1 466 5 is_stmt 1 view .LVU21
 101              		.loc 1 466 7 is_stmt 0 view .LVU22
ARM GAS  /var/folders/lp/x54gwt890xv47sdkqj1k04q40000gn/T//ccgYd7pL.s 			page 11


 102 0042 002A     		cmp	r2, #0
 103 0044 5EDD     		ble	.L31
 104              		.loc 1 466 7 view .LVU23
 105 0046 431C     		adds	r3, r0, #1
 106 0048 4344     		add	r3, r3, r8
 107 004a 08EB0901 		add	r1, r8, r9
 108              	.L8:
 109              	.LVL7:
 467:Drivers/lvgl/src/extra/widgets/spinbox/lv_spinbox.c ****         for(i = (uint16_t)strlen(digits); i >= 0; i--) {
 468:Drivers/lvgl/src/extra/widgets/spinbox/lv_spinbox.c ****             digits[i + lz_cnt] = digits[i];
 110              		.loc 1 468 13 is_stmt 1 view .LVU24
 111              		.loc 1 468 40 is_stmt 0 view .LVU25
 112 004e 13F8010D 		ldrb	r0, [r3, #-1]!	@ zero_extendqisi2
 113              	.LVL8:
 114              		.loc 1 468 32 view .LVU26
 115 0052 01F80109 		strb	r0, [r1], #-1
 467:Drivers/lvgl/src/extra/widgets/spinbox/lv_spinbox.c ****         for(i = (uint16_t)strlen(digits); i >= 0; i--) {
 116              		.loc 1 467 52 is_stmt 1 discriminator 3 view .LVU27
 117              	.LVL9:
 467:Drivers/lvgl/src/extra/widgets/spinbox/lv_spinbox.c ****         for(i = (uint16_t)strlen(digits); i >= 0; i--) {
 118              		.loc 1 467 45 discriminator 1 view .LVU28
 119 0056 4345     		cmp	r3, r8
 120 0058 F9D1     		bne	.L8
 469:Drivers/lvgl/src/extra/widgets/spinbox/lv_spinbox.c ****         }
 470:Drivers/lvgl/src/extra/widgets/spinbox/lv_spinbox.c ****         for(i = 0; i < lz_cnt; i++) {
 471:Drivers/lvgl/src/extra/widgets/spinbox/lv_spinbox.c ****             digits[i] = '0';
 121              		.loc 1 471 23 is_stmt 0 view .LVU29
 122 005a 3021     		movs	r1, #48
 123 005c 4046     		mov	r0, r8
 124 005e FFF7FEFF 		bl	memset
 125              	.LVL10:
 472:Drivers/lvgl/src/extra/widgets/spinbox/lv_spinbox.c ****         }
 473:Drivers/lvgl/src/extra/widgets/spinbox/lv_spinbox.c ****     }
 474:Drivers/lvgl/src/extra/widgets/spinbox/lv_spinbox.c **** 
 475:Drivers/lvgl/src/extra/widgets/spinbox/lv_spinbox.c ****     int32_t intDigits;
 126              		.loc 1 475 5 is_stmt 1 view .LVU30
 476:Drivers/lvgl/src/extra/widgets/spinbox/lv_spinbox.c ****     intDigits = (spinbox->dec_point_pos == 0) ? spinbox->digit_count : spinbox->dec_point_pos;
 127              		.loc 1 476 5 view .LVU31
 128              		.loc 1 476 41 is_stmt 0 view .LVU32
 129 0062 94F874A0 		ldrb	r10, [r4, #116]	@ zero_extendqisi2
 130              		.loc 1 476 70 view .LVU33
 131 0066 BAF10F0F 		cmp	r10, #15
 132 006a 30D8     		bhi	.L7
 133              		.loc 1 476 70 discriminator 1 view .LVU34
 134 006c 4E46     		mov	r6, r9
 135              	.L9:
 136              		.loc 1 476 70 discriminator 1 view .LVU35
 137 006e 4146     		mov	r1, r8
 477:Drivers/lvgl/src/extra/widgets/spinbox/lv_spinbox.c **** 
 478:Drivers/lvgl/src/extra/widgets/spinbox/lv_spinbox.c ****     /*Add the decimal part*/
 479:Drivers/lvgl/src/extra/widgets/spinbox/lv_spinbox.c ****     for(i = 0; i < intDigits && digits[i] != '\0'; i++) {
 138              		.loc 1 479 11 view .LVU36
 139 0070 0023     		movs	r3, #0
 140 0072 04E0     		b	.L12
 141              	.LVL11:
 142              	.L14:
 143              		.loc 1 479 53 discriminator 4 view .LVU37
ARM GAS  /var/folders/lp/x54gwt890xv47sdkqj1k04q40000gn/T//ccgYd7pL.s 			page 12


 144 0074 0133     		adds	r3, r3, #1
 145              	.LVL12:
 146              		.loc 1 479 30 discriminator 1 view .LVU38
 147 0076 B342     		cmp	r3, r6
 480:Drivers/lvgl/src/extra/widgets/spinbox/lv_spinbox.c ****         (*buf_p) = digits[i];
 148              		.loc 1 480 18 view .LVU39
 149 0078 07F8012B 		strb	r2, [r7], #1
 150              	.LVL13:
 481:Drivers/lvgl/src/extra/widgets/spinbox/lv_spinbox.c ****         buf_p++;
 151              		.loc 1 481 9 is_stmt 1 view .LVU40
 479:Drivers/lvgl/src/extra/widgets/spinbox/lv_spinbox.c ****         (*buf_p) = digits[i];
 152              		.loc 1 479 53 discriminator 4 view .LVU41
 479:Drivers/lvgl/src/extra/widgets/spinbox/lv_spinbox.c ****         (*buf_p) = digits[i];
 153              		.loc 1 479 30 discriminator 1 view .LVU42
 154 007c 03DA     		bge	.L13
 155              	.LVL14:
 156              	.L12:
 480:Drivers/lvgl/src/extra/widgets/spinbox/lv_spinbox.c ****         (*buf_p) = digits[i];
 157              		.loc 1 480 9 view .LVU43
 479:Drivers/lvgl/src/extra/widgets/spinbox/lv_spinbox.c ****         (*buf_p) = digits[i];
 158              		.loc 1 479 39 is_stmt 0 discriminator 3 view .LVU44
 159 007e 11F8012B 		ldrb	r2, [r1], #1	@ zero_extendqisi2
 479:Drivers/lvgl/src/extra/widgets/spinbox/lv_spinbox.c ****         (*buf_p) = digits[i];
 160              		.loc 1 479 30 discriminator 3 view .LVU45
 161 0082 002A     		cmp	r2, #0
 162 0084 F6D1     		bne	.L14
 163              	.L13:
 482:Drivers/lvgl/src/extra/widgets/spinbox/lv_spinbox.c ****     }
 483:Drivers/lvgl/src/extra/widgets/spinbox/lv_spinbox.c **** 
 484:Drivers/lvgl/src/extra/widgets/spinbox/lv_spinbox.c ****     if(spinbox->dec_point_pos != 0) {
 164              		.loc 1 484 5 is_stmt 1 view .LVU46
 165              		.loc 1 484 7 is_stmt 0 view .LVU47
 166 0086 BAF10F0F 		cmp	r10, #15
 167 008a 24D8     		bhi	.L11
 168              	.LVL15:
 169              	.L10:
 485:Drivers/lvgl/src/extra/widgets/spinbox/lv_spinbox.c ****         /*Insert the decimal point*/
 486:Drivers/lvgl/src/extra/widgets/spinbox/lv_spinbox.c ****         (*buf_p) = '.';
 487:Drivers/lvgl/src/extra/widgets/spinbox/lv_spinbox.c ****         buf_p++;
 488:Drivers/lvgl/src/extra/widgets/spinbox/lv_spinbox.c **** 
 489:Drivers/lvgl/src/extra/widgets/spinbox/lv_spinbox.c ****         for(/*Leave i*/; i < spinbox->digit_count && digits[i] != '\0'; i++) {
 490:Drivers/lvgl/src/extra/widgets/spinbox/lv_spinbox.c ****             (*buf_p) = digits[i];
 491:Drivers/lvgl/src/extra/widgets/spinbox/lv_spinbox.c ****             buf_p++;
 492:Drivers/lvgl/src/extra/widgets/spinbox/lv_spinbox.c ****         }
 493:Drivers/lvgl/src/extra/widgets/spinbox/lv_spinbox.c ****     }
 494:Drivers/lvgl/src/extra/widgets/spinbox/lv_spinbox.c **** 
 495:Drivers/lvgl/src/extra/widgets/spinbox/lv_spinbox.c ****     /*Refresh the text*/
 496:Drivers/lvgl/src/extra/widgets/spinbox/lv_spinbox.c ****     lv_textarea_set_text(obj, (char *)buf);
 170              		.loc 1 496 5 is_stmt 1 view .LVU48
 171 008c 05A9     		add	r1, sp, #20
 172 008e 2046     		mov	r0, r4
 173 0090 FFF7FEFF 		bl	lv_textarea_set_text
 174              	.LVL16:
 497:Drivers/lvgl/src/extra/widgets/spinbox/lv_spinbox.c **** 
 498:Drivers/lvgl/src/extra/widgets/spinbox/lv_spinbox.c ****     /*Set the cursor position*/
 499:Drivers/lvgl/src/extra/widgets/spinbox/lv_spinbox.c ****     int32_t step    = spinbox->step;
 175              		.loc 1 499 5 view .LVU49
ARM GAS  /var/folders/lp/x54gwt890xv47sdkqj1k04q40000gn/T//ccgYd7pL.s 			page 13


 176              		.loc 1 499 13 is_stmt 0 view .LVU50
 177 0094 236F     		ldr	r3, [r4, #112]
 178              	.LVL17:
 500:Drivers/lvgl/src/extra/widgets/spinbox/lv_spinbox.c ****     uint8_t cur_pos = (uint8_t)spinbox->digit_count;
 179              		.loc 1 500 5 is_stmt 1 view .LVU51
 180              		.loc 1 500 39 is_stmt 0 view .LVU52
 181 0096 94F87410 		ldrb	r1, [r4, #116]	@ zero_extendqisi2
 501:Drivers/lvgl/src/extra/widgets/spinbox/lv_spinbox.c ****     while(step >= 10) {
 182              		.loc 1 501 16 view .LVU53
 183 009a 092B     		cmp	r3, #9
 500:Drivers/lvgl/src/extra/widgets/spinbox/lv_spinbox.c ****     uint8_t cur_pos = (uint8_t)spinbox->digit_count;
 184              		.loc 1 500 13 view .LVU54
 185 009c 01F00F01 		and	r1, r1, #15
 186              	.LVL18:
 187              		.loc 1 501 5 is_stmt 1 view .LVU55
 188              		.loc 1 501 16 view .LVU56
 189 00a0 09DD     		ble	.L18
 502:Drivers/lvgl/src/extra/widgets/spinbox/lv_spinbox.c ****         step /= 10;
 190              		.loc 1 502 14 is_stmt 0 view .LVU57
 191 00a2 2248     		ldr	r0, .L32+4
 192              	.LVL19:
 193              	.L19:
 194              		.loc 1 502 9 is_stmt 1 view .LVU58
 195 00a4 1A46     		mov	r2, r3
 503:Drivers/lvgl/src/extra/widgets/spinbox/lv_spinbox.c ****         cur_pos--;
 196              		.loc 1 503 16 is_stmt 0 view .LVU59
 197 00a6 0139     		subs	r1, r1, #1
 198              	.LVL20:
 502:Drivers/lvgl/src/extra/widgets/spinbox/lv_spinbox.c ****         step /= 10;
 199              		.loc 1 502 14 view .LVU60
 200 00a8 A0FB0373 		umull	r7, r3, r0, r3
 201              	.LVL21:
 501:Drivers/lvgl/src/extra/widgets/spinbox/lv_spinbox.c ****     while(step >= 10) {
 202              		.loc 1 501 16 view .LVU61
 203 00ac 632A     		cmp	r2, #99
 502:Drivers/lvgl/src/extra/widgets/spinbox/lv_spinbox.c ****         step /= 10;
 204              		.loc 1 502 14 view .LVU62
 205 00ae 4FEAD303 		lsr	r3, r3, #3
 206              	.LVL22:
 207              		.loc 1 503 9 is_stmt 1 view .LVU63
 208              		.loc 1 503 16 is_stmt 0 view .LVU64
 209 00b2 C9B2     		uxtb	r1, r1
 210              	.LVL23:
 501:Drivers/lvgl/src/extra/widgets/spinbox/lv_spinbox.c ****     while(step >= 10) {
 211              		.loc 1 501 16 is_stmt 1 view .LVU65
 212 00b4 F6DC     		bgt	.L19
 213              	.LVL24:
 214              	.L18:
 504:Drivers/lvgl/src/extra/widgets/spinbox/lv_spinbox.c ****     }
 505:Drivers/lvgl/src/extra/widgets/spinbox/lv_spinbox.c **** 
 506:Drivers/lvgl/src/extra/widgets/spinbox/lv_spinbox.c ****     if(cur_pos > intDigits) cur_pos++; /*Skip the decimal point*/
 215              		.loc 1 506 5 view .LVU66
 216              		.loc 1 506 7 is_stmt 0 view .LVU67
 217 00b6 B142     		cmp	r1, r6
 218              		.loc 1 506 29 is_stmt 1 discriminator 1 view .LVU68
 219              		.loc 1 506 36 is_stmt 0 discriminator 1 view .LVU69
 220 00b8 C4BF     		itt	gt
ARM GAS  /var/folders/lp/x54gwt890xv47sdkqj1k04q40000gn/T//ccgYd7pL.s 			page 14


 221 00ba 0131     		addgt	r1, r1, #1
 222 00bc C9B2     		uxtbgt	r1, r1
 223              	.LVL25:
 507:Drivers/lvgl/src/extra/widgets/spinbox/lv_spinbox.c **** 
 508:Drivers/lvgl/src/extra/widgets/spinbox/lv_spinbox.c ****     cur_pos -= cur_shift_left;
 224              		.loc 1 508 5 is_stmt 1 view .LVU70
 509:Drivers/lvgl/src/extra/widgets/spinbox/lv_spinbox.c **** 
 510:Drivers/lvgl/src/extra/widgets/spinbox/lv_spinbox.c ****     lv_textarea_set_cursor_pos(obj, cur_pos);
 225              		.loc 1 510 5 view .LVU71
 508:Drivers/lvgl/src/extra/widgets/spinbox/lv_spinbox.c **** 
 226              		.loc 1 508 13 is_stmt 0 view .LVU72
 227 00be 491B     		subs	r1, r1, r5
 228              	.LVL26:
 229              		.loc 1 510 5 view .LVU73
 230 00c0 C9B2     		uxtb	r1, r1
 231 00c2 2046     		mov	r0, r4
 232 00c4 FFF7FEFF 		bl	lv_textarea_set_cursor_pos
 233              	.LVL27:
 511:Drivers/lvgl/src/extra/widgets/spinbox/lv_spinbox.c **** }
 234              		.loc 1 511 1 view .LVU74
 235 00c8 0AB0     		add	sp, sp, #40
 236              		.cfi_remember_state
 237              		.cfi_def_cfa_offset 32
 238              		@ sp needed
 239 00ca BDE8F087 		pop	{r4, r5, r6, r7, r8, r9, r10, pc}
 240              	.LVL28:
 241              	.L7:
 242              		.cfi_restore_state
 479:Drivers/lvgl/src/extra/widgets/spinbox/lv_spinbox.c ****         (*buf_p) = digits[i];
 243              		.loc 1 479 5 is_stmt 1 view .LVU75
 479:Drivers/lvgl/src/extra/widgets/spinbox/lv_spinbox.c ****         (*buf_p) = digits[i];
 244              		.loc 1 479 30 discriminator 1 view .LVU76
 245 00ce 5FEA1A16 		lsrs	r6, r10, #4
 246              	.LVL29:
 479:Drivers/lvgl/src/extra/widgets/spinbox/lv_spinbox.c ****         (*buf_p) = digits[i];
 247              		.loc 1 479 30 is_stmt 0 discriminator 1 view .LVU77
 248 00d2 CCD1     		bne	.L9
 479:Drivers/lvgl/src/extra/widgets/spinbox/lv_spinbox.c ****         (*buf_p) = digits[i];
 249              		.loc 1 479 11 view .LVU78
 250 00d4 3346     		mov	r3, r6
 251              	.LVL30:
 252              	.L11:
 486:Drivers/lvgl/src/extra/widgets/spinbox/lv_spinbox.c ****         buf_p++;
 253              		.loc 1 486 9 is_stmt 1 view .LVU79
 486:Drivers/lvgl/src/extra/widgets/spinbox/lv_spinbox.c ****         buf_p++;
 254              		.loc 1 486 18 is_stmt 0 view .LVU80
 255 00d6 3A46     		mov	r2, r7
 256 00d8 2E21     		movs	r1, #46
 489:Drivers/lvgl/src/extra/widgets/spinbox/lv_spinbox.c ****             (*buf_p) = digits[i];
 257              		.loc 1 489 51 discriminator 1 view .LVU81
 258 00da 9945     		cmp	r9, r3
 486:Drivers/lvgl/src/extra/widgets/spinbox/lv_spinbox.c ****         buf_p++;
 259              		.loc 1 486 18 view .LVU82
 260 00dc 02F8011B 		strb	r1, [r2], #1
 487:Drivers/lvgl/src/extra/widgets/spinbox/lv_spinbox.c **** 
 261              		.loc 1 487 9 is_stmt 1 view .LVU83
 262              	.LVL31:
ARM GAS  /var/folders/lp/x54gwt890xv47sdkqj1k04q40000gn/T//ccgYd7pL.s 			page 15


 489:Drivers/lvgl/src/extra/widgets/spinbox/lv_spinbox.c ****             (*buf_p) = digits[i];
 263              		.loc 1 489 9 view .LVU84
 489:Drivers/lvgl/src/extra/widgets/spinbox/lv_spinbox.c ****             (*buf_p) = digits[i];
 264              		.loc 1 489 51 discriminator 1 view .LVU85
 265 00e0 D4DD     		ble	.L10
 266 00e2 09F10109 		add	r9, r9, #1
 489:Drivers/lvgl/src/extra/widgets/spinbox/lv_spinbox.c ****             (*buf_p) = digits[i];
 267              		.loc 1 489 51 is_stmt 0 discriminator 1 view .LVU86
 268 00e6 A9EB0309 		sub	r9, r9, r3
 489:Drivers/lvgl/src/extra/widgets/spinbox/lv_spinbox.c ****             (*buf_p) = digits[i];
 269              		.loc 1 489 51 discriminator 1 view .LVU87
 270 00ea 013B     		subs	r3, r3, #1
 271              	.LVL32:
 489:Drivers/lvgl/src/extra/widgets/spinbox/lv_spinbox.c ****             (*buf_p) = digits[i];
 272              		.loc 1 489 51 discriminator 1 view .LVU88
 273 00ec 4F44     		add	r7, r7, r9
 274 00ee 9844     		add	r8, r8, r3
 275 00f0 03E0     		b	.L16
 276              	.LVL33:
 277              	.L17:
 490:Drivers/lvgl/src/extra/widgets/spinbox/lv_spinbox.c ****             buf_p++;
 278              		.loc 1 490 22 view .LVU89
 279 00f2 02F8013B 		strb	r3, [r2], #1
 280              	.LVL34:
 491:Drivers/lvgl/src/extra/widgets/spinbox/lv_spinbox.c ****         }
 281              		.loc 1 491 13 is_stmt 1 view .LVU90
 489:Drivers/lvgl/src/extra/widgets/spinbox/lv_spinbox.c ****             (*buf_p) = digits[i];
 282              		.loc 1 489 74 discriminator 3 view .LVU91
 489:Drivers/lvgl/src/extra/widgets/spinbox/lv_spinbox.c ****             (*buf_p) = digits[i];
 283              		.loc 1 489 51 discriminator 1 view .LVU92
 284 00f6 BA42     		cmp	r2, r7
 285 00f8 C8D0     		beq	.L10
 286              	.LVL35:
 287              	.L16:
 490:Drivers/lvgl/src/extra/widgets/spinbox/lv_spinbox.c ****             buf_p++;
 288              		.loc 1 490 13 view .LVU93
 489:Drivers/lvgl/src/extra/widgets/spinbox/lv_spinbox.c ****             (*buf_p) = digits[i];
 289              		.loc 1 489 60 is_stmt 0 discriminator 2 view .LVU94
 290 00fa 18F8013F 		ldrb	r3, [r8, #1]!	@ zero_extendqisi2
 291              	.LVL36:
 489:Drivers/lvgl/src/extra/widgets/spinbox/lv_spinbox.c ****             (*buf_p) = digits[i];
 292              		.loc 1 489 51 discriminator 2 view .LVU95
 293 00fe 002B     		cmp	r3, #0
 294 0100 F7D1     		bne	.L17
 489:Drivers/lvgl/src/extra/widgets/spinbox/lv_spinbox.c ****             (*buf_p) = digits[i];
 295              		.loc 1 489 51 discriminator 2 view .LVU96
 296 0102 C3E7     		b	.L10
 297              	.LVL37:
 298              	.L31:
 475:Drivers/lvgl/src/extra/widgets/spinbox/lv_spinbox.c ****     intDigits = (spinbox->dec_point_pos == 0) ? spinbox->digit_count : spinbox->dec_point_pos;
 299              		.loc 1 475 5 is_stmt 1 view .LVU97
 476:Drivers/lvgl/src/extra/widgets/spinbox/lv_spinbox.c **** 
 300              		.loc 1 476 5 view .LVU98
 476:Drivers/lvgl/src/extra/widgets/spinbox/lv_spinbox.c **** 
 301              		.loc 1 476 70 is_stmt 0 view .LVU99
 302 0104 BAF10F0F 		cmp	r10, #15
 303 0108 E1D8     		bhi	.L7
ARM GAS  /var/folders/lp/x54gwt890xv47sdkqj1k04q40000gn/T//ccgYd7pL.s 			page 16


 304              	.LVL38:
 479:Drivers/lvgl/src/extra/widgets/spinbox/lv_spinbox.c ****         (*buf_p) = digits[i];
 305              		.loc 1 479 5 is_stmt 1 view .LVU100
 479:Drivers/lvgl/src/extra/widgets/spinbox/lv_spinbox.c ****         (*buf_p) = digits[i];
 306              		.loc 1 479 30 discriminator 1 view .LVU101
 476:Drivers/lvgl/src/extra/widgets/spinbox/lv_spinbox.c **** 
 307              		.loc 1 476 70 is_stmt 0 discriminator 1 view .LVU102
 308 010a 4E46     		mov	r6, r9
 479:Drivers/lvgl/src/extra/widgets/spinbox/lv_spinbox.c ****         (*buf_p) = digits[i];
 309              		.loc 1 479 30 discriminator 1 view .LVU103
 310 010c B9F1000F 		cmp	r9, #0
 311 0110 ADD1     		bne	.L9
 312              	.LVL39:
 479:Drivers/lvgl/src/extra/widgets/spinbox/lv_spinbox.c ****         (*buf_p) = digits[i];
 313              		.loc 1 479 30 discriminator 1 view .LVU104
 314 0112 BBE7     		b	.L10
 315              	.LVL40:
 316              	.L2:
 451:Drivers/lvgl/src/extra/widgets/spinbox/lv_spinbox.c ****         buf_p++;
 317              		.loc 1 451 9 is_stmt 1 view .LVU105
 447:Drivers/lvgl/src/extra/widgets/spinbox/lv_spinbox.c **** 
 318              		.loc 1 447 13 is_stmt 0 view .LVU106
 319 0114 0025     		movs	r5, #0
 451:Drivers/lvgl/src/extra/widgets/spinbox/lv_spinbox.c ****         buf_p++;
 320              		.loc 1 451 18 discriminator 1 view .LVU107
 321 0116 AB42     		cmp	r3, r5
 322 0118 B4BF     		ite	lt
 323 011a 2D22     		movlt	r2, #45
 324 011c 2B22     		movge	r2, #43
 451:Drivers/lvgl/src/extra/widgets/spinbox/lv_spinbox.c ****         buf_p++;
 325              		.loc 1 451 18 discriminator 4 view .LVU108
 326 011e 8DF81420 		strb	r2, [sp, #20]
 452:Drivers/lvgl/src/extra/widgets/spinbox/lv_spinbox.c ****     }
 327              		.loc 1 452 9 is_stmt 1 view .LVU109
 328              	.LVL41:
 452:Drivers/lvgl/src/extra/widgets/spinbox/lv_spinbox.c ****     }
 329              		.loc 1 452 14 is_stmt 0 view .LVU110
 330 0122 0DF11507 		add	r7, sp, #21
 331              	.LVL42:
 452:Drivers/lvgl/src/extra/widgets/spinbox/lv_spinbox.c ****     }
 332              		.loc 1 452 14 view .LVU111
 333 0126 79E7     		b	.L3
 334              	.L33:
 335              		.align	2
 336              	.L32:
 337 0128 00000000 		.word	.LC0
 338 012c CDCCCCCC 		.word	-858993459
 339              		.cfi_endproc
 340              	.LFE221:
 342              		.section	.text.lv_spinbox_constructor,"ax",%progbits
 343              		.align	1
 344              		.p2align 2,,3
 345              		.syntax unified
 346              		.thumb
 347              		.thumb_func
 349              	lv_spinbox_constructor:
 350              	.LVL43:
ARM GAS  /var/folders/lp/x54gwt890xv47sdkqj1k04q40000gn/T//ccgYd7pL.s 			page 17


 351              	.LFB219:
 321:Drivers/lvgl/src/extra/widgets/spinbox/lv_spinbox.c ****     LV_UNUSED(class_p);
 352              		.loc 1 321 1 is_stmt 1 view -0
 353              		.cfi_startproc
 354              		@ args = 0, pretend = 0, frame = 0
 355              		@ frame_needed = 0, uses_anonymous_args = 0
 322:Drivers/lvgl/src/extra/widgets/spinbox/lv_spinbox.c ****     LV_LOG_TRACE("begin");
 356              		.loc 1 322 5 view .LVU113
 323:Drivers/lvgl/src/extra/widgets/spinbox/lv_spinbox.c **** 
 357              		.loc 1 323 5 view .LVU114
 323:Drivers/lvgl/src/extra/widgets/spinbox/lv_spinbox.c **** 
 358              		.loc 1 323 5 view .LVU115
 323:Drivers/lvgl/src/extra/widgets/spinbox/lv_spinbox.c **** 
 359              		.loc 1 323 5 view .LVU116
 325:Drivers/lvgl/src/extra/widgets/spinbox/lv_spinbox.c **** 
 360              		.loc 1 325 5 view .LVU117
 321:Drivers/lvgl/src/extra/widgets/spinbox/lv_spinbox.c ****     LV_UNUSED(class_p);
 361              		.loc 1 321 1 is_stmt 0 view .LVU118
 362 0000 38B5     		push	{r3, r4, r5, lr}
 363              		.cfi_def_cfa_offset 16
 364              		.cfi_offset 3, -16
 365              		.cfi_offset 4, -12
 366              		.cfi_offset 5, -8
 367              		.cfi_offset 14, -4
 330:Drivers/lvgl/src/extra/widgets/spinbox/lv_spinbox.c ****     spinbox->step               = 1;
 368              		.loc 1 330 33 view .LVU119
 369 0002 B1F87430 		ldrh	r3, [r1, #116]
 332:Drivers/lvgl/src/extra/widgets/spinbox/lv_spinbox.c ****     spinbox->range_min          = -99999;
 370              		.loc 1 332 33 view .LVU120
 371 0006 0F4A     		ldr	r2, .L36
 330:Drivers/lvgl/src/extra/widgets/spinbox/lv_spinbox.c ****     spinbox->step               = 1;
 372              		.loc 1 330 33 view .LVU121
 373 0008 6FF30A03 		bfc	r3, #0, #11
 321:Drivers/lvgl/src/extra/widgets/spinbox/lv_spinbox.c ****     LV_UNUSED(class_p);
 374              		.loc 1 321 1 view .LVU122
 375 000c 0C46     		mov	r4, r1
 376              	.LVL44:
 328:Drivers/lvgl/src/extra/widgets/spinbox/lv_spinbox.c ****     spinbox->dec_point_pos      = 0;
 377              		.loc 1 328 5 is_stmt 1 view .LVU123
 329:Drivers/lvgl/src/extra/widgets/spinbox/lv_spinbox.c ****     spinbox->digit_count        = 5;
 378              		.loc 1 329 5 view .LVU124
 330:Drivers/lvgl/src/extra/widgets/spinbox/lv_spinbox.c ****     spinbox->step               = 1;
 379              		.loc 1 330 5 view .LVU125
 331:Drivers/lvgl/src/extra/widgets/spinbox/lv_spinbox.c ****     spinbox->range_max          = 99999;
 380              		.loc 1 331 5 view .LVU126
 332:Drivers/lvgl/src/extra/widgets/spinbox/lv_spinbox.c ****     spinbox->range_min          = -99999;
 381              		.loc 1 332 5 view .LVU127
 333:Drivers/lvgl/src/extra/widgets/spinbox/lv_spinbox.c ****     spinbox->rollover           = false;
 382              		.loc 1 333 5 view .LVU128
 334:Drivers/lvgl/src/extra/widgets/spinbox/lv_spinbox.c ****     spinbox->digit_step_dir     = LV_DIR_RIGHT;
 383              		.loc 1 334 5 view .LVU129
 335:Drivers/lvgl/src/extra/widgets/spinbox/lv_spinbox.c **** 
 384              		.loc 1 335 5 view .LVU130
 330:Drivers/lvgl/src/extra/widgets/spinbox/lv_spinbox.c ****     spinbox->step               = 1;
 385              		.loc 1 330 33 is_stmt 0 view .LVU131
 386 000e 43F48063 		orr	r3, r3, #1024
 332:Drivers/lvgl/src/extra/widgets/spinbox/lv_spinbox.c ****     spinbox->range_min          = -99999;
ARM GAS  /var/folders/lp/x54gwt890xv47sdkqj1k04q40000gn/T//ccgYd7pL.s 			page 18


 387              		.loc 1 332 33 view .LVU132
 388 0012 0D49     		ldr	r1, .L36+4
 389              	.LVL45:
 331:Drivers/lvgl/src/extra/widgets/spinbox/lv_spinbox.c ****     spinbox->range_max          = 99999;
 390              		.loc 1 331 33 view .LVU133
 391 0014 0125     		movs	r5, #1
 330:Drivers/lvgl/src/extra/widgets/spinbox/lv_spinbox.c ****     spinbox->step               = 1;
 392              		.loc 1 330 33 view .LVU134
 393 0016 43F00503 		orr	r3, r3, #5
 328:Drivers/lvgl/src/extra/widgets/spinbox/lv_spinbox.c ****     spinbox->dec_point_pos      = 0;
 394              		.loc 1 328 33 view .LVU135
 395 001a 0020     		movs	r0, #0
 396              	.LVL46:
 332:Drivers/lvgl/src/extra/widgets/spinbox/lv_spinbox.c ****     spinbox->range_min          = -99999;
 397              		.loc 1 332 33 view .LVU136
 398 001c C4E91A12 		strd	r1, r2, [r4, #104]
 328:Drivers/lvgl/src/extra/widgets/spinbox/lv_spinbox.c ****     spinbox->dec_point_pos      = 0;
 399              		.loc 1 328 33 view .LVU137
 400 0020 6066     		str	r0, [r4, #100]
 330:Drivers/lvgl/src/extra/widgets/spinbox/lv_spinbox.c ****     spinbox->step               = 1;
 401              		.loc 1 330 33 view .LVU138
 402 0022 A4F87430 		strh	r3, [r4, #116]	@ movhi
 337:Drivers/lvgl/src/extra/widgets/spinbox/lv_spinbox.c ****     lv_textarea_set_cursor_click_pos(obj, true);
 403              		.loc 1 337 5 is_stmt 1 view .LVU139
 404 0026 2946     		mov	r1, r5
 405 0028 2046     		mov	r0, r4
 331:Drivers/lvgl/src/extra/widgets/spinbox/lv_spinbox.c ****     spinbox->range_max          = 99999;
 406              		.loc 1 331 33 is_stmt 0 view .LVU140
 407 002a 2567     		str	r5, [r4, #112]
 337:Drivers/lvgl/src/extra/widgets/spinbox/lv_spinbox.c ****     lv_textarea_set_cursor_click_pos(obj, true);
 408              		.loc 1 337 5 view .LVU141
 409 002c FFF7FEFF 		bl	lv_textarea_set_one_line
 410              	.LVL47:
 338:Drivers/lvgl/src/extra/widgets/spinbox/lv_spinbox.c **** 
 411              		.loc 1 338 5 is_stmt 1 view .LVU142
 412 0030 2046     		mov	r0, r4
 413 0032 2946     		mov	r1, r5
 414 0034 FFF7FEFF 		bl	lv_textarea_set_cursor_click_pos
 415              	.LVL48:
 340:Drivers/lvgl/src/extra/widgets/spinbox/lv_spinbox.c **** 
 416              		.loc 1 340 5 view .LVU143
 417 0038 2046     		mov	r0, r4
 343:Drivers/lvgl/src/extra/widgets/spinbox/lv_spinbox.c **** 
 418              		.loc 1 343 1 is_stmt 0 view .LVU144
 419 003a BDE83840 		pop	{r3, r4, r5, lr}
 420              		.cfi_restore 14
 421              		.cfi_restore 5
 422              		.cfi_restore 4
 423              		.cfi_restore 3
 424              		.cfi_def_cfa_offset 0
 425              	.LVL49:
 340:Drivers/lvgl/src/extra/widgets/spinbox/lv_spinbox.c **** 
 426              		.loc 1 340 5 view .LVU145
 427 003e FFF7FEBF 		b	lv_spinbox_updatevalue
 428              	.LVL50:
 429              	.L37:
 340:Drivers/lvgl/src/extra/widgets/spinbox/lv_spinbox.c **** 
ARM GAS  /var/folders/lp/x54gwt890xv47sdkqj1k04q40000gn/T//ccgYd7pL.s 			page 19


 430              		.loc 1 340 5 view .LVU146
 431 0042 00BF     		.align	2
 432              	.L36:
 433 0044 6179FEFF 		.word	-99999
 434 0048 9F860100 		.word	99999
 435              		.cfi_endproc
 436              	.LFE219:
 438              		.section	.text.lv_spinbox_create,"ax",%progbits
 439              		.align	1
 440              		.p2align 2,,3
 441              		.global	lv_spinbox_create
 442              		.syntax unified
 443              		.thumb
 444              		.thumb_func
 446              	lv_spinbox_create:
 447              	.LVL51:
 448              	.LFB204:
  51:Drivers/lvgl/src/extra/widgets/spinbox/lv_spinbox.c ****     LV_LOG_INFO("begin");
 449              		.loc 1 51 1 is_stmt 1 view -0
 450              		.cfi_startproc
 451              		@ args = 0, pretend = 0, frame = 0
 452              		@ frame_needed = 0, uses_anonymous_args = 0
  52:Drivers/lvgl/src/extra/widgets/spinbox/lv_spinbox.c ****     lv_obj_t * obj = lv_obj_class_create_obj(MY_CLASS, parent);
 453              		.loc 1 52 5 view .LVU148
  52:Drivers/lvgl/src/extra/widgets/spinbox/lv_spinbox.c ****     lv_obj_t * obj = lv_obj_class_create_obj(MY_CLASS, parent);
 454              		.loc 1 52 5 view .LVU149
  52:Drivers/lvgl/src/extra/widgets/spinbox/lv_spinbox.c ****     lv_obj_t * obj = lv_obj_class_create_obj(MY_CLASS, parent);
 455              		.loc 1 52 5 view .LVU150
  53:Drivers/lvgl/src/extra/widgets/spinbox/lv_spinbox.c ****     lv_obj_class_init_obj(obj);
 456              		.loc 1 53 5 view .LVU151
  51:Drivers/lvgl/src/extra/widgets/spinbox/lv_spinbox.c ****     LV_LOG_INFO("begin");
 457              		.loc 1 51 1 is_stmt 0 view .LVU152
 458 0000 10B5     		push	{r4, lr}
 459              		.cfi_def_cfa_offset 8
 460              		.cfi_offset 4, -8
 461              		.cfi_offset 14, -4
  51:Drivers/lvgl/src/extra/widgets/spinbox/lv_spinbox.c ****     LV_LOG_INFO("begin");
 462              		.loc 1 51 1 view .LVU153
 463 0002 0146     		mov	r1, r0
  53:Drivers/lvgl/src/extra/widgets/spinbox/lv_spinbox.c ****     lv_obj_class_init_obj(obj);
 464              		.loc 1 53 22 view .LVU154
 465 0004 0348     		ldr	r0, .L40
 466              	.LVL52:
  53:Drivers/lvgl/src/extra/widgets/spinbox/lv_spinbox.c ****     lv_obj_class_init_obj(obj);
 467              		.loc 1 53 22 view .LVU155
 468 0006 FFF7FEFF 		bl	lv_obj_class_create_obj
 469              	.LVL53:
  53:Drivers/lvgl/src/extra/widgets/spinbox/lv_spinbox.c ****     lv_obj_class_init_obj(obj);
 470              		.loc 1 53 22 view .LVU156
 471 000a 0446     		mov	r4, r0
 472              	.LVL54:
  54:Drivers/lvgl/src/extra/widgets/spinbox/lv_spinbox.c ****     return obj;
 473              		.loc 1 54 5 is_stmt 1 view .LVU157
 474 000c FFF7FEFF 		bl	lv_obj_class_init_obj
 475              	.LVL55:
  55:Drivers/lvgl/src/extra/widgets/spinbox/lv_spinbox.c **** }
 476              		.loc 1 55 5 view .LVU158
ARM GAS  /var/folders/lp/x54gwt890xv47sdkqj1k04q40000gn/T//ccgYd7pL.s 			page 20


  56:Drivers/lvgl/src/extra/widgets/spinbox/lv_spinbox.c **** 
 477              		.loc 1 56 1 is_stmt 0 view .LVU159
 478 0010 2046     		mov	r0, r4
 479 0012 10BD     		pop	{r4, pc}
 480              	.LVL56:
 481              	.L41:
  56:Drivers/lvgl/src/extra/widgets/spinbox/lv_spinbox.c **** 
 482              		.loc 1 56 1 view .LVU160
 483              		.align	2
 484              	.L40:
 485 0014 00000000 		.word	lv_spinbox_class
 486              		.cfi_endproc
 487              	.LFE204:
 489              		.section	.text.lv_spinbox_set_value,"ax",%progbits
 490              		.align	1
 491              		.p2align 2,,3
 492              		.global	lv_spinbox_set_value
 493              		.syntax unified
 494              		.thumb
 495              		.thumb_func
 497              	lv_spinbox_set_value:
 498              	.LVL57:
 499              	.LFB205:
  68:Drivers/lvgl/src/extra/widgets/spinbox/lv_spinbox.c ****     LV_ASSERT_OBJ(obj, MY_CLASS);
 500              		.loc 1 68 1 is_stmt 1 view -0
 501              		.cfi_startproc
 502              		@ args = 0, pretend = 0, frame = 0
 503              		@ frame_needed = 0, uses_anonymous_args = 0
 504              		@ link register save eliminated.
  69:Drivers/lvgl/src/extra/widgets/spinbox/lv_spinbox.c ****     lv_spinbox_t * spinbox = (lv_spinbox_t *)obj;
 505              		.loc 1 69 5 view .LVU162
  69:Drivers/lvgl/src/extra/widgets/spinbox/lv_spinbox.c ****     lv_spinbox_t * spinbox = (lv_spinbox_t *)obj;
 506              		.loc 1 69 5 view .LVU163
  69:Drivers/lvgl/src/extra/widgets/spinbox/lv_spinbox.c ****     lv_spinbox_t * spinbox = (lv_spinbox_t *)obj;
 507              		.loc 1 69 5 view .LVU164
  70:Drivers/lvgl/src/extra/widgets/spinbox/lv_spinbox.c **** 
 508              		.loc 1 70 5 view .LVU165
  72:Drivers/lvgl/src/extra/widgets/spinbox/lv_spinbox.c ****     if(i < spinbox->range_min) i = spinbox->range_min;
 509              		.loc 1 72 5 view .LVU166
  73:Drivers/lvgl/src/extra/widgets/spinbox/lv_spinbox.c **** 
 510              		.loc 1 73 5 view .LVU167
  75:Drivers/lvgl/src/extra/widgets/spinbox/lv_spinbox.c **** 
 511              		.loc 1 75 5 view .LVU168
  68:Drivers/lvgl/src/extra/widgets/spinbox/lv_spinbox.c ****     LV_ASSERT_OBJ(obj, MY_CLASS);
 512              		.loc 1 68 1 is_stmt 0 view .LVU169
 513 0000 10B4     		push	{r4}
 514              		.cfi_def_cfa_offset 4
 515              		.cfi_offset 4, -4
  72:Drivers/lvgl/src/extra/widgets/spinbox/lv_spinbox.c ****     if(i < spinbox->range_min) i = spinbox->range_min;
 516              		.loc 1 72 7 view .LVU170
 517 0002 D0E91A42 		ldrd	r4, r2, [r0, #104]
 518 0006 A142     		cmp	r1, r4
 519 0008 A8BF     		it	ge
 520 000a 2146     		movge	r1, r4
 521              	.LVL58:
  73:Drivers/lvgl/src/extra/widgets/spinbox/lv_spinbox.c **** 
 522              		.loc 1 73 7 view .LVU171
ARM GAS  /var/folders/lp/x54gwt890xv47sdkqj1k04q40000gn/T//ccgYd7pL.s 			page 21


 523 000c 9142     		cmp	r1, r2
 524 000e B8BF     		it	lt
 525 0010 1146     		movlt	r1, r2
  78:Drivers/lvgl/src/extra/widgets/spinbox/lv_spinbox.c **** 
 526              		.loc 1 78 1 view .LVU172
 527 0012 5DF8044B 		ldr	r4, [sp], #4
 528              		.cfi_restore 4
 529              		.cfi_def_cfa_offset 0
  75:Drivers/lvgl/src/extra/widgets/spinbox/lv_spinbox.c **** 
 530              		.loc 1 75 20 view .LVU173
 531 0016 4166     		str	r1, [r0, #100]
  77:Drivers/lvgl/src/extra/widgets/spinbox/lv_spinbox.c **** }
 532              		.loc 1 77 5 is_stmt 1 view .LVU174
 533 0018 FFF7FEBF 		b	lv_spinbox_updatevalue
 534              	.LVL59:
  77:Drivers/lvgl/src/extra/widgets/spinbox/lv_spinbox.c **** }
 535              		.loc 1 77 5 is_stmt 0 view .LVU175
 536              		.cfi_endproc
 537              	.LFE205:
 539              		.section	.text.lv_spinbox_set_rollover,"ax",%progbits
 540              		.align	1
 541              		.p2align 2,,3
 542              		.global	lv_spinbox_set_rollover
 543              		.syntax unified
 544              		.thumb
 545              		.thumb_func
 547              	lv_spinbox_set_rollover:
 548              	.LVL60:
 549              	.LFB206:
  86:Drivers/lvgl/src/extra/widgets/spinbox/lv_spinbox.c ****     LV_ASSERT_OBJ(obj, MY_CLASS);
 550              		.loc 1 86 1 is_stmt 1 view -0
 551              		.cfi_startproc
 552              		@ args = 0, pretend = 0, frame = 0
 553              		@ frame_needed = 0, uses_anonymous_args = 0
 554              		@ link register save eliminated.
  87:Drivers/lvgl/src/extra/widgets/spinbox/lv_spinbox.c ****     lv_spinbox_t * spinbox = (lv_spinbox_t *)obj;
 555              		.loc 1 87 5 view .LVU177
  87:Drivers/lvgl/src/extra/widgets/spinbox/lv_spinbox.c ****     lv_spinbox_t * spinbox = (lv_spinbox_t *)obj;
 556              		.loc 1 87 5 view .LVU178
  87:Drivers/lvgl/src/extra/widgets/spinbox/lv_spinbox.c ****     lv_spinbox_t * spinbox = (lv_spinbox_t *)obj;
 557              		.loc 1 87 5 view .LVU179
  88:Drivers/lvgl/src/extra/widgets/spinbox/lv_spinbox.c **** 
 558              		.loc 1 88 5 view .LVU180
  90:Drivers/lvgl/src/extra/widgets/spinbox/lv_spinbox.c **** }
 559              		.loc 1 90 5 view .LVU181
  90:Drivers/lvgl/src/extra/widgets/spinbox/lv_spinbox.c **** }
 560              		.loc 1 90 23 is_stmt 0 view .LVU182
 561 0000 90F87530 		ldrb	r3, [r0, #117]	@ zero_extendqisi2
 562 0004 61F30003 		bfi	r3, r1, #0, #1
 563              	.LVL61:
  90:Drivers/lvgl/src/extra/widgets/spinbox/lv_spinbox.c **** }
 564              		.loc 1 90 23 view .LVU183
 565 0008 80F87530 		strb	r3, [r0, #117]
  91:Drivers/lvgl/src/extra/widgets/spinbox/lv_spinbox.c **** 
 566              		.loc 1 91 1 view .LVU184
 567 000c 7047     		bx	lr
 568              		.cfi_endproc
ARM GAS  /var/folders/lp/x54gwt890xv47sdkqj1k04q40000gn/T//ccgYd7pL.s 			page 22


 569              	.LFE206:
 571 000e 00BF     		.section	.text.lv_spinbox_set_digit_format,"ax",%progbits
 572              		.align	1
 573              		.p2align 2,,3
 574              		.global	lv_spinbox_set_digit_format
 575              		.syntax unified
 576              		.thumb
 577              		.thumb_func
 579              	lv_spinbox_set_digit_format:
 580              	.LVL62:
 581              	.LFB207:
 101:Drivers/lvgl/src/extra/widgets/spinbox/lv_spinbox.c ****     LV_ASSERT_OBJ(obj, MY_CLASS);
 582              		.loc 1 101 1 is_stmt 1 view -0
 583              		.cfi_startproc
 584              		@ args = 0, pretend = 0, frame = 0
 585              		@ frame_needed = 0, uses_anonymous_args = 0
 102:Drivers/lvgl/src/extra/widgets/spinbox/lv_spinbox.c ****     lv_spinbox_t * spinbox = (lv_spinbox_t *)obj;
 586              		.loc 1 102 5 view .LVU186
 102:Drivers/lvgl/src/extra/widgets/spinbox/lv_spinbox.c ****     lv_spinbox_t * spinbox = (lv_spinbox_t *)obj;
 587              		.loc 1 102 5 view .LVU187
 102:Drivers/lvgl/src/extra/widgets/spinbox/lv_spinbox.c ****     lv_spinbox_t * spinbox = (lv_spinbox_t *)obj;
 588              		.loc 1 102 5 view .LVU188
 103:Drivers/lvgl/src/extra/widgets/spinbox/lv_spinbox.c **** 
 589              		.loc 1 103 5 view .LVU189
 105:Drivers/lvgl/src/extra/widgets/spinbox/lv_spinbox.c **** 
 590              		.loc 1 105 7 is_stmt 0 view .LVU190
 591 0000 0A29     		cmp	r1, #10
 101:Drivers/lvgl/src/extra/widgets/spinbox/lv_spinbox.c ****     LV_ASSERT_OBJ(obj, MY_CLASS);
 592              		.loc 1 101 1 view .LVU191
 593 0002 70B5     		push	{r4, r5, r6, lr}
 594              		.cfi_def_cfa_offset 16
 595              		.cfi_offset 4, -16
 596              		.cfi_offset 5, -12
 597              		.cfi_offset 6, -8
 598              		.cfi_offset 14, -4
 105:Drivers/lvgl/src/extra/widgets/spinbox/lv_spinbox.c **** 
 599              		.loc 1 105 7 view .LVU192
 600 0004 0D46     		mov	r5, r1
 601 0006 28BF     		it	cs
 602 0008 0A25     		movcs	r5, #10
 107:Drivers/lvgl/src/extra/widgets/spinbox/lv_spinbox.c **** 
 603              		.loc 1 107 7 view .LVU193
 604 000a 9542     		cmp	r5, r2
 605 000c 8CBF     		ite	hi
 606 000e 1646     		movhi	r6, r2
 607 0010 0026     		movls	r6, #0
 109:Drivers/lvgl/src/extra/widgets/spinbox/lv_spinbox.c ****         int64_t max_val = lv_pow(10, digit_count);
 608              		.loc 1 109 7 view .LVU194
 609 0012 0929     		cmp	r1, #9
 101:Drivers/lvgl/src/extra/widgets/spinbox/lv_spinbox.c ****     LV_ASSERT_OBJ(obj, MY_CLASS);
 610              		.loc 1 101 1 view .LVU195
 611 0014 0446     		mov	r4, r0
 612              	.LVL63:
 105:Drivers/lvgl/src/extra/widgets/spinbox/lv_spinbox.c **** 
 613              		.loc 1 105 5 is_stmt 1 view .LVU196
 107:Drivers/lvgl/src/extra/widgets/spinbox/lv_spinbox.c **** 
 614              		.loc 1 107 5 view .LVU197
ARM GAS  /var/folders/lp/x54gwt890xv47sdkqj1k04q40000gn/T//ccgYd7pL.s 			page 23


 109:Drivers/lvgl/src/extra/widgets/spinbox/lv_spinbox.c ****         int64_t max_val = lv_pow(10, digit_count);
 615              		.loc 1 109 5 view .LVU198
 109:Drivers/lvgl/src/extra/widgets/spinbox/lv_spinbox.c ****         int64_t max_val = lv_pow(10, digit_count);
 616              		.loc 1 109 7 is_stmt 0 view .LVU199
 617 0016 16D8     		bhi	.L48
 618              	.LBB5:
 110:Drivers/lvgl/src/extra/widgets/spinbox/lv_spinbox.c ****         if(spinbox->range_max > max_val - 1) spinbox->range_max = max_val - 1;
 619              		.loc 1 110 9 is_stmt 1 view .LVU200
 110:Drivers/lvgl/src/extra/widgets/spinbox/lv_spinbox.c ****         if(spinbox->range_max > max_val - 1) spinbox->range_max = max_val - 1;
 620              		.loc 1 110 27 is_stmt 0 view .LVU201
 621 0018 6AB2     		sxtb	r2, r5
 622 001a 0A20     		movs	r0, #10
 623              	.LVL64:
 110:Drivers/lvgl/src/extra/widgets/spinbox/lv_spinbox.c ****         if(spinbox->range_max > max_val - 1) spinbox->range_max = max_val - 1;
 624              		.loc 1 110 27 view .LVU202
 625 001c 0021     		movs	r1, #0
 626 001e FFF7FEFF 		bl	lv_pow
 627              	.LVL65:
 111:Drivers/lvgl/src/extra/widgets/spinbox/lv_spinbox.c ****         if(spinbox->range_min < - max_val  + 1) spinbox->range_min = - max_val  + 1;
 628              		.loc 1 111 9 is_stmt 1 view .LVU203
 111:Drivers/lvgl/src/extra/widgets/spinbox/lv_spinbox.c ****         if(spinbox->range_min < - max_val  + 1) spinbox->range_min = - max_val  + 1;
 629              		.loc 1 111 19 is_stmt 0 view .LVU204
 630 0022 A26E     		ldr	r2, [r4, #104]
 631 0024 D317     		asrs	r3, r2, #31
 111:Drivers/lvgl/src/extra/widgets/spinbox/lv_spinbox.c ****         if(spinbox->range_min < - max_val  + 1) spinbox->range_min = - max_val  + 1;
 632              		.loc 1 111 11 view .LVU205
 633 0026 8242     		cmp	r2, r0
 634 0028 8B41     		sbcs	r3, r3, r1
 111:Drivers/lvgl/src/extra/widgets/spinbox/lv_spinbox.c ****         if(spinbox->range_min < - max_val  + 1) spinbox->range_min = - max_val  + 1;
 635              		.loc 1 111 46 is_stmt 1 discriminator 1 view .LVU206
 112:Drivers/lvgl/src/extra/widgets/spinbox/lv_spinbox.c ****     }
 636              		.loc 1 112 19 is_stmt 0 view .LVU207
 637 002a E26E     		ldr	r2, [r4, #108]
 111:Drivers/lvgl/src/extra/widgets/spinbox/lv_spinbox.c ****         if(spinbox->range_min < - max_val  + 1) spinbox->range_min = - max_val  + 1;
 638              		.loc 1 111 75 discriminator 1 view .LVU208
 639 002c A4BF     		itt	ge
 640 002e 00F1FF33 		addge	r3, r0, #-1
 111:Drivers/lvgl/src/extra/widgets/spinbox/lv_spinbox.c ****         if(spinbox->range_min < - max_val  + 1) spinbox->range_min = - max_val  + 1;
 641              		.loc 1 111 65 discriminator 1 view .LVU209
 642 0032 A366     		strge	r3, [r4, #104]
 112:Drivers/lvgl/src/extra/widgets/spinbox/lv_spinbox.c ****     }
 643              		.loc 1 112 9 is_stmt 1 view .LVU210
 112:Drivers/lvgl/src/extra/widgets/spinbox/lv_spinbox.c ****     }
 644              		.loc 1 112 44 is_stmt 0 view .LVU211
 645 0034 D0F10100 		rsbs	r0, r0, #1
 646              	.LVL66:
 112:Drivers/lvgl/src/extra/widgets/spinbox/lv_spinbox.c ****     }
 647              		.loc 1 112 44 view .LVU212
 648 0038 61EB4101 		sbc	r1, r1, r1, lsl #1
 112:Drivers/lvgl/src/extra/widgets/spinbox/lv_spinbox.c ****     }
 649              		.loc 1 112 19 view .LVU213
 650 003c D317     		asrs	r3, r2, #31
 112:Drivers/lvgl/src/extra/widgets/spinbox/lv_spinbox.c ****     }
 651              		.loc 1 112 11 view .LVU214
 652 003e 8242     		cmp	r2, r0
 653 0040 8B41     		sbcs	r3, r3, r1
 112:Drivers/lvgl/src/extra/widgets/spinbox/lv_spinbox.c ****     }
ARM GAS  /var/folders/lp/x54gwt890xv47sdkqj1k04q40000gn/T//ccgYd7pL.s 			page 24


 654              		.loc 1 112 49 is_stmt 1 discriminator 1 view .LVU215
 112:Drivers/lvgl/src/extra/widgets/spinbox/lv_spinbox.c ****     }
 655              		.loc 1 112 68 is_stmt 0 discriminator 1 view .LVU216
 656 0042 B8BF     		it	lt
 657 0044 E066     		strlt	r0, [r4, #108]
 658              	.LVL67:
 659              	.L48:
 112:Drivers/lvgl/src/extra/widgets/spinbox/lv_spinbox.c ****     }
 660              		.loc 1 112 68 discriminator 1 view .LVU217
 661              	.LBE5:
 115:Drivers/lvgl/src/extra/widgets/spinbox/lv_spinbox.c ****     spinbox->dec_point_pos = separator_position;
 662              		.loc 1 115 5 is_stmt 1 view .LVU218
 116:Drivers/lvgl/src/extra/widgets/spinbox/lv_spinbox.c **** 
 663              		.loc 1 116 5 view .LVU219
 115:Drivers/lvgl/src/extra/widgets/spinbox/lv_spinbox.c ****     spinbox->dec_point_pos = separator_position;
 664              		.loc 1 115 28 is_stmt 0 view .LVU220
 665 0046 45EA0615 		orr	r5, r5, r6, lsl #4
 666              	.LVL68:
 115:Drivers/lvgl/src/extra/widgets/spinbox/lv_spinbox.c ****     spinbox->dec_point_pos = separator_position;
 667              		.loc 1 115 28 view .LVU221
 668 004a 84F87450 		strb	r5, [r4, #116]
 118:Drivers/lvgl/src/extra/widgets/spinbox/lv_spinbox.c **** }
 669              		.loc 1 118 5 is_stmt 1 view .LVU222
 670 004e 2046     		mov	r0, r4
 119:Drivers/lvgl/src/extra/widgets/spinbox/lv_spinbox.c **** 
 671              		.loc 1 119 1 is_stmt 0 view .LVU223
 672 0050 BDE87040 		pop	{r4, r5, r6, lr}
 673              		.cfi_restore 14
 674              		.cfi_restore 6
 675              		.cfi_restore 5
 676              		.cfi_restore 4
 677              		.cfi_def_cfa_offset 0
 678              	.LVL69:
 118:Drivers/lvgl/src/extra/widgets/spinbox/lv_spinbox.c **** }
 679              		.loc 1 118 5 view .LVU224
 680 0054 FFF7FEBF 		b	lv_spinbox_updatevalue
 681              	.LVL70:
 118:Drivers/lvgl/src/extra/widgets/spinbox/lv_spinbox.c **** }
 682              		.loc 1 118 5 view .LVU225
 683              		.cfi_endproc
 684              	.LFE207:
 686              		.section	.text.lv_spinbox_set_step,"ax",%progbits
 687              		.align	1
 688              		.p2align 2,,3
 689              		.global	lv_spinbox_set_step
 690              		.syntax unified
 691              		.thumb
 692              		.thumb_func
 694              	lv_spinbox_set_step:
 695              	.LVL71:
 696              	.LFB208:
 127:Drivers/lvgl/src/extra/widgets/spinbox/lv_spinbox.c ****     LV_ASSERT_OBJ(obj, MY_CLASS);
 697              		.loc 1 127 1 is_stmt 1 view -0
 698              		.cfi_startproc
 699              		@ args = 0, pretend = 0, frame = 0
 700              		@ frame_needed = 0, uses_anonymous_args = 0
 701              		@ link register save eliminated.
ARM GAS  /var/folders/lp/x54gwt890xv47sdkqj1k04q40000gn/T//ccgYd7pL.s 			page 25


 128:Drivers/lvgl/src/extra/widgets/spinbox/lv_spinbox.c ****     lv_spinbox_t * spinbox = (lv_spinbox_t *)obj;
 702              		.loc 1 128 5 view .LVU227
 128:Drivers/lvgl/src/extra/widgets/spinbox/lv_spinbox.c ****     lv_spinbox_t * spinbox = (lv_spinbox_t *)obj;
 703              		.loc 1 128 5 view .LVU228
 128:Drivers/lvgl/src/extra/widgets/spinbox/lv_spinbox.c ****     lv_spinbox_t * spinbox = (lv_spinbox_t *)obj;
 704              		.loc 1 128 5 view .LVU229
 129:Drivers/lvgl/src/extra/widgets/spinbox/lv_spinbox.c **** 
 705              		.loc 1 129 5 view .LVU230
 131:Drivers/lvgl/src/extra/widgets/spinbox/lv_spinbox.c ****     lv_spinbox_updatevalue(obj);
 706              		.loc 1 131 5 view .LVU231
 131:Drivers/lvgl/src/extra/widgets/spinbox/lv_spinbox.c ****     lv_spinbox_updatevalue(obj);
 707              		.loc 1 131 19 is_stmt 0 view .LVU232
 708 0000 0167     		str	r1, [r0, #112]
 132:Drivers/lvgl/src/extra/widgets/spinbox/lv_spinbox.c **** }
 709              		.loc 1 132 5 is_stmt 1 view .LVU233
 710 0002 FFF7FEBF 		b	lv_spinbox_updatevalue
 711              	.LVL72:
 132:Drivers/lvgl/src/extra/widgets/spinbox/lv_spinbox.c **** }
 712              		.loc 1 132 5 is_stmt 0 view .LVU234
 713              		.cfi_endproc
 714              	.LFE208:
 716 0006 00BF     		.section	.text.lv_spinbox_set_range,"ax",%progbits
 717              		.align	1
 718              		.p2align 2,,3
 719              		.global	lv_spinbox_set_range
 720              		.syntax unified
 721              		.thumb
 722              		.thumb_func
 724              	lv_spinbox_set_range:
 725              	.LVL73:
 726              	.LFB209:
 142:Drivers/lvgl/src/extra/widgets/spinbox/lv_spinbox.c ****     LV_ASSERT_OBJ(obj, MY_CLASS);
 727              		.loc 1 142 1 is_stmt 1 view -0
 728              		.cfi_startproc
 729              		@ args = 0, pretend = 0, frame = 0
 730              		@ frame_needed = 0, uses_anonymous_args = 0
 731              		@ link register save eliminated.
 143:Drivers/lvgl/src/extra/widgets/spinbox/lv_spinbox.c ****     lv_spinbox_t * spinbox = (lv_spinbox_t *)obj;
 732              		.loc 1 143 5 view .LVU236
 143:Drivers/lvgl/src/extra/widgets/spinbox/lv_spinbox.c ****     lv_spinbox_t * spinbox = (lv_spinbox_t *)obj;
 733              		.loc 1 143 5 view .LVU237
 143:Drivers/lvgl/src/extra/widgets/spinbox/lv_spinbox.c ****     lv_spinbox_t * spinbox = (lv_spinbox_t *)obj;
 734              		.loc 1 143 5 view .LVU238
 144:Drivers/lvgl/src/extra/widgets/spinbox/lv_spinbox.c **** 
 735              		.loc 1 144 5 view .LVU239
 146:Drivers/lvgl/src/extra/widgets/spinbox/lv_spinbox.c ****     spinbox->range_min = range_min;
 736              		.loc 1 146 5 view .LVU240
 149:Drivers/lvgl/src/extra/widgets/spinbox/lv_spinbox.c ****     if(spinbox->value < spinbox->range_min) spinbox->value = spinbox->range_min;
 737              		.loc 1 149 15 is_stmt 0 view .LVU241
 738 0000 436E     		ldr	r3, [r0, #100]
 149:Drivers/lvgl/src/extra/widgets/spinbox/lv_spinbox.c ****     if(spinbox->value < spinbox->range_min) spinbox->value = spinbox->range_min;
 739              		.loc 1 149 7 view .LVU242
 740 0002 9342     		cmp	r3, r2
 149:Drivers/lvgl/src/extra/widgets/spinbox/lv_spinbox.c ****     if(spinbox->value < spinbox->range_min) spinbox->value = spinbox->range_min;
 741              		.loc 1 149 60 discriminator 1 view .LVU243
 742 0004 C4BF     		itt	gt
 743 0006 1346     		movgt	r3, r2
ARM GAS  /var/folders/lp/x54gwt890xv47sdkqj1k04q40000gn/T//ccgYd7pL.s 			page 26


 744 0008 4266     		strgt	r2, [r0, #100]
 150:Drivers/lvgl/src/extra/widgets/spinbox/lv_spinbox.c **** 
 745              		.loc 1 150 7 view .LVU244
 746 000a 9942     		cmp	r1, r3
 147:Drivers/lvgl/src/extra/widgets/spinbox/lv_spinbox.c **** 
 747              		.loc 1 147 24 view .LVU245
 748 000c C0E91A21 		strd	r2, r1, [r0, #104]
 149:Drivers/lvgl/src/extra/widgets/spinbox/lv_spinbox.c ****     if(spinbox->value < spinbox->range_min) spinbox->value = spinbox->range_min;
 749              		.loc 1 149 5 is_stmt 1 view .LVU246
 149:Drivers/lvgl/src/extra/widgets/spinbox/lv_spinbox.c ****     if(spinbox->value < spinbox->range_min) spinbox->value = spinbox->range_min;
 750              		.loc 1 149 45 discriminator 1 view .LVU247
 150:Drivers/lvgl/src/extra/widgets/spinbox/lv_spinbox.c **** 
 751              		.loc 1 150 5 view .LVU248
 150:Drivers/lvgl/src/extra/widgets/spinbox/lv_spinbox.c **** 
 752              		.loc 1 150 45 discriminator 1 view .LVU249
 150:Drivers/lvgl/src/extra/widgets/spinbox/lv_spinbox.c **** 
 753              		.loc 1 150 60 is_stmt 0 discriminator 1 view .LVU250
 754 0010 C8BF     		it	gt
 755 0012 4166     		strgt	r1, [r0, #100]
 152:Drivers/lvgl/src/extra/widgets/spinbox/lv_spinbox.c **** }
 756              		.loc 1 152 5 is_stmt 1 view .LVU251
 757 0014 FFF7FEBF 		b	lv_spinbox_updatevalue
 758              	.LVL74:
 152:Drivers/lvgl/src/extra/widgets/spinbox/lv_spinbox.c **** }
 759              		.loc 1 152 5 is_stmt 0 view .LVU252
 760              		.cfi_endproc
 761              	.LFE209:
 763              		.section	.text.lv_spinbox_set_cursor_pos,"ax",%progbits
 764              		.align	1
 765              		.p2align 2,,3
 766              		.global	lv_spinbox_set_cursor_pos
 767              		.syntax unified
 768              		.thumb
 769              		.thumb_func
 771              	lv_spinbox_set_cursor_pos:
 772              	.LVL75:
 773              	.LFB210:
 161:Drivers/lvgl/src/extra/widgets/spinbox/lv_spinbox.c ****     LV_ASSERT_OBJ(obj, MY_CLASS);
 774              		.loc 1 161 1 is_stmt 1 view -0
 775              		.cfi_startproc
 776              		@ args = 0, pretend = 0, frame = 0
 777              		@ frame_needed = 0, uses_anonymous_args = 0
 162:Drivers/lvgl/src/extra/widgets/spinbox/lv_spinbox.c ****     lv_spinbox_t * spinbox = (lv_spinbox_t *)obj;
 778              		.loc 1 162 5 view .LVU254
 162:Drivers/lvgl/src/extra/widgets/spinbox/lv_spinbox.c ****     lv_spinbox_t * spinbox = (lv_spinbox_t *)obj;
 779              		.loc 1 162 5 view .LVU255
 162:Drivers/lvgl/src/extra/widgets/spinbox/lv_spinbox.c ****     lv_spinbox_t * spinbox = (lv_spinbox_t *)obj;
 780              		.loc 1 162 5 view .LVU256
 163:Drivers/lvgl/src/extra/widgets/spinbox/lv_spinbox.c ****     int32_t step_limit;
 781              		.loc 1 163 5 view .LVU257
 161:Drivers/lvgl/src/extra/widgets/spinbox/lv_spinbox.c ****     LV_ASSERT_OBJ(obj, MY_CLASS);
 782              		.loc 1 161 1 is_stmt 0 view .LVU258
 783 0000 2DE9F041 		push	{r4, r5, r6, r7, r8, lr}
 784              		.cfi_def_cfa_offset 24
 785              		.cfi_offset 4, -24
 786              		.cfi_offset 5, -20
 787              		.cfi_offset 6, -16
ARM GAS  /var/folders/lp/x54gwt890xv47sdkqj1k04q40000gn/T//ccgYd7pL.s 			page 27


 788              		.cfi_offset 7, -12
 789              		.cfi_offset 8, -8
 790              		.cfi_offset 14, -4
 166:Drivers/lvgl/src/extra/widgets/spinbox/lv_spinbox.c ****     if(pos <= 0) spinbox->step = 1;
 791              		.loc 1 166 40 view .LVU259
 792 0004 4AB2     		sxtb	r2, r1
 161:Drivers/lvgl/src/extra/widgets/spinbox/lv_spinbox.c ****     LV_ASSERT_OBJ(obj, MY_CLASS);
 793              		.loc 1 161 1 view .LVU260
 794 0006 0D46     		mov	r5, r1
 165:Drivers/lvgl/src/extra/widgets/spinbox/lv_spinbox.c ****     int32_t new_step = spinbox->step * lv_pow(10, pos);
 795              		.loc 1 165 24 view .LVU261
 796 0008 D0E91A86 		ldrd	r8, r6, [r0, #104]
 166:Drivers/lvgl/src/extra/widgets/spinbox/lv_spinbox.c ****     if(pos <= 0) spinbox->step = 1;
 797              		.loc 1 166 31 view .LVU262
 798 000c 076F     		ldr	r7, [r0, #112]
 161:Drivers/lvgl/src/extra/widgets/spinbox/lv_spinbox.c ****     LV_ASSERT_OBJ(obj, MY_CLASS);
 799              		.loc 1 161 1 view .LVU263
 800 000e 0446     		mov	r4, r0
 801              	.LVL76:
 164:Drivers/lvgl/src/extra/widgets/spinbox/lv_spinbox.c ****     step_limit       = LV_MAX(spinbox->range_max, (spinbox->range_min < 0 ? (-spinbox->range_min) :
 802              		.loc 1 164 5 is_stmt 1 view .LVU264
 165:Drivers/lvgl/src/extra/widgets/spinbox/lv_spinbox.c ****     int32_t new_step = spinbox->step * lv_pow(10, pos);
 803              		.loc 1 165 5 view .LVU265
 166:Drivers/lvgl/src/extra/widgets/spinbox/lv_spinbox.c ****     if(pos <= 0) spinbox->step = 1;
 804              		.loc 1 166 5 view .LVU266
 166:Drivers/lvgl/src/extra/widgets/spinbox/lv_spinbox.c ****     if(pos <= 0) spinbox->step = 1;
 805              		.loc 1 166 40 is_stmt 0 view .LVU267
 806 0010 0021     		movs	r1, #0
 807              	.LVL77:
 166:Drivers/lvgl/src/extra/widgets/spinbox/lv_spinbox.c ****     if(pos <= 0) spinbox->step = 1;
 808              		.loc 1 166 40 view .LVU268
 809 0012 0A20     		movs	r0, #10
 810              	.LVL78:
 166:Drivers/lvgl/src/extra/widgets/spinbox/lv_spinbox.c ****     if(pos <= 0) spinbox->step = 1;
 811              		.loc 1 166 40 view .LVU269
 812 0014 FFF7FEFF 		bl	lv_pow
 813              	.LVL79:
 167:Drivers/lvgl/src/extra/widgets/spinbox/lv_spinbox.c ****     else if(new_step <= step_limit) spinbox->step = new_step;
 814              		.loc 1 167 5 is_stmt 1 view .LVU270
 167:Drivers/lvgl/src/extra/widgets/spinbox/lv_spinbox.c ****     else if(new_step <= step_limit) spinbox->step = new_step;
 815              		.loc 1 167 7 is_stmt 0 view .LVU271
 816 0018 35B9     		cbnz	r5, .L57
 167:Drivers/lvgl/src/extra/widgets/spinbox/lv_spinbox.c ****     else if(new_step <= step_limit) spinbox->step = new_step;
 817              		.loc 1 167 18 is_stmt 1 discriminator 1 view .LVU272
 167:Drivers/lvgl/src/extra/widgets/spinbox/lv_spinbox.c ****     else if(new_step <= step_limit) spinbox->step = new_step;
 818              		.loc 1 167 32 is_stmt 0 discriminator 1 view .LVU273
 819 001a 0123     		movs	r3, #1
 820 001c 2367     		str	r3, [r4, #112]
 170:Drivers/lvgl/src/extra/widgets/spinbox/lv_spinbox.c **** }
 821              		.loc 1 170 5 is_stmt 1 view .LVU274
 822 001e 2046     		mov	r0, r4
 823              	.LVL80:
 171:Drivers/lvgl/src/extra/widgets/spinbox/lv_spinbox.c **** 
 824              		.loc 1 171 1 is_stmt 0 view .LVU275
 825 0020 BDE8F041 		pop	{r4, r5, r6, r7, r8, lr}
 826              		.cfi_remember_state
 827              		.cfi_restore 14
ARM GAS  /var/folders/lp/x54gwt890xv47sdkqj1k04q40000gn/T//ccgYd7pL.s 			page 28


 828              		.cfi_restore 8
 829              		.cfi_restore 7
 830              		.cfi_restore 6
 831              		.cfi_restore 5
 832              		.cfi_restore 4
 833              		.cfi_def_cfa_offset 0
 834              	.LVL81:
 170:Drivers/lvgl/src/extra/widgets/spinbox/lv_spinbox.c **** }
 835              		.loc 1 170 5 view .LVU276
 836 0024 FFF7FEBF 		b	lv_spinbox_updatevalue
 837              	.LVL82:
 838              	.L57:
 839              		.cfi_restore_state
 165:Drivers/lvgl/src/extra/widgets/spinbox/lv_spinbox.c ****     int32_t new_step = spinbox->step * lv_pow(10, pos);
 840              		.loc 1 165 24 view .LVU277
 841 0028 002E     		cmp	r6, #0
 842 002a B8BF     		it	lt
 843 002c 7642     		rsblt	r6, r6, #0
 165:Drivers/lvgl/src/extra/widgets/spinbox/lv_spinbox.c ****     int32_t new_step = spinbox->step * lv_pow(10, pos);
 844              		.loc 1 165 22 view .LVU278
 845 002e 4645     		cmp	r6, r8
 166:Drivers/lvgl/src/extra/widgets/spinbox/lv_spinbox.c ****     if(pos <= 0) spinbox->step = 1;
 846              		.loc 1 166 13 discriminator 1 view .LVU279
 847 0030 00FB07F7 		mul	r7, r0, r7
 848              	.LVL83:
 168:Drivers/lvgl/src/extra/widgets/spinbox/lv_spinbox.c **** 
 849              		.loc 1 168 10 is_stmt 1 view .LVU280
 165:Drivers/lvgl/src/extra/widgets/spinbox/lv_spinbox.c ****     int32_t new_step = spinbox->step * lv_pow(10, pos);
 850              		.loc 1 165 22 is_stmt 0 view .LVU281
 851 0034 B8BF     		it	lt
 852 0036 4646     		movlt	r6, r8
 168:Drivers/lvgl/src/extra/widgets/spinbox/lv_spinbox.c **** 
 853              		.loc 1 168 12 view .LVU282
 854 0038 BE42     		cmp	r6, r7
 168:Drivers/lvgl/src/extra/widgets/spinbox/lv_spinbox.c **** 
 855              		.loc 1 168 37 is_stmt 1 discriminator 1 view .LVU283
 168:Drivers/lvgl/src/extra/widgets/spinbox/lv_spinbox.c **** 
 856              		.loc 1 168 51 is_stmt 0 discriminator 1 view .LVU284
 857 003a A8BF     		it	ge
 858 003c 2767     		strge	r7, [r4, #112]
 170:Drivers/lvgl/src/extra/widgets/spinbox/lv_spinbox.c **** }
 859              		.loc 1 170 5 is_stmt 1 view .LVU285
 860 003e 2046     		mov	r0, r4
 171:Drivers/lvgl/src/extra/widgets/spinbox/lv_spinbox.c **** 
 861              		.loc 1 171 1 is_stmt 0 view .LVU286
 862 0040 BDE8F041 		pop	{r4, r5, r6, r7, r8, lr}
 863              		.cfi_restore 14
 864              		.cfi_restore 8
 865              		.cfi_restore 7
 866              		.cfi_restore 6
 867              		.cfi_restore 5
 868              		.cfi_restore 4
 869              		.cfi_def_cfa_offset 0
 870              	.LVL84:
 170:Drivers/lvgl/src/extra/widgets/spinbox/lv_spinbox.c **** }
 871              		.loc 1 170 5 view .LVU287
 872 0044 FFF7FEBF 		b	lv_spinbox_updatevalue
ARM GAS  /var/folders/lp/x54gwt890xv47sdkqj1k04q40000gn/T//ccgYd7pL.s 			page 29


 873              	.LVL85:
 170:Drivers/lvgl/src/extra/widgets/spinbox/lv_spinbox.c **** }
 874              		.loc 1 170 5 view .LVU288
 875              		.cfi_endproc
 876              	.LFE210:
 878              		.section	.text.lv_spinbox_set_digit_step_direction,"ax",%progbits
 879              		.align	1
 880              		.p2align 2,,3
 881              		.global	lv_spinbox_set_digit_step_direction
 882              		.syntax unified
 883              		.thumb
 884              		.thumb_func
 886              	lv_spinbox_set_digit_step_direction:
 887              	.LVL86:
 888              	.LFB211:
 179:Drivers/lvgl/src/extra/widgets/spinbox/lv_spinbox.c ****     LV_ASSERT_OBJ(obj, MY_CLASS);
 889              		.loc 1 179 1 is_stmt 1 view -0
 890              		.cfi_startproc
 891              		@ args = 0, pretend = 0, frame = 0
 892              		@ frame_needed = 0, uses_anonymous_args = 0
 893              		@ link register save eliminated.
 180:Drivers/lvgl/src/extra/widgets/spinbox/lv_spinbox.c ****     lv_spinbox_t * spinbox = (lv_spinbox_t *)obj;
 894              		.loc 1 180 5 view .LVU290
 180:Drivers/lvgl/src/extra/widgets/spinbox/lv_spinbox.c ****     lv_spinbox_t * spinbox = (lv_spinbox_t *)obj;
 895              		.loc 1 180 5 view .LVU291
 180:Drivers/lvgl/src/extra/widgets/spinbox/lv_spinbox.c ****     lv_spinbox_t * spinbox = (lv_spinbox_t *)obj;
 896              		.loc 1 180 5 view .LVU292
 181:Drivers/lvgl/src/extra/widgets/spinbox/lv_spinbox.c ****     spinbox->digit_step_dir = direction;
 897              		.loc 1 181 5 view .LVU293
 182:Drivers/lvgl/src/extra/widgets/spinbox/lv_spinbox.c **** 
 898              		.loc 1 182 5 view .LVU294
 182:Drivers/lvgl/src/extra/widgets/spinbox/lv_spinbox.c **** 
 899              		.loc 1 182 29 is_stmt 0 view .LVU295
 900 0000 90F87520 		ldrb	r2, [r0, #117]	@ zero_extendqisi2
 901 0004 61F34202 		bfi	r2, r1, #1, #2
 902              	.LVL87:
 182:Drivers/lvgl/src/extra/widgets/spinbox/lv_spinbox.c **** 
 903              		.loc 1 182 29 view .LVU296
 904 0008 80F87520 		strb	r2, [r0, #117]
 184:Drivers/lvgl/src/extra/widgets/spinbox/lv_spinbox.c **** }
 905              		.loc 1 184 5 is_stmt 1 view .LVU297
 906 000c FFF7FEBF 		b	lv_spinbox_updatevalue
 907              	.LVL88:
 184:Drivers/lvgl/src/extra/widgets/spinbox/lv_spinbox.c **** }
 908              		.loc 1 184 5 is_stmt 0 view .LVU298
 909              		.cfi_endproc
 910              	.LFE211:
 912              		.section	.text.lv_spinbox_get_value,"ax",%progbits
 913              		.align	1
 914              		.p2align 2,,3
 915              		.global	lv_spinbox_get_value
 916              		.syntax unified
 917              		.thumb
 918              		.thumb_func
 920              	lv_spinbox_get_value:
 921              	.LVL89:
 922              	.LFB212:
ARM GAS  /var/folders/lp/x54gwt890xv47sdkqj1k04q40000gn/T//ccgYd7pL.s 			page 30


 196:Drivers/lvgl/src/extra/widgets/spinbox/lv_spinbox.c ****     LV_ASSERT_OBJ(obj, MY_CLASS);
 923              		.loc 1 196 1 is_stmt 1 view -0
 924              		.cfi_startproc
 925              		@ args = 0, pretend = 0, frame = 0
 926              		@ frame_needed = 0, uses_anonymous_args = 0
 927              		@ link register save eliminated.
 197:Drivers/lvgl/src/extra/widgets/spinbox/lv_spinbox.c ****     lv_spinbox_t * spinbox = (lv_spinbox_t *)obj;
 928              		.loc 1 197 5 view .LVU300
 197:Drivers/lvgl/src/extra/widgets/spinbox/lv_spinbox.c ****     lv_spinbox_t * spinbox = (lv_spinbox_t *)obj;
 929              		.loc 1 197 5 view .LVU301
 197:Drivers/lvgl/src/extra/widgets/spinbox/lv_spinbox.c ****     lv_spinbox_t * spinbox = (lv_spinbox_t *)obj;
 930              		.loc 1 197 5 view .LVU302
 198:Drivers/lvgl/src/extra/widgets/spinbox/lv_spinbox.c **** 
 931              		.loc 1 198 5 view .LVU303
 200:Drivers/lvgl/src/extra/widgets/spinbox/lv_spinbox.c **** }
 932              		.loc 1 200 5 view .LVU304
 201:Drivers/lvgl/src/extra/widgets/spinbox/lv_spinbox.c **** /**
 933              		.loc 1 201 1 is_stmt 0 view .LVU305
 934 0000 406E     		ldr	r0, [r0, #100]
 935              	.LVL90:
 201:Drivers/lvgl/src/extra/widgets/spinbox/lv_spinbox.c **** /**
 936              		.loc 1 201 1 view .LVU306
 937 0002 7047     		bx	lr
 938              		.cfi_endproc
 939              	.LFE212:
 941              		.section	.text.lv_spinbox_get_step,"ax",%progbits
 942              		.align	1
 943              		.p2align 2,,3
 944              		.global	lv_spinbox_get_step
 945              		.syntax unified
 946              		.thumb
 947              		.thumb_func
 949              	lv_spinbox_get_step:
 950              	.LVL91:
 951              	.LFB213:
 208:Drivers/lvgl/src/extra/widgets/spinbox/lv_spinbox.c ****     LV_ASSERT_OBJ(obj, MY_CLASS);
 952              		.loc 1 208 1 is_stmt 1 view -0
 953              		.cfi_startproc
 954              		@ args = 0, pretend = 0, frame = 0
 955              		@ frame_needed = 0, uses_anonymous_args = 0
 956              		@ link register save eliminated.
 209:Drivers/lvgl/src/extra/widgets/spinbox/lv_spinbox.c ****     lv_spinbox_t * spinbox = (lv_spinbox_t *)obj;
 957              		.loc 1 209 5 view .LVU308
 209:Drivers/lvgl/src/extra/widgets/spinbox/lv_spinbox.c ****     lv_spinbox_t * spinbox = (lv_spinbox_t *)obj;
 958              		.loc 1 209 5 view .LVU309
 209:Drivers/lvgl/src/extra/widgets/spinbox/lv_spinbox.c ****     lv_spinbox_t * spinbox = (lv_spinbox_t *)obj;
 959              		.loc 1 209 5 view .LVU310
 210:Drivers/lvgl/src/extra/widgets/spinbox/lv_spinbox.c **** 
 960              		.loc 1 210 5 view .LVU311
 212:Drivers/lvgl/src/extra/widgets/spinbox/lv_spinbox.c **** }
 961              		.loc 1 212 5 view .LVU312
 213:Drivers/lvgl/src/extra/widgets/spinbox/lv_spinbox.c **** 
 962              		.loc 1 213 1 is_stmt 0 view .LVU313
 963 0000 006F     		ldr	r0, [r0, #112]
 964              	.LVL92:
 213:Drivers/lvgl/src/extra/widgets/spinbox/lv_spinbox.c **** 
 965              		.loc 1 213 1 view .LVU314
ARM GAS  /var/folders/lp/x54gwt890xv47sdkqj1k04q40000gn/T//ccgYd7pL.s 			page 31


 966 0002 7047     		bx	lr
 967              		.cfi_endproc
 968              	.LFE213:
 970              		.section	.text.lv_spinbox_step_next,"ax",%progbits
 971              		.align	1
 972              		.p2align 2,,3
 973              		.global	lv_spinbox_step_next
 974              		.syntax unified
 975              		.thumb
 976              		.thumb_func
 978              	lv_spinbox_step_next:
 979              	.LVL93:
 980              	.LFB214:
 224:Drivers/lvgl/src/extra/widgets/spinbox/lv_spinbox.c ****     LV_ASSERT_OBJ(obj, MY_CLASS);
 981              		.loc 1 224 1 is_stmt 1 view -0
 982              		.cfi_startproc
 983              		@ args = 0, pretend = 0, frame = 0
 984              		@ frame_needed = 0, uses_anonymous_args = 0
 985              		@ link register save eliminated.
 225:Drivers/lvgl/src/extra/widgets/spinbox/lv_spinbox.c ****     lv_spinbox_t * spinbox = (lv_spinbox_t *)obj;
 986              		.loc 1 225 5 view .LVU316
 225:Drivers/lvgl/src/extra/widgets/spinbox/lv_spinbox.c ****     lv_spinbox_t * spinbox = (lv_spinbox_t *)obj;
 987              		.loc 1 225 5 view .LVU317
 225:Drivers/lvgl/src/extra/widgets/spinbox/lv_spinbox.c ****     lv_spinbox_t * spinbox = (lv_spinbox_t *)obj;
 988              		.loc 1 225 5 view .LVU318
 226:Drivers/lvgl/src/extra/widgets/spinbox/lv_spinbox.c **** 
 989              		.loc 1 226 5 view .LVU319
 228:Drivers/lvgl/src/extra/widgets/spinbox/lv_spinbox.c ****     if((new_step) > 0)
 990              		.loc 1 228 5 view .LVU320
 228:Drivers/lvgl/src/extra/widgets/spinbox/lv_spinbox.c ****     if((new_step) > 0)
 991              		.loc 1 228 31 is_stmt 0 view .LVU321
 992 0000 036F     		ldr	r3, [r0, #112]
 993              	.LVL94:
 229:Drivers/lvgl/src/extra/widgets/spinbox/lv_spinbox.c ****         spinbox->step = new_step;
 994              		.loc 1 229 5 is_stmt 1 view .LVU322
 229:Drivers/lvgl/src/extra/widgets/spinbox/lv_spinbox.c ****         spinbox->step = new_step;
 995              		.loc 1 229 7 is_stmt 0 view .LVU323
 996 0002 092B     		cmp	r3, #9
 997 0004 08DD     		ble	.L65
 228:Drivers/lvgl/src/extra/widgets/spinbox/lv_spinbox.c ****     if((new_step) > 0)
 998              		.loc 1 228 13 view .LVU324
 999 0006 0649     		ldr	r1, .L66
 1000 0008 DA17     		asrs	r2, r3, #31
 1001 000a 81FB0313 		smull	r1, r3, r1, r3
 1002              	.LVL95:
 228:Drivers/lvgl/src/extra/widgets/spinbox/lv_spinbox.c ****     if((new_step) > 0)
 1003              		.loc 1 228 13 view .LVU325
 1004 000e C2EBA303 		rsb	r3, r2, r3, asr #2
 1005 0012 0367     		str	r3, [r0, #112]
 1006              	.LVL96:
 234:Drivers/lvgl/src/extra/widgets/spinbox/lv_spinbox.c **** }
 1007              		.loc 1 234 5 is_stmt 1 view .LVU326
 1008 0014 FFF7FEBF 		b	lv_spinbox_updatevalue
 1009              	.LVL97:
 1010              	.L65:
 232:Drivers/lvgl/src/extra/widgets/spinbox/lv_spinbox.c **** 
 1011              		.loc 1 232 23 is_stmt 0 view .LVU327
ARM GAS  /var/folders/lp/x54gwt890xv47sdkqj1k04q40000gn/T//ccgYd7pL.s 			page 32


 1012 0018 0123     		movs	r3, #1
 1013              	.LVL98:
 232:Drivers/lvgl/src/extra/widgets/spinbox/lv_spinbox.c **** 
 1014              		.loc 1 232 23 view .LVU328
 1015 001a 0367     		str	r3, [r0, #112]
 1016              	.LVL99:
 234:Drivers/lvgl/src/extra/widgets/spinbox/lv_spinbox.c **** }
 1017              		.loc 1 234 5 is_stmt 1 view .LVU329
 1018 001c FFF7FEBF 		b	lv_spinbox_updatevalue
 1019              	.LVL100:
 1020              	.L67:
 234:Drivers/lvgl/src/extra/widgets/spinbox/lv_spinbox.c **** }
 1021              		.loc 1 234 5 is_stmt 0 view .LVU330
 1022              		.align	2
 1023              	.L66:
 1024 0020 67666666 		.word	1717986919
 1025              		.cfi_endproc
 1026              	.LFE214:
 1028              		.section	.text.lv_spinbox_step_prev,"ax",%progbits
 1029              		.align	1
 1030              		.p2align 2,,3
 1031              		.global	lv_spinbox_step_prev
 1032              		.syntax unified
 1033              		.thumb
 1034              		.thumb_func
 1036              	lv_spinbox_step_prev:
 1037              	.LVL101:
 1038              	.LFB215:
 242:Drivers/lvgl/src/extra/widgets/spinbox/lv_spinbox.c ****     LV_ASSERT_OBJ(obj, MY_CLASS);
 1039              		.loc 1 242 1 is_stmt 1 view -0
 1040              		.cfi_startproc
 1041              		@ args = 0, pretend = 0, frame = 0
 1042              		@ frame_needed = 0, uses_anonymous_args = 0
 1043              		@ link register save eliminated.
 243:Drivers/lvgl/src/extra/widgets/spinbox/lv_spinbox.c ****     lv_spinbox_t * spinbox = (lv_spinbox_t *)obj;
 1044              		.loc 1 243 5 view .LVU332
 243:Drivers/lvgl/src/extra/widgets/spinbox/lv_spinbox.c ****     lv_spinbox_t * spinbox = (lv_spinbox_t *)obj;
 1045              		.loc 1 243 5 view .LVU333
 243:Drivers/lvgl/src/extra/widgets/spinbox/lv_spinbox.c ****     lv_spinbox_t * spinbox = (lv_spinbox_t *)obj;
 1046              		.loc 1 243 5 view .LVU334
 244:Drivers/lvgl/src/extra/widgets/spinbox/lv_spinbox.c ****     int32_t step_limit;
 1047              		.loc 1 244 5 view .LVU335
 245:Drivers/lvgl/src/extra/widgets/spinbox/lv_spinbox.c ****     step_limit       = LV_MAX(spinbox->range_max, (spinbox->range_min < 0 ? (-spinbox->range_min) :
 1048              		.loc 1 245 5 view .LVU336
 246:Drivers/lvgl/src/extra/widgets/spinbox/lv_spinbox.c ****     int32_t new_step = spinbox->step * 10;
 1049              		.loc 1 246 5 view .LVU337
 247:Drivers/lvgl/src/extra/widgets/spinbox/lv_spinbox.c ****     if(new_step <= step_limit) spinbox->step = new_step;
 1050              		.loc 1 247 5 view .LVU338
 247:Drivers/lvgl/src/extra/widgets/spinbox/lv_spinbox.c ****     if(new_step <= step_limit) spinbox->step = new_step;
 1051              		.loc 1 247 13 is_stmt 0 view .LVU339
 1052 0000 D0E91B32 		ldrd	r3, r2, [r0, #108]
 246:Drivers/lvgl/src/extra/widgets/spinbox/lv_spinbox.c ****     int32_t new_step = spinbox->step * 10;
 1053              		.loc 1 246 22 view .LVU340
 1054 0004 816E     		ldr	r1, [r0, #104]
 246:Drivers/lvgl/src/extra/widgets/spinbox/lv_spinbox.c ****     int32_t new_step = spinbox->step * 10;
 1055              		.loc 1 246 24 view .LVU341
 1056 0006 002B     		cmp	r3, #0
ARM GAS  /var/folders/lp/x54gwt890xv47sdkqj1k04q40000gn/T//ccgYd7pL.s 			page 33


 1057 0008 B8BF     		it	lt
 1058 000a 5B42     		rsblt	r3, r3, #0
 246:Drivers/lvgl/src/extra/widgets/spinbox/lv_spinbox.c ****     int32_t new_step = spinbox->step * 10;
 1059              		.loc 1 246 22 view .LVU342
 1060 000c 8B42     		cmp	r3, r1
 247:Drivers/lvgl/src/extra/widgets/spinbox/lv_spinbox.c ****     if(new_step <= step_limit) spinbox->step = new_step;
 1061              		.loc 1 247 13 view .LVU343
 1062 000e 02EB8202 		add	r2, r2, r2, lsl #2
 246:Drivers/lvgl/src/extra/widgets/spinbox/lv_spinbox.c ****     int32_t new_step = spinbox->step * 10;
 1063              		.loc 1 246 22 view .LVU344
 1064 0012 B8BF     		it	lt
 1065 0014 0B46     		movlt	r3, r1
 248:Drivers/lvgl/src/extra/widgets/spinbox/lv_spinbox.c **** 
 1066              		.loc 1 248 7 view .LVU345
 1067 0016 B3EB420F 		cmp	r3, r2, lsl #1
 247:Drivers/lvgl/src/extra/widgets/spinbox/lv_spinbox.c ****     if(new_step <= step_limit) spinbox->step = new_step;
 1068              		.loc 1 247 13 view .LVU346
 1069 001a 4FEA4201 		lsl	r1, r2, #1
 1070              	.LVL102:
 248:Drivers/lvgl/src/extra/widgets/spinbox/lv_spinbox.c **** 
 1071              		.loc 1 248 5 is_stmt 1 view .LVU347
 248:Drivers/lvgl/src/extra/widgets/spinbox/lv_spinbox.c **** 
 1072              		.loc 1 248 32 discriminator 1 view .LVU348
 248:Drivers/lvgl/src/extra/widgets/spinbox/lv_spinbox.c **** 
 1073              		.loc 1 248 46 is_stmt 0 discriminator 1 view .LVU349
 1074 001e A8BF     		it	ge
 1075 0020 0167     		strge	r1, [r0, #112]
 250:Drivers/lvgl/src/extra/widgets/spinbox/lv_spinbox.c **** }
 1076              		.loc 1 250 5 is_stmt 1 view .LVU350
 1077 0022 FFF7FEBF 		b	lv_spinbox_updatevalue
 1078              	.LVL103:
 250:Drivers/lvgl/src/extra/widgets/spinbox/lv_spinbox.c **** }
 1079              		.loc 1 250 5 is_stmt 0 view .LVU351
 1080              		.cfi_endproc
 1081              	.LFE215:
 1083 0026 00BF     		.section	.text.lv_spinbox_get_rollover,"ax",%progbits
 1084              		.align	1
 1085              		.p2align 2,,3
 1086              		.global	lv_spinbox_get_rollover
 1087              		.syntax unified
 1088              		.thumb
 1089              		.thumb_func
 1091              	lv_spinbox_get_rollover:
 1092              	.LVL104:
 1093              	.LFB216:
 258:Drivers/lvgl/src/extra/widgets/spinbox/lv_spinbox.c ****     LV_ASSERT_OBJ(obj, MY_CLASS);
 1094              		.loc 1 258 1 is_stmt 1 view -0
 1095              		.cfi_startproc
 1096              		@ args = 0, pretend = 0, frame = 0
 1097              		@ frame_needed = 0, uses_anonymous_args = 0
 1098              		@ link register save eliminated.
 259:Drivers/lvgl/src/extra/widgets/spinbox/lv_spinbox.c ****     lv_spinbox_t * spinbox = (lv_spinbox_t *)obj;
 1099              		.loc 1 259 5 view .LVU353
 259:Drivers/lvgl/src/extra/widgets/spinbox/lv_spinbox.c ****     lv_spinbox_t * spinbox = (lv_spinbox_t *)obj;
 1100              		.loc 1 259 5 view .LVU354
 259:Drivers/lvgl/src/extra/widgets/spinbox/lv_spinbox.c ****     lv_spinbox_t * spinbox = (lv_spinbox_t *)obj;
 1101              		.loc 1 259 5 view .LVU355
ARM GAS  /var/folders/lp/x54gwt890xv47sdkqj1k04q40000gn/T//ccgYd7pL.s 			page 34


 260:Drivers/lvgl/src/extra/widgets/spinbox/lv_spinbox.c **** 
 1102              		.loc 1 260 5 view .LVU356
 262:Drivers/lvgl/src/extra/widgets/spinbox/lv_spinbox.c **** }
 1103              		.loc 1 262 5 view .LVU357
 262:Drivers/lvgl/src/extra/widgets/spinbox/lv_spinbox.c **** }
 1104              		.loc 1 262 19 is_stmt 0 view .LVU358
 1105 0000 90F87500 		ldrb	r0, [r0, #117]	@ zero_extendqisi2
 1106              	.LVL105:
 263:Drivers/lvgl/src/extra/widgets/spinbox/lv_spinbox.c **** 
 1107              		.loc 1 263 1 view .LVU359
 1108 0004 00F00100 		and	r0, r0, #1
 1109 0008 7047     		bx	lr
 1110              		.cfi_endproc
 1111              	.LFE216:
 1113 000a 00BF     		.section	.text.lv_spinbox_increment,"ax",%progbits
 1114              		.align	1
 1115              		.p2align 2,,3
 1116              		.global	lv_spinbox_increment
 1117              		.syntax unified
 1118              		.thumb
 1119              		.thumb_func
 1121              	lv_spinbox_increment:
 1122              	.LVL106:
 1123              	.LFB217:
 270:Drivers/lvgl/src/extra/widgets/spinbox/lv_spinbox.c ****     LV_ASSERT_OBJ(obj, MY_CLASS);
 1124              		.loc 1 270 1 is_stmt 1 view -0
 1125              		.cfi_startproc
 1126              		@ args = 0, pretend = 0, frame = 0
 1127              		@ frame_needed = 0, uses_anonymous_args = 0
 1128              		@ link register save eliminated.
 271:Drivers/lvgl/src/extra/widgets/spinbox/lv_spinbox.c ****     lv_spinbox_t * spinbox = (lv_spinbox_t *)obj;
 1129              		.loc 1 271 5 view .LVU361
 271:Drivers/lvgl/src/extra/widgets/spinbox/lv_spinbox.c ****     lv_spinbox_t * spinbox = (lv_spinbox_t *)obj;
 1130              		.loc 1 271 5 view .LVU362
 271:Drivers/lvgl/src/extra/widgets/spinbox/lv_spinbox.c ****     lv_spinbox_t * spinbox = (lv_spinbox_t *)obj;
 1131              		.loc 1 271 5 view .LVU363
 272:Drivers/lvgl/src/extra/widgets/spinbox/lv_spinbox.c **** 
 1132              		.loc 1 272 5 view .LVU364
 274:Drivers/lvgl/src/extra/widgets/spinbox/lv_spinbox.c ****         /*Special mode when zero crossing*/
 1133              		.loc 1 274 5 view .LVU365
 274:Drivers/lvgl/src/extra/widgets/spinbox/lv_spinbox.c ****         /*Special mode when zero crossing*/
 1134              		.loc 1 274 15 is_stmt 0 view .LVU366
 1135 0000 416E     		ldr	r1, [r0, #100]
 274:Drivers/lvgl/src/extra/widgets/spinbox/lv_spinbox.c ****         /*Special mode when zero crossing*/
 1136              		.loc 1 274 23 view .LVU367
 1137 0002 036F     		ldr	r3, [r0, #112]
 274:Drivers/lvgl/src/extra/widgets/spinbox/lv_spinbox.c ****         /*Special mode when zero crossing*/
 1138              		.loc 1 274 49 view .LVU368
 1139 0004 826E     		ldr	r2, [r0, #104]
 274:Drivers/lvgl/src/extra/widgets/spinbox/lv_spinbox.c ****         /*Special mode when zero crossing*/
 1140              		.loc 1 274 23 view .LVU369
 1141 0006 0B44     		add	r3, r3, r1
 274:Drivers/lvgl/src/extra/widgets/spinbox/lv_spinbox.c ****         /*Special mode when zero crossing*/
 1142              		.loc 1 274 7 view .LVU370
 1143 0008 9342     		cmp	r3, r2
 1144 000a 09DC     		bgt	.L72
 276:Drivers/lvgl/src/extra/widgets/spinbox/lv_spinbox.c ****         spinbox->value += spinbox->step;
ARM GAS  /var/folders/lp/x54gwt890xv47sdkqj1k04q40000gn/T//ccgYd7pL.s 			page 35


 1145              		.loc 1 276 9 is_stmt 1 view .LVU371
 276:Drivers/lvgl/src/extra/widgets/spinbox/lv_spinbox.c ****         spinbox->value += spinbox->step;
 1146              		.loc 1 276 11 is_stmt 0 view .LVU372
 1147 000c 002B     		cmp	r3, #0
 1148 000e 03DD     		ble	.L73
 276:Drivers/lvgl/src/extra/widgets/spinbox/lv_spinbox.c ****         spinbox->value += spinbox->step;
 1149              		.loc 1 276 72 is_stmt 1 discriminator 2 view .LVU373
 276:Drivers/lvgl/src/extra/widgets/spinbox/lv_spinbox.c ****         spinbox->value += spinbox->step;
 1150              		.loc 1 276 49 is_stmt 0 discriminator 1 view .LVU374
 1151 0010 0029     		cmp	r1, #0
 277:Drivers/lvgl/src/extra/widgets/spinbox/lv_spinbox.c **** 
 1152              		.loc 1 277 24 view .LVU375
 1153 0012 B8BF     		it	lt
 1154 0014 A3EB4103 		sublt	r3, r3, r1, lsl #1
 1155              	.L73:
 277:Drivers/lvgl/src/extra/widgets/spinbox/lv_spinbox.c **** 
 1156              		.loc 1 277 9 is_stmt 1 view .LVU376
 1157 0018 1A46     		mov	r2, r3
 1158              	.L74:
 277:Drivers/lvgl/src/extra/widgets/spinbox/lv_spinbox.c **** 
 1159              		.loc 1 277 24 is_stmt 0 view .LVU377
 1160 001a 4266     		str	r2, [r0, #100]
 288:Drivers/lvgl/src/extra/widgets/spinbox/lv_spinbox.c **** }
 1161              		.loc 1 288 5 is_stmt 1 view .LVU378
 1162 001c FFF7FEBF 		b	lv_spinbox_updatevalue
 1163              	.LVL107:
 1164              	.L72:
 282:Drivers/lvgl/src/extra/widgets/spinbox/lv_spinbox.c ****             spinbox->value = spinbox->range_min;
 1165              		.loc 1 282 9 view .LVU379
 282:Drivers/lvgl/src/extra/widgets/spinbox/lv_spinbox.c ****             spinbox->value = spinbox->range_min;
 1166              		.loc 1 282 12 is_stmt 0 view .LVU380
 1167 0020 90F87530 		ldrb	r3, [r0, #117]	@ zero_extendqisi2
 282:Drivers/lvgl/src/extra/widgets/spinbox/lv_spinbox.c ****             spinbox->value = spinbox->range_min;
 1168              		.loc 1 282 11 view .LVU381
 1169 0024 DB07     		lsls	r3, r3, #31
 1170 0026 F8D5     		bpl	.L74
 282:Drivers/lvgl/src/extra/widgets/spinbox/lv_spinbox.c ****             spinbox->value = spinbox->range_min;
 1171              		.loc 1 282 32 discriminator 1 view .LVU382
 1172 0028 9142     		cmp	r1, r2
 283:Drivers/lvgl/src/extra/widgets/spinbox/lv_spinbox.c ****         else
 1173              		.loc 1 283 13 is_stmt 1 view .LVU383
 283:Drivers/lvgl/src/extra/widgets/spinbox/lv_spinbox.c ****         else
 1174              		.loc 1 283 37 is_stmt 0 view .LVU384
 1175 002a 08BF     		it	eq
 1176 002c C26E     		ldreq	r2, [r0, #108]
 277:Drivers/lvgl/src/extra/widgets/spinbox/lv_spinbox.c **** 
 1177              		.loc 1 277 24 view .LVU385
 1178 002e 4266     		str	r2, [r0, #100]
 288:Drivers/lvgl/src/extra/widgets/spinbox/lv_spinbox.c **** }
 1179              		.loc 1 288 5 is_stmt 1 view .LVU386
 1180 0030 FFF7FEBF 		b	lv_spinbox_updatevalue
 1181              	.LVL108:
 288:Drivers/lvgl/src/extra/widgets/spinbox/lv_spinbox.c **** }
 1182              		.loc 1 288 5 is_stmt 0 view .LVU387
 1183              		.cfi_endproc
 1184              	.LFE217:
 1186              		.section	.text.lv_spinbox_decrement,"ax",%progbits
ARM GAS  /var/folders/lp/x54gwt890xv47sdkqj1k04q40000gn/T//ccgYd7pL.s 			page 36


 1187              		.align	1
 1188              		.p2align 2,,3
 1189              		.global	lv_spinbox_decrement
 1190              		.syntax unified
 1191              		.thumb
 1192              		.thumb_func
 1194              	lv_spinbox_decrement:
 1195              	.LVL109:
 1196              	.LFB218:
 296:Drivers/lvgl/src/extra/widgets/spinbox/lv_spinbox.c ****     LV_ASSERT_OBJ(obj, MY_CLASS);
 1197              		.loc 1 296 1 is_stmt 1 view -0
 1198              		.cfi_startproc
 1199              		@ args = 0, pretend = 0, frame = 0
 1200              		@ frame_needed = 0, uses_anonymous_args = 0
 1201              		@ link register save eliminated.
 297:Drivers/lvgl/src/extra/widgets/spinbox/lv_spinbox.c ****     lv_spinbox_t * spinbox = (lv_spinbox_t *)obj;
 1202              		.loc 1 297 5 view .LVU389
 297:Drivers/lvgl/src/extra/widgets/spinbox/lv_spinbox.c ****     lv_spinbox_t * spinbox = (lv_spinbox_t *)obj;
 1203              		.loc 1 297 5 view .LVU390
 297:Drivers/lvgl/src/extra/widgets/spinbox/lv_spinbox.c ****     lv_spinbox_t * spinbox = (lv_spinbox_t *)obj;
 1204              		.loc 1 297 5 view .LVU391
 298:Drivers/lvgl/src/extra/widgets/spinbox/lv_spinbox.c **** 
 1205              		.loc 1 298 5 view .LVU392
 300:Drivers/lvgl/src/extra/widgets/spinbox/lv_spinbox.c ****         /*Special mode when zero crossing*/
 1206              		.loc 1 300 5 view .LVU393
 296:Drivers/lvgl/src/extra/widgets/spinbox/lv_spinbox.c ****     LV_ASSERT_OBJ(obj, MY_CLASS);
 1207              		.loc 1 296 1 is_stmt 0 view .LVU394
 1208 0000 10B4     		push	{r4}
 1209              		.cfi_def_cfa_offset 4
 1210              		.cfi_offset 4, -4
 300:Drivers/lvgl/src/extra/widgets/spinbox/lv_spinbox.c ****         /*Special mode when zero crossing*/
 1211              		.loc 1 300 49 view .LVU395
 1212 0002 D0E91B34 		ldrd	r3, r4, [r0, #108]
 300:Drivers/lvgl/src/extra/widgets/spinbox/lv_spinbox.c ****         /*Special mode when zero crossing*/
 1213              		.loc 1 300 15 view .LVU396
 1214 0006 416E     		ldr	r1, [r0, #100]
 300:Drivers/lvgl/src/extra/widgets/spinbox/lv_spinbox.c ****         /*Special mode when zero crossing*/
 1215              		.loc 1 300 23 view .LVU397
 1216 0008 0A1B     		subs	r2, r1, r4
 300:Drivers/lvgl/src/extra/widgets/spinbox/lv_spinbox.c ****         /*Special mode when zero crossing*/
 1217              		.loc 1 300 7 view .LVU398
 1218 000a 9A42     		cmp	r2, r3
 1219 000c 0CDB     		blt	.L79
 302:Drivers/lvgl/src/extra/widgets/spinbox/lv_spinbox.c ****         spinbox->value -= spinbox->step;
 1220              		.loc 1 302 9 is_stmt 1 view .LVU399
 302:Drivers/lvgl/src/extra/widgets/spinbox/lv_spinbox.c ****         spinbox->value -= spinbox->step;
 1221              		.loc 1 302 11 is_stmt 0 view .LVU400
 1222 000e 002A     		cmp	r2, #0
 1223 0010 05DB     		blt	.L86
 1224              	.L80:
 303:Drivers/lvgl/src/extra/widgets/spinbox/lv_spinbox.c ****     }
 1225              		.loc 1 303 9 is_stmt 1 view .LVU401
 1226 0012 1346     		mov	r3, r2
 1227              	.L81:
 314:Drivers/lvgl/src/extra/widgets/spinbox/lv_spinbox.c **** 
 1228              		.loc 1 314 1 is_stmt 0 view .LVU402
 1229 0014 5DF8044B 		ldr	r4, [sp], #4
ARM GAS  /var/folders/lp/x54gwt890xv47sdkqj1k04q40000gn/T//ccgYd7pL.s 			page 37


 1230              		.cfi_remember_state
 1231              		.cfi_restore 4
 1232              		.cfi_def_cfa_offset 0
 303:Drivers/lvgl/src/extra/widgets/spinbox/lv_spinbox.c ****     }
 1233              		.loc 1 303 24 view .LVU403
 1234 0018 4366     		str	r3, [r0, #100]
 313:Drivers/lvgl/src/extra/widgets/spinbox/lv_spinbox.c **** }
 1235              		.loc 1 313 5 is_stmt 1 view .LVU404
 1236 001a FFF7FEBF 		b	lv_spinbox_updatevalue
 1237              	.LVL110:
 1238              	.L86:
 1239              		.cfi_restore_state
 302:Drivers/lvgl/src/extra/widgets/spinbox/lv_spinbox.c ****         spinbox->value -= spinbox->step;
 1240              		.loc 1 302 49 is_stmt 0 discriminator 1 view .LVU405
 1241 001e 0029     		cmp	r1, #0
 302:Drivers/lvgl/src/extra/widgets/spinbox/lv_spinbox.c ****         spinbox->value -= spinbox->step;
 1242              		.loc 1 302 72 is_stmt 1 discriminator 2 view .LVU406
 302:Drivers/lvgl/src/extra/widgets/spinbox/lv_spinbox.c ****         spinbox->value -= spinbox->step;
 1243              		.loc 1 302 89 is_stmt 0 discriminator 2 view .LVU407
 1244 0020 C4BF     		itt	gt
 1245 0022 4942     		rsbgt	r1, r1, #0
 303:Drivers/lvgl/src/extra/widgets/spinbox/lv_spinbox.c ****     }
 1246              		.loc 1 303 24 view .LVU408
 1247 0024 0A1B     		subgt	r2, r1, r4
 1248 0026 F4E7     		b	.L80
 1249              	.L79:
 307:Drivers/lvgl/src/extra/widgets/spinbox/lv_spinbox.c ****             spinbox->value = spinbox->range_max;
 1250              		.loc 1 307 9 is_stmt 1 view .LVU409
 307:Drivers/lvgl/src/extra/widgets/spinbox/lv_spinbox.c ****             spinbox->value = spinbox->range_max;
 1251              		.loc 1 307 12 is_stmt 0 view .LVU410
 1252 0028 90F87520 		ldrb	r2, [r0, #117]	@ zero_extendqisi2
 307:Drivers/lvgl/src/extra/widgets/spinbox/lv_spinbox.c ****             spinbox->value = spinbox->range_max;
 1253              		.loc 1 307 11 view .LVU411
 1254 002c D207     		lsls	r2, r2, #31
 1255 002e F1D5     		bpl	.L81
 307:Drivers/lvgl/src/extra/widgets/spinbox/lv_spinbox.c ****             spinbox->value = spinbox->range_max;
 1256              		.loc 1 307 32 discriminator 1 view .LVU412
 1257 0030 9942     		cmp	r1, r3
 308:Drivers/lvgl/src/extra/widgets/spinbox/lv_spinbox.c ****         else
 1258              		.loc 1 308 13 is_stmt 1 view .LVU413
 308:Drivers/lvgl/src/extra/widgets/spinbox/lv_spinbox.c ****         else
 1259              		.loc 1 308 37 is_stmt 0 view .LVU414
 1260 0032 08BF     		it	eq
 1261 0034 836E     		ldreq	r3, [r0, #104]
 314:Drivers/lvgl/src/extra/widgets/spinbox/lv_spinbox.c **** 
 1262              		.loc 1 314 1 view .LVU415
 1263 0036 5DF8044B 		ldr	r4, [sp], #4
 1264              		.cfi_restore 4
 1265              		.cfi_def_cfa_offset 0
 303:Drivers/lvgl/src/extra/widgets/spinbox/lv_spinbox.c ****     }
 1266              		.loc 1 303 24 view .LVU416
 1267 003a 4366     		str	r3, [r0, #100]
 313:Drivers/lvgl/src/extra/widgets/spinbox/lv_spinbox.c **** }
 1268              		.loc 1 313 5 is_stmt 1 view .LVU417
 1269 003c FFF7FEBF 		b	lv_spinbox_updatevalue
 1270              	.LVL111:
 313:Drivers/lvgl/src/extra/widgets/spinbox/lv_spinbox.c **** }
ARM GAS  /var/folders/lp/x54gwt890xv47sdkqj1k04q40000gn/T//ccgYd7pL.s 			page 38


 1271              		.loc 1 313 5 is_stmt 0 view .LVU418
 1272              		.cfi_endproc
 1273              	.LFE218:
 1275              		.section	.text.lv_spinbox_event,"ax",%progbits
 1276              		.align	1
 1277              		.p2align 2,,3
 1278              		.syntax unified
 1279              		.thumb
 1280              		.thumb_func
 1282              	lv_spinbox_event:
 1283              	.LVL112:
 1284              	.LFB220:
 346:Drivers/lvgl/src/extra/widgets/spinbox/lv_spinbox.c ****     LV_UNUSED(class_p);
 1285              		.loc 1 346 1 is_stmt 1 view -0
 1286              		.cfi_startproc
 1287              		@ args = 0, pretend = 0, frame = 0
 1288              		@ frame_needed = 0, uses_anonymous_args = 0
 347:Drivers/lvgl/src/extra/widgets/spinbox/lv_spinbox.c **** 
 1289              		.loc 1 347 5 view .LVU420
 350:Drivers/lvgl/src/extra/widgets/spinbox/lv_spinbox.c ****     res = lv_obj_event_base(MY_CLASS, e);
 1290              		.loc 1 350 5 view .LVU421
 351:Drivers/lvgl/src/extra/widgets/spinbox/lv_spinbox.c ****     if(res != LV_RES_OK) return;
 1291              		.loc 1 351 5 view .LVU422
 346:Drivers/lvgl/src/extra/widgets/spinbox/lv_spinbox.c ****     LV_UNUSED(class_p);
 1292              		.loc 1 346 1 is_stmt 0 view .LVU423
 1293 0000 F8B5     		push	{r3, r4, r5, r6, r7, lr}
 1294              		.cfi_def_cfa_offset 24
 1295              		.cfi_offset 3, -24
 1296              		.cfi_offset 4, -20
 1297              		.cfi_offset 5, -16
 1298              		.cfi_offset 6, -12
 1299              		.cfi_offset 7, -8
 1300              		.cfi_offset 14, -4
 351:Drivers/lvgl/src/extra/widgets/spinbox/lv_spinbox.c ****     if(res != LV_RES_OK) return;
 1301              		.loc 1 351 11 view .LVU424
 1302 0002 7848     		ldr	r0, .L134
 1303              	.LVL113:
 346:Drivers/lvgl/src/extra/widgets/spinbox/lv_spinbox.c ****     LV_UNUSED(class_p);
 1304              		.loc 1 346 1 view .LVU425
 1305 0004 0D46     		mov	r5, r1
 351:Drivers/lvgl/src/extra/widgets/spinbox/lv_spinbox.c ****     if(res != LV_RES_OK) return;
 1306              		.loc 1 351 11 view .LVU426
 1307 0006 FFF7FEFF 		bl	lv_obj_event_base
 1308              	.LVL114:
 352:Drivers/lvgl/src/extra/widgets/spinbox/lv_spinbox.c **** 
 1309              		.loc 1 352 5 is_stmt 1 view .LVU427
 352:Drivers/lvgl/src/extra/widgets/spinbox/lv_spinbox.c **** 
 1310              		.loc 1 352 7 is_stmt 0 view .LVU428
 1311 000a 0128     		cmp	r0, #1
 1312 000c 00D0     		beq	.L128
 1313              	.LVL115:
 1314              	.L87:
 438:Drivers/lvgl/src/extra/widgets/spinbox/lv_spinbox.c **** 
 1315              		.loc 1 438 1 view .LVU429
 1316 000e F8BD     		pop	{r3, r4, r5, r6, r7, pc}
 1317              	.LVL116:
 1318              	.L128:
ARM GAS  /var/folders/lp/x54gwt890xv47sdkqj1k04q40000gn/T//ccgYd7pL.s 			page 39


 438:Drivers/lvgl/src/extra/widgets/spinbox/lv_spinbox.c **** 
 1319              		.loc 1 438 1 view .LVU430
 1320 0010 0446     		mov	r4, r0
 1321              	.LVL117:
 1322              	.LBB23:
 1323              	.LBI23:
 345:Drivers/lvgl/src/extra/widgets/spinbox/lv_spinbox.c **** {
 1324              		.loc 1 345 13 is_stmt 1 view .LVU431
 1325              	.LBB24:
 354:Drivers/lvgl/src/extra/widgets/spinbox/lv_spinbox.c ****     lv_obj_t * obj = lv_event_get_target(e);
 1326              		.loc 1 354 5 view .LVU432
 354:Drivers/lvgl/src/extra/widgets/spinbox/lv_spinbox.c ****     lv_obj_t * obj = lv_event_get_target(e);
 1327              		.loc 1 354 28 is_stmt 0 view .LVU433
 1328 0012 2846     		mov	r0, r5
 1329              	.LVL118:
 354:Drivers/lvgl/src/extra/widgets/spinbox/lv_spinbox.c ****     lv_obj_t * obj = lv_event_get_target(e);
 1330              		.loc 1 354 28 view .LVU434
 1331 0014 FFF7FEFF 		bl	lv_event_get_code
 1332              	.LVL119:
 1333 0018 0646     		mov	r6, r0
 1334              	.LVL120:
 355:Drivers/lvgl/src/extra/widgets/spinbox/lv_spinbox.c ****     lv_spinbox_t * spinbox = (lv_spinbox_t *)obj;
 1335              		.loc 1 355 5 is_stmt 1 view .LVU435
 355:Drivers/lvgl/src/extra/widgets/spinbox/lv_spinbox.c ****     lv_spinbox_t * spinbox = (lv_spinbox_t *)obj;
 1336              		.loc 1 355 22 is_stmt 0 view .LVU436
 1337 001a 2846     		mov	r0, r5
 1338 001c FFF7FEFF 		bl	lv_event_get_target
 1339              	.LVL121:
 357:Drivers/lvgl/src/extra/widgets/spinbox/lv_spinbox.c ****         /*If released with an ENCODER then move to the next digit*/
 1340              		.loc 1 357 7 view .LVU437
 1341 0020 082E     		cmp	r6, #8
 355:Drivers/lvgl/src/extra/widgets/spinbox/lv_spinbox.c ****     lv_spinbox_t * spinbox = (lv_spinbox_t *)obj;
 1342              		.loc 1 355 22 view .LVU438
 1343 0022 0746     		mov	r7, r0
 1344              	.LVL122:
 356:Drivers/lvgl/src/extra/widgets/spinbox/lv_spinbox.c ****     if(code == LV_EVENT_RELEASED) {
 1345              		.loc 1 356 5 is_stmt 1 view .LVU439
 357:Drivers/lvgl/src/extra/widgets/spinbox/lv_spinbox.c ****         /*If released with an ENCODER then move to the next digit*/
 1346              		.loc 1 357 5 view .LVU440
 357:Drivers/lvgl/src/extra/widgets/spinbox/lv_spinbox.c ****         /*If released with an ENCODER then move to the next digit*/
 1347              		.loc 1 357 7 is_stmt 0 view .LVU441
 1348 0024 11D0     		beq	.L129
 415:Drivers/lvgl/src/extra/widgets/spinbox/lv_spinbox.c ****         lv_indev_type_t indev_type = lv_indev_get_type(lv_indev_get_act());
 1349              		.loc 1 415 10 is_stmt 1 view .LVU442
 415:Drivers/lvgl/src/extra/widgets/spinbox/lv_spinbox.c ****         lv_indev_type_t indev_type = lv_indev_get_type(lv_indev_get_act());
 1350              		.loc 1 415 12 is_stmt 0 view .LVU443
 1351 0026 0D2E     		cmp	r6, #13
 1352 0028 F1D1     		bne	.L87
 1353              	.LBB25:
 416:Drivers/lvgl/src/extra/widgets/spinbox/lv_spinbox.c **** 
 1354              		.loc 1 416 9 is_stmt 1 view .LVU444
 416:Drivers/lvgl/src/extra/widgets/spinbox/lv_spinbox.c **** 
 1355              		.loc 1 416 56 is_stmt 0 view .LVU445
 1356 002a FFF7FEFF 		bl	lv_indev_get_act
 1357              	.LVL123:
 416:Drivers/lvgl/src/extra/widgets/spinbox/lv_spinbox.c **** 
 1358              		.loc 1 416 38 discriminator 1 view .LVU446
ARM GAS  /var/folders/lp/x54gwt890xv47sdkqj1k04q40000gn/T//ccgYd7pL.s 			page 40


 1359 002e FFF7FEFF 		bl	lv_indev_get_type
 1360              	.LVL124:
 1361 0032 0446     		mov	r4, r0
 1362              	.LVL125:
 418:Drivers/lvgl/src/extra/widgets/spinbox/lv_spinbox.c ****         if(c == LV_KEY_RIGHT) {
 1363              		.loc 1 418 9 is_stmt 1 view .LVU447
 418:Drivers/lvgl/src/extra/widgets/spinbox/lv_spinbox.c ****         if(c == LV_KEY_RIGHT) {
 1364              		.loc 1 418 36 is_stmt 0 view .LVU448
 1365 0034 2846     		mov	r0, r5
 1366 0036 FFF7FEFF 		bl	lv_event_get_param
 1367              	.LVL126:
 419:Drivers/lvgl/src/extra/widgets/spinbox/lv_spinbox.c ****             if(indev_type == LV_INDEV_TYPE_ENCODER)
 1368              		.loc 1 419 9 is_stmt 1 view .LVU449
 1369 003a 0368     		ldr	r3, [r0]
 1370 003c 113B     		subs	r3, r3, #17
 1371 003e 032B     		cmp	r3, #3
 1372 0040 E5D8     		bhi	.L87
 1373 0042 DFE803F0 		tbb	[pc, r3]
 1374              	.L107:
 1375 0046 55       		.byte	(.L110-.L107)/2
 1376 0047 50       		.byte	(.L109-.L107)/2
 1377 0048 6E       		.byte	(.L108-.L107)/2
 1378 0049 5A       		.byte	(.L106-.L107)/2
 1379              	.LVL127:
 1380              		.p2align 1
 1381              	.L129:
 419:Drivers/lvgl/src/extra/widgets/spinbox/lv_spinbox.c ****             if(indev_type == LV_INDEV_TYPE_ENCODER)
 1382              		.loc 1 419 9 is_stmt 0 view .LVU450
 1383              	.LBE25:
 1384              	.LBB34:
 359:Drivers/lvgl/src/extra/widgets/spinbox/lv_spinbox.c ****         if(lv_indev_get_type(indev) == LV_INDEV_TYPE_ENCODER) {
 1385              		.loc 1 359 9 is_stmt 1 view .LVU451
 359:Drivers/lvgl/src/extra/widgets/spinbox/lv_spinbox.c ****         if(lv_indev_get_type(indev) == LV_INDEV_TYPE_ENCODER) {
 1386              		.loc 1 359 30 is_stmt 0 view .LVU452
 1387 004a FFF7FEFF 		bl	lv_indev_get_act
 1388              	.LVL128:
 360:Drivers/lvgl/src/extra/widgets/spinbox/lv_spinbox.c ****             if(lv_group_get_editing(lv_obj_get_group(obj))) {
 1389              		.loc 1 360 9 is_stmt 1 view .LVU453
 360:Drivers/lvgl/src/extra/widgets/spinbox/lv_spinbox.c ****             if(lv_group_get_editing(lv_obj_get_group(obj))) {
 1390              		.loc 1 360 12 is_stmt 0 view .LVU454
 1391 004e FFF7FEFF 		bl	lv_indev_get_type
 1392              	.LVL129:
 360:Drivers/lvgl/src/extra/widgets/spinbox/lv_spinbox.c ****             if(lv_group_get_editing(lv_obj_get_group(obj))) {
 1393              		.loc 1 360 11 discriminator 1 view .LVU455
 1394 0052 0428     		cmp	r0, #4
 361:Drivers/lvgl/src/extra/widgets/spinbox/lv_spinbox.c ****                 if(spinbox->digit_count > 1) {
 1395              		.loc 1 361 37 view .LVU456
 1396 0054 3846     		mov	r0, r7
 360:Drivers/lvgl/src/extra/widgets/spinbox/lv_spinbox.c ****             if(lv_group_get_editing(lv_obj_get_group(obj))) {
 1397              		.loc 1 360 11 discriminator 1 view .LVU457
 1398 0056 23D0     		beq	.L130
 1399              	.LVL130:
 1400              	.LBB35:
 389:Drivers/lvgl/src/extra/widgets/spinbox/lv_spinbox.c ****             size_t txt_len = strlen(txt);
 1401              		.loc 1 389 13 is_stmt 1 view .LVU458
 389:Drivers/lvgl/src/extra/widgets/spinbox/lv_spinbox.c ****             size_t txt_len = strlen(txt);
 1402              		.loc 1 389 32 is_stmt 0 view .LVU459
ARM GAS  /var/folders/lp/x54gwt890xv47sdkqj1k04q40000gn/T//ccgYd7pL.s 			page 41


 1403 0058 FFF7FEFF 		bl	lv_textarea_get_text
 1404              	.LVL131:
 389:Drivers/lvgl/src/extra/widgets/spinbox/lv_spinbox.c ****             size_t txt_len = strlen(txt);
 1405              		.loc 1 389 32 view .LVU460
 1406 005c 0546     		mov	r5, r0
 1407              	.LVL132:
 390:Drivers/lvgl/src/extra/widgets/spinbox/lv_spinbox.c **** 
 1408              		.loc 1 390 13 is_stmt 1 view .LVU461
 390:Drivers/lvgl/src/extra/widgets/spinbox/lv_spinbox.c **** 
 1409              		.loc 1 390 30 is_stmt 0 view .LVU462
 1410 005e FFF7FEFF 		bl	strlen
 1411              	.LVL133:
 392:Drivers/lvgl/src/extra/widgets/spinbox/lv_spinbox.c ****                 lv_textarea_cursor_left(obj);
 1412              		.loc 1 392 13 is_stmt 1 view .LVU463
 392:Drivers/lvgl/src/extra/widgets/spinbox/lv_spinbox.c ****                 lv_textarea_cursor_left(obj);
 1413              		.loc 1 392 38 is_stmt 0 view .LVU464
 1414 0062 7B6C     		ldr	r3, [r7, #68]
 392:Drivers/lvgl/src/extra/widgets/spinbox/lv_spinbox.c ****                 lv_textarea_cursor_left(obj);
 1415              		.loc 1 392 15 view .LVU465
 1416 0064 EA5C     		ldrb	r2, [r5, r3]	@ zero_extendqisi2
 1417 0066 2E2A     		cmp	r2, #46
 1418 0068 6CD0     		beq	.L131
 395:Drivers/lvgl/src/extra/widgets/spinbox/lv_spinbox.c ****                 lv_textarea_set_cursor_pos(obj, txt_len - 1);
 1419              		.loc 1 395 18 is_stmt 1 view .LVU466
 395:Drivers/lvgl/src/extra/widgets/spinbox/lv_spinbox.c ****                 lv_textarea_set_cursor_pos(obj, txt_len - 1);
 1420              		.loc 1 395 20 is_stmt 0 view .LVU467
 1421 006a 9842     		cmp	r0, r3
 1422 006c 00F08380 		beq	.L132
 398:Drivers/lvgl/src/extra/widgets/spinbox/lv_spinbox.c ****                 lv_textarea_set_cursor_pos(obj, 1);
 1423              		.loc 1 398 18 is_stmt 1 view .LVU468
 398:Drivers/lvgl/src/extra/widgets/spinbox/lv_spinbox.c ****                 lv_textarea_set_cursor_pos(obj, 1);
 1424              		.loc 1 398 59 is_stmt 0 discriminator 1 view .LVU469
 1425 0070 FD6E     		ldr	r5, [r7, #108]
 1426              	.LVL134:
 398:Drivers/lvgl/src/extra/widgets/spinbox/lv_spinbox.c ****                 lv_textarea_set_cursor_pos(obj, 1);
 1427              		.loc 1 398 20 view .LVU470
 1428 0072 002B     		cmp	r3, #0
 1429 0074 6BD1     		bne	.L100
 398:Drivers/lvgl/src/extra/widgets/spinbox/lv_spinbox.c ****                 lv_textarea_set_cursor_pos(obj, 1);
 1430              		.loc 1 398 49 discriminator 1 view .LVU471
 1431 0076 002D     		cmp	r5, #0
 1432 0078 C0F28480 		blt	.L133
 402:Drivers/lvgl/src/extra/widgets/spinbox/lv_spinbox.c ****             uint16_t cp = spinbox->ta.cursor.pos;
 1433              		.loc 1 402 13 is_stmt 1 view .LVU472
 402:Drivers/lvgl/src/extra/widgets/spinbox/lv_spinbox.c ****             uint16_t cp = spinbox->ta.cursor.pos;
 1434              		.loc 1 402 33 is_stmt 0 view .LVU473
 1435 007c 97F87410 		ldrb	r1, [r7, #116]	@ zero_extendqisi2
 1436 0080 01F00F01 		and	r1, r1, #15
 402:Drivers/lvgl/src/extra/widgets/spinbox/lv_spinbox.c ****             uint16_t cp = spinbox->ta.cursor.pos;
 1437              		.loc 1 402 47 view .LVU474
 1438 0084 0139     		subs	r1, r1, #1
 1439              	.LVL135:
 403:Drivers/lvgl/src/extra/widgets/spinbox/lv_spinbox.c **** 
 1440              		.loc 1 403 13 is_stmt 1 view .LVU475
 405:Drivers/lvgl/src/extra/widgets/spinbox/lv_spinbox.c ****             uint32_t pos = len - cp;
 1441              		.loc 1 405 13 view .LVU476
 406:Drivers/lvgl/src/extra/widgets/spinbox/lv_spinbox.c **** 
ARM GAS  /var/folders/lp/x54gwt890xv47sdkqj1k04q40000gn/T//ccgYd7pL.s 			page 42


 1442              		.loc 1 406 13 view .LVU477
 408:Drivers/lvgl/src/extra/widgets/spinbox/lv_spinbox.c **** 
 1443              		.loc 1 408 13 view .LVU478
 1444              	.L104:
 410:Drivers/lvgl/src/extra/widgets/spinbox/lv_spinbox.c ****             uint16_t i;
 1445              		.loc 1 410 13 view .LVU479
 411:Drivers/lvgl/src/extra/widgets/spinbox/lv_spinbox.c ****             for(i = 0; i < pos; i++) spinbox->step *= 10;
 1446              		.loc 1 411 13 view .LVU480
 412:Drivers/lvgl/src/extra/widgets/spinbox/lv_spinbox.c ****         }
 1447              		.loc 1 412 13 view .LVU481
 412:Drivers/lvgl/src/extra/widgets/spinbox/lv_spinbox.c ****         }
 1448              		.loc 1 412 26 discriminator 1 view .LVU482
 1449 0086 0123     		movs	r3, #1
 412:Drivers/lvgl/src/extra/widgets/spinbox/lv_spinbox.c ****         }
 1450              		.loc 1 412 19 is_stmt 0 view .LVU483
 1451 0088 0022     		movs	r2, #0
 412:Drivers/lvgl/src/extra/widgets/spinbox/lv_spinbox.c ****         }
 1452              		.loc 1 412 26 discriminator 1 view .LVU484
 1453 008a 39B1     		cbz	r1, .L124
 1454              	.LVL136:
 1455              	.L105:
 412:Drivers/lvgl/src/extra/widgets/spinbox/lv_spinbox.c ****         }
 1456              		.loc 1 412 38 is_stmt 1 discriminator 3 view .LVU485
 412:Drivers/lvgl/src/extra/widgets/spinbox/lv_spinbox.c ****         }
 1457              		.loc 1 412 34 is_stmt 0 discriminator 3 view .LVU486
 1458 008c 0132     		adds	r2, r2, #1
 1459              	.LVL137:
 412:Drivers/lvgl/src/extra/widgets/spinbox/lv_spinbox.c ****         }
 1460              		.loc 1 412 34 discriminator 3 view .LVU487
 1461 008e 92B2     		uxth	r2, r2
 1462              	.LVL138:
 412:Drivers/lvgl/src/extra/widgets/spinbox/lv_spinbox.c ****         }
 1463              		.loc 1 412 52 discriminator 3 view .LVU488
 1464 0090 03EB8303 		add	r3, r3, r3, lsl #2
 412:Drivers/lvgl/src/extra/widgets/spinbox/lv_spinbox.c ****         }
 1465              		.loc 1 412 26 discriminator 1 view .LVU489
 1466 0094 8A42     		cmp	r2, r1
 412:Drivers/lvgl/src/extra/widgets/spinbox/lv_spinbox.c ****         }
 1467              		.loc 1 412 52 discriminator 3 view .LVU490
 1468 0096 4FEA4303 		lsl	r3, r3, #1
 412:Drivers/lvgl/src/extra/widgets/spinbox/lv_spinbox.c ****         }
 1469              		.loc 1 412 34 is_stmt 1 discriminator 3 view .LVU491
 1470              	.LVL139:
 412:Drivers/lvgl/src/extra/widgets/spinbox/lv_spinbox.c ****         }
 1471              		.loc 1 412 26 discriminator 1 view .LVU492
 1472 009a F7D3     		bcc	.L105
 1473              	.LVL140:
 1474              	.L124:
 412:Drivers/lvgl/src/extra/widgets/spinbox/lv_spinbox.c ****         }
 1475              		.loc 1 412 26 is_stmt 0 discriminator 1 view .LVU493
 1476 009c 3B67     		str	r3, [r7, #112]
 1477              	.LBE35:
 1478              	.LBE34:
 1479              	.LBE24:
 1480              	.LBE23:
 438:Drivers/lvgl/src/extra/widgets/spinbox/lv_spinbox.c **** 
 1481              		.loc 1 438 1 view .LVU494
ARM GAS  /var/folders/lp/x54gwt890xv47sdkqj1k04q40000gn/T//ccgYd7pL.s 			page 43


 1482 009e F8BD     		pop	{r3, r4, r5, r6, r7, pc}
 1483              	.LVL141:
 1484              	.L130:
 1485              	.LBB65:
 1486              	.LBB59:
 1487              	.LBB49:
 361:Drivers/lvgl/src/extra/widgets/spinbox/lv_spinbox.c ****                 if(spinbox->digit_count > 1) {
 1488              		.loc 1 361 13 is_stmt 1 view .LVU495
 361:Drivers/lvgl/src/extra/widgets/spinbox/lv_spinbox.c ****                 if(spinbox->digit_count > 1) {
 1489              		.loc 1 361 37 is_stmt 0 view .LVU496
 1490 00a0 FFF7FEFF 		bl	lv_obj_get_group
 1491              	.LVL142:
 361:Drivers/lvgl/src/extra/widgets/spinbox/lv_spinbox.c ****                 if(spinbox->digit_count > 1) {
 1492              		.loc 1 361 16 discriminator 1 view .LVU497
 1493 00a4 FFF7FEFF 		bl	lv_group_get_editing
 1494              	.LVL143:
 361:Drivers/lvgl/src/extra/widgets/spinbox/lv_spinbox.c ****                 if(spinbox->digit_count > 1) {
 1495              		.loc 1 361 15 discriminator 2 view .LVU498
 1496 00a8 0028     		cmp	r0, #0
 1497 00aa B0D0     		beq	.L87
 362:Drivers/lvgl/src/extra/widgets/spinbox/lv_spinbox.c ****                     if(spinbox->digit_step_dir == LV_DIR_RIGHT) {
 1498              		.loc 1 362 17 is_stmt 1 view .LVU499
 362:Drivers/lvgl/src/extra/widgets/spinbox/lv_spinbox.c ****                     if(spinbox->digit_step_dir == LV_DIR_RIGHT) {
 1499              		.loc 1 362 27 is_stmt 0 view .LVU500
 1500 00ac 97F87420 		ldrb	r2, [r7, #116]	@ zero_extendqisi2
 1501 00b0 02F00F02 		and	r2, r2, #15
 362:Drivers/lvgl/src/extra/widgets/spinbox/lv_spinbox.c ****                     if(spinbox->digit_step_dir == LV_DIR_RIGHT) {
 1502              		.loc 1 362 19 view .LVU501
 1503 00b4 012A     		cmp	r2, #1
 1504 00b6 AAD9     		bls	.L87
 363:Drivers/lvgl/src/extra/widgets/spinbox/lv_spinbox.c ****                         if(spinbox->step > 1) {
 1505              		.loc 1 363 21 is_stmt 1 view .LVU502
 363:Drivers/lvgl/src/extra/widgets/spinbox/lv_spinbox.c ****                         if(spinbox->step > 1) {
 1506              		.loc 1 363 48 is_stmt 0 view .LVU503
 1507 00b8 97F87530 		ldrb	r3, [r7, #117]	@ zero_extendqisi2
 364:Drivers/lvgl/src/extra/widgets/spinbox/lv_spinbox.c ****                             lv_spinbox_step_next(obj);
 1508              		.loc 1 364 35 view .LVU504
 1509 00bc 3D6F     		ldr	r5, [r7, #112]
 1510              	.LVL144:
 363:Drivers/lvgl/src/extra/widgets/spinbox/lv_spinbox.c ****                         if(spinbox->step > 1) {
 1511              		.loc 1 363 23 view .LVU505
 1512 00be 03F00603 		and	r3, r3, #6
 1513 00c2 042B     		cmp	r3, #4
 1514 00c4 67D1     		bne	.L93
 364:Drivers/lvgl/src/extra/widgets/spinbox/lv_spinbox.c ****                             lv_spinbox_step_next(obj);
 1515              		.loc 1 364 25 is_stmt 1 view .LVU506
 364:Drivers/lvgl/src/extra/widgets/spinbox/lv_spinbox.c ****                             lv_spinbox_step_next(obj);
 1516              		.loc 1 364 27 is_stmt 0 view .LVU507
 1517 00c6 012D     		cmp	r5, #1
 1518 00c8 6FDD     		ble	.L94
 365:Drivers/lvgl/src/extra/widgets/spinbox/lv_spinbox.c ****                         }
 1519              		.loc 1 365 29 is_stmt 1 view .LVU508
 1520              	.LVL145:
 1521              	.LBB36:
 1522              	.LBI36:
 223:Drivers/lvgl/src/extra/widgets/spinbox/lv_spinbox.c **** {
 1523              		.loc 1 223 6 view .LVU509
ARM GAS  /var/folders/lp/x54gwt890xv47sdkqj1k04q40000gn/T//ccgYd7pL.s 			page 44


 1524              	.LBB37:
 225:Drivers/lvgl/src/extra/widgets/spinbox/lv_spinbox.c ****     lv_spinbox_t * spinbox = (lv_spinbox_t *)obj;
 1525              		.loc 1 225 5 view .LVU510
 225:Drivers/lvgl/src/extra/widgets/spinbox/lv_spinbox.c ****     lv_spinbox_t * spinbox = (lv_spinbox_t *)obj;
 1526              		.loc 1 225 5 view .LVU511
 225:Drivers/lvgl/src/extra/widgets/spinbox/lv_spinbox.c ****     lv_spinbox_t * spinbox = (lv_spinbox_t *)obj;
 1527              		.loc 1 225 5 view .LVU512
 226:Drivers/lvgl/src/extra/widgets/spinbox/lv_spinbox.c **** 
 1528              		.loc 1 226 5 view .LVU513
 228:Drivers/lvgl/src/extra/widgets/spinbox/lv_spinbox.c ****     if((new_step) > 0)
 1529              		.loc 1 228 5 view .LVU514
 229:Drivers/lvgl/src/extra/widgets/spinbox/lv_spinbox.c ****         spinbox->step = new_step;
 1530              		.loc 1 229 5 view .LVU515
 229:Drivers/lvgl/src/extra/widgets/spinbox/lv_spinbox.c ****         spinbox->step = new_step;
 1531              		.loc 1 229 7 is_stmt 0 view .LVU516
 1532 00ca 092D     		cmp	r5, #9
 1533 00cc 05DD     		ble	.L97
 228:Drivers/lvgl/src/extra/widgets/spinbox/lv_spinbox.c ****     if((new_step) > 0)
 1534              		.loc 1 228 13 view .LVU517
 1535 00ce 464B     		ldr	r3, .L134+4
 1536 00d0 EC17     		asrs	r4, r5, #31
 1537              	.LVL146:
 228:Drivers/lvgl/src/extra/widgets/spinbox/lv_spinbox.c ****     if((new_step) > 0)
 1538              		.loc 1 228 13 view .LVU518
 1539 00d2 83FB0553 		smull	r5, r3, r3, r5
 1540              	.LVL147:
 228:Drivers/lvgl/src/extra/widgets/spinbox/lv_spinbox.c ****     if((new_step) > 0)
 1541              		.loc 1 228 13 view .LVU519
 1542 00d6 C4EBA304 		rsb	r4, r4, r3, asr #2
 1543              	.LVL148:
 1544              	.L97:
 228:Drivers/lvgl/src/extra/widgets/spinbox/lv_spinbox.c ****     if((new_step) > 0)
 1545              		.loc 1 228 13 view .LVU520
 1546              	.LBE37:
 1547              	.LBE36:
 379:Drivers/lvgl/src/extra/widgets/spinbox/lv_spinbox.c ****                             lv_spinbox_step_next(obj);
 1548              		.loc 1 379 29 is_stmt 1 view .LVU521
 380:Drivers/lvgl/src/extra/widgets/spinbox/lv_spinbox.c ****                         }
 1549              		.loc 1 380 29 view .LVU522
 1550              	.LBB38:
 1551              	.LBI38:
 223:Drivers/lvgl/src/extra/widgets/spinbox/lv_spinbox.c **** {
 1552              		.loc 1 223 6 view .LVU523
 1553              	.LBB39:
 225:Drivers/lvgl/src/extra/widgets/spinbox/lv_spinbox.c ****     lv_spinbox_t * spinbox = (lv_spinbox_t *)obj;
 1554              		.loc 1 225 5 view .LVU524
 225:Drivers/lvgl/src/extra/widgets/spinbox/lv_spinbox.c ****     lv_spinbox_t * spinbox = (lv_spinbox_t *)obj;
 1555              		.loc 1 225 5 view .LVU525
 225:Drivers/lvgl/src/extra/widgets/spinbox/lv_spinbox.c ****     lv_spinbox_t * spinbox = (lv_spinbox_t *)obj;
 1556              		.loc 1 225 5 view .LVU526
 226:Drivers/lvgl/src/extra/widgets/spinbox/lv_spinbox.c **** 
 1557              		.loc 1 226 5 view .LVU527
 228:Drivers/lvgl/src/extra/widgets/spinbox/lv_spinbox.c ****     if((new_step) > 0)
 1558              		.loc 1 228 5 view .LVU528
 229:Drivers/lvgl/src/extra/widgets/spinbox/lv_spinbox.c ****         spinbox->step = new_step;
 1559              		.loc 1 229 5 view .LVU529
 230:Drivers/lvgl/src/extra/widgets/spinbox/lv_spinbox.c ****     else
ARM GAS  /var/folders/lp/x54gwt890xv47sdkqj1k04q40000gn/T//ccgYd7pL.s 			page 45


 1560              		.loc 1 230 9 view .LVU530
 230:Drivers/lvgl/src/extra/widgets/spinbox/lv_spinbox.c ****     else
 1561              		.loc 1 230 23 is_stmt 0 view .LVU531
 1562 00da 3C67     		str	r4, [r7, #112]
 1563              	.LVL149:
 1564              	.L125:
 234:Drivers/lvgl/src/extra/widgets/spinbox/lv_spinbox.c **** }
 1565              		.loc 1 234 5 is_stmt 1 view .LVU532
 1566 00dc 3846     		mov	r0, r7
 1567              	.LBE39:
 1568              	.LBE38:
 1569              	.LBE49:
 1570              	.LBE59:
 1571              	.LBE65:
 438:Drivers/lvgl/src/extra/widgets/spinbox/lv_spinbox.c **** 
 1572              		.loc 1 438 1 is_stmt 0 view .LVU533
 1573 00de BDE8F840 		pop	{r3, r4, r5, r6, r7, lr}
 1574              		.cfi_remember_state
 1575              		.cfi_restore 14
 1576              		.cfi_restore 7
 1577              		.cfi_restore 6
 1578              		.cfi_restore 5
 1579              		.cfi_restore 4
 1580              		.cfi_restore 3
 1581              		.cfi_def_cfa_offset 0
 1582              	.LVL150:
 1583              	.LBB66:
 1584              	.LBB60:
 1585              	.LBB50:
 1586              	.LBB41:
 1587              	.LBB40:
 234:Drivers/lvgl/src/extra/widgets/spinbox/lv_spinbox.c **** }
 1588              		.loc 1 234 5 view .LVU534
 1589 00e2 FFF7FEBF 		b	lv_spinbox_updatevalue
 1590              	.LVL151:
 1591              	.L109:
 1592              		.cfi_restore_state
 234:Drivers/lvgl/src/extra/widgets/spinbox/lv_spinbox.c **** }
 1593              		.loc 1 234 5 view .LVU535
 1594              	.LBE40:
 1595              	.LBE41:
 1596              	.LBE50:
 1597              	.LBB51:
 435:Drivers/lvgl/src/extra/widgets/spinbox/lv_spinbox.c ****         }
 1598              		.loc 1 435 13 is_stmt 1 view .LVU536
 1599 00e6 3846     		mov	r0, r7
 1600              	.LVL152:
 435:Drivers/lvgl/src/extra/widgets/spinbox/lv_spinbox.c ****         }
 1601              		.loc 1 435 13 is_stmt 0 view .LVU537
 1602              	.LBE51:
 1603              	.LBE60:
 1604              	.LBE66:
 438:Drivers/lvgl/src/extra/widgets/spinbox/lv_spinbox.c **** 
 1605              		.loc 1 438 1 view .LVU538
 1606 00e8 BDE8F840 		pop	{r3, r4, r5, r6, r7, lr}
 1607              		.cfi_remember_state
 1608              		.cfi_restore 14
ARM GAS  /var/folders/lp/x54gwt890xv47sdkqj1k04q40000gn/T//ccgYd7pL.s 			page 46


 1609              		.cfi_restore 7
 1610              		.cfi_restore 6
 1611              		.cfi_restore 5
 1612              		.cfi_restore 4
 1613              		.cfi_restore 3
 1614              		.cfi_def_cfa_offset 0
 1615              	.LVL153:
 1616              	.LBB67:
 1617              	.LBB61:
 1618              	.LBB52:
 435:Drivers/lvgl/src/extra/widgets/spinbox/lv_spinbox.c ****         }
 1619              		.loc 1 435 13 view .LVU539
 1620 00ec FFF7FEBF 		b	lv_spinbox_decrement
 1621              	.LVL154:
 1622              	.L110:
 1623              		.cfi_restore_state
 432:Drivers/lvgl/src/extra/widgets/spinbox/lv_spinbox.c ****         }
 1624              		.loc 1 432 13 is_stmt 1 view .LVU540
 1625 00f0 3846     		mov	r0, r7
 1626              	.LVL155:
 432:Drivers/lvgl/src/extra/widgets/spinbox/lv_spinbox.c ****         }
 1627              		.loc 1 432 13 is_stmt 0 view .LVU541
 1628              	.LBE52:
 1629              	.LBE61:
 1630              	.LBE67:
 438:Drivers/lvgl/src/extra/widgets/spinbox/lv_spinbox.c **** 
 1631              		.loc 1 438 1 view .LVU542
 1632 00f2 BDE8F840 		pop	{r3, r4, r5, r6, r7, lr}
 1633              		.cfi_remember_state
 1634              		.cfi_restore 14
 1635              		.cfi_restore 7
 1636              		.cfi_restore 6
 1637              		.cfi_restore 5
 1638              		.cfi_restore 4
 1639              		.cfi_restore 3
 1640              		.cfi_def_cfa_offset 0
 1641              	.LVL156:
 1642              	.LBB68:
 1643              	.LBB62:
 1644              	.LBB53:
 432:Drivers/lvgl/src/extra/widgets/spinbox/lv_spinbox.c ****         }
 1645              		.loc 1 432 13 view .LVU543
 1646 00f6 FFF7FEBF 		b	lv_spinbox_increment
 1647              	.LVL157:
 1648              	.L106:
 1649              		.cfi_restore_state
 426:Drivers/lvgl/src/extra/widgets/spinbox/lv_spinbox.c ****                 lv_spinbox_decrement(obj);
 1650              		.loc 1 426 13 is_stmt 1 view .LVU544
 426:Drivers/lvgl/src/extra/widgets/spinbox/lv_spinbox.c ****                 lv_spinbox_decrement(obj);
 1651              		.loc 1 426 15 is_stmt 0 view .LVU545
 1652 00fa 042C     		cmp	r4, #4
 1653 00fc F3D0     		beq	.L109
 1654              	.LVL158:
 1655              	.L113:
 429:Drivers/lvgl/src/extra/widgets/spinbox/lv_spinbox.c ****         }
 1656              		.loc 1 429 17 is_stmt 1 view .LVU546
 1657              	.LBB26:
ARM GAS  /var/folders/lp/x54gwt890xv47sdkqj1k04q40000gn/T//ccgYd7pL.s 			page 47


 1658              	.LBI26:
 241:Drivers/lvgl/src/extra/widgets/spinbox/lv_spinbox.c **** {
 1659              		.loc 1 241 6 view .LVU547
 1660              	.LBB27:
 243:Drivers/lvgl/src/extra/widgets/spinbox/lv_spinbox.c ****     lv_spinbox_t * spinbox = (lv_spinbox_t *)obj;
 1661              		.loc 1 243 5 view .LVU548
 243:Drivers/lvgl/src/extra/widgets/spinbox/lv_spinbox.c ****     lv_spinbox_t * spinbox = (lv_spinbox_t *)obj;
 1662              		.loc 1 243 5 view .LVU549
 243:Drivers/lvgl/src/extra/widgets/spinbox/lv_spinbox.c ****     lv_spinbox_t * spinbox = (lv_spinbox_t *)obj;
 1663              		.loc 1 243 5 view .LVU550
 244:Drivers/lvgl/src/extra/widgets/spinbox/lv_spinbox.c ****     int32_t step_limit;
 1664              		.loc 1 244 5 view .LVU551
 245:Drivers/lvgl/src/extra/widgets/spinbox/lv_spinbox.c ****     step_limit       = LV_MAX(spinbox->range_max, (spinbox->range_min < 0 ? (-spinbox->range_min) :
 1665              		.loc 1 245 5 view .LVU552
 246:Drivers/lvgl/src/extra/widgets/spinbox/lv_spinbox.c ****     int32_t new_step = spinbox->step * 10;
 1666              		.loc 1 246 5 view .LVU553
 247:Drivers/lvgl/src/extra/widgets/spinbox/lv_spinbox.c ****     if(new_step <= step_limit) spinbox->step = new_step;
 1667              		.loc 1 247 5 view .LVU554
 247:Drivers/lvgl/src/extra/widgets/spinbox/lv_spinbox.c ****     if(new_step <= step_limit) spinbox->step = new_step;
 1668              		.loc 1 247 13 is_stmt 0 view .LVU555
 1669 00fe D7E91B32 		ldrd	r3, r2, [r7, #108]
 246:Drivers/lvgl/src/extra/widgets/spinbox/lv_spinbox.c ****     int32_t new_step = spinbox->step * 10;
 1670              		.loc 1 246 22 view .LVU556
 1671 0102 B96E     		ldr	r1, [r7, #104]
 246:Drivers/lvgl/src/extra/widgets/spinbox/lv_spinbox.c ****     int32_t new_step = spinbox->step * 10;
 1672              		.loc 1 246 24 view .LVU557
 1673 0104 002B     		cmp	r3, #0
 1674 0106 B8BF     		it	lt
 1675 0108 5B42     		rsblt	r3, r3, #0
 246:Drivers/lvgl/src/extra/widgets/spinbox/lv_spinbox.c ****     int32_t new_step = spinbox->step * 10;
 1676              		.loc 1 246 22 view .LVU558
 1677 010a 8B42     		cmp	r3, r1
 247:Drivers/lvgl/src/extra/widgets/spinbox/lv_spinbox.c ****     if(new_step <= step_limit) spinbox->step = new_step;
 1678              		.loc 1 247 13 view .LVU559
 1679 010c 02EB8202 		add	r2, r2, r2, lsl #2
 246:Drivers/lvgl/src/extra/widgets/spinbox/lv_spinbox.c ****     int32_t new_step = spinbox->step * 10;
 1680              		.loc 1 246 22 view .LVU560
 1681 0110 B8BF     		it	lt
 1682 0112 0B46     		movlt	r3, r1
 248:Drivers/lvgl/src/extra/widgets/spinbox/lv_spinbox.c **** 
 1683              		.loc 1 248 7 view .LVU561
 1684 0114 B3EB420F 		cmp	r3, r2, lsl #1
 247:Drivers/lvgl/src/extra/widgets/spinbox/lv_spinbox.c ****     if(new_step <= step_limit) spinbox->step = new_step;
 1685              		.loc 1 247 13 view .LVU562
 1686 0118 4FEA4201 		lsl	r1, r2, #1
 1687              	.LVL159:
 248:Drivers/lvgl/src/extra/widgets/spinbox/lv_spinbox.c **** 
 1688              		.loc 1 248 5 is_stmt 1 view .LVU563
 248:Drivers/lvgl/src/extra/widgets/spinbox/lv_spinbox.c **** 
 1689              		.loc 1 248 7 is_stmt 0 view .LVU564
 1690 011c DEDB     		blt	.L125
 248:Drivers/lvgl/src/extra/widgets/spinbox/lv_spinbox.c **** 
 1691              		.loc 1 248 32 is_stmt 1 discriminator 1 view .LVU565
 248:Drivers/lvgl/src/extra/widgets/spinbox/lv_spinbox.c **** 
 1692              		.loc 1 248 46 is_stmt 0 discriminator 1 view .LVU566
 1693 011e 3967     		str	r1, [r7, #112]
 250:Drivers/lvgl/src/extra/widgets/spinbox/lv_spinbox.c **** }
ARM GAS  /var/folders/lp/x54gwt890xv47sdkqj1k04q40000gn/T//ccgYd7pL.s 			page 48


 1694              		.loc 1 250 5 is_stmt 1 view .LVU567
 1695 0120 DCE7     		b	.L125
 1696              	.LVL160:
 1697              	.L108:
 250:Drivers/lvgl/src/extra/widgets/spinbox/lv_spinbox.c **** }
 1698              		.loc 1 250 5 is_stmt 0 view .LVU568
 1699              	.LBE27:
 1700              	.LBE26:
 420:Drivers/lvgl/src/extra/widgets/spinbox/lv_spinbox.c ****                 lv_spinbox_increment(obj);
 1701              		.loc 1 420 13 is_stmt 1 view .LVU569
 420:Drivers/lvgl/src/extra/widgets/spinbox/lv_spinbox.c ****                 lv_spinbox_increment(obj);
 1702              		.loc 1 420 15 is_stmt 0 view .LVU570
 1703 0122 042C     		cmp	r4, #4
 1704 0124 E4D0     		beq	.L110
 423:Drivers/lvgl/src/extra/widgets/spinbox/lv_spinbox.c ****         }
 1705              		.loc 1 423 17 is_stmt 1 view .LVU571
 1706              	.LVL161:
 1707              	.LBB28:
 1708              	.LBI28:
 223:Drivers/lvgl/src/extra/widgets/spinbox/lv_spinbox.c **** {
 1709              		.loc 1 223 6 view .LVU572
 1710              	.LBB29:
 225:Drivers/lvgl/src/extra/widgets/spinbox/lv_spinbox.c ****     lv_spinbox_t * spinbox = (lv_spinbox_t *)obj;
 1711              		.loc 1 225 5 view .LVU573
 225:Drivers/lvgl/src/extra/widgets/spinbox/lv_spinbox.c ****     lv_spinbox_t * spinbox = (lv_spinbox_t *)obj;
 1712              		.loc 1 225 5 view .LVU574
 225:Drivers/lvgl/src/extra/widgets/spinbox/lv_spinbox.c ****     lv_spinbox_t * spinbox = (lv_spinbox_t *)obj;
 1713              		.loc 1 225 5 view .LVU575
 226:Drivers/lvgl/src/extra/widgets/spinbox/lv_spinbox.c **** 
 1714              		.loc 1 226 5 view .LVU576
 228:Drivers/lvgl/src/extra/widgets/spinbox/lv_spinbox.c ****     if((new_step) > 0)
 1715              		.loc 1 228 5 view .LVU577
 228:Drivers/lvgl/src/extra/widgets/spinbox/lv_spinbox.c ****     if((new_step) > 0)
 1716              		.loc 1 228 31 is_stmt 0 view .LVU578
 1717 0126 3B6F     		ldr	r3, [r7, #112]
 1718              	.LVL162:
 229:Drivers/lvgl/src/extra/widgets/spinbox/lv_spinbox.c ****         spinbox->step = new_step;
 1719              		.loc 1 229 5 is_stmt 1 view .LVU579
 229:Drivers/lvgl/src/extra/widgets/spinbox/lv_spinbox.c ****         spinbox->step = new_step;
 1720              		.loc 1 229 7 is_stmt 0 view .LVU580
 1721 0128 092B     		cmp	r3, #9
 1722 012a 32DD     		ble	.L117
 228:Drivers/lvgl/src/extra/widgets/spinbox/lv_spinbox.c ****     if((new_step) > 0)
 1723              		.loc 1 228 13 view .LVU581
 1724 012c 2E49     		ldr	r1, .L134+4
 1725 012e DA17     		asrs	r2, r3, #31
 1726 0130 81FB0313 		smull	r1, r3, r1, r3
 1727              	.LVL163:
 228:Drivers/lvgl/src/extra/widgets/spinbox/lv_spinbox.c ****     if((new_step) > 0)
 1728              		.loc 1 228 13 view .LVU582
 1729 0134 C2EBA303 		rsb	r3, r2, r3, asr #2
 1730              	.L112:
 228:Drivers/lvgl/src/extra/widgets/spinbox/lv_spinbox.c ****     if((new_step) > 0)
 1731              		.loc 1 228 13 view .LVU583
 1732 0138 3B67     		str	r3, [r7, #112]
 1733              	.LVL164:
 234:Drivers/lvgl/src/extra/widgets/spinbox/lv_spinbox.c **** }
ARM GAS  /var/folders/lp/x54gwt890xv47sdkqj1k04q40000gn/T//ccgYd7pL.s 			page 49


 1734              		.loc 1 234 5 is_stmt 1 view .LVU584
 1735 013a 3846     		mov	r0, r7
 1736              	.LBE29:
 1737              	.LBE28:
 1738              	.LBE53:
 1739              	.LBE62:
 1740              	.LBE68:
 438:Drivers/lvgl/src/extra/widgets/spinbox/lv_spinbox.c **** 
 1741              		.loc 1 438 1 is_stmt 0 view .LVU585
 1742 013c BDE8F840 		pop	{r3, r4, r5, r6, r7, lr}
 1743              		.cfi_remember_state
 1744              		.cfi_restore 14
 1745              		.cfi_restore 7
 1746              		.cfi_restore 6
 1747              		.cfi_restore 5
 1748              		.cfi_restore 4
 1749              		.cfi_restore 3
 1750              		.cfi_def_cfa_offset 0
 1751              	.LVL165:
 1752              	.LBB69:
 1753              	.LBB63:
 1754              	.LBB54:
 1755              	.LBB32:
 1756              	.LBB30:
 234:Drivers/lvgl/src/extra/widgets/spinbox/lv_spinbox.c **** }
 1757              		.loc 1 234 5 view .LVU586
 1758 0140 FFF7FEBF 		b	lv_spinbox_updatevalue
 1759              	.LVL166:
 1760              	.L131:
 1761              		.cfi_restore_state
 234:Drivers/lvgl/src/extra/widgets/spinbox/lv_spinbox.c **** }
 1762              		.loc 1 234 5 view .LVU587
 1763              	.LBE30:
 1764              	.LBE32:
 1765              	.LBE54:
 1766              	.LBB55:
 1767              	.LBB42:
 393:Drivers/lvgl/src/extra/widgets/spinbox/lv_spinbox.c ****             }
 1768              		.loc 1 393 17 is_stmt 1 view .LVU588
 1769 0144 3846     		mov	r0, r7
 1770              	.LVL167:
 393:Drivers/lvgl/src/extra/widgets/spinbox/lv_spinbox.c ****             }
 1771              		.loc 1 393 17 is_stmt 0 view .LVU589
 1772 0146 FFF7FEFF 		bl	lv_textarea_cursor_left
 1773              	.LVL168:
 403:Drivers/lvgl/src/extra/widgets/spinbox/lv_spinbox.c **** 
 1774              		.loc 1 403 45 view .LVU590
 1775 014a 7B6C     		ldr	r3, [r7, #68]
 1776 014c FD6E     		ldr	r5, [r7, #108]
 1777              	.LVL169:
 1778              	.L100:
 402:Drivers/lvgl/src/extra/widgets/spinbox/lv_spinbox.c ****             uint16_t cp = spinbox->ta.cursor.pos;
 1779              		.loc 1 402 13 is_stmt 1 view .LVU591
 402:Drivers/lvgl/src/extra/widgets/spinbox/lv_spinbox.c ****             uint16_t cp = spinbox->ta.cursor.pos;
 1780              		.loc 1 402 33 is_stmt 0 view .LVU592
 1781 014e 97F87420 		ldrb	r2, [r7, #116]	@ zero_extendqisi2
 1782 0152 02F00F01 		and	r1, r2, #15
ARM GAS  /var/folders/lp/x54gwt890xv47sdkqj1k04q40000gn/T//ccgYd7pL.s 			page 50


 405:Drivers/lvgl/src/extra/widgets/spinbox/lv_spinbox.c ****             uint32_t pos = len - cp;
 1783              		.loc 1 405 15 view .LVU593
 1784 0156 B3EB121F 		cmp	r3, r2, lsr #4
 402:Drivers/lvgl/src/extra/widgets/spinbox/lv_spinbox.c ****             uint16_t cp = spinbox->ta.cursor.pos;
 1785              		.loc 1 402 47 view .LVU594
 1786 015a 01F1FF31 		add	r1, r1, #-1
 1787              	.LVL170:
 403:Drivers/lvgl/src/extra/widgets/spinbox/lv_spinbox.c **** 
 1788              		.loc 1 403 13 is_stmt 1 view .LVU595
 403:Drivers/lvgl/src/extra/widgets/spinbox/lv_spinbox.c **** 
 1789              		.loc 1 403 22 is_stmt 0 view .LVU596
 1790 015e 98B2     		uxth	r0, r3
 1791              	.LVL171:
 405:Drivers/lvgl/src/extra/widgets/spinbox/lv_spinbox.c ****             uint32_t pos = len - cp;
 1792              		.loc 1 405 13 is_stmt 1 view .LVU597
 405:Drivers/lvgl/src/extra/widgets/spinbox/lv_spinbox.c ****             uint32_t pos = len - cp;
 1793              		.loc 1 405 15 is_stmt 0 view .LVU598
 1794 0160 04D9     		bls	.L103
 405:Drivers/lvgl/src/extra/widgets/spinbox/lv_spinbox.c ****             uint32_t pos = len - cp;
 1795              		.loc 1 405 64 discriminator 1 view .LVU599
 1796 0162 0F2A     		cmp	r2, #15
 405:Drivers/lvgl/src/extra/widgets/spinbox/lv_spinbox.c ****             uint32_t pos = len - cp;
 1797              		.loc 1 405 96 is_stmt 1 discriminator 2 view .LVU600
 405:Drivers/lvgl/src/extra/widgets/spinbox/lv_spinbox.c ****             uint32_t pos = len - cp;
 1798              		.loc 1 405 98 is_stmt 0 discriminator 2 view .LVU601
 1799 0164 84BF     		itt	hi
 1800 0166 00F1FF30 		addhi	r0, r0, #-1
 1801              	.LVL172:
 405:Drivers/lvgl/src/extra/widgets/spinbox/lv_spinbox.c ****             uint32_t pos = len - cp;
 1802              		.loc 1 405 98 discriminator 2 view .LVU602
 1803 016a 80B2     		uxthhi	r0, r0
 1804              	.LVL173:
 1805              	.L103:
 406:Drivers/lvgl/src/extra/widgets/spinbox/lv_spinbox.c **** 
 1806              		.loc 1 406 13 is_stmt 1 view .LVU603
 406:Drivers/lvgl/src/extra/widgets/spinbox/lv_spinbox.c **** 
 1807              		.loc 1 406 22 is_stmt 0 view .LVU604
 1808 016c 091A     		subs	r1, r1, r0
 1809              	.LVL174:
 408:Drivers/lvgl/src/extra/widgets/spinbox/lv_spinbox.c **** 
 1810              		.loc 1 408 13 is_stmt 1 view .LVU605
 408:Drivers/lvgl/src/extra/widgets/spinbox/lv_spinbox.c **** 
 1811              		.loc 1 408 15 is_stmt 0 view .LVU606
 1812 016e 002D     		cmp	r5, #0
 408:Drivers/lvgl/src/extra/widgets/spinbox/lv_spinbox.c **** 
 1813              		.loc 1 408 40 is_stmt 1 discriminator 1 view .LVU607
 408:Drivers/lvgl/src/extra/widgets/spinbox/lv_spinbox.c **** 
 1814              		.loc 1 408 43 is_stmt 0 discriminator 1 view .LVU608
 1815 0170 B8BF     		it	lt
 1816 0172 0131     		addlt	r1, r1, #1
 1817              	.LVL175:
 408:Drivers/lvgl/src/extra/widgets/spinbox/lv_spinbox.c **** 
 1818              		.loc 1 408 43 discriminator 1 view .LVU609
 1819 0174 87E7     		b	.L104
 1820              	.LVL176:
 1821              	.L132:
 396:Drivers/lvgl/src/extra/widgets/spinbox/lv_spinbox.c ****             }
ARM GAS  /var/folders/lp/x54gwt890xv47sdkqj1k04q40000gn/T//ccgYd7pL.s 			page 51


 1822              		.loc 1 396 17 is_stmt 1 view .LVU610
 1823 0176 591E     		subs	r1, r3, #1
 1824 0178 3846     		mov	r0, r7
 1825              	.LVL177:
 396:Drivers/lvgl/src/extra/widgets/spinbox/lv_spinbox.c ****             }
 1826              		.loc 1 396 17 is_stmt 0 view .LVU611
 1827 017a FFF7FEFF 		bl	lv_textarea_set_cursor_pos
 1828              	.LVL178:
 403:Drivers/lvgl/src/extra/widgets/spinbox/lv_spinbox.c **** 
 1829              		.loc 1 403 45 view .LVU612
 1830 017e 7B6C     		ldr	r3, [r7, #68]
 1831 0180 FD6E     		ldr	r5, [r7, #108]
 1832              	.LVL179:
 403:Drivers/lvgl/src/extra/widgets/spinbox/lv_spinbox.c **** 
 1833              		.loc 1 403 45 view .LVU613
 1834 0182 E4E7     		b	.L100
 1835              	.LVL180:
 1836              	.L133:
 399:Drivers/lvgl/src/extra/widgets/spinbox/lv_spinbox.c ****             }
 1837              		.loc 1 399 17 is_stmt 1 view .LVU614
 1838 0184 2146     		mov	r1, r4
 1839 0186 3846     		mov	r0, r7
 1840              	.LVL181:
 399:Drivers/lvgl/src/extra/widgets/spinbox/lv_spinbox.c ****             }
 1841              		.loc 1 399 17 is_stmt 0 view .LVU615
 1842 0188 FFF7FEFF 		bl	lv_textarea_set_cursor_pos
 1843              	.LVL182:
 403:Drivers/lvgl/src/extra/widgets/spinbox/lv_spinbox.c **** 
 1844              		.loc 1 403 45 view .LVU616
 1845 018c 7B6C     		ldr	r3, [r7, #68]
 1846 018e FD6E     		ldr	r5, [r7, #108]
 1847 0190 DDE7     		b	.L100
 1848              	.LVL183:
 1849              	.L117:
 403:Drivers/lvgl/src/extra/widgets/spinbox/lv_spinbox.c **** 
 1850              		.loc 1 403 45 view .LVU617
 1851              	.LBE42:
 1852              	.LBE55:
 1853              	.LBB56:
 1854              	.LBB33:
 1855              	.LBB31:
 232:Drivers/lvgl/src/extra/widgets/spinbox/lv_spinbox.c **** 
 1856              		.loc 1 232 23 view .LVU618
 1857 0192 0123     		movs	r3, #1
 1858              	.LVL184:
 232:Drivers/lvgl/src/extra/widgets/spinbox/lv_spinbox.c **** 
 1859              		.loc 1 232 23 view .LVU619
 1860 0194 D0E7     		b	.L112
 1861              	.LVL185:
 1862              	.L93:
 232:Drivers/lvgl/src/extra/widgets/spinbox/lv_spinbox.c **** 
 1863              		.loc 1 232 23 view .LVU620
 1864              	.LBE31:
 1865              	.LBE33:
 1866              	.LBE56:
 1867              	.LBB57:
 374:Drivers/lvgl/src/extra/widgets/spinbox/lv_spinbox.c ****                             lv_spinbox_step_prev(obj);
ARM GAS  /var/folders/lp/x54gwt890xv47sdkqj1k04q40000gn/T//ccgYd7pL.s 			page 52


 1868              		.loc 1 374 25 is_stmt 1 view .LVU621
 374:Drivers/lvgl/src/extra/widgets/spinbox/lv_spinbox.c ****                             lv_spinbox_step_prev(obj);
 1869              		.loc 1 374 44 is_stmt 0 view .LVU622
 1870 0196 013A     		subs	r2, r2, #1
 1871 0198 0A20     		movs	r0, #10
 1872 019a 0021     		movs	r1, #0
 1873 019c FFF7FEFF 		bl	lv_pow
 1874              	.LVL186:
 374:Drivers/lvgl/src/extra/widgets/spinbox/lv_spinbox.c ****                             lv_spinbox_step_prev(obj);
 1875              		.loc 1 374 35 view .LVU623
 1876 01a0 EB17     		asrs	r3, r5, #31
 374:Drivers/lvgl/src/extra/widgets/spinbox/lv_spinbox.c ****                             lv_spinbox_step_prev(obj);
 1877              		.loc 1 374 27 discriminator 1 view .LVU624
 1878 01a2 8542     		cmp	r5, r0
 1879 01a4 8B41     		sbcs	r3, r3, r1
 1880 01a6 98DA     		bge	.L97
 1881 01a8 A9E7     		b	.L113
 1882              	.L94:
 369:Drivers/lvgl/src/extra/widgets/spinbox/lv_spinbox.c ****                             lv_spinbox_step_prev(obj);
 1883              		.loc 1 369 29 is_stmt 1 view .LVU625
 369:Drivers/lvgl/src/extra/widgets/spinbox/lv_spinbox.c ****                             lv_spinbox_step_prev(obj);
 1884              		.loc 1 369 45 is_stmt 0 view .LVU626
 1885 01aa 023A     		subs	r2, r2, #2
 1886 01ac 0A20     		movs	r0, #10
 1887 01ae 0021     		movs	r1, #0
 1888 01b0 FFF7FEFF 		bl	lv_pow
 1889              	.LVL187:
 1890              	.LBB43:
 1891              	.LBB44:
 246:Drivers/lvgl/src/extra/widgets/spinbox/lv_spinbox.c ****     int32_t new_step = spinbox->step * 10;
 1892              		.loc 1 246 24 view .LVU627
 1893 01b4 FA6E     		ldr	r2, [r7, #108]
 246:Drivers/lvgl/src/extra/widgets/spinbox/lv_spinbox.c ****     int32_t new_step = spinbox->step * 10;
 1894              		.loc 1 246 22 view .LVU628
 1895 01b6 BC6E     		ldr	r4, [r7, #104]
 1896              	.LVL188:
 246:Drivers/lvgl/src/extra/widgets/spinbox/lv_spinbox.c ****     int32_t new_step = spinbox->step * 10;
 1897              		.loc 1 246 24 view .LVU629
 1898 01b8 002A     		cmp	r2, #0
 1899 01ba B8BF     		it	lt
 1900 01bc 5242     		rsblt	r2, r2, #0
 246:Drivers/lvgl/src/extra/widgets/spinbox/lv_spinbox.c ****     int32_t new_step = spinbox->step * 10;
 1901              		.loc 1 246 22 view .LVU630
 1902 01be A242     		cmp	r2, r4
 247:Drivers/lvgl/src/extra/widgets/spinbox/lv_spinbox.c ****     if(new_step <= step_limit) spinbox->step = new_step;
 1903              		.loc 1 247 13 view .LVU631
 1904 01c0 00EB8001 		add	r1, r0, r0, lsl #2
 246:Drivers/lvgl/src/extra/widgets/spinbox/lv_spinbox.c ****     int32_t new_step = spinbox->step * 10;
 1905              		.loc 1 246 22 view .LVU632
 1906 01c4 B8BF     		it	lt
 1907 01c6 2246     		movlt	r2, r4
 1908              	.LBE44:
 1909              	.LBE43:
 369:Drivers/lvgl/src/extra/widgets/spinbox/lv_spinbox.c ****                             lv_spinbox_step_prev(obj);
 1910              		.loc 1 369 45 view .LVU633
 1911 01c8 0346     		mov	r3, r0
 370:Drivers/lvgl/src/extra/widgets/spinbox/lv_spinbox.c ****                         }
ARM GAS  /var/folders/lp/x54gwt890xv47sdkqj1k04q40000gn/T//ccgYd7pL.s 			page 53


 1912              		.loc 1 370 29 is_stmt 1 view .LVU634
 1913              	.LVL189:
 1914              	.LBB47:
 1915              	.LBI43:
 241:Drivers/lvgl/src/extra/widgets/spinbox/lv_spinbox.c **** {
 1916              		.loc 1 241 6 view .LVU635
 1917              	.LBB45:
 243:Drivers/lvgl/src/extra/widgets/spinbox/lv_spinbox.c ****     lv_spinbox_t * spinbox = (lv_spinbox_t *)obj;
 1918              		.loc 1 243 5 view .LVU636
 243:Drivers/lvgl/src/extra/widgets/spinbox/lv_spinbox.c ****     lv_spinbox_t * spinbox = (lv_spinbox_t *)obj;
 1919              		.loc 1 243 5 view .LVU637
 243:Drivers/lvgl/src/extra/widgets/spinbox/lv_spinbox.c ****     lv_spinbox_t * spinbox = (lv_spinbox_t *)obj;
 1920              		.loc 1 243 5 view .LVU638
 244:Drivers/lvgl/src/extra/widgets/spinbox/lv_spinbox.c ****     int32_t step_limit;
 1921              		.loc 1 244 5 view .LVU639
 245:Drivers/lvgl/src/extra/widgets/spinbox/lv_spinbox.c ****     step_limit       = LV_MAX(spinbox->range_max, (spinbox->range_min < 0 ? (-spinbox->range_min) :
 1922              		.loc 1 245 5 view .LVU640
 246:Drivers/lvgl/src/extra/widgets/spinbox/lv_spinbox.c ****     int32_t new_step = spinbox->step * 10;
 1923              		.loc 1 246 5 view .LVU641
 247:Drivers/lvgl/src/extra/widgets/spinbox/lv_spinbox.c ****     if(new_step <= step_limit) spinbox->step = new_step;
 1924              		.loc 1 247 5 view .LVU642
 248:Drivers/lvgl/src/extra/widgets/spinbox/lv_spinbox.c **** 
 1925              		.loc 1 248 46 is_stmt 0 discriminator 1 view .LVU643
 1926 01ca B2EB410F 		cmp	r2, r1, lsl #1
 247:Drivers/lvgl/src/extra/widgets/spinbox/lv_spinbox.c ****     if(new_step <= step_limit) spinbox->step = new_step;
 1927              		.loc 1 247 13 view .LVU644
 1928 01ce 4FEA4100 		lsl	r0, r1, #1
 1929              	.LVL190:
 248:Drivers/lvgl/src/extra/widgets/spinbox/lv_spinbox.c **** 
 1930              		.loc 1 248 5 is_stmt 1 view .LVU645
 248:Drivers/lvgl/src/extra/widgets/spinbox/lv_spinbox.c **** 
 1931              		.loc 1 248 46 is_stmt 0 discriminator 1 view .LVU646
 1932 01d2 A8BF     		it	ge
 1933 01d4 0346     		movge	r3, r0
 1934 01d6 3B67     		str	r3, [r7, #112]
 250:Drivers/lvgl/src/extra/widgets/spinbox/lv_spinbox.c **** }
 1935              		.loc 1 250 5 is_stmt 1 view .LVU647
 1936 01d8 3846     		mov	r0, r7
 1937              	.LVL191:
 250:Drivers/lvgl/src/extra/widgets/spinbox/lv_spinbox.c **** }
 1938              		.loc 1 250 5 is_stmt 0 view .LVU648
 1939              	.LBE45:
 1940              	.LBE47:
 1941              	.LBE57:
 1942              	.LBE63:
 1943              	.LBE69:
 438:Drivers/lvgl/src/extra/widgets/spinbox/lv_spinbox.c **** 
 1944              		.loc 1 438 1 view .LVU649
 1945 01da BDE8F840 		pop	{r3, r4, r5, r6, r7, lr}
 1946              		.cfi_restore 14
 1947              		.cfi_restore 7
 1948              		.cfi_restore 6
 1949              		.cfi_restore 5
 1950              		.cfi_restore 4
 1951              		.cfi_restore 3
 1952              		.cfi_def_cfa_offset 0
 1953              	.LVL192:
ARM GAS  /var/folders/lp/x54gwt890xv47sdkqj1k04q40000gn/T//ccgYd7pL.s 			page 54


 1954              	.LBB70:
 1955              	.LBB64:
 1956              	.LBB58:
 1957              	.LBB48:
 1958              	.LBB46:
 250:Drivers/lvgl/src/extra/widgets/spinbox/lv_spinbox.c **** }
 1959              		.loc 1 250 5 view .LVU650
 1960 01de FFF7FEBF 		b	lv_spinbox_updatevalue
 1961              	.LVL193:
 1962              	.L135:
 250:Drivers/lvgl/src/extra/widgets/spinbox/lv_spinbox.c **** }
 1963              		.loc 1 250 5 view .LVU651
 1964 01e2 00BF     		.align	2
 1965              	.L134:
 1966 01e4 00000000 		.word	lv_spinbox_class
 1967 01e8 67666666 		.word	1717986919
 1968              	.LBE46:
 1969              	.LBE48:
 1970              	.LBE58:
 1971              	.LBE64:
 1972              	.LBE70:
 1973              		.cfi_endproc
 1974              	.LFE220:
 1976              		.global	lv_spinbox_class
 1977              		.section	.rodata.lv_spinbox_class,"a"
 1978              		.align	2
 1981              	lv_spinbox_class:
 1982 0000 00000000 		.word	lv_textarea_class
 1983 0004 00000000 		.word	lv_spinbox_constructor
 1984 0008 00000000 		.space	8
 1984      00000000 
 1985 0010 00000000 		.word	lv_spinbox_event
 1986 0014 8200     		.short	130
 1987 0016 0000     		.space	2
 1988 0018 81       		.byte	129
 1989 0019 07       		.byte	7
 1990 001a 00       		.byte	0
 1991 001b 00       		.space	1
 1992              		.text
 1993              	.Letext0:
 1994              		.file 2 "/Users/jr/Library/Application Support/Code/User/globalStorage/bmd.stm32-for-vscode/@xpack
 1995              		.file 3 "/Users/jr/Library/Application Support/Code/User/globalStorage/bmd.stm32-for-vscode/@xpack
 1996              		.file 4 "Drivers/lvgl/src/extra/widgets/spinbox/../../../../src/misc/lv_types.h"
 1997              		.file 5 "Drivers/lvgl/src/extra/widgets/spinbox/../../../../src/misc/lv_timer.h"
 1998              		.file 6 "/Users/jr/Library/Application Support/Code/User/globalStorage/bmd.stm32-for-vscode/@xpack
 1999              		.file 7 "Drivers/lvgl/src/extra/widgets/spinbox/../../../../src/hal/../draw/../misc/../font/../mis
 2000              		.file 8 "Drivers/lvgl/src/extra/widgets/spinbox/../../../../src/hal/../draw/../misc/../font/lv_fon
 2001              		.file 9 "Drivers/lvgl/src/extra/widgets/spinbox/../../../../src/hal/../draw/../misc/lv_color.h"
 2002              		.file 10 "Drivers/lvgl/src/extra/widgets/spinbox/../../../../src/hal/../draw/../misc/lv_txt.h"
 2003              		.file 11 "Drivers/lvgl/src/extra/widgets/spinbox/../../../../src/hal/../draw/../misc/lv_bidi.h"
 2004              		.file 12 "Drivers/lvgl/src/extra/widgets/spinbox/../../../../src/hal/../draw/../misc/lv_style.h"
 2005              		.file 13 "Drivers/lvgl/src/extra/widgets/spinbox/../../../../src/hal/../draw/lv_img_buf.h"
 2006              		.file 14 "Drivers/lvgl/src/extra/widgets/spinbox/../../../../src/core/lv_obj.h"
 2007              		.file 15 "Drivers/lvgl/src/extra/widgets/spinbox/../../../../src/hal/../draw/lv_draw_rect.h"
 2008              		.file 16 "Drivers/lvgl/src/extra/widgets/spinbox/../../../../src/hal/../draw/lv_draw_label.h"
 2009              		.file 17 "Drivers/lvgl/src/extra/widgets/spinbox/../../../../src/hal/../draw/lv_draw_img.h"
 2010              		.file 18 "Drivers/lvgl/src/extra/widgets/spinbox/../../../../src/hal/../draw/lv_draw_line.h"
ARM GAS  /var/folders/lp/x54gwt890xv47sdkqj1k04q40000gn/T//ccgYd7pL.s 			page 55


 2011              		.file 19 "Drivers/lvgl/src/extra/widgets/spinbox/../../../../src/hal/../draw/lv_draw_arc.h"
 2012              		.file 20 "Drivers/lvgl/src/extra/widgets/spinbox/../../../../src/hal/../draw/lv_draw_layer.h"
 2013              		.file 21 "Drivers/lvgl/src/extra/widgets/spinbox/../../../../src/hal/../draw/lv_draw.h"
 2014              		.file 22 "Drivers/lvgl/src/extra/widgets/spinbox/../../../../src/hal/../misc/lv_ll.h"
 2015              		.file 23 "Drivers/lvgl/src/extra/widgets/spinbox/../../../../src/hal/lv_hal_disp.h"
 2016              		.file 24 "Drivers/lvgl/src/extra/widgets/spinbox/../../../../src/core/lv_theme.h"
 2017              		.file 25 "Drivers/lvgl/src/extra/widgets/spinbox/../../../../src/hal/lv_hal_indev.h"
 2018              		.file 26 "Drivers/lvgl/src/extra/widgets/spinbox/../../../../src/core/lv_group.h"
 2019              		.file 27 "Drivers/lvgl/src/extra/widgets/spinbox/../../../../src/core/lv_obj_scroll.h"
 2020              		.file 28 "Drivers/lvgl/src/extra/widgets/spinbox/../../../../src/core/lv_obj_style.h"
 2021              		.file 29 "Drivers/lvgl/src/extra/widgets/spinbox/../../../../src/core/lv_obj_class.h"
 2022              		.file 30 "Drivers/lvgl/src/extra/widgets/spinbox/../../../../src/core/lv_event.h"
 2023              		.file 31 "Drivers/lvgl/src/extra/widgets/spinbox/../../../../src/widgets/lv_bar.h"
 2024              		.file 32 "Drivers/lvgl/src/extra/widgets/spinbox/../../../../src/widgets/lv_textarea.h"
 2025              		.file 33 "Drivers/lvgl/src/extra/widgets/spinbox/../../../../src/extra/widgets/imgbtn/lv_imgbtn.h"
 2026              		.file 34 "Drivers/lvgl/src/extra/widgets/spinbox/lv_spinbox.h"
 2027              		.file 35 "Drivers/lvgl/src/extra/widgets/spinbox/../../../../src/misc/lv_printf.h"
 2028              		.file 36 "Drivers/lvgl/src/extra/widgets/spinbox/../../../../src/misc/lv_mem.h"
 2029              		.file 37 "/Users/jr/Library/Application Support/Code/User/globalStorage/bmd.stm32-for-vscode/@xpac
 2030              		.file 38 "Drivers/lvgl/src/extra/widgets/spinbox/../../../../src/misc/lv_math.h"
 2031              		.file 39 "Drivers/lvgl/src/extra/widgets/spinbox/../../../../src/core/lv_indev.h"
 2032              		.file 40 "<built-in>"
ARM GAS  /var/folders/lp/x54gwt890xv47sdkqj1k04q40000gn/T//ccgYd7pL.s 			page 56

