ARM GAS  /var/folders/lp/x54gwt890xv47sdkqj1k04q40000gn/T//cckjqg7q.s 			page 1


   1              		.cpu cortex-m4
   2              		.arch armv7e-m
   3              		.fpu fpv4-sp-d16
   4              		.eabi_attribute 27, 1
   5              		.eabi_attribute 28, 1
   6              		.eabi_attribute 20, 1
   7              		.eabi_attribute 21, 1
   8              		.eabi_attribute 23, 3
   9              		.eabi_attribute 24, 1
  10              		.eabi_attribute 25, 1
  11              		.eabi_attribute 26, 1
  12              		.eabi_attribute 30, 2
  13              		.eabi_attribute 34, 1
  14              		.eabi_attribute 18, 4
  15              		.file	"lv_span.c"
  16              		.text
  17              	.Ltext0:
  18              		.cfi_sections	.debug_frame
  19              		.file 1 "Drivers/lvgl/src/extra/widgets/span/lv_span.c"
  20              		.section	.text.lv_spangroup_destructor,"ax",%progbits
  21              		.align	1
  22              		.p2align 2,,3
  23              		.syntax unified
  24              		.thumb
  25              		.thumb_func
  27              	lv_spangroup_destructor:
  28              	.LVL0:
  29              	.LFB226:
   1:Drivers/lvgl/src/extra/widgets/span/lv_span.c **** /**
   2:Drivers/lvgl/src/extra/widgets/span/lv_span.c ****  * @file lv_span.c
   3:Drivers/lvgl/src/extra/widgets/span/lv_span.c ****  *
   4:Drivers/lvgl/src/extra/widgets/span/lv_span.c ****  */
   5:Drivers/lvgl/src/extra/widgets/span/lv_span.c **** 
   6:Drivers/lvgl/src/extra/widgets/span/lv_span.c **** /*********************
   7:Drivers/lvgl/src/extra/widgets/span/lv_span.c ****  *      INCLUDES
   8:Drivers/lvgl/src/extra/widgets/span/lv_span.c ****  *********************/
   9:Drivers/lvgl/src/extra/widgets/span/lv_span.c **** #include "lv_span.h"
  10:Drivers/lvgl/src/extra/widgets/span/lv_span.c **** 
  11:Drivers/lvgl/src/extra/widgets/span/lv_span.c **** #if LV_USE_SPAN != 0
  12:Drivers/lvgl/src/extra/widgets/span/lv_span.c **** 
  13:Drivers/lvgl/src/extra/widgets/span/lv_span.c **** #include "../../../misc/lv_assert.h"
  14:Drivers/lvgl/src/extra/widgets/span/lv_span.c **** 
  15:Drivers/lvgl/src/extra/widgets/span/lv_span.c **** /*********************
  16:Drivers/lvgl/src/extra/widgets/span/lv_span.c ****  *      DEFINES
  17:Drivers/lvgl/src/extra/widgets/span/lv_span.c ****  *********************/
  18:Drivers/lvgl/src/extra/widgets/span/lv_span.c **** #define MY_CLASS &lv_spangroup_class
  19:Drivers/lvgl/src/extra/widgets/span/lv_span.c **** 
  20:Drivers/lvgl/src/extra/widgets/span/lv_span.c **** /**********************
  21:Drivers/lvgl/src/extra/widgets/span/lv_span.c ****  *      TYPEDEFS
  22:Drivers/lvgl/src/extra/widgets/span/lv_span.c ****  **********************/
  23:Drivers/lvgl/src/extra/widgets/span/lv_span.c **** typedef struct {
  24:Drivers/lvgl/src/extra/widgets/span/lv_span.c ****     lv_span_t * span;
  25:Drivers/lvgl/src/extra/widgets/span/lv_span.c ****     const char * txt;
  26:Drivers/lvgl/src/extra/widgets/span/lv_span.c ****     const lv_font_t * font;
  27:Drivers/lvgl/src/extra/widgets/span/lv_span.c ****     uint16_t   bytes;
  28:Drivers/lvgl/src/extra/widgets/span/lv_span.c ****     lv_coord_t txt_w;
  29:Drivers/lvgl/src/extra/widgets/span/lv_span.c ****     lv_coord_t line_h;
ARM GAS  /var/folders/lp/x54gwt890xv47sdkqj1k04q40000gn/T//cckjqg7q.s 			page 2


  30:Drivers/lvgl/src/extra/widgets/span/lv_span.c ****     lv_coord_t letter_space;
  31:Drivers/lvgl/src/extra/widgets/span/lv_span.c **** } lv_snippet_t;
  32:Drivers/lvgl/src/extra/widgets/span/lv_span.c **** 
  33:Drivers/lvgl/src/extra/widgets/span/lv_span.c **** struct _snippet_stack {
  34:Drivers/lvgl/src/extra/widgets/span/lv_span.c ****     lv_snippet_t    stack[LV_SPAN_SNIPPET_STACK_SIZE];
  35:Drivers/lvgl/src/extra/widgets/span/lv_span.c ****     uint16_t        index;
  36:Drivers/lvgl/src/extra/widgets/span/lv_span.c **** };
  37:Drivers/lvgl/src/extra/widgets/span/lv_span.c **** 
  38:Drivers/lvgl/src/extra/widgets/span/lv_span.c **** /**********************
  39:Drivers/lvgl/src/extra/widgets/span/lv_span.c ****  *  STATIC PROTOTYPES
  40:Drivers/lvgl/src/extra/widgets/span/lv_span.c ****  **********************/
  41:Drivers/lvgl/src/extra/widgets/span/lv_span.c **** static void lv_spangroup_destructor(const lv_obj_class_t * class_p, lv_obj_t * obj);
  42:Drivers/lvgl/src/extra/widgets/span/lv_span.c **** static void lv_spangroup_constructor(const lv_obj_class_t * class_p, lv_obj_t * obj);
  43:Drivers/lvgl/src/extra/widgets/span/lv_span.c **** static void lv_spangroup_event(const lv_obj_class_t * class_p, lv_event_t * e);
  44:Drivers/lvgl/src/extra/widgets/span/lv_span.c **** static void draw_main(lv_event_t * e);
  45:Drivers/lvgl/src/extra/widgets/span/lv_span.c **** static void refresh_self_size(lv_obj_t * obj);
  46:Drivers/lvgl/src/extra/widgets/span/lv_span.c **** 
  47:Drivers/lvgl/src/extra/widgets/span/lv_span.c **** static const lv_font_t * lv_span_get_style_text_font(lv_obj_t * par, lv_span_t * span);
  48:Drivers/lvgl/src/extra/widgets/span/lv_span.c **** static lv_coord_t lv_span_get_style_text_letter_space(lv_obj_t * par, lv_span_t * span);
  49:Drivers/lvgl/src/extra/widgets/span/lv_span.c **** static lv_color_t lv_span_get_style_text_color(lv_obj_t * par, lv_span_t * span);
  50:Drivers/lvgl/src/extra/widgets/span/lv_span.c **** static lv_opa_t lv_span_get_style_text_opa(lv_obj_t * par, lv_span_t * span);
  51:Drivers/lvgl/src/extra/widgets/span/lv_span.c **** static lv_opa_t lv_span_get_style_text_blend_mode(lv_obj_t * par, lv_span_t * span);
  52:Drivers/lvgl/src/extra/widgets/span/lv_span.c **** static int32_t lv_span_get_style_text_decor(lv_obj_t * par, lv_span_t * span);
  53:Drivers/lvgl/src/extra/widgets/span/lv_span.c **** 
  54:Drivers/lvgl/src/extra/widgets/span/lv_span.c **** static inline void span_text_check(const char ** text);
  55:Drivers/lvgl/src/extra/widgets/span/lv_span.c **** static void lv_draw_span(lv_obj_t * obj, lv_draw_ctx_t * draw_ctx);
  56:Drivers/lvgl/src/extra/widgets/span/lv_span.c **** static bool lv_txt_get_snippet(const char * txt, const lv_font_t * font, lv_coord_t letter_space,
  57:Drivers/lvgl/src/extra/widgets/span/lv_span.c ****                                lv_coord_t max_width, lv_text_flag_t flag, lv_coord_t * use_width,
  58:Drivers/lvgl/src/extra/widgets/span/lv_span.c ****                                uint32_t * end_ofs);
  59:Drivers/lvgl/src/extra/widgets/span/lv_span.c **** 
  60:Drivers/lvgl/src/extra/widgets/span/lv_span.c **** static void lv_snippet_clear(void);
  61:Drivers/lvgl/src/extra/widgets/span/lv_span.c **** static uint16_t lv_get_snippet_cnt(void);
  62:Drivers/lvgl/src/extra/widgets/span/lv_span.c **** static void lv_snippet_push(lv_snippet_t * item);
  63:Drivers/lvgl/src/extra/widgets/span/lv_span.c **** static lv_snippet_t * lv_get_snippet(uint16_t index);
  64:Drivers/lvgl/src/extra/widgets/span/lv_span.c **** static lv_coord_t convert_indent_pct(lv_obj_t * spans, lv_coord_t width);
  65:Drivers/lvgl/src/extra/widgets/span/lv_span.c **** 
  66:Drivers/lvgl/src/extra/widgets/span/lv_span.c **** /**********************
  67:Drivers/lvgl/src/extra/widgets/span/lv_span.c ****  *  STATIC VARIABLES
  68:Drivers/lvgl/src/extra/widgets/span/lv_span.c ****  **********************/
  69:Drivers/lvgl/src/extra/widgets/span/lv_span.c **** static struct _snippet_stack snippet_stack;
  70:Drivers/lvgl/src/extra/widgets/span/lv_span.c **** 
  71:Drivers/lvgl/src/extra/widgets/span/lv_span.c **** const lv_obj_class_t lv_spangroup_class  = {
  72:Drivers/lvgl/src/extra/widgets/span/lv_span.c ****     .base_class = &lv_obj_class,
  73:Drivers/lvgl/src/extra/widgets/span/lv_span.c ****     .constructor_cb = lv_spangroup_constructor,
  74:Drivers/lvgl/src/extra/widgets/span/lv_span.c ****     .destructor_cb = lv_spangroup_destructor,
  75:Drivers/lvgl/src/extra/widgets/span/lv_span.c ****     .event_cb = lv_spangroup_event,
  76:Drivers/lvgl/src/extra/widgets/span/lv_span.c ****     .instance_size = sizeof(lv_spangroup_t),
  77:Drivers/lvgl/src/extra/widgets/span/lv_span.c ****     .width_def = LV_SIZE_CONTENT,
  78:Drivers/lvgl/src/extra/widgets/span/lv_span.c ****     .height_def = LV_SIZE_CONTENT,
  79:Drivers/lvgl/src/extra/widgets/span/lv_span.c **** };
  80:Drivers/lvgl/src/extra/widgets/span/lv_span.c **** 
  81:Drivers/lvgl/src/extra/widgets/span/lv_span.c **** /**********************
  82:Drivers/lvgl/src/extra/widgets/span/lv_span.c ****  *      MACROS
  83:Drivers/lvgl/src/extra/widgets/span/lv_span.c ****  **********************/
  84:Drivers/lvgl/src/extra/widgets/span/lv_span.c **** 
  85:Drivers/lvgl/src/extra/widgets/span/lv_span.c **** /**********************
  86:Drivers/lvgl/src/extra/widgets/span/lv_span.c ****  *   GLOBAL FUNCTIONS
ARM GAS  /var/folders/lp/x54gwt890xv47sdkqj1k04q40000gn/T//cckjqg7q.s 			page 3


  87:Drivers/lvgl/src/extra/widgets/span/lv_span.c ****  **********************/
  88:Drivers/lvgl/src/extra/widgets/span/lv_span.c **** 
  89:Drivers/lvgl/src/extra/widgets/span/lv_span.c **** lv_obj_t * lv_spangroup_create(lv_obj_t * par)
  90:Drivers/lvgl/src/extra/widgets/span/lv_span.c **** {
  91:Drivers/lvgl/src/extra/widgets/span/lv_span.c ****     lv_obj_t * obj = lv_obj_class_create_obj(&lv_spangroup_class, par);
  92:Drivers/lvgl/src/extra/widgets/span/lv_span.c ****     lv_obj_class_init_obj(obj);
  93:Drivers/lvgl/src/extra/widgets/span/lv_span.c ****     return obj;
  94:Drivers/lvgl/src/extra/widgets/span/lv_span.c **** }
  95:Drivers/lvgl/src/extra/widgets/span/lv_span.c **** 
  96:Drivers/lvgl/src/extra/widgets/span/lv_span.c **** lv_span_t * lv_spangroup_new_span(lv_obj_t * obj)
  97:Drivers/lvgl/src/extra/widgets/span/lv_span.c **** {
  98:Drivers/lvgl/src/extra/widgets/span/lv_span.c ****     if(obj == NULL) {
  99:Drivers/lvgl/src/extra/widgets/span/lv_span.c ****         return NULL;
 100:Drivers/lvgl/src/extra/widgets/span/lv_span.c ****     }
 101:Drivers/lvgl/src/extra/widgets/span/lv_span.c **** 
 102:Drivers/lvgl/src/extra/widgets/span/lv_span.c ****     LV_ASSERT_OBJ(obj, MY_CLASS);
 103:Drivers/lvgl/src/extra/widgets/span/lv_span.c ****     lv_spangroup_t * spans = (lv_spangroup_t *)obj;
 104:Drivers/lvgl/src/extra/widgets/span/lv_span.c ****     lv_span_t * span = _lv_ll_ins_tail(&spans->child_ll);
 105:Drivers/lvgl/src/extra/widgets/span/lv_span.c ****     LV_ASSERT_MALLOC(span);
 106:Drivers/lvgl/src/extra/widgets/span/lv_span.c **** 
 107:Drivers/lvgl/src/extra/widgets/span/lv_span.c ****     lv_style_init(&span->style);
 108:Drivers/lvgl/src/extra/widgets/span/lv_span.c ****     span->txt = (char *)"";
 109:Drivers/lvgl/src/extra/widgets/span/lv_span.c ****     span->static_flag = 1;
 110:Drivers/lvgl/src/extra/widgets/span/lv_span.c ****     span->spangroup = obj;
 111:Drivers/lvgl/src/extra/widgets/span/lv_span.c **** 
 112:Drivers/lvgl/src/extra/widgets/span/lv_span.c ****     refresh_self_size(obj);
 113:Drivers/lvgl/src/extra/widgets/span/lv_span.c **** 
 114:Drivers/lvgl/src/extra/widgets/span/lv_span.c ****     return span;
 115:Drivers/lvgl/src/extra/widgets/span/lv_span.c **** }
 116:Drivers/lvgl/src/extra/widgets/span/lv_span.c **** 
 117:Drivers/lvgl/src/extra/widgets/span/lv_span.c **** void lv_spangroup_del_span(lv_obj_t * obj, lv_span_t * span)
 118:Drivers/lvgl/src/extra/widgets/span/lv_span.c **** {
 119:Drivers/lvgl/src/extra/widgets/span/lv_span.c ****     if(obj == NULL || span == NULL) {
 120:Drivers/lvgl/src/extra/widgets/span/lv_span.c ****         return;
 121:Drivers/lvgl/src/extra/widgets/span/lv_span.c ****     }
 122:Drivers/lvgl/src/extra/widgets/span/lv_span.c **** 
 123:Drivers/lvgl/src/extra/widgets/span/lv_span.c ****     LV_ASSERT_OBJ(obj, MY_CLASS);
 124:Drivers/lvgl/src/extra/widgets/span/lv_span.c ****     lv_spangroup_t * spans = (lv_spangroup_t *)obj;
 125:Drivers/lvgl/src/extra/widgets/span/lv_span.c ****     lv_span_t * cur_span;
 126:Drivers/lvgl/src/extra/widgets/span/lv_span.c ****     _LV_LL_READ(&spans->child_ll, cur_span) {
 127:Drivers/lvgl/src/extra/widgets/span/lv_span.c ****         if(cur_span == span) {
 128:Drivers/lvgl/src/extra/widgets/span/lv_span.c ****             _lv_ll_remove(&spans->child_ll, cur_span);
 129:Drivers/lvgl/src/extra/widgets/span/lv_span.c ****             if(cur_span->txt && cur_span->static_flag == 0) {
 130:Drivers/lvgl/src/extra/widgets/span/lv_span.c ****                 lv_mem_free(cur_span->txt);
 131:Drivers/lvgl/src/extra/widgets/span/lv_span.c ****             }
 132:Drivers/lvgl/src/extra/widgets/span/lv_span.c ****             lv_style_reset(&cur_span->style);
 133:Drivers/lvgl/src/extra/widgets/span/lv_span.c ****             lv_mem_free(cur_span);
 134:Drivers/lvgl/src/extra/widgets/span/lv_span.c ****             break;
 135:Drivers/lvgl/src/extra/widgets/span/lv_span.c ****         }
 136:Drivers/lvgl/src/extra/widgets/span/lv_span.c ****     }
 137:Drivers/lvgl/src/extra/widgets/span/lv_span.c **** 
 138:Drivers/lvgl/src/extra/widgets/span/lv_span.c ****     refresh_self_size(obj);
 139:Drivers/lvgl/src/extra/widgets/span/lv_span.c **** }
 140:Drivers/lvgl/src/extra/widgets/span/lv_span.c **** 
 141:Drivers/lvgl/src/extra/widgets/span/lv_span.c **** /*=====================
 142:Drivers/lvgl/src/extra/widgets/span/lv_span.c ****  * Setter functions
 143:Drivers/lvgl/src/extra/widgets/span/lv_span.c ****  *====================*/
ARM GAS  /var/folders/lp/x54gwt890xv47sdkqj1k04q40000gn/T//cckjqg7q.s 			page 4


 144:Drivers/lvgl/src/extra/widgets/span/lv_span.c **** 
 145:Drivers/lvgl/src/extra/widgets/span/lv_span.c **** void lv_span_set_text(lv_span_t * span, const char * text)
 146:Drivers/lvgl/src/extra/widgets/span/lv_span.c **** {
 147:Drivers/lvgl/src/extra/widgets/span/lv_span.c ****     if(span == NULL || text == NULL) {
 148:Drivers/lvgl/src/extra/widgets/span/lv_span.c ****         return;
 149:Drivers/lvgl/src/extra/widgets/span/lv_span.c ****     }
 150:Drivers/lvgl/src/extra/widgets/span/lv_span.c **** 
 151:Drivers/lvgl/src/extra/widgets/span/lv_span.c ****     if(span->txt == NULL || span->static_flag == 1) {
 152:Drivers/lvgl/src/extra/widgets/span/lv_span.c ****         span->txt = lv_mem_alloc(strlen(text) + 1);
 153:Drivers/lvgl/src/extra/widgets/span/lv_span.c ****     }
 154:Drivers/lvgl/src/extra/widgets/span/lv_span.c ****     else {
 155:Drivers/lvgl/src/extra/widgets/span/lv_span.c ****         span->txt = lv_mem_realloc(span->txt, strlen(text) + 1);
 156:Drivers/lvgl/src/extra/widgets/span/lv_span.c ****     }
 157:Drivers/lvgl/src/extra/widgets/span/lv_span.c ****     span->static_flag = 0;
 158:Drivers/lvgl/src/extra/widgets/span/lv_span.c ****     strcpy(span->txt, text);
 159:Drivers/lvgl/src/extra/widgets/span/lv_span.c **** 
 160:Drivers/lvgl/src/extra/widgets/span/lv_span.c ****     refresh_self_size(span->spangroup);
 161:Drivers/lvgl/src/extra/widgets/span/lv_span.c **** }
 162:Drivers/lvgl/src/extra/widgets/span/lv_span.c **** 
 163:Drivers/lvgl/src/extra/widgets/span/lv_span.c **** void lv_span_set_text_static(lv_span_t * span, const char * text)
 164:Drivers/lvgl/src/extra/widgets/span/lv_span.c **** {
 165:Drivers/lvgl/src/extra/widgets/span/lv_span.c ****     if(span == NULL || text == NULL) {
 166:Drivers/lvgl/src/extra/widgets/span/lv_span.c ****         return;
 167:Drivers/lvgl/src/extra/widgets/span/lv_span.c ****     }
 168:Drivers/lvgl/src/extra/widgets/span/lv_span.c **** 
 169:Drivers/lvgl/src/extra/widgets/span/lv_span.c ****     if(span->txt && span->static_flag == 0) {
 170:Drivers/lvgl/src/extra/widgets/span/lv_span.c ****         lv_mem_free(span->txt);
 171:Drivers/lvgl/src/extra/widgets/span/lv_span.c ****     }
 172:Drivers/lvgl/src/extra/widgets/span/lv_span.c ****     span->static_flag = 1;
 173:Drivers/lvgl/src/extra/widgets/span/lv_span.c ****     span->txt = (char *)text;
 174:Drivers/lvgl/src/extra/widgets/span/lv_span.c **** 
 175:Drivers/lvgl/src/extra/widgets/span/lv_span.c ****     refresh_self_size(span->spangroup);
 176:Drivers/lvgl/src/extra/widgets/span/lv_span.c **** }
 177:Drivers/lvgl/src/extra/widgets/span/lv_span.c **** 
 178:Drivers/lvgl/src/extra/widgets/span/lv_span.c **** void lv_spangroup_set_align(lv_obj_t * obj, lv_text_align_t align)
 179:Drivers/lvgl/src/extra/widgets/span/lv_span.c **** {
 180:Drivers/lvgl/src/extra/widgets/span/lv_span.c ****     lv_obj_set_style_text_align(obj, align, LV_PART_MAIN);
 181:Drivers/lvgl/src/extra/widgets/span/lv_span.c **** }
 182:Drivers/lvgl/src/extra/widgets/span/lv_span.c **** 
 183:Drivers/lvgl/src/extra/widgets/span/lv_span.c **** void lv_spangroup_set_overflow(lv_obj_t * obj, lv_span_overflow_t overflow)
 184:Drivers/lvgl/src/extra/widgets/span/lv_span.c **** {
 185:Drivers/lvgl/src/extra/widgets/span/lv_span.c ****     LV_ASSERT_OBJ(obj, MY_CLASS);
 186:Drivers/lvgl/src/extra/widgets/span/lv_span.c ****     lv_spangroup_t * spans = (lv_spangroup_t *)obj;
 187:Drivers/lvgl/src/extra/widgets/span/lv_span.c ****     if(spans->overflow == overflow) return;
 188:Drivers/lvgl/src/extra/widgets/span/lv_span.c **** 
 189:Drivers/lvgl/src/extra/widgets/span/lv_span.c ****     spans->overflow = overflow;
 190:Drivers/lvgl/src/extra/widgets/span/lv_span.c ****     lv_obj_invalidate(obj);
 191:Drivers/lvgl/src/extra/widgets/span/lv_span.c **** }
 192:Drivers/lvgl/src/extra/widgets/span/lv_span.c **** 
 193:Drivers/lvgl/src/extra/widgets/span/lv_span.c **** void lv_spangroup_set_indent(lv_obj_t * obj, lv_coord_t indent)
 194:Drivers/lvgl/src/extra/widgets/span/lv_span.c **** {
 195:Drivers/lvgl/src/extra/widgets/span/lv_span.c ****     LV_ASSERT_OBJ(obj, MY_CLASS);
 196:Drivers/lvgl/src/extra/widgets/span/lv_span.c ****     lv_spangroup_t * spans = (lv_spangroup_t *)obj;
 197:Drivers/lvgl/src/extra/widgets/span/lv_span.c ****     if(spans->indent == indent) return;
 198:Drivers/lvgl/src/extra/widgets/span/lv_span.c **** 
 199:Drivers/lvgl/src/extra/widgets/span/lv_span.c ****     spans->indent = indent;
 200:Drivers/lvgl/src/extra/widgets/span/lv_span.c **** 
ARM GAS  /var/folders/lp/x54gwt890xv47sdkqj1k04q40000gn/T//cckjqg7q.s 			page 5


 201:Drivers/lvgl/src/extra/widgets/span/lv_span.c ****     refresh_self_size(obj);
 202:Drivers/lvgl/src/extra/widgets/span/lv_span.c **** }
 203:Drivers/lvgl/src/extra/widgets/span/lv_span.c **** 
 204:Drivers/lvgl/src/extra/widgets/span/lv_span.c **** void lv_spangroup_set_mode(lv_obj_t * obj, lv_span_mode_t mode)
 205:Drivers/lvgl/src/extra/widgets/span/lv_span.c **** {
 206:Drivers/lvgl/src/extra/widgets/span/lv_span.c ****     LV_ASSERT_OBJ(obj, MY_CLASS);
 207:Drivers/lvgl/src/extra/widgets/span/lv_span.c ****     lv_spangroup_t * spans = (lv_spangroup_t *)obj;
 208:Drivers/lvgl/src/extra/widgets/span/lv_span.c ****     spans->mode = mode;
 209:Drivers/lvgl/src/extra/widgets/span/lv_span.c ****     lv_spangroup_refr_mode(obj);
 210:Drivers/lvgl/src/extra/widgets/span/lv_span.c **** }
 211:Drivers/lvgl/src/extra/widgets/span/lv_span.c **** 
 212:Drivers/lvgl/src/extra/widgets/span/lv_span.c **** void lv_spangroup_set_lines(lv_obj_t * obj, int32_t lines)
 213:Drivers/lvgl/src/extra/widgets/span/lv_span.c **** {
 214:Drivers/lvgl/src/extra/widgets/span/lv_span.c ****     LV_ASSERT_OBJ(obj, MY_CLASS);
 215:Drivers/lvgl/src/extra/widgets/span/lv_span.c ****     lv_spangroup_t * spans = (lv_spangroup_t *)obj;
 216:Drivers/lvgl/src/extra/widgets/span/lv_span.c ****     spans->lines = lines;
 217:Drivers/lvgl/src/extra/widgets/span/lv_span.c ****     lv_spangroup_refr_mode(obj);
 218:Drivers/lvgl/src/extra/widgets/span/lv_span.c **** }
 219:Drivers/lvgl/src/extra/widgets/span/lv_span.c **** 
 220:Drivers/lvgl/src/extra/widgets/span/lv_span.c **** /*=====================
 221:Drivers/lvgl/src/extra/widgets/span/lv_span.c ****  * Getter functions
 222:Drivers/lvgl/src/extra/widgets/span/lv_span.c ****  *====================*/
 223:Drivers/lvgl/src/extra/widgets/span/lv_span.c **** 
 224:Drivers/lvgl/src/extra/widgets/span/lv_span.c **** lv_span_t * lv_spangroup_get_child(const lv_obj_t * obj, int32_t id)
 225:Drivers/lvgl/src/extra/widgets/span/lv_span.c **** {
 226:Drivers/lvgl/src/extra/widgets/span/lv_span.c ****     if(obj == NULL) {
 227:Drivers/lvgl/src/extra/widgets/span/lv_span.c ****         return NULL;
 228:Drivers/lvgl/src/extra/widgets/span/lv_span.c ****     }
 229:Drivers/lvgl/src/extra/widgets/span/lv_span.c **** 
 230:Drivers/lvgl/src/extra/widgets/span/lv_span.c ****     LV_ASSERT_OBJ(obj, MY_CLASS);
 231:Drivers/lvgl/src/extra/widgets/span/lv_span.c ****     lv_spangroup_t * spans = (lv_spangroup_t *)obj;
 232:Drivers/lvgl/src/extra/widgets/span/lv_span.c ****     lv_ll_t * linked_list = &spans->child_ll;
 233:Drivers/lvgl/src/extra/widgets/span/lv_span.c **** 
 234:Drivers/lvgl/src/extra/widgets/span/lv_span.c ****     bool traverse_forwards = (id >= 0);
 235:Drivers/lvgl/src/extra/widgets/span/lv_span.c ****     int32_t cur_idx = 0;
 236:Drivers/lvgl/src/extra/widgets/span/lv_span.c ****     lv_ll_node_t * cur_node = linked_list->head;
 237:Drivers/lvgl/src/extra/widgets/span/lv_span.c **** 
 238:Drivers/lvgl/src/extra/widgets/span/lv_span.c ****     /*If using a negative index, start from the tail and use cur -1 to indicate the end*/
 239:Drivers/lvgl/src/extra/widgets/span/lv_span.c ****     if(!traverse_forwards) {
 240:Drivers/lvgl/src/extra/widgets/span/lv_span.c ****         cur_idx = -1;
 241:Drivers/lvgl/src/extra/widgets/span/lv_span.c ****         cur_node = linked_list->tail;
 242:Drivers/lvgl/src/extra/widgets/span/lv_span.c ****     }
 243:Drivers/lvgl/src/extra/widgets/span/lv_span.c **** 
 244:Drivers/lvgl/src/extra/widgets/span/lv_span.c ****     while(cur_node != NULL) {
 245:Drivers/lvgl/src/extra/widgets/span/lv_span.c ****         if(cur_idx == id) {
 246:Drivers/lvgl/src/extra/widgets/span/lv_span.c ****             return (lv_span_t *) cur_node;
 247:Drivers/lvgl/src/extra/widgets/span/lv_span.c ****         }
 248:Drivers/lvgl/src/extra/widgets/span/lv_span.c ****         if(traverse_forwards) {
 249:Drivers/lvgl/src/extra/widgets/span/lv_span.c ****             cur_node = (lv_ll_node_t *) _lv_ll_get_next(linked_list, cur_node);
 250:Drivers/lvgl/src/extra/widgets/span/lv_span.c ****             cur_idx++;
 251:Drivers/lvgl/src/extra/widgets/span/lv_span.c ****         }
 252:Drivers/lvgl/src/extra/widgets/span/lv_span.c ****         else {
 253:Drivers/lvgl/src/extra/widgets/span/lv_span.c ****             cur_node = (lv_ll_node_t *) _lv_ll_get_prev(linked_list, cur_node);
 254:Drivers/lvgl/src/extra/widgets/span/lv_span.c ****             cur_idx--;
 255:Drivers/lvgl/src/extra/widgets/span/lv_span.c ****         }
 256:Drivers/lvgl/src/extra/widgets/span/lv_span.c ****     }
 257:Drivers/lvgl/src/extra/widgets/span/lv_span.c **** 
ARM GAS  /var/folders/lp/x54gwt890xv47sdkqj1k04q40000gn/T//cckjqg7q.s 			page 6


 258:Drivers/lvgl/src/extra/widgets/span/lv_span.c ****     return NULL;
 259:Drivers/lvgl/src/extra/widgets/span/lv_span.c **** }
 260:Drivers/lvgl/src/extra/widgets/span/lv_span.c **** 
 261:Drivers/lvgl/src/extra/widgets/span/lv_span.c **** uint32_t lv_spangroup_get_child_cnt(const lv_obj_t * obj)
 262:Drivers/lvgl/src/extra/widgets/span/lv_span.c **** {
 263:Drivers/lvgl/src/extra/widgets/span/lv_span.c ****     LV_ASSERT_OBJ(obj, MY_CLASS);
 264:Drivers/lvgl/src/extra/widgets/span/lv_span.c **** 
 265:Drivers/lvgl/src/extra/widgets/span/lv_span.c ****     if(obj == NULL) {
 266:Drivers/lvgl/src/extra/widgets/span/lv_span.c ****         return 0;
 267:Drivers/lvgl/src/extra/widgets/span/lv_span.c ****     }
 268:Drivers/lvgl/src/extra/widgets/span/lv_span.c **** 
 269:Drivers/lvgl/src/extra/widgets/span/lv_span.c ****     LV_ASSERT_OBJ(obj, MY_CLASS);
 270:Drivers/lvgl/src/extra/widgets/span/lv_span.c ****     lv_spangroup_t * spans = (lv_spangroup_t *)obj;
 271:Drivers/lvgl/src/extra/widgets/span/lv_span.c ****     return _lv_ll_get_len(&(spans->child_ll));
 272:Drivers/lvgl/src/extra/widgets/span/lv_span.c **** }
 273:Drivers/lvgl/src/extra/widgets/span/lv_span.c **** 
 274:Drivers/lvgl/src/extra/widgets/span/lv_span.c **** lv_text_align_t lv_spangroup_get_align(lv_obj_t * obj)
 275:Drivers/lvgl/src/extra/widgets/span/lv_span.c **** {
 276:Drivers/lvgl/src/extra/widgets/span/lv_span.c ****     return lv_obj_get_style_text_align(obj, LV_PART_MAIN);
 277:Drivers/lvgl/src/extra/widgets/span/lv_span.c **** }
 278:Drivers/lvgl/src/extra/widgets/span/lv_span.c **** 
 279:Drivers/lvgl/src/extra/widgets/span/lv_span.c **** lv_span_overflow_t lv_spangroup_get_overflow(lv_obj_t * obj)
 280:Drivers/lvgl/src/extra/widgets/span/lv_span.c **** {
 281:Drivers/lvgl/src/extra/widgets/span/lv_span.c ****     LV_ASSERT_OBJ(obj, MY_CLASS);
 282:Drivers/lvgl/src/extra/widgets/span/lv_span.c ****     lv_spangroup_t * spans = (lv_spangroup_t *)obj;
 283:Drivers/lvgl/src/extra/widgets/span/lv_span.c ****     return spans->overflow;
 284:Drivers/lvgl/src/extra/widgets/span/lv_span.c **** }
 285:Drivers/lvgl/src/extra/widgets/span/lv_span.c **** 
 286:Drivers/lvgl/src/extra/widgets/span/lv_span.c **** lv_coord_t lv_spangroup_get_indent(lv_obj_t * obj)
 287:Drivers/lvgl/src/extra/widgets/span/lv_span.c **** {
 288:Drivers/lvgl/src/extra/widgets/span/lv_span.c ****     LV_ASSERT_OBJ(obj, MY_CLASS);
 289:Drivers/lvgl/src/extra/widgets/span/lv_span.c ****     lv_spangroup_t * spans = (lv_spangroup_t *)obj;
 290:Drivers/lvgl/src/extra/widgets/span/lv_span.c ****     return spans->indent;
 291:Drivers/lvgl/src/extra/widgets/span/lv_span.c **** }
 292:Drivers/lvgl/src/extra/widgets/span/lv_span.c **** 
 293:Drivers/lvgl/src/extra/widgets/span/lv_span.c **** lv_span_mode_t lv_spangroup_get_mode(lv_obj_t * obj)
 294:Drivers/lvgl/src/extra/widgets/span/lv_span.c **** {
 295:Drivers/lvgl/src/extra/widgets/span/lv_span.c ****     LV_ASSERT_OBJ(obj, MY_CLASS);
 296:Drivers/lvgl/src/extra/widgets/span/lv_span.c ****     lv_spangroup_t * spans = (lv_spangroup_t *)obj;
 297:Drivers/lvgl/src/extra/widgets/span/lv_span.c ****     return spans->mode;
 298:Drivers/lvgl/src/extra/widgets/span/lv_span.c **** }
 299:Drivers/lvgl/src/extra/widgets/span/lv_span.c **** 
 300:Drivers/lvgl/src/extra/widgets/span/lv_span.c **** int32_t lv_spangroup_get_lines(lv_obj_t * obj)
 301:Drivers/lvgl/src/extra/widgets/span/lv_span.c **** {
 302:Drivers/lvgl/src/extra/widgets/span/lv_span.c ****     LV_ASSERT_OBJ(obj, MY_CLASS);
 303:Drivers/lvgl/src/extra/widgets/span/lv_span.c ****     lv_spangroup_t * spans = (lv_spangroup_t *)obj;
 304:Drivers/lvgl/src/extra/widgets/span/lv_span.c ****     return spans->lines;
 305:Drivers/lvgl/src/extra/widgets/span/lv_span.c **** }
 306:Drivers/lvgl/src/extra/widgets/span/lv_span.c **** 
 307:Drivers/lvgl/src/extra/widgets/span/lv_span.c **** void lv_spangroup_refr_mode(lv_obj_t * obj)
 308:Drivers/lvgl/src/extra/widgets/span/lv_span.c **** {
 309:Drivers/lvgl/src/extra/widgets/span/lv_span.c ****     LV_ASSERT_OBJ(obj, MY_CLASS);
 310:Drivers/lvgl/src/extra/widgets/span/lv_span.c ****     lv_spangroup_t * spans = (lv_spangroup_t *)obj;
 311:Drivers/lvgl/src/extra/widgets/span/lv_span.c **** 
 312:Drivers/lvgl/src/extra/widgets/span/lv_span.c ****     if(spans->mode == LV_SPAN_MODE_EXPAND) {
 313:Drivers/lvgl/src/extra/widgets/span/lv_span.c ****         lv_obj_set_width(obj, LV_SIZE_CONTENT);
 314:Drivers/lvgl/src/extra/widgets/span/lv_span.c ****         lv_obj_set_height(obj, LV_SIZE_CONTENT);
ARM GAS  /var/folders/lp/x54gwt890xv47sdkqj1k04q40000gn/T//cckjqg7q.s 			page 7


 315:Drivers/lvgl/src/extra/widgets/span/lv_span.c ****     }
 316:Drivers/lvgl/src/extra/widgets/span/lv_span.c ****     else if(spans->mode == LV_SPAN_MODE_BREAK) {
 317:Drivers/lvgl/src/extra/widgets/span/lv_span.c ****         if(lv_obj_get_style_width(obj, LV_PART_MAIN) == LV_SIZE_CONTENT) {
 318:Drivers/lvgl/src/extra/widgets/span/lv_span.c ****             lv_obj_set_width(obj, 100);
 319:Drivers/lvgl/src/extra/widgets/span/lv_span.c ****         }
 320:Drivers/lvgl/src/extra/widgets/span/lv_span.c ****         lv_obj_set_height(obj, LV_SIZE_CONTENT);
 321:Drivers/lvgl/src/extra/widgets/span/lv_span.c ****     }
 322:Drivers/lvgl/src/extra/widgets/span/lv_span.c ****     else if(spans->mode == LV_SPAN_MODE_FIXED) {
 323:Drivers/lvgl/src/extra/widgets/span/lv_span.c ****         /* use this mode, The user needs to set the size. */
 324:Drivers/lvgl/src/extra/widgets/span/lv_span.c ****         /* This is just to prevent an infinite loop. */
 325:Drivers/lvgl/src/extra/widgets/span/lv_span.c ****         if(lv_obj_get_style_width(obj, LV_PART_MAIN) == LV_SIZE_CONTENT) {
 326:Drivers/lvgl/src/extra/widgets/span/lv_span.c ****             lv_obj_set_width(obj, 100);
 327:Drivers/lvgl/src/extra/widgets/span/lv_span.c ****         }
 328:Drivers/lvgl/src/extra/widgets/span/lv_span.c ****         if(lv_obj_get_style_height(obj, LV_PART_MAIN) == LV_SIZE_CONTENT) {
 329:Drivers/lvgl/src/extra/widgets/span/lv_span.c ****             lv_coord_t width = lv_obj_get_style_width(obj, LV_PART_MAIN);
 330:Drivers/lvgl/src/extra/widgets/span/lv_span.c ****             if(LV_COORD_IS_PCT(width)) {
 331:Drivers/lvgl/src/extra/widgets/span/lv_span.c ****                 width = 100;
 332:Drivers/lvgl/src/extra/widgets/span/lv_span.c ****             }
 333:Drivers/lvgl/src/extra/widgets/span/lv_span.c ****             lv_coord_t height = lv_spangroup_get_expand_height(obj, width);
 334:Drivers/lvgl/src/extra/widgets/span/lv_span.c ****             lv_obj_set_content_height(obj, height);
 335:Drivers/lvgl/src/extra/widgets/span/lv_span.c ****         }
 336:Drivers/lvgl/src/extra/widgets/span/lv_span.c ****     }
 337:Drivers/lvgl/src/extra/widgets/span/lv_span.c **** 
 338:Drivers/lvgl/src/extra/widgets/span/lv_span.c ****     refresh_self_size(obj);
 339:Drivers/lvgl/src/extra/widgets/span/lv_span.c **** }
 340:Drivers/lvgl/src/extra/widgets/span/lv_span.c **** 
 341:Drivers/lvgl/src/extra/widgets/span/lv_span.c **** lv_coord_t lv_spangroup_get_max_line_h(lv_obj_t * obj)
 342:Drivers/lvgl/src/extra/widgets/span/lv_span.c **** {
 343:Drivers/lvgl/src/extra/widgets/span/lv_span.c ****     LV_ASSERT_OBJ(obj, MY_CLASS);
 344:Drivers/lvgl/src/extra/widgets/span/lv_span.c ****     lv_spangroup_t * spans = (lv_spangroup_t *)obj;
 345:Drivers/lvgl/src/extra/widgets/span/lv_span.c **** 
 346:Drivers/lvgl/src/extra/widgets/span/lv_span.c ****     lv_coord_t max_line_h = 0;
 347:Drivers/lvgl/src/extra/widgets/span/lv_span.c ****     lv_span_t * cur_span;
 348:Drivers/lvgl/src/extra/widgets/span/lv_span.c ****     _LV_LL_READ(&spans->child_ll, cur_span) {
 349:Drivers/lvgl/src/extra/widgets/span/lv_span.c ****         const lv_font_t * font = lv_span_get_style_text_font(obj, cur_span);
 350:Drivers/lvgl/src/extra/widgets/span/lv_span.c ****         lv_coord_t line_h = lv_font_get_line_height(font);
 351:Drivers/lvgl/src/extra/widgets/span/lv_span.c ****         if(line_h > max_line_h) {
 352:Drivers/lvgl/src/extra/widgets/span/lv_span.c ****             max_line_h = line_h;
 353:Drivers/lvgl/src/extra/widgets/span/lv_span.c ****         }
 354:Drivers/lvgl/src/extra/widgets/span/lv_span.c ****     }
 355:Drivers/lvgl/src/extra/widgets/span/lv_span.c **** 
 356:Drivers/lvgl/src/extra/widgets/span/lv_span.c ****     return max_line_h;
 357:Drivers/lvgl/src/extra/widgets/span/lv_span.c **** }
 358:Drivers/lvgl/src/extra/widgets/span/lv_span.c **** 
 359:Drivers/lvgl/src/extra/widgets/span/lv_span.c **** uint32_t lv_spangroup_get_expand_width(lv_obj_t * obj, uint32_t max_width)
 360:Drivers/lvgl/src/extra/widgets/span/lv_span.c **** {
 361:Drivers/lvgl/src/extra/widgets/span/lv_span.c ****     LV_ASSERT_OBJ(obj, MY_CLASS);
 362:Drivers/lvgl/src/extra/widgets/span/lv_span.c ****     lv_spangroup_t * spans = (lv_spangroup_t *)obj;
 363:Drivers/lvgl/src/extra/widgets/span/lv_span.c **** 
 364:Drivers/lvgl/src/extra/widgets/span/lv_span.c ****     if(_lv_ll_get_head(&spans->child_ll) == NULL) {
 365:Drivers/lvgl/src/extra/widgets/span/lv_span.c ****         return 0;
 366:Drivers/lvgl/src/extra/widgets/span/lv_span.c ****     }
 367:Drivers/lvgl/src/extra/widgets/span/lv_span.c **** 
 368:Drivers/lvgl/src/extra/widgets/span/lv_span.c ****     uint32_t width = LV_COORD_IS_PCT(spans->indent) ? 0 : spans->indent;
 369:Drivers/lvgl/src/extra/widgets/span/lv_span.c ****     lv_span_t * cur_span;
 370:Drivers/lvgl/src/extra/widgets/span/lv_span.c ****     lv_coord_t letter_space = 0;
 371:Drivers/lvgl/src/extra/widgets/span/lv_span.c ****     _LV_LL_READ(&spans->child_ll, cur_span) {
ARM GAS  /var/folders/lp/x54gwt890xv47sdkqj1k04q40000gn/T//cckjqg7q.s 			page 8


 372:Drivers/lvgl/src/extra/widgets/span/lv_span.c ****         const lv_font_t * font = lv_span_get_style_text_font(obj, cur_span);
 373:Drivers/lvgl/src/extra/widgets/span/lv_span.c ****         letter_space = lv_span_get_style_text_letter_space(obj, cur_span);
 374:Drivers/lvgl/src/extra/widgets/span/lv_span.c ****         uint32_t j = 0;
 375:Drivers/lvgl/src/extra/widgets/span/lv_span.c ****         const char * cur_txt = cur_span->txt;
 376:Drivers/lvgl/src/extra/widgets/span/lv_span.c ****         span_text_check(&cur_txt);
 377:Drivers/lvgl/src/extra/widgets/span/lv_span.c ****         while(cur_txt[j] != '\0') {
 378:Drivers/lvgl/src/extra/widgets/span/lv_span.c ****             if(max_width > 0 && width >= max_width) {
 379:Drivers/lvgl/src/extra/widgets/span/lv_span.c ****                 return max_width;
 380:Drivers/lvgl/src/extra/widgets/span/lv_span.c ****             }
 381:Drivers/lvgl/src/extra/widgets/span/lv_span.c ****             uint32_t letter      = _lv_txt_encoded_next(cur_txt, &j);
 382:Drivers/lvgl/src/extra/widgets/span/lv_span.c ****             uint32_t letter_next = _lv_txt_encoded_next(&cur_txt[j], NULL);
 383:Drivers/lvgl/src/extra/widgets/span/lv_span.c ****             uint16_t letter_w = lv_font_get_glyph_width(font, letter, letter_next);
 384:Drivers/lvgl/src/extra/widgets/span/lv_span.c ****             width = width + letter_w + letter_space;
 385:Drivers/lvgl/src/extra/widgets/span/lv_span.c ****         }
 386:Drivers/lvgl/src/extra/widgets/span/lv_span.c ****     }
 387:Drivers/lvgl/src/extra/widgets/span/lv_span.c **** 
 388:Drivers/lvgl/src/extra/widgets/span/lv_span.c ****     return width - letter_space;
 389:Drivers/lvgl/src/extra/widgets/span/lv_span.c **** }
 390:Drivers/lvgl/src/extra/widgets/span/lv_span.c **** 
 391:Drivers/lvgl/src/extra/widgets/span/lv_span.c **** lv_coord_t lv_spangroup_get_expand_height(lv_obj_t * obj, lv_coord_t width)
 392:Drivers/lvgl/src/extra/widgets/span/lv_span.c **** {
 393:Drivers/lvgl/src/extra/widgets/span/lv_span.c ****     LV_ASSERT_OBJ(obj, MY_CLASS);
 394:Drivers/lvgl/src/extra/widgets/span/lv_span.c ****     lv_spangroup_t * spans = (lv_spangroup_t *)obj;
 395:Drivers/lvgl/src/extra/widgets/span/lv_span.c ****     if(_lv_ll_get_head(&spans->child_ll) == NULL || width <= 0) {
 396:Drivers/lvgl/src/extra/widgets/span/lv_span.c ****         return 0;
 397:Drivers/lvgl/src/extra/widgets/span/lv_span.c ****     }
 398:Drivers/lvgl/src/extra/widgets/span/lv_span.c **** 
 399:Drivers/lvgl/src/extra/widgets/span/lv_span.c ****     /* init draw variable */
 400:Drivers/lvgl/src/extra/widgets/span/lv_span.c ****     lv_text_flag_t txt_flag = LV_TEXT_FLAG_NONE;
 401:Drivers/lvgl/src/extra/widgets/span/lv_span.c ****     lv_coord_t line_space = lv_obj_get_style_text_line_space(obj, LV_PART_MAIN);
 402:Drivers/lvgl/src/extra/widgets/span/lv_span.c ****     lv_coord_t max_width = width;
 403:Drivers/lvgl/src/extra/widgets/span/lv_span.c ****     lv_coord_t indent = convert_indent_pct(obj, max_width);
 404:Drivers/lvgl/src/extra/widgets/span/lv_span.c ****     lv_coord_t max_w  = max_width - indent; /* first line need minus indent */
 405:Drivers/lvgl/src/extra/widgets/span/lv_span.c **** 
 406:Drivers/lvgl/src/extra/widgets/span/lv_span.c ****     /* coords of draw span-txt */
 407:Drivers/lvgl/src/extra/widgets/span/lv_span.c ****     lv_point_t txt_pos;
 408:Drivers/lvgl/src/extra/widgets/span/lv_span.c ****     txt_pos.y = 0;
 409:Drivers/lvgl/src/extra/widgets/span/lv_span.c ****     txt_pos.x = 0 + indent; /* first line need add indent */
 410:Drivers/lvgl/src/extra/widgets/span/lv_span.c **** 
 411:Drivers/lvgl/src/extra/widgets/span/lv_span.c ****     lv_span_t * cur_span = _lv_ll_get_head(&spans->child_ll);
 412:Drivers/lvgl/src/extra/widgets/span/lv_span.c ****     const char * cur_txt = cur_span->txt;
 413:Drivers/lvgl/src/extra/widgets/span/lv_span.c ****     span_text_check(&cur_txt);
 414:Drivers/lvgl/src/extra/widgets/span/lv_span.c ****     uint32_t cur_txt_ofs = 0;
 415:Drivers/lvgl/src/extra/widgets/span/lv_span.c ****     lv_snippet_t snippet;   /* use to save cur_span info and push it to stack */
 416:Drivers/lvgl/src/extra/widgets/span/lv_span.c ****     memset(&snippet, 0, sizeof(snippet));
 417:Drivers/lvgl/src/extra/widgets/span/lv_span.c **** 
 418:Drivers/lvgl/src/extra/widgets/span/lv_span.c ****     int32_t line_cnt = 0;
 419:Drivers/lvgl/src/extra/widgets/span/lv_span.c ****     int32_t lines = spans->lines < 0 ? INT32_MAX : spans->lines;
 420:Drivers/lvgl/src/extra/widgets/span/lv_span.c ****     /* the loop control how many lines need to draw */
 421:Drivers/lvgl/src/extra/widgets/span/lv_span.c ****     while(cur_span) {
 422:Drivers/lvgl/src/extra/widgets/span/lv_span.c ****         int snippet_cnt = 0;
 423:Drivers/lvgl/src/extra/widgets/span/lv_span.c ****         lv_coord_t max_line_h = 0;  /* the max height of span-font when a line have a lot of span *
 424:Drivers/lvgl/src/extra/widgets/span/lv_span.c **** 
 425:Drivers/lvgl/src/extra/widgets/span/lv_span.c ****         /* the loop control to find a line and push the relevant span info into stack  */
 426:Drivers/lvgl/src/extra/widgets/span/lv_span.c ****         while(1) {
 427:Drivers/lvgl/src/extra/widgets/span/lv_span.c ****             /* switch to the next span when current is end */
 428:Drivers/lvgl/src/extra/widgets/span/lv_span.c ****             if(cur_txt[cur_txt_ofs] == '\0') {
ARM GAS  /var/folders/lp/x54gwt890xv47sdkqj1k04q40000gn/T//cckjqg7q.s 			page 9


 429:Drivers/lvgl/src/extra/widgets/span/lv_span.c ****                 cur_span = _lv_ll_get_next(&spans->child_ll, cur_span);
 430:Drivers/lvgl/src/extra/widgets/span/lv_span.c ****                 if(cur_span == NULL) break;
 431:Drivers/lvgl/src/extra/widgets/span/lv_span.c ****                 cur_txt = cur_span->txt;
 432:Drivers/lvgl/src/extra/widgets/span/lv_span.c ****                 span_text_check(&cur_txt);
 433:Drivers/lvgl/src/extra/widgets/span/lv_span.c ****                 cur_txt_ofs = 0;
 434:Drivers/lvgl/src/extra/widgets/span/lv_span.c ****                 /* maybe also cur_txt[cur_txt_ofs] == '\0' */
 435:Drivers/lvgl/src/extra/widgets/span/lv_span.c ****                 continue;
 436:Drivers/lvgl/src/extra/widgets/span/lv_span.c ****             }
 437:Drivers/lvgl/src/extra/widgets/span/lv_span.c **** 
 438:Drivers/lvgl/src/extra/widgets/span/lv_span.c ****             /* init span info to snippet. */
 439:Drivers/lvgl/src/extra/widgets/span/lv_span.c ****             if(cur_txt_ofs == 0) {
 440:Drivers/lvgl/src/extra/widgets/span/lv_span.c ****                 snippet.span = cur_span;
 441:Drivers/lvgl/src/extra/widgets/span/lv_span.c ****                 snippet.font = lv_span_get_style_text_font(obj, cur_span);
 442:Drivers/lvgl/src/extra/widgets/span/lv_span.c ****                 snippet.letter_space = lv_span_get_style_text_letter_space(obj, cur_span);
 443:Drivers/lvgl/src/extra/widgets/span/lv_span.c ****                 snippet.line_h = lv_font_get_line_height(snippet.font) + line_space;
 444:Drivers/lvgl/src/extra/widgets/span/lv_span.c ****             }
 445:Drivers/lvgl/src/extra/widgets/span/lv_span.c **** 
 446:Drivers/lvgl/src/extra/widgets/span/lv_span.c ****             /* get current span text line info */
 447:Drivers/lvgl/src/extra/widgets/span/lv_span.c ****             uint32_t next_ofs = 0;
 448:Drivers/lvgl/src/extra/widgets/span/lv_span.c ****             lv_coord_t use_width = 0;
 449:Drivers/lvgl/src/extra/widgets/span/lv_span.c ****             bool isfill = lv_txt_get_snippet(&cur_txt[cur_txt_ofs], snippet.font, snippet.letter_sp
 450:Drivers/lvgl/src/extra/widgets/span/lv_span.c ****                                              max_w, txt_flag, &use_width, &next_ofs);
 451:Drivers/lvgl/src/extra/widgets/span/lv_span.c **** 
 452:Drivers/lvgl/src/extra/widgets/span/lv_span.c ****             /* break word deal width */
 453:Drivers/lvgl/src/extra/widgets/span/lv_span.c ****             if(isfill && next_ofs > 0 && snippet_cnt > 0) {
 454:Drivers/lvgl/src/extra/widgets/span/lv_span.c ****                 if(max_w < use_width) {
 455:Drivers/lvgl/src/extra/widgets/span/lv_span.c ****                     break;
 456:Drivers/lvgl/src/extra/widgets/span/lv_span.c ****                 }
 457:Drivers/lvgl/src/extra/widgets/span/lv_span.c **** 
 458:Drivers/lvgl/src/extra/widgets/span/lv_span.c ****                 uint32_t tmp_ofs = next_ofs;
 459:Drivers/lvgl/src/extra/widgets/span/lv_span.c ****                 uint32_t letter = _lv_txt_encoded_prev(&cur_txt[cur_txt_ofs], &tmp_ofs);
 460:Drivers/lvgl/src/extra/widgets/span/lv_span.c ****                 if(!(letter == '\0' || letter == '\n' || letter == '\r' || _lv_txt_is_break_char(le
 461:Drivers/lvgl/src/extra/widgets/span/lv_span.c ****                     tmp_ofs = 0;
 462:Drivers/lvgl/src/extra/widgets/span/lv_span.c ****                     letter = _lv_txt_encoded_next(&cur_txt[cur_txt_ofs + next_ofs], &tmp_ofs);
 463:Drivers/lvgl/src/extra/widgets/span/lv_span.c ****                     if(!(letter == '\0' || letter == '\n'  || letter == '\r' || _lv_txt_is_break_ch
 464:Drivers/lvgl/src/extra/widgets/span/lv_span.c ****                         break;
 465:Drivers/lvgl/src/extra/widgets/span/lv_span.c ****                     }
 466:Drivers/lvgl/src/extra/widgets/span/lv_span.c ****                 }
 467:Drivers/lvgl/src/extra/widgets/span/lv_span.c ****             }
 468:Drivers/lvgl/src/extra/widgets/span/lv_span.c **** 
 469:Drivers/lvgl/src/extra/widgets/span/lv_span.c ****             snippet.txt = &cur_txt[cur_txt_ofs];
 470:Drivers/lvgl/src/extra/widgets/span/lv_span.c ****             snippet.bytes = next_ofs;
 471:Drivers/lvgl/src/extra/widgets/span/lv_span.c ****             snippet.txt_w = use_width;
 472:Drivers/lvgl/src/extra/widgets/span/lv_span.c ****             cur_txt_ofs += next_ofs;
 473:Drivers/lvgl/src/extra/widgets/span/lv_span.c ****             if(max_line_h < snippet.line_h) {
 474:Drivers/lvgl/src/extra/widgets/span/lv_span.c ****                 max_line_h = snippet.line_h;
 475:Drivers/lvgl/src/extra/widgets/span/lv_span.c ****             }
 476:Drivers/lvgl/src/extra/widgets/span/lv_span.c ****             snippet_cnt ++;
 477:Drivers/lvgl/src/extra/widgets/span/lv_span.c ****             max_w = max_w - use_width - snippet.letter_space;
 478:Drivers/lvgl/src/extra/widgets/span/lv_span.c ****             if(isfill  || max_w <= 0) {
 479:Drivers/lvgl/src/extra/widgets/span/lv_span.c ****                 break;
 480:Drivers/lvgl/src/extra/widgets/span/lv_span.c ****             }
 481:Drivers/lvgl/src/extra/widgets/span/lv_span.c ****         }
 482:Drivers/lvgl/src/extra/widgets/span/lv_span.c **** 
 483:Drivers/lvgl/src/extra/widgets/span/lv_span.c ****         /* next line init */
 484:Drivers/lvgl/src/extra/widgets/span/lv_span.c ****         txt_pos.x = 0;
 485:Drivers/lvgl/src/extra/widgets/span/lv_span.c ****         txt_pos.y += max_line_h;
ARM GAS  /var/folders/lp/x54gwt890xv47sdkqj1k04q40000gn/T//cckjqg7q.s 			page 10


 486:Drivers/lvgl/src/extra/widgets/span/lv_span.c ****         max_w = max_width;
 487:Drivers/lvgl/src/extra/widgets/span/lv_span.c ****         line_cnt += 1;
 488:Drivers/lvgl/src/extra/widgets/span/lv_span.c ****         if(line_cnt >= lines) {
 489:Drivers/lvgl/src/extra/widgets/span/lv_span.c ****             break;
 490:Drivers/lvgl/src/extra/widgets/span/lv_span.c ****         }
 491:Drivers/lvgl/src/extra/widgets/span/lv_span.c ****     }
 492:Drivers/lvgl/src/extra/widgets/span/lv_span.c ****     txt_pos.y -= line_space;
 493:Drivers/lvgl/src/extra/widgets/span/lv_span.c **** 
 494:Drivers/lvgl/src/extra/widgets/span/lv_span.c ****     return txt_pos.y;
 495:Drivers/lvgl/src/extra/widgets/span/lv_span.c **** }
 496:Drivers/lvgl/src/extra/widgets/span/lv_span.c **** 
 497:Drivers/lvgl/src/extra/widgets/span/lv_span.c **** /**********************
 498:Drivers/lvgl/src/extra/widgets/span/lv_span.c ****  *   STATIC FUNCTIONS
 499:Drivers/lvgl/src/extra/widgets/span/lv_span.c ****  **********************/
 500:Drivers/lvgl/src/extra/widgets/span/lv_span.c **** 
 501:Drivers/lvgl/src/extra/widgets/span/lv_span.c **** static void lv_spangroup_constructor(const lv_obj_class_t * class_p, lv_obj_t * obj)
 502:Drivers/lvgl/src/extra/widgets/span/lv_span.c **** {
 503:Drivers/lvgl/src/extra/widgets/span/lv_span.c ****     LV_UNUSED(class_p);
 504:Drivers/lvgl/src/extra/widgets/span/lv_span.c ****     lv_spangroup_t * spans = (lv_spangroup_t *)obj;
 505:Drivers/lvgl/src/extra/widgets/span/lv_span.c ****     _lv_ll_init(&spans->child_ll, sizeof(lv_span_t));
 506:Drivers/lvgl/src/extra/widgets/span/lv_span.c ****     spans->indent = 0;
 507:Drivers/lvgl/src/extra/widgets/span/lv_span.c ****     spans->lines = -1;
 508:Drivers/lvgl/src/extra/widgets/span/lv_span.c ****     spans->mode = LV_SPAN_MODE_EXPAND;
 509:Drivers/lvgl/src/extra/widgets/span/lv_span.c ****     spans->overflow = LV_SPAN_OVERFLOW_CLIP;
 510:Drivers/lvgl/src/extra/widgets/span/lv_span.c ****     spans->cache_w = 0;
 511:Drivers/lvgl/src/extra/widgets/span/lv_span.c ****     spans->cache_h = 0;
 512:Drivers/lvgl/src/extra/widgets/span/lv_span.c ****     spans->refresh = 1;
 513:Drivers/lvgl/src/extra/widgets/span/lv_span.c **** }
 514:Drivers/lvgl/src/extra/widgets/span/lv_span.c **** 
 515:Drivers/lvgl/src/extra/widgets/span/lv_span.c **** static void lv_spangroup_destructor(const lv_obj_class_t * class_p, lv_obj_t * obj)
 516:Drivers/lvgl/src/extra/widgets/span/lv_span.c **** {
  30              		.loc 1 516 1 view -0
  31              		.cfi_startproc
  32              		@ args = 0, pretend = 0, frame = 0
  33              		@ frame_needed = 0, uses_anonymous_args = 0
 517:Drivers/lvgl/src/extra/widgets/span/lv_span.c ****     LV_UNUSED(class_p);
  34              		.loc 1 517 5 view .LVU1
 518:Drivers/lvgl/src/extra/widgets/span/lv_span.c ****     lv_spangroup_t * spans = (lv_spangroup_t *)obj;
  35              		.loc 1 518 5 view .LVU2
 519:Drivers/lvgl/src/extra/widgets/span/lv_span.c ****     lv_span_t * cur_span = _lv_ll_get_head(&spans->child_ll);
  36              		.loc 1 519 5 view .LVU3
 516:Drivers/lvgl/src/extra/widgets/span/lv_span.c ****     LV_UNUSED(class_p);
  37              		.loc 1 516 1 is_stmt 0 view .LVU4
  38 0000 38B5     		push	{r3, r4, r5, lr}
  39              		.cfi_def_cfa_offset 16
  40              		.cfi_offset 3, -16
  41              		.cfi_offset 4, -12
  42              		.cfi_offset 5, -8
  43              		.cfi_offset 14, -4
  44              		.loc 1 519 44 view .LVU5
  45 0002 01F13005 		add	r5, r1, #48
  46              		.loc 1 519 28 view .LVU6
  47 0006 2846     		mov	r0, r5
  48              	.LVL1:
  49              		.loc 1 519 28 view .LVU7
  50 0008 FFF7FEFF 		bl	_lv_ll_get_head
  51              	.LVL2:
ARM GAS  /var/folders/lp/x54gwt890xv47sdkqj1k04q40000gn/T//cckjqg7q.s 			page 11


 520:Drivers/lvgl/src/extra/widgets/span/lv_span.c ****     while(cur_span) {
  52              		.loc 1 520 5 is_stmt 1 view .LVU8
  53              		.loc 1 520 11 view .LVU9
  54 000c D0B1     		cbz	r0, .L1
  55 000e 0446     		mov	r4, r0
  56 0010 0BE0     		b	.L4
  57              	.LVL3:
  58              	.L3:
 521:Drivers/lvgl/src/extra/widgets/span/lv_span.c ****         _lv_ll_remove(&spans->child_ll, cur_span);
 522:Drivers/lvgl/src/extra/widgets/span/lv_span.c ****         if(cur_span->txt && cur_span->static_flag == 0) {
 523:Drivers/lvgl/src/extra/widgets/span/lv_span.c ****             lv_mem_free(cur_span->txt);
 524:Drivers/lvgl/src/extra/widgets/span/lv_span.c ****         }
 525:Drivers/lvgl/src/extra/widgets/span/lv_span.c ****         lv_style_reset(&cur_span->style);
  59              		.loc 1 525 9 view .LVU10
  60 0012 04F10800 		add	r0, r4, #8
  61 0016 FFF7FEFF 		bl	lv_style_reset
  62              	.LVL4:
 526:Drivers/lvgl/src/extra/widgets/span/lv_span.c ****         lv_mem_free(cur_span);
  63              		.loc 1 526 9 view .LVU11
  64 001a 2046     		mov	r0, r4
  65 001c FFF7FEFF 		bl	lv_mem_free
  66              	.LVL5:
 527:Drivers/lvgl/src/extra/widgets/span/lv_span.c ****         cur_span = _lv_ll_get_head(&spans->child_ll);
  67              		.loc 1 527 9 view .LVU12
  68              		.loc 1 527 20 is_stmt 0 view .LVU13
  69 0020 2846     		mov	r0, r5
  70 0022 FFF7FEFF 		bl	_lv_ll_get_head
  71              	.LVL6:
 520:Drivers/lvgl/src/extra/widgets/span/lv_span.c ****         _lv_ll_remove(&spans->child_ll, cur_span);
  72              		.loc 1 520 11 is_stmt 1 view .LVU14
  73 0026 0446     		mov	r4, r0
  74 0028 60B1     		cbz	r0, .L1
  75              	.L4:
 521:Drivers/lvgl/src/extra/widgets/span/lv_span.c ****         if(cur_span->txt && cur_span->static_flag == 0) {
  76              		.loc 1 521 9 view .LVU15
  77 002a 2846     		mov	r0, r5
  78              	.LVL7:
 521:Drivers/lvgl/src/extra/widgets/span/lv_span.c ****         if(cur_span->txt && cur_span->static_flag == 0) {
  79              		.loc 1 521 9 is_stmt 0 view .LVU16
  80 002c 2146     		mov	r1, r4
  81 002e FFF7FEFF 		bl	_lv_ll_remove
  82              	.LVL8:
 522:Drivers/lvgl/src/extra/widgets/span/lv_span.c ****             lv_mem_free(cur_span->txt);
  83              		.loc 1 522 9 is_stmt 1 view .LVU17
 522:Drivers/lvgl/src/extra/widgets/span/lv_span.c ****             lv_mem_free(cur_span->txt);
  84              		.loc 1 522 20 is_stmt 0 view .LVU18
  85 0032 2068     		ldr	r0, [r4]
 522:Drivers/lvgl/src/extra/widgets/span/lv_span.c ****             lv_mem_free(cur_span->txt);
  86              		.loc 1 522 11 view .LVU19
  87 0034 0028     		cmp	r0, #0
  88 0036 ECD0     		beq	.L3
 522:Drivers/lvgl/src/extra/widgets/span/lv_span.c ****             lv_mem_free(cur_span->txt);
  89              		.loc 1 522 51 discriminator 1 view .LVU20
  90 0038 237C     		ldrb	r3, [r4, #16]	@ zero_extendqisi2
 522:Drivers/lvgl/src/extra/widgets/span/lv_span.c ****             lv_mem_free(cur_span->txt);
  91              		.loc 1 522 26 discriminator 1 view .LVU21
  92 003a DB07     		lsls	r3, r3, #31
ARM GAS  /var/folders/lp/x54gwt890xv47sdkqj1k04q40000gn/T//cckjqg7q.s 			page 12


  93 003c E9D4     		bmi	.L3
 523:Drivers/lvgl/src/extra/widgets/span/lv_span.c ****         }
  94              		.loc 1 523 13 is_stmt 1 view .LVU22
  95 003e FFF7FEFF 		bl	lv_mem_free
  96              	.LVL9:
  97 0042 E6E7     		b	.L3
  98              	.LVL10:
  99              	.L1:
 528:Drivers/lvgl/src/extra/widgets/span/lv_span.c ****     }
 529:Drivers/lvgl/src/extra/widgets/span/lv_span.c **** }
 100              		.loc 1 529 1 is_stmt 0 view .LVU23
 101 0044 38BD     		pop	{r3, r4, r5, pc}
 102              		.loc 1 529 1 view .LVU24
 103              		.cfi_endproc
 104              	.LFE226:
 106 0046 00BF     		.section	.text.lv_spangroup_constructor,"ax",%progbits
 107              		.align	1
 108              		.p2align 2,,3
 109              		.syntax unified
 110              		.thumb
 111              		.thumb_func
 113              	lv_spangroup_constructor:
 114              	.LVL11:
 115              	.LFB225:
 502:Drivers/lvgl/src/extra/widgets/span/lv_span.c ****     LV_UNUSED(class_p);
 116              		.loc 1 502 1 is_stmt 1 view -0
 117              		.cfi_startproc
 118              		@ args = 0, pretend = 0, frame = 0
 119              		@ frame_needed = 0, uses_anonymous_args = 0
 503:Drivers/lvgl/src/extra/widgets/span/lv_span.c ****     lv_spangroup_t * spans = (lv_spangroup_t *)obj;
 120              		.loc 1 503 5 view .LVU26
 504:Drivers/lvgl/src/extra/widgets/span/lv_span.c ****     _lv_ll_init(&spans->child_ll, sizeof(lv_span_t));
 121              		.loc 1 504 5 view .LVU27
 502:Drivers/lvgl/src/extra/widgets/span/lv_span.c ****     LV_UNUSED(class_p);
 122              		.loc 1 502 1 is_stmt 0 view .LVU28
 123 0000 10B5     		push	{r4, lr}
 124              		.cfi_def_cfa_offset 8
 125              		.cfi_offset 4, -8
 126              		.cfi_offset 14, -4
 502:Drivers/lvgl/src/extra/widgets/span/lv_span.c ****     LV_UNUSED(class_p);
 127              		.loc 1 502 1 view .LVU29
 128 0002 0C46     		mov	r4, r1
 129              	.LVL12:
 505:Drivers/lvgl/src/extra/widgets/span/lv_span.c ****     spans->indent = 0;
 130              		.loc 1 505 5 is_stmt 1 view .LVU30
 131 0004 04F13000 		add	r0, r4, #48
 132              	.LVL13:
 505:Drivers/lvgl/src/extra/widgets/span/lv_span.c ****     spans->indent = 0;
 133              		.loc 1 505 5 is_stmt 0 view .LVU31
 134 0008 1421     		movs	r1, #20
 135              	.LVL14:
 505:Drivers/lvgl/src/extra/widgets/span/lv_span.c ****     spans->indent = 0;
 136              		.loc 1 505 5 view .LVU32
 137 000a FFF7FEFF 		bl	_lv_ll_init
 138              	.LVL15:
 506:Drivers/lvgl/src/extra/widgets/span/lv_span.c ****     spans->lines = -1;
 139              		.loc 1 506 5 is_stmt 1 view .LVU33
ARM GAS  /var/folders/lp/x54gwt890xv47sdkqj1k04q40000gn/T//cckjqg7q.s 			page 13


 508:Drivers/lvgl/src/extra/widgets/span/lv_span.c ****     spans->overflow = LV_SPAN_OVERFLOW_CLIP;
 140              		.loc 1 508 17 is_stmt 0 view .LVU34
 141 000e 94F83C30 		ldrb	r3, [r4, #60]	@ zero_extendqisi2
 142 0012 23F00F03 		bic	r3, r3, #15
 506:Drivers/lvgl/src/extra/widgets/span/lv_span.c ****     spans->lines = -1;
 143              		.loc 1 506 19 view .LVU35
 144 0016 0022     		movs	r2, #0
 507:Drivers/lvgl/src/extra/widgets/span/lv_span.c ****     spans->mode = LV_SPAN_MODE_EXPAND;
 145              		.loc 1 507 18 view .LVU36
 146 0018 4FF0FF31 		mov	r1, #-1
 508:Drivers/lvgl/src/extra/widgets/span/lv_span.c ****     spans->overflow = LV_SPAN_OVERFLOW_CLIP;
 147              		.loc 1 508 17 view .LVU37
 148 001c 43F00903 		orr	r3, r3, #9
 506:Drivers/lvgl/src/extra/widgets/span/lv_span.c ****     spans->lines = -1;
 149              		.loc 1 506 19 view .LVU38
 150 0020 2285     		strh	r2, [r4, #40]	@ movhi
 507:Drivers/lvgl/src/extra/widgets/span/lv_span.c ****     spans->mode = LV_SPAN_MODE_EXPAND;
 151              		.loc 1 507 5 is_stmt 1 view .LVU39
 507:Drivers/lvgl/src/extra/widgets/span/lv_span.c ****     spans->mode = LV_SPAN_MODE_EXPAND;
 152              		.loc 1 507 18 is_stmt 0 view .LVU40
 153 0022 6162     		str	r1, [r4, #36]
 508:Drivers/lvgl/src/extra/widgets/span/lv_span.c ****     spans->overflow = LV_SPAN_OVERFLOW_CLIP;
 154              		.loc 1 508 5 is_stmt 1 view .LVU41
 509:Drivers/lvgl/src/extra/widgets/span/lv_span.c ****     spans->cache_w = 0;
 155              		.loc 1 509 5 view .LVU42
 510:Drivers/lvgl/src/extra/widgets/span/lv_span.c ****     spans->cache_h = 0;
 156              		.loc 1 510 5 view .LVU43
 511:Drivers/lvgl/src/extra/widgets/span/lv_span.c ****     spans->refresh = 1;
 157              		.loc 1 511 5 view .LVU44
 510:Drivers/lvgl/src/extra/widgets/span/lv_span.c ****     spans->cache_h = 0;
 158              		.loc 1 510 20 is_stmt 0 view .LVU45
 159 0024 C4F82A20 		str	r2, [r4, #42]	@ unaligned
 512:Drivers/lvgl/src/extra/widgets/span/lv_span.c **** }
 160              		.loc 1 512 5 is_stmt 1 view .LVU46
 508:Drivers/lvgl/src/extra/widgets/span/lv_span.c ****     spans->overflow = LV_SPAN_OVERFLOW_CLIP;
 161              		.loc 1 508 17 is_stmt 0 view .LVU47
 162 0028 84F83C30 		strb	r3, [r4, #60]
 513:Drivers/lvgl/src/extra/widgets/span/lv_span.c **** 
 163              		.loc 1 513 1 view .LVU48
 164 002c 10BD     		pop	{r4, pc}
 513:Drivers/lvgl/src/extra/widgets/span/lv_span.c **** 
 165              		.loc 1 513 1 view .LVU49
 166              		.cfi_endproc
 167              	.LFE225:
 169 002e 00BF     		.section	.text.lv_spangroup_create,"ax",%progbits
 170              		.align	1
 171              		.p2align 2,,3
 172              		.global	lv_spangroup_create
 173              		.syntax unified
 174              		.thumb
 175              		.thumb_func
 177              	lv_spangroup_create:
 178              	.LVL16:
 179              	.LFB204:
  90:Drivers/lvgl/src/extra/widgets/span/lv_span.c ****     lv_obj_t * obj = lv_obj_class_create_obj(&lv_spangroup_class, par);
 180              		.loc 1 90 1 is_stmt 1 view -0
 181              		.cfi_startproc
ARM GAS  /var/folders/lp/x54gwt890xv47sdkqj1k04q40000gn/T//cckjqg7q.s 			page 14


 182              		@ args = 0, pretend = 0, frame = 0
 183              		@ frame_needed = 0, uses_anonymous_args = 0
  91:Drivers/lvgl/src/extra/widgets/span/lv_span.c ****     lv_obj_class_init_obj(obj);
 184              		.loc 1 91 5 view .LVU51
  90:Drivers/lvgl/src/extra/widgets/span/lv_span.c ****     lv_obj_t * obj = lv_obj_class_create_obj(&lv_spangroup_class, par);
 185              		.loc 1 90 1 is_stmt 0 view .LVU52
 186 0000 10B5     		push	{r4, lr}
 187              		.cfi_def_cfa_offset 8
 188              		.cfi_offset 4, -8
 189              		.cfi_offset 14, -4
  90:Drivers/lvgl/src/extra/widgets/span/lv_span.c ****     lv_obj_t * obj = lv_obj_class_create_obj(&lv_spangroup_class, par);
 190              		.loc 1 90 1 view .LVU53
 191 0002 0146     		mov	r1, r0
  91:Drivers/lvgl/src/extra/widgets/span/lv_span.c ****     lv_obj_class_init_obj(obj);
 192              		.loc 1 91 22 view .LVU54
 193 0004 0348     		ldr	r0, .L18
 194              	.LVL17:
  91:Drivers/lvgl/src/extra/widgets/span/lv_span.c ****     lv_obj_class_init_obj(obj);
 195              		.loc 1 91 22 view .LVU55
 196 0006 FFF7FEFF 		bl	lv_obj_class_create_obj
 197              	.LVL18:
  91:Drivers/lvgl/src/extra/widgets/span/lv_span.c ****     lv_obj_class_init_obj(obj);
 198              		.loc 1 91 22 view .LVU56
 199 000a 0446     		mov	r4, r0
 200              	.LVL19:
  92:Drivers/lvgl/src/extra/widgets/span/lv_span.c ****     return obj;
 201              		.loc 1 92 5 is_stmt 1 view .LVU57
 202 000c FFF7FEFF 		bl	lv_obj_class_init_obj
 203              	.LVL20:
  93:Drivers/lvgl/src/extra/widgets/span/lv_span.c **** }
 204              		.loc 1 93 5 view .LVU58
  94:Drivers/lvgl/src/extra/widgets/span/lv_span.c **** 
 205              		.loc 1 94 1 is_stmt 0 view .LVU59
 206 0010 2046     		mov	r0, r4
 207 0012 10BD     		pop	{r4, pc}
 208              	.LVL21:
 209              	.L19:
  94:Drivers/lvgl/src/extra/widgets/span/lv_span.c **** 
 210              		.loc 1 94 1 view .LVU60
 211              		.align	2
 212              	.L18:
 213 0014 00000000 		.word	lv_spangroup_class
 214              		.cfi_endproc
 215              	.LFE204:
 217              		.section	.rodata.lv_spangroup_new_span.str1.4,"aMS",%progbits,1
 218              		.align	2
 219              	.LC0:
 220 0000 00       		.ascii	"\000"
 221              		.section	.text.lv_spangroup_new_span,"ax",%progbits
 222              		.align	1
 223              		.p2align 2,,3
 224              		.global	lv_spangroup_new_span
 225              		.syntax unified
 226              		.thumb
 227              		.thumb_func
 229              	lv_spangroup_new_span:
 230              	.LVL22:
ARM GAS  /var/folders/lp/x54gwt890xv47sdkqj1k04q40000gn/T//cckjqg7q.s 			page 15


 231              	.LFB205:
  97:Drivers/lvgl/src/extra/widgets/span/lv_span.c ****     if(obj == NULL) {
 232              		.loc 1 97 1 is_stmt 1 view -0
 233              		.cfi_startproc
 234              		@ args = 0, pretend = 0, frame = 0
 235              		@ frame_needed = 0, uses_anonymous_args = 0
  98:Drivers/lvgl/src/extra/widgets/span/lv_span.c ****         return NULL;
 236              		.loc 1 98 5 view .LVU62
  97:Drivers/lvgl/src/extra/widgets/span/lv_span.c ****     if(obj == NULL) {
 237              		.loc 1 97 1 is_stmt 0 view .LVU63
 238 0000 38B5     		push	{r3, r4, r5, lr}
 239              		.cfi_def_cfa_offset 16
 240              		.cfi_offset 3, -16
 241              		.cfi_offset 4, -12
 242              		.cfi_offset 5, -8
 243              		.cfi_offset 14, -4
  98:Drivers/lvgl/src/extra/widgets/span/lv_span.c ****         return NULL;
 244              		.loc 1 98 7 view .LVU64
 245 0002 0446     		mov	r4, r0
 246 0004 E8B1     		cbz	r0, .L24
 102:Drivers/lvgl/src/extra/widgets/span/lv_span.c ****     lv_spangroup_t * spans = (lv_spangroup_t *)obj;
 247              		.loc 1 102 5 is_stmt 1 view .LVU65
 102:Drivers/lvgl/src/extra/widgets/span/lv_span.c ****     lv_spangroup_t * spans = (lv_spangroup_t *)obj;
 248              		.loc 1 102 5 view .LVU66
 102:Drivers/lvgl/src/extra/widgets/span/lv_span.c ****     lv_spangroup_t * spans = (lv_spangroup_t *)obj;
 249              		.loc 1 102 5 view .LVU67
 103:Drivers/lvgl/src/extra/widgets/span/lv_span.c ****     lv_span_t * span = _lv_ll_ins_tail(&spans->child_ll);
 250              		.loc 1 103 5 view .LVU68
 251              	.LVL23:
 104:Drivers/lvgl/src/extra/widgets/span/lv_span.c ****     LV_ASSERT_MALLOC(span);
 252              		.loc 1 104 5 view .LVU69
 104:Drivers/lvgl/src/extra/widgets/span/lv_span.c ****     LV_ASSERT_MALLOC(span);
 253              		.loc 1 104 24 is_stmt 0 view .LVU70
 254 0006 3030     		adds	r0, r0, #48
 255              	.LVL24:
 104:Drivers/lvgl/src/extra/widgets/span/lv_span.c ****     LV_ASSERT_MALLOC(span);
 256              		.loc 1 104 24 view .LVU71
 257 0008 FFF7FEFF 		bl	_lv_ll_ins_tail
 258              	.LVL25:
 105:Drivers/lvgl/src/extra/widgets/span/lv_span.c **** 
 259              		.loc 1 105 5 is_stmt 1 view .LVU72
 105:Drivers/lvgl/src/extra/widgets/span/lv_span.c **** 
 260              		.loc 1 105 5 view .LVU73
 261 000c 0546     		mov	r5, r0
 262 000e B8B1     		cbz	r0, .L23
 105:Drivers/lvgl/src/extra/widgets/span/lv_span.c **** 
 263              		.loc 1 105 5 discriminator 2 view .LVU74
 105:Drivers/lvgl/src/extra/widgets/span/lv_span.c **** 
 264              		.loc 1 105 27 discriminator 2 view .LVU75
 107:Drivers/lvgl/src/extra/widgets/span/lv_span.c ****     span->txt = (char *)"";
 265              		.loc 1 107 5 view .LVU76
 266 0010 0830     		adds	r0, r0, #8
 267              	.LVL26:
 107:Drivers/lvgl/src/extra/widgets/span/lv_span.c ****     span->txt = (char *)"";
 268              		.loc 1 107 5 is_stmt 0 view .LVU77
 269 0012 FFF7FEFF 		bl	lv_style_init
 270              	.LVL27:
ARM GAS  /var/folders/lp/x54gwt890xv47sdkqj1k04q40000gn/T//cckjqg7q.s 			page 16


 108:Drivers/lvgl/src/extra/widgets/span/lv_span.c ****     span->static_flag = 1;
 271              		.loc 1 108 5 is_stmt 1 view .LVU78
 108:Drivers/lvgl/src/extra/widgets/span/lv_span.c ****     span->static_flag = 1;
 272              		.loc 1 108 15 is_stmt 0 view .LVU79
 273 0016 0C4B     		ldr	r3, .L26
 109:Drivers/lvgl/src/extra/widgets/span/lv_span.c ****     span->spangroup = obj;
 274              		.loc 1 109 23 view .LVU80
 275 0018 2A7C     		ldrb	r2, [r5, #16]	@ zero_extendqisi2
 110:Drivers/lvgl/src/extra/widgets/span/lv_span.c **** 
 276              		.loc 1 110 21 view .LVU81
 277 001a C5E90034 		strd	r3, r4, [r5]
 278              	.LBB100:
 279              	.LBB101:
 530:Drivers/lvgl/src/extra/widgets/span/lv_span.c **** 
 531:Drivers/lvgl/src/extra/widgets/span/lv_span.c **** static void lv_spangroup_event(const lv_obj_class_t * class_p, lv_event_t * e)
 532:Drivers/lvgl/src/extra/widgets/span/lv_span.c **** {
 533:Drivers/lvgl/src/extra/widgets/span/lv_span.c ****     LV_UNUSED(class_p);
 534:Drivers/lvgl/src/extra/widgets/span/lv_span.c **** 
 535:Drivers/lvgl/src/extra/widgets/span/lv_span.c ****     /* Call the ancestor's event handler */
 536:Drivers/lvgl/src/extra/widgets/span/lv_span.c ****     if(lv_obj_event_base(MY_CLASS, e) != LV_RES_OK) return;
 537:Drivers/lvgl/src/extra/widgets/span/lv_span.c **** 
 538:Drivers/lvgl/src/extra/widgets/span/lv_span.c ****     lv_event_code_t code = lv_event_get_code(e);
 539:Drivers/lvgl/src/extra/widgets/span/lv_span.c ****     lv_obj_t * obj = lv_event_get_target(e);
 540:Drivers/lvgl/src/extra/widgets/span/lv_span.c ****     lv_spangroup_t * spans = (lv_spangroup_t *)obj;
 541:Drivers/lvgl/src/extra/widgets/span/lv_span.c **** 
 542:Drivers/lvgl/src/extra/widgets/span/lv_span.c ****     if(code == LV_EVENT_DRAW_MAIN) {
 543:Drivers/lvgl/src/extra/widgets/span/lv_span.c ****         draw_main(e);
 544:Drivers/lvgl/src/extra/widgets/span/lv_span.c ****     }
 545:Drivers/lvgl/src/extra/widgets/span/lv_span.c ****     else if(code == LV_EVENT_STYLE_CHANGED) {
 546:Drivers/lvgl/src/extra/widgets/span/lv_span.c ****         refresh_self_size(obj);
 547:Drivers/lvgl/src/extra/widgets/span/lv_span.c ****     }
 548:Drivers/lvgl/src/extra/widgets/span/lv_span.c ****     else if(code == LV_EVENT_SIZE_CHANGED) {
 549:Drivers/lvgl/src/extra/widgets/span/lv_span.c ****         refresh_self_size(obj);
 550:Drivers/lvgl/src/extra/widgets/span/lv_span.c ****     }
 551:Drivers/lvgl/src/extra/widgets/span/lv_span.c ****     else if(code == LV_EVENT_GET_SELF_SIZE) {
 552:Drivers/lvgl/src/extra/widgets/span/lv_span.c ****         lv_coord_t width = 0;
 553:Drivers/lvgl/src/extra/widgets/span/lv_span.c ****         lv_coord_t height = 0;
 554:Drivers/lvgl/src/extra/widgets/span/lv_span.c ****         lv_point_t * self_size = lv_event_get_param(e);
 555:Drivers/lvgl/src/extra/widgets/span/lv_span.c **** 
 556:Drivers/lvgl/src/extra/widgets/span/lv_span.c ****         if(spans->mode == LV_SPAN_MODE_EXPAND) {
 557:Drivers/lvgl/src/extra/widgets/span/lv_span.c ****             if(spans->refresh) {
 558:Drivers/lvgl/src/extra/widgets/span/lv_span.c ****                 spans->cache_w = (lv_coord_t)lv_spangroup_get_expand_width(obj, 0);
 559:Drivers/lvgl/src/extra/widgets/span/lv_span.c ****                 spans->cache_h = lv_spangroup_get_max_line_h(obj);
 560:Drivers/lvgl/src/extra/widgets/span/lv_span.c ****                 spans->refresh = 0;
 561:Drivers/lvgl/src/extra/widgets/span/lv_span.c ****             }
 562:Drivers/lvgl/src/extra/widgets/span/lv_span.c ****             width = spans->cache_w;
 563:Drivers/lvgl/src/extra/widgets/span/lv_span.c ****             height = spans->cache_h;
 564:Drivers/lvgl/src/extra/widgets/span/lv_span.c ****         }
 565:Drivers/lvgl/src/extra/widgets/span/lv_span.c ****         else if(spans->mode == LV_SPAN_MODE_BREAK) {
 566:Drivers/lvgl/src/extra/widgets/span/lv_span.c ****             width = lv_obj_get_content_width(obj);
 567:Drivers/lvgl/src/extra/widgets/span/lv_span.c ****             if(self_size->y >= 0) {
 568:Drivers/lvgl/src/extra/widgets/span/lv_span.c ****                 if(width != spans->cache_w || spans->refresh) {
 569:Drivers/lvgl/src/extra/widgets/span/lv_span.c ****                     height = lv_spangroup_get_expand_height(obj, width);
 570:Drivers/lvgl/src/extra/widgets/span/lv_span.c ****                     spans->cache_w = width;
 571:Drivers/lvgl/src/extra/widgets/span/lv_span.c ****                     spans->cache_h = height;
 572:Drivers/lvgl/src/extra/widgets/span/lv_span.c ****                     spans->refresh = 0;
 573:Drivers/lvgl/src/extra/widgets/span/lv_span.c ****                 }
ARM GAS  /var/folders/lp/x54gwt890xv47sdkqj1k04q40000gn/T//cckjqg7q.s 			page 17


 574:Drivers/lvgl/src/extra/widgets/span/lv_span.c ****                 else {
 575:Drivers/lvgl/src/extra/widgets/span/lv_span.c ****                     height = spans->cache_h;
 576:Drivers/lvgl/src/extra/widgets/span/lv_span.c ****                 }
 577:Drivers/lvgl/src/extra/widgets/span/lv_span.c ****             }
 578:Drivers/lvgl/src/extra/widgets/span/lv_span.c ****         }
 579:Drivers/lvgl/src/extra/widgets/span/lv_span.c ****         else if(spans->mode == LV_SPAN_MODE_FIXED) {
 580:Drivers/lvgl/src/extra/widgets/span/lv_span.c ****             width =  self_size->x >= 0 ? lv_obj_get_content_width(obj) : 0;
 581:Drivers/lvgl/src/extra/widgets/span/lv_span.c ****             height = self_size->y >= 0 ? lv_obj_get_content_height(obj) : 0;
 582:Drivers/lvgl/src/extra/widgets/span/lv_span.c ****         }
 583:Drivers/lvgl/src/extra/widgets/span/lv_span.c ****         self_size->x = LV_MAX(self_size->x, width);
 584:Drivers/lvgl/src/extra/widgets/span/lv_span.c ****         self_size->y = LV_MAX(self_size->y, height);
 585:Drivers/lvgl/src/extra/widgets/span/lv_span.c ****     }
 586:Drivers/lvgl/src/extra/widgets/span/lv_span.c **** }
 587:Drivers/lvgl/src/extra/widgets/span/lv_span.c **** 
 588:Drivers/lvgl/src/extra/widgets/span/lv_span.c **** static void draw_main(lv_event_t * e)
 589:Drivers/lvgl/src/extra/widgets/span/lv_span.c **** {
 590:Drivers/lvgl/src/extra/widgets/span/lv_span.c ****     lv_obj_t * obj = lv_event_get_target(e);
 591:Drivers/lvgl/src/extra/widgets/span/lv_span.c ****     lv_draw_ctx_t * draw_ctx = lv_event_get_draw_ctx(e);
 592:Drivers/lvgl/src/extra/widgets/span/lv_span.c **** 
 593:Drivers/lvgl/src/extra/widgets/span/lv_span.c ****     lv_draw_span(obj, draw_ctx);
 594:Drivers/lvgl/src/extra/widgets/span/lv_span.c **** }
 595:Drivers/lvgl/src/extra/widgets/span/lv_span.c **** 
 596:Drivers/lvgl/src/extra/widgets/span/lv_span.c **** /**
 597:Drivers/lvgl/src/extra/widgets/span/lv_span.c ****  * @return true for txt fill the max_width.
 598:Drivers/lvgl/src/extra/widgets/span/lv_span.c ****  */
 599:Drivers/lvgl/src/extra/widgets/span/lv_span.c **** static bool lv_txt_get_snippet(const char * txt, const lv_font_t * font,
 600:Drivers/lvgl/src/extra/widgets/span/lv_span.c ****                                lv_coord_t letter_space, lv_coord_t max_width, lv_text_flag_t flag,
 601:Drivers/lvgl/src/extra/widgets/span/lv_span.c ****                                lv_coord_t * use_width, uint32_t * end_ofs)
 602:Drivers/lvgl/src/extra/widgets/span/lv_span.c **** {
 603:Drivers/lvgl/src/extra/widgets/span/lv_span.c ****     if(txt == NULL || txt[0] == '\0') {
 604:Drivers/lvgl/src/extra/widgets/span/lv_span.c ****         *end_ofs = 0;
 605:Drivers/lvgl/src/extra/widgets/span/lv_span.c ****         *use_width = 0;
 606:Drivers/lvgl/src/extra/widgets/span/lv_span.c ****         return false;
 607:Drivers/lvgl/src/extra/widgets/span/lv_span.c ****     }
 608:Drivers/lvgl/src/extra/widgets/span/lv_span.c **** 
 609:Drivers/lvgl/src/extra/widgets/span/lv_span.c ****     uint32_t ofs = _lv_txt_get_next_line(txt, font, letter_space, max_width, use_width, flag);
 610:Drivers/lvgl/src/extra/widgets/span/lv_span.c ****     *end_ofs = ofs;
 611:Drivers/lvgl/src/extra/widgets/span/lv_span.c **** 
 612:Drivers/lvgl/src/extra/widgets/span/lv_span.c ****     if(txt[ofs] == '\0' && *use_width < max_width) {
 613:Drivers/lvgl/src/extra/widgets/span/lv_span.c ****         return false;
 614:Drivers/lvgl/src/extra/widgets/span/lv_span.c ****     }
 615:Drivers/lvgl/src/extra/widgets/span/lv_span.c ****     else {
 616:Drivers/lvgl/src/extra/widgets/span/lv_span.c ****         return true;
 617:Drivers/lvgl/src/extra/widgets/span/lv_span.c ****     }
 618:Drivers/lvgl/src/extra/widgets/span/lv_span.c **** }
 619:Drivers/lvgl/src/extra/widgets/span/lv_span.c **** 
 620:Drivers/lvgl/src/extra/widgets/span/lv_span.c **** static void lv_snippet_push(lv_snippet_t * item)
 621:Drivers/lvgl/src/extra/widgets/span/lv_span.c **** {
 622:Drivers/lvgl/src/extra/widgets/span/lv_span.c ****     if(snippet_stack.index < LV_SPAN_SNIPPET_STACK_SIZE) {
 623:Drivers/lvgl/src/extra/widgets/span/lv_span.c ****         memcpy(&snippet_stack.stack[snippet_stack.index], item, sizeof(lv_snippet_t));
 624:Drivers/lvgl/src/extra/widgets/span/lv_span.c ****         snippet_stack.index++;
 625:Drivers/lvgl/src/extra/widgets/span/lv_span.c ****     }
 626:Drivers/lvgl/src/extra/widgets/span/lv_span.c ****     else {
 627:Drivers/lvgl/src/extra/widgets/span/lv_span.c ****         LV_LOG_ERROR("span draw stack overflow, please set LV_SPAN_SNIPPET_STACK_SIZE too larger");
 628:Drivers/lvgl/src/extra/widgets/span/lv_span.c ****     }
 629:Drivers/lvgl/src/extra/widgets/span/lv_span.c **** }
 630:Drivers/lvgl/src/extra/widgets/span/lv_span.c **** 
ARM GAS  /var/folders/lp/x54gwt890xv47sdkqj1k04q40000gn/T//cckjqg7q.s 			page 18


 631:Drivers/lvgl/src/extra/widgets/span/lv_span.c **** static uint16_t lv_get_snippet_cnt(void)
 632:Drivers/lvgl/src/extra/widgets/span/lv_span.c **** {
 633:Drivers/lvgl/src/extra/widgets/span/lv_span.c ****     return snippet_stack.index;
 634:Drivers/lvgl/src/extra/widgets/span/lv_span.c **** }
 635:Drivers/lvgl/src/extra/widgets/span/lv_span.c **** 
 636:Drivers/lvgl/src/extra/widgets/span/lv_span.c **** static lv_snippet_t * lv_get_snippet(uint16_t index)
 637:Drivers/lvgl/src/extra/widgets/span/lv_span.c **** {
 638:Drivers/lvgl/src/extra/widgets/span/lv_span.c ****     return &snippet_stack.stack[index];
 639:Drivers/lvgl/src/extra/widgets/span/lv_span.c **** }
 640:Drivers/lvgl/src/extra/widgets/span/lv_span.c **** 
 641:Drivers/lvgl/src/extra/widgets/span/lv_span.c **** static void lv_snippet_clear(void)
 642:Drivers/lvgl/src/extra/widgets/span/lv_span.c **** {
 643:Drivers/lvgl/src/extra/widgets/span/lv_span.c ****     snippet_stack.index = 0;
 644:Drivers/lvgl/src/extra/widgets/span/lv_span.c **** }
 645:Drivers/lvgl/src/extra/widgets/span/lv_span.c **** 
 646:Drivers/lvgl/src/extra/widgets/span/lv_span.c **** static const lv_font_t * lv_span_get_style_text_font(lv_obj_t * par, lv_span_t * span)
 647:Drivers/lvgl/src/extra/widgets/span/lv_span.c **** {
 648:Drivers/lvgl/src/extra/widgets/span/lv_span.c ****     const lv_font_t * font;
 649:Drivers/lvgl/src/extra/widgets/span/lv_span.c ****     lv_style_value_t value;
 650:Drivers/lvgl/src/extra/widgets/span/lv_span.c ****     lv_res_t res = lv_style_get_prop(&span->style, LV_STYLE_TEXT_FONT, &value);
 651:Drivers/lvgl/src/extra/widgets/span/lv_span.c ****     if(res != LV_RES_OK) {
 652:Drivers/lvgl/src/extra/widgets/span/lv_span.c ****         font = lv_obj_get_style_text_font(par, LV_PART_MAIN);
 653:Drivers/lvgl/src/extra/widgets/span/lv_span.c ****     }
 654:Drivers/lvgl/src/extra/widgets/span/lv_span.c ****     else {
 655:Drivers/lvgl/src/extra/widgets/span/lv_span.c ****         font = (const lv_font_t *)value.ptr;
 656:Drivers/lvgl/src/extra/widgets/span/lv_span.c ****     }
 657:Drivers/lvgl/src/extra/widgets/span/lv_span.c ****     return font;
 658:Drivers/lvgl/src/extra/widgets/span/lv_span.c **** }
 659:Drivers/lvgl/src/extra/widgets/span/lv_span.c **** 
 660:Drivers/lvgl/src/extra/widgets/span/lv_span.c **** static lv_coord_t lv_span_get_style_text_letter_space(lv_obj_t * par, lv_span_t * span)
 661:Drivers/lvgl/src/extra/widgets/span/lv_span.c **** {
 662:Drivers/lvgl/src/extra/widgets/span/lv_span.c ****     lv_coord_t letter_space;
 663:Drivers/lvgl/src/extra/widgets/span/lv_span.c ****     lv_style_value_t value;
 664:Drivers/lvgl/src/extra/widgets/span/lv_span.c ****     lv_res_t res = lv_style_get_prop(&span->style, LV_STYLE_TEXT_LETTER_SPACE, &value);
 665:Drivers/lvgl/src/extra/widgets/span/lv_span.c ****     if(res != LV_RES_OK) {
 666:Drivers/lvgl/src/extra/widgets/span/lv_span.c ****         letter_space = lv_obj_get_style_text_letter_space(par, LV_PART_MAIN);
 667:Drivers/lvgl/src/extra/widgets/span/lv_span.c ****     }
 668:Drivers/lvgl/src/extra/widgets/span/lv_span.c ****     else {
 669:Drivers/lvgl/src/extra/widgets/span/lv_span.c ****         letter_space = (lv_coord_t)value.num;
 670:Drivers/lvgl/src/extra/widgets/span/lv_span.c ****     }
 671:Drivers/lvgl/src/extra/widgets/span/lv_span.c ****     return letter_space;
 672:Drivers/lvgl/src/extra/widgets/span/lv_span.c **** }
 673:Drivers/lvgl/src/extra/widgets/span/lv_span.c **** 
 674:Drivers/lvgl/src/extra/widgets/span/lv_span.c **** static lv_color_t lv_span_get_style_text_color(lv_obj_t * par, lv_span_t * span)
 675:Drivers/lvgl/src/extra/widgets/span/lv_span.c **** {
 676:Drivers/lvgl/src/extra/widgets/span/lv_span.c ****     lv_style_value_t value;
 677:Drivers/lvgl/src/extra/widgets/span/lv_span.c ****     lv_res_t res = lv_style_get_prop(&span->style, LV_STYLE_TEXT_COLOR, &value);
 678:Drivers/lvgl/src/extra/widgets/span/lv_span.c ****     if(res != LV_RES_OK) {
 679:Drivers/lvgl/src/extra/widgets/span/lv_span.c ****         value.color = lv_obj_get_style_text_color(par, LV_PART_MAIN);
 680:Drivers/lvgl/src/extra/widgets/span/lv_span.c ****     }
 681:Drivers/lvgl/src/extra/widgets/span/lv_span.c ****     return value.color;
 682:Drivers/lvgl/src/extra/widgets/span/lv_span.c **** }
 683:Drivers/lvgl/src/extra/widgets/span/lv_span.c **** 
 684:Drivers/lvgl/src/extra/widgets/span/lv_span.c **** static lv_opa_t lv_span_get_style_text_opa(lv_obj_t * par, lv_span_t * span)
 685:Drivers/lvgl/src/extra/widgets/span/lv_span.c **** {
 686:Drivers/lvgl/src/extra/widgets/span/lv_span.c ****     lv_opa_t opa;
 687:Drivers/lvgl/src/extra/widgets/span/lv_span.c ****     lv_style_value_t value;
ARM GAS  /var/folders/lp/x54gwt890xv47sdkqj1k04q40000gn/T//cckjqg7q.s 			page 19


 688:Drivers/lvgl/src/extra/widgets/span/lv_span.c ****     lv_res_t res = lv_style_get_prop(&span->style, LV_STYLE_TEXT_OPA, &value);
 689:Drivers/lvgl/src/extra/widgets/span/lv_span.c ****     if(res != LV_RES_OK) {
 690:Drivers/lvgl/src/extra/widgets/span/lv_span.c ****         opa = (lv_opa_t)lv_obj_get_style_text_opa(par, LV_PART_MAIN);
 691:Drivers/lvgl/src/extra/widgets/span/lv_span.c ****     }
 692:Drivers/lvgl/src/extra/widgets/span/lv_span.c ****     else {
 693:Drivers/lvgl/src/extra/widgets/span/lv_span.c ****         opa = (lv_opa_t)value.num;
 694:Drivers/lvgl/src/extra/widgets/span/lv_span.c ****     }
 695:Drivers/lvgl/src/extra/widgets/span/lv_span.c ****     return opa;
 696:Drivers/lvgl/src/extra/widgets/span/lv_span.c **** }
 697:Drivers/lvgl/src/extra/widgets/span/lv_span.c **** 
 698:Drivers/lvgl/src/extra/widgets/span/lv_span.c **** static lv_blend_mode_t lv_span_get_style_text_blend_mode(lv_obj_t * par, lv_span_t * span)
 699:Drivers/lvgl/src/extra/widgets/span/lv_span.c **** {
 700:Drivers/lvgl/src/extra/widgets/span/lv_span.c ****     lv_blend_mode_t mode;
 701:Drivers/lvgl/src/extra/widgets/span/lv_span.c ****     lv_style_value_t value;
 702:Drivers/lvgl/src/extra/widgets/span/lv_span.c ****     lv_res_t res = lv_style_get_prop(&span->style, LV_STYLE_BLEND_MODE, &value);
 703:Drivers/lvgl/src/extra/widgets/span/lv_span.c ****     if(res != LV_RES_OK) {
 704:Drivers/lvgl/src/extra/widgets/span/lv_span.c ****         mode = (lv_blend_mode_t)lv_obj_get_style_blend_mode(par, LV_PART_MAIN);
 705:Drivers/lvgl/src/extra/widgets/span/lv_span.c ****     }
 706:Drivers/lvgl/src/extra/widgets/span/lv_span.c ****     else {
 707:Drivers/lvgl/src/extra/widgets/span/lv_span.c ****         mode = (lv_blend_mode_t)value.num;
 708:Drivers/lvgl/src/extra/widgets/span/lv_span.c ****     }
 709:Drivers/lvgl/src/extra/widgets/span/lv_span.c ****     return mode;
 710:Drivers/lvgl/src/extra/widgets/span/lv_span.c **** }
 711:Drivers/lvgl/src/extra/widgets/span/lv_span.c **** 
 712:Drivers/lvgl/src/extra/widgets/span/lv_span.c **** static int32_t lv_span_get_style_text_decor(lv_obj_t * par, lv_span_t * span)
 713:Drivers/lvgl/src/extra/widgets/span/lv_span.c **** {
 714:Drivers/lvgl/src/extra/widgets/span/lv_span.c ****     int32_t decor;
 715:Drivers/lvgl/src/extra/widgets/span/lv_span.c ****     lv_style_value_t value;
 716:Drivers/lvgl/src/extra/widgets/span/lv_span.c ****     lv_res_t res = lv_style_get_prop(&span->style, LV_STYLE_TEXT_DECOR, &value);
 717:Drivers/lvgl/src/extra/widgets/span/lv_span.c ****     if(res != LV_RES_OK) {
 718:Drivers/lvgl/src/extra/widgets/span/lv_span.c ****         decor = (lv_text_decor_t)lv_obj_get_style_text_decor(par, LV_PART_MAIN);;
 719:Drivers/lvgl/src/extra/widgets/span/lv_span.c ****     }
 720:Drivers/lvgl/src/extra/widgets/span/lv_span.c ****     else {
 721:Drivers/lvgl/src/extra/widgets/span/lv_span.c ****         decor = (int32_t)value.num;
 722:Drivers/lvgl/src/extra/widgets/span/lv_span.c ****     }
 723:Drivers/lvgl/src/extra/widgets/span/lv_span.c ****     return decor;
 724:Drivers/lvgl/src/extra/widgets/span/lv_span.c **** }
 725:Drivers/lvgl/src/extra/widgets/span/lv_span.c **** 
 726:Drivers/lvgl/src/extra/widgets/span/lv_span.c **** static inline void span_text_check(const char ** text)
 727:Drivers/lvgl/src/extra/widgets/span/lv_span.c **** {
 728:Drivers/lvgl/src/extra/widgets/span/lv_span.c ****     if(*text == NULL) {
 729:Drivers/lvgl/src/extra/widgets/span/lv_span.c ****         *text = "";
 730:Drivers/lvgl/src/extra/widgets/span/lv_span.c ****         LV_LOG_ERROR("occur an error that span text == NULL");
 731:Drivers/lvgl/src/extra/widgets/span/lv_span.c ****     }
 732:Drivers/lvgl/src/extra/widgets/span/lv_span.c **** }
 733:Drivers/lvgl/src/extra/widgets/span/lv_span.c **** 
 734:Drivers/lvgl/src/extra/widgets/span/lv_span.c **** static lv_coord_t convert_indent_pct(lv_obj_t * obj, lv_coord_t width)
 735:Drivers/lvgl/src/extra/widgets/span/lv_span.c **** {
 736:Drivers/lvgl/src/extra/widgets/span/lv_span.c ****     lv_spangroup_t * spans = (lv_spangroup_t *)obj;
 737:Drivers/lvgl/src/extra/widgets/span/lv_span.c **** 
 738:Drivers/lvgl/src/extra/widgets/span/lv_span.c ****     lv_coord_t indent = spans->indent;
 739:Drivers/lvgl/src/extra/widgets/span/lv_span.c ****     if(LV_COORD_IS_PCT(spans->indent)) {
 740:Drivers/lvgl/src/extra/widgets/span/lv_span.c ****         if(spans->mode == LV_SPAN_MODE_EXPAND) {
 741:Drivers/lvgl/src/extra/widgets/span/lv_span.c ****             indent = 0;
 742:Drivers/lvgl/src/extra/widgets/span/lv_span.c ****         }
 743:Drivers/lvgl/src/extra/widgets/span/lv_span.c ****         else {
 744:Drivers/lvgl/src/extra/widgets/span/lv_span.c ****             indent = (width * LV_COORD_GET_PCT(spans->indent)) / 100;
ARM GAS  /var/folders/lp/x54gwt890xv47sdkqj1k04q40000gn/T//cckjqg7q.s 			page 20


 745:Drivers/lvgl/src/extra/widgets/span/lv_span.c ****         }
 746:Drivers/lvgl/src/extra/widgets/span/lv_span.c ****     }
 747:Drivers/lvgl/src/extra/widgets/span/lv_span.c **** 
 748:Drivers/lvgl/src/extra/widgets/span/lv_span.c ****     return indent;
 749:Drivers/lvgl/src/extra/widgets/span/lv_span.c **** }
 750:Drivers/lvgl/src/extra/widgets/span/lv_span.c **** 
 751:Drivers/lvgl/src/extra/widgets/span/lv_span.c **** /**
 752:Drivers/lvgl/src/extra/widgets/span/lv_span.c ****  * draw span group
 753:Drivers/lvgl/src/extra/widgets/span/lv_span.c ****  * @param spans obj handle
 754:Drivers/lvgl/src/extra/widgets/span/lv_span.c ****  * @param coords coordinates of the label
 755:Drivers/lvgl/src/extra/widgets/span/lv_span.c ****  * @param mask the label will be drawn only in this area
 756:Drivers/lvgl/src/extra/widgets/span/lv_span.c ****  */
 757:Drivers/lvgl/src/extra/widgets/span/lv_span.c **** static void lv_draw_span(lv_obj_t * obj, lv_draw_ctx_t * draw_ctx)
 758:Drivers/lvgl/src/extra/widgets/span/lv_span.c **** {
 759:Drivers/lvgl/src/extra/widgets/span/lv_span.c **** 
 760:Drivers/lvgl/src/extra/widgets/span/lv_span.c ****     lv_area_t coords;
 761:Drivers/lvgl/src/extra/widgets/span/lv_span.c ****     lv_obj_get_content_coords(obj, &coords);
 762:Drivers/lvgl/src/extra/widgets/span/lv_span.c **** 
 763:Drivers/lvgl/src/extra/widgets/span/lv_span.c ****     lv_spangroup_t * spans = (lv_spangroup_t *)obj;
 764:Drivers/lvgl/src/extra/widgets/span/lv_span.c **** 
 765:Drivers/lvgl/src/extra/widgets/span/lv_span.c ****     /* return if not span */
 766:Drivers/lvgl/src/extra/widgets/span/lv_span.c ****     if(_lv_ll_get_head(&spans->child_ll) == NULL) {
 767:Drivers/lvgl/src/extra/widgets/span/lv_span.c ****         return;
 768:Drivers/lvgl/src/extra/widgets/span/lv_span.c ****     }
 769:Drivers/lvgl/src/extra/widgets/span/lv_span.c **** 
 770:Drivers/lvgl/src/extra/widgets/span/lv_span.c ****     /* return if no draw area */
 771:Drivers/lvgl/src/extra/widgets/span/lv_span.c ****     lv_area_t clip_area;
 772:Drivers/lvgl/src/extra/widgets/span/lv_span.c ****     if(!_lv_area_intersect(&clip_area, &coords, draw_ctx->clip_area))  return;
 773:Drivers/lvgl/src/extra/widgets/span/lv_span.c ****     const lv_area_t * clip_area_ori = draw_ctx->clip_area;
 774:Drivers/lvgl/src/extra/widgets/span/lv_span.c ****     draw_ctx->clip_area = &clip_area;
 775:Drivers/lvgl/src/extra/widgets/span/lv_span.c **** 
 776:Drivers/lvgl/src/extra/widgets/span/lv_span.c ****     /* init draw variable */
 777:Drivers/lvgl/src/extra/widgets/span/lv_span.c ****     lv_text_flag_t txt_flag = LV_TEXT_FLAG_NONE;
 778:Drivers/lvgl/src/extra/widgets/span/lv_span.c ****     lv_coord_t line_space = lv_obj_get_style_text_line_space(obj, LV_PART_MAIN);;
 779:Drivers/lvgl/src/extra/widgets/span/lv_span.c ****     lv_coord_t max_width = lv_area_get_width(&coords);
 780:Drivers/lvgl/src/extra/widgets/span/lv_span.c ****     lv_coord_t indent = convert_indent_pct(obj, max_width);
 781:Drivers/lvgl/src/extra/widgets/span/lv_span.c ****     lv_coord_t max_w  = max_width - indent; /* first line need minus indent */
 782:Drivers/lvgl/src/extra/widgets/span/lv_span.c ****     lv_opa_t obj_opa = lv_obj_get_style_opa_recursive(obj, LV_PART_MAIN);
 783:Drivers/lvgl/src/extra/widgets/span/lv_span.c **** 
 784:Drivers/lvgl/src/extra/widgets/span/lv_span.c ****     /* coords of draw span-txt */
 785:Drivers/lvgl/src/extra/widgets/span/lv_span.c ****     lv_point_t txt_pos;
 786:Drivers/lvgl/src/extra/widgets/span/lv_span.c ****     txt_pos.y = coords.y1;
 787:Drivers/lvgl/src/extra/widgets/span/lv_span.c ****     txt_pos.x = coords.x1 + indent; /* first line need add indent */
 788:Drivers/lvgl/src/extra/widgets/span/lv_span.c **** 
 789:Drivers/lvgl/src/extra/widgets/span/lv_span.c ****     lv_span_t * cur_span = _lv_ll_get_head(&spans->child_ll);
 790:Drivers/lvgl/src/extra/widgets/span/lv_span.c ****     const char * cur_txt = cur_span->txt;
 791:Drivers/lvgl/src/extra/widgets/span/lv_span.c ****     span_text_check(&cur_txt);
 792:Drivers/lvgl/src/extra/widgets/span/lv_span.c ****     uint32_t cur_txt_ofs = 0;
 793:Drivers/lvgl/src/extra/widgets/span/lv_span.c ****     lv_snippet_t snippet;   /* use to save cur_span info and push it to stack */
 794:Drivers/lvgl/src/extra/widgets/span/lv_span.c ****     lv_memset_00(&snippet, sizeof(snippet));
 795:Drivers/lvgl/src/extra/widgets/span/lv_span.c **** 
 796:Drivers/lvgl/src/extra/widgets/span/lv_span.c ****     lv_draw_label_dsc_t label_draw_dsc;
 797:Drivers/lvgl/src/extra/widgets/span/lv_span.c ****     lv_draw_label_dsc_init(&label_draw_dsc);
 798:Drivers/lvgl/src/extra/widgets/span/lv_span.c **** 
 799:Drivers/lvgl/src/extra/widgets/span/lv_span.c ****     bool is_first_line = true;
 800:Drivers/lvgl/src/extra/widgets/span/lv_span.c ****     /* the loop control how many lines need to draw */
 801:Drivers/lvgl/src/extra/widgets/span/lv_span.c ****     while(cur_span) {
ARM GAS  /var/folders/lp/x54gwt890xv47sdkqj1k04q40000gn/T//cckjqg7q.s 			page 21


 802:Drivers/lvgl/src/extra/widgets/span/lv_span.c ****         bool is_end_line = false;
 803:Drivers/lvgl/src/extra/widgets/span/lv_span.c ****         bool ellipsis_valid = false;
 804:Drivers/lvgl/src/extra/widgets/span/lv_span.c ****         lv_coord_t max_line_h = 0;  /* the max height of span-font when a line have a lot of span *
 805:Drivers/lvgl/src/extra/widgets/span/lv_span.c ****         lv_coord_t max_baseline = 0; /*baseline of the highest span*/
 806:Drivers/lvgl/src/extra/widgets/span/lv_span.c ****         lv_snippet_clear();
 807:Drivers/lvgl/src/extra/widgets/span/lv_span.c **** 
 808:Drivers/lvgl/src/extra/widgets/span/lv_span.c ****         /* the loop control to find a line and push the relevant span info into stack  */
 809:Drivers/lvgl/src/extra/widgets/span/lv_span.c ****         while(1) {
 810:Drivers/lvgl/src/extra/widgets/span/lv_span.c ****             /* switch to the next span when current is end */
 811:Drivers/lvgl/src/extra/widgets/span/lv_span.c ****             if(cur_txt[cur_txt_ofs] == '\0') {
 812:Drivers/lvgl/src/extra/widgets/span/lv_span.c ****                 cur_span = _lv_ll_get_next(&spans->child_ll, cur_span);
 813:Drivers/lvgl/src/extra/widgets/span/lv_span.c ****                 if(cur_span == NULL) break;
 814:Drivers/lvgl/src/extra/widgets/span/lv_span.c ****                 cur_txt = cur_span->txt;
 815:Drivers/lvgl/src/extra/widgets/span/lv_span.c ****                 span_text_check(&cur_txt);
 816:Drivers/lvgl/src/extra/widgets/span/lv_span.c ****                 cur_txt_ofs = 0;
 817:Drivers/lvgl/src/extra/widgets/span/lv_span.c ****                 /* maybe also cur_txt[cur_txt_ofs] == '\0' */
 818:Drivers/lvgl/src/extra/widgets/span/lv_span.c ****                 continue;
 819:Drivers/lvgl/src/extra/widgets/span/lv_span.c ****             }
 820:Drivers/lvgl/src/extra/widgets/span/lv_span.c **** 
 821:Drivers/lvgl/src/extra/widgets/span/lv_span.c ****             /* init span info to snippet. */
 822:Drivers/lvgl/src/extra/widgets/span/lv_span.c ****             if(cur_txt_ofs == 0) {
 823:Drivers/lvgl/src/extra/widgets/span/lv_span.c ****                 snippet.span = cur_span;
 824:Drivers/lvgl/src/extra/widgets/span/lv_span.c ****                 snippet.font = lv_span_get_style_text_font(obj, cur_span);
 825:Drivers/lvgl/src/extra/widgets/span/lv_span.c ****                 snippet.letter_space = lv_span_get_style_text_letter_space(obj, cur_span);
 826:Drivers/lvgl/src/extra/widgets/span/lv_span.c ****                 snippet.line_h = lv_font_get_line_height(snippet.font) + line_space;
 827:Drivers/lvgl/src/extra/widgets/span/lv_span.c ****             }
 828:Drivers/lvgl/src/extra/widgets/span/lv_span.c **** 
 829:Drivers/lvgl/src/extra/widgets/span/lv_span.c ****             /* get current span text line info */
 830:Drivers/lvgl/src/extra/widgets/span/lv_span.c ****             uint32_t next_ofs = 0;
 831:Drivers/lvgl/src/extra/widgets/span/lv_span.c ****             lv_coord_t use_width = 0;
 832:Drivers/lvgl/src/extra/widgets/span/lv_span.c ****             bool isfill = lv_txt_get_snippet(&cur_txt[cur_txt_ofs], snippet.font, snippet.letter_sp
 833:Drivers/lvgl/src/extra/widgets/span/lv_span.c ****                                              max_w, txt_flag, &use_width, &next_ofs);
 834:Drivers/lvgl/src/extra/widgets/span/lv_span.c **** 
 835:Drivers/lvgl/src/extra/widgets/span/lv_span.c ****             if(isfill) {
 836:Drivers/lvgl/src/extra/widgets/span/lv_span.c ****                 if(next_ofs > 0 && lv_get_snippet_cnt() > 0) {
 837:Drivers/lvgl/src/extra/widgets/span/lv_span.c ****                     /* To prevent infinite loops, the _lv_txt_get_next_line() may return incomplete
 838:Drivers/lvgl/src/extra/widgets/span/lv_span.c ****                     /* This phenomenon should be avoided when lv_get_snippet_cnt() > 0 */
 839:Drivers/lvgl/src/extra/widgets/span/lv_span.c ****                     if(max_w < use_width) {
 840:Drivers/lvgl/src/extra/widgets/span/lv_span.c ****                         break;
 841:Drivers/lvgl/src/extra/widgets/span/lv_span.c ****                     }
 842:Drivers/lvgl/src/extra/widgets/span/lv_span.c ****                     uint32_t tmp_ofs = next_ofs;
 843:Drivers/lvgl/src/extra/widgets/span/lv_span.c ****                     uint32_t letter = _lv_txt_encoded_prev(&cur_txt[cur_txt_ofs], &tmp_ofs);
 844:Drivers/lvgl/src/extra/widgets/span/lv_span.c ****                     if(!(letter == '\0' || letter == '\n' || letter == '\r' || _lv_txt_is_break_cha
 845:Drivers/lvgl/src/extra/widgets/span/lv_span.c ****                         tmp_ofs = 0;
 846:Drivers/lvgl/src/extra/widgets/span/lv_span.c ****                         letter = _lv_txt_encoded_next(&cur_txt[cur_txt_ofs + next_ofs], &tmp_ofs);
 847:Drivers/lvgl/src/extra/widgets/span/lv_span.c ****                         if(!(letter == '\0' || letter == '\n'  || letter == '\r' || _lv_txt_is_brea
 848:Drivers/lvgl/src/extra/widgets/span/lv_span.c ****                             break;
 849:Drivers/lvgl/src/extra/widgets/span/lv_span.c ****                         }
 850:Drivers/lvgl/src/extra/widgets/span/lv_span.c ****                     }
 851:Drivers/lvgl/src/extra/widgets/span/lv_span.c ****                 }
 852:Drivers/lvgl/src/extra/widgets/span/lv_span.c ****             }
 853:Drivers/lvgl/src/extra/widgets/span/lv_span.c **** 
 854:Drivers/lvgl/src/extra/widgets/span/lv_span.c ****             snippet.txt = &cur_txt[cur_txt_ofs];
 855:Drivers/lvgl/src/extra/widgets/span/lv_span.c ****             snippet.bytes = next_ofs;
 856:Drivers/lvgl/src/extra/widgets/span/lv_span.c ****             snippet.txt_w = use_width;
 857:Drivers/lvgl/src/extra/widgets/span/lv_span.c ****             cur_txt_ofs += next_ofs;
 858:Drivers/lvgl/src/extra/widgets/span/lv_span.c ****             if(max_line_h < snippet.line_h) {
ARM GAS  /var/folders/lp/x54gwt890xv47sdkqj1k04q40000gn/T//cckjqg7q.s 			page 22


 859:Drivers/lvgl/src/extra/widgets/span/lv_span.c ****                 max_line_h = snippet.line_h;
 860:Drivers/lvgl/src/extra/widgets/span/lv_span.c ****                 max_baseline = snippet.font->base_line;
 861:Drivers/lvgl/src/extra/widgets/span/lv_span.c ****             }
 862:Drivers/lvgl/src/extra/widgets/span/lv_span.c **** 
 863:Drivers/lvgl/src/extra/widgets/span/lv_span.c ****             lv_snippet_push(&snippet);
 864:Drivers/lvgl/src/extra/widgets/span/lv_span.c ****             max_w = max_w - use_width - snippet.letter_space;
 865:Drivers/lvgl/src/extra/widgets/span/lv_span.c ****             if(isfill || max_w <= 0) {
 866:Drivers/lvgl/src/extra/widgets/span/lv_span.c ****                 break;
 867:Drivers/lvgl/src/extra/widgets/span/lv_span.c ****             }
 868:Drivers/lvgl/src/extra/widgets/span/lv_span.c ****         }
 869:Drivers/lvgl/src/extra/widgets/span/lv_span.c **** 
 870:Drivers/lvgl/src/extra/widgets/span/lv_span.c ****         /* start current line deal with */
 871:Drivers/lvgl/src/extra/widgets/span/lv_span.c **** 
 872:Drivers/lvgl/src/extra/widgets/span/lv_span.c ****         uint16_t item_cnt = lv_get_snippet_cnt();
 873:Drivers/lvgl/src/extra/widgets/span/lv_span.c ****         if(item_cnt == 0) {     /* break if stack is empty */
 874:Drivers/lvgl/src/extra/widgets/span/lv_span.c ****             break;
 875:Drivers/lvgl/src/extra/widgets/span/lv_span.c ****         }
 876:Drivers/lvgl/src/extra/widgets/span/lv_span.c **** 
 877:Drivers/lvgl/src/extra/widgets/span/lv_span.c ****         /* Whether the current line is the end line and does overflow processing */
 878:Drivers/lvgl/src/extra/widgets/span/lv_span.c ****         {
 879:Drivers/lvgl/src/extra/widgets/span/lv_span.c ****             lv_snippet_t * last_snippet = lv_get_snippet(item_cnt - 1);
 880:Drivers/lvgl/src/extra/widgets/span/lv_span.c ****             lv_coord_t next_line_h = last_snippet->line_h;
 881:Drivers/lvgl/src/extra/widgets/span/lv_span.c ****             if(last_snippet->txt[last_snippet->bytes] == '\0') {
 882:Drivers/lvgl/src/extra/widgets/span/lv_span.c ****                 next_line_h = 0;
 883:Drivers/lvgl/src/extra/widgets/span/lv_span.c ****                 lv_span_t * next_span = _lv_ll_get_next(&spans->child_ll, last_snippet->span);
 884:Drivers/lvgl/src/extra/widgets/span/lv_span.c ****                 if(next_span) { /* have the next line */
 885:Drivers/lvgl/src/extra/widgets/span/lv_span.c ****                     next_line_h = lv_font_get_line_height(lv_span_get_style_text_font(obj, next_spa
 886:Drivers/lvgl/src/extra/widgets/span/lv_span.c ****                 }
 887:Drivers/lvgl/src/extra/widgets/span/lv_span.c ****             }
 888:Drivers/lvgl/src/extra/widgets/span/lv_span.c ****             if(txt_pos.y + max_line_h + next_line_h - line_space > coords.y2 + 1) { /* for overflow
 889:Drivers/lvgl/src/extra/widgets/span/lv_span.c ****                 if(last_snippet->txt[last_snippet->bytes] != '\0') {
 890:Drivers/lvgl/src/extra/widgets/span/lv_span.c ****                     last_snippet->bytes = strlen(last_snippet->txt);
 891:Drivers/lvgl/src/extra/widgets/span/lv_span.c ****                     last_snippet->txt_w = lv_txt_get_width(last_snippet->txt, last_snippet->bytes, 
 892:Drivers/lvgl/src/extra/widgets/span/lv_span.c ****                                                            last_snippet->letter_space, txt_flag);
 893:Drivers/lvgl/src/extra/widgets/span/lv_span.c ****                 }
 894:Drivers/lvgl/src/extra/widgets/span/lv_span.c ****                 ellipsis_valid = spans->overflow == LV_SPAN_OVERFLOW_ELLIPSIS ? true : false;
 895:Drivers/lvgl/src/extra/widgets/span/lv_span.c ****                 is_end_line = true;
 896:Drivers/lvgl/src/extra/widgets/span/lv_span.c ****             }
 897:Drivers/lvgl/src/extra/widgets/span/lv_span.c ****         }
 898:Drivers/lvgl/src/extra/widgets/span/lv_span.c **** 
 899:Drivers/lvgl/src/extra/widgets/span/lv_span.c ****         /*Go the first visible line*/
 900:Drivers/lvgl/src/extra/widgets/span/lv_span.c ****         if(txt_pos.y + max_line_h < clip_area.y1) {
 901:Drivers/lvgl/src/extra/widgets/span/lv_span.c ****             goto Next_line_init;
 902:Drivers/lvgl/src/extra/widgets/span/lv_span.c ****         }
 903:Drivers/lvgl/src/extra/widgets/span/lv_span.c **** 
 904:Drivers/lvgl/src/extra/widgets/span/lv_span.c ****         /* align deal with */
 905:Drivers/lvgl/src/extra/widgets/span/lv_span.c ****         lv_text_align_t align = lv_obj_get_style_text_align(obj, LV_PART_MAIN);
 906:Drivers/lvgl/src/extra/widgets/span/lv_span.c ****         if(align == LV_TEXT_ALIGN_CENTER || align == LV_TEXT_ALIGN_RIGHT) {
 907:Drivers/lvgl/src/extra/widgets/span/lv_span.c ****             lv_coord_t align_ofs = 0;
 908:Drivers/lvgl/src/extra/widgets/span/lv_span.c ****             lv_coord_t txts_w = is_first_line ? indent : 0;
 909:Drivers/lvgl/src/extra/widgets/span/lv_span.c ****             for(int i = 0; i < item_cnt; i++) {
 910:Drivers/lvgl/src/extra/widgets/span/lv_span.c ****                 lv_snippet_t * pinfo = lv_get_snippet(i);
 911:Drivers/lvgl/src/extra/widgets/span/lv_span.c ****                 txts_w = txts_w + pinfo->txt_w + pinfo->letter_space;
 912:Drivers/lvgl/src/extra/widgets/span/lv_span.c ****             }
 913:Drivers/lvgl/src/extra/widgets/span/lv_span.c ****             txts_w -= lv_get_snippet(item_cnt - 1)->letter_space;
 914:Drivers/lvgl/src/extra/widgets/span/lv_span.c ****             align_ofs = max_width > txts_w ? max_width - txts_w : 0;
 915:Drivers/lvgl/src/extra/widgets/span/lv_span.c ****             if(align == LV_TEXT_ALIGN_CENTER) {
ARM GAS  /var/folders/lp/x54gwt890xv47sdkqj1k04q40000gn/T//cckjqg7q.s 			page 23


 916:Drivers/lvgl/src/extra/widgets/span/lv_span.c ****                 align_ofs = align_ofs >> 1;
 917:Drivers/lvgl/src/extra/widgets/span/lv_span.c ****             }
 918:Drivers/lvgl/src/extra/widgets/span/lv_span.c ****             txt_pos.x += align_ofs;
 919:Drivers/lvgl/src/extra/widgets/span/lv_span.c ****         }
 920:Drivers/lvgl/src/extra/widgets/span/lv_span.c **** 
 921:Drivers/lvgl/src/extra/widgets/span/lv_span.c ****         /* draw line letters */
 922:Drivers/lvgl/src/extra/widgets/span/lv_span.c ****         int i;
 923:Drivers/lvgl/src/extra/widgets/span/lv_span.c ****         for(i = 0; i < item_cnt; i++) {
 924:Drivers/lvgl/src/extra/widgets/span/lv_span.c ****             lv_snippet_t * pinfo = lv_get_snippet(i);
 925:Drivers/lvgl/src/extra/widgets/span/lv_span.c **** 
 926:Drivers/lvgl/src/extra/widgets/span/lv_span.c ****             /* bidi deal with:todo */
 927:Drivers/lvgl/src/extra/widgets/span/lv_span.c ****             const char * bidi_txt = pinfo->txt;
 928:Drivers/lvgl/src/extra/widgets/span/lv_span.c **** 
 929:Drivers/lvgl/src/extra/widgets/span/lv_span.c ****             lv_point_t pos;
 930:Drivers/lvgl/src/extra/widgets/span/lv_span.c ****             pos.x = txt_pos.x;
 931:Drivers/lvgl/src/extra/widgets/span/lv_span.c ****             pos.y = txt_pos.y + max_line_h - pinfo->line_h - (max_baseline - pinfo->font->base_line
 932:Drivers/lvgl/src/extra/widgets/span/lv_span.c ****             label_draw_dsc.color = lv_span_get_style_text_color(obj, pinfo->span);
 933:Drivers/lvgl/src/extra/widgets/span/lv_span.c ****             label_draw_dsc.opa = lv_span_get_style_text_opa(obj, pinfo->span);
 934:Drivers/lvgl/src/extra/widgets/span/lv_span.c ****             label_draw_dsc.font = lv_span_get_style_text_font(obj, pinfo->span);
 935:Drivers/lvgl/src/extra/widgets/span/lv_span.c ****             label_draw_dsc.blend_mode = lv_span_get_style_text_blend_mode(obj, pinfo->span);
 936:Drivers/lvgl/src/extra/widgets/span/lv_span.c ****             if(obj_opa < LV_OPA_MAX) {
 937:Drivers/lvgl/src/extra/widgets/span/lv_span.c ****                 label_draw_dsc.opa = (uint16_t)((uint16_t)label_draw_dsc.opa * obj_opa) >> 8;
 938:Drivers/lvgl/src/extra/widgets/span/lv_span.c ****             }
 939:Drivers/lvgl/src/extra/widgets/span/lv_span.c ****             uint32_t txt_bytes = pinfo->bytes;
 940:Drivers/lvgl/src/extra/widgets/span/lv_span.c **** 
 941:Drivers/lvgl/src/extra/widgets/span/lv_span.c ****             /* overflow */
 942:Drivers/lvgl/src/extra/widgets/span/lv_span.c ****             uint16_t dot_letter_w = 0;
 943:Drivers/lvgl/src/extra/widgets/span/lv_span.c ****             uint16_t dot_width = 0;
 944:Drivers/lvgl/src/extra/widgets/span/lv_span.c ****             if(ellipsis_valid) {
 945:Drivers/lvgl/src/extra/widgets/span/lv_span.c ****                 dot_letter_w = lv_font_get_glyph_width(pinfo->font, '.', '.');
 946:Drivers/lvgl/src/extra/widgets/span/lv_span.c ****                 dot_width = dot_letter_w * 3;
 947:Drivers/lvgl/src/extra/widgets/span/lv_span.c ****             }
 948:Drivers/lvgl/src/extra/widgets/span/lv_span.c ****             lv_coord_t ellipsis_width = coords.x1 + max_width - dot_width;
 949:Drivers/lvgl/src/extra/widgets/span/lv_span.c **** 
 950:Drivers/lvgl/src/extra/widgets/span/lv_span.c ****             uint32_t j = 0;
 951:Drivers/lvgl/src/extra/widgets/span/lv_span.c ****             while(j < txt_bytes) {
 952:Drivers/lvgl/src/extra/widgets/span/lv_span.c ****                 /* skip invalid fields */
 953:Drivers/lvgl/src/extra/widgets/span/lv_span.c ****                 if(pos.x > clip_area.x2) {
 954:Drivers/lvgl/src/extra/widgets/span/lv_span.c ****                     break;
 955:Drivers/lvgl/src/extra/widgets/span/lv_span.c ****                 }
 956:Drivers/lvgl/src/extra/widgets/span/lv_span.c ****                 uint32_t letter      = _lv_txt_encoded_next(bidi_txt, &j);
 957:Drivers/lvgl/src/extra/widgets/span/lv_span.c ****                 uint32_t letter_next = _lv_txt_encoded_next(&bidi_txt[j], NULL);
 958:Drivers/lvgl/src/extra/widgets/span/lv_span.c ****                 int32_t letter_w = lv_font_get_glyph_width(pinfo->font, letter, letter_next);
 959:Drivers/lvgl/src/extra/widgets/span/lv_span.c **** 
 960:Drivers/lvgl/src/extra/widgets/span/lv_span.c ****                 /* skip invalid fields */
 961:Drivers/lvgl/src/extra/widgets/span/lv_span.c ****                 if(pos.x + letter_w + pinfo->letter_space < clip_area.x1) {
 962:Drivers/lvgl/src/extra/widgets/span/lv_span.c ****                     if(letter_w > 0) {
 963:Drivers/lvgl/src/extra/widgets/span/lv_span.c ****                         pos.x = pos.x + letter_w + pinfo->letter_space;
 964:Drivers/lvgl/src/extra/widgets/span/lv_span.c ****                     }
 965:Drivers/lvgl/src/extra/widgets/span/lv_span.c ****                     continue;
 966:Drivers/lvgl/src/extra/widgets/span/lv_span.c ****                 }
 967:Drivers/lvgl/src/extra/widgets/span/lv_span.c **** 
 968:Drivers/lvgl/src/extra/widgets/span/lv_span.c ****                 if(ellipsis_valid && pos.x + letter_w + pinfo->letter_space > ellipsis_width) {
 969:Drivers/lvgl/src/extra/widgets/span/lv_span.c ****                     for(int ell = 0; ell < 3; ell++) {
 970:Drivers/lvgl/src/extra/widgets/span/lv_span.c ****                         lv_draw_letter(draw_ctx, &label_draw_dsc, &pos, '.');
 971:Drivers/lvgl/src/extra/widgets/span/lv_span.c ****                         pos.x = pos.x + dot_letter_w + pinfo->letter_space;
 972:Drivers/lvgl/src/extra/widgets/span/lv_span.c ****                     }
ARM GAS  /var/folders/lp/x54gwt890xv47sdkqj1k04q40000gn/T//cckjqg7q.s 			page 24


 973:Drivers/lvgl/src/extra/widgets/span/lv_span.c ****                     if(pos.x <= ellipsis_width) {
 974:Drivers/lvgl/src/extra/widgets/span/lv_span.c ****                         pos.x = ellipsis_width + 1;
 975:Drivers/lvgl/src/extra/widgets/span/lv_span.c ****                     }
 976:Drivers/lvgl/src/extra/widgets/span/lv_span.c ****                     break;
 977:Drivers/lvgl/src/extra/widgets/span/lv_span.c ****                 }
 978:Drivers/lvgl/src/extra/widgets/span/lv_span.c ****                 else {
 979:Drivers/lvgl/src/extra/widgets/span/lv_span.c ****                     lv_draw_letter(draw_ctx, &label_draw_dsc, &pos, letter);
 980:Drivers/lvgl/src/extra/widgets/span/lv_span.c ****                     if(letter_w > 0) {
 981:Drivers/lvgl/src/extra/widgets/span/lv_span.c ****                         pos.x = pos.x + letter_w + pinfo->letter_space;
 982:Drivers/lvgl/src/extra/widgets/span/lv_span.c ****                     }
 983:Drivers/lvgl/src/extra/widgets/span/lv_span.c ****                 }
 984:Drivers/lvgl/src/extra/widgets/span/lv_span.c ****             }
 985:Drivers/lvgl/src/extra/widgets/span/lv_span.c **** 
 986:Drivers/lvgl/src/extra/widgets/span/lv_span.c ****             /* draw decor */
 987:Drivers/lvgl/src/extra/widgets/span/lv_span.c ****             lv_text_decor_t decor = lv_span_get_style_text_decor(obj, pinfo->span);
 988:Drivers/lvgl/src/extra/widgets/span/lv_span.c ****             if(decor != LV_TEXT_DECOR_NONE) {
 989:Drivers/lvgl/src/extra/widgets/span/lv_span.c ****                 lv_draw_line_dsc_t line_dsc;
 990:Drivers/lvgl/src/extra/widgets/span/lv_span.c ****                 lv_draw_line_dsc_init(&line_dsc);
 991:Drivers/lvgl/src/extra/widgets/span/lv_span.c ****                 line_dsc.color = label_draw_dsc.color;
 992:Drivers/lvgl/src/extra/widgets/span/lv_span.c ****                 line_dsc.width = label_draw_dsc.font->underline_thickness ? pinfo->font->underline_
 993:Drivers/lvgl/src/extra/widgets/span/lv_span.c ****                 line_dsc.opa = label_draw_dsc.opa;
 994:Drivers/lvgl/src/extra/widgets/span/lv_span.c ****                 line_dsc.blend_mode = label_draw_dsc.blend_mode;
 995:Drivers/lvgl/src/extra/widgets/span/lv_span.c **** 
 996:Drivers/lvgl/src/extra/widgets/span/lv_span.c ****                 if(decor & LV_TEXT_DECOR_STRIKETHROUGH) {
 997:Drivers/lvgl/src/extra/widgets/span/lv_span.c ****                     lv_point_t p1;
 998:Drivers/lvgl/src/extra/widgets/span/lv_span.c ****                     lv_point_t p2;
 999:Drivers/lvgl/src/extra/widgets/span/lv_span.c ****                     p1.x = txt_pos.x;
1000:Drivers/lvgl/src/extra/widgets/span/lv_span.c ****                     p1.y = pos.y + ((pinfo->line_h - line_space) >> 1)  + (line_dsc.width >> 1);
1001:Drivers/lvgl/src/extra/widgets/span/lv_span.c ****                     p2.x = pos.x;
1002:Drivers/lvgl/src/extra/widgets/span/lv_span.c ****                     p2.y = p1.y;
1003:Drivers/lvgl/src/extra/widgets/span/lv_span.c ****                     lv_draw_line(draw_ctx, &line_dsc, &p1, &p2);
1004:Drivers/lvgl/src/extra/widgets/span/lv_span.c ****                 }
1005:Drivers/lvgl/src/extra/widgets/span/lv_span.c **** 
1006:Drivers/lvgl/src/extra/widgets/span/lv_span.c ****                 if(decor & LV_TEXT_DECOR_UNDERLINE) {
1007:Drivers/lvgl/src/extra/widgets/span/lv_span.c ****                     lv_point_t p1;
1008:Drivers/lvgl/src/extra/widgets/span/lv_span.c ****                     lv_point_t p2;
1009:Drivers/lvgl/src/extra/widgets/span/lv_span.c ****                     p1.x = txt_pos.x;
1010:Drivers/lvgl/src/extra/widgets/span/lv_span.c ****                     p1.y = pos.y + pinfo->line_h - line_space - pinfo->font->base_line - pinfo->fon
1011:Drivers/lvgl/src/extra/widgets/span/lv_span.c ****                     p2.x = pos.x;
1012:Drivers/lvgl/src/extra/widgets/span/lv_span.c ****                     p2.y = p1.y;
1013:Drivers/lvgl/src/extra/widgets/span/lv_span.c ****                     lv_draw_line(draw_ctx, &line_dsc, &p1, &p2);
1014:Drivers/lvgl/src/extra/widgets/span/lv_span.c ****                 }
1015:Drivers/lvgl/src/extra/widgets/span/lv_span.c ****             }
1016:Drivers/lvgl/src/extra/widgets/span/lv_span.c ****             txt_pos.x = pos.x;
1017:Drivers/lvgl/src/extra/widgets/span/lv_span.c ****         }
1018:Drivers/lvgl/src/extra/widgets/span/lv_span.c **** 
1019:Drivers/lvgl/src/extra/widgets/span/lv_span.c **** Next_line_init:
1020:Drivers/lvgl/src/extra/widgets/span/lv_span.c ****         /* next line init */
1021:Drivers/lvgl/src/extra/widgets/span/lv_span.c ****         is_first_line = false;
1022:Drivers/lvgl/src/extra/widgets/span/lv_span.c ****         txt_pos.x = coords.x1;
1023:Drivers/lvgl/src/extra/widgets/span/lv_span.c ****         txt_pos.y += max_line_h;
1024:Drivers/lvgl/src/extra/widgets/span/lv_span.c ****         if(is_end_line || txt_pos.y > clip_area.y2 + 1) {
1025:Drivers/lvgl/src/extra/widgets/span/lv_span.c ****             draw_ctx->clip_area = clip_area_ori;
1026:Drivers/lvgl/src/extra/widgets/span/lv_span.c ****             return;
1027:Drivers/lvgl/src/extra/widgets/span/lv_span.c ****         }
1028:Drivers/lvgl/src/extra/widgets/span/lv_span.c ****         max_w = max_width;
1029:Drivers/lvgl/src/extra/widgets/span/lv_span.c ****     }
ARM GAS  /var/folders/lp/x54gwt890xv47sdkqj1k04q40000gn/T//cckjqg7q.s 			page 25


1030:Drivers/lvgl/src/extra/widgets/span/lv_span.c ****     draw_ctx->clip_area = clip_area_ori;
1031:Drivers/lvgl/src/extra/widgets/span/lv_span.c **** }
1032:Drivers/lvgl/src/extra/widgets/span/lv_span.c **** 
1033:Drivers/lvgl/src/extra/widgets/span/lv_span.c **** static void refresh_self_size(lv_obj_t * obj)
1034:Drivers/lvgl/src/extra/widgets/span/lv_span.c **** {
1035:Drivers/lvgl/src/extra/widgets/span/lv_span.c ****     lv_spangroup_t * spans = (lv_spangroup_t *)obj;
1036:Drivers/lvgl/src/extra/widgets/span/lv_span.c ****     spans->refresh = 1;
 280              		.loc 1 1036 20 view .LVU82
 281 001e 94F83C30 		ldrb	r3, [r4, #60]	@ zero_extendqisi2
 282              	.LBE101:
 283              	.LBE100:
 109:Drivers/lvgl/src/extra/widgets/span/lv_span.c ****     span->spangroup = obj;
 284              		.loc 1 109 23 view .LVU83
 285 0022 42F00102 		orr	r2, r2, #1
 286              	.LBB104:
 287              	.LBB102:
 288              		.loc 1 1036 20 view .LVU84
 289 0026 43F00803 		orr	r3, r3, #8
 290              	.LBE102:
 291              	.LBE104:
 109:Drivers/lvgl/src/extra/widgets/span/lv_span.c ****     span->spangroup = obj;
 292              		.loc 1 109 23 view .LVU85
 293 002a 2A74     		strb	r2, [r5, #16]
 110:Drivers/lvgl/src/extra/widgets/span/lv_span.c **** 
 294              		.loc 1 110 5 is_stmt 1 view .LVU86
 112:Drivers/lvgl/src/extra/widgets/span/lv_span.c **** 
 295              		.loc 1 112 5 view .LVU87
 296              	.LVL28:
 297              	.LBB105:
 298              	.LBI100:
1033:Drivers/lvgl/src/extra/widgets/span/lv_span.c **** {
 299              		.loc 1 1033 13 view .LVU88
 300              	.LBB103:
1035:Drivers/lvgl/src/extra/widgets/span/lv_span.c ****     spans->refresh = 1;
 301              		.loc 1 1035 5 view .LVU89
 302              		.loc 1 1036 5 view .LVU90
1037:Drivers/lvgl/src/extra/widgets/span/lv_span.c ****     lv_obj_invalidate(obj);
 303              		.loc 1 1037 5 is_stmt 0 view .LVU91
 304 002c 2046     		mov	r0, r4
1036:Drivers/lvgl/src/extra/widgets/span/lv_span.c ****     lv_obj_invalidate(obj);
 305              		.loc 1 1036 20 view .LVU92
 306 002e 84F83C30 		strb	r3, [r4, #60]
 307              		.loc 1 1037 5 is_stmt 1 view .LVU93
 308 0032 FFF7FEFF 		bl	lv_obj_invalidate
 309              	.LVL29:
1038:Drivers/lvgl/src/extra/widgets/span/lv_span.c ****     lv_obj_refresh_self_size(obj);
 310              		.loc 1 1038 5 view .LVU94
 311 0036 2046     		mov	r0, r4
 312 0038 FFF7FEFF 		bl	lv_obj_refresh_self_size
 313              	.LVL30:
 314              		.loc 1 1038 5 is_stmt 0 view .LVU95
 315              	.LBE103:
 316              	.LBE105:
 114:Drivers/lvgl/src/extra/widgets/span/lv_span.c **** }
 317              		.loc 1 114 5 is_stmt 1 view .LVU96
 115:Drivers/lvgl/src/extra/widgets/span/lv_span.c **** 
 318              		.loc 1 115 1 is_stmt 0 view .LVU97
ARM GAS  /var/folders/lp/x54gwt890xv47sdkqj1k04q40000gn/T//cckjqg7q.s 			page 26


 319 003c 2846     		mov	r0, r5
 320 003e 38BD     		pop	{r3, r4, r5, pc}
 321              	.LVL31:
 322              	.L23:
 105:Drivers/lvgl/src/extra/widgets/span/lv_span.c **** 
 323              		.loc 1 105 5 is_stmt 1 discriminator 1 view .LVU98
 105:Drivers/lvgl/src/extra/widgets/span/lv_span.c **** 
 324              		.loc 1 105 5 discriminator 1 view .LVU99
 105:Drivers/lvgl/src/extra/widgets/span/lv_span.c **** 
 325              		.loc 1 105 5 discriminator 1 view .LVU100
 105:Drivers/lvgl/src/extra/widgets/span/lv_span.c **** 
 326              		.loc 1 105 5 discriminator 1 view .LVU101
 105:Drivers/lvgl/src/extra/widgets/span/lv_span.c **** 
 327              		.loc 1 105 5 discriminator 1 view .LVU102
 105:Drivers/lvgl/src/extra/widgets/span/lv_span.c **** 
 328              		.loc 1 105 5 discriminator 1 view .LVU103
 105:Drivers/lvgl/src/extra/widgets/span/lv_span.c **** 
 329              		.loc 1 105 5 discriminator 1 view .LVU104
 105:Drivers/lvgl/src/extra/widgets/span/lv_span.c **** 
 330              		.loc 1 105 5 discriminator 1 view .LVU105
 105:Drivers/lvgl/src/extra/widgets/span/lv_span.c **** 
 331              		.loc 1 105 5 discriminator 1 view .LVU106
 105:Drivers/lvgl/src/extra/widgets/span/lv_span.c **** 
 332              		.loc 1 105 5 discriminator 1 view .LVU107
 333 0040 FEE7     		b	.L23
 334              	.LVL32:
 335              	.L24:
  99:Drivers/lvgl/src/extra/widgets/span/lv_span.c ****     }
 336              		.loc 1 99 16 is_stmt 0 view .LVU108
 337 0042 0546     		mov	r5, r0
 115:Drivers/lvgl/src/extra/widgets/span/lv_span.c **** 
 338              		.loc 1 115 1 view .LVU109
 339 0044 2846     		mov	r0, r5
 340              	.LVL33:
 115:Drivers/lvgl/src/extra/widgets/span/lv_span.c **** 
 341              		.loc 1 115 1 view .LVU110
 342 0046 38BD     		pop	{r3, r4, r5, pc}
 343              	.LVL34:
 344              	.L27:
 115:Drivers/lvgl/src/extra/widgets/span/lv_span.c **** 
 345              		.loc 1 115 1 view .LVU111
 346              		.align	2
 347              	.L26:
 348 0048 00000000 		.word	.LC0
 349              		.cfi_endproc
 350              	.LFE205:
 352              		.section	.text.lv_spangroup_del_span,"ax",%progbits
 353              		.align	1
 354              		.p2align 2,,3
 355              		.global	lv_spangroup_del_span
 356              		.syntax unified
 357              		.thumb
 358              		.thumb_func
 360              	lv_spangroup_del_span:
 361              	.LVL35:
 362              	.LFB206:
 118:Drivers/lvgl/src/extra/widgets/span/lv_span.c ****     if(obj == NULL || span == NULL) {
ARM GAS  /var/folders/lp/x54gwt890xv47sdkqj1k04q40000gn/T//cckjqg7q.s 			page 27


 363              		.loc 1 118 1 is_stmt 1 view -0
 364              		.cfi_startproc
 365              		@ args = 0, pretend = 0, frame = 8
 366              		@ frame_needed = 0, uses_anonymous_args = 0
 119:Drivers/lvgl/src/extra/widgets/span/lv_span.c ****         return;
 367              		.loc 1 119 5 view .LVU113
 119:Drivers/lvgl/src/extra/widgets/span/lv_span.c ****         return;
 368              		.loc 1 119 7 is_stmt 0 view .LVU114
 369 0000 0028     		cmp	r0, #0
 370 0002 3AD0     		beq	.L48
 118:Drivers/lvgl/src/extra/widgets/span/lv_span.c ****     if(obj == NULL || span == NULL) {
 371              		.loc 1 118 1 view .LVU115
 372 0004 70B5     		push	{r4, r5, r6, lr}
 373              		.cfi_def_cfa_offset 16
 374              		.cfi_offset 4, -16
 375              		.cfi_offset 5, -12
 376              		.cfi_offset 6, -8
 377              		.cfi_offset 14, -4
 378 0006 0C46     		mov	r4, r1
 379 0008 82B0     		sub	sp, sp, #8
 380              		.cfi_def_cfa_offset 24
 119:Drivers/lvgl/src/extra/widgets/span/lv_span.c ****         return;
 381              		.loc 1 119 20 discriminator 1 view .LVU116
 382 000a A1B3     		cbz	r1, .L28
 123:Drivers/lvgl/src/extra/widgets/span/lv_span.c ****     lv_spangroup_t * spans = (lv_spangroup_t *)obj;
 383              		.loc 1 123 5 is_stmt 1 view .LVU117
 123:Drivers/lvgl/src/extra/widgets/span/lv_span.c ****     lv_spangroup_t * spans = (lv_spangroup_t *)obj;
 384              		.loc 1 123 5 view .LVU118
 123:Drivers/lvgl/src/extra/widgets/span/lv_span.c ****     lv_spangroup_t * spans = (lv_spangroup_t *)obj;
 385              		.loc 1 123 5 view .LVU119
 124:Drivers/lvgl/src/extra/widgets/span/lv_span.c ****     lv_span_t * cur_span;
 386              		.loc 1 124 5 view .LVU120
 387              	.LVL36:
 125:Drivers/lvgl/src/extra/widgets/span/lv_span.c ****     _LV_LL_READ(&spans->child_ll, cur_span) {
 388              		.loc 1 125 5 view .LVU121
 126:Drivers/lvgl/src/extra/widgets/span/lv_span.c ****         if(cur_span == span) {
 389              		.loc 1 126 5 view .LVU122
 390 000c 00F13006 		add	r6, r0, #48
 391 0010 0546     		mov	r5, r0
 392 0012 3046     		mov	r0, r6
 393              	.LVL37:
 126:Drivers/lvgl/src/extra/widgets/span/lv_span.c ****         if(cur_span == span) {
 394              		.loc 1 126 5 is_stmt 0 view .LVU123
 395 0014 FFF7FEFF 		bl	_lv_ll_get_head
 396              	.LVL38:
 126:Drivers/lvgl/src/extra/widgets/span/lv_span.c ****         if(cur_span == span) {
 397              		.loc 1 126 5 is_stmt 1 discriminator 1 view .LVU124
 398 0018 0146     		mov	r1, r0
 399 001a 28B9     		cbnz	r0, .L35
 400 001c 1CE0     		b	.L31
 401              	.L33:
 126:Drivers/lvgl/src/extra/widgets/span/lv_span.c ****         if(cur_span == span) {
 402              		.loc 1 126 5 discriminator 2 view .LVU125
 403 001e 3046     		mov	r0, r6
 404              	.LVL39:
 126:Drivers/lvgl/src/extra/widgets/span/lv_span.c ****         if(cur_span == span) {
 405              		.loc 1 126 5 is_stmt 0 discriminator 2 view .LVU126
ARM GAS  /var/folders/lp/x54gwt890xv47sdkqj1k04q40000gn/T//cckjqg7q.s 			page 28


 406 0020 FFF7FEFF 		bl	_lv_ll_get_next
 407              	.LVL40:
 127:Drivers/lvgl/src/extra/widgets/span/lv_span.c ****             _lv_ll_remove(&spans->child_ll, cur_span);
 408              		.loc 1 127 9 is_stmt 1 view .LVU127
 126:Drivers/lvgl/src/extra/widgets/span/lv_span.c ****         if(cur_span == span) {
 409              		.loc 1 126 5 discriminator 1 view .LVU128
 410 0024 0146     		mov	r1, r0
 411 0026 B8B1     		cbz	r0, .L31
 412              	.L35:
 127:Drivers/lvgl/src/extra/widgets/span/lv_span.c ****             _lv_ll_remove(&spans->child_ll, cur_span);
 413              		.loc 1 127 11 is_stmt 0 view .LVU129
 414 0028 8C42     		cmp	r4, r1
 415 002a F8D1     		bne	.L33
 128:Drivers/lvgl/src/extra/widgets/span/lv_span.c ****             if(cur_span->txt && cur_span->static_flag == 0) {
 416              		.loc 1 128 13 is_stmt 1 view .LVU130
 417 002c 3046     		mov	r0, r6
 418              	.LVL41:
 128:Drivers/lvgl/src/extra/widgets/span/lv_span.c ****             if(cur_span->txt && cur_span->static_flag == 0) {
 419              		.loc 1 128 13 is_stmt 0 view .LVU131
 420 002e 0191     		str	r1, [sp, #4]
 421 0030 FFF7FEFF 		bl	_lv_ll_remove
 422              	.LVL42:
 129:Drivers/lvgl/src/extra/widgets/span/lv_span.c ****                 lv_mem_free(cur_span->txt);
 423              		.loc 1 129 13 is_stmt 1 view .LVU132
 129:Drivers/lvgl/src/extra/widgets/span/lv_span.c ****                 lv_mem_free(cur_span->txt);
 424              		.loc 1 129 24 is_stmt 0 view .LVU133
 425 0034 0199     		ldr	r1, [sp, #4]
 426 0036 0868     		ldr	r0, [r1]
 129:Drivers/lvgl/src/extra/widgets/span/lv_span.c ****                 lv_mem_free(cur_span->txt);
 427              		.loc 1 129 15 view .LVU134
 428 0038 28B1     		cbz	r0, .L34
 129:Drivers/lvgl/src/extra/widgets/span/lv_span.c ****                 lv_mem_free(cur_span->txt);
 429              		.loc 1 129 55 discriminator 1 view .LVU135
 430 003a 0B7C     		ldrb	r3, [r1, #16]	@ zero_extendqisi2
 129:Drivers/lvgl/src/extra/widgets/span/lv_span.c ****                 lv_mem_free(cur_span->txt);
 431              		.loc 1 129 30 discriminator 1 view .LVU136
 432 003c DB07     		lsls	r3, r3, #31
 433 003e 02D4     		bmi	.L34
 130:Drivers/lvgl/src/extra/widgets/span/lv_span.c ****             }
 434              		.loc 1 130 17 is_stmt 1 view .LVU137
 435 0040 FFF7FEFF 		bl	lv_mem_free
 436              	.LVL43:
 437 0044 0199     		ldr	r1, [sp, #4]
 438              	.L34:
 132:Drivers/lvgl/src/extra/widgets/span/lv_span.c ****             lv_mem_free(cur_span);
 439              		.loc 1 132 13 view .LVU138
 440 0046 0191     		str	r1, [sp, #4]
 441              	.LVL44:
 132:Drivers/lvgl/src/extra/widgets/span/lv_span.c ****             lv_mem_free(cur_span);
 442              		.loc 1 132 13 is_stmt 0 view .LVU139
 443 0048 01F10800 		add	r0, r1, #8
 444 004c FFF7FEFF 		bl	lv_style_reset
 445              	.LVL45:
 133:Drivers/lvgl/src/extra/widgets/span/lv_span.c ****             break;
 446              		.loc 1 133 13 is_stmt 1 view .LVU140
 447 0050 0199     		ldr	r1, [sp, #4]
 448 0052 0846     		mov	r0, r1
ARM GAS  /var/folders/lp/x54gwt890xv47sdkqj1k04q40000gn/T//cckjqg7q.s 			page 29


 449 0054 FFF7FEFF 		bl	lv_mem_free
 450              	.LVL46:
 134:Drivers/lvgl/src/extra/widgets/span/lv_span.c ****         }
 451              		.loc 1 134 13 view .LVU141
 452              	.L31:
 138:Drivers/lvgl/src/extra/widgets/span/lv_span.c **** }
 453              		.loc 1 138 5 view .LVU142
 454              	.LBB108:
 455              	.LBI108:
1033:Drivers/lvgl/src/extra/widgets/span/lv_span.c **** {
 456              		.loc 1 1033 13 view .LVU143
 457              	.LBB109:
1035:Drivers/lvgl/src/extra/widgets/span/lv_span.c ****     spans->refresh = 1;
 458              		.loc 1 1035 5 view .LVU144
1036:Drivers/lvgl/src/extra/widgets/span/lv_span.c ****     lv_obj_invalidate(obj);
 459              		.loc 1 1036 5 view .LVU145
1036:Drivers/lvgl/src/extra/widgets/span/lv_span.c ****     lv_obj_invalidate(obj);
 460              		.loc 1 1036 20 is_stmt 0 view .LVU146
 461 0058 95F83C30 		ldrb	r3, [r5, #60]	@ zero_extendqisi2
 462 005c 43F00803 		orr	r3, r3, #8
1037:Drivers/lvgl/src/extra/widgets/span/lv_span.c ****     lv_obj_refresh_self_size(obj);
 463              		.loc 1 1037 5 view .LVU147
 464 0060 2846     		mov	r0, r5
1036:Drivers/lvgl/src/extra/widgets/span/lv_span.c ****     lv_obj_invalidate(obj);
 465              		.loc 1 1036 20 view .LVU148
 466 0062 85F83C30 		strb	r3, [r5, #60]
1037:Drivers/lvgl/src/extra/widgets/span/lv_span.c ****     lv_obj_refresh_self_size(obj);
 467              		.loc 1 1037 5 is_stmt 1 view .LVU149
 468 0066 FFF7FEFF 		bl	lv_obj_invalidate
 469              	.LVL47:
 470              		.loc 1 1038 5 view .LVU150
 471 006a 2846     		mov	r0, r5
 472              	.LBE109:
 473              	.LBE108:
 139:Drivers/lvgl/src/extra/widgets/span/lv_span.c **** 
 474              		.loc 1 139 1 is_stmt 0 view .LVU151
 475 006c 02B0     		add	sp, sp, #8
 476              		.cfi_remember_state
 477              		.cfi_def_cfa_offset 16
 478              		@ sp needed
 479 006e BDE87040 		pop	{r4, r5, r6, lr}
 480              		.cfi_restore 14
 481              		.cfi_restore 6
 482              		.cfi_restore 5
 483              		.cfi_restore 4
 484              		.cfi_def_cfa_offset 0
 485              	.LVL48:
 486              	.LBB111:
 487              	.LBB110:
 488              		.loc 1 1038 5 view .LVU152
 489 0072 FFF7FEBF 		b	lv_obj_refresh_self_size
 490              	.LVL49:
 491              	.L28:
 492              		.cfi_restore_state
 493              		.loc 1 1038 5 view .LVU153
 494              	.LBE110:
 495              	.LBE111:
ARM GAS  /var/folders/lp/x54gwt890xv47sdkqj1k04q40000gn/T//cckjqg7q.s 			page 30


 139:Drivers/lvgl/src/extra/widgets/span/lv_span.c **** 
 496              		.loc 1 139 1 view .LVU154
 497 0076 02B0     		add	sp, sp, #8
 498              		.cfi_def_cfa_offset 16
 499              		@ sp needed
 500 0078 70BD     		pop	{r4, r5, r6, pc}
 501              	.L48:
 502              		.cfi_def_cfa_offset 0
 503              		.cfi_restore 4
 504              		.cfi_restore 5
 505              		.cfi_restore 6
 506              		.cfi_restore 14
 507 007a 7047     		bx	lr
 508              		.cfi_endproc
 509              	.LFE206:
 511              		.section	.text.lv_span_set_text,"ax",%progbits
 512              		.align	1
 513              		.p2align 2,,3
 514              		.global	lv_span_set_text
 515              		.syntax unified
 516              		.thumb
 517              		.thumb_func
 519              	lv_span_set_text:
 520              	.LVL50:
 521              	.LFB207:
 146:Drivers/lvgl/src/extra/widgets/span/lv_span.c ****     if(span == NULL || text == NULL) {
 522              		.loc 1 146 1 is_stmt 1 view -0
 523              		.cfi_startproc
 524              		@ args = 0, pretend = 0, frame = 0
 525              		@ frame_needed = 0, uses_anonymous_args = 0
 147:Drivers/lvgl/src/extra/widgets/span/lv_span.c ****         return;
 526              		.loc 1 147 5 view .LVU156
 147:Drivers/lvgl/src/extra/widgets/span/lv_span.c ****         return;
 527              		.loc 1 147 7 is_stmt 0 view .LVU157
 528 0000 58B3     		cbz	r0, .L67
 146:Drivers/lvgl/src/extra/widgets/span/lv_span.c ****     if(span == NULL || text == NULL) {
 529              		.loc 1 146 1 view .LVU158
 530 0002 70B5     		push	{r4, r5, r6, lr}
 531              		.cfi_def_cfa_offset 16
 532              		.cfi_offset 4, -16
 533              		.cfi_offset 5, -12
 534              		.cfi_offset 6, -8
 535              		.cfi_offset 14, -4
 536 0004 0D46     		mov	r5, r1
 147:Drivers/lvgl/src/extra/widgets/span/lv_span.c ****         return;
 537              		.loc 1 147 21 discriminator 1 view .LVU159
 538 0006 11B3     		cbz	r1, .L52
 151:Drivers/lvgl/src/extra/widgets/span/lv_span.c ****         span->txt = lv_mem_alloc(strlen(text) + 1);
 539              		.loc 1 151 5 is_stmt 1 view .LVU160
 540 0008 0446     		mov	r4, r0
 155:Drivers/lvgl/src/extra/widgets/span/lv_span.c ****     }
 541              		.loc 1 155 47 is_stmt 0 view .LVU161
 542 000a 0846     		mov	r0, r1
 543              	.LVL51:
 155:Drivers/lvgl/src/extra/widgets/span/lv_span.c ****     }
 544              		.loc 1 155 47 view .LVU162
 545 000c FFF7FEFF 		bl	strlen
ARM GAS  /var/folders/lp/x54gwt890xv47sdkqj1k04q40000gn/T//cckjqg7q.s 			page 31


 546              	.LVL52:
 151:Drivers/lvgl/src/extra/widgets/span/lv_span.c ****         span->txt = lv_mem_alloc(strlen(text) + 1);
 547              		.loc 1 151 12 view .LVU163
 548 0010 2668     		ldr	r6, [r4]
 155:Drivers/lvgl/src/extra/widgets/span/lv_span.c ****     }
 549              		.loc 1 155 21 discriminator 1 view .LVU164
 550 0012 0130     		adds	r0, r0, #1
 151:Drivers/lvgl/src/extra/widgets/span/lv_span.c ****         span->txt = lv_mem_alloc(strlen(text) + 1);
 551              		.loc 1 151 7 view .LVU165
 552 0014 16B1     		cbz	r6, .L54
 151:Drivers/lvgl/src/extra/widgets/span/lv_span.c ****         span->txt = lv_mem_alloc(strlen(text) + 1);
 553              		.loc 1 151 47 discriminator 1 view .LVU166
 554 0016 237C     		ldrb	r3, [r4, #16]	@ zero_extendqisi2
 151:Drivers/lvgl/src/extra/widgets/span/lv_span.c ****         span->txt = lv_mem_alloc(strlen(text) + 1);
 555              		.loc 1 151 26 discriminator 1 view .LVU167
 556 0018 DB07     		lsls	r3, r3, #31
 557 001a 19D5     		bpl	.L55
 558              	.L54:
 152:Drivers/lvgl/src/extra/widgets/span/lv_span.c ****     }
 559              		.loc 1 152 9 is_stmt 1 view .LVU168
 152:Drivers/lvgl/src/extra/widgets/span/lv_span.c ****     }
 560              		.loc 1 152 21 is_stmt 0 discriminator 1 view .LVU169
 561 001c FFF7FEFF 		bl	lv_mem_alloc
 562              	.LVL53:
 563              	.L56:
 157:Drivers/lvgl/src/extra/widgets/span/lv_span.c ****     strcpy(span->txt, text);
 564              		.loc 1 157 23 view .LVU170
 565 0020 237C     		ldrb	r3, [r4, #16]	@ zero_extendqisi2
 152:Drivers/lvgl/src/extra/widgets/span/lv_span.c ****     }
 566              		.loc 1 152 19 discriminator 2 view .LVU171
 567 0022 2060     		str	r0, [r4]
 157:Drivers/lvgl/src/extra/widgets/span/lv_span.c ****     strcpy(span->txt, text);
 568              		.loc 1 157 5 is_stmt 1 view .LVU172
 157:Drivers/lvgl/src/extra/widgets/span/lv_span.c ****     strcpy(span->txt, text);
 569              		.loc 1 157 23 is_stmt 0 view .LVU173
 570 0024 23F00103 		bic	r3, r3, #1
 571 0028 2374     		strb	r3, [r4, #16]
 158:Drivers/lvgl/src/extra/widgets/span/lv_span.c **** 
 572              		.loc 1 158 5 is_stmt 1 view .LVU174
 573 002a 2946     		mov	r1, r5
 574 002c FFF7FEFF 		bl	strcpy
 575              	.LVL54:
 160:Drivers/lvgl/src/extra/widgets/span/lv_span.c **** }
 576              		.loc 1 160 5 view .LVU175
 577 0030 6468     		ldr	r4, [r4, #4]
 578              	.LVL55:
 579              	.LBB114:
 580              	.LBI114:
1033:Drivers/lvgl/src/extra/widgets/span/lv_span.c **** {
 581              		.loc 1 1033 13 view .LVU176
 582              	.LBB115:
1035:Drivers/lvgl/src/extra/widgets/span/lv_span.c ****     spans->refresh = 1;
 583              		.loc 1 1035 5 view .LVU177
1036:Drivers/lvgl/src/extra/widgets/span/lv_span.c ****     lv_obj_invalidate(obj);
 584              		.loc 1 1036 5 view .LVU178
1036:Drivers/lvgl/src/extra/widgets/span/lv_span.c ****     lv_obj_invalidate(obj);
 585              		.loc 1 1036 20 is_stmt 0 view .LVU179
ARM GAS  /var/folders/lp/x54gwt890xv47sdkqj1k04q40000gn/T//cckjqg7q.s 			page 32


 586 0032 94F83C30 		ldrb	r3, [r4, #60]	@ zero_extendqisi2
 587 0036 43F00803 		orr	r3, r3, #8
1037:Drivers/lvgl/src/extra/widgets/span/lv_span.c ****     lv_obj_refresh_self_size(obj);
 588              		.loc 1 1037 5 view .LVU180
 589 003a 2046     		mov	r0, r4
1036:Drivers/lvgl/src/extra/widgets/span/lv_span.c ****     lv_obj_invalidate(obj);
 590              		.loc 1 1036 20 view .LVU181
 591 003c 84F83C30 		strb	r3, [r4, #60]
1037:Drivers/lvgl/src/extra/widgets/span/lv_span.c ****     lv_obj_refresh_self_size(obj);
 592              		.loc 1 1037 5 is_stmt 1 view .LVU182
 593 0040 FFF7FEFF 		bl	lv_obj_invalidate
 594              	.LVL56:
 595              		.loc 1 1038 5 view .LVU183
 596 0044 2046     		mov	r0, r4
 597              	.LBE115:
 598              	.LBE114:
 161:Drivers/lvgl/src/extra/widgets/span/lv_span.c **** 
 599              		.loc 1 161 1 is_stmt 0 view .LVU184
 600 0046 BDE87040 		pop	{r4, r5, r6, lr}
 601              		.cfi_remember_state
 602              		.cfi_restore 14
 603              		.cfi_restore 6
 604              		.cfi_restore 5
 605              		.cfi_restore 4
 606              		.cfi_def_cfa_offset 0
 607              	.LVL57:
 608              	.LBB117:
 609              	.LBB116:
 610              		.loc 1 1038 5 view .LVU185
 611 004a FFF7FEBF 		b	lv_obj_refresh_self_size
 612              	.LVL58:
 613              	.L52:
 614              		.cfi_restore_state
 615              		.loc 1 1038 5 view .LVU186
 616              	.LBE116:
 617              	.LBE117:
 161:Drivers/lvgl/src/extra/widgets/span/lv_span.c **** 
 618              		.loc 1 161 1 view .LVU187
 619 004e 70BD     		pop	{r4, r5, r6, pc}
 620              	.LVL59:
 621              	.L55:
 155:Drivers/lvgl/src/extra/widgets/span/lv_span.c ****     }
 622              		.loc 1 155 9 is_stmt 1 view .LVU188
 155:Drivers/lvgl/src/extra/widgets/span/lv_span.c ****     }
 623              		.loc 1 155 21 is_stmt 0 discriminator 1 view .LVU189
 624 0050 0146     		mov	r1, r0
 625 0052 3046     		mov	r0, r6
 626 0054 FFF7FEFF 		bl	lv_mem_realloc
 627              	.LVL60:
 628 0058 E2E7     		b	.L56
 629              	.LVL61:
 630              	.L67:
 631              		.cfi_def_cfa_offset 0
 632              		.cfi_restore 4
 633              		.cfi_restore 5
 634              		.cfi_restore 6
 635              		.cfi_restore 14
ARM GAS  /var/folders/lp/x54gwt890xv47sdkqj1k04q40000gn/T//cckjqg7q.s 			page 33


 155:Drivers/lvgl/src/extra/widgets/span/lv_span.c ****     }
 636              		.loc 1 155 21 discriminator 1 view .LVU190
 637 005a 7047     		bx	lr
 638              		.cfi_endproc
 639              	.LFE207:
 641              		.section	.text.lv_span_set_text_static,"ax",%progbits
 642              		.align	1
 643              		.p2align 2,,3
 644              		.global	lv_span_set_text_static
 645              		.syntax unified
 646              		.thumb
 647              		.thumb_func
 649              	lv_span_set_text_static:
 650              	.LVL62:
 651              	.LFB208:
 164:Drivers/lvgl/src/extra/widgets/span/lv_span.c ****     if(span == NULL || text == NULL) {
 652              		.loc 1 164 1 is_stmt 1 view -0
 653              		.cfi_startproc
 654              		@ args = 0, pretend = 0, frame = 0
 655              		@ frame_needed = 0, uses_anonymous_args = 0
 165:Drivers/lvgl/src/extra/widgets/span/lv_span.c ****         return;
 656              		.loc 1 165 5 view .LVU192
 165:Drivers/lvgl/src/extra/widgets/span/lv_span.c ****         return;
 657              		.loc 1 165 7 is_stmt 0 view .LVU193
 658 0000 00B3     		cbz	r0, .L83
 164:Drivers/lvgl/src/extra/widgets/span/lv_span.c ****     if(span == NULL || text == NULL) {
 659              		.loc 1 164 1 view .LVU194
 660 0002 70B5     		push	{r4, r5, r6, lr}
 661              		.cfi_def_cfa_offset 16
 662              		.cfi_offset 4, -16
 663              		.cfi_offset 5, -12
 664              		.cfi_offset 6, -8
 665              		.cfi_offset 14, -4
 666 0004 0D46     		mov	r5, r1
 165:Drivers/lvgl/src/extra/widgets/span/lv_span.c ****         return;
 667              		.loc 1 165 21 discriminator 1 view .LVU195
 668 0006 C9B1     		cbz	r1, .L70
 169:Drivers/lvgl/src/extra/widgets/span/lv_span.c ****         lv_mem_free(span->txt);
 669              		.loc 1 169 5 is_stmt 1 view .LVU196
 670 0008 0446     		mov	r4, r0
 169:Drivers/lvgl/src/extra/widgets/span/lv_span.c ****         lv_mem_free(span->txt);
 671              		.loc 1 169 12 is_stmt 0 view .LVU197
 672 000a 0068     		ldr	r0, [r0]
 673              	.LVL63:
 169:Drivers/lvgl/src/extra/widgets/span/lv_span.c ****         lv_mem_free(span->txt);
 674              		.loc 1 169 7 view .LVU198
 675 000c 10B1     		cbz	r0, .L72
 169:Drivers/lvgl/src/extra/widgets/span/lv_span.c ****         lv_mem_free(span->txt);
 676              		.loc 1 169 39 discriminator 1 view .LVU199
 677 000e 237C     		ldrb	r3, [r4, #16]	@ zero_extendqisi2
 169:Drivers/lvgl/src/extra/widgets/span/lv_span.c ****         lv_mem_free(span->txt);
 678              		.loc 1 169 18 discriminator 1 view .LVU200
 679 0010 DB07     		lsls	r3, r3, #31
 680 0012 14D5     		bpl	.L86
 681              	.LVL64:
 682              	.L72:
 172:Drivers/lvgl/src/extra/widgets/span/lv_span.c ****     span->txt = (char *)text;
ARM GAS  /var/folders/lp/x54gwt890xv47sdkqj1k04q40000gn/T//cckjqg7q.s 			page 34


 683              		.loc 1 172 5 is_stmt 1 view .LVU201
 175:Drivers/lvgl/src/extra/widgets/span/lv_span.c **** }
 684              		.loc 1 175 5 is_stmt 0 view .LVU202
 685 0014 6668     		ldr	r6, [r4, #4]
 173:Drivers/lvgl/src/extra/widgets/span/lv_span.c **** 
 686              		.loc 1 173 15 view .LVU203
 687 0016 2560     		str	r5, [r4]
 172:Drivers/lvgl/src/extra/widgets/span/lv_span.c ****     span->txt = (char *)text;
 688              		.loc 1 172 23 view .LVU204
 689 0018 227C     		ldrb	r2, [r4, #16]	@ zero_extendqisi2
 690              	.LBB120:
 691              	.LBB121:
1036:Drivers/lvgl/src/extra/widgets/span/lv_span.c ****     lv_obj_invalidate(obj);
 692              		.loc 1 1036 20 view .LVU205
 693 001a 96F83C30 		ldrb	r3, [r6, #60]	@ zero_extendqisi2
 694              	.LBE121:
 695              	.LBE120:
 172:Drivers/lvgl/src/extra/widgets/span/lv_span.c ****     span->txt = (char *)text;
 696              		.loc 1 172 23 view .LVU206
 697 001e 42F00102 		orr	r2, r2, #1
 698              	.LBB125:
 699              	.LBB122:
1036:Drivers/lvgl/src/extra/widgets/span/lv_span.c ****     lv_obj_invalidate(obj);
 700              		.loc 1 1036 20 view .LVU207
 701 0022 43F00803 		orr	r3, r3, #8
 702              	.LBE122:
 703              	.LBE125:
 172:Drivers/lvgl/src/extra/widgets/span/lv_span.c ****     span->txt = (char *)text;
 704              		.loc 1 172 23 view .LVU208
 705 0026 2274     		strb	r2, [r4, #16]
 173:Drivers/lvgl/src/extra/widgets/span/lv_span.c **** 
 706              		.loc 1 173 5 is_stmt 1 view .LVU209
 175:Drivers/lvgl/src/extra/widgets/span/lv_span.c **** }
 707              		.loc 1 175 5 view .LVU210
 708              	.LVL65:
 709              	.LBB126:
 710              	.LBI120:
1033:Drivers/lvgl/src/extra/widgets/span/lv_span.c **** {
 711              		.loc 1 1033 13 view .LVU211
 712              	.LBB123:
1035:Drivers/lvgl/src/extra/widgets/span/lv_span.c ****     spans->refresh = 1;
 713              		.loc 1 1035 5 view .LVU212
1036:Drivers/lvgl/src/extra/widgets/span/lv_span.c ****     lv_obj_invalidate(obj);
 714              		.loc 1 1036 5 view .LVU213
1037:Drivers/lvgl/src/extra/widgets/span/lv_span.c ****     lv_obj_refresh_self_size(obj);
 715              		.loc 1 1037 5 is_stmt 0 view .LVU214
 716 0028 3046     		mov	r0, r6
1036:Drivers/lvgl/src/extra/widgets/span/lv_span.c ****     lv_obj_invalidate(obj);
 717              		.loc 1 1036 20 view .LVU215
 718 002a 86F83C30 		strb	r3, [r6, #60]
1037:Drivers/lvgl/src/extra/widgets/span/lv_span.c ****     lv_obj_refresh_self_size(obj);
 719              		.loc 1 1037 5 is_stmt 1 view .LVU216
 720 002e FFF7FEFF 		bl	lv_obj_invalidate
 721              	.LVL66:
 722              		.loc 1 1038 5 view .LVU217
 723 0032 3046     		mov	r0, r6
 724              	.LBE123:
ARM GAS  /var/folders/lp/x54gwt890xv47sdkqj1k04q40000gn/T//cckjqg7q.s 			page 35


 725              	.LBE126:
 176:Drivers/lvgl/src/extra/widgets/span/lv_span.c **** 
 726              		.loc 1 176 1 is_stmt 0 view .LVU218
 727 0034 BDE87040 		pop	{r4, r5, r6, lr}
 728              		.cfi_remember_state
 729              		.cfi_restore 14
 730              		.cfi_restore 6
 731              		.cfi_restore 5
 732              		.cfi_restore 4
 733              		.cfi_def_cfa_offset 0
 734              	.LVL67:
 735              	.LBB127:
 736              	.LBB124:
 737              		.loc 1 1038 5 view .LVU219
 738 0038 FFF7FEBF 		b	lv_obj_refresh_self_size
 739              	.LVL68:
 740              	.L70:
 741              		.cfi_restore_state
 742              		.loc 1 1038 5 view .LVU220
 743              	.LBE124:
 744              	.LBE127:
 176:Drivers/lvgl/src/extra/widgets/span/lv_span.c **** 
 745              		.loc 1 176 1 view .LVU221
 746 003c 70BD     		pop	{r4, r5, r6, pc}
 747              	.LVL69:
 748              	.L86:
 170:Drivers/lvgl/src/extra/widgets/span/lv_span.c ****     }
 749              		.loc 1 170 9 is_stmt 1 view .LVU222
 750 003e FFF7FEFF 		bl	lv_mem_free
 751              	.LVL70:
 170:Drivers/lvgl/src/extra/widgets/span/lv_span.c ****     }
 752              		.loc 1 170 9 is_stmt 0 view .LVU223
 753 0042 E7E7     		b	.L72
 754              	.LVL71:
 755              	.L83:
 756              		.cfi_def_cfa_offset 0
 757              		.cfi_restore 4
 758              		.cfi_restore 5
 759              		.cfi_restore 6
 760              		.cfi_restore 14
 170:Drivers/lvgl/src/extra/widgets/span/lv_span.c ****     }
 761              		.loc 1 170 9 view .LVU224
 762 0044 7047     		bx	lr
 763              		.cfi_endproc
 764              	.LFE208:
 766 0046 00BF     		.section	.text.lv_spangroup_set_align,"ax",%progbits
 767              		.align	1
 768              		.p2align 2,,3
 769              		.global	lv_spangroup_set_align
 770              		.syntax unified
 771              		.thumb
 772              		.thumb_func
 774              	lv_spangroup_set_align:
 775              	.LVL72:
 776              	.LFB209:
 179:Drivers/lvgl/src/extra/widgets/span/lv_span.c ****     lv_obj_set_style_text_align(obj, align, LV_PART_MAIN);
 777              		.loc 1 179 1 is_stmt 1 view -0
ARM GAS  /var/folders/lp/x54gwt890xv47sdkqj1k04q40000gn/T//cckjqg7q.s 			page 36


 778              		.cfi_startproc
 779              		@ args = 0, pretend = 0, frame = 0
 780              		@ frame_needed = 0, uses_anonymous_args = 0
 781              		@ link register save eliminated.
 180:Drivers/lvgl/src/extra/widgets/span/lv_span.c **** }
 782              		.loc 1 180 5 view .LVU226
 783 0000 0022     		movs	r2, #0
 784 0002 FFF7FEBF 		b	lv_obj_set_style_text_align
 785              	.LVL73:
 180:Drivers/lvgl/src/extra/widgets/span/lv_span.c **** }
 786              		.loc 1 180 5 is_stmt 0 view .LVU227
 787              		.cfi_endproc
 788              	.LFE209:
 790 0006 00BF     		.section	.text.lv_spangroup_set_overflow,"ax",%progbits
 791              		.align	1
 792              		.p2align 2,,3
 793              		.global	lv_spangroup_set_overflow
 794              		.syntax unified
 795              		.thumb
 796              		.thumb_func
 798              	lv_spangroup_set_overflow:
 799              	.LVL74:
 800              	.LFB210:
 184:Drivers/lvgl/src/extra/widgets/span/lv_span.c ****     LV_ASSERT_OBJ(obj, MY_CLASS);
 801              		.loc 1 184 1 is_stmt 1 view -0
 802              		.cfi_startproc
 803              		@ args = 0, pretend = 0, frame = 0
 804              		@ frame_needed = 0, uses_anonymous_args = 0
 805              		@ link register save eliminated.
 185:Drivers/lvgl/src/extra/widgets/span/lv_span.c ****     lv_spangroup_t * spans = (lv_spangroup_t *)obj;
 806              		.loc 1 185 5 view .LVU229
 185:Drivers/lvgl/src/extra/widgets/span/lv_span.c ****     lv_spangroup_t * spans = (lv_spangroup_t *)obj;
 807              		.loc 1 185 5 view .LVU230
 185:Drivers/lvgl/src/extra/widgets/span/lv_span.c ****     lv_spangroup_t * spans = (lv_spangroup_t *)obj;
 808              		.loc 1 185 5 view .LVU231
 186:Drivers/lvgl/src/extra/widgets/span/lv_span.c ****     if(spans->overflow == overflow) return;
 809              		.loc 1 186 5 view .LVU232
 187:Drivers/lvgl/src/extra/widgets/span/lv_span.c **** 
 810              		.loc 1 187 5 view .LVU233
 187:Drivers/lvgl/src/extra/widgets/span/lv_span.c **** 
 811              		.loc 1 187 13 is_stmt 0 view .LVU234
 812 0000 90F83C20 		ldrb	r2, [r0, #60]	@ zero_extendqisi2
 813 0004 C2F3800C 		ubfx	ip, r2, #2, #1
 187:Drivers/lvgl/src/extra/widgets/span/lv_span.c **** 
 814              		.loc 1 187 7 view .LVU235
 815 0008 8C45     		cmp	ip, r1
 816 000a 05D0     		beq	.L88
 189:Drivers/lvgl/src/extra/widgets/span/lv_span.c ****     lv_obj_invalidate(obj);
 817              		.loc 1 189 5 is_stmt 1 view .LVU236
 189:Drivers/lvgl/src/extra/widgets/span/lv_span.c ****     lv_obj_invalidate(obj);
 818              		.loc 1 189 21 is_stmt 0 view .LVU237
 819 000c 61F38202 		bfi	r2, r1, #2, #1
 820 0010 80F83C20 		strb	r2, [r0, #60]
 190:Drivers/lvgl/src/extra/widgets/span/lv_span.c **** }
 821              		.loc 1 190 5 is_stmt 1 view .LVU238
 822 0014 FFF7FEBF 		b	lv_obj_invalidate
 823              	.LVL75:
ARM GAS  /var/folders/lp/x54gwt890xv47sdkqj1k04q40000gn/T//cckjqg7q.s 			page 37


 824              	.L88:
 191:Drivers/lvgl/src/extra/widgets/span/lv_span.c **** 
 825              		.loc 1 191 1 is_stmt 0 view .LVU239
 826 0018 7047     		bx	lr
 827              		.cfi_endproc
 828              	.LFE210:
 830 001a 00BF     		.section	.text.lv_spangroup_set_indent,"ax",%progbits
 831              		.align	1
 832              		.p2align 2,,3
 833              		.global	lv_spangroup_set_indent
 834              		.syntax unified
 835              		.thumb
 836              		.thumb_func
 838              	lv_spangroup_set_indent:
 839              	.LVL76:
 840              	.LFB211:
 194:Drivers/lvgl/src/extra/widgets/span/lv_span.c ****     LV_ASSERT_OBJ(obj, MY_CLASS);
 841              		.loc 1 194 1 is_stmt 1 view -0
 842              		.cfi_startproc
 843              		@ args = 0, pretend = 0, frame = 0
 844              		@ frame_needed = 0, uses_anonymous_args = 0
 195:Drivers/lvgl/src/extra/widgets/span/lv_span.c ****     lv_spangroup_t * spans = (lv_spangroup_t *)obj;
 845              		.loc 1 195 5 view .LVU241
 195:Drivers/lvgl/src/extra/widgets/span/lv_span.c ****     lv_spangroup_t * spans = (lv_spangroup_t *)obj;
 846              		.loc 1 195 5 view .LVU242
 195:Drivers/lvgl/src/extra/widgets/span/lv_span.c ****     lv_spangroup_t * spans = (lv_spangroup_t *)obj;
 847              		.loc 1 195 5 view .LVU243
 196:Drivers/lvgl/src/extra/widgets/span/lv_span.c ****     if(spans->indent == indent) return;
 848              		.loc 1 196 5 view .LVU244
 197:Drivers/lvgl/src/extra/widgets/span/lv_span.c **** 
 849              		.loc 1 197 5 view .LVU245
 197:Drivers/lvgl/src/extra/widgets/span/lv_span.c **** 
 850              		.loc 1 197 7 is_stmt 0 view .LVU246
 851 0000 B0F92830 		ldrsh	r3, [r0, #40]
 852 0004 8B42     		cmp	r3, r1
 853 0006 0FD0     		beq	.L90
 194:Drivers/lvgl/src/extra/widgets/span/lv_span.c ****     LV_ASSERT_OBJ(obj, MY_CLASS);
 854              		.loc 1 194 1 view .LVU247
 855 0008 10B5     		push	{r4, lr}
 856              		.cfi_def_cfa_offset 8
 857              		.cfi_offset 4, -8
 858              		.cfi_offset 14, -4
 859              	.LBB130:
 860              	.LBB131:
1036:Drivers/lvgl/src/extra/widgets/span/lv_span.c ****     lv_obj_invalidate(obj);
 861              		.loc 1 1036 20 view .LVU248
 862 000a 90F83C30 		ldrb	r3, [r0, #60]	@ zero_extendqisi2
 863              	.LBE131:
 864              	.LBE130:
 199:Drivers/lvgl/src/extra/widgets/span/lv_span.c **** 
 865              		.loc 1 199 19 view .LVU249
 866 000e 0185     		strh	r1, [r0, #40]	@ movhi
 867              	.LBB135:
 868              	.LBB132:
1036:Drivers/lvgl/src/extra/widgets/span/lv_span.c ****     lv_obj_invalidate(obj);
 869              		.loc 1 1036 20 view .LVU250
 870 0010 43F00803 		orr	r3, r3, #8
ARM GAS  /var/folders/lp/x54gwt890xv47sdkqj1k04q40000gn/T//cckjqg7q.s 			page 38


 871 0014 0446     		mov	r4, r0
 872              	.LBE132:
 873              	.LBE135:
 199:Drivers/lvgl/src/extra/widgets/span/lv_span.c **** 
 874              		.loc 1 199 5 is_stmt 1 view .LVU251
 201:Drivers/lvgl/src/extra/widgets/span/lv_span.c **** }
 875              		.loc 1 201 5 view .LVU252
 876              	.LVL77:
 877              	.LBB136:
 878              	.LBI130:
1033:Drivers/lvgl/src/extra/widgets/span/lv_span.c **** {
 879              		.loc 1 1033 13 view .LVU253
 880              	.LBB133:
1035:Drivers/lvgl/src/extra/widgets/span/lv_span.c ****     spans->refresh = 1;
 881              		.loc 1 1035 5 view .LVU254
1036:Drivers/lvgl/src/extra/widgets/span/lv_span.c ****     lv_obj_invalidate(obj);
 882              		.loc 1 1036 5 view .LVU255
1036:Drivers/lvgl/src/extra/widgets/span/lv_span.c ****     lv_obj_invalidate(obj);
 883              		.loc 1 1036 20 is_stmt 0 view .LVU256
 884 0016 80F83C30 		strb	r3, [r0, #60]
1037:Drivers/lvgl/src/extra/widgets/span/lv_span.c ****     lv_obj_refresh_self_size(obj);
 885              		.loc 1 1037 5 is_stmt 1 view .LVU257
 886 001a FFF7FEFF 		bl	lv_obj_invalidate
 887              	.LVL78:
 888              		.loc 1 1038 5 view .LVU258
 889 001e 2046     		mov	r0, r4
 890              	.LBE133:
 891              	.LBE136:
 202:Drivers/lvgl/src/extra/widgets/span/lv_span.c **** 
 892              		.loc 1 202 1 is_stmt 0 view .LVU259
 893 0020 BDE81040 		pop	{r4, lr}
 894              		.cfi_restore 14
 895              		.cfi_restore 4
 896              		.cfi_def_cfa_offset 0
 897              	.LVL79:
 898              	.LBB137:
 899              	.LBB134:
 900              		.loc 1 1038 5 view .LVU260
 901 0024 FFF7FEBF 		b	lv_obj_refresh_self_size
 902              	.LVL80:
 903              	.L90:
 904              		.loc 1 1038 5 view .LVU261
 905 0028 7047     		bx	lr
 906              	.LBE134:
 907              	.LBE137:
 908              		.cfi_endproc
 909              	.LFE211:
 911 002a 00BF     		.section	.text.lv_spangroup_get_child,"ax",%progbits
 912              		.align	1
 913              		.p2align 2,,3
 914              		.global	lv_spangroup_get_child
 915              		.syntax unified
 916              		.thumb
 917              		.thumb_func
 919              	lv_spangroup_get_child:
 920              	.LVL81:
 921              	.LFB214:
ARM GAS  /var/folders/lp/x54gwt890xv47sdkqj1k04q40000gn/T//cckjqg7q.s 			page 39


 225:Drivers/lvgl/src/extra/widgets/span/lv_span.c ****     if(obj == NULL) {
 922              		.loc 1 225 1 is_stmt 1 view -0
 923              		.cfi_startproc
 924              		@ args = 0, pretend = 0, frame = 0
 925              		@ frame_needed = 0, uses_anonymous_args = 0
 226:Drivers/lvgl/src/extra/widgets/span/lv_span.c ****         return NULL;
 926              		.loc 1 226 5 view .LVU263
 226:Drivers/lvgl/src/extra/widgets/span/lv_span.c ****         return NULL;
 927              		.loc 1 226 7 is_stmt 0 view .LVU264
 928 0000 18B3     		cbz	r0, .L111
 225:Drivers/lvgl/src/extra/widgets/span/lv_span.c ****     if(obj == NULL) {
 929              		.loc 1 225 1 view .LVU265
 930 0002 70B5     		push	{r4, r5, r6, lr}
 931              		.cfi_def_cfa_offset 16
 932              		.cfi_offset 4, -16
 933              		.cfi_offset 5, -12
 934              		.cfi_offset 6, -8
 935              		.cfi_offset 14, -4
 936 0004 0D46     		mov	r5, r1
 230:Drivers/lvgl/src/extra/widgets/span/lv_span.c ****     lv_spangroup_t * spans = (lv_spangroup_t *)obj;
 937              		.loc 1 230 5 is_stmt 1 view .LVU266
 230:Drivers/lvgl/src/extra/widgets/span/lv_span.c ****     lv_spangroup_t * spans = (lv_spangroup_t *)obj;
 938              		.loc 1 230 5 view .LVU267
 230:Drivers/lvgl/src/extra/widgets/span/lv_span.c ****     lv_spangroup_t * spans = (lv_spangroup_t *)obj;
 939              		.loc 1 230 5 view .LVU268
 231:Drivers/lvgl/src/extra/widgets/span/lv_span.c ****     lv_ll_t * linked_list = &spans->child_ll;
 940              		.loc 1 231 5 view .LVU269
 941              	.LVL82:
 232:Drivers/lvgl/src/extra/widgets/span/lv_span.c **** 
 942              		.loc 1 232 5 view .LVU270
 239:Drivers/lvgl/src/extra/widgets/span/lv_span.c ****         cur_idx = -1;
 943              		.loc 1 239 7 is_stmt 0 view .LVU271
 944 0006 002D     		cmp	r5, #0
 236:Drivers/lvgl/src/extra/widgets/span/lv_span.c **** 
 945              		.loc 1 236 20 view .LVU272
 946 0008 416B     		ldr	r1, [r0, #52]
 947              	.LVL83:
 241:Drivers/lvgl/src/extra/widgets/span/lv_span.c ****     }
 948              		.loc 1 241 18 view .LVU273
 949 000a B8BF     		it	lt
 950 000c 816B     		ldrlt	r1, [r0, #56]
 232:Drivers/lvgl/src/extra/widgets/span/lv_span.c **** 
 951              		.loc 1 232 15 view .LVU274
 952 000e 00F13006 		add	r6, r0, #48
 953              	.LVL84:
 234:Drivers/lvgl/src/extra/widgets/span/lv_span.c ****     int32_t cur_idx = 0;
 954              		.loc 1 234 5 is_stmt 1 view .LVU275
 235:Drivers/lvgl/src/extra/widgets/span/lv_span.c ****     lv_ll_node_t * cur_node = linked_list->head;
 955              		.loc 1 235 5 view .LVU276
 236:Drivers/lvgl/src/extra/widgets/span/lv_span.c **** 
 956              		.loc 1 236 5 view .LVU277
 239:Drivers/lvgl/src/extra/widgets/span/lv_span.c ****         cur_idx = -1;
 957              		.loc 1 239 5 view .LVU278
 240:Drivers/lvgl/src/extra/widgets/span/lv_span.c ****         cur_node = linked_list->tail;
 958              		.loc 1 240 9 view .LVU279
 241:Drivers/lvgl/src/extra/widgets/span/lv_span.c ****     }
 959              		.loc 1 241 9 view .LVU280
ARM GAS  /var/folders/lp/x54gwt890xv47sdkqj1k04q40000gn/T//cckjqg7q.s 			page 40


 240:Drivers/lvgl/src/extra/widgets/span/lv_span.c ****         cur_node = linked_list->tail;
 960              		.loc 1 240 17 is_stmt 0 view .LVU281
 961 0012 B4BF     		ite	lt
 962 0014 4FF0FF34 		movlt	r4, #-1
 235:Drivers/lvgl/src/extra/widgets/span/lv_span.c ****     lv_ll_node_t * cur_node = linked_list->head;
 963              		.loc 1 235 13 view .LVU282
 964 0018 0024     		movge	r4, #0
 965              	.LVL85:
 244:Drivers/lvgl/src/extra/widgets/span/lv_span.c ****         if(cur_idx == id) {
 966              		.loc 1 244 20 is_stmt 1 view .LVU283
 967 001a 99B1     		cbz	r1, .L99
 245:Drivers/lvgl/src/extra/widgets/span/lv_span.c ****             return (lv_span_t *) cur_node;
 968              		.loc 1 245 9 view .LVU284
 245:Drivers/lvgl/src/extra/widgets/span/lv_span.c ****             return (lv_span_t *) cur_node;
 969              		.loc 1 245 11 is_stmt 0 view .LVU285
 970 001c A542     		cmp	r5, r4
 971 001e 09D0     		beq	.L95
 972              	.LVL86:
 973              	.L100:
 248:Drivers/lvgl/src/extra/widgets/span/lv_span.c ****             cur_node = (lv_ll_node_t *) _lv_ll_get_next(linked_list, cur_node);
 974              		.loc 1 248 9 is_stmt 1 view .LVU286
 249:Drivers/lvgl/src/extra/widgets/span/lv_span.c ****             cur_idx++;
 975              		.loc 1 249 13 view .LVU287
 253:Drivers/lvgl/src/extra/widgets/span/lv_span.c ****             cur_idx--;
 976              		.loc 1 253 13 view .LVU288
 248:Drivers/lvgl/src/extra/widgets/span/lv_span.c ****             cur_node = (lv_ll_node_t *) _lv_ll_get_next(linked_list, cur_node);
 977              		.loc 1 248 11 is_stmt 0 view .LVU289
 978 0020 002D     		cmp	r5, #0
 249:Drivers/lvgl/src/extra/widgets/span/lv_span.c ****             cur_idx++;
 979              		.loc 1 249 41 view .LVU290
 980 0022 3046     		mov	r0, r6
 248:Drivers/lvgl/src/extra/widgets/span/lv_span.c ****             cur_node = (lv_ll_node_t *) _lv_ll_get_next(linked_list, cur_node);
 981              		.loc 1 248 11 view .LVU291
 982 0024 08DB     		blt	.L101
 983              	.LVL87:
 249:Drivers/lvgl/src/extra/widgets/span/lv_span.c ****             cur_idx++;
 984              		.loc 1 249 41 view .LVU292
 985 0026 FFF7FEFF 		bl	_lv_ll_get_next
 986              	.LVL88:
 249:Drivers/lvgl/src/extra/widgets/span/lv_span.c ****             cur_idx++;
 987              		.loc 1 249 41 view .LVU293
 988 002a 0146     		mov	r1, r0
 989              	.LVL89:
 250:Drivers/lvgl/src/extra/widgets/span/lv_span.c ****         }
 990              		.loc 1 250 13 is_stmt 1 view .LVU294
 250:Drivers/lvgl/src/extra/widgets/span/lv_span.c ****         }
 991              		.loc 1 250 20 is_stmt 0 view .LVU295
 992 002c 0134     		adds	r4, r4, #1
 993              	.LVL90:
 245:Drivers/lvgl/src/extra/widgets/span/lv_span.c ****             return (lv_span_t *) cur_node;
 994              		.loc 1 245 9 is_stmt 1 view .LVU296
 244:Drivers/lvgl/src/extra/widgets/span/lv_span.c ****         if(cur_idx == id) {
 995              		.loc 1 244 20 view .LVU297
 996 002e 49B1     		cbz	r1, .L99
 997              	.L103:
 245:Drivers/lvgl/src/extra/widgets/span/lv_span.c ****             return (lv_span_t *) cur_node;
 998              		.loc 1 245 11 is_stmt 0 view .LVU298
ARM GAS  /var/folders/lp/x54gwt890xv47sdkqj1k04q40000gn/T//cckjqg7q.s 			page 41


 999 0030 AC42     		cmp	r4, r5
 1000 0032 F5D1     		bne	.L100
 1001              	.LVL91:
 1002              	.L95:
 259:Drivers/lvgl/src/extra/widgets/span/lv_span.c **** 
 1003              		.loc 1 259 1 view .LVU299
 1004 0034 0846     		mov	r0, r1
 1005 0036 70BD     		pop	{r4, r5, r6, pc}
 1006              	.LVL92:
 1007              	.L101:
 253:Drivers/lvgl/src/extra/widgets/span/lv_span.c ****             cur_idx--;
 1008              		.loc 1 253 41 view .LVU300
 1009 0038 FFF7FEFF 		bl	_lv_ll_get_prev
 1010              	.LVL93:
 253:Drivers/lvgl/src/extra/widgets/span/lv_span.c ****             cur_idx--;
 1011              		.loc 1 253 41 view .LVU301
 1012 003c 0146     		mov	r1, r0
 1013              	.LVL94:
 254:Drivers/lvgl/src/extra/widgets/span/lv_span.c ****         }
 1014              		.loc 1 254 13 is_stmt 1 view .LVU302
 254:Drivers/lvgl/src/extra/widgets/span/lv_span.c ****         }
 1015              		.loc 1 254 20 is_stmt 0 view .LVU303
 1016 003e 013C     		subs	r4, r4, #1
 1017              	.LVL95:
 245:Drivers/lvgl/src/extra/widgets/span/lv_span.c ****             return (lv_span_t *) cur_node;
 1018              		.loc 1 245 9 is_stmt 1 view .LVU304
 244:Drivers/lvgl/src/extra/widgets/span/lv_span.c ****         if(cur_idx == id) {
 1019              		.loc 1 244 20 view .LVU305
 1020 0040 0029     		cmp	r1, #0
 1021 0042 F5D1     		bne	.L103
 1022              	.LVL96:
 1023              	.L99:
 227:Drivers/lvgl/src/extra/widgets/span/lv_span.c ****     }
 1024              		.loc 1 227 16 is_stmt 0 view .LVU306
 1025 0044 0021     		movs	r1, #0
 1026              	.LVL97:
 259:Drivers/lvgl/src/extra/widgets/span/lv_span.c **** 
 1027              		.loc 1 259 1 view .LVU307
 1028 0046 0846     		mov	r0, r1
 1029 0048 70BD     		pop	{r4, r5, r6, pc}
 1030              	.LVL98:
 1031              	.L111:
 1032              		.cfi_def_cfa_offset 0
 1033              		.cfi_restore 4
 1034              		.cfi_restore 5
 1035              		.cfi_restore 6
 1036              		.cfi_restore 14
 227:Drivers/lvgl/src/extra/widgets/span/lv_span.c ****     }
 1037              		.loc 1 227 16 view .LVU308
 1038 004a 0021     		movs	r1, #0
 1039              	.LVL99:
 259:Drivers/lvgl/src/extra/widgets/span/lv_span.c **** 
 1040              		.loc 1 259 1 view .LVU309
 1041 004c 0846     		mov	r0, r1
 1042              	.LVL100:
 259:Drivers/lvgl/src/extra/widgets/span/lv_span.c **** 
 1043              		.loc 1 259 1 view .LVU310
ARM GAS  /var/folders/lp/x54gwt890xv47sdkqj1k04q40000gn/T//cckjqg7q.s 			page 42


 1044 004e 7047     		bx	lr
 1045              		.cfi_endproc
 1046              	.LFE214:
 1048              		.section	.text.lv_spangroup_get_child_cnt,"ax",%progbits
 1049              		.align	1
 1050              		.p2align 2,,3
 1051              		.global	lv_spangroup_get_child_cnt
 1052              		.syntax unified
 1053              		.thumb
 1054              		.thumb_func
 1056              	lv_spangroup_get_child_cnt:
 1057              	.LVL101:
 1058              	.LFB215:
 262:Drivers/lvgl/src/extra/widgets/span/lv_span.c ****     LV_ASSERT_OBJ(obj, MY_CLASS);
 1059              		.loc 1 262 1 is_stmt 1 view -0
 1060              		.cfi_startproc
 1061              		@ args = 0, pretend = 0, frame = 0
 1062              		@ frame_needed = 0, uses_anonymous_args = 0
 1063              		@ link register save eliminated.
 263:Drivers/lvgl/src/extra/widgets/span/lv_span.c **** 
 1064              		.loc 1 263 5 view .LVU312
 263:Drivers/lvgl/src/extra/widgets/span/lv_span.c **** 
 1065              		.loc 1 263 5 view .LVU313
 263:Drivers/lvgl/src/extra/widgets/span/lv_span.c **** 
 1066              		.loc 1 263 5 view .LVU314
 265:Drivers/lvgl/src/extra/widgets/span/lv_span.c ****         return 0;
 1067              		.loc 1 265 5 view .LVU315
 265:Drivers/lvgl/src/extra/widgets/span/lv_span.c ****         return 0;
 1068              		.loc 1 265 7 is_stmt 0 view .LVU316
 1069 0000 10B1     		cbz	r0, .L113
 269:Drivers/lvgl/src/extra/widgets/span/lv_span.c ****     lv_spangroup_t * spans = (lv_spangroup_t *)obj;
 1070              		.loc 1 269 5 is_stmt 1 view .LVU317
 269:Drivers/lvgl/src/extra/widgets/span/lv_span.c ****     lv_spangroup_t * spans = (lv_spangroup_t *)obj;
 1071              		.loc 1 269 5 view .LVU318
 269:Drivers/lvgl/src/extra/widgets/span/lv_span.c ****     lv_spangroup_t * spans = (lv_spangroup_t *)obj;
 1072              		.loc 1 269 5 view .LVU319
 270:Drivers/lvgl/src/extra/widgets/span/lv_span.c ****     return _lv_ll_get_len(&(spans->child_ll));
 1073              		.loc 1 270 5 view .LVU320
 1074              	.LVL102:
 271:Drivers/lvgl/src/extra/widgets/span/lv_span.c **** }
 1075              		.loc 1 271 5 view .LVU321
 271:Drivers/lvgl/src/extra/widgets/span/lv_span.c **** }
 1076              		.loc 1 271 12 is_stmt 0 view .LVU322
 1077 0002 3030     		adds	r0, r0, #48
 1078              	.LVL103:
 271:Drivers/lvgl/src/extra/widgets/span/lv_span.c **** }
 1079              		.loc 1 271 12 view .LVU323
 1080 0004 FFF7FEBF 		b	_lv_ll_get_len
 1081              	.LVL104:
 1082              	.L113:
 272:Drivers/lvgl/src/extra/widgets/span/lv_span.c **** 
 1083              		.loc 1 272 1 view .LVU324
 1084 0008 7047     		bx	lr
 1085              		.cfi_endproc
 1086              	.LFE215:
 1088 000a 00BF     		.section	.text.lv_spangroup_get_align,"ax",%progbits
 1089              		.align	1
ARM GAS  /var/folders/lp/x54gwt890xv47sdkqj1k04q40000gn/T//cckjqg7q.s 			page 43


 1090              		.p2align 2,,3
 1091              		.global	lv_spangroup_get_align
 1092              		.syntax unified
 1093              		.thumb
 1094              		.thumb_func
 1096              	lv_spangroup_get_align:
 1097              	.LVL105:
 1098              	.LFB216:
 275:Drivers/lvgl/src/extra/widgets/span/lv_span.c ****     return lv_obj_get_style_text_align(obj, LV_PART_MAIN);
 1099              		.loc 1 275 1 is_stmt 1 view -0
 1100              		.cfi_startproc
 1101              		@ args = 0, pretend = 0, frame = 0
 1102              		@ frame_needed = 0, uses_anonymous_args = 0
 276:Drivers/lvgl/src/extra/widgets/span/lv_span.c **** }
 1103              		.loc 1 276 5 view .LVU326
 1104              	.LBB138:
 1105              	.LBI138:
 1106              		.file 2 "Drivers/lvgl/src/extra/widgets/span/../../../../src/core/lv_obj_style_gen.h"
   1:Drivers/lvgl/src/extra/widgets/span/../../../../src/core/lv_obj_style_gen.h **** static inline lv_coord_t lv_obj_get_style_width(const struct _lv_obj_t * obj, uint32_t part)
   2:Drivers/lvgl/src/extra/widgets/span/../../../../src/core/lv_obj_style_gen.h **** {
   3:Drivers/lvgl/src/extra/widgets/span/../../../../src/core/lv_obj_style_gen.h ****     lv_style_value_t v = lv_obj_get_style_prop(obj, part, LV_STYLE_WIDTH);
   4:Drivers/lvgl/src/extra/widgets/span/../../../../src/core/lv_obj_style_gen.h ****     return (lv_coord_t)v.num;
   5:Drivers/lvgl/src/extra/widgets/span/../../../../src/core/lv_obj_style_gen.h **** }
   6:Drivers/lvgl/src/extra/widgets/span/../../../../src/core/lv_obj_style_gen.h **** 
   7:Drivers/lvgl/src/extra/widgets/span/../../../../src/core/lv_obj_style_gen.h **** static inline lv_coord_t lv_obj_get_style_min_width(const struct _lv_obj_t * obj, uint32_t part)
   8:Drivers/lvgl/src/extra/widgets/span/../../../../src/core/lv_obj_style_gen.h **** {
   9:Drivers/lvgl/src/extra/widgets/span/../../../../src/core/lv_obj_style_gen.h ****     lv_style_value_t v = lv_obj_get_style_prop(obj, part, LV_STYLE_MIN_WIDTH);
  10:Drivers/lvgl/src/extra/widgets/span/../../../../src/core/lv_obj_style_gen.h ****     return (lv_coord_t)v.num;
  11:Drivers/lvgl/src/extra/widgets/span/../../../../src/core/lv_obj_style_gen.h **** }
  12:Drivers/lvgl/src/extra/widgets/span/../../../../src/core/lv_obj_style_gen.h **** 
  13:Drivers/lvgl/src/extra/widgets/span/../../../../src/core/lv_obj_style_gen.h **** static inline lv_coord_t lv_obj_get_style_max_width(const struct _lv_obj_t * obj, uint32_t part)
  14:Drivers/lvgl/src/extra/widgets/span/../../../../src/core/lv_obj_style_gen.h **** {
  15:Drivers/lvgl/src/extra/widgets/span/../../../../src/core/lv_obj_style_gen.h ****     lv_style_value_t v = lv_obj_get_style_prop(obj, part, LV_STYLE_MAX_WIDTH);
  16:Drivers/lvgl/src/extra/widgets/span/../../../../src/core/lv_obj_style_gen.h ****     return (lv_coord_t)v.num;
  17:Drivers/lvgl/src/extra/widgets/span/../../../../src/core/lv_obj_style_gen.h **** }
  18:Drivers/lvgl/src/extra/widgets/span/../../../../src/core/lv_obj_style_gen.h **** 
  19:Drivers/lvgl/src/extra/widgets/span/../../../../src/core/lv_obj_style_gen.h **** static inline lv_coord_t lv_obj_get_style_height(const struct _lv_obj_t * obj, uint32_t part)
  20:Drivers/lvgl/src/extra/widgets/span/../../../../src/core/lv_obj_style_gen.h **** {
  21:Drivers/lvgl/src/extra/widgets/span/../../../../src/core/lv_obj_style_gen.h ****     lv_style_value_t v = lv_obj_get_style_prop(obj, part, LV_STYLE_HEIGHT);
  22:Drivers/lvgl/src/extra/widgets/span/../../../../src/core/lv_obj_style_gen.h ****     return (lv_coord_t)v.num;
  23:Drivers/lvgl/src/extra/widgets/span/../../../../src/core/lv_obj_style_gen.h **** }
  24:Drivers/lvgl/src/extra/widgets/span/../../../../src/core/lv_obj_style_gen.h **** 
  25:Drivers/lvgl/src/extra/widgets/span/../../../../src/core/lv_obj_style_gen.h **** static inline lv_coord_t lv_obj_get_style_min_height(const struct _lv_obj_t * obj, uint32_t part)
  26:Drivers/lvgl/src/extra/widgets/span/../../../../src/core/lv_obj_style_gen.h **** {
  27:Drivers/lvgl/src/extra/widgets/span/../../../../src/core/lv_obj_style_gen.h ****     lv_style_value_t v = lv_obj_get_style_prop(obj, part, LV_STYLE_MIN_HEIGHT);
  28:Drivers/lvgl/src/extra/widgets/span/../../../../src/core/lv_obj_style_gen.h ****     return (lv_coord_t)v.num;
  29:Drivers/lvgl/src/extra/widgets/span/../../../../src/core/lv_obj_style_gen.h **** }
  30:Drivers/lvgl/src/extra/widgets/span/../../../../src/core/lv_obj_style_gen.h **** 
  31:Drivers/lvgl/src/extra/widgets/span/../../../../src/core/lv_obj_style_gen.h **** static inline lv_coord_t lv_obj_get_style_max_height(const struct _lv_obj_t * obj, uint32_t part)
  32:Drivers/lvgl/src/extra/widgets/span/../../../../src/core/lv_obj_style_gen.h **** {
  33:Drivers/lvgl/src/extra/widgets/span/../../../../src/core/lv_obj_style_gen.h ****     lv_style_value_t v = lv_obj_get_style_prop(obj, part, LV_STYLE_MAX_HEIGHT);
  34:Drivers/lvgl/src/extra/widgets/span/../../../../src/core/lv_obj_style_gen.h ****     return (lv_coord_t)v.num;
  35:Drivers/lvgl/src/extra/widgets/span/../../../../src/core/lv_obj_style_gen.h **** }
  36:Drivers/lvgl/src/extra/widgets/span/../../../../src/core/lv_obj_style_gen.h **** 
  37:Drivers/lvgl/src/extra/widgets/span/../../../../src/core/lv_obj_style_gen.h **** static inline lv_coord_t lv_obj_get_style_x(const struct _lv_obj_t * obj, uint32_t part)
  38:Drivers/lvgl/src/extra/widgets/span/../../../../src/core/lv_obj_style_gen.h **** {
  39:Drivers/lvgl/src/extra/widgets/span/../../../../src/core/lv_obj_style_gen.h ****     lv_style_value_t v = lv_obj_get_style_prop(obj, part, LV_STYLE_X);
ARM GAS  /var/folders/lp/x54gwt890xv47sdkqj1k04q40000gn/T//cckjqg7q.s 			page 44


  40:Drivers/lvgl/src/extra/widgets/span/../../../../src/core/lv_obj_style_gen.h ****     return (lv_coord_t)v.num;
  41:Drivers/lvgl/src/extra/widgets/span/../../../../src/core/lv_obj_style_gen.h **** }
  42:Drivers/lvgl/src/extra/widgets/span/../../../../src/core/lv_obj_style_gen.h **** 
  43:Drivers/lvgl/src/extra/widgets/span/../../../../src/core/lv_obj_style_gen.h **** static inline lv_coord_t lv_obj_get_style_y(const struct _lv_obj_t * obj, uint32_t part)
  44:Drivers/lvgl/src/extra/widgets/span/../../../../src/core/lv_obj_style_gen.h **** {
  45:Drivers/lvgl/src/extra/widgets/span/../../../../src/core/lv_obj_style_gen.h ****     lv_style_value_t v = lv_obj_get_style_prop(obj, part, LV_STYLE_Y);
  46:Drivers/lvgl/src/extra/widgets/span/../../../../src/core/lv_obj_style_gen.h ****     return (lv_coord_t)v.num;
  47:Drivers/lvgl/src/extra/widgets/span/../../../../src/core/lv_obj_style_gen.h **** }
  48:Drivers/lvgl/src/extra/widgets/span/../../../../src/core/lv_obj_style_gen.h **** 
  49:Drivers/lvgl/src/extra/widgets/span/../../../../src/core/lv_obj_style_gen.h **** static inline lv_align_t lv_obj_get_style_align(const struct _lv_obj_t * obj, uint32_t part)
  50:Drivers/lvgl/src/extra/widgets/span/../../../../src/core/lv_obj_style_gen.h **** {
  51:Drivers/lvgl/src/extra/widgets/span/../../../../src/core/lv_obj_style_gen.h ****     lv_style_value_t v = lv_obj_get_style_prop(obj, part, LV_STYLE_ALIGN);
  52:Drivers/lvgl/src/extra/widgets/span/../../../../src/core/lv_obj_style_gen.h ****     return (lv_align_t)v.num;
  53:Drivers/lvgl/src/extra/widgets/span/../../../../src/core/lv_obj_style_gen.h **** }
  54:Drivers/lvgl/src/extra/widgets/span/../../../../src/core/lv_obj_style_gen.h **** 
  55:Drivers/lvgl/src/extra/widgets/span/../../../../src/core/lv_obj_style_gen.h **** static inline lv_coord_t lv_obj_get_style_transform_width(const struct _lv_obj_t * obj, uint32_t pa
  56:Drivers/lvgl/src/extra/widgets/span/../../../../src/core/lv_obj_style_gen.h **** {
  57:Drivers/lvgl/src/extra/widgets/span/../../../../src/core/lv_obj_style_gen.h ****     lv_style_value_t v = lv_obj_get_style_prop(obj, part, LV_STYLE_TRANSFORM_WIDTH);
  58:Drivers/lvgl/src/extra/widgets/span/../../../../src/core/lv_obj_style_gen.h ****     return (lv_coord_t)v.num;
  59:Drivers/lvgl/src/extra/widgets/span/../../../../src/core/lv_obj_style_gen.h **** }
  60:Drivers/lvgl/src/extra/widgets/span/../../../../src/core/lv_obj_style_gen.h **** 
  61:Drivers/lvgl/src/extra/widgets/span/../../../../src/core/lv_obj_style_gen.h **** static inline lv_coord_t lv_obj_get_style_transform_height(const struct _lv_obj_t * obj, uint32_t p
  62:Drivers/lvgl/src/extra/widgets/span/../../../../src/core/lv_obj_style_gen.h **** {
  63:Drivers/lvgl/src/extra/widgets/span/../../../../src/core/lv_obj_style_gen.h ****     lv_style_value_t v = lv_obj_get_style_prop(obj, part, LV_STYLE_TRANSFORM_HEIGHT);
  64:Drivers/lvgl/src/extra/widgets/span/../../../../src/core/lv_obj_style_gen.h ****     return (lv_coord_t)v.num;
  65:Drivers/lvgl/src/extra/widgets/span/../../../../src/core/lv_obj_style_gen.h **** }
  66:Drivers/lvgl/src/extra/widgets/span/../../../../src/core/lv_obj_style_gen.h **** 
  67:Drivers/lvgl/src/extra/widgets/span/../../../../src/core/lv_obj_style_gen.h **** static inline lv_coord_t lv_obj_get_style_translate_x(const struct _lv_obj_t * obj, uint32_t part)
  68:Drivers/lvgl/src/extra/widgets/span/../../../../src/core/lv_obj_style_gen.h **** {
  69:Drivers/lvgl/src/extra/widgets/span/../../../../src/core/lv_obj_style_gen.h ****     lv_style_value_t v = lv_obj_get_style_prop(obj, part, LV_STYLE_TRANSLATE_X);
  70:Drivers/lvgl/src/extra/widgets/span/../../../../src/core/lv_obj_style_gen.h ****     return (lv_coord_t)v.num;
  71:Drivers/lvgl/src/extra/widgets/span/../../../../src/core/lv_obj_style_gen.h **** }
  72:Drivers/lvgl/src/extra/widgets/span/../../../../src/core/lv_obj_style_gen.h **** 
  73:Drivers/lvgl/src/extra/widgets/span/../../../../src/core/lv_obj_style_gen.h **** static inline lv_coord_t lv_obj_get_style_translate_y(const struct _lv_obj_t * obj, uint32_t part)
  74:Drivers/lvgl/src/extra/widgets/span/../../../../src/core/lv_obj_style_gen.h **** {
  75:Drivers/lvgl/src/extra/widgets/span/../../../../src/core/lv_obj_style_gen.h ****     lv_style_value_t v = lv_obj_get_style_prop(obj, part, LV_STYLE_TRANSLATE_Y);
  76:Drivers/lvgl/src/extra/widgets/span/../../../../src/core/lv_obj_style_gen.h ****     return (lv_coord_t)v.num;
  77:Drivers/lvgl/src/extra/widgets/span/../../../../src/core/lv_obj_style_gen.h **** }
  78:Drivers/lvgl/src/extra/widgets/span/../../../../src/core/lv_obj_style_gen.h **** 
  79:Drivers/lvgl/src/extra/widgets/span/../../../../src/core/lv_obj_style_gen.h **** static inline lv_coord_t lv_obj_get_style_transform_zoom(const struct _lv_obj_t * obj, uint32_t par
  80:Drivers/lvgl/src/extra/widgets/span/../../../../src/core/lv_obj_style_gen.h **** {
  81:Drivers/lvgl/src/extra/widgets/span/../../../../src/core/lv_obj_style_gen.h ****     lv_style_value_t v = lv_obj_get_style_prop(obj, part, LV_STYLE_TRANSFORM_ZOOM);
  82:Drivers/lvgl/src/extra/widgets/span/../../../../src/core/lv_obj_style_gen.h ****     return (lv_coord_t)v.num;
  83:Drivers/lvgl/src/extra/widgets/span/../../../../src/core/lv_obj_style_gen.h **** }
  84:Drivers/lvgl/src/extra/widgets/span/../../../../src/core/lv_obj_style_gen.h **** 
  85:Drivers/lvgl/src/extra/widgets/span/../../../../src/core/lv_obj_style_gen.h **** static inline lv_coord_t lv_obj_get_style_transform_angle(const struct _lv_obj_t * obj, uint32_t pa
  86:Drivers/lvgl/src/extra/widgets/span/../../../../src/core/lv_obj_style_gen.h **** {
  87:Drivers/lvgl/src/extra/widgets/span/../../../../src/core/lv_obj_style_gen.h ****     lv_style_value_t v = lv_obj_get_style_prop(obj, part, LV_STYLE_TRANSFORM_ANGLE);
  88:Drivers/lvgl/src/extra/widgets/span/../../../../src/core/lv_obj_style_gen.h ****     return (lv_coord_t)v.num;
  89:Drivers/lvgl/src/extra/widgets/span/../../../../src/core/lv_obj_style_gen.h **** }
  90:Drivers/lvgl/src/extra/widgets/span/../../../../src/core/lv_obj_style_gen.h **** 
  91:Drivers/lvgl/src/extra/widgets/span/../../../../src/core/lv_obj_style_gen.h **** static inline lv_coord_t lv_obj_get_style_transform_pivot_x(const struct _lv_obj_t * obj, uint32_t 
  92:Drivers/lvgl/src/extra/widgets/span/../../../../src/core/lv_obj_style_gen.h **** {
  93:Drivers/lvgl/src/extra/widgets/span/../../../../src/core/lv_obj_style_gen.h ****     lv_style_value_t v = lv_obj_get_style_prop(obj, part, LV_STYLE_TRANSFORM_PIVOT_X);
  94:Drivers/lvgl/src/extra/widgets/span/../../../../src/core/lv_obj_style_gen.h ****     return (lv_coord_t)v.num;
  95:Drivers/lvgl/src/extra/widgets/span/../../../../src/core/lv_obj_style_gen.h **** }
  96:Drivers/lvgl/src/extra/widgets/span/../../../../src/core/lv_obj_style_gen.h **** 
ARM GAS  /var/folders/lp/x54gwt890xv47sdkqj1k04q40000gn/T//cckjqg7q.s 			page 45


  97:Drivers/lvgl/src/extra/widgets/span/../../../../src/core/lv_obj_style_gen.h **** static inline lv_coord_t lv_obj_get_style_transform_pivot_y(const struct _lv_obj_t * obj, uint32_t 
  98:Drivers/lvgl/src/extra/widgets/span/../../../../src/core/lv_obj_style_gen.h **** {
  99:Drivers/lvgl/src/extra/widgets/span/../../../../src/core/lv_obj_style_gen.h ****     lv_style_value_t v = lv_obj_get_style_prop(obj, part, LV_STYLE_TRANSFORM_PIVOT_Y);
 100:Drivers/lvgl/src/extra/widgets/span/../../../../src/core/lv_obj_style_gen.h ****     return (lv_coord_t)v.num;
 101:Drivers/lvgl/src/extra/widgets/span/../../../../src/core/lv_obj_style_gen.h **** }
 102:Drivers/lvgl/src/extra/widgets/span/../../../../src/core/lv_obj_style_gen.h **** 
 103:Drivers/lvgl/src/extra/widgets/span/../../../../src/core/lv_obj_style_gen.h **** static inline lv_coord_t lv_obj_get_style_pad_top(const struct _lv_obj_t * obj, uint32_t part)
 104:Drivers/lvgl/src/extra/widgets/span/../../../../src/core/lv_obj_style_gen.h **** {
 105:Drivers/lvgl/src/extra/widgets/span/../../../../src/core/lv_obj_style_gen.h ****     lv_style_value_t v = lv_obj_get_style_prop(obj, part, LV_STYLE_PAD_TOP);
 106:Drivers/lvgl/src/extra/widgets/span/../../../../src/core/lv_obj_style_gen.h ****     return (lv_coord_t)v.num;
 107:Drivers/lvgl/src/extra/widgets/span/../../../../src/core/lv_obj_style_gen.h **** }
 108:Drivers/lvgl/src/extra/widgets/span/../../../../src/core/lv_obj_style_gen.h **** 
 109:Drivers/lvgl/src/extra/widgets/span/../../../../src/core/lv_obj_style_gen.h **** static inline lv_coord_t lv_obj_get_style_pad_bottom(const struct _lv_obj_t * obj, uint32_t part)
 110:Drivers/lvgl/src/extra/widgets/span/../../../../src/core/lv_obj_style_gen.h **** {
 111:Drivers/lvgl/src/extra/widgets/span/../../../../src/core/lv_obj_style_gen.h ****     lv_style_value_t v = lv_obj_get_style_prop(obj, part, LV_STYLE_PAD_BOTTOM);
 112:Drivers/lvgl/src/extra/widgets/span/../../../../src/core/lv_obj_style_gen.h ****     return (lv_coord_t)v.num;
 113:Drivers/lvgl/src/extra/widgets/span/../../../../src/core/lv_obj_style_gen.h **** }
 114:Drivers/lvgl/src/extra/widgets/span/../../../../src/core/lv_obj_style_gen.h **** 
 115:Drivers/lvgl/src/extra/widgets/span/../../../../src/core/lv_obj_style_gen.h **** static inline lv_coord_t lv_obj_get_style_pad_left(const struct _lv_obj_t * obj, uint32_t part)
 116:Drivers/lvgl/src/extra/widgets/span/../../../../src/core/lv_obj_style_gen.h **** {
 117:Drivers/lvgl/src/extra/widgets/span/../../../../src/core/lv_obj_style_gen.h ****     lv_style_value_t v = lv_obj_get_style_prop(obj, part, LV_STYLE_PAD_LEFT);
 118:Drivers/lvgl/src/extra/widgets/span/../../../../src/core/lv_obj_style_gen.h ****     return (lv_coord_t)v.num;
 119:Drivers/lvgl/src/extra/widgets/span/../../../../src/core/lv_obj_style_gen.h **** }
 120:Drivers/lvgl/src/extra/widgets/span/../../../../src/core/lv_obj_style_gen.h **** 
 121:Drivers/lvgl/src/extra/widgets/span/../../../../src/core/lv_obj_style_gen.h **** static inline lv_coord_t lv_obj_get_style_pad_right(const struct _lv_obj_t * obj, uint32_t part)
 122:Drivers/lvgl/src/extra/widgets/span/../../../../src/core/lv_obj_style_gen.h **** {
 123:Drivers/lvgl/src/extra/widgets/span/../../../../src/core/lv_obj_style_gen.h ****     lv_style_value_t v = lv_obj_get_style_prop(obj, part, LV_STYLE_PAD_RIGHT);
 124:Drivers/lvgl/src/extra/widgets/span/../../../../src/core/lv_obj_style_gen.h ****     return (lv_coord_t)v.num;
 125:Drivers/lvgl/src/extra/widgets/span/../../../../src/core/lv_obj_style_gen.h **** }
 126:Drivers/lvgl/src/extra/widgets/span/../../../../src/core/lv_obj_style_gen.h **** 
 127:Drivers/lvgl/src/extra/widgets/span/../../../../src/core/lv_obj_style_gen.h **** static inline lv_coord_t lv_obj_get_style_pad_row(const struct _lv_obj_t * obj, uint32_t part)
 128:Drivers/lvgl/src/extra/widgets/span/../../../../src/core/lv_obj_style_gen.h **** {
 129:Drivers/lvgl/src/extra/widgets/span/../../../../src/core/lv_obj_style_gen.h ****     lv_style_value_t v = lv_obj_get_style_prop(obj, part, LV_STYLE_PAD_ROW);
 130:Drivers/lvgl/src/extra/widgets/span/../../../../src/core/lv_obj_style_gen.h ****     return (lv_coord_t)v.num;
 131:Drivers/lvgl/src/extra/widgets/span/../../../../src/core/lv_obj_style_gen.h **** }
 132:Drivers/lvgl/src/extra/widgets/span/../../../../src/core/lv_obj_style_gen.h **** 
 133:Drivers/lvgl/src/extra/widgets/span/../../../../src/core/lv_obj_style_gen.h **** static inline lv_coord_t lv_obj_get_style_pad_column(const struct _lv_obj_t * obj, uint32_t part)
 134:Drivers/lvgl/src/extra/widgets/span/../../../../src/core/lv_obj_style_gen.h **** {
 135:Drivers/lvgl/src/extra/widgets/span/../../../../src/core/lv_obj_style_gen.h ****     lv_style_value_t v = lv_obj_get_style_prop(obj, part, LV_STYLE_PAD_COLUMN);
 136:Drivers/lvgl/src/extra/widgets/span/../../../../src/core/lv_obj_style_gen.h ****     return (lv_coord_t)v.num;
 137:Drivers/lvgl/src/extra/widgets/span/../../../../src/core/lv_obj_style_gen.h **** }
 138:Drivers/lvgl/src/extra/widgets/span/../../../../src/core/lv_obj_style_gen.h **** 
 139:Drivers/lvgl/src/extra/widgets/span/../../../../src/core/lv_obj_style_gen.h **** static inline lv_color_t lv_obj_get_style_bg_color(const struct _lv_obj_t * obj, uint32_t part)
 140:Drivers/lvgl/src/extra/widgets/span/../../../../src/core/lv_obj_style_gen.h **** {
 141:Drivers/lvgl/src/extra/widgets/span/../../../../src/core/lv_obj_style_gen.h ****     lv_style_value_t v = lv_obj_get_style_prop(obj, part, LV_STYLE_BG_COLOR);
 142:Drivers/lvgl/src/extra/widgets/span/../../../../src/core/lv_obj_style_gen.h ****     return v.color;
 143:Drivers/lvgl/src/extra/widgets/span/../../../../src/core/lv_obj_style_gen.h **** }
 144:Drivers/lvgl/src/extra/widgets/span/../../../../src/core/lv_obj_style_gen.h **** 
 145:Drivers/lvgl/src/extra/widgets/span/../../../../src/core/lv_obj_style_gen.h **** static inline lv_color_t lv_obj_get_style_bg_color_filtered(const struct _lv_obj_t * obj, uint32_t 
 146:Drivers/lvgl/src/extra/widgets/span/../../../../src/core/lv_obj_style_gen.h **** {
 147:Drivers/lvgl/src/extra/widgets/span/../../../../src/core/lv_obj_style_gen.h ****     lv_style_value_t v = _lv_obj_style_apply_color_filter(obj, part, lv_obj_get_style_prop(obj, par
 148:Drivers/lvgl/src/extra/widgets/span/../../../../src/core/lv_obj_style_gen.h ****     return v.color;
 149:Drivers/lvgl/src/extra/widgets/span/../../../../src/core/lv_obj_style_gen.h **** }
 150:Drivers/lvgl/src/extra/widgets/span/../../../../src/core/lv_obj_style_gen.h **** 
 151:Drivers/lvgl/src/extra/widgets/span/../../../../src/core/lv_obj_style_gen.h **** static inline lv_opa_t lv_obj_get_style_bg_opa(const struct _lv_obj_t * obj, uint32_t part)
 152:Drivers/lvgl/src/extra/widgets/span/../../../../src/core/lv_obj_style_gen.h **** {
 153:Drivers/lvgl/src/extra/widgets/span/../../../../src/core/lv_obj_style_gen.h ****     lv_style_value_t v = lv_obj_get_style_prop(obj, part, LV_STYLE_BG_OPA);
ARM GAS  /var/folders/lp/x54gwt890xv47sdkqj1k04q40000gn/T//cckjqg7q.s 			page 46


 154:Drivers/lvgl/src/extra/widgets/span/../../../../src/core/lv_obj_style_gen.h ****     return (lv_opa_t)v.num;
 155:Drivers/lvgl/src/extra/widgets/span/../../../../src/core/lv_obj_style_gen.h **** }
 156:Drivers/lvgl/src/extra/widgets/span/../../../../src/core/lv_obj_style_gen.h **** 
 157:Drivers/lvgl/src/extra/widgets/span/../../../../src/core/lv_obj_style_gen.h **** static inline lv_color_t lv_obj_get_style_bg_grad_color(const struct _lv_obj_t * obj, uint32_t part
 158:Drivers/lvgl/src/extra/widgets/span/../../../../src/core/lv_obj_style_gen.h **** {
 159:Drivers/lvgl/src/extra/widgets/span/../../../../src/core/lv_obj_style_gen.h ****     lv_style_value_t v = lv_obj_get_style_prop(obj, part, LV_STYLE_BG_GRAD_COLOR);
 160:Drivers/lvgl/src/extra/widgets/span/../../../../src/core/lv_obj_style_gen.h ****     return v.color;
 161:Drivers/lvgl/src/extra/widgets/span/../../../../src/core/lv_obj_style_gen.h **** }
 162:Drivers/lvgl/src/extra/widgets/span/../../../../src/core/lv_obj_style_gen.h **** 
 163:Drivers/lvgl/src/extra/widgets/span/../../../../src/core/lv_obj_style_gen.h **** static inline lv_color_t lv_obj_get_style_bg_grad_color_filtered(const struct _lv_obj_t * obj, uint
 164:Drivers/lvgl/src/extra/widgets/span/../../../../src/core/lv_obj_style_gen.h **** {
 165:Drivers/lvgl/src/extra/widgets/span/../../../../src/core/lv_obj_style_gen.h ****     lv_style_value_t v = _lv_obj_style_apply_color_filter(obj, part, lv_obj_get_style_prop(obj, par
 166:Drivers/lvgl/src/extra/widgets/span/../../../../src/core/lv_obj_style_gen.h ****     return v.color;
 167:Drivers/lvgl/src/extra/widgets/span/../../../../src/core/lv_obj_style_gen.h **** }
 168:Drivers/lvgl/src/extra/widgets/span/../../../../src/core/lv_obj_style_gen.h **** 
 169:Drivers/lvgl/src/extra/widgets/span/../../../../src/core/lv_obj_style_gen.h **** static inline lv_grad_dir_t lv_obj_get_style_bg_grad_dir(const struct _lv_obj_t * obj, uint32_t par
 170:Drivers/lvgl/src/extra/widgets/span/../../../../src/core/lv_obj_style_gen.h **** {
 171:Drivers/lvgl/src/extra/widgets/span/../../../../src/core/lv_obj_style_gen.h ****     lv_style_value_t v = lv_obj_get_style_prop(obj, part, LV_STYLE_BG_GRAD_DIR);
 172:Drivers/lvgl/src/extra/widgets/span/../../../../src/core/lv_obj_style_gen.h ****     return (lv_grad_dir_t)v.num;
 173:Drivers/lvgl/src/extra/widgets/span/../../../../src/core/lv_obj_style_gen.h **** }
 174:Drivers/lvgl/src/extra/widgets/span/../../../../src/core/lv_obj_style_gen.h **** 
 175:Drivers/lvgl/src/extra/widgets/span/../../../../src/core/lv_obj_style_gen.h **** static inline lv_coord_t lv_obj_get_style_bg_main_stop(const struct _lv_obj_t * obj, uint32_t part)
 176:Drivers/lvgl/src/extra/widgets/span/../../../../src/core/lv_obj_style_gen.h **** {
 177:Drivers/lvgl/src/extra/widgets/span/../../../../src/core/lv_obj_style_gen.h ****     lv_style_value_t v = lv_obj_get_style_prop(obj, part, LV_STYLE_BG_MAIN_STOP);
 178:Drivers/lvgl/src/extra/widgets/span/../../../../src/core/lv_obj_style_gen.h ****     return (lv_coord_t)v.num;
 179:Drivers/lvgl/src/extra/widgets/span/../../../../src/core/lv_obj_style_gen.h **** }
 180:Drivers/lvgl/src/extra/widgets/span/../../../../src/core/lv_obj_style_gen.h **** 
 181:Drivers/lvgl/src/extra/widgets/span/../../../../src/core/lv_obj_style_gen.h **** static inline lv_coord_t lv_obj_get_style_bg_grad_stop(const struct _lv_obj_t * obj, uint32_t part)
 182:Drivers/lvgl/src/extra/widgets/span/../../../../src/core/lv_obj_style_gen.h **** {
 183:Drivers/lvgl/src/extra/widgets/span/../../../../src/core/lv_obj_style_gen.h ****     lv_style_value_t v = lv_obj_get_style_prop(obj, part, LV_STYLE_BG_GRAD_STOP);
 184:Drivers/lvgl/src/extra/widgets/span/../../../../src/core/lv_obj_style_gen.h ****     return (lv_coord_t)v.num;
 185:Drivers/lvgl/src/extra/widgets/span/../../../../src/core/lv_obj_style_gen.h **** }
 186:Drivers/lvgl/src/extra/widgets/span/../../../../src/core/lv_obj_style_gen.h **** 
 187:Drivers/lvgl/src/extra/widgets/span/../../../../src/core/lv_obj_style_gen.h **** static inline const lv_grad_dsc_t * lv_obj_get_style_bg_grad(const struct _lv_obj_t * obj, uint32_t
 188:Drivers/lvgl/src/extra/widgets/span/../../../../src/core/lv_obj_style_gen.h **** {
 189:Drivers/lvgl/src/extra/widgets/span/../../../../src/core/lv_obj_style_gen.h ****     lv_style_value_t v = lv_obj_get_style_prop(obj, part, LV_STYLE_BG_GRAD);
 190:Drivers/lvgl/src/extra/widgets/span/../../../../src/core/lv_obj_style_gen.h ****     return (const lv_grad_dsc_t *)v.ptr;
 191:Drivers/lvgl/src/extra/widgets/span/../../../../src/core/lv_obj_style_gen.h **** }
 192:Drivers/lvgl/src/extra/widgets/span/../../../../src/core/lv_obj_style_gen.h **** 
 193:Drivers/lvgl/src/extra/widgets/span/../../../../src/core/lv_obj_style_gen.h **** static inline lv_dither_mode_t lv_obj_get_style_bg_dither_mode(const struct _lv_obj_t * obj, uint32
 194:Drivers/lvgl/src/extra/widgets/span/../../../../src/core/lv_obj_style_gen.h **** {
 195:Drivers/lvgl/src/extra/widgets/span/../../../../src/core/lv_obj_style_gen.h ****     lv_style_value_t v = lv_obj_get_style_prop(obj, part, LV_STYLE_BG_DITHER_MODE);
 196:Drivers/lvgl/src/extra/widgets/span/../../../../src/core/lv_obj_style_gen.h ****     return (lv_dither_mode_t)v.num;
 197:Drivers/lvgl/src/extra/widgets/span/../../../../src/core/lv_obj_style_gen.h **** }
 198:Drivers/lvgl/src/extra/widgets/span/../../../../src/core/lv_obj_style_gen.h **** 
 199:Drivers/lvgl/src/extra/widgets/span/../../../../src/core/lv_obj_style_gen.h **** static inline const void * lv_obj_get_style_bg_img_src(const struct _lv_obj_t * obj, uint32_t part)
 200:Drivers/lvgl/src/extra/widgets/span/../../../../src/core/lv_obj_style_gen.h **** {
 201:Drivers/lvgl/src/extra/widgets/span/../../../../src/core/lv_obj_style_gen.h ****     lv_style_value_t v = lv_obj_get_style_prop(obj, part, LV_STYLE_BG_IMG_SRC);
 202:Drivers/lvgl/src/extra/widgets/span/../../../../src/core/lv_obj_style_gen.h ****     return (const void *)v.ptr;
 203:Drivers/lvgl/src/extra/widgets/span/../../../../src/core/lv_obj_style_gen.h **** }
 204:Drivers/lvgl/src/extra/widgets/span/../../../../src/core/lv_obj_style_gen.h **** 
 205:Drivers/lvgl/src/extra/widgets/span/../../../../src/core/lv_obj_style_gen.h **** static inline lv_opa_t lv_obj_get_style_bg_img_opa(const struct _lv_obj_t * obj, uint32_t part)
 206:Drivers/lvgl/src/extra/widgets/span/../../../../src/core/lv_obj_style_gen.h **** {
 207:Drivers/lvgl/src/extra/widgets/span/../../../../src/core/lv_obj_style_gen.h ****     lv_style_value_t v = lv_obj_get_style_prop(obj, part, LV_STYLE_BG_IMG_OPA);
 208:Drivers/lvgl/src/extra/widgets/span/../../../../src/core/lv_obj_style_gen.h ****     return (lv_opa_t)v.num;
 209:Drivers/lvgl/src/extra/widgets/span/../../../../src/core/lv_obj_style_gen.h **** }
 210:Drivers/lvgl/src/extra/widgets/span/../../../../src/core/lv_obj_style_gen.h **** 
ARM GAS  /var/folders/lp/x54gwt890xv47sdkqj1k04q40000gn/T//cckjqg7q.s 			page 47


 211:Drivers/lvgl/src/extra/widgets/span/../../../../src/core/lv_obj_style_gen.h **** static inline lv_color_t lv_obj_get_style_bg_img_recolor(const struct _lv_obj_t * obj, uint32_t par
 212:Drivers/lvgl/src/extra/widgets/span/../../../../src/core/lv_obj_style_gen.h **** {
 213:Drivers/lvgl/src/extra/widgets/span/../../../../src/core/lv_obj_style_gen.h ****     lv_style_value_t v = lv_obj_get_style_prop(obj, part, LV_STYLE_BG_IMG_RECOLOR);
 214:Drivers/lvgl/src/extra/widgets/span/../../../../src/core/lv_obj_style_gen.h ****     return v.color;
 215:Drivers/lvgl/src/extra/widgets/span/../../../../src/core/lv_obj_style_gen.h **** }
 216:Drivers/lvgl/src/extra/widgets/span/../../../../src/core/lv_obj_style_gen.h **** 
 217:Drivers/lvgl/src/extra/widgets/span/../../../../src/core/lv_obj_style_gen.h **** static inline lv_color_t lv_obj_get_style_bg_img_recolor_filtered(const struct _lv_obj_t * obj, uin
 218:Drivers/lvgl/src/extra/widgets/span/../../../../src/core/lv_obj_style_gen.h **** {
 219:Drivers/lvgl/src/extra/widgets/span/../../../../src/core/lv_obj_style_gen.h ****     lv_style_value_t v = _lv_obj_style_apply_color_filter(obj, part, lv_obj_get_style_prop(obj, par
 220:Drivers/lvgl/src/extra/widgets/span/../../../../src/core/lv_obj_style_gen.h ****     return v.color;
 221:Drivers/lvgl/src/extra/widgets/span/../../../../src/core/lv_obj_style_gen.h **** }
 222:Drivers/lvgl/src/extra/widgets/span/../../../../src/core/lv_obj_style_gen.h **** 
 223:Drivers/lvgl/src/extra/widgets/span/../../../../src/core/lv_obj_style_gen.h **** static inline lv_opa_t lv_obj_get_style_bg_img_recolor_opa(const struct _lv_obj_t * obj, uint32_t p
 224:Drivers/lvgl/src/extra/widgets/span/../../../../src/core/lv_obj_style_gen.h **** {
 225:Drivers/lvgl/src/extra/widgets/span/../../../../src/core/lv_obj_style_gen.h ****     lv_style_value_t v = lv_obj_get_style_prop(obj, part, LV_STYLE_BG_IMG_RECOLOR_OPA);
 226:Drivers/lvgl/src/extra/widgets/span/../../../../src/core/lv_obj_style_gen.h ****     return (lv_opa_t)v.num;
 227:Drivers/lvgl/src/extra/widgets/span/../../../../src/core/lv_obj_style_gen.h **** }
 228:Drivers/lvgl/src/extra/widgets/span/../../../../src/core/lv_obj_style_gen.h **** 
 229:Drivers/lvgl/src/extra/widgets/span/../../../../src/core/lv_obj_style_gen.h **** static inline bool lv_obj_get_style_bg_img_tiled(const struct _lv_obj_t * obj, uint32_t part)
 230:Drivers/lvgl/src/extra/widgets/span/../../../../src/core/lv_obj_style_gen.h **** {
 231:Drivers/lvgl/src/extra/widgets/span/../../../../src/core/lv_obj_style_gen.h ****     lv_style_value_t v = lv_obj_get_style_prop(obj, part, LV_STYLE_BG_IMG_TILED);
 232:Drivers/lvgl/src/extra/widgets/span/../../../../src/core/lv_obj_style_gen.h ****     return (bool)v.num;
 233:Drivers/lvgl/src/extra/widgets/span/../../../../src/core/lv_obj_style_gen.h **** }
 234:Drivers/lvgl/src/extra/widgets/span/../../../../src/core/lv_obj_style_gen.h **** 
 235:Drivers/lvgl/src/extra/widgets/span/../../../../src/core/lv_obj_style_gen.h **** static inline lv_color_t lv_obj_get_style_border_color(const struct _lv_obj_t * obj, uint32_t part)
 236:Drivers/lvgl/src/extra/widgets/span/../../../../src/core/lv_obj_style_gen.h **** {
 237:Drivers/lvgl/src/extra/widgets/span/../../../../src/core/lv_obj_style_gen.h ****     lv_style_value_t v = lv_obj_get_style_prop(obj, part, LV_STYLE_BORDER_COLOR);
 238:Drivers/lvgl/src/extra/widgets/span/../../../../src/core/lv_obj_style_gen.h ****     return v.color;
 239:Drivers/lvgl/src/extra/widgets/span/../../../../src/core/lv_obj_style_gen.h **** }
 240:Drivers/lvgl/src/extra/widgets/span/../../../../src/core/lv_obj_style_gen.h **** 
 241:Drivers/lvgl/src/extra/widgets/span/../../../../src/core/lv_obj_style_gen.h **** static inline lv_color_t lv_obj_get_style_border_color_filtered(const struct _lv_obj_t * obj, uint3
 242:Drivers/lvgl/src/extra/widgets/span/../../../../src/core/lv_obj_style_gen.h **** {
 243:Drivers/lvgl/src/extra/widgets/span/../../../../src/core/lv_obj_style_gen.h ****     lv_style_value_t v = _lv_obj_style_apply_color_filter(obj, part, lv_obj_get_style_prop(obj, par
 244:Drivers/lvgl/src/extra/widgets/span/../../../../src/core/lv_obj_style_gen.h ****     return v.color;
 245:Drivers/lvgl/src/extra/widgets/span/../../../../src/core/lv_obj_style_gen.h **** }
 246:Drivers/lvgl/src/extra/widgets/span/../../../../src/core/lv_obj_style_gen.h **** 
 247:Drivers/lvgl/src/extra/widgets/span/../../../../src/core/lv_obj_style_gen.h **** static inline lv_opa_t lv_obj_get_style_border_opa(const struct _lv_obj_t * obj, uint32_t part)
 248:Drivers/lvgl/src/extra/widgets/span/../../../../src/core/lv_obj_style_gen.h **** {
 249:Drivers/lvgl/src/extra/widgets/span/../../../../src/core/lv_obj_style_gen.h ****     lv_style_value_t v = lv_obj_get_style_prop(obj, part, LV_STYLE_BORDER_OPA);
 250:Drivers/lvgl/src/extra/widgets/span/../../../../src/core/lv_obj_style_gen.h ****     return (lv_opa_t)v.num;
 251:Drivers/lvgl/src/extra/widgets/span/../../../../src/core/lv_obj_style_gen.h **** }
 252:Drivers/lvgl/src/extra/widgets/span/../../../../src/core/lv_obj_style_gen.h **** 
 253:Drivers/lvgl/src/extra/widgets/span/../../../../src/core/lv_obj_style_gen.h **** static inline lv_coord_t lv_obj_get_style_border_width(const struct _lv_obj_t * obj, uint32_t part)
 254:Drivers/lvgl/src/extra/widgets/span/../../../../src/core/lv_obj_style_gen.h **** {
 255:Drivers/lvgl/src/extra/widgets/span/../../../../src/core/lv_obj_style_gen.h ****     lv_style_value_t v = lv_obj_get_style_prop(obj, part, LV_STYLE_BORDER_WIDTH);
 256:Drivers/lvgl/src/extra/widgets/span/../../../../src/core/lv_obj_style_gen.h ****     return (lv_coord_t)v.num;
 257:Drivers/lvgl/src/extra/widgets/span/../../../../src/core/lv_obj_style_gen.h **** }
 258:Drivers/lvgl/src/extra/widgets/span/../../../../src/core/lv_obj_style_gen.h **** 
 259:Drivers/lvgl/src/extra/widgets/span/../../../../src/core/lv_obj_style_gen.h **** static inline lv_border_side_t lv_obj_get_style_border_side(const struct _lv_obj_t * obj, uint32_t 
 260:Drivers/lvgl/src/extra/widgets/span/../../../../src/core/lv_obj_style_gen.h **** {
 261:Drivers/lvgl/src/extra/widgets/span/../../../../src/core/lv_obj_style_gen.h ****     lv_style_value_t v = lv_obj_get_style_prop(obj, part, LV_STYLE_BORDER_SIDE);
 262:Drivers/lvgl/src/extra/widgets/span/../../../../src/core/lv_obj_style_gen.h ****     return (lv_border_side_t)v.num;
 263:Drivers/lvgl/src/extra/widgets/span/../../../../src/core/lv_obj_style_gen.h **** }
 264:Drivers/lvgl/src/extra/widgets/span/../../../../src/core/lv_obj_style_gen.h **** 
 265:Drivers/lvgl/src/extra/widgets/span/../../../../src/core/lv_obj_style_gen.h **** static inline bool lv_obj_get_style_border_post(const struct _lv_obj_t * obj, uint32_t part)
 266:Drivers/lvgl/src/extra/widgets/span/../../../../src/core/lv_obj_style_gen.h **** {
 267:Drivers/lvgl/src/extra/widgets/span/../../../../src/core/lv_obj_style_gen.h ****     lv_style_value_t v = lv_obj_get_style_prop(obj, part, LV_STYLE_BORDER_POST);
ARM GAS  /var/folders/lp/x54gwt890xv47sdkqj1k04q40000gn/T//cckjqg7q.s 			page 48


 268:Drivers/lvgl/src/extra/widgets/span/../../../../src/core/lv_obj_style_gen.h ****     return (bool)v.num;
 269:Drivers/lvgl/src/extra/widgets/span/../../../../src/core/lv_obj_style_gen.h **** }
 270:Drivers/lvgl/src/extra/widgets/span/../../../../src/core/lv_obj_style_gen.h **** 
 271:Drivers/lvgl/src/extra/widgets/span/../../../../src/core/lv_obj_style_gen.h **** static inline lv_coord_t lv_obj_get_style_outline_width(const struct _lv_obj_t * obj, uint32_t part
 272:Drivers/lvgl/src/extra/widgets/span/../../../../src/core/lv_obj_style_gen.h **** {
 273:Drivers/lvgl/src/extra/widgets/span/../../../../src/core/lv_obj_style_gen.h ****     lv_style_value_t v = lv_obj_get_style_prop(obj, part, LV_STYLE_OUTLINE_WIDTH);
 274:Drivers/lvgl/src/extra/widgets/span/../../../../src/core/lv_obj_style_gen.h ****     return (lv_coord_t)v.num;
 275:Drivers/lvgl/src/extra/widgets/span/../../../../src/core/lv_obj_style_gen.h **** }
 276:Drivers/lvgl/src/extra/widgets/span/../../../../src/core/lv_obj_style_gen.h **** 
 277:Drivers/lvgl/src/extra/widgets/span/../../../../src/core/lv_obj_style_gen.h **** static inline lv_color_t lv_obj_get_style_outline_color(const struct _lv_obj_t * obj, uint32_t part
 278:Drivers/lvgl/src/extra/widgets/span/../../../../src/core/lv_obj_style_gen.h **** {
 279:Drivers/lvgl/src/extra/widgets/span/../../../../src/core/lv_obj_style_gen.h ****     lv_style_value_t v = lv_obj_get_style_prop(obj, part, LV_STYLE_OUTLINE_COLOR);
 280:Drivers/lvgl/src/extra/widgets/span/../../../../src/core/lv_obj_style_gen.h ****     return v.color;
 281:Drivers/lvgl/src/extra/widgets/span/../../../../src/core/lv_obj_style_gen.h **** }
 282:Drivers/lvgl/src/extra/widgets/span/../../../../src/core/lv_obj_style_gen.h **** 
 283:Drivers/lvgl/src/extra/widgets/span/../../../../src/core/lv_obj_style_gen.h **** static inline lv_color_t lv_obj_get_style_outline_color_filtered(const struct _lv_obj_t * obj, uint
 284:Drivers/lvgl/src/extra/widgets/span/../../../../src/core/lv_obj_style_gen.h **** {
 285:Drivers/lvgl/src/extra/widgets/span/../../../../src/core/lv_obj_style_gen.h ****     lv_style_value_t v = _lv_obj_style_apply_color_filter(obj, part, lv_obj_get_style_prop(obj, par
 286:Drivers/lvgl/src/extra/widgets/span/../../../../src/core/lv_obj_style_gen.h ****     return v.color;
 287:Drivers/lvgl/src/extra/widgets/span/../../../../src/core/lv_obj_style_gen.h **** }
 288:Drivers/lvgl/src/extra/widgets/span/../../../../src/core/lv_obj_style_gen.h **** 
 289:Drivers/lvgl/src/extra/widgets/span/../../../../src/core/lv_obj_style_gen.h **** static inline lv_opa_t lv_obj_get_style_outline_opa(const struct _lv_obj_t * obj, uint32_t part)
 290:Drivers/lvgl/src/extra/widgets/span/../../../../src/core/lv_obj_style_gen.h **** {
 291:Drivers/lvgl/src/extra/widgets/span/../../../../src/core/lv_obj_style_gen.h ****     lv_style_value_t v = lv_obj_get_style_prop(obj, part, LV_STYLE_OUTLINE_OPA);
 292:Drivers/lvgl/src/extra/widgets/span/../../../../src/core/lv_obj_style_gen.h ****     return (lv_opa_t)v.num;
 293:Drivers/lvgl/src/extra/widgets/span/../../../../src/core/lv_obj_style_gen.h **** }
 294:Drivers/lvgl/src/extra/widgets/span/../../../../src/core/lv_obj_style_gen.h **** 
 295:Drivers/lvgl/src/extra/widgets/span/../../../../src/core/lv_obj_style_gen.h **** static inline lv_coord_t lv_obj_get_style_outline_pad(const struct _lv_obj_t * obj, uint32_t part)
 296:Drivers/lvgl/src/extra/widgets/span/../../../../src/core/lv_obj_style_gen.h **** {
 297:Drivers/lvgl/src/extra/widgets/span/../../../../src/core/lv_obj_style_gen.h ****     lv_style_value_t v = lv_obj_get_style_prop(obj, part, LV_STYLE_OUTLINE_PAD);
 298:Drivers/lvgl/src/extra/widgets/span/../../../../src/core/lv_obj_style_gen.h ****     return (lv_coord_t)v.num;
 299:Drivers/lvgl/src/extra/widgets/span/../../../../src/core/lv_obj_style_gen.h **** }
 300:Drivers/lvgl/src/extra/widgets/span/../../../../src/core/lv_obj_style_gen.h **** 
 301:Drivers/lvgl/src/extra/widgets/span/../../../../src/core/lv_obj_style_gen.h **** static inline lv_coord_t lv_obj_get_style_shadow_width(const struct _lv_obj_t * obj, uint32_t part)
 302:Drivers/lvgl/src/extra/widgets/span/../../../../src/core/lv_obj_style_gen.h **** {
 303:Drivers/lvgl/src/extra/widgets/span/../../../../src/core/lv_obj_style_gen.h ****     lv_style_value_t v = lv_obj_get_style_prop(obj, part, LV_STYLE_SHADOW_WIDTH);
 304:Drivers/lvgl/src/extra/widgets/span/../../../../src/core/lv_obj_style_gen.h ****     return (lv_coord_t)v.num;
 305:Drivers/lvgl/src/extra/widgets/span/../../../../src/core/lv_obj_style_gen.h **** }
 306:Drivers/lvgl/src/extra/widgets/span/../../../../src/core/lv_obj_style_gen.h **** 
 307:Drivers/lvgl/src/extra/widgets/span/../../../../src/core/lv_obj_style_gen.h **** static inline lv_coord_t lv_obj_get_style_shadow_ofs_x(const struct _lv_obj_t * obj, uint32_t part)
 308:Drivers/lvgl/src/extra/widgets/span/../../../../src/core/lv_obj_style_gen.h **** {
 309:Drivers/lvgl/src/extra/widgets/span/../../../../src/core/lv_obj_style_gen.h ****     lv_style_value_t v = lv_obj_get_style_prop(obj, part, LV_STYLE_SHADOW_OFS_X);
 310:Drivers/lvgl/src/extra/widgets/span/../../../../src/core/lv_obj_style_gen.h ****     return (lv_coord_t)v.num;
 311:Drivers/lvgl/src/extra/widgets/span/../../../../src/core/lv_obj_style_gen.h **** }
 312:Drivers/lvgl/src/extra/widgets/span/../../../../src/core/lv_obj_style_gen.h **** 
 313:Drivers/lvgl/src/extra/widgets/span/../../../../src/core/lv_obj_style_gen.h **** static inline lv_coord_t lv_obj_get_style_shadow_ofs_y(const struct _lv_obj_t * obj, uint32_t part)
 314:Drivers/lvgl/src/extra/widgets/span/../../../../src/core/lv_obj_style_gen.h **** {
 315:Drivers/lvgl/src/extra/widgets/span/../../../../src/core/lv_obj_style_gen.h ****     lv_style_value_t v = lv_obj_get_style_prop(obj, part, LV_STYLE_SHADOW_OFS_Y);
 316:Drivers/lvgl/src/extra/widgets/span/../../../../src/core/lv_obj_style_gen.h ****     return (lv_coord_t)v.num;
 317:Drivers/lvgl/src/extra/widgets/span/../../../../src/core/lv_obj_style_gen.h **** }
 318:Drivers/lvgl/src/extra/widgets/span/../../../../src/core/lv_obj_style_gen.h **** 
 319:Drivers/lvgl/src/extra/widgets/span/../../../../src/core/lv_obj_style_gen.h **** static inline lv_coord_t lv_obj_get_style_shadow_spread(const struct _lv_obj_t * obj, uint32_t part
 320:Drivers/lvgl/src/extra/widgets/span/../../../../src/core/lv_obj_style_gen.h **** {
 321:Drivers/lvgl/src/extra/widgets/span/../../../../src/core/lv_obj_style_gen.h ****     lv_style_value_t v = lv_obj_get_style_prop(obj, part, LV_STYLE_SHADOW_SPREAD);
 322:Drivers/lvgl/src/extra/widgets/span/../../../../src/core/lv_obj_style_gen.h ****     return (lv_coord_t)v.num;
 323:Drivers/lvgl/src/extra/widgets/span/../../../../src/core/lv_obj_style_gen.h **** }
 324:Drivers/lvgl/src/extra/widgets/span/../../../../src/core/lv_obj_style_gen.h **** 
ARM GAS  /var/folders/lp/x54gwt890xv47sdkqj1k04q40000gn/T//cckjqg7q.s 			page 49


 325:Drivers/lvgl/src/extra/widgets/span/../../../../src/core/lv_obj_style_gen.h **** static inline lv_color_t lv_obj_get_style_shadow_color(const struct _lv_obj_t * obj, uint32_t part)
 326:Drivers/lvgl/src/extra/widgets/span/../../../../src/core/lv_obj_style_gen.h **** {
 327:Drivers/lvgl/src/extra/widgets/span/../../../../src/core/lv_obj_style_gen.h ****     lv_style_value_t v = lv_obj_get_style_prop(obj, part, LV_STYLE_SHADOW_COLOR);
 328:Drivers/lvgl/src/extra/widgets/span/../../../../src/core/lv_obj_style_gen.h ****     return v.color;
 329:Drivers/lvgl/src/extra/widgets/span/../../../../src/core/lv_obj_style_gen.h **** }
 330:Drivers/lvgl/src/extra/widgets/span/../../../../src/core/lv_obj_style_gen.h **** 
 331:Drivers/lvgl/src/extra/widgets/span/../../../../src/core/lv_obj_style_gen.h **** static inline lv_color_t lv_obj_get_style_shadow_color_filtered(const struct _lv_obj_t * obj, uint3
 332:Drivers/lvgl/src/extra/widgets/span/../../../../src/core/lv_obj_style_gen.h **** {
 333:Drivers/lvgl/src/extra/widgets/span/../../../../src/core/lv_obj_style_gen.h ****     lv_style_value_t v = _lv_obj_style_apply_color_filter(obj, part, lv_obj_get_style_prop(obj, par
 334:Drivers/lvgl/src/extra/widgets/span/../../../../src/core/lv_obj_style_gen.h ****     return v.color;
 335:Drivers/lvgl/src/extra/widgets/span/../../../../src/core/lv_obj_style_gen.h **** }
 336:Drivers/lvgl/src/extra/widgets/span/../../../../src/core/lv_obj_style_gen.h **** 
 337:Drivers/lvgl/src/extra/widgets/span/../../../../src/core/lv_obj_style_gen.h **** static inline lv_opa_t lv_obj_get_style_shadow_opa(const struct _lv_obj_t * obj, uint32_t part)
 338:Drivers/lvgl/src/extra/widgets/span/../../../../src/core/lv_obj_style_gen.h **** {
 339:Drivers/lvgl/src/extra/widgets/span/../../../../src/core/lv_obj_style_gen.h ****     lv_style_value_t v = lv_obj_get_style_prop(obj, part, LV_STYLE_SHADOW_OPA);
 340:Drivers/lvgl/src/extra/widgets/span/../../../../src/core/lv_obj_style_gen.h ****     return (lv_opa_t)v.num;
 341:Drivers/lvgl/src/extra/widgets/span/../../../../src/core/lv_obj_style_gen.h **** }
 342:Drivers/lvgl/src/extra/widgets/span/../../../../src/core/lv_obj_style_gen.h **** 
 343:Drivers/lvgl/src/extra/widgets/span/../../../../src/core/lv_obj_style_gen.h **** static inline lv_opa_t lv_obj_get_style_img_opa(const struct _lv_obj_t * obj, uint32_t part)
 344:Drivers/lvgl/src/extra/widgets/span/../../../../src/core/lv_obj_style_gen.h **** {
 345:Drivers/lvgl/src/extra/widgets/span/../../../../src/core/lv_obj_style_gen.h ****     lv_style_value_t v = lv_obj_get_style_prop(obj, part, LV_STYLE_IMG_OPA);
 346:Drivers/lvgl/src/extra/widgets/span/../../../../src/core/lv_obj_style_gen.h ****     return (lv_opa_t)v.num;
 347:Drivers/lvgl/src/extra/widgets/span/../../../../src/core/lv_obj_style_gen.h **** }
 348:Drivers/lvgl/src/extra/widgets/span/../../../../src/core/lv_obj_style_gen.h **** 
 349:Drivers/lvgl/src/extra/widgets/span/../../../../src/core/lv_obj_style_gen.h **** static inline lv_color_t lv_obj_get_style_img_recolor(const struct _lv_obj_t * obj, uint32_t part)
 350:Drivers/lvgl/src/extra/widgets/span/../../../../src/core/lv_obj_style_gen.h **** {
 351:Drivers/lvgl/src/extra/widgets/span/../../../../src/core/lv_obj_style_gen.h ****     lv_style_value_t v = lv_obj_get_style_prop(obj, part, LV_STYLE_IMG_RECOLOR);
 352:Drivers/lvgl/src/extra/widgets/span/../../../../src/core/lv_obj_style_gen.h ****     return v.color;
 353:Drivers/lvgl/src/extra/widgets/span/../../../../src/core/lv_obj_style_gen.h **** }
 354:Drivers/lvgl/src/extra/widgets/span/../../../../src/core/lv_obj_style_gen.h **** 
 355:Drivers/lvgl/src/extra/widgets/span/../../../../src/core/lv_obj_style_gen.h **** static inline lv_color_t lv_obj_get_style_img_recolor_filtered(const struct _lv_obj_t * obj, uint32
 356:Drivers/lvgl/src/extra/widgets/span/../../../../src/core/lv_obj_style_gen.h **** {
 357:Drivers/lvgl/src/extra/widgets/span/../../../../src/core/lv_obj_style_gen.h ****     lv_style_value_t v = _lv_obj_style_apply_color_filter(obj, part, lv_obj_get_style_prop(obj, par
 358:Drivers/lvgl/src/extra/widgets/span/../../../../src/core/lv_obj_style_gen.h ****     return v.color;
 359:Drivers/lvgl/src/extra/widgets/span/../../../../src/core/lv_obj_style_gen.h **** }
 360:Drivers/lvgl/src/extra/widgets/span/../../../../src/core/lv_obj_style_gen.h **** 
 361:Drivers/lvgl/src/extra/widgets/span/../../../../src/core/lv_obj_style_gen.h **** static inline lv_opa_t lv_obj_get_style_img_recolor_opa(const struct _lv_obj_t * obj, uint32_t part
 362:Drivers/lvgl/src/extra/widgets/span/../../../../src/core/lv_obj_style_gen.h **** {
 363:Drivers/lvgl/src/extra/widgets/span/../../../../src/core/lv_obj_style_gen.h ****     lv_style_value_t v = lv_obj_get_style_prop(obj, part, LV_STYLE_IMG_RECOLOR_OPA);
 364:Drivers/lvgl/src/extra/widgets/span/../../../../src/core/lv_obj_style_gen.h ****     return (lv_opa_t)v.num;
 365:Drivers/lvgl/src/extra/widgets/span/../../../../src/core/lv_obj_style_gen.h **** }
 366:Drivers/lvgl/src/extra/widgets/span/../../../../src/core/lv_obj_style_gen.h **** 
 367:Drivers/lvgl/src/extra/widgets/span/../../../../src/core/lv_obj_style_gen.h **** static inline lv_coord_t lv_obj_get_style_line_width(const struct _lv_obj_t * obj, uint32_t part)
 368:Drivers/lvgl/src/extra/widgets/span/../../../../src/core/lv_obj_style_gen.h **** {
 369:Drivers/lvgl/src/extra/widgets/span/../../../../src/core/lv_obj_style_gen.h ****     lv_style_value_t v = lv_obj_get_style_prop(obj, part, LV_STYLE_LINE_WIDTH);
 370:Drivers/lvgl/src/extra/widgets/span/../../../../src/core/lv_obj_style_gen.h ****     return (lv_coord_t)v.num;
 371:Drivers/lvgl/src/extra/widgets/span/../../../../src/core/lv_obj_style_gen.h **** }
 372:Drivers/lvgl/src/extra/widgets/span/../../../../src/core/lv_obj_style_gen.h **** 
 373:Drivers/lvgl/src/extra/widgets/span/../../../../src/core/lv_obj_style_gen.h **** static inline lv_coord_t lv_obj_get_style_line_dash_width(const struct _lv_obj_t * obj, uint32_t pa
 374:Drivers/lvgl/src/extra/widgets/span/../../../../src/core/lv_obj_style_gen.h **** {
 375:Drivers/lvgl/src/extra/widgets/span/../../../../src/core/lv_obj_style_gen.h ****     lv_style_value_t v = lv_obj_get_style_prop(obj, part, LV_STYLE_LINE_DASH_WIDTH);
 376:Drivers/lvgl/src/extra/widgets/span/../../../../src/core/lv_obj_style_gen.h ****     return (lv_coord_t)v.num;
 377:Drivers/lvgl/src/extra/widgets/span/../../../../src/core/lv_obj_style_gen.h **** }
 378:Drivers/lvgl/src/extra/widgets/span/../../../../src/core/lv_obj_style_gen.h **** 
 379:Drivers/lvgl/src/extra/widgets/span/../../../../src/core/lv_obj_style_gen.h **** static inline lv_coord_t lv_obj_get_style_line_dash_gap(const struct _lv_obj_t * obj, uint32_t part
 380:Drivers/lvgl/src/extra/widgets/span/../../../../src/core/lv_obj_style_gen.h **** {
 381:Drivers/lvgl/src/extra/widgets/span/../../../../src/core/lv_obj_style_gen.h ****     lv_style_value_t v = lv_obj_get_style_prop(obj, part, LV_STYLE_LINE_DASH_GAP);
ARM GAS  /var/folders/lp/x54gwt890xv47sdkqj1k04q40000gn/T//cckjqg7q.s 			page 50


 382:Drivers/lvgl/src/extra/widgets/span/../../../../src/core/lv_obj_style_gen.h ****     return (lv_coord_t)v.num;
 383:Drivers/lvgl/src/extra/widgets/span/../../../../src/core/lv_obj_style_gen.h **** }
 384:Drivers/lvgl/src/extra/widgets/span/../../../../src/core/lv_obj_style_gen.h **** 
 385:Drivers/lvgl/src/extra/widgets/span/../../../../src/core/lv_obj_style_gen.h **** static inline bool lv_obj_get_style_line_rounded(const struct _lv_obj_t * obj, uint32_t part)
 386:Drivers/lvgl/src/extra/widgets/span/../../../../src/core/lv_obj_style_gen.h **** {
 387:Drivers/lvgl/src/extra/widgets/span/../../../../src/core/lv_obj_style_gen.h ****     lv_style_value_t v = lv_obj_get_style_prop(obj, part, LV_STYLE_LINE_ROUNDED);
 388:Drivers/lvgl/src/extra/widgets/span/../../../../src/core/lv_obj_style_gen.h ****     return (bool)v.num;
 389:Drivers/lvgl/src/extra/widgets/span/../../../../src/core/lv_obj_style_gen.h **** }
 390:Drivers/lvgl/src/extra/widgets/span/../../../../src/core/lv_obj_style_gen.h **** 
 391:Drivers/lvgl/src/extra/widgets/span/../../../../src/core/lv_obj_style_gen.h **** static inline lv_color_t lv_obj_get_style_line_color(const struct _lv_obj_t * obj, uint32_t part)
 392:Drivers/lvgl/src/extra/widgets/span/../../../../src/core/lv_obj_style_gen.h **** {
 393:Drivers/lvgl/src/extra/widgets/span/../../../../src/core/lv_obj_style_gen.h ****     lv_style_value_t v = lv_obj_get_style_prop(obj, part, LV_STYLE_LINE_COLOR);
 394:Drivers/lvgl/src/extra/widgets/span/../../../../src/core/lv_obj_style_gen.h ****     return v.color;
 395:Drivers/lvgl/src/extra/widgets/span/../../../../src/core/lv_obj_style_gen.h **** }
 396:Drivers/lvgl/src/extra/widgets/span/../../../../src/core/lv_obj_style_gen.h **** 
 397:Drivers/lvgl/src/extra/widgets/span/../../../../src/core/lv_obj_style_gen.h **** static inline lv_color_t lv_obj_get_style_line_color_filtered(const struct _lv_obj_t * obj, uint32_
 398:Drivers/lvgl/src/extra/widgets/span/../../../../src/core/lv_obj_style_gen.h **** {
 399:Drivers/lvgl/src/extra/widgets/span/../../../../src/core/lv_obj_style_gen.h ****     lv_style_value_t v = _lv_obj_style_apply_color_filter(obj, part, lv_obj_get_style_prop(obj, par
 400:Drivers/lvgl/src/extra/widgets/span/../../../../src/core/lv_obj_style_gen.h ****     return v.color;
 401:Drivers/lvgl/src/extra/widgets/span/../../../../src/core/lv_obj_style_gen.h **** }
 402:Drivers/lvgl/src/extra/widgets/span/../../../../src/core/lv_obj_style_gen.h **** 
 403:Drivers/lvgl/src/extra/widgets/span/../../../../src/core/lv_obj_style_gen.h **** static inline lv_opa_t lv_obj_get_style_line_opa(const struct _lv_obj_t * obj, uint32_t part)
 404:Drivers/lvgl/src/extra/widgets/span/../../../../src/core/lv_obj_style_gen.h **** {
 405:Drivers/lvgl/src/extra/widgets/span/../../../../src/core/lv_obj_style_gen.h ****     lv_style_value_t v = lv_obj_get_style_prop(obj, part, LV_STYLE_LINE_OPA);
 406:Drivers/lvgl/src/extra/widgets/span/../../../../src/core/lv_obj_style_gen.h ****     return (lv_opa_t)v.num;
 407:Drivers/lvgl/src/extra/widgets/span/../../../../src/core/lv_obj_style_gen.h **** }
 408:Drivers/lvgl/src/extra/widgets/span/../../../../src/core/lv_obj_style_gen.h **** 
 409:Drivers/lvgl/src/extra/widgets/span/../../../../src/core/lv_obj_style_gen.h **** static inline lv_coord_t lv_obj_get_style_arc_width(const struct _lv_obj_t * obj, uint32_t part)
 410:Drivers/lvgl/src/extra/widgets/span/../../../../src/core/lv_obj_style_gen.h **** {
 411:Drivers/lvgl/src/extra/widgets/span/../../../../src/core/lv_obj_style_gen.h ****     lv_style_value_t v = lv_obj_get_style_prop(obj, part, LV_STYLE_ARC_WIDTH);
 412:Drivers/lvgl/src/extra/widgets/span/../../../../src/core/lv_obj_style_gen.h ****     return (lv_coord_t)v.num;
 413:Drivers/lvgl/src/extra/widgets/span/../../../../src/core/lv_obj_style_gen.h **** }
 414:Drivers/lvgl/src/extra/widgets/span/../../../../src/core/lv_obj_style_gen.h **** 
 415:Drivers/lvgl/src/extra/widgets/span/../../../../src/core/lv_obj_style_gen.h **** static inline bool lv_obj_get_style_arc_rounded(const struct _lv_obj_t * obj, uint32_t part)
 416:Drivers/lvgl/src/extra/widgets/span/../../../../src/core/lv_obj_style_gen.h **** {
 417:Drivers/lvgl/src/extra/widgets/span/../../../../src/core/lv_obj_style_gen.h ****     lv_style_value_t v = lv_obj_get_style_prop(obj, part, LV_STYLE_ARC_ROUNDED);
 418:Drivers/lvgl/src/extra/widgets/span/../../../../src/core/lv_obj_style_gen.h ****     return (bool)v.num;
 419:Drivers/lvgl/src/extra/widgets/span/../../../../src/core/lv_obj_style_gen.h **** }
 420:Drivers/lvgl/src/extra/widgets/span/../../../../src/core/lv_obj_style_gen.h **** 
 421:Drivers/lvgl/src/extra/widgets/span/../../../../src/core/lv_obj_style_gen.h **** static inline lv_color_t lv_obj_get_style_arc_color(const struct _lv_obj_t * obj, uint32_t part)
 422:Drivers/lvgl/src/extra/widgets/span/../../../../src/core/lv_obj_style_gen.h **** {
 423:Drivers/lvgl/src/extra/widgets/span/../../../../src/core/lv_obj_style_gen.h ****     lv_style_value_t v = lv_obj_get_style_prop(obj, part, LV_STYLE_ARC_COLOR);
 424:Drivers/lvgl/src/extra/widgets/span/../../../../src/core/lv_obj_style_gen.h ****     return v.color;
 425:Drivers/lvgl/src/extra/widgets/span/../../../../src/core/lv_obj_style_gen.h **** }
 426:Drivers/lvgl/src/extra/widgets/span/../../../../src/core/lv_obj_style_gen.h **** 
 427:Drivers/lvgl/src/extra/widgets/span/../../../../src/core/lv_obj_style_gen.h **** static inline lv_color_t lv_obj_get_style_arc_color_filtered(const struct _lv_obj_t * obj, uint32_t
 428:Drivers/lvgl/src/extra/widgets/span/../../../../src/core/lv_obj_style_gen.h **** {
 429:Drivers/lvgl/src/extra/widgets/span/../../../../src/core/lv_obj_style_gen.h ****     lv_style_value_t v = _lv_obj_style_apply_color_filter(obj, part, lv_obj_get_style_prop(obj, par
 430:Drivers/lvgl/src/extra/widgets/span/../../../../src/core/lv_obj_style_gen.h ****     return v.color;
 431:Drivers/lvgl/src/extra/widgets/span/../../../../src/core/lv_obj_style_gen.h **** }
 432:Drivers/lvgl/src/extra/widgets/span/../../../../src/core/lv_obj_style_gen.h **** 
 433:Drivers/lvgl/src/extra/widgets/span/../../../../src/core/lv_obj_style_gen.h **** static inline lv_opa_t lv_obj_get_style_arc_opa(const struct _lv_obj_t * obj, uint32_t part)
 434:Drivers/lvgl/src/extra/widgets/span/../../../../src/core/lv_obj_style_gen.h **** {
 435:Drivers/lvgl/src/extra/widgets/span/../../../../src/core/lv_obj_style_gen.h ****     lv_style_value_t v = lv_obj_get_style_prop(obj, part, LV_STYLE_ARC_OPA);
 436:Drivers/lvgl/src/extra/widgets/span/../../../../src/core/lv_obj_style_gen.h ****     return (lv_opa_t)v.num;
 437:Drivers/lvgl/src/extra/widgets/span/../../../../src/core/lv_obj_style_gen.h **** }
 438:Drivers/lvgl/src/extra/widgets/span/../../../../src/core/lv_obj_style_gen.h **** 
ARM GAS  /var/folders/lp/x54gwt890xv47sdkqj1k04q40000gn/T//cckjqg7q.s 			page 51


 439:Drivers/lvgl/src/extra/widgets/span/../../../../src/core/lv_obj_style_gen.h **** static inline const void * lv_obj_get_style_arc_img_src(const struct _lv_obj_t * obj, uint32_t part
 440:Drivers/lvgl/src/extra/widgets/span/../../../../src/core/lv_obj_style_gen.h **** {
 441:Drivers/lvgl/src/extra/widgets/span/../../../../src/core/lv_obj_style_gen.h ****     lv_style_value_t v = lv_obj_get_style_prop(obj, part, LV_STYLE_ARC_IMG_SRC);
 442:Drivers/lvgl/src/extra/widgets/span/../../../../src/core/lv_obj_style_gen.h ****     return (const void *)v.ptr;
 443:Drivers/lvgl/src/extra/widgets/span/../../../../src/core/lv_obj_style_gen.h **** }
 444:Drivers/lvgl/src/extra/widgets/span/../../../../src/core/lv_obj_style_gen.h **** 
 445:Drivers/lvgl/src/extra/widgets/span/../../../../src/core/lv_obj_style_gen.h **** static inline lv_color_t lv_obj_get_style_text_color(const struct _lv_obj_t * obj, uint32_t part)
 446:Drivers/lvgl/src/extra/widgets/span/../../../../src/core/lv_obj_style_gen.h **** {
 447:Drivers/lvgl/src/extra/widgets/span/../../../../src/core/lv_obj_style_gen.h ****     lv_style_value_t v = lv_obj_get_style_prop(obj, part, LV_STYLE_TEXT_COLOR);
 448:Drivers/lvgl/src/extra/widgets/span/../../../../src/core/lv_obj_style_gen.h ****     return v.color;
 449:Drivers/lvgl/src/extra/widgets/span/../../../../src/core/lv_obj_style_gen.h **** }
 450:Drivers/lvgl/src/extra/widgets/span/../../../../src/core/lv_obj_style_gen.h **** 
 451:Drivers/lvgl/src/extra/widgets/span/../../../../src/core/lv_obj_style_gen.h **** static inline lv_color_t lv_obj_get_style_text_color_filtered(const struct _lv_obj_t * obj, uint32_
 452:Drivers/lvgl/src/extra/widgets/span/../../../../src/core/lv_obj_style_gen.h **** {
 453:Drivers/lvgl/src/extra/widgets/span/../../../../src/core/lv_obj_style_gen.h ****     lv_style_value_t v = _lv_obj_style_apply_color_filter(obj, part, lv_obj_get_style_prop(obj, par
 454:Drivers/lvgl/src/extra/widgets/span/../../../../src/core/lv_obj_style_gen.h ****     return v.color;
 455:Drivers/lvgl/src/extra/widgets/span/../../../../src/core/lv_obj_style_gen.h **** }
 456:Drivers/lvgl/src/extra/widgets/span/../../../../src/core/lv_obj_style_gen.h **** 
 457:Drivers/lvgl/src/extra/widgets/span/../../../../src/core/lv_obj_style_gen.h **** static inline lv_opa_t lv_obj_get_style_text_opa(const struct _lv_obj_t * obj, uint32_t part)
 458:Drivers/lvgl/src/extra/widgets/span/../../../../src/core/lv_obj_style_gen.h **** {
 459:Drivers/lvgl/src/extra/widgets/span/../../../../src/core/lv_obj_style_gen.h ****     lv_style_value_t v = lv_obj_get_style_prop(obj, part, LV_STYLE_TEXT_OPA);
 460:Drivers/lvgl/src/extra/widgets/span/../../../../src/core/lv_obj_style_gen.h ****     return (lv_opa_t)v.num;
 461:Drivers/lvgl/src/extra/widgets/span/../../../../src/core/lv_obj_style_gen.h **** }
 462:Drivers/lvgl/src/extra/widgets/span/../../../../src/core/lv_obj_style_gen.h **** 
 463:Drivers/lvgl/src/extra/widgets/span/../../../../src/core/lv_obj_style_gen.h **** static inline const lv_font_t * lv_obj_get_style_text_font(const struct _lv_obj_t * obj, uint32_t p
 464:Drivers/lvgl/src/extra/widgets/span/../../../../src/core/lv_obj_style_gen.h **** {
 465:Drivers/lvgl/src/extra/widgets/span/../../../../src/core/lv_obj_style_gen.h ****     lv_style_value_t v = lv_obj_get_style_prop(obj, part, LV_STYLE_TEXT_FONT);
 466:Drivers/lvgl/src/extra/widgets/span/../../../../src/core/lv_obj_style_gen.h ****     return (const lv_font_t *)v.ptr;
 467:Drivers/lvgl/src/extra/widgets/span/../../../../src/core/lv_obj_style_gen.h **** }
 468:Drivers/lvgl/src/extra/widgets/span/../../../../src/core/lv_obj_style_gen.h **** 
 469:Drivers/lvgl/src/extra/widgets/span/../../../../src/core/lv_obj_style_gen.h **** static inline lv_coord_t lv_obj_get_style_text_letter_space(const struct _lv_obj_t * obj, uint32_t 
 470:Drivers/lvgl/src/extra/widgets/span/../../../../src/core/lv_obj_style_gen.h **** {
 471:Drivers/lvgl/src/extra/widgets/span/../../../../src/core/lv_obj_style_gen.h ****     lv_style_value_t v = lv_obj_get_style_prop(obj, part, LV_STYLE_TEXT_LETTER_SPACE);
 472:Drivers/lvgl/src/extra/widgets/span/../../../../src/core/lv_obj_style_gen.h ****     return (lv_coord_t)v.num;
 473:Drivers/lvgl/src/extra/widgets/span/../../../../src/core/lv_obj_style_gen.h **** }
 474:Drivers/lvgl/src/extra/widgets/span/../../../../src/core/lv_obj_style_gen.h **** 
 475:Drivers/lvgl/src/extra/widgets/span/../../../../src/core/lv_obj_style_gen.h **** static inline lv_coord_t lv_obj_get_style_text_line_space(const struct _lv_obj_t * obj, uint32_t pa
 476:Drivers/lvgl/src/extra/widgets/span/../../../../src/core/lv_obj_style_gen.h **** {
 477:Drivers/lvgl/src/extra/widgets/span/../../../../src/core/lv_obj_style_gen.h ****     lv_style_value_t v = lv_obj_get_style_prop(obj, part, LV_STYLE_TEXT_LINE_SPACE);
 478:Drivers/lvgl/src/extra/widgets/span/../../../../src/core/lv_obj_style_gen.h ****     return (lv_coord_t)v.num;
 479:Drivers/lvgl/src/extra/widgets/span/../../../../src/core/lv_obj_style_gen.h **** }
 480:Drivers/lvgl/src/extra/widgets/span/../../../../src/core/lv_obj_style_gen.h **** 
 481:Drivers/lvgl/src/extra/widgets/span/../../../../src/core/lv_obj_style_gen.h **** static inline lv_text_decor_t lv_obj_get_style_text_decor(const struct _lv_obj_t * obj, uint32_t pa
 482:Drivers/lvgl/src/extra/widgets/span/../../../../src/core/lv_obj_style_gen.h **** {
 483:Drivers/lvgl/src/extra/widgets/span/../../../../src/core/lv_obj_style_gen.h ****     lv_style_value_t v = lv_obj_get_style_prop(obj, part, LV_STYLE_TEXT_DECOR);
 484:Drivers/lvgl/src/extra/widgets/span/../../../../src/core/lv_obj_style_gen.h ****     return (lv_text_decor_t)v.num;
 485:Drivers/lvgl/src/extra/widgets/span/../../../../src/core/lv_obj_style_gen.h **** }
 486:Drivers/lvgl/src/extra/widgets/span/../../../../src/core/lv_obj_style_gen.h **** 
 487:Drivers/lvgl/src/extra/widgets/span/../../../../src/core/lv_obj_style_gen.h **** static inline lv_text_align_t lv_obj_get_style_text_align(const struct _lv_obj_t * obj, uint32_t pa
 1107              		.loc 2 487 31 view .LVU327
 1108              	.LBB139:
 488:Drivers/lvgl/src/extra/widgets/span/../../../../src/core/lv_obj_style_gen.h **** {
 489:Drivers/lvgl/src/extra/widgets/span/../../../../src/core/lv_obj_style_gen.h ****     lv_style_value_t v = lv_obj_get_style_prop(obj, part, LV_STYLE_TEXT_ALIGN);
 1109              		.loc 2 489 5 view .LVU328
 1110              	.LBE139:
 1111              	.LBE138:
 275:Drivers/lvgl/src/extra/widgets/span/lv_span.c ****     return lv_obj_get_style_text_align(obj, LV_PART_MAIN);
ARM GAS  /var/folders/lp/x54gwt890xv47sdkqj1k04q40000gn/T//cckjqg7q.s 			page 52


 1112              		.loc 1 275 1 is_stmt 0 view .LVU329
 1113 0000 08B5     		push	{r3, lr}
 1114              		.cfi_def_cfa_offset 8
 1115              		.cfi_offset 3, -8
 1116              		.cfi_offset 14, -4
 1117              	.LBB141:
 1118              	.LBB140:
 1119              		.loc 2 489 26 view .LVU330
 1120 0002 5B22     		movs	r2, #91
 1121 0004 0021     		movs	r1, #0
 1122 0006 FFF7FEFF 		bl	lv_obj_get_style_prop
 1123              	.LVL106:
 490:Drivers/lvgl/src/extra/widgets/span/../../../../src/core/lv_obj_style_gen.h ****     return (lv_text_align_t)v.num;
 1124              		.loc 2 490 5 is_stmt 1 view .LVU331
 1125              		.loc 2 490 5 is_stmt 0 view .LVU332
 1126              	.LBE140:
 1127              	.LBE141:
 277:Drivers/lvgl/src/extra/widgets/span/lv_span.c **** 
 1128              		.loc 1 277 1 view .LVU333
 1129 000a C0B2     		uxtb	r0, r0
 1130 000c 08BD     		pop	{r3, pc}
 1131              		.cfi_endproc
 1132              	.LFE216:
 1134 000e 00BF     		.section	.text.lv_spangroup_get_overflow,"ax",%progbits
 1135              		.align	1
 1136              		.p2align 2,,3
 1137              		.global	lv_spangroup_get_overflow
 1138              		.syntax unified
 1139              		.thumb
 1140              		.thumb_func
 1142              	lv_spangroup_get_overflow:
 1143              	.LVL107:
 1144              	.LFB217:
 280:Drivers/lvgl/src/extra/widgets/span/lv_span.c ****     LV_ASSERT_OBJ(obj, MY_CLASS);
 1145              		.loc 1 280 1 is_stmt 1 view -0
 1146              		.cfi_startproc
 1147              		@ args = 0, pretend = 0, frame = 0
 1148              		@ frame_needed = 0, uses_anonymous_args = 0
 1149              		@ link register save eliminated.
 281:Drivers/lvgl/src/extra/widgets/span/lv_span.c ****     lv_spangroup_t * spans = (lv_spangroup_t *)obj;
 1150              		.loc 1 281 5 view .LVU335
 281:Drivers/lvgl/src/extra/widgets/span/lv_span.c ****     lv_spangroup_t * spans = (lv_spangroup_t *)obj;
 1151              		.loc 1 281 5 view .LVU336
 281:Drivers/lvgl/src/extra/widgets/span/lv_span.c ****     lv_spangroup_t * spans = (lv_spangroup_t *)obj;
 1152              		.loc 1 281 5 view .LVU337
 282:Drivers/lvgl/src/extra/widgets/span/lv_span.c ****     return spans->overflow;
 1153              		.loc 1 282 5 view .LVU338
 283:Drivers/lvgl/src/extra/widgets/span/lv_span.c **** }
 1154              		.loc 1 283 5 view .LVU339
 283:Drivers/lvgl/src/extra/widgets/span/lv_span.c **** }
 1155              		.loc 1 283 17 is_stmt 0 view .LVU340
 1156 0000 90F83C00 		ldrb	r0, [r0, #60]	@ zero_extendqisi2
 1157              	.LVL108:
 284:Drivers/lvgl/src/extra/widgets/span/lv_span.c **** 
 1158              		.loc 1 284 1 view .LVU341
 1159 0004 C0F38000 		ubfx	r0, r0, #2, #1
 1160 0008 7047     		bx	lr
ARM GAS  /var/folders/lp/x54gwt890xv47sdkqj1k04q40000gn/T//cckjqg7q.s 			page 53


 1161              		.cfi_endproc
 1162              	.LFE217:
 1164 000a 00BF     		.section	.text.lv_spangroup_get_indent,"ax",%progbits
 1165              		.align	1
 1166              		.p2align 2,,3
 1167              		.global	lv_spangroup_get_indent
 1168              		.syntax unified
 1169              		.thumb
 1170              		.thumb_func
 1172              	lv_spangroup_get_indent:
 1173              	.LVL109:
 1174              	.LFB218:
 287:Drivers/lvgl/src/extra/widgets/span/lv_span.c ****     LV_ASSERT_OBJ(obj, MY_CLASS);
 1175              		.loc 1 287 1 is_stmt 1 view -0
 1176              		.cfi_startproc
 1177              		@ args = 0, pretend = 0, frame = 0
 1178              		@ frame_needed = 0, uses_anonymous_args = 0
 1179              		@ link register save eliminated.
 288:Drivers/lvgl/src/extra/widgets/span/lv_span.c ****     lv_spangroup_t * spans = (lv_spangroup_t *)obj;
 1180              		.loc 1 288 5 view .LVU343
 288:Drivers/lvgl/src/extra/widgets/span/lv_span.c ****     lv_spangroup_t * spans = (lv_spangroup_t *)obj;
 1181              		.loc 1 288 5 view .LVU344
 288:Drivers/lvgl/src/extra/widgets/span/lv_span.c ****     lv_spangroup_t * spans = (lv_spangroup_t *)obj;
 1182              		.loc 1 288 5 view .LVU345
 289:Drivers/lvgl/src/extra/widgets/span/lv_span.c ****     return spans->indent;
 1183              		.loc 1 289 5 view .LVU346
 290:Drivers/lvgl/src/extra/widgets/span/lv_span.c **** }
 1184              		.loc 1 290 5 view .LVU347
 291:Drivers/lvgl/src/extra/widgets/span/lv_span.c **** 
 1185              		.loc 1 291 1 is_stmt 0 view .LVU348
 1186 0000 B0F92800 		ldrsh	r0, [r0, #40]
 1187              	.LVL110:
 291:Drivers/lvgl/src/extra/widgets/span/lv_span.c **** 
 1188              		.loc 1 291 1 view .LVU349
 1189 0004 7047     		bx	lr
 1190              		.cfi_endproc
 1191              	.LFE218:
 1193 0006 00BF     		.section	.text.lv_spangroup_get_mode,"ax",%progbits
 1194              		.align	1
 1195              		.p2align 2,,3
 1196              		.global	lv_spangroup_get_mode
 1197              		.syntax unified
 1198              		.thumb
 1199              		.thumb_func
 1201              	lv_spangroup_get_mode:
 1202              	.LVL111:
 1203              	.LFB219:
 294:Drivers/lvgl/src/extra/widgets/span/lv_span.c ****     LV_ASSERT_OBJ(obj, MY_CLASS);
 1204              		.loc 1 294 1 is_stmt 1 view -0
 1205              		.cfi_startproc
 1206              		@ args = 0, pretend = 0, frame = 0
 1207              		@ frame_needed = 0, uses_anonymous_args = 0
 1208              		@ link register save eliminated.
 295:Drivers/lvgl/src/extra/widgets/span/lv_span.c ****     lv_spangroup_t * spans = (lv_spangroup_t *)obj;
 1209              		.loc 1 295 5 view .LVU351
 295:Drivers/lvgl/src/extra/widgets/span/lv_span.c ****     lv_spangroup_t * spans = (lv_spangroup_t *)obj;
 1210              		.loc 1 295 5 view .LVU352
ARM GAS  /var/folders/lp/x54gwt890xv47sdkqj1k04q40000gn/T//cckjqg7q.s 			page 54


 295:Drivers/lvgl/src/extra/widgets/span/lv_span.c ****     lv_spangroup_t * spans = (lv_spangroup_t *)obj;
 1211              		.loc 1 295 5 view .LVU353
 296:Drivers/lvgl/src/extra/widgets/span/lv_span.c ****     return spans->mode;
 1212              		.loc 1 296 5 view .LVU354
 297:Drivers/lvgl/src/extra/widgets/span/lv_span.c **** }
 1213              		.loc 1 297 5 view .LVU355
 297:Drivers/lvgl/src/extra/widgets/span/lv_span.c **** }
 1214              		.loc 1 297 17 is_stmt 0 view .LVU356
 1215 0000 90F83C00 		ldrb	r0, [r0, #60]	@ zero_extendqisi2
 1216              	.LVL112:
 298:Drivers/lvgl/src/extra/widgets/span/lv_span.c **** 
 1217              		.loc 1 298 1 view .LVU357
 1218 0004 00F00300 		and	r0, r0, #3
 1219 0008 7047     		bx	lr
 1220              		.cfi_endproc
 1221              	.LFE219:
 1223 000a 00BF     		.section	.text.lv_spangroup_get_lines,"ax",%progbits
 1224              		.align	1
 1225              		.p2align 2,,3
 1226              		.global	lv_spangroup_get_lines
 1227              		.syntax unified
 1228              		.thumb
 1229              		.thumb_func
 1231              	lv_spangroup_get_lines:
 1232              	.LVL113:
 1233              	.LFB220:
 301:Drivers/lvgl/src/extra/widgets/span/lv_span.c ****     LV_ASSERT_OBJ(obj, MY_CLASS);
 1234              		.loc 1 301 1 is_stmt 1 view -0
 1235              		.cfi_startproc
 1236              		@ args = 0, pretend = 0, frame = 0
 1237              		@ frame_needed = 0, uses_anonymous_args = 0
 1238              		@ link register save eliminated.
 302:Drivers/lvgl/src/extra/widgets/span/lv_span.c ****     lv_spangroup_t * spans = (lv_spangroup_t *)obj;
 1239              		.loc 1 302 5 view .LVU359
 302:Drivers/lvgl/src/extra/widgets/span/lv_span.c ****     lv_spangroup_t * spans = (lv_spangroup_t *)obj;
 1240              		.loc 1 302 5 view .LVU360
 302:Drivers/lvgl/src/extra/widgets/span/lv_span.c ****     lv_spangroup_t * spans = (lv_spangroup_t *)obj;
 1241              		.loc 1 302 5 view .LVU361
 303:Drivers/lvgl/src/extra/widgets/span/lv_span.c ****     return spans->lines;
 1242              		.loc 1 303 5 view .LVU362
 304:Drivers/lvgl/src/extra/widgets/span/lv_span.c **** }
 1243              		.loc 1 304 5 view .LVU363
 305:Drivers/lvgl/src/extra/widgets/span/lv_span.c **** 
 1244              		.loc 1 305 1 is_stmt 0 view .LVU364
 1245 0000 406A     		ldr	r0, [r0, #36]
 1246              	.LVL114:
 305:Drivers/lvgl/src/extra/widgets/span/lv_span.c **** 
 1247              		.loc 1 305 1 view .LVU365
 1248 0002 7047     		bx	lr
 1249              		.cfi_endproc
 1250              	.LFE220:
 1252              		.section	.text.lv_spangroup_get_max_line_h,"ax",%progbits
 1253              		.align	1
 1254              		.p2align 2,,3
 1255              		.global	lv_spangroup_get_max_line_h
 1256              		.syntax unified
 1257              		.thumb
ARM GAS  /var/folders/lp/x54gwt890xv47sdkqj1k04q40000gn/T//cckjqg7q.s 			page 55


 1258              		.thumb_func
 1260              	lv_spangroup_get_max_line_h:
 1261              	.LVL115:
 1262              	.LFB222:
 342:Drivers/lvgl/src/extra/widgets/span/lv_span.c ****     LV_ASSERT_OBJ(obj, MY_CLASS);
 1263              		.loc 1 342 1 is_stmt 1 view -0
 1264              		.cfi_startproc
 1265              		@ args = 0, pretend = 0, frame = 8
 1266              		@ frame_needed = 0, uses_anonymous_args = 0
 343:Drivers/lvgl/src/extra/widgets/span/lv_span.c ****     lv_spangroup_t * spans = (lv_spangroup_t *)obj;
 1267              		.loc 1 343 5 view .LVU367
 343:Drivers/lvgl/src/extra/widgets/span/lv_span.c ****     lv_spangroup_t * spans = (lv_spangroup_t *)obj;
 1268              		.loc 1 343 5 view .LVU368
 343:Drivers/lvgl/src/extra/widgets/span/lv_span.c ****     lv_spangroup_t * spans = (lv_spangroup_t *)obj;
 1269              		.loc 1 343 5 view .LVU369
 344:Drivers/lvgl/src/extra/widgets/span/lv_span.c **** 
 1270              		.loc 1 344 5 view .LVU370
 342:Drivers/lvgl/src/extra/widgets/span/lv_span.c ****     LV_ASSERT_OBJ(obj, MY_CLASS);
 1271              		.loc 1 342 1 is_stmt 0 view .LVU371
 1272 0000 F0B5     		push	{r4, r5, r6, r7, lr}
 1273              		.cfi_def_cfa_offset 20
 1274              		.cfi_offset 4, -20
 1275              		.cfi_offset 5, -16
 1276              		.cfi_offset 6, -12
 1277              		.cfi_offset 7, -8
 1278              		.cfi_offset 14, -4
 348:Drivers/lvgl/src/extra/widgets/span/lv_span.c ****         const lv_font_t * font = lv_span_get_style_text_font(obj, cur_span);
 1279              		.loc 1 348 5 view .LVU372
 1280 0002 00F13007 		add	r7, r0, #48
 342:Drivers/lvgl/src/extra/widgets/span/lv_span.c ****     LV_ASSERT_OBJ(obj, MY_CLASS);
 1281              		.loc 1 342 1 view .LVU373
 1282 0006 83B0     		sub	sp, sp, #12
 1283              		.cfi_def_cfa_offset 32
 342:Drivers/lvgl/src/extra/widgets/span/lv_span.c ****     LV_ASSERT_OBJ(obj, MY_CLASS);
 1284              		.loc 1 342 1 view .LVU374
 1285 0008 0646     		mov	r6, r0
 1286              	.LVL116:
 346:Drivers/lvgl/src/extra/widgets/span/lv_span.c ****     lv_span_t * cur_span;
 1287              		.loc 1 346 5 is_stmt 1 view .LVU375
 347:Drivers/lvgl/src/extra/widgets/span/lv_span.c ****     _LV_LL_READ(&spans->child_ll, cur_span) {
 1288              		.loc 1 347 5 view .LVU376
 348:Drivers/lvgl/src/extra/widgets/span/lv_span.c ****         const lv_font_t * font = lv_span_get_style_text_font(obj, cur_span);
 1289              		.loc 1 348 5 view .LVU377
 1290 000a 3846     		mov	r0, r7
 1291              	.LVL117:
 348:Drivers/lvgl/src/extra/widgets/span/lv_span.c ****         const lv_font_t * font = lv_span_get_style_text_font(obj, cur_span);
 1292              		.loc 1 348 5 is_stmt 0 view .LVU378
 1293 000c FFF7FEFF 		bl	_lv_ll_get_head
 1294              	.LVL118:
 348:Drivers/lvgl/src/extra/widgets/span/lv_span.c ****         const lv_font_t * font = lv_span_get_style_text_font(obj, cur_span);
 1295              		.loc 1 348 5 is_stmt 1 discriminator 1 view .LVU379
 1296 0010 0446     		mov	r4, r0
 1297 0012 F0B1     		cbz	r0, .L125
 346:Drivers/lvgl/src/extra/widgets/span/lv_span.c ****     lv_span_t * cur_span;
 1298              		.loc 1 346 16 is_stmt 0 view .LVU380
 1299 0014 0025     		movs	r5, #0
 1300 0016 0CE0     		b	.L124
ARM GAS  /var/folders/lp/x54gwt890xv47sdkqj1k04q40000gn/T//cckjqg7q.s 			page 56


 1301              	.LVL119:
 1302              	.L128:
 1303              	.LBB151:
 1304              	.LBB152:
 1305              	.LBB153:
 1306              	.LBB154:
 1307              	.LBB155:
 1308              	.LBB156:
 1309              	.LBB157:
 465:Drivers/lvgl/src/extra/widgets/span/../../../../src/core/lv_obj_style_gen.h ****     return (const lv_font_t *)v.ptr;
 1310              		.loc 2 465 26 view .LVU381
 1311 0018 FFF7FEFF 		bl	lv_obj_get_style_prop
 1312              	.LVL120:
 466:Drivers/lvgl/src/extra/widgets/span/../../../../src/core/lv_obj_style_gen.h **** }
 1313              		.loc 2 466 5 is_stmt 1 view .LVU382
 466:Drivers/lvgl/src/extra/widgets/span/../../../../src/core/lv_obj_style_gen.h **** }
 1314              		.loc 2 466 5 is_stmt 0 view .LVU383
 1315              	.LBE157:
 1316              	.LBE156:
 657:Drivers/lvgl/src/extra/widgets/span/lv_span.c **** }
 1317              		.loc 1 657 5 is_stmt 1 view .LVU384
 1318              	.L123:
 657:Drivers/lvgl/src/extra/widgets/span/lv_span.c **** }
 1319              		.loc 1 657 5 is_stmt 0 view .LVU385
 1320              	.LBE155:
 1321              	.LBE154:
 657:Drivers/lvgl/src/extra/widgets/span/lv_span.c **** }
 1322              		.loc 1 657 5 is_stmt 1 view .LVU386
 657:Drivers/lvgl/src/extra/widgets/span/lv_span.c **** }
 1323              		.loc 1 657 5 is_stmt 0 view .LVU387
 1324              	.LBE153:
 1325              	.LBE152:
 350:Drivers/lvgl/src/extra/widgets/span/lv_span.c ****         if(line_h > max_line_h) {
 1326              		.loc 1 350 9 is_stmt 1 view .LVU388
 1327              	.LBB167:
 1328              	.LBI167:
 1329              		.file 3 "Drivers/lvgl/src/extra/widgets/span/../../../../src/hal/../draw/../misc/../font/lv_font.h
   1:Drivers/lvgl/src/extra/widgets/span/../../../../src/hal/../draw/../misc/../font/lv_font.h **** /**
   2:Drivers/lvgl/src/extra/widgets/span/../../../../src/hal/../draw/../misc/../font/lv_font.h ****  * @file lv_font.h
   3:Drivers/lvgl/src/extra/widgets/span/../../../../src/hal/../draw/../misc/../font/lv_font.h ****  *
   4:Drivers/lvgl/src/extra/widgets/span/../../../../src/hal/../draw/../misc/../font/lv_font.h ****  */
   5:Drivers/lvgl/src/extra/widgets/span/../../../../src/hal/../draw/../misc/../font/lv_font.h **** 
   6:Drivers/lvgl/src/extra/widgets/span/../../../../src/hal/../draw/../misc/../font/lv_font.h **** #ifndef LV_FONT_H
   7:Drivers/lvgl/src/extra/widgets/span/../../../../src/hal/../draw/../misc/../font/lv_font.h **** #define LV_FONT_H
   8:Drivers/lvgl/src/extra/widgets/span/../../../../src/hal/../draw/../misc/../font/lv_font.h **** 
   9:Drivers/lvgl/src/extra/widgets/span/../../../../src/hal/../draw/../misc/../font/lv_font.h **** #ifdef __cplusplus
  10:Drivers/lvgl/src/extra/widgets/span/../../../../src/hal/../draw/../misc/../font/lv_font.h **** extern "C" {
  11:Drivers/lvgl/src/extra/widgets/span/../../../../src/hal/../draw/../misc/../font/lv_font.h **** #endif
  12:Drivers/lvgl/src/extra/widgets/span/../../../../src/hal/../draw/../misc/../font/lv_font.h **** 
  13:Drivers/lvgl/src/extra/widgets/span/../../../../src/hal/../draw/../misc/../font/lv_font.h **** /*********************
  14:Drivers/lvgl/src/extra/widgets/span/../../../../src/hal/../draw/../misc/../font/lv_font.h ****  *      INCLUDES
  15:Drivers/lvgl/src/extra/widgets/span/../../../../src/hal/../draw/../misc/../font/lv_font.h ****  *********************/
  16:Drivers/lvgl/src/extra/widgets/span/../../../../src/hal/../draw/../misc/../font/lv_font.h **** #include "../lv_conf_internal.h"
  17:Drivers/lvgl/src/extra/widgets/span/../../../../src/hal/../draw/../misc/../font/lv_font.h **** #include <stdint.h>
  18:Drivers/lvgl/src/extra/widgets/span/../../../../src/hal/../draw/../misc/../font/lv_font.h **** #include <stddef.h>
  19:Drivers/lvgl/src/extra/widgets/span/../../../../src/hal/../draw/../misc/../font/lv_font.h **** #include <stdbool.h>
  20:Drivers/lvgl/src/extra/widgets/span/../../../../src/hal/../draw/../misc/../font/lv_font.h **** 
ARM GAS  /var/folders/lp/x54gwt890xv47sdkqj1k04q40000gn/T//cckjqg7q.s 			page 57


  21:Drivers/lvgl/src/extra/widgets/span/../../../../src/hal/../draw/../misc/../font/lv_font.h **** #include "lv_symbol_def.h"
  22:Drivers/lvgl/src/extra/widgets/span/../../../../src/hal/../draw/../misc/../font/lv_font.h **** #include "../misc/lv_area.h"
  23:Drivers/lvgl/src/extra/widgets/span/../../../../src/hal/../draw/../misc/../font/lv_font.h **** 
  24:Drivers/lvgl/src/extra/widgets/span/../../../../src/hal/../draw/../misc/../font/lv_font.h **** /*********************
  25:Drivers/lvgl/src/extra/widgets/span/../../../../src/hal/../draw/../misc/../font/lv_font.h ****  *      DEFINES
  26:Drivers/lvgl/src/extra/widgets/span/../../../../src/hal/../draw/../misc/../font/lv_font.h ****  *********************/
  27:Drivers/lvgl/src/extra/widgets/span/../../../../src/hal/../draw/../misc/../font/lv_font.h **** 
  28:Drivers/lvgl/src/extra/widgets/span/../../../../src/hal/../draw/../misc/../font/lv_font.h **** /* imgfont identifier */
  29:Drivers/lvgl/src/extra/widgets/span/../../../../src/hal/../draw/../misc/../font/lv_font.h **** #define LV_IMGFONT_BPP 9
  30:Drivers/lvgl/src/extra/widgets/span/../../../../src/hal/../draw/../misc/../font/lv_font.h **** 
  31:Drivers/lvgl/src/extra/widgets/span/../../../../src/hal/../draw/../misc/../font/lv_font.h **** /**********************
  32:Drivers/lvgl/src/extra/widgets/span/../../../../src/hal/../draw/../misc/../font/lv_font.h ****  *      TYPEDEFS
  33:Drivers/lvgl/src/extra/widgets/span/../../../../src/hal/../draw/../misc/../font/lv_font.h ****  **********************/
  34:Drivers/lvgl/src/extra/widgets/span/../../../../src/hal/../draw/../misc/../font/lv_font.h **** 
  35:Drivers/lvgl/src/extra/widgets/span/../../../../src/hal/../draw/../misc/../font/lv_font.h **** /*------------------
  36:Drivers/lvgl/src/extra/widgets/span/../../../../src/hal/../draw/../misc/../font/lv_font.h ****  * General types
  37:Drivers/lvgl/src/extra/widgets/span/../../../../src/hal/../draw/../misc/../font/lv_font.h ****  *-----------------*/
  38:Drivers/lvgl/src/extra/widgets/span/../../../../src/hal/../draw/../misc/../font/lv_font.h **** 
  39:Drivers/lvgl/src/extra/widgets/span/../../../../src/hal/../draw/../misc/../font/lv_font.h **** struct _lv_font_t;
  40:Drivers/lvgl/src/extra/widgets/span/../../../../src/hal/../draw/../misc/../font/lv_font.h **** /** Describes the properties of a glyph.*/
  41:Drivers/lvgl/src/extra/widgets/span/../../../../src/hal/../draw/../misc/../font/lv_font.h **** typedef struct {
  42:Drivers/lvgl/src/extra/widgets/span/../../../../src/hal/../draw/../misc/../font/lv_font.h ****     const struct _lv_font_t *
  43:Drivers/lvgl/src/extra/widgets/span/../../../../src/hal/../draw/../misc/../font/lv_font.h ****         resolved_font; /**< Pointer to a font where the glyph was actually found after handling fal
  44:Drivers/lvgl/src/extra/widgets/span/../../../../src/hal/../draw/../misc/../font/lv_font.h ****     uint16_t adv_w; /**< The glyph needs this space. Draw the next glyph after this width.*/
  45:Drivers/lvgl/src/extra/widgets/span/../../../../src/hal/../draw/../misc/../font/lv_font.h ****     uint16_t box_w; /**< Width of the glyph's bounding box*/
  46:Drivers/lvgl/src/extra/widgets/span/../../../../src/hal/../draw/../misc/../font/lv_font.h ****     uint16_t box_h; /**< Height of the glyph's bounding box*/
  47:Drivers/lvgl/src/extra/widgets/span/../../../../src/hal/../draw/../misc/../font/lv_font.h ****     int16_t ofs_x;  /**< x offset of the bounding box*/
  48:Drivers/lvgl/src/extra/widgets/span/../../../../src/hal/../draw/../misc/../font/lv_font.h ****     int16_t ofs_y;  /**< y offset of the bounding box*/
  49:Drivers/lvgl/src/extra/widgets/span/../../../../src/hal/../draw/../misc/../font/lv_font.h ****     uint8_t bpp: 4;  /**< Bit-per-pixel: 1, 2, 4, 8*/
  50:Drivers/lvgl/src/extra/widgets/span/../../../../src/hal/../draw/../misc/../font/lv_font.h ****     uint8_t is_placeholder: 1; /** Glyph is missing. But placeholder will still be displayed */
  51:Drivers/lvgl/src/extra/widgets/span/../../../../src/hal/../draw/../misc/../font/lv_font.h **** } lv_font_glyph_dsc_t;
  52:Drivers/lvgl/src/extra/widgets/span/../../../../src/hal/../draw/../misc/../font/lv_font.h **** 
  53:Drivers/lvgl/src/extra/widgets/span/../../../../src/hal/../draw/../misc/../font/lv_font.h **** /** The bitmaps might be upscaled by 3 to achieve subpixel rendering.*/
  54:Drivers/lvgl/src/extra/widgets/span/../../../../src/hal/../draw/../misc/../font/lv_font.h **** enum {
  55:Drivers/lvgl/src/extra/widgets/span/../../../../src/hal/../draw/../misc/../font/lv_font.h ****     LV_FONT_SUBPX_NONE,
  56:Drivers/lvgl/src/extra/widgets/span/../../../../src/hal/../draw/../misc/../font/lv_font.h ****     LV_FONT_SUBPX_HOR,
  57:Drivers/lvgl/src/extra/widgets/span/../../../../src/hal/../draw/../misc/../font/lv_font.h ****     LV_FONT_SUBPX_VER,
  58:Drivers/lvgl/src/extra/widgets/span/../../../../src/hal/../draw/../misc/../font/lv_font.h ****     LV_FONT_SUBPX_BOTH,
  59:Drivers/lvgl/src/extra/widgets/span/../../../../src/hal/../draw/../misc/../font/lv_font.h **** };
  60:Drivers/lvgl/src/extra/widgets/span/../../../../src/hal/../draw/../misc/../font/lv_font.h **** 
  61:Drivers/lvgl/src/extra/widgets/span/../../../../src/hal/../draw/../misc/../font/lv_font.h **** typedef uint8_t lv_font_subpx_t;
  62:Drivers/lvgl/src/extra/widgets/span/../../../../src/hal/../draw/../misc/../font/lv_font.h **** 
  63:Drivers/lvgl/src/extra/widgets/span/../../../../src/hal/../draw/../misc/../font/lv_font.h **** /** Describe the properties of a font*/
  64:Drivers/lvgl/src/extra/widgets/span/../../../../src/hal/../draw/../misc/../font/lv_font.h **** typedef struct _lv_font_t {
  65:Drivers/lvgl/src/extra/widgets/span/../../../../src/hal/../draw/../misc/../font/lv_font.h ****     /** Get a glyph's descriptor from a font*/
  66:Drivers/lvgl/src/extra/widgets/span/../../../../src/hal/../draw/../misc/../font/lv_font.h ****     bool (*get_glyph_dsc)(const struct _lv_font_t *, lv_font_glyph_dsc_t *, uint32_t letter, uint32
  67:Drivers/lvgl/src/extra/widgets/span/../../../../src/hal/../draw/../misc/../font/lv_font.h **** 
  68:Drivers/lvgl/src/extra/widgets/span/../../../../src/hal/../draw/../misc/../font/lv_font.h ****     /** Get a glyph's bitmap from a font*/
  69:Drivers/lvgl/src/extra/widgets/span/../../../../src/hal/../draw/../misc/../font/lv_font.h ****     const uint8_t * (*get_glyph_bitmap)(const struct _lv_font_t *, uint32_t);
  70:Drivers/lvgl/src/extra/widgets/span/../../../../src/hal/../draw/../misc/../font/lv_font.h **** 
  71:Drivers/lvgl/src/extra/widgets/span/../../../../src/hal/../draw/../misc/../font/lv_font.h ****     /*Pointer to the font in a font pack (must have the same line height)*/
  72:Drivers/lvgl/src/extra/widgets/span/../../../../src/hal/../draw/../misc/../font/lv_font.h ****     lv_coord_t line_height;         /**< The real line height where any text fits*/
  73:Drivers/lvgl/src/extra/widgets/span/../../../../src/hal/../draw/../misc/../font/lv_font.h ****     lv_coord_t base_line;           /**< Base line measured from the top of the line_height*/
  74:Drivers/lvgl/src/extra/widgets/span/../../../../src/hal/../draw/../misc/../font/lv_font.h ****     uint8_t subpx  : 2;             /**< An element of `lv_font_subpx_t`*/
  75:Drivers/lvgl/src/extra/widgets/span/../../../../src/hal/../draw/../misc/../font/lv_font.h **** 
  76:Drivers/lvgl/src/extra/widgets/span/../../../../src/hal/../draw/../misc/../font/lv_font.h ****     int8_t underline_position;      /**< Distance between the top of the underline and base line (<
  77:Drivers/lvgl/src/extra/widgets/span/../../../../src/hal/../draw/../misc/../font/lv_font.h ****     int8_t underline_thickness;     /**< Thickness of the underline*/
ARM GAS  /var/folders/lp/x54gwt890xv47sdkqj1k04q40000gn/T//cckjqg7q.s 			page 58


  78:Drivers/lvgl/src/extra/widgets/span/../../../../src/hal/../draw/../misc/../font/lv_font.h **** 
  79:Drivers/lvgl/src/extra/widgets/span/../../../../src/hal/../draw/../misc/../font/lv_font.h ****     const void * dsc;               /**< Store implementation specific or run_time data or caching 
  80:Drivers/lvgl/src/extra/widgets/span/../../../../src/hal/../draw/../misc/../font/lv_font.h ****     const struct _lv_font_t * fallback;   /**< Fallback font for missing glyph. Resolved recursivel
  81:Drivers/lvgl/src/extra/widgets/span/../../../../src/hal/../draw/../misc/../font/lv_font.h **** #if LV_USE_USER_DATA
  82:Drivers/lvgl/src/extra/widgets/span/../../../../src/hal/../draw/../misc/../font/lv_font.h ****     void * user_data;               /**< Custom user data for font.*/
  83:Drivers/lvgl/src/extra/widgets/span/../../../../src/hal/../draw/../misc/../font/lv_font.h **** #endif
  84:Drivers/lvgl/src/extra/widgets/span/../../../../src/hal/../draw/../misc/../font/lv_font.h **** } lv_font_t;
  85:Drivers/lvgl/src/extra/widgets/span/../../../../src/hal/../draw/../misc/../font/lv_font.h **** 
  86:Drivers/lvgl/src/extra/widgets/span/../../../../src/hal/../draw/../misc/../font/lv_font.h **** /**********************
  87:Drivers/lvgl/src/extra/widgets/span/../../../../src/hal/../draw/../misc/../font/lv_font.h ****  * GLOBAL PROTOTYPES
  88:Drivers/lvgl/src/extra/widgets/span/../../../../src/hal/../draw/../misc/../font/lv_font.h ****  **********************/
  89:Drivers/lvgl/src/extra/widgets/span/../../../../src/hal/../draw/../misc/../font/lv_font.h **** 
  90:Drivers/lvgl/src/extra/widgets/span/../../../../src/hal/../draw/../misc/../font/lv_font.h **** /**
  91:Drivers/lvgl/src/extra/widgets/span/../../../../src/hal/../draw/../misc/../font/lv_font.h ****  * Return with the bitmap of a font.
  92:Drivers/lvgl/src/extra/widgets/span/../../../../src/hal/../draw/../misc/../font/lv_font.h ****  * @param font_p pointer to a font
