ARM GAS  /var/folders/0z/tsy30v1j4xl4_7kw94k978ww0000gn/T//cc13caU7.s 			page 1


   1              		.cpu cortex-m4
   2              		.arch armv7e-m
   3              		.fpu fpv4-sp-d16
   4              		.eabi_attribute 27, 1
   5              		.eabi_attribute 28, 1
   6              		.eabi_attribute 20, 1
   7              		.eabi_attribute 21, 1
   8              		.eabi_attribute 23, 3
   9              		.eabi_attribute 24, 1
  10              		.eabi_attribute 25, 1
  11              		.eabi_attribute 26, 1
  12              		.eabi_attribute 30, 2
  13              		.eabi_attribute 34, 1
  14              		.eabi_attribute 18, 4
  15              		.file	"lv_spinner.c"
  16              		.text
  17              	.Ltext0:
  18              		.cfi_sections	.debug_frame
  19              		.section	.text.lv_spinner_constructor,"ax",%progbits
  20              		.align	1
  21              		.p2align 2,,3
  22              		.syntax unified
  23              		.thumb
  24              		.thumb_func
  26              	lv_spinner_constructor:
  27              	.LVL0:
  28              	.LFB205:
  29              		.file 1 "Drivers/lvgl/src/extra/widgets/spinner/lv_spinner.c"
   1:Drivers/lvgl/src/extra/widgets/spinner/lv_spinner.c **** /**
   2:Drivers/lvgl/src/extra/widgets/spinner/lv_spinner.c ****  * @file lv_spinner.c
   3:Drivers/lvgl/src/extra/widgets/spinner/lv_spinner.c ****  *
   4:Drivers/lvgl/src/extra/widgets/spinner/lv_spinner.c ****  */
   5:Drivers/lvgl/src/extra/widgets/spinner/lv_spinner.c **** 
   6:Drivers/lvgl/src/extra/widgets/spinner/lv_spinner.c **** /*********************
   7:Drivers/lvgl/src/extra/widgets/spinner/lv_spinner.c ****  *      INCLUDES
   8:Drivers/lvgl/src/extra/widgets/spinner/lv_spinner.c ****  *********************/
   9:Drivers/lvgl/src/extra/widgets/spinner/lv_spinner.c **** #include "lv_spinner.h"
  10:Drivers/lvgl/src/extra/widgets/spinner/lv_spinner.c **** #if LV_USE_SPINNER
  11:Drivers/lvgl/src/extra/widgets/spinner/lv_spinner.c **** 
  12:Drivers/lvgl/src/extra/widgets/spinner/lv_spinner.c **** /*********************
  13:Drivers/lvgl/src/extra/widgets/spinner/lv_spinner.c ****  *      DEFINES
  14:Drivers/lvgl/src/extra/widgets/spinner/lv_spinner.c ****  *********************/
  15:Drivers/lvgl/src/extra/widgets/spinner/lv_spinner.c **** 
  16:Drivers/lvgl/src/extra/widgets/spinner/lv_spinner.c **** /**********************
  17:Drivers/lvgl/src/extra/widgets/spinner/lv_spinner.c ****  *      TYPEDEFS
  18:Drivers/lvgl/src/extra/widgets/spinner/lv_spinner.c ****  **********************/
  19:Drivers/lvgl/src/extra/widgets/spinner/lv_spinner.c **** 
  20:Drivers/lvgl/src/extra/widgets/spinner/lv_spinner.c **** /**********************
  21:Drivers/lvgl/src/extra/widgets/spinner/lv_spinner.c ****  *  STATIC PROTOTYPES
  22:Drivers/lvgl/src/extra/widgets/spinner/lv_spinner.c ****  **********************/
  23:Drivers/lvgl/src/extra/widgets/spinner/lv_spinner.c **** static void lv_spinner_constructor(const lv_obj_class_t * class_p, lv_obj_t * obj);
  24:Drivers/lvgl/src/extra/widgets/spinner/lv_spinner.c **** static void arc_anim_start_angle(void * obj, int32_t v);
  25:Drivers/lvgl/src/extra/widgets/spinner/lv_spinner.c **** static void arc_anim_end_angle(void * obj, int32_t v);
  26:Drivers/lvgl/src/extra/widgets/spinner/lv_spinner.c **** 
  27:Drivers/lvgl/src/extra/widgets/spinner/lv_spinner.c **** /**********************
  28:Drivers/lvgl/src/extra/widgets/spinner/lv_spinner.c ****  *  STATIC VARIABLES
  29:Drivers/lvgl/src/extra/widgets/spinner/lv_spinner.c ****  **********************/
ARM GAS  /var/folders/0z/tsy30v1j4xl4_7kw94k978ww0000gn/T//cc13caU7.s 			page 2


  30:Drivers/lvgl/src/extra/widgets/spinner/lv_spinner.c **** const lv_obj_class_t lv_spinner_class = {
  31:Drivers/lvgl/src/extra/widgets/spinner/lv_spinner.c ****     .base_class = &lv_arc_class,
  32:Drivers/lvgl/src/extra/widgets/spinner/lv_spinner.c ****     .constructor_cb = lv_spinner_constructor
  33:Drivers/lvgl/src/extra/widgets/spinner/lv_spinner.c **** };
  34:Drivers/lvgl/src/extra/widgets/spinner/lv_spinner.c **** 
  35:Drivers/lvgl/src/extra/widgets/spinner/lv_spinner.c **** static uint32_t time_param;
  36:Drivers/lvgl/src/extra/widgets/spinner/lv_spinner.c **** static uint32_t arc_length_param;
  37:Drivers/lvgl/src/extra/widgets/spinner/lv_spinner.c **** 
  38:Drivers/lvgl/src/extra/widgets/spinner/lv_spinner.c **** /**********************
  39:Drivers/lvgl/src/extra/widgets/spinner/lv_spinner.c ****  *      MACROS
  40:Drivers/lvgl/src/extra/widgets/spinner/lv_spinner.c ****  **********************/
  41:Drivers/lvgl/src/extra/widgets/spinner/lv_spinner.c **** 
  42:Drivers/lvgl/src/extra/widgets/spinner/lv_spinner.c **** /**********************
  43:Drivers/lvgl/src/extra/widgets/spinner/lv_spinner.c ****  *   GLOBAL FUNCTIONS
  44:Drivers/lvgl/src/extra/widgets/spinner/lv_spinner.c ****  **********************/
  45:Drivers/lvgl/src/extra/widgets/spinner/lv_spinner.c **** 
  46:Drivers/lvgl/src/extra/widgets/spinner/lv_spinner.c **** /**
  47:Drivers/lvgl/src/extra/widgets/spinner/lv_spinner.c ****  * Create a spinner object
  48:Drivers/lvgl/src/extra/widgets/spinner/lv_spinner.c ****  * @param parent pointer to an object, it will be the parent of the new spinner
  49:Drivers/lvgl/src/extra/widgets/spinner/lv_spinner.c ****  * @return pointer to the created spinner
  50:Drivers/lvgl/src/extra/widgets/spinner/lv_spinner.c ****  */
  51:Drivers/lvgl/src/extra/widgets/spinner/lv_spinner.c **** lv_obj_t * lv_spinner_create(lv_obj_t * parent, uint32_t time, uint32_t arc_length)
  52:Drivers/lvgl/src/extra/widgets/spinner/lv_spinner.c **** {
  53:Drivers/lvgl/src/extra/widgets/spinner/lv_spinner.c ****     time_param = time;
  54:Drivers/lvgl/src/extra/widgets/spinner/lv_spinner.c ****     arc_length_param = arc_length;
  55:Drivers/lvgl/src/extra/widgets/spinner/lv_spinner.c **** 
  56:Drivers/lvgl/src/extra/widgets/spinner/lv_spinner.c ****     lv_obj_t * obj = lv_obj_class_create_obj(&lv_spinner_class, parent);
  57:Drivers/lvgl/src/extra/widgets/spinner/lv_spinner.c ****     lv_obj_class_init_obj(obj);
  58:Drivers/lvgl/src/extra/widgets/spinner/lv_spinner.c ****     return obj;
  59:Drivers/lvgl/src/extra/widgets/spinner/lv_spinner.c **** }
  60:Drivers/lvgl/src/extra/widgets/spinner/lv_spinner.c **** 
  61:Drivers/lvgl/src/extra/widgets/spinner/lv_spinner.c **** 
  62:Drivers/lvgl/src/extra/widgets/spinner/lv_spinner.c **** /**********************
  63:Drivers/lvgl/src/extra/widgets/spinner/lv_spinner.c ****  *   STATIC FUNCTIONS
  64:Drivers/lvgl/src/extra/widgets/spinner/lv_spinner.c ****  **********************/
  65:Drivers/lvgl/src/extra/widgets/spinner/lv_spinner.c **** 
  66:Drivers/lvgl/src/extra/widgets/spinner/lv_spinner.c **** static void lv_spinner_constructor(const lv_obj_class_t * class_p, lv_obj_t * obj)
  67:Drivers/lvgl/src/extra/widgets/spinner/lv_spinner.c **** {
  30              		.loc 1 67 1 view -0
  31              		.cfi_startproc
  32              		@ args = 0, pretend = 0, frame = 72
  33              		@ frame_needed = 0, uses_anonymous_args = 0
  68:Drivers/lvgl/src/extra/widgets/spinner/lv_spinner.c ****     LV_TRACE_OBJ_CREATE("begin");
  34              		.loc 1 68 33 view .LVU1
  69:Drivers/lvgl/src/extra/widgets/spinner/lv_spinner.c **** 
  70:Drivers/lvgl/src/extra/widgets/spinner/lv_spinner.c ****     LV_UNUSED(class_p);
  35              		.loc 1 70 5 view .LVU2
  71:Drivers/lvgl/src/extra/widgets/spinner/lv_spinner.c **** 
  72:Drivers/lvgl/src/extra/widgets/spinner/lv_spinner.c ****     lv_obj_clear_flag(obj, LV_OBJ_FLAG_CLICKABLE);
  36              		.loc 1 72 5 view .LVU3
  67:Drivers/lvgl/src/extra/widgets/spinner/lv_spinner.c ****     LV_TRACE_OBJ_CREATE("begin");
  37              		.loc 1 67 1 is_stmt 0 view .LVU4
  38 0000 70B5     		push	{r4, r5, r6, lr}
  39              		.cfi_def_cfa_offset 16
  40              		.cfi_offset 4, -16
  41              		.cfi_offset 5, -12
  42              		.cfi_offset 6, -8
ARM GAS  /var/folders/0z/tsy30v1j4xl4_7kw94k978ww0000gn/T//cc13caU7.s 			page 3


  43              		.cfi_offset 14, -4
  44 0002 0C46     		mov	r4, r1
  45 0004 92B0     		sub	sp, sp, #72
  46              		.cfi_def_cfa_offset 88
  47              		.loc 1 72 5 view .LVU5
  48 0006 0221     		movs	r1, #2
  49              	.LVL1:
  50              		.loc 1 72 5 view .LVU6
  51 0008 2046     		mov	r0, r4
  52              	.LVL2:
  53              		.loc 1 72 5 view .LVU7
  54 000a FFF7FEFF 		bl	lv_obj_clear_flag
  55              	.LVL3:
  73:Drivers/lvgl/src/extra/widgets/spinner/lv_spinner.c **** 
  74:Drivers/lvgl/src/extra/widgets/spinner/lv_spinner.c ****     lv_anim_t a;
  56              		.loc 1 74 5 is_stmt 1 view .LVU8
  75:Drivers/lvgl/src/extra/widgets/spinner/lv_spinner.c ****     lv_anim_init(&a);
  57              		.loc 1 75 5 view .LVU9
  58 000e 01A8     		add	r0, sp, #4
  59 0010 FFF7FEFF 		bl	lv_anim_init
  60              	.LVL4:
  76:Drivers/lvgl/src/extra/widgets/spinner/lv_spinner.c ****     lv_anim_set_var(&a, obj);
  61              		.loc 1 76 5 view .LVU10
  62              	.LBB18:
  63              	.LBI18:
  64              		.file 2 "Drivers/lvgl/src/extra/widgets/spinner/../../../../src/misc/lv_anim.h"
   1:Drivers/lvgl/src/extra/widgets/spinner/../../../../src/misc/lv_anim.h **** /**
   2:Drivers/lvgl/src/extra/widgets/spinner/../../../../src/misc/lv_anim.h ****  * @file lv_anim.h
   3:Drivers/lvgl/src/extra/widgets/spinner/../../../../src/misc/lv_anim.h ****  *
   4:Drivers/lvgl/src/extra/widgets/spinner/../../../../src/misc/lv_anim.h ****  */
   5:Drivers/lvgl/src/extra/widgets/spinner/../../../../src/misc/lv_anim.h **** 
   6:Drivers/lvgl/src/extra/widgets/spinner/../../../../src/misc/lv_anim.h **** #ifndef LV_ANIM_H
   7:Drivers/lvgl/src/extra/widgets/spinner/../../../../src/misc/lv_anim.h **** #define LV_ANIM_H
   8:Drivers/lvgl/src/extra/widgets/spinner/../../../../src/misc/lv_anim.h **** 
   9:Drivers/lvgl/src/extra/widgets/spinner/../../../../src/misc/lv_anim.h **** #ifdef __cplusplus
  10:Drivers/lvgl/src/extra/widgets/spinner/../../../../src/misc/lv_anim.h **** extern "C" {
  11:Drivers/lvgl/src/extra/widgets/spinner/../../../../src/misc/lv_anim.h **** #endif
  12:Drivers/lvgl/src/extra/widgets/spinner/../../../../src/misc/lv_anim.h **** 
  13:Drivers/lvgl/src/extra/widgets/spinner/../../../../src/misc/lv_anim.h **** /*********************
  14:Drivers/lvgl/src/extra/widgets/spinner/../../../../src/misc/lv_anim.h ****  *      INCLUDES
  15:Drivers/lvgl/src/extra/widgets/spinner/../../../../src/misc/lv_anim.h ****  *********************/
  16:Drivers/lvgl/src/extra/widgets/spinner/../../../../src/misc/lv_anim.h **** #include "../lv_conf_internal.h"
  17:Drivers/lvgl/src/extra/widgets/spinner/../../../../src/misc/lv_anim.h **** 
  18:Drivers/lvgl/src/extra/widgets/spinner/../../../../src/misc/lv_anim.h **** #include <stdint.h>
  19:Drivers/lvgl/src/extra/widgets/spinner/../../../../src/misc/lv_anim.h **** #include <stdbool.h>
  20:Drivers/lvgl/src/extra/widgets/spinner/../../../../src/misc/lv_anim.h **** #include <stddef.h>
  21:Drivers/lvgl/src/extra/widgets/spinner/../../../../src/misc/lv_anim.h **** 
  22:Drivers/lvgl/src/extra/widgets/spinner/../../../../src/misc/lv_anim.h **** /*********************
  23:Drivers/lvgl/src/extra/widgets/spinner/../../../../src/misc/lv_anim.h ****  *      DEFINES
  24:Drivers/lvgl/src/extra/widgets/spinner/../../../../src/misc/lv_anim.h ****  *********************/
  25:Drivers/lvgl/src/extra/widgets/spinner/../../../../src/misc/lv_anim.h **** 
  26:Drivers/lvgl/src/extra/widgets/spinner/../../../../src/misc/lv_anim.h **** #define LV_ANIM_REPEAT_INFINITE      0xFFFF
  27:Drivers/lvgl/src/extra/widgets/spinner/../../../../src/misc/lv_anim.h **** #define LV_ANIM_PLAYTIME_INFINITE    0xFFFFFFFF
  28:Drivers/lvgl/src/extra/widgets/spinner/../../../../src/misc/lv_anim.h **** 
  29:Drivers/lvgl/src/extra/widgets/spinner/../../../../src/misc/lv_anim.h **** LV_EXPORT_CONST_INT(LV_ANIM_REPEAT_INFINITE);
  30:Drivers/lvgl/src/extra/widgets/spinner/../../../../src/misc/lv_anim.h **** LV_EXPORT_CONST_INT(LV_ANIM_PLAYTIME_INFINITE);
  31:Drivers/lvgl/src/extra/widgets/spinner/../../../../src/misc/lv_anim.h **** 
ARM GAS  /var/folders/0z/tsy30v1j4xl4_7kw94k978ww0000gn/T//cc13caU7.s 			page 4


  32:Drivers/lvgl/src/extra/widgets/spinner/../../../../src/misc/lv_anim.h **** /**********************
  33:Drivers/lvgl/src/extra/widgets/spinner/../../../../src/misc/lv_anim.h ****  *      TYPEDEFS
  34:Drivers/lvgl/src/extra/widgets/spinner/../../../../src/misc/lv_anim.h ****  **********************/
  35:Drivers/lvgl/src/extra/widgets/spinner/../../../../src/misc/lv_anim.h **** 
  36:Drivers/lvgl/src/extra/widgets/spinner/../../../../src/misc/lv_anim.h **** /** Can be used to indicate if animations are enabled or disabled in a case*/
  37:Drivers/lvgl/src/extra/widgets/spinner/../../../../src/misc/lv_anim.h **** typedef enum {
  38:Drivers/lvgl/src/extra/widgets/spinner/../../../../src/misc/lv_anim.h ****     LV_ANIM_OFF,
  39:Drivers/lvgl/src/extra/widgets/spinner/../../../../src/misc/lv_anim.h ****     LV_ANIM_ON,
  40:Drivers/lvgl/src/extra/widgets/spinner/../../../../src/misc/lv_anim.h **** } lv_anim_enable_t;
  41:Drivers/lvgl/src/extra/widgets/spinner/../../../../src/misc/lv_anim.h **** 
  42:Drivers/lvgl/src/extra/widgets/spinner/../../../../src/misc/lv_anim.h **** struct _lv_anim_t;
  43:Drivers/lvgl/src/extra/widgets/spinner/../../../../src/misc/lv_anim.h **** struct _lv_timer_t;
  44:Drivers/lvgl/src/extra/widgets/spinner/../../../../src/misc/lv_anim.h **** 
  45:Drivers/lvgl/src/extra/widgets/spinner/../../../../src/misc/lv_anim.h **** /** Get the current value during an animation*/
  46:Drivers/lvgl/src/extra/widgets/spinner/../../../../src/misc/lv_anim.h **** typedef int32_t (*lv_anim_path_cb_t)(const struct _lv_anim_t *);
  47:Drivers/lvgl/src/extra/widgets/spinner/../../../../src/misc/lv_anim.h **** 
  48:Drivers/lvgl/src/extra/widgets/spinner/../../../../src/misc/lv_anim.h **** /** Generic prototype of "animator" functions.
  49:Drivers/lvgl/src/extra/widgets/spinner/../../../../src/misc/lv_anim.h ****  * First parameter is the variable to animate.
  50:Drivers/lvgl/src/extra/widgets/spinner/../../../../src/misc/lv_anim.h ****  * Second parameter is the value to set.
  51:Drivers/lvgl/src/extra/widgets/spinner/../../../../src/misc/lv_anim.h ****  * Compatible with `lv_xxx_set_yyy(obj, value)` functions
  52:Drivers/lvgl/src/extra/widgets/spinner/../../../../src/misc/lv_anim.h ****  * The `x` in `_xcb_t` means it's not a fully generic prototype because
  53:Drivers/lvgl/src/extra/widgets/spinner/../../../../src/misc/lv_anim.h ****  * it doesn't receive `lv_anim_t *` as its first argument*/
  54:Drivers/lvgl/src/extra/widgets/spinner/../../../../src/misc/lv_anim.h **** typedef void (*lv_anim_exec_xcb_t)(void *, int32_t);
  55:Drivers/lvgl/src/extra/widgets/spinner/../../../../src/misc/lv_anim.h **** 
  56:Drivers/lvgl/src/extra/widgets/spinner/../../../../src/misc/lv_anim.h **** /** Same as `lv_anim_exec_xcb_t` but receives `lv_anim_t *` as the first parameter.
  57:Drivers/lvgl/src/extra/widgets/spinner/../../../../src/misc/lv_anim.h ****  * It's more consistent but less convenient. Might be used by binding generator functions.*/
  58:Drivers/lvgl/src/extra/widgets/spinner/../../../../src/misc/lv_anim.h **** typedef void (*lv_anim_custom_exec_cb_t)(struct _lv_anim_t *, int32_t);
  59:Drivers/lvgl/src/extra/widgets/spinner/../../../../src/misc/lv_anim.h **** 
  60:Drivers/lvgl/src/extra/widgets/spinner/../../../../src/misc/lv_anim.h **** /** Callback to call when the animation is ready*/
  61:Drivers/lvgl/src/extra/widgets/spinner/../../../../src/misc/lv_anim.h **** typedef void (*lv_anim_ready_cb_t)(struct _lv_anim_t *);
  62:Drivers/lvgl/src/extra/widgets/spinner/../../../../src/misc/lv_anim.h **** 
  63:Drivers/lvgl/src/extra/widgets/spinner/../../../../src/misc/lv_anim.h **** /** Callback to call when the animation really stars (considering `delay`)*/
  64:Drivers/lvgl/src/extra/widgets/spinner/../../../../src/misc/lv_anim.h **** typedef void (*lv_anim_start_cb_t)(struct _lv_anim_t *);
  65:Drivers/lvgl/src/extra/widgets/spinner/../../../../src/misc/lv_anim.h **** 
  66:Drivers/lvgl/src/extra/widgets/spinner/../../../../src/misc/lv_anim.h **** /** Callback used when the animation values are relative to get the current value*/
  67:Drivers/lvgl/src/extra/widgets/spinner/../../../../src/misc/lv_anim.h **** typedef int32_t (*lv_anim_get_value_cb_t)(struct _lv_anim_t *);
  68:Drivers/lvgl/src/extra/widgets/spinner/../../../../src/misc/lv_anim.h **** 
  69:Drivers/lvgl/src/extra/widgets/spinner/../../../../src/misc/lv_anim.h **** /** Callback used when the animation is deleted*/
  70:Drivers/lvgl/src/extra/widgets/spinner/../../../../src/misc/lv_anim.h **** typedef void (*lv_anim_deleted_cb_t)(struct _lv_anim_t *);
  71:Drivers/lvgl/src/extra/widgets/spinner/../../../../src/misc/lv_anim.h **** 
  72:Drivers/lvgl/src/extra/widgets/spinner/../../../../src/misc/lv_anim.h **** /** Describes an animation*/
  73:Drivers/lvgl/src/extra/widgets/spinner/../../../../src/misc/lv_anim.h **** typedef struct _lv_anim_t {
  74:Drivers/lvgl/src/extra/widgets/spinner/../../../../src/misc/lv_anim.h ****     void * var;                          /**<Variable to animate*/
  75:Drivers/lvgl/src/extra/widgets/spinner/../../../../src/misc/lv_anim.h ****     lv_anim_exec_xcb_t exec_cb;          /**< Function to execute to animate*/
  76:Drivers/lvgl/src/extra/widgets/spinner/../../../../src/misc/lv_anim.h ****     lv_anim_start_cb_t start_cb;         /**< Call it when the animation is starts (considering `de
  77:Drivers/lvgl/src/extra/widgets/spinner/../../../../src/misc/lv_anim.h ****     lv_anim_ready_cb_t ready_cb;         /**< Call it when the animation is ready*/
  78:Drivers/lvgl/src/extra/widgets/spinner/../../../../src/misc/lv_anim.h ****     lv_anim_deleted_cb_t deleted_cb;     /**< Call it when the animation is deleted*/
  79:Drivers/lvgl/src/extra/widgets/spinner/../../../../src/misc/lv_anim.h ****     lv_anim_get_value_cb_t get_value_cb; /**< Get the current value in relative mode*/
  80:Drivers/lvgl/src/extra/widgets/spinner/../../../../src/misc/lv_anim.h **** #if LV_USE_USER_DATA
  81:Drivers/lvgl/src/extra/widgets/spinner/../../../../src/misc/lv_anim.h ****     void * user_data; /**< Custom user data*/
  82:Drivers/lvgl/src/extra/widgets/spinner/../../../../src/misc/lv_anim.h **** #endif
  83:Drivers/lvgl/src/extra/widgets/spinner/../../../../src/misc/lv_anim.h ****     lv_anim_path_cb_t path_cb;         /**< Describe the path (curve) of animations*/
  84:Drivers/lvgl/src/extra/widgets/spinner/../../../../src/misc/lv_anim.h ****     int32_t start_value;               /**< Start value*/
  85:Drivers/lvgl/src/extra/widgets/spinner/../../../../src/misc/lv_anim.h ****     int32_t current_value;             /**< Current value*/
  86:Drivers/lvgl/src/extra/widgets/spinner/../../../../src/misc/lv_anim.h ****     int32_t end_value;                 /**< End value*/
  87:Drivers/lvgl/src/extra/widgets/spinner/../../../../src/misc/lv_anim.h ****     int32_t time;                /**< Animation time in ms*/
  88:Drivers/lvgl/src/extra/widgets/spinner/../../../../src/misc/lv_anim.h ****     int32_t act_time;            /**< Current time in animation. Set to negative to make delay.*/
ARM GAS  /var/folders/0z/tsy30v1j4xl4_7kw94k978ww0000gn/T//cc13caU7.s 			page 5


  89:Drivers/lvgl/src/extra/widgets/spinner/../../../../src/misc/lv_anim.h ****     uint32_t playback_delay;     /**< Wait before play back*/
  90:Drivers/lvgl/src/extra/widgets/spinner/../../../../src/misc/lv_anim.h ****     uint32_t playback_time;      /**< Duration of playback animation*/
  91:Drivers/lvgl/src/extra/widgets/spinner/../../../../src/misc/lv_anim.h ****     uint32_t repeat_delay;       /**< Wait before repeat*/
  92:Drivers/lvgl/src/extra/widgets/spinner/../../../../src/misc/lv_anim.h ****     uint16_t repeat_cnt;         /**< Repeat count for the animation*/
  93:Drivers/lvgl/src/extra/widgets/spinner/../../../../src/misc/lv_anim.h ****     uint8_t early_apply  : 1;    /**< 1: Apply start value immediately even is there is `delay`*/
  94:Drivers/lvgl/src/extra/widgets/spinner/../../../../src/misc/lv_anim.h **** 
  95:Drivers/lvgl/src/extra/widgets/spinner/../../../../src/misc/lv_anim.h ****     /*Animation system use these - user shouldn't set*/
  96:Drivers/lvgl/src/extra/widgets/spinner/../../../../src/misc/lv_anim.h ****     uint8_t playback_now : 1; /**< Play back is in progress*/
  97:Drivers/lvgl/src/extra/widgets/spinner/../../../../src/misc/lv_anim.h ****     uint8_t run_round : 1;    /**< Indicates the animation has run in this round*/
  98:Drivers/lvgl/src/extra/widgets/spinner/../../../../src/misc/lv_anim.h ****     uint8_t start_cb_called : 1;    /**< Indicates that the `start_cb` was already called*/
  99:Drivers/lvgl/src/extra/widgets/spinner/../../../../src/misc/lv_anim.h **** } lv_anim_t;
 100:Drivers/lvgl/src/extra/widgets/spinner/../../../../src/misc/lv_anim.h **** 
 101:Drivers/lvgl/src/extra/widgets/spinner/../../../../src/misc/lv_anim.h **** /**********************
 102:Drivers/lvgl/src/extra/widgets/spinner/../../../../src/misc/lv_anim.h ****  * GLOBAL PROTOTYPES
 103:Drivers/lvgl/src/extra/widgets/spinner/../../../../src/misc/lv_anim.h ****  **********************/
 104:Drivers/lvgl/src/extra/widgets/spinner/../../../../src/misc/lv_anim.h **** 
 105:Drivers/lvgl/src/extra/widgets/spinner/../../../../src/misc/lv_anim.h **** /**
 106:Drivers/lvgl/src/extra/widgets/spinner/../../../../src/misc/lv_anim.h ****  * Init. the animation module
 107:Drivers/lvgl/src/extra/widgets/spinner/../../../../src/misc/lv_anim.h ****  */
 108:Drivers/lvgl/src/extra/widgets/spinner/../../../../src/misc/lv_anim.h **** void _lv_anim_core_init(void);
 109:Drivers/lvgl/src/extra/widgets/spinner/../../../../src/misc/lv_anim.h **** 
 110:Drivers/lvgl/src/extra/widgets/spinner/../../../../src/misc/lv_anim.h **** /**
 111:Drivers/lvgl/src/extra/widgets/spinner/../../../../src/misc/lv_anim.h ****  * Initialize an animation variable.
 112:Drivers/lvgl/src/extra/widgets/spinner/../../../../src/misc/lv_anim.h ****  * E.g.:
 113:Drivers/lvgl/src/extra/widgets/spinner/../../../../src/misc/lv_anim.h ****  * lv_anim_t a;
 114:Drivers/lvgl/src/extra/widgets/spinner/../../../../src/misc/lv_anim.h ****  * lv_anim_init(&a);
 115:Drivers/lvgl/src/extra/widgets/spinner/../../../../src/misc/lv_anim.h ****  * lv_anim_set_...(&a);
 116:Drivers/lvgl/src/extra/widgets/spinner/../../../../src/misc/lv_anim.h ****  * lv_anim_start(&a);
 117:Drivers/lvgl/src/extra/widgets/spinner/../../../../src/misc/lv_anim.h ****  * @param a     pointer to an `lv_anim_t` variable to initialize
 118:Drivers/lvgl/src/extra/widgets/spinner/../../../../src/misc/lv_anim.h ****  */
 119:Drivers/lvgl/src/extra/widgets/spinner/../../../../src/misc/lv_anim.h **** void lv_anim_init(lv_anim_t * a);
 120:Drivers/lvgl/src/extra/widgets/spinner/../../../../src/misc/lv_anim.h **** 
 121:Drivers/lvgl/src/extra/widgets/spinner/../../../../src/misc/lv_anim.h **** /**
 122:Drivers/lvgl/src/extra/widgets/spinner/../../../../src/misc/lv_anim.h ****  * Set a variable to animate
 123:Drivers/lvgl/src/extra/widgets/spinner/../../../../src/misc/lv_anim.h ****  * @param a     pointer to an initialized `lv_anim_t` variable
 124:Drivers/lvgl/src/extra/widgets/spinner/../../../../src/misc/lv_anim.h ****  * @param var   pointer to a variable to animate
 125:Drivers/lvgl/src/extra/widgets/spinner/../../../../src/misc/lv_anim.h ****  */
 126:Drivers/lvgl/src/extra/widgets/spinner/../../../../src/misc/lv_anim.h **** static inline void lv_anim_set_var(lv_anim_t * a, void * var)
  65              		.loc 2 126 20 view .LVU11
  66              	.LBB19:
 127:Drivers/lvgl/src/extra/widgets/spinner/../../../../src/misc/lv_anim.h **** {
 128:Drivers/lvgl/src/extra/widgets/spinner/../../../../src/misc/lv_anim.h ****     a->var = var;
  67              		.loc 2 128 5 view .LVU12
  68              	.LBE19:
  69              	.LBE18:
  77:Drivers/lvgl/src/extra/widgets/spinner/lv_spinner.c ****     lv_anim_set_exec_cb(&a, arc_anim_end_angle);
  78:Drivers/lvgl/src/extra/widgets/spinner/lv_spinner.c ****     lv_anim_set_repeat_count(&a, LV_ANIM_REPEAT_INFINITE);
  79:Drivers/lvgl/src/extra/widgets/spinner/lv_spinner.c ****     lv_anim_set_time(&a, time_param);
  80:Drivers/lvgl/src/extra/widgets/spinner/lv_spinner.c ****     lv_anim_set_values(&a, arc_length_param, 360 + arc_length_param);
  70              		.loc 1 80 5 is_stmt 0 view .LVU13
  71 0014 164B     		ldr	r3, .L4
  79:Drivers/lvgl/src/extra/widgets/spinner/lv_spinner.c ****     lv_anim_set_values(&a, arc_length_param, 360 + arc_length_param);
  72              		.loc 1 79 5 view .LVU14
  73 0016 174A     		ldr	r2, .L4+4
  74              		.loc 1 80 5 view .LVU15
  75 0018 1B68     		ldr	r3, [r3]
  76              	.LBB21:
ARM GAS  /var/folders/0z/tsy30v1j4xl4_7kw94k978ww0000gn/T//cc13caU7.s 			page 6


  77              	.LBB22:
 129:Drivers/lvgl/src/extra/widgets/spinner/../../../../src/misc/lv_anim.h **** }
 130:Drivers/lvgl/src/extra/widgets/spinner/../../../../src/misc/lv_anim.h **** 
 131:Drivers/lvgl/src/extra/widgets/spinner/../../../../src/misc/lv_anim.h **** /**
 132:Drivers/lvgl/src/extra/widgets/spinner/../../../../src/misc/lv_anim.h ****  * Set a function to animate `var`
 133:Drivers/lvgl/src/extra/widgets/spinner/../../../../src/misc/lv_anim.h ****  * @param a         pointer to an initialized `lv_anim_t` variable
 134:Drivers/lvgl/src/extra/widgets/spinner/../../../../src/misc/lv_anim.h ****  * @param exec_cb   a function to execute during animation
 135:Drivers/lvgl/src/extra/widgets/spinner/../../../../src/misc/lv_anim.h ****  *                  LVGL's built-in functions can be used.
 136:Drivers/lvgl/src/extra/widgets/spinner/../../../../src/misc/lv_anim.h ****  *                  E.g. lv_obj_set_x
 137:Drivers/lvgl/src/extra/widgets/spinner/../../../../src/misc/lv_anim.h ****  */
 138:Drivers/lvgl/src/extra/widgets/spinner/../../../../src/misc/lv_anim.h **** static inline void lv_anim_set_exec_cb(lv_anim_t * a, lv_anim_exec_xcb_t exec_cb)
 139:Drivers/lvgl/src/extra/widgets/spinner/../../../../src/misc/lv_anim.h **** {
 140:Drivers/lvgl/src/extra/widgets/spinner/../../../../src/misc/lv_anim.h ****     a->exec_cb = exec_cb;
  78              		.loc 2 140 16 view .LVU16
  79 001a 1748     		ldr	r0, .L4+8
  80              	.LBE22:
  81              	.LBE21:
  82              	.LBB25:
  83              	.LBB26:
 141:Drivers/lvgl/src/extra/widgets/spinner/../../../../src/misc/lv_anim.h **** }
 142:Drivers/lvgl/src/extra/widgets/spinner/../../../../src/misc/lv_anim.h **** 
 143:Drivers/lvgl/src/extra/widgets/spinner/../../../../src/misc/lv_anim.h **** /**
 144:Drivers/lvgl/src/extra/widgets/spinner/../../../../src/misc/lv_anim.h ****  * Set the duration of an animation
 145:Drivers/lvgl/src/extra/widgets/spinner/../../../../src/misc/lv_anim.h ****  * @param a         pointer to an initialized `lv_anim_t` variable
 146:Drivers/lvgl/src/extra/widgets/spinner/../../../../src/misc/lv_anim.h ****  * @param duration  duration of the animation in milliseconds
 147:Drivers/lvgl/src/extra/widgets/spinner/../../../../src/misc/lv_anim.h ****  */
 148:Drivers/lvgl/src/extra/widgets/spinner/../../../../src/misc/lv_anim.h **** static inline void lv_anim_set_time(lv_anim_t * a, uint32_t duration)
 149:Drivers/lvgl/src/extra/widgets/spinner/../../../../src/misc/lv_anim.h **** {
 150:Drivers/lvgl/src/extra/widgets/spinner/../../../../src/misc/lv_anim.h ****     a->time = duration;
  84              		.loc 2 150 13 view .LVU17
  85 001c 1168     		ldr	r1, [r2]
  86              	.LBE26:
  87              	.LBE25:
  88              	.LBB29:
  89              	.LBB23:
 140:Drivers/lvgl/src/extra/widgets/spinner/../../../../src/misc/lv_anim.h **** }
  90              		.loc 2 140 16 view .LVU18
  91 001e 0290     		str	r0, [sp, #8]
  92              	.LBE23:
  93              	.LBE29:
  94              		.loc 1 80 50 view .LVU19
  95 0020 03F5B472 		add	r2, r3, #360
  96              	.LBB30:
  97              	.LBB31:
 151:Drivers/lvgl/src/extra/widgets/spinner/../../../../src/misc/lv_anim.h **** }
 152:Drivers/lvgl/src/extra/widgets/spinner/../../../../src/misc/lv_anim.h **** 
 153:Drivers/lvgl/src/extra/widgets/spinner/../../../../src/misc/lv_anim.h **** /**
 154:Drivers/lvgl/src/extra/widgets/spinner/../../../../src/misc/lv_anim.h ****  * Set a delay before starting the animation
 155:Drivers/lvgl/src/extra/widgets/spinner/../../../../src/misc/lv_anim.h ****  * @param a         pointer to an initialized `lv_anim_t` variable
 156:Drivers/lvgl/src/extra/widgets/spinner/../../../../src/misc/lv_anim.h ****  * @param delay     delay before the animation in milliseconds
 157:Drivers/lvgl/src/extra/widgets/spinner/../../../../src/misc/lv_anim.h ****  */
 158:Drivers/lvgl/src/extra/widgets/spinner/../../../../src/misc/lv_anim.h **** static inline void lv_anim_set_delay(lv_anim_t * a, uint32_t delay)
 159:Drivers/lvgl/src/extra/widgets/spinner/../../../../src/misc/lv_anim.h **** {
 160:Drivers/lvgl/src/extra/widgets/spinner/../../../../src/misc/lv_anim.h ****     a->act_time = -(int32_t)(delay);
 161:Drivers/lvgl/src/extra/widgets/spinner/../../../../src/misc/lv_anim.h **** }
 162:Drivers/lvgl/src/extra/widgets/spinner/../../../../src/misc/lv_anim.h **** 
 163:Drivers/lvgl/src/extra/widgets/spinner/../../../../src/misc/lv_anim.h **** /**
ARM GAS  /var/folders/0z/tsy30v1j4xl4_7kw94k978ww0000gn/T//cc13caU7.s 			page 7


 164:Drivers/lvgl/src/extra/widgets/spinner/../../../../src/misc/lv_anim.h ****  * Set the start and end values of an animation
 165:Drivers/lvgl/src/extra/widgets/spinner/../../../../src/misc/lv_anim.h ****  * @param a         pointer to an initialized `lv_anim_t` variable
 166:Drivers/lvgl/src/extra/widgets/spinner/../../../../src/misc/lv_anim.h ****  * @param start     the start value
 167:Drivers/lvgl/src/extra/widgets/spinner/../../../../src/misc/lv_anim.h ****  * @param end       the end value
 168:Drivers/lvgl/src/extra/widgets/spinner/../../../../src/misc/lv_anim.h ****  */
 169:Drivers/lvgl/src/extra/widgets/spinner/../../../../src/misc/lv_anim.h **** static inline void lv_anim_set_values(lv_anim_t * a, int32_t start, int32_t end)
 170:Drivers/lvgl/src/extra/widgets/spinner/../../../../src/misc/lv_anim.h **** {
 171:Drivers/lvgl/src/extra/widgets/spinner/../../../../src/misc/lv_anim.h ****     a->start_value = start;
 172:Drivers/lvgl/src/extra/widgets/spinner/../../../../src/misc/lv_anim.h ****     a->current_value = start;
  98              		.loc 2 172 22 view .LVU20
  99 0024 CDE90933 		strd	r3, r3, [sp, #36]
 100              	.LBE31:
 101              	.LBE30:
  81:Drivers/lvgl/src/extra/widgets/spinner/lv_spinner.c ****     lv_anim_start(&a);
 102              		.loc 1 81 5 view .LVU21
 103 0028 01A8     		add	r0, sp, #4
 104              	.LVL5:
 105              	.LBB34:
 106              	.LBB35:
 173:Drivers/lvgl/src/extra/widgets/spinner/../../../../src/misc/lv_anim.h ****     a->end_value = end;
 174:Drivers/lvgl/src/extra/widgets/spinner/../../../../src/misc/lv_anim.h **** }
 175:Drivers/lvgl/src/extra/widgets/spinner/../../../../src/misc/lv_anim.h **** 
 176:Drivers/lvgl/src/extra/widgets/spinner/../../../../src/misc/lv_anim.h **** /**
 177:Drivers/lvgl/src/extra/widgets/spinner/../../../../src/misc/lv_anim.h ****  * Similar to `lv_anim_set_exec_cb` but `lv_anim_custom_exec_cb_t` receives
 178:Drivers/lvgl/src/extra/widgets/spinner/../../../../src/misc/lv_anim.h ****  * `lv_anim_t * ` as its first parameter instead of `void *`.
 179:Drivers/lvgl/src/extra/widgets/spinner/../../../../src/misc/lv_anim.h ****  * This function might be used when LVGL is bound to other languages because
 180:Drivers/lvgl/src/extra/widgets/spinner/../../../../src/misc/lv_anim.h ****  * it's more consistent to have `lv_anim_t *` as first parameter.
 181:Drivers/lvgl/src/extra/widgets/spinner/../../../../src/misc/lv_anim.h ****  * The variable to animate can be stored in the animation's `user_data`
 182:Drivers/lvgl/src/extra/widgets/spinner/../../../../src/misc/lv_anim.h ****  * @param a         pointer to an initialized `lv_anim_t` variable
 183:Drivers/lvgl/src/extra/widgets/spinner/../../../../src/misc/lv_anim.h ****  * @param exec_cb   a function to execute.
 184:Drivers/lvgl/src/extra/widgets/spinner/../../../../src/misc/lv_anim.h ****  */
 185:Drivers/lvgl/src/extra/widgets/spinner/../../../../src/misc/lv_anim.h **** static inline void lv_anim_set_custom_exec_cb(lv_anim_t * a, lv_anim_custom_exec_cb_t exec_cb)
 186:Drivers/lvgl/src/extra/widgets/spinner/../../../../src/misc/lv_anim.h **** {
 187:Drivers/lvgl/src/extra/widgets/spinner/../../../../src/misc/lv_anim.h ****     a->var     = a;
 188:Drivers/lvgl/src/extra/widgets/spinner/../../../../src/misc/lv_anim.h ****     a->exec_cb = (lv_anim_exec_xcb_t)exec_cb;
 189:Drivers/lvgl/src/extra/widgets/spinner/../../../../src/misc/lv_anim.h **** }
 190:Drivers/lvgl/src/extra/widgets/spinner/../../../../src/misc/lv_anim.h **** 
 191:Drivers/lvgl/src/extra/widgets/spinner/../../../../src/misc/lv_anim.h **** /**
 192:Drivers/lvgl/src/extra/widgets/spinner/../../../../src/misc/lv_anim.h ****  * Set the path (curve) of the animation.
 193:Drivers/lvgl/src/extra/widgets/spinner/../../../../src/misc/lv_anim.h ****  * @param a         pointer to an initialized `lv_anim_t` variable
 194:Drivers/lvgl/src/extra/widgets/spinner/../../../../src/misc/lv_anim.h ****  * @param path_cb a function to set the current value of the animation.
 195:Drivers/lvgl/src/extra/widgets/spinner/../../../../src/misc/lv_anim.h ****  */
 196:Drivers/lvgl/src/extra/widgets/spinner/../../../../src/misc/lv_anim.h **** static inline void lv_anim_set_path_cb(lv_anim_t * a, lv_anim_path_cb_t path_cb)
 197:Drivers/lvgl/src/extra/widgets/spinner/../../../../src/misc/lv_anim.h **** {
 198:Drivers/lvgl/src/extra/widgets/spinner/../../../../src/misc/lv_anim.h ****     a->path_cb = path_cb;
 199:Drivers/lvgl/src/extra/widgets/spinner/../../../../src/misc/lv_anim.h **** }
 200:Drivers/lvgl/src/extra/widgets/spinner/../../../../src/misc/lv_anim.h **** 
 201:Drivers/lvgl/src/extra/widgets/spinner/../../../../src/misc/lv_anim.h **** /**
 202:Drivers/lvgl/src/extra/widgets/spinner/../../../../src/misc/lv_anim.h ****  * Set a function call when the animation really starts (considering `delay`)
 203:Drivers/lvgl/src/extra/widgets/spinner/../../../../src/misc/lv_anim.h ****  * @param a         pointer to an initialized `lv_anim_t` variable
 204:Drivers/lvgl/src/extra/widgets/spinner/../../../../src/misc/lv_anim.h ****  * @param start_cb  a function call when the animation starts
 205:Drivers/lvgl/src/extra/widgets/spinner/../../../../src/misc/lv_anim.h ****  */
 206:Drivers/lvgl/src/extra/widgets/spinner/../../../../src/misc/lv_anim.h **** static inline void lv_anim_set_start_cb(lv_anim_t * a, lv_anim_start_cb_t start_cb)
 207:Drivers/lvgl/src/extra/widgets/spinner/../../../../src/misc/lv_anim.h **** {
 208:Drivers/lvgl/src/extra/widgets/spinner/../../../../src/misc/lv_anim.h ****     a->start_cb = start_cb;
 209:Drivers/lvgl/src/extra/widgets/spinner/../../../../src/misc/lv_anim.h **** }
 210:Drivers/lvgl/src/extra/widgets/spinner/../../../../src/misc/lv_anim.h **** 
ARM GAS  /var/folders/0z/tsy30v1j4xl4_7kw94k978ww0000gn/T//cc13caU7.s 			page 8


 211:Drivers/lvgl/src/extra/widgets/spinner/../../../../src/misc/lv_anim.h **** /**
 212:Drivers/lvgl/src/extra/widgets/spinner/../../../../src/misc/lv_anim.h ****  * Set a function to use the current value of the variable and make start and end value
 213:Drivers/lvgl/src/extra/widgets/spinner/../../../../src/misc/lv_anim.h ****  * relative to the returned current value.
 214:Drivers/lvgl/src/extra/widgets/spinner/../../../../src/misc/lv_anim.h ****  * @param a             pointer to an initialized `lv_anim_t` variable
 215:Drivers/lvgl/src/extra/widgets/spinner/../../../../src/misc/lv_anim.h ****  * @param get_value_cb  a function call when the animation starts
 216:Drivers/lvgl/src/extra/widgets/spinner/../../../../src/misc/lv_anim.h ****  */
 217:Drivers/lvgl/src/extra/widgets/spinner/../../../../src/misc/lv_anim.h **** static inline void lv_anim_set_get_value_cb(lv_anim_t * a, lv_anim_get_value_cb_t get_value_cb)
 218:Drivers/lvgl/src/extra/widgets/spinner/../../../../src/misc/lv_anim.h **** {
 219:Drivers/lvgl/src/extra/widgets/spinner/../../../../src/misc/lv_anim.h ****     a->get_value_cb = get_value_cb;
 220:Drivers/lvgl/src/extra/widgets/spinner/../../../../src/misc/lv_anim.h **** }
 221:Drivers/lvgl/src/extra/widgets/spinner/../../../../src/misc/lv_anim.h **** 
 222:Drivers/lvgl/src/extra/widgets/spinner/../../../../src/misc/lv_anim.h **** /**
 223:Drivers/lvgl/src/extra/widgets/spinner/../../../../src/misc/lv_anim.h ****  * Set a function call when the animation is ready
 224:Drivers/lvgl/src/extra/widgets/spinner/../../../../src/misc/lv_anim.h ****  * @param a         pointer to an initialized `lv_anim_t` variable
 225:Drivers/lvgl/src/extra/widgets/spinner/../../../../src/misc/lv_anim.h ****  * @param ready_cb  a function call when the animation is ready
 226:Drivers/lvgl/src/extra/widgets/spinner/../../../../src/misc/lv_anim.h ****  */
 227:Drivers/lvgl/src/extra/widgets/spinner/../../../../src/misc/lv_anim.h **** static inline void lv_anim_set_ready_cb(lv_anim_t * a, lv_anim_ready_cb_t ready_cb)
 228:Drivers/lvgl/src/extra/widgets/spinner/../../../../src/misc/lv_anim.h **** {
 229:Drivers/lvgl/src/extra/widgets/spinner/../../../../src/misc/lv_anim.h ****     a->ready_cb = ready_cb;
 230:Drivers/lvgl/src/extra/widgets/spinner/../../../../src/misc/lv_anim.h **** }
 231:Drivers/lvgl/src/extra/widgets/spinner/../../../../src/misc/lv_anim.h **** 
 232:Drivers/lvgl/src/extra/widgets/spinner/../../../../src/misc/lv_anim.h **** /**
 233:Drivers/lvgl/src/extra/widgets/spinner/../../../../src/misc/lv_anim.h ****  * Set a function call when the animation is deleted.
 234:Drivers/lvgl/src/extra/widgets/spinner/../../../../src/misc/lv_anim.h ****  * @param a         pointer to an initialized `lv_anim_t` variable
 235:Drivers/lvgl/src/extra/widgets/spinner/../../../../src/misc/lv_anim.h ****  * @param deleted_cb  a function call when the animation is deleted
 236:Drivers/lvgl/src/extra/widgets/spinner/../../../../src/misc/lv_anim.h ****  */
 237:Drivers/lvgl/src/extra/widgets/spinner/../../../../src/misc/lv_anim.h **** static inline void lv_anim_set_deleted_cb(lv_anim_t * a, lv_anim_deleted_cb_t deleted_cb)
 238:Drivers/lvgl/src/extra/widgets/spinner/../../../../src/misc/lv_anim.h **** {
 239:Drivers/lvgl/src/extra/widgets/spinner/../../../../src/misc/lv_anim.h ****     a->deleted_cb = deleted_cb;
 240:Drivers/lvgl/src/extra/widgets/spinner/../../../../src/misc/lv_anim.h **** }
 241:Drivers/lvgl/src/extra/widgets/spinner/../../../../src/misc/lv_anim.h **** 
 242:Drivers/lvgl/src/extra/widgets/spinner/../../../../src/misc/lv_anim.h **** /**
 243:Drivers/lvgl/src/extra/widgets/spinner/../../../../src/misc/lv_anim.h ****  * Make the animation to play back to when the forward direction is ready
 244:Drivers/lvgl/src/extra/widgets/spinner/../../../../src/misc/lv_anim.h ****  * @param a         pointer to an initialized `lv_anim_t` variable
 245:Drivers/lvgl/src/extra/widgets/spinner/../../../../src/misc/lv_anim.h ****  * @param time      the duration of the playback animation in milliseconds. 0: disable playback
 246:Drivers/lvgl/src/extra/widgets/spinner/../../../../src/misc/lv_anim.h ****  */
 247:Drivers/lvgl/src/extra/widgets/spinner/../../../../src/misc/lv_anim.h **** static inline void lv_anim_set_playback_time(lv_anim_t * a, uint32_t time)
 248:Drivers/lvgl/src/extra/widgets/spinner/../../../../src/misc/lv_anim.h **** {
 249:Drivers/lvgl/src/extra/widgets/spinner/../../../../src/misc/lv_anim.h ****     a->playback_time = time;
 250:Drivers/lvgl/src/extra/widgets/spinner/../../../../src/misc/lv_anim.h **** }
 251:Drivers/lvgl/src/extra/widgets/spinner/../../../../src/misc/lv_anim.h **** 
 252:Drivers/lvgl/src/extra/widgets/spinner/../../../../src/misc/lv_anim.h **** /**
 253:Drivers/lvgl/src/extra/widgets/spinner/../../../../src/misc/lv_anim.h ****  * Make the animation to play back to when the forward direction is ready
 254:Drivers/lvgl/src/extra/widgets/spinner/../../../../src/misc/lv_anim.h ****  * @param a         pointer to an initialized `lv_anim_t` variable
 255:Drivers/lvgl/src/extra/widgets/spinner/../../../../src/misc/lv_anim.h ****  * @param delay     delay in milliseconds before starting the playback animation.
 256:Drivers/lvgl/src/extra/widgets/spinner/../../../../src/misc/lv_anim.h ****  */
 257:Drivers/lvgl/src/extra/widgets/spinner/../../../../src/misc/lv_anim.h **** static inline void lv_anim_set_playback_delay(lv_anim_t * a, uint32_t delay)
 258:Drivers/lvgl/src/extra/widgets/spinner/../../../../src/misc/lv_anim.h **** {
 259:Drivers/lvgl/src/extra/widgets/spinner/../../../../src/misc/lv_anim.h ****     a->playback_delay = delay;
 260:Drivers/lvgl/src/extra/widgets/spinner/../../../../src/misc/lv_anim.h **** }
 261:Drivers/lvgl/src/extra/widgets/spinner/../../../../src/misc/lv_anim.h **** 
 262:Drivers/lvgl/src/extra/widgets/spinner/../../../../src/misc/lv_anim.h **** /**
 263:Drivers/lvgl/src/extra/widgets/spinner/../../../../src/misc/lv_anim.h ****  * Make the animation repeat itself.
 264:Drivers/lvgl/src/extra/widgets/spinner/../../../../src/misc/lv_anim.h ****  * @param a         pointer to an initialized `lv_anim_t` variable
 265:Drivers/lvgl/src/extra/widgets/spinner/../../../../src/misc/lv_anim.h ****  * @param cnt       repeat count or `LV_ANIM_REPEAT_INFINITE` for infinite repetition. 0: to disabl
 266:Drivers/lvgl/src/extra/widgets/spinner/../../../../src/misc/lv_anim.h ****  */
 267:Drivers/lvgl/src/extra/widgets/spinner/../../../../src/misc/lv_anim.h **** static inline void lv_anim_set_repeat_count(lv_anim_t * a, uint16_t cnt)
ARM GAS  /var/folders/0z/tsy30v1j4xl4_7kw94k978ww0000gn/T//cc13caU7.s 			page 9


 268:Drivers/lvgl/src/extra/widgets/spinner/../../../../src/misc/lv_anim.h **** {
 269:Drivers/lvgl/src/extra/widgets/spinner/../../../../src/misc/lv_anim.h ****     a->repeat_cnt = cnt;
 107              		.loc 2 269 19 view .LVU22
 108 002a 4FF6FF73 		movw	r3, #65535
 109              	.LBE35:
 110              	.LBE34:
 111              	.LBB38:
 112              	.LBB27:
 150:Drivers/lvgl/src/extra/widgets/spinner/../../../../src/misc/lv_anim.h **** }
 113              		.loc 2 150 13 view .LVU23
 114 002e 0C91     		str	r1, [sp, #48]
 115              	.LBE27:
 116              	.LBE38:
 117              	.LBB39:
 118              	.LBB32:
 173:Drivers/lvgl/src/extra/widgets/spinner/../../../../src/misc/lv_anim.h ****     a->end_value = end;
 119              		.loc 2 173 18 view .LVU24
 120 0030 0B92     		str	r2, [sp, #44]
 121              	.LBE32:
 122              	.LBE39:
 123              	.LBB40:
 124              	.LBB36:
 125              		.loc 2 269 19 view .LVU25
 126 0032 ADF84430 		strh	r3, [sp, #68]	@ movhi
 127              	.LBE36:
 128              	.LBE40:
 129              	.LBB41:
 130              	.LBB20:
 128:Drivers/lvgl/src/extra/widgets/spinner/../../../../src/misc/lv_anim.h **** }
 131              		.loc 2 128 12 view .LVU26
 132 0036 0194     		str	r4, [sp, #4]
 133              	.LVL6:
 128:Drivers/lvgl/src/extra/widgets/spinner/../../../../src/misc/lv_anim.h **** }
 134              		.loc 2 128 12 view .LVU27
 135              	.LBE20:
 136              	.LBE41:
  77:Drivers/lvgl/src/extra/widgets/spinner/lv_spinner.c ****     lv_anim_set_repeat_count(&a, LV_ANIM_REPEAT_INFINITE);
 137              		.loc 1 77 5 is_stmt 1 view .LVU28
 138              	.LBB42:
 139              	.LBI21:
 138:Drivers/lvgl/src/extra/widgets/spinner/../../../../src/misc/lv_anim.h **** {
 140              		.loc 2 138 20 view .LVU29
 141              	.LBB24:
 140:Drivers/lvgl/src/extra/widgets/spinner/../../../../src/misc/lv_anim.h **** }
 142              		.loc 2 140 5 view .LVU30
 140:Drivers/lvgl/src/extra/widgets/spinner/../../../../src/misc/lv_anim.h **** }
 143              		.loc 2 140 5 is_stmt 0 view .LVU31
 144              	.LBE24:
 145              	.LBE42:
  78:Drivers/lvgl/src/extra/widgets/spinner/lv_spinner.c ****     lv_anim_set_time(&a, time_param);
 146              		.loc 1 78 5 is_stmt 1 view .LVU32
 147              	.LBB43:
 148              	.LBI34:
 267:Drivers/lvgl/src/extra/widgets/spinner/../../../../src/misc/lv_anim.h **** {
 149              		.loc 2 267 20 view .LVU33
 150              	.LBB37:
 151              		.loc 2 269 5 view .LVU34
ARM GAS  /var/folders/0z/tsy30v1j4xl4_7kw94k978ww0000gn/T//cc13caU7.s 			page 10


 152              		.loc 2 269 5 is_stmt 0 view .LVU35
 153              	.LBE37:
 154              	.LBE43:
  79:Drivers/lvgl/src/extra/widgets/spinner/lv_spinner.c ****     lv_anim_set_values(&a, arc_length_param, 360 + arc_length_param);
 155              		.loc 1 79 5 is_stmt 1 view .LVU36
 156              	.LBB44:
 157              	.LBI25:
 148:Drivers/lvgl/src/extra/widgets/spinner/../../../../src/misc/lv_anim.h **** {
 158              		.loc 2 148 20 view .LVU37
 159              	.LBB28:
 150:Drivers/lvgl/src/extra/widgets/spinner/../../../../src/misc/lv_anim.h **** }
 160              		.loc 2 150 5 view .LVU38
 150:Drivers/lvgl/src/extra/widgets/spinner/../../../../src/misc/lv_anim.h **** }
 161              		.loc 2 150 5 is_stmt 0 view .LVU39
 162              	.LBE28:
 163              	.LBE44:
  80:Drivers/lvgl/src/extra/widgets/spinner/lv_spinner.c ****     lv_anim_start(&a);
 164              		.loc 1 80 5 is_stmt 1 view .LVU40
 165              	.LBB45:
 166              	.LBI30:
 169:Drivers/lvgl/src/extra/widgets/spinner/../../../../src/misc/lv_anim.h **** {
 167              		.loc 2 169 20 view .LVU41
 168              	.LBB33:
 171:Drivers/lvgl/src/extra/widgets/spinner/../../../../src/misc/lv_anim.h ****     a->current_value = start;
 169              		.loc 2 171 5 view .LVU42
 172:Drivers/lvgl/src/extra/widgets/spinner/../../../../src/misc/lv_anim.h ****     a->end_value = end;
 170              		.loc 2 172 5 view .LVU43
 173:Drivers/lvgl/src/extra/widgets/spinner/../../../../src/misc/lv_anim.h **** }
 171              		.loc 2 173 5 view .LVU44
 173:Drivers/lvgl/src/extra/widgets/spinner/../../../../src/misc/lv_anim.h **** }
 172              		.loc 2 173 5 is_stmt 0 view .LVU45
 173              	.LBE33:
 174              	.LBE45:
 175              		.loc 1 81 5 is_stmt 1 view .LVU46
 176 0038 FFF7FEFF 		bl	lv_anim_start
 177              	.LVL7:
  82:Drivers/lvgl/src/extra/widgets/spinner/lv_spinner.c **** 
  83:Drivers/lvgl/src/extra/widgets/spinner/lv_spinner.c ****     lv_anim_set_path_cb(&a, lv_anim_path_ease_in_out);
 178              		.loc 1 83 5 view .LVU47
 179              	.LBB46:
 180              	.LBI46:
 196:Drivers/lvgl/src/extra/widgets/spinner/../../../../src/misc/lv_anim.h **** {
 181              		.loc 2 196 20 view .LVU48
 182              	.LBB47:
 198:Drivers/lvgl/src/extra/widgets/spinner/../../../../src/misc/lv_anim.h **** }
 183              		.loc 2 198 5 view .LVU49
 198:Drivers/lvgl/src/extra/widgets/spinner/../../../../src/misc/lv_anim.h **** }
 184              		.loc 2 198 16 is_stmt 0 view .LVU50
 185 003c 0F4B     		ldr	r3, .L4+12
 186 003e 0893     		str	r3, [sp, #32]
 187              	.LVL8:
 198:Drivers/lvgl/src/extra/widgets/spinner/../../../../src/misc/lv_anim.h **** }
 188              		.loc 2 198 16 view .LVU51
 189              	.LBE47:
 190              	.LBE46:
  84:Drivers/lvgl/src/extra/widgets/spinner/lv_spinner.c ****     lv_anim_set_values(&a, 0, 360);
 191              		.loc 1 84 5 is_stmt 1 view .LVU52
ARM GAS  /var/folders/0z/tsy30v1j4xl4_7kw94k978ww0000gn/T//cc13caU7.s 			page 11


 192              	.LBB48:
 193              	.LBI48:
 169:Drivers/lvgl/src/extra/widgets/spinner/../../../../src/misc/lv_anim.h **** {
 194              		.loc 2 169 20 view .LVU53
 195              	.LBB49:
 171:Drivers/lvgl/src/extra/widgets/spinner/../../../../src/misc/lv_anim.h ****     a->current_value = start;
 196              		.loc 2 171 5 view .LVU54
 171:Drivers/lvgl/src/extra/widgets/spinner/../../../../src/misc/lv_anim.h ****     a->current_value = start;
 197              		.loc 2 171 20 is_stmt 0 view .LVU55
 198 0040 0025     		movs	r5, #0
 199              	.LBE49:
 200              	.LBE48:
 201              	.LBB52:
 202              	.LBB53:
 140:Drivers/lvgl/src/extra/widgets/spinner/../../../../src/misc/lv_anim.h **** }
 203              		.loc 2 140 16 view .LVU56
 204 0042 0F4B     		ldr	r3, .L4+16
 205 0044 0293     		str	r3, [sp, #8]
 206              	.LBE53:
 207              	.LBE52:
 208              	.LBB55:
 209              	.LBB50:
 173:Drivers/lvgl/src/extra/widgets/spinner/../../../../src/misc/lv_anim.h **** }
 210              		.loc 2 173 18 view .LVU57
 211 0046 4FF4B476 		mov	r6, #360
 212              	.LBE50:
 213              	.LBE55:
  85:Drivers/lvgl/src/extra/widgets/spinner/lv_spinner.c ****     lv_anim_set_exec_cb(&a, arc_anim_start_angle);
  86:Drivers/lvgl/src/extra/widgets/spinner/lv_spinner.c ****     lv_anim_start(&a);
 214              		.loc 1 86 5 view .LVU58
 215 004a 01A8     		add	r0, sp, #4
 216              	.LVL9:
 217              	.LBB56:
 218              	.LBB51:
 172:Drivers/lvgl/src/extra/widgets/spinner/../../../../src/misc/lv_anim.h ****     a->end_value = end;
 219              		.loc 2 172 22 view .LVU59
 220 004c CDE90955 		strd	r5, r5, [sp, #36]
 173:Drivers/lvgl/src/extra/widgets/spinner/../../../../src/misc/lv_anim.h **** }
 221              		.loc 2 173 5 is_stmt 1 view .LVU60
 173:Drivers/lvgl/src/extra/widgets/spinner/../../../../src/misc/lv_anim.h **** }
 222              		.loc 2 173 18 is_stmt 0 view .LVU61
 223 0050 0B96     		str	r6, [sp, #44]
 224              	.LVL10:
 173:Drivers/lvgl/src/extra/widgets/spinner/../../../../src/misc/lv_anim.h **** }
 225              		.loc 2 173 18 view .LVU62
 226              	.LBE51:
 227              	.LBE56:
  85:Drivers/lvgl/src/extra/widgets/spinner/lv_spinner.c ****     lv_anim_set_exec_cb(&a, arc_anim_start_angle);
 228              		.loc 1 85 5 is_stmt 1 view .LVU63
 229              	.LBB57:
 230              	.LBI52:
 138:Drivers/lvgl/src/extra/widgets/spinner/../../../../src/misc/lv_anim.h **** {
 231              		.loc 2 138 20 view .LVU64
 232              	.LBB54:
 140:Drivers/lvgl/src/extra/widgets/spinner/../../../../src/misc/lv_anim.h **** }
 233              		.loc 2 140 5 view .LVU65
 140:Drivers/lvgl/src/extra/widgets/spinner/../../../../src/misc/lv_anim.h **** }
ARM GAS  /var/folders/0z/tsy30v1j4xl4_7kw94k978ww0000gn/T//cc13caU7.s 			page 12


 234              		.loc 2 140 5 is_stmt 0 view .LVU66
 235              	.LBE54:
 236              	.LBE57:
 237              		.loc 1 86 5 is_stmt 1 view .LVU67
 238 0052 FFF7FEFF 		bl	lv_anim_start
 239              	.LVL11:
  87:Drivers/lvgl/src/extra/widgets/spinner/lv_spinner.c **** 
  88:Drivers/lvgl/src/extra/widgets/spinner/lv_spinner.c ****     lv_arc_set_bg_angles(obj, 0, 360);
 240              		.loc 1 88 5 view .LVU68
 241 0056 3246     		mov	r2, r6
 242 0058 2946     		mov	r1, r5
 243 005a 2046     		mov	r0, r4
 244 005c FFF7FEFF 		bl	lv_arc_set_bg_angles
 245              	.LVL12:
  89:Drivers/lvgl/src/extra/widgets/spinner/lv_spinner.c ****     lv_arc_set_rotation(obj, 270);
 246              		.loc 1 89 5 view .LVU69
 247 0060 4FF48771 		mov	r1, #270
 248 0064 2046     		mov	r0, r4
 249 0066 FFF7FEFF 		bl	lv_arc_set_rotation
 250              	.LVL13:
  90:Drivers/lvgl/src/extra/widgets/spinner/lv_spinner.c **** }
 251              		.loc 1 90 1 is_stmt 0 view .LVU70
 252 006a 12B0     		add	sp, sp, #72
 253              		.cfi_def_cfa_offset 16
 254              		@ sp needed
 255 006c 70BD     		pop	{r4, r5, r6, pc}
 256              	.LVL14:
 257              	.L5:
 258              		.loc 1 90 1 view .LVU71
 259 006e 00BF     		.align	2
 260              	.L4:
 261 0070 00000000 		.word	.LANCHOR1
 262 0074 00000000 		.word	.LANCHOR0
 263 0078 00000000 		.word	arc_anim_end_angle
 264 007c 00000000 		.word	lv_anim_path_ease_in_out
 265 0080 00000000 		.word	arc_anim_start_angle
 266              		.cfi_endproc
 267              	.LFE205:
 269              		.section	.text.arc_anim_start_angle,"ax",%progbits
 270              		.align	1
 271              		.p2align 2,,3
 272              		.syntax unified
 273              		.thumb
 274              		.thumb_func
 276              	arc_anim_start_angle:
 277              	.LVL15:
 278              	.LFB206:
  91:Drivers/lvgl/src/extra/widgets/spinner/lv_spinner.c **** 
  92:Drivers/lvgl/src/extra/widgets/spinner/lv_spinner.c **** 
  93:Drivers/lvgl/src/extra/widgets/spinner/lv_spinner.c **** static void arc_anim_start_angle(void * obj, int32_t v)
  94:Drivers/lvgl/src/extra/widgets/spinner/lv_spinner.c **** {
 279              		.loc 1 94 1 is_stmt 1 view -0
 280              		.cfi_startproc
 281              		@ args = 0, pretend = 0, frame = 0
 282              		@ frame_needed = 0, uses_anonymous_args = 0
 283              		@ link register save eliminated.
  95:Drivers/lvgl/src/extra/widgets/spinner/lv_spinner.c ****     lv_arc_set_start_angle(obj, (uint16_t) v);
ARM GAS  /var/folders/0z/tsy30v1j4xl4_7kw94k978ww0000gn/T//cc13caU7.s 			page 13


 284              		.loc 1 95 5 view .LVU73
 285 0000 89B2     		uxth	r1, r1
 286              	.LVL16:
 287              		.loc 1 95 5 is_stmt 0 view .LVU74
 288 0002 FFF7FEBF 		b	lv_arc_set_start_angle
 289              	.LVL17:
 290              		.loc 1 95 5 view .LVU75
 291              		.cfi_endproc
 292              	.LFE206:
 294 0006 00BF     		.section	.text.arc_anim_end_angle,"ax",%progbits
 295              		.align	1
 296              		.p2align 2,,3
 297              		.syntax unified
 298              		.thumb
 299              		.thumb_func
 301              	arc_anim_end_angle:
 302              	.LVL18:
 303              	.LFB207:
  96:Drivers/lvgl/src/extra/widgets/spinner/lv_spinner.c **** }
  97:Drivers/lvgl/src/extra/widgets/spinner/lv_spinner.c **** 
  98:Drivers/lvgl/src/extra/widgets/spinner/lv_spinner.c **** 
  99:Drivers/lvgl/src/extra/widgets/spinner/lv_spinner.c **** static void arc_anim_end_angle(void * obj, int32_t v)
 100:Drivers/lvgl/src/extra/widgets/spinner/lv_spinner.c **** {
 304              		.loc 1 100 1 is_stmt 1 view -0
 305              		.cfi_startproc
 306              		@ args = 0, pretend = 0, frame = 0
 307              		@ frame_needed = 0, uses_anonymous_args = 0
 308              		@ link register save eliminated.
 101:Drivers/lvgl/src/extra/widgets/spinner/lv_spinner.c ****     lv_arc_set_end_angle(obj, (uint16_t) v);
 309              		.loc 1 101 5 view .LVU77
 310 0000 89B2     		uxth	r1, r1
 311              	.LVL19:
 312              		.loc 1 101 5 is_stmt 0 view .LVU78
 313 0002 FFF7FEBF 		b	lv_arc_set_end_angle
 314              	.LVL20:
 315              		.loc 1 101 5 view .LVU79
 316              		.cfi_endproc
 317              	.LFE207:
 319 0006 00BF     		.section	.text.lv_spinner_create,"ax",%progbits
 320              		.align	1
 321              		.p2align 2,,3
 322              		.global	lv_spinner_create
 323              		.syntax unified
 324              		.thumb
 325              		.thumb_func
 327              	lv_spinner_create:
 328              	.LVL21:
 329              	.LFB204:
  52:Drivers/lvgl/src/extra/widgets/spinner/lv_spinner.c ****     time_param = time;
 330              		.loc 1 52 1 is_stmt 1 view -0
 331              		.cfi_startproc
 332              		@ args = 0, pretend = 0, frame = 0
 333              		@ frame_needed = 0, uses_anonymous_args = 0
  53:Drivers/lvgl/src/extra/widgets/spinner/lv_spinner.c ****     arc_length_param = arc_length;
 334              		.loc 1 53 5 view .LVU81
  52:Drivers/lvgl/src/extra/widgets/spinner/lv_spinner.c ****     time_param = time;
 335              		.loc 1 52 1 is_stmt 0 view .LVU82
ARM GAS  /var/folders/0z/tsy30v1j4xl4_7kw94k978ww0000gn/T//cc13caU7.s 			page 14


 336 0000 38B5     		push	{r3, r4, r5, lr}
 337              		.cfi_def_cfa_offset 16
 338              		.cfi_offset 3, -16
 339              		.cfi_offset 4, -12
 340              		.cfi_offset 5, -8
 341              		.cfi_offset 14, -4
  54:Drivers/lvgl/src/extra/widgets/spinner/lv_spinner.c **** 
 342              		.loc 1 54 22 view .LVU83
 343 0002 074B     		ldr	r3, .L10
  53:Drivers/lvgl/src/extra/widgets/spinner/lv_spinner.c ****     arc_length_param = arc_length;
 344              		.loc 1 53 16 view .LVU84
 345 0004 074C     		ldr	r4, .L10+4
  54:Drivers/lvgl/src/extra/widgets/spinner/lv_spinner.c **** 
 346              		.loc 1 54 22 view .LVU85
 347 0006 1A60     		str	r2, [r3]
  52:Drivers/lvgl/src/extra/widgets/spinner/lv_spinner.c ****     time_param = time;
 348              		.loc 1 52 1 view .LVU86
 349 0008 0D46     		mov	r5, r1
  56:Drivers/lvgl/src/extra/widgets/spinner/lv_spinner.c ****     lv_obj_class_init_obj(obj);
 350              		.loc 1 56 22 view .LVU87
 351 000a 0146     		mov	r1, r0
 352              	.LVL22:
  56:Drivers/lvgl/src/extra/widgets/spinner/lv_spinner.c ****     lv_obj_class_init_obj(obj);
 353              		.loc 1 56 22 view .LVU88
 354 000c 0648     		ldr	r0, .L10+8
 355              	.LVL23:
  53:Drivers/lvgl/src/extra/widgets/spinner/lv_spinner.c ****     arc_length_param = arc_length;
 356              		.loc 1 53 16 view .LVU89
 357 000e 2560     		str	r5, [r4]
  54:Drivers/lvgl/src/extra/widgets/spinner/lv_spinner.c **** 
 358              		.loc 1 54 5 is_stmt 1 view .LVU90
  56:Drivers/lvgl/src/extra/widgets/spinner/lv_spinner.c ****     lv_obj_class_init_obj(obj);
 359              		.loc 1 56 5 view .LVU91
  56:Drivers/lvgl/src/extra/widgets/spinner/lv_spinner.c ****     lv_obj_class_init_obj(obj);
 360              		.loc 1 56 22 is_stmt 0 view .LVU92
 361 0010 FFF7FEFF 		bl	lv_obj_class_create_obj
 362              	.LVL24:
  56:Drivers/lvgl/src/extra/widgets/spinner/lv_spinner.c ****     lv_obj_class_init_obj(obj);
 363              		.loc 1 56 22 view .LVU93
 364 0014 0446     		mov	r4, r0
 365              	.LVL25:
  57:Drivers/lvgl/src/extra/widgets/spinner/lv_spinner.c ****     return obj;
 366              		.loc 1 57 5 is_stmt 1 view .LVU94
 367 0016 FFF7FEFF 		bl	lv_obj_class_init_obj
 368              	.LVL26:
  58:Drivers/lvgl/src/extra/widgets/spinner/lv_spinner.c **** }
 369              		.loc 1 58 5 view .LVU95
  59:Drivers/lvgl/src/extra/widgets/spinner/lv_spinner.c **** 
 370              		.loc 1 59 1 is_stmt 0 view .LVU96
 371 001a 2046     		mov	r0, r4
 372 001c 38BD     		pop	{r3, r4, r5, pc}
 373              	.LVL27:
 374              	.L11:
  59:Drivers/lvgl/src/extra/widgets/spinner/lv_spinner.c **** 
 375              		.loc 1 59 1 view .LVU97
 376 001e 00BF     		.align	2
 377              	.L10:
ARM GAS  /var/folders/0z/tsy30v1j4xl4_7kw94k978ww0000gn/T//cc13caU7.s 			page 15


 378 0020 00000000 		.word	.LANCHOR1
 379 0024 00000000 		.word	.LANCHOR0
 380 0028 00000000 		.word	.LANCHOR2
 381              		.cfi_endproc
 382              	.LFE204:
 384              		.global	lv_spinner_class
 385              		.section	.bss.arc_length_param,"aw",%nobits
 386              		.align	2
 387              		.set	.LANCHOR1,. + 0
 390              	arc_length_param:
 391 0000 00000000 		.space	4
 392              		.section	.bss.time_param,"aw",%nobits
 393              		.align	2
 394              		.set	.LANCHOR0,. + 0
 397              	time_param:
 398 0000 00000000 		.space	4
 399              		.section	.rodata.lv_spinner_class,"a"
 400              		.align	2
 401              		.set	.LANCHOR2,. + 0
 404              	lv_spinner_class:
 405 0000 00000000 		.word	lv_arc_class
 406 0004 00000000 		.word	lv_spinner_constructor
 407 0008 00000000 		.space	20
 407      00000000 
 407      00000000 
 407      00000000 
 407      00000000 
 408              		.text
 409              	.Letext0:
 410              		.file 3 "/Users/johannes/Library/Application Support/Code/User/globalStorage/bmd.stm32-for-vscode/
 411              		.file 4 "/Users/johannes/Library/Application Support/Code/User/globalStorage/bmd.stm32-for-vscode/
 412              		.file 5 "Drivers/lvgl/src/extra/widgets/spinner/../../../../src/hal/../draw/../misc/../font/../mis
 413              		.file 6 "Drivers/lvgl/src/extra/widgets/spinner/../../../../src/hal/../draw/../misc/lv_color.h"
 414              		.file 7 "Drivers/lvgl/src/extra/widgets/spinner/../../../../src/hal/../draw/../misc/lv_style.h"
 415              		.file 8 "Drivers/lvgl/src/extra/widgets/spinner/../../../../src/core/lv_obj.h"
 416              		.file 9 "Drivers/lvgl/src/extra/widgets/spinner/../../../../src/hal/../misc/lv_ll.h"
 417              		.file 10 "Drivers/lvgl/src/extra/widgets/spinner/../../../../src/core/lv_group.h"
 418              		.file 11 "Drivers/lvgl/src/extra/widgets/spinner/../../../../src/core/lv_obj_scroll.h"
 419              		.file 12 "Drivers/lvgl/src/extra/widgets/spinner/../../../../src/core/lv_obj_style.h"
 420              		.file 13 "Drivers/lvgl/src/extra/widgets/spinner/../../../../src/core/lv_obj_class.h"
 421              		.file 14 "Drivers/lvgl/src/extra/widgets/spinner/../../../../src/core/lv_event.h"
 422              		.file 15 "Drivers/lvgl/src/extra/widgets/spinner/../../../../src/widgets/lv_bar.h"
 423              		.file 16 "Drivers/lvgl/src/extra/widgets/spinner/../../../../src/extra/widgets/imgbtn/lv_imgbtn.h"
 424              		.file 17 "Drivers/lvgl/src/extra/widgets/spinner/../../../../src/widgets/lv_arc.h"
 425              		.file 18 "Drivers/lvgl/src/extra/widgets/spinner/lv_spinner.h"
ARM GAS  /var/folders/0z/tsy30v1j4xl4_7kw94k978ww0000gn/T//cc13caU7.s 			page 16


DEFINED SYMBOLS
                            *ABS*:0000000000000000 lv_spinner.c
/var/folders/0z/tsy30v1j4xl4_7kw94k978ww0000gn/T//cc13caU7.s:20     .text.lv_spinner_constructor:0000000000000000 $t
/var/folders/0z/tsy30v1j4xl4_7kw94k978ww0000gn/T//cc13caU7.s:26     .text.lv_spinner_constructor:0000000000000000 lv_spinner_constructor
/var/folders/0z/tsy30v1j4xl4_7kw94k978ww0000gn/T//cc13caU7.s:261    .text.lv_spinner_constructor:0000000000000070 $d
/var/folders/0z/tsy30v1j4xl4_7kw94k978ww0000gn/T//cc13caU7.s:301    .text.arc_anim_end_angle:0000000000000000 arc_anim_end_angle
/var/folders/0z/tsy30v1j4xl4_7kw94k978ww0000gn/T//cc13caU7.s:276    .text.arc_anim_start_angle:0000000000000000 arc_anim_start_angle
/var/folders/0z/tsy30v1j4xl4_7kw94k978ww0000gn/T//cc13caU7.s:270    .text.arc_anim_start_angle:0000000000000000 $t
/var/folders/0z/tsy30v1j4xl4_7kw94k978ww0000gn/T//cc13caU7.s:295    .text.arc_anim_end_angle:0000000000000000 $t
/var/folders/0z/tsy30v1j4xl4_7kw94k978ww0000gn/T//cc13caU7.s:320    .text.lv_spinner_create:0000000000000000 $t
/var/folders/0z/tsy30v1j4xl4_7kw94k978ww0000gn/T//cc13caU7.s:327    .text.lv_spinner_create:0000000000000000 lv_spinner_create
/var/folders/0z/tsy30v1j4xl4_7kw94k978ww0000gn/T//cc13caU7.s:378    .text.lv_spinner_create:0000000000000020 $d
/var/folders/0z/tsy30v1j4xl4_7kw94k978ww0000gn/T//cc13caU7.s:404    .rodata.lv_spinner_class:0000000000000000 lv_spinner_class
/var/folders/0z/tsy30v1j4xl4_7kw94k978ww0000gn/T//cc13caU7.s:386    .bss.arc_length_param:0000000000000000 $d
/var/folders/0z/tsy30v1j4xl4_7kw94k978ww0000gn/T//cc13caU7.s:390    .bss.arc_length_param:0000000000000000 arc_length_param
/var/folders/0z/tsy30v1j4xl4_7kw94k978ww0000gn/T//cc13caU7.s:393    .bss.time_param:0000000000000000 $d
/var/folders/0z/tsy30v1j4xl4_7kw94k978ww0000gn/T//cc13caU7.s:397    .bss.time_param:0000000000000000 time_param
/var/folders/0z/tsy30v1j4xl4_7kw94k978ww0000gn/T//cc13caU7.s:400    .rodata.lv_spinner_class:0000000000000000 $d

UNDEFINED SYMBOLS
lv_obj_clear_flag
lv_anim_init
lv_anim_start
lv_arc_set_bg_angles
lv_arc_set_rotation
lv_anim_path_ease_in_out
lv_arc_set_start_angle
lv_arc_set_end_angle
lv_obj_class_create_obj
lv_obj_class_init_obj
lv_arc_class
