ARM GAS  /var/folders/0z/tsy30v1j4xl4_7kw94k978ww0000gn/T//cch0tet4.s 			page 1


   1              		.cpu cortex-m4
   2              		.arch armv7e-m
   3              		.fpu fpv4-sp-d16
   4              		.eabi_attribute 27, 1
   5              		.eabi_attribute 28, 1
   6              		.eabi_attribute 20, 1
   7              		.eabi_attribute 21, 1
   8              		.eabi_attribute 23, 3
   9              		.eabi_attribute 24, 1
  10              		.eabi_attribute 25, 1
  11              		.eabi_attribute 26, 1
  12              		.eabi_attribute 30, 2
  13              		.eabi_attribute 34, 1
  14              		.eabi_attribute 18, 4
  15              		.file	"lv_switch.c"
  16              		.text
  17              	.Ltext0:
  18              		.cfi_sections	.debug_frame
  19              		.section	.text.lv_switch_anim_ready,"ax",%progbits
  20              		.align	1
  21              		.p2align 2,,3
  22              		.syntax unified
  23              		.thumb
  24              		.thumb_func
  26              	lv_switch_anim_ready:
  27              	.LVL0:
  28              	.LFB173:
  29              		.file 1 "Drivers/lvgl/src/widgets/lv_switch.c"
   1:Drivers/lvgl/src/widgets/lv_switch.c **** /**
   2:Drivers/lvgl/src/widgets/lv_switch.c ****  * @file lv_sw.c
   3:Drivers/lvgl/src/widgets/lv_switch.c ****  *
   4:Drivers/lvgl/src/widgets/lv_switch.c ****  */
   5:Drivers/lvgl/src/widgets/lv_switch.c **** 
   6:Drivers/lvgl/src/widgets/lv_switch.c **** /*********************
   7:Drivers/lvgl/src/widgets/lv_switch.c ****  *      INCLUDES
   8:Drivers/lvgl/src/widgets/lv_switch.c ****  *********************/
   9:Drivers/lvgl/src/widgets/lv_switch.c **** #include "lv_switch.h"
  10:Drivers/lvgl/src/widgets/lv_switch.c **** 
  11:Drivers/lvgl/src/widgets/lv_switch.c **** #if LV_USE_SWITCH != 0
  12:Drivers/lvgl/src/widgets/lv_switch.c **** 
  13:Drivers/lvgl/src/widgets/lv_switch.c **** #include "../misc/lv_assert.h"
  14:Drivers/lvgl/src/widgets/lv_switch.c **** #include "../misc/lv_math.h"
  15:Drivers/lvgl/src/widgets/lv_switch.c **** #include "../misc/lv_anim.h"
  16:Drivers/lvgl/src/widgets/lv_switch.c **** #include "../core/lv_indev.h"
  17:Drivers/lvgl/src/widgets/lv_switch.c **** #include "../core/lv_disp.h"
  18:Drivers/lvgl/src/widgets/lv_switch.c **** #include "lv_img.h"
  19:Drivers/lvgl/src/widgets/lv_switch.c **** 
  20:Drivers/lvgl/src/widgets/lv_switch.c **** /*********************
  21:Drivers/lvgl/src/widgets/lv_switch.c ****  *      DEFINES
  22:Drivers/lvgl/src/widgets/lv_switch.c ****  *********************/
  23:Drivers/lvgl/src/widgets/lv_switch.c **** #define MY_CLASS &lv_switch_class
  24:Drivers/lvgl/src/widgets/lv_switch.c **** 
  25:Drivers/lvgl/src/widgets/lv_switch.c **** #define LV_SWITCH_IS_ANIMATING(sw) (((sw)->anim_state) != LV_SWITCH_ANIM_STATE_INV)
  26:Drivers/lvgl/src/widgets/lv_switch.c **** 
  27:Drivers/lvgl/src/widgets/lv_switch.c **** /** Switch animation start value. (Not the real value of the switch just indicates process animatio
  28:Drivers/lvgl/src/widgets/lv_switch.c **** #define LV_SWITCH_ANIM_STATE_START 0
  29:Drivers/lvgl/src/widgets/lv_switch.c **** 
ARM GAS  /var/folders/0z/tsy30v1j4xl4_7kw94k978ww0000gn/T//cch0tet4.s 			page 2


  30:Drivers/lvgl/src/widgets/lv_switch.c **** /** Switch animation end value.  (Not the real value of the switch just indicates process animation
  31:Drivers/lvgl/src/widgets/lv_switch.c **** #define LV_SWITCH_ANIM_STATE_END   256
  32:Drivers/lvgl/src/widgets/lv_switch.c **** 
  33:Drivers/lvgl/src/widgets/lv_switch.c **** /** Mark no animation is in progress*/
  34:Drivers/lvgl/src/widgets/lv_switch.c **** #define LV_SWITCH_ANIM_STATE_INV   -1
  35:Drivers/lvgl/src/widgets/lv_switch.c **** 
  36:Drivers/lvgl/src/widgets/lv_switch.c **** /**********************
  37:Drivers/lvgl/src/widgets/lv_switch.c ****  *      TYPEDEFS
  38:Drivers/lvgl/src/widgets/lv_switch.c ****  **********************/
  39:Drivers/lvgl/src/widgets/lv_switch.c **** 
  40:Drivers/lvgl/src/widgets/lv_switch.c **** /**********************
  41:Drivers/lvgl/src/widgets/lv_switch.c ****  *  STATIC PROTOTYPES
  42:Drivers/lvgl/src/widgets/lv_switch.c ****  **********************/
  43:Drivers/lvgl/src/widgets/lv_switch.c **** static void lv_switch_constructor(const lv_obj_class_t * class_p, lv_obj_t * obj);
  44:Drivers/lvgl/src/widgets/lv_switch.c **** static void lv_switch_destructor(const lv_obj_class_t * class_p, lv_obj_t * obj);
  45:Drivers/lvgl/src/widgets/lv_switch.c **** static void lv_switch_event(const lv_obj_class_t * class_p, lv_event_t * e);
  46:Drivers/lvgl/src/widgets/lv_switch.c **** static void draw_main(lv_event_t * e);
  47:Drivers/lvgl/src/widgets/lv_switch.c **** 
  48:Drivers/lvgl/src/widgets/lv_switch.c **** static void lv_switch_anim_exec_cb(void * sw, int32_t value);
  49:Drivers/lvgl/src/widgets/lv_switch.c **** static void lv_switch_trigger_anim(lv_obj_t * obj);
  50:Drivers/lvgl/src/widgets/lv_switch.c **** static void lv_switch_anim_ready(lv_anim_t * a);
  51:Drivers/lvgl/src/widgets/lv_switch.c **** /**********************
  52:Drivers/lvgl/src/widgets/lv_switch.c ****  *  STATIC VARIABLES
  53:Drivers/lvgl/src/widgets/lv_switch.c ****  **********************/
  54:Drivers/lvgl/src/widgets/lv_switch.c **** const lv_obj_class_t lv_switch_class = {
  55:Drivers/lvgl/src/widgets/lv_switch.c ****     .constructor_cb = lv_switch_constructor,
  56:Drivers/lvgl/src/widgets/lv_switch.c ****     .destructor_cb = lv_switch_destructor,
  57:Drivers/lvgl/src/widgets/lv_switch.c ****     .event_cb = lv_switch_event,
  58:Drivers/lvgl/src/widgets/lv_switch.c ****     .width_def = (4 * LV_DPI_DEF) / 10,
  59:Drivers/lvgl/src/widgets/lv_switch.c ****     .height_def = (4 * LV_DPI_DEF) / 17,
  60:Drivers/lvgl/src/widgets/lv_switch.c ****     .group_def = LV_OBJ_CLASS_GROUP_DEF_TRUE,
  61:Drivers/lvgl/src/widgets/lv_switch.c ****     .instance_size = sizeof(lv_switch_t),
  62:Drivers/lvgl/src/widgets/lv_switch.c ****     .base_class = &lv_obj_class
  63:Drivers/lvgl/src/widgets/lv_switch.c **** };
  64:Drivers/lvgl/src/widgets/lv_switch.c **** 
  65:Drivers/lvgl/src/widgets/lv_switch.c **** /**********************
  66:Drivers/lvgl/src/widgets/lv_switch.c ****  *      MACROS
  67:Drivers/lvgl/src/widgets/lv_switch.c ****  **********************/
  68:Drivers/lvgl/src/widgets/lv_switch.c **** 
  69:Drivers/lvgl/src/widgets/lv_switch.c **** /**********************
  70:Drivers/lvgl/src/widgets/lv_switch.c ****  *   GLOBAL FUNCTIONS
  71:Drivers/lvgl/src/widgets/lv_switch.c ****  **********************/
  72:Drivers/lvgl/src/widgets/lv_switch.c **** 
  73:Drivers/lvgl/src/widgets/lv_switch.c **** lv_obj_t * lv_switch_create(lv_obj_t * parent)
  74:Drivers/lvgl/src/widgets/lv_switch.c **** {
  75:Drivers/lvgl/src/widgets/lv_switch.c ****     LV_LOG_INFO("begin");
  76:Drivers/lvgl/src/widgets/lv_switch.c ****     lv_obj_t * obj = lv_obj_class_create_obj(MY_CLASS, parent);
  77:Drivers/lvgl/src/widgets/lv_switch.c ****     lv_obj_class_init_obj(obj);
  78:Drivers/lvgl/src/widgets/lv_switch.c ****     return obj;
  79:Drivers/lvgl/src/widgets/lv_switch.c **** }
  80:Drivers/lvgl/src/widgets/lv_switch.c **** 
  81:Drivers/lvgl/src/widgets/lv_switch.c **** /**********************
  82:Drivers/lvgl/src/widgets/lv_switch.c ****  *   STATIC FUNCTIONS
  83:Drivers/lvgl/src/widgets/lv_switch.c ****  **********************/
  84:Drivers/lvgl/src/widgets/lv_switch.c **** 
  85:Drivers/lvgl/src/widgets/lv_switch.c **** static void lv_switch_constructor(const lv_obj_class_t * class_p, lv_obj_t * obj)
  86:Drivers/lvgl/src/widgets/lv_switch.c **** {
ARM GAS  /var/folders/0z/tsy30v1j4xl4_7kw94k978ww0000gn/T//cch0tet4.s 			page 3


  87:Drivers/lvgl/src/widgets/lv_switch.c ****     LV_UNUSED(class_p);
  88:Drivers/lvgl/src/widgets/lv_switch.c ****     LV_TRACE_OBJ_CREATE("begin");
  89:Drivers/lvgl/src/widgets/lv_switch.c **** 
  90:Drivers/lvgl/src/widgets/lv_switch.c ****     lv_switch_t * sw = (lv_switch_t *)obj;
  91:Drivers/lvgl/src/widgets/lv_switch.c **** 
  92:Drivers/lvgl/src/widgets/lv_switch.c ****     sw->anim_state = LV_SWITCH_ANIM_STATE_INV;
  93:Drivers/lvgl/src/widgets/lv_switch.c **** 
  94:Drivers/lvgl/src/widgets/lv_switch.c ****     lv_obj_clear_flag(obj, LV_OBJ_FLAG_SCROLLABLE);
  95:Drivers/lvgl/src/widgets/lv_switch.c ****     lv_obj_add_flag(obj, LV_OBJ_FLAG_CHECKABLE);
  96:Drivers/lvgl/src/widgets/lv_switch.c ****     lv_obj_add_flag(obj, LV_OBJ_FLAG_SCROLL_ON_FOCUS);
  97:Drivers/lvgl/src/widgets/lv_switch.c **** 
  98:Drivers/lvgl/src/widgets/lv_switch.c ****     LV_TRACE_OBJ_CREATE("finished");
  99:Drivers/lvgl/src/widgets/lv_switch.c **** }
 100:Drivers/lvgl/src/widgets/lv_switch.c **** 
 101:Drivers/lvgl/src/widgets/lv_switch.c **** static void lv_switch_destructor(const lv_obj_class_t * class_p, lv_obj_t * obj)
 102:Drivers/lvgl/src/widgets/lv_switch.c **** {
 103:Drivers/lvgl/src/widgets/lv_switch.c ****     LV_UNUSED(class_p);
 104:Drivers/lvgl/src/widgets/lv_switch.c ****     lv_switch_t * sw = (lv_switch_t *)obj;
 105:Drivers/lvgl/src/widgets/lv_switch.c **** 
 106:Drivers/lvgl/src/widgets/lv_switch.c ****     lv_anim_del(sw, NULL);
 107:Drivers/lvgl/src/widgets/lv_switch.c **** }
 108:Drivers/lvgl/src/widgets/lv_switch.c **** 
 109:Drivers/lvgl/src/widgets/lv_switch.c **** static void lv_switch_event(const lv_obj_class_t * class_p, lv_event_t * e)
 110:Drivers/lvgl/src/widgets/lv_switch.c **** {
 111:Drivers/lvgl/src/widgets/lv_switch.c ****     LV_UNUSED(class_p);
 112:Drivers/lvgl/src/widgets/lv_switch.c **** 
 113:Drivers/lvgl/src/widgets/lv_switch.c ****     lv_res_t res;
 114:Drivers/lvgl/src/widgets/lv_switch.c **** 
 115:Drivers/lvgl/src/widgets/lv_switch.c ****     /*Call the ancestor's event handler*/
 116:Drivers/lvgl/src/widgets/lv_switch.c ****     res = lv_obj_event_base(MY_CLASS, e);
 117:Drivers/lvgl/src/widgets/lv_switch.c ****     if(res != LV_RES_OK) return;
 118:Drivers/lvgl/src/widgets/lv_switch.c **** 
 119:Drivers/lvgl/src/widgets/lv_switch.c ****     lv_event_code_t code = lv_event_get_code(e);
 120:Drivers/lvgl/src/widgets/lv_switch.c ****     lv_obj_t * obj = lv_event_get_target(e);
 121:Drivers/lvgl/src/widgets/lv_switch.c **** 
 122:Drivers/lvgl/src/widgets/lv_switch.c ****     if(code == LV_EVENT_REFR_EXT_DRAW_SIZE) {
 123:Drivers/lvgl/src/widgets/lv_switch.c ****         lv_coord_t knob_left = lv_obj_get_style_pad_left(obj,   LV_PART_KNOB);
 124:Drivers/lvgl/src/widgets/lv_switch.c ****         lv_coord_t knob_right = lv_obj_get_style_pad_right(obj,  LV_PART_KNOB);
 125:Drivers/lvgl/src/widgets/lv_switch.c ****         lv_coord_t knob_top = lv_obj_get_style_pad_top(obj,    LV_PART_KNOB);
 126:Drivers/lvgl/src/widgets/lv_switch.c ****         lv_coord_t knob_bottom = lv_obj_get_style_pad_bottom(obj, LV_PART_KNOB);
 127:Drivers/lvgl/src/widgets/lv_switch.c **** 
 128:Drivers/lvgl/src/widgets/lv_switch.c ****         /*The smaller size is the knob diameter*/
 129:Drivers/lvgl/src/widgets/lv_switch.c ****         lv_coord_t knob_size = LV_MAX4(knob_left, knob_right, knob_bottom, knob_top);
 130:Drivers/lvgl/src/widgets/lv_switch.c ****         knob_size += _LV_SWITCH_KNOB_EXT_AREA_CORRECTION;
 131:Drivers/lvgl/src/widgets/lv_switch.c ****         knob_size += lv_obj_calculate_ext_draw_size(obj, LV_PART_KNOB);
 132:Drivers/lvgl/src/widgets/lv_switch.c **** 
 133:Drivers/lvgl/src/widgets/lv_switch.c ****         lv_coord_t * s = lv_event_get_param(e);
 134:Drivers/lvgl/src/widgets/lv_switch.c ****         *s = LV_MAX(*s, knob_size);
 135:Drivers/lvgl/src/widgets/lv_switch.c ****         *s = LV_MAX(*s, lv_obj_calculate_ext_draw_size(obj, LV_PART_INDICATOR));
 136:Drivers/lvgl/src/widgets/lv_switch.c ****     }
 137:Drivers/lvgl/src/widgets/lv_switch.c ****     else if(code == LV_EVENT_VALUE_CHANGED) {
 138:Drivers/lvgl/src/widgets/lv_switch.c ****         lv_switch_trigger_anim(obj);
 139:Drivers/lvgl/src/widgets/lv_switch.c ****         lv_obj_invalidate(obj);
 140:Drivers/lvgl/src/widgets/lv_switch.c ****     }
 141:Drivers/lvgl/src/widgets/lv_switch.c ****     else if(code == LV_EVENT_DRAW_MAIN) {
 142:Drivers/lvgl/src/widgets/lv_switch.c ****         draw_main(e);
 143:Drivers/lvgl/src/widgets/lv_switch.c ****     }
ARM GAS  /var/folders/0z/tsy30v1j4xl4_7kw94k978ww0000gn/T//cch0tet4.s 			page 4


 144:Drivers/lvgl/src/widgets/lv_switch.c **** }
 145:Drivers/lvgl/src/widgets/lv_switch.c **** 
 146:Drivers/lvgl/src/widgets/lv_switch.c **** static void draw_main(lv_event_t * e)
 147:Drivers/lvgl/src/widgets/lv_switch.c **** {
 148:Drivers/lvgl/src/widgets/lv_switch.c ****     lv_obj_t * obj = lv_event_get_target(e);
 149:Drivers/lvgl/src/widgets/lv_switch.c ****     lv_switch_t * sw = (lv_switch_t *)obj;
 150:Drivers/lvgl/src/widgets/lv_switch.c **** 
 151:Drivers/lvgl/src/widgets/lv_switch.c ****     lv_draw_ctx_t * draw_ctx = lv_event_get_draw_ctx(e);
 152:Drivers/lvgl/src/widgets/lv_switch.c **** 
 153:Drivers/lvgl/src/widgets/lv_switch.c ****     /*Calculate the indicator area*/
 154:Drivers/lvgl/src/widgets/lv_switch.c ****     lv_coord_t bg_left = lv_obj_get_style_pad_left(obj,     LV_PART_MAIN);
 155:Drivers/lvgl/src/widgets/lv_switch.c ****     lv_coord_t bg_right = lv_obj_get_style_pad_right(obj,   LV_PART_MAIN);
 156:Drivers/lvgl/src/widgets/lv_switch.c ****     lv_coord_t bg_top = lv_obj_get_style_pad_top(obj,       LV_PART_MAIN);
 157:Drivers/lvgl/src/widgets/lv_switch.c ****     lv_coord_t bg_bottom = lv_obj_get_style_pad_bottom(obj, LV_PART_MAIN);
 158:Drivers/lvgl/src/widgets/lv_switch.c **** 
 159:Drivers/lvgl/src/widgets/lv_switch.c ****     /*Draw the indicator*/
 160:Drivers/lvgl/src/widgets/lv_switch.c ****     /*Respect the background's padding*/
 161:Drivers/lvgl/src/widgets/lv_switch.c ****     lv_area_t indic_area;
 162:Drivers/lvgl/src/widgets/lv_switch.c ****     lv_area_copy(&indic_area, &obj->coords);
 163:Drivers/lvgl/src/widgets/lv_switch.c ****     indic_area.x1 += bg_left;
 164:Drivers/lvgl/src/widgets/lv_switch.c ****     indic_area.x2 -= bg_right;
 165:Drivers/lvgl/src/widgets/lv_switch.c ****     indic_area.y1 += bg_top;
 166:Drivers/lvgl/src/widgets/lv_switch.c ****     indic_area.y2 -= bg_bottom;
 167:Drivers/lvgl/src/widgets/lv_switch.c **** 
 168:Drivers/lvgl/src/widgets/lv_switch.c ****     lv_draw_rect_dsc_t draw_indic_dsc;
 169:Drivers/lvgl/src/widgets/lv_switch.c ****     lv_draw_rect_dsc_init(&draw_indic_dsc);
 170:Drivers/lvgl/src/widgets/lv_switch.c ****     lv_obj_init_draw_rect_dsc(obj, LV_PART_INDICATOR, &draw_indic_dsc);
 171:Drivers/lvgl/src/widgets/lv_switch.c ****     lv_draw_rect(draw_ctx, &draw_indic_dsc, &indic_area);
 172:Drivers/lvgl/src/widgets/lv_switch.c **** 
 173:Drivers/lvgl/src/widgets/lv_switch.c ****     /*Draw the knob*/
 174:Drivers/lvgl/src/widgets/lv_switch.c ****     lv_coord_t anim_value_x = 0;
 175:Drivers/lvgl/src/widgets/lv_switch.c ****     lv_coord_t knob_size = lv_obj_get_height(obj);
 176:Drivers/lvgl/src/widgets/lv_switch.c ****     lv_coord_t anim_length = lv_area_get_width(&obj->coords) - knob_size;
 177:Drivers/lvgl/src/widgets/lv_switch.c **** 
 178:Drivers/lvgl/src/widgets/lv_switch.c ****     if(LV_SWITCH_IS_ANIMATING(sw)) {
 179:Drivers/lvgl/src/widgets/lv_switch.c ****         /* Use the animation's coordinate */
 180:Drivers/lvgl/src/widgets/lv_switch.c ****         anim_value_x = (anim_length * sw->anim_state) / LV_SWITCH_ANIM_STATE_END;
 181:Drivers/lvgl/src/widgets/lv_switch.c ****     }
 182:Drivers/lvgl/src/widgets/lv_switch.c ****     else {
 183:Drivers/lvgl/src/widgets/lv_switch.c ****         /* Use LV_STATE_CHECKED to decide the coordinate */
 184:Drivers/lvgl/src/widgets/lv_switch.c ****         bool chk = lv_obj_get_state(obj) & LV_STATE_CHECKED;
 185:Drivers/lvgl/src/widgets/lv_switch.c ****         anim_value_x = chk ? anim_length : 0;
 186:Drivers/lvgl/src/widgets/lv_switch.c ****     }
 187:Drivers/lvgl/src/widgets/lv_switch.c **** 
 188:Drivers/lvgl/src/widgets/lv_switch.c ****     if(LV_BASE_DIR_RTL == lv_obj_get_style_base_dir(obj, LV_PART_MAIN)) {
 189:Drivers/lvgl/src/widgets/lv_switch.c ****         anim_value_x = anim_length - anim_value_x;
 190:Drivers/lvgl/src/widgets/lv_switch.c ****     }
 191:Drivers/lvgl/src/widgets/lv_switch.c **** 
 192:Drivers/lvgl/src/widgets/lv_switch.c ****     lv_area_t knob_area;
 193:Drivers/lvgl/src/widgets/lv_switch.c ****     knob_area.x1 = obj->coords.x1 + anim_value_x;
 194:Drivers/lvgl/src/widgets/lv_switch.c ****     knob_area.x2 = knob_area.x1 + knob_size;
 195:Drivers/lvgl/src/widgets/lv_switch.c **** 
 196:Drivers/lvgl/src/widgets/lv_switch.c ****     knob_area.y1 = obj->coords.y1;
 197:Drivers/lvgl/src/widgets/lv_switch.c ****     knob_area.y2 = obj->coords.y2;
 198:Drivers/lvgl/src/widgets/lv_switch.c **** 
 199:Drivers/lvgl/src/widgets/lv_switch.c ****     lv_coord_t knob_left = lv_obj_get_style_pad_left(obj, LV_PART_KNOB);
 200:Drivers/lvgl/src/widgets/lv_switch.c ****     lv_coord_t knob_right = lv_obj_get_style_pad_right(obj, LV_PART_KNOB);
ARM GAS  /var/folders/0z/tsy30v1j4xl4_7kw94k978ww0000gn/T//cch0tet4.s 			page 5


 201:Drivers/lvgl/src/widgets/lv_switch.c ****     lv_coord_t knob_top = lv_obj_get_style_pad_top(obj, LV_PART_KNOB);
 202:Drivers/lvgl/src/widgets/lv_switch.c ****     lv_coord_t knob_bottom = lv_obj_get_style_pad_bottom(obj, LV_PART_KNOB);
 203:Drivers/lvgl/src/widgets/lv_switch.c **** 
 204:Drivers/lvgl/src/widgets/lv_switch.c ****     /*Apply the paddings on the knob area*/
 205:Drivers/lvgl/src/widgets/lv_switch.c ****     knob_area.x1 -= knob_left;
 206:Drivers/lvgl/src/widgets/lv_switch.c ****     knob_area.x2 += knob_right;
 207:Drivers/lvgl/src/widgets/lv_switch.c ****     knob_area.y1 -= knob_top;
 208:Drivers/lvgl/src/widgets/lv_switch.c ****     knob_area.y2 += knob_bottom;
 209:Drivers/lvgl/src/widgets/lv_switch.c **** 
 210:Drivers/lvgl/src/widgets/lv_switch.c ****     lv_draw_rect_dsc_t knob_rect_dsc;
 211:Drivers/lvgl/src/widgets/lv_switch.c ****     lv_draw_rect_dsc_init(&knob_rect_dsc);
 212:Drivers/lvgl/src/widgets/lv_switch.c ****     lv_obj_init_draw_rect_dsc(obj, LV_PART_KNOB, &knob_rect_dsc);
 213:Drivers/lvgl/src/widgets/lv_switch.c **** 
 214:Drivers/lvgl/src/widgets/lv_switch.c ****     lv_draw_rect(draw_ctx, &knob_rect_dsc, &knob_area);
 215:Drivers/lvgl/src/widgets/lv_switch.c **** }
 216:Drivers/lvgl/src/widgets/lv_switch.c **** 
 217:Drivers/lvgl/src/widgets/lv_switch.c **** static void lv_switch_anim_exec_cb(void * var, int32_t value)
 218:Drivers/lvgl/src/widgets/lv_switch.c **** {
 219:Drivers/lvgl/src/widgets/lv_switch.c ****     lv_switch_t * sw = var;
 220:Drivers/lvgl/src/widgets/lv_switch.c ****     sw->anim_state = value;
 221:Drivers/lvgl/src/widgets/lv_switch.c ****     lv_obj_invalidate((lv_obj_t *)sw);
 222:Drivers/lvgl/src/widgets/lv_switch.c **** }
 223:Drivers/lvgl/src/widgets/lv_switch.c **** 
 224:Drivers/lvgl/src/widgets/lv_switch.c **** /**
 225:Drivers/lvgl/src/widgets/lv_switch.c ****  * Resets the switch's animation state to "no animation in progress".
 226:Drivers/lvgl/src/widgets/lv_switch.c ****  */
 227:Drivers/lvgl/src/widgets/lv_switch.c **** static void lv_switch_anim_ready(lv_anim_t * a)
 228:Drivers/lvgl/src/widgets/lv_switch.c **** {
  30              		.loc 1 228 1 view -0
  31              		.cfi_startproc
  32              		@ args = 0, pretend = 0, frame = 0
  33              		@ frame_needed = 0, uses_anonymous_args = 0
  34              		@ link register save eliminated.
 229:Drivers/lvgl/src/widgets/lv_switch.c ****     lv_switch_t * sw = a->var;
  35              		.loc 1 229 5 view .LVU1
  36              		.loc 1 229 19 is_stmt 0 view .LVU2
  37 0000 0068     		ldr	r0, [r0]
  38              	.LVL1:
 230:Drivers/lvgl/src/widgets/lv_switch.c ****     sw->anim_state = LV_SWITCH_ANIM_STATE_INV;
  39              		.loc 1 230 5 is_stmt 1 view .LVU3
  40              		.loc 1 230 20 is_stmt 0 view .LVU4
  41 0002 4FF0FF33 		mov	r3, #-1
  42 0006 4362     		str	r3, [r0, #36]
 231:Drivers/lvgl/src/widgets/lv_switch.c ****     lv_obj_invalidate((lv_obj_t *)sw);
  43              		.loc 1 231 5 is_stmt 1 view .LVU5
  44 0008 FFF7FEBF 		b	lv_obj_invalidate
  45              	.LVL2:
  46              		.loc 1 231 5 is_stmt 0 view .LVU6
  47              		.cfi_endproc
  48              	.LFE173:
  50              		.section	.text.lv_switch_anim_exec_cb,"ax",%progbits
  51              		.align	1
  52              		.p2align 2,,3
  53              		.syntax unified
  54              		.thumb
  55              		.thumb_func
  57              	lv_switch_anim_exec_cb:
ARM GAS  /var/folders/0z/tsy30v1j4xl4_7kw94k978ww0000gn/T//cch0tet4.s 			page 6


  58              	.LVL3:
  59              	.LFB172:
 218:Drivers/lvgl/src/widgets/lv_switch.c ****     lv_switch_t * sw = var;
  60              		.loc 1 218 1 is_stmt 1 view -0
  61              		.cfi_startproc
  62              		@ args = 0, pretend = 0, frame = 0
  63              		@ frame_needed = 0, uses_anonymous_args = 0
  64              		@ link register save eliminated.
 219:Drivers/lvgl/src/widgets/lv_switch.c ****     sw->anim_state = value;
  65              		.loc 1 219 5 view .LVU8
 220:Drivers/lvgl/src/widgets/lv_switch.c ****     lv_obj_invalidate((lv_obj_t *)sw);
  66              		.loc 1 220 5 view .LVU9
 220:Drivers/lvgl/src/widgets/lv_switch.c ****     lv_obj_invalidate((lv_obj_t *)sw);
  67              		.loc 1 220 20 is_stmt 0 view .LVU10
  68 0000 4162     		str	r1, [r0, #36]
 221:Drivers/lvgl/src/widgets/lv_switch.c **** }
  69              		.loc 1 221 5 is_stmt 1 view .LVU11
  70 0002 FFF7FEBF 		b	lv_obj_invalidate
  71              	.LVL4:
 221:Drivers/lvgl/src/widgets/lv_switch.c **** }
  72              		.loc 1 221 5 is_stmt 0 view .LVU12
  73              		.cfi_endproc
  74              	.LFE172:
  76 0006 00BF     		.section	.text.lv_switch_destructor,"ax",%progbits
  77              		.align	1
  78              		.p2align 2,,3
  79              		.syntax unified
  80              		.thumb
  81              		.thumb_func
  83              	lv_switch_destructor:
  84              	.LVL5:
  85              	.LFB169:
 102:Drivers/lvgl/src/widgets/lv_switch.c ****     LV_UNUSED(class_p);
  86              		.loc 1 102 1 is_stmt 1 view -0
  87              		.cfi_startproc
  88              		@ args = 0, pretend = 0, frame = 0
  89              		@ frame_needed = 0, uses_anonymous_args = 0
  90              		@ link register save eliminated.
 103:Drivers/lvgl/src/widgets/lv_switch.c ****     lv_switch_t * sw = (lv_switch_t *)obj;
  91              		.loc 1 103 5 view .LVU14
 104:Drivers/lvgl/src/widgets/lv_switch.c **** 
  92              		.loc 1 104 5 view .LVU15
 106:Drivers/lvgl/src/widgets/lv_switch.c **** }
  93              		.loc 1 106 5 view .LVU16
  94 0000 0846     		mov	r0, r1
  95              	.LVL6:
 106:Drivers/lvgl/src/widgets/lv_switch.c **** }
  96              		.loc 1 106 5 is_stmt 0 view .LVU17
  97 0002 0021     		movs	r1, #0
  98              	.LVL7:
 106:Drivers/lvgl/src/widgets/lv_switch.c **** }
  99              		.loc 1 106 5 view .LVU18
 100 0004 FFF7FEBF 		b	lv_anim_del
 101              	.LVL8:
 106:Drivers/lvgl/src/widgets/lv_switch.c **** }
 102              		.loc 1 106 5 view .LVU19
 103              		.cfi_endproc
ARM GAS  /var/folders/0z/tsy30v1j4xl4_7kw94k978ww0000gn/T//cch0tet4.s 			page 7


 104              	.LFE169:
 106              		.section	.text.lv_switch_constructor,"ax",%progbits
 107              		.align	1
 108              		.p2align 2,,3
 109              		.syntax unified
 110              		.thumb
 111              		.thumb_func
 113              	lv_switch_constructor:
 114              	.LVL9:
 115              	.LFB168:
  86:Drivers/lvgl/src/widgets/lv_switch.c ****     LV_UNUSED(class_p);
 116              		.loc 1 86 1 is_stmt 1 view -0
 117              		.cfi_startproc
 118              		@ args = 0, pretend = 0, frame = 8
 119              		@ frame_needed = 0, uses_anonymous_args = 0
  87:Drivers/lvgl/src/widgets/lv_switch.c ****     LV_TRACE_OBJ_CREATE("begin");
 120              		.loc 1 87 5 view .LVU21
  88:Drivers/lvgl/src/widgets/lv_switch.c **** 
 121              		.loc 1 88 33 view .LVU22
  90:Drivers/lvgl/src/widgets/lv_switch.c **** 
 122              		.loc 1 90 5 view .LVU23
  86:Drivers/lvgl/src/widgets/lv_switch.c ****     LV_UNUSED(class_p);
 123              		.loc 1 86 1 is_stmt 0 view .LVU24
 124 0000 00B5     		push	{lr}
 125              		.cfi_def_cfa_offset 4
 126              		.cfi_offset 14, -4
 127 0002 0846     		mov	r0, r1
 128              	.LVL10:
  92:Drivers/lvgl/src/widgets/lv_switch.c **** 
 129              		.loc 1 92 5 is_stmt 1 view .LVU25
  86:Drivers/lvgl/src/widgets/lv_switch.c ****     LV_UNUSED(class_p);
 130              		.loc 1 86 1 is_stmt 0 view .LVU26
 131 0004 83B0     		sub	sp, sp, #12
 132              		.cfi_def_cfa_offset 16
  92:Drivers/lvgl/src/widgets/lv_switch.c **** 
 133              		.loc 1 92 20 view .LVU27
 134 0006 4FF0FF33 		mov	r3, #-1
 135 000a 4362     		str	r3, [r0, #36]
  94:Drivers/lvgl/src/widgets/lv_switch.c ****     lv_obj_add_flag(obj, LV_OBJ_FLAG_CHECKABLE);
 136              		.loc 1 94 5 view .LVU28
 137 000c 1021     		movs	r1, #16
 138              	.LVL11:
  92:Drivers/lvgl/src/widgets/lv_switch.c **** 
 139              		.loc 1 92 20 view .LVU29
 140 000e 0190     		str	r0, [sp, #4]
  94:Drivers/lvgl/src/widgets/lv_switch.c ****     lv_obj_add_flag(obj, LV_OBJ_FLAG_CHECKABLE);
 141              		.loc 1 94 5 is_stmt 1 view .LVU30
 142 0010 FFF7FEFF 		bl	lv_obj_clear_flag
 143              	.LVL12:
  95:Drivers/lvgl/src/widgets/lv_switch.c ****     lv_obj_add_flag(obj, LV_OBJ_FLAG_SCROLL_ON_FOCUS);
 144              		.loc 1 95 5 view .LVU31
 145 0014 0198     		ldr	r0, [sp, #4]
 146 0016 0821     		movs	r1, #8
 147 0018 FFF7FEFF 		bl	lv_obj_add_flag
 148              	.LVL13:
  96:Drivers/lvgl/src/widgets/lv_switch.c **** 
 149              		.loc 1 96 5 view .LVU32
ARM GAS  /var/folders/0z/tsy30v1j4xl4_7kw94k978ww0000gn/T//cch0tet4.s 			page 8


 150 001c 0198     		ldr	r0, [sp, #4]
 151 001e 4FF48061 		mov	r1, #1024
  99:Drivers/lvgl/src/widgets/lv_switch.c **** 
 152              		.loc 1 99 1 is_stmt 0 view .LVU33
 153 0022 03B0     		add	sp, sp, #12
 154              		.cfi_def_cfa_offset 4
 155              		@ sp needed
 156 0024 5DF804EB 		ldr	lr, [sp], #4
 157              		.cfi_restore 14
 158              		.cfi_def_cfa_offset 0
 159              	.LVL14:
  96:Drivers/lvgl/src/widgets/lv_switch.c **** 
 160              		.loc 1 96 5 view .LVU34
 161 0028 FFF7FEBF 		b	lv_obj_add_flag
 162              	.LVL15:
 163              		.cfi_endproc
 164              	.LFE168:
 166              		.section	.text.lv_switch_event,"ax",%progbits
 167              		.align	1
 168              		.p2align 2,,3
 169              		.syntax unified
 170              		.thumb
 171              		.thumb_func
 173              	lv_switch_event:
 174              	.LVL16:
 175              	.LFB170:
 110:Drivers/lvgl/src/widgets/lv_switch.c ****     LV_UNUSED(class_p);
 176              		.loc 1 110 1 is_stmt 1 view -0
 177              		.cfi_startproc
 178              		@ args = 0, pretend = 0, frame = 144
 179              		@ frame_needed = 0, uses_anonymous_args = 0
 111:Drivers/lvgl/src/widgets/lv_switch.c **** 
 180              		.loc 1 111 5 view .LVU36
 113:Drivers/lvgl/src/widgets/lv_switch.c **** 
 181              		.loc 1 113 5 view .LVU37
 116:Drivers/lvgl/src/widgets/lv_switch.c ****     if(res != LV_RES_OK) return;
 182              		.loc 1 116 5 view .LVU38
 110:Drivers/lvgl/src/widgets/lv_switch.c ****     LV_UNUSED(class_p);
 183              		.loc 1 110 1 is_stmt 0 view .LVU39
 184 0000 2DE9F043 		push	{r4, r5, r6, r7, r8, r9, lr}
 185              		.cfi_def_cfa_offset 28
 186              		.cfi_offset 4, -28
 187              		.cfi_offset 5, -24
 188              		.cfi_offset 6, -20
 189              		.cfi_offset 7, -16
 190              		.cfi_offset 8, -12
 191              		.cfi_offset 9, -8
 192              		.cfi_offset 14, -4
 116:Drivers/lvgl/src/widgets/lv_switch.c ****     if(res != LV_RES_OK) return;
 193              		.loc 1 116 11 view .LVU40
 194 0004 AC48     		ldr	r0, .L33
 195              	.LVL17:
 110:Drivers/lvgl/src/widgets/lv_switch.c ****     LV_UNUSED(class_p);
 196              		.loc 1 110 1 view .LVU41
 197 0006 A5B0     		sub	sp, sp, #148
 198              		.cfi_def_cfa_offset 176
 110:Drivers/lvgl/src/widgets/lv_switch.c ****     LV_UNUSED(class_p);
ARM GAS  /var/folders/0z/tsy30v1j4xl4_7kw94k978ww0000gn/T//cch0tet4.s 			page 9


 199              		.loc 1 110 1 view .LVU42
 200 0008 0C46     		mov	r4, r1
 116:Drivers/lvgl/src/widgets/lv_switch.c ****     if(res != LV_RES_OK) return;
 201              		.loc 1 116 11 view .LVU43
 202 000a FFF7FEFF 		bl	lv_obj_event_base
 203              	.LVL18:
 117:Drivers/lvgl/src/widgets/lv_switch.c **** 
 204              		.loc 1 117 5 is_stmt 1 view .LVU44
 117:Drivers/lvgl/src/widgets/lv_switch.c **** 
 205              		.loc 1 117 7 is_stmt 0 view .LVU45
 206 000e 0128     		cmp	r0, #1
 207 0010 02D0     		beq	.L28
 208              	.LVL19:
 209              	.L7:
 144:Drivers/lvgl/src/widgets/lv_switch.c **** 
 210              		.loc 1 144 1 view .LVU46
 211 0012 25B0     		add	sp, sp, #148
 212              		.cfi_remember_state
 213              		.cfi_def_cfa_offset 28
 214              		@ sp needed
 215 0014 BDE8F083 		pop	{r4, r5, r6, r7, r8, r9, pc}
 216              	.LVL20:
 217              	.L28:
 218              		.cfi_restore_state
 219              	.LBB107:
 220              	.LBI107:
 109:Drivers/lvgl/src/widgets/lv_switch.c **** {
 221              		.loc 1 109 13 is_stmt 1 view .LVU47
 222              	.LBB108:
 119:Drivers/lvgl/src/widgets/lv_switch.c ****     lv_obj_t * obj = lv_event_get_target(e);
 223              		.loc 1 119 5 view .LVU48
 119:Drivers/lvgl/src/widgets/lv_switch.c ****     lv_obj_t * obj = lv_event_get_target(e);
 224              		.loc 1 119 28 is_stmt 0 view .LVU49
 225 0018 2046     		mov	r0, r4
 226              	.LVL21:
 119:Drivers/lvgl/src/widgets/lv_switch.c ****     lv_obj_t * obj = lv_event_get_target(e);
 227              		.loc 1 119 28 view .LVU50
 228 001a FFF7FEFF 		bl	lv_event_get_code
 229              	.LVL22:
 230 001e 0546     		mov	r5, r0
 120:Drivers/lvgl/src/widgets/lv_switch.c **** 
 231              		.loc 1 120 22 view .LVU51
 232 0020 2046     		mov	r0, r4
 233              	.LVL23:
 120:Drivers/lvgl/src/widgets/lv_switch.c **** 
 234              		.loc 1 120 5 is_stmt 1 view .LVU52
 120:Drivers/lvgl/src/widgets/lv_switch.c **** 
 235              		.loc 1 120 22 is_stmt 0 view .LVU53
 236 0022 FFF7FEFF 		bl	lv_event_get_target
 237              	.LVL24:
 122:Drivers/lvgl/src/widgets/lv_switch.c ****         lv_coord_t knob_left = lv_obj_get_style_pad_left(obj,   LV_PART_KNOB);
 238              		.loc 1 122 7 view .LVU54
 239 0026 132D     		cmp	r5, #19
 120:Drivers/lvgl/src/widgets/lv_switch.c **** 
 240              		.loc 1 120 22 view .LVU55
 241 0028 0646     		mov	r6, r0
 242              	.LVL25:
ARM GAS  /var/folders/0z/tsy30v1j4xl4_7kw94k978ww0000gn/T//cch0tet4.s 			page 10


 122:Drivers/lvgl/src/widgets/lv_switch.c ****         lv_coord_t knob_left = lv_obj_get_style_pad_left(obj,   LV_PART_KNOB);
 243              		.loc 1 122 5 is_stmt 1 view .LVU56
 122:Drivers/lvgl/src/widgets/lv_switch.c ****         lv_coord_t knob_left = lv_obj_get_style_pad_left(obj,   LV_PART_KNOB);
 244              		.loc 1 122 7 is_stmt 0 view .LVU57
 245 002a 00F0B580 		beq	.L29
 137:Drivers/lvgl/src/widgets/lv_switch.c ****         lv_switch_trigger_anim(obj);
 246              		.loc 1 137 10 is_stmt 1 view .LVU58
 137:Drivers/lvgl/src/widgets/lv_switch.c ****         lv_switch_trigger_anim(obj);
 247              		.loc 1 137 12 is_stmt 0 view .LVU59
 248 002e 1C2D     		cmp	r5, #28
 249 0030 00F0F780 		beq	.L30
 141:Drivers/lvgl/src/widgets/lv_switch.c ****         draw_main(e);
 250              		.loc 1 141 10 is_stmt 1 view .LVU60
 141:Drivers/lvgl/src/widgets/lv_switch.c ****         draw_main(e);
 251              		.loc 1 141 12 is_stmt 0 view .LVU61
 252 0034 152D     		cmp	r5, #21
 253 0036 ECD1     		bne	.L7
 142:Drivers/lvgl/src/widgets/lv_switch.c ****     }
 254              		.loc 1 142 9 is_stmt 1 view .LVU62
 255              	.LVL26:
 256              	.LBB109:
 257              	.LBI109:
 146:Drivers/lvgl/src/widgets/lv_switch.c **** {
 258              		.loc 1 146 13 view .LVU63
 259              	.LBB110:
 148:Drivers/lvgl/src/widgets/lv_switch.c ****     lv_switch_t * sw = (lv_switch_t *)obj;
 260              		.loc 1 148 5 view .LVU64
 148:Drivers/lvgl/src/widgets/lv_switch.c ****     lv_switch_t * sw = (lv_switch_t *)obj;
 261              		.loc 1 148 22 is_stmt 0 view .LVU65
 262 0038 2046     		mov	r0, r4
 263              	.LVL27:
 148:Drivers/lvgl/src/widgets/lv_switch.c ****     lv_switch_t * sw = (lv_switch_t *)obj;
 264              		.loc 1 148 22 view .LVU66
 265 003a FFF7FEFF 		bl	lv_event_get_target
 266              	.LVL28:
 267 003e 0546     		mov	r5, r0
 268              	.LVL29:
 149:Drivers/lvgl/src/widgets/lv_switch.c **** 
 269              		.loc 1 149 5 is_stmt 1 view .LVU67
 151:Drivers/lvgl/src/widgets/lv_switch.c **** 
 270              		.loc 1 151 5 view .LVU68
 151:Drivers/lvgl/src/widgets/lv_switch.c **** 
 271              		.loc 1 151 32 is_stmt 0 view .LVU69
 272 0040 2046     		mov	r0, r4
 273              	.LVL30:
 151:Drivers/lvgl/src/widgets/lv_switch.c **** 
 274              		.loc 1 151 32 view .LVU70
 275 0042 FFF7FEFF 		bl	lv_event_get_draw_ctx
 276              	.LVL31:
 277              	.LBB111:
 278              	.LBB112:
 279              		.file 2 "Drivers/lvgl/src/widgets/../core/lv_obj_style_gen.h"
   1:Drivers/lvgl/src/widgets/../core/lv_obj_style_gen.h **** static inline lv_coord_t lv_obj_get_style_width(const struct _lv_obj_t * obj, uint32_t part)
   2:Drivers/lvgl/src/widgets/../core/lv_obj_style_gen.h **** {
   3:Drivers/lvgl/src/widgets/../core/lv_obj_style_gen.h ****     lv_style_value_t v = lv_obj_get_style_prop(obj, part, LV_STYLE_WIDTH);
   4:Drivers/lvgl/src/widgets/../core/lv_obj_style_gen.h ****     return (lv_coord_t)v.num;
   5:Drivers/lvgl/src/widgets/../core/lv_obj_style_gen.h **** }
ARM GAS  /var/folders/0z/tsy30v1j4xl4_7kw94k978ww0000gn/T//cch0tet4.s 			page 11


   6:Drivers/lvgl/src/widgets/../core/lv_obj_style_gen.h **** 
   7:Drivers/lvgl/src/widgets/../core/lv_obj_style_gen.h **** static inline lv_coord_t lv_obj_get_style_min_width(const struct _lv_obj_t * obj, uint32_t part)
   8:Drivers/lvgl/src/widgets/../core/lv_obj_style_gen.h **** {
   9:Drivers/lvgl/src/widgets/../core/lv_obj_style_gen.h ****     lv_style_value_t v = lv_obj_get_style_prop(obj, part, LV_STYLE_MIN_WIDTH);
  10:Drivers/lvgl/src/widgets/../core/lv_obj_style_gen.h ****     return (lv_coord_t)v.num;
  11:Drivers/lvgl/src/widgets/../core/lv_obj_style_gen.h **** }
  12:Drivers/lvgl/src/widgets/../core/lv_obj_style_gen.h **** 
  13:Drivers/lvgl/src/widgets/../core/lv_obj_style_gen.h **** static inline lv_coord_t lv_obj_get_style_max_width(const struct _lv_obj_t * obj, uint32_t part)
  14:Drivers/lvgl/src/widgets/../core/lv_obj_style_gen.h **** {
  15:Drivers/lvgl/src/widgets/../core/lv_obj_style_gen.h ****     lv_style_value_t v = lv_obj_get_style_prop(obj, part, LV_STYLE_MAX_WIDTH);
  16:Drivers/lvgl/src/widgets/../core/lv_obj_style_gen.h ****     return (lv_coord_t)v.num;
  17:Drivers/lvgl/src/widgets/../core/lv_obj_style_gen.h **** }
  18:Drivers/lvgl/src/widgets/../core/lv_obj_style_gen.h **** 
  19:Drivers/lvgl/src/widgets/../core/lv_obj_style_gen.h **** static inline lv_coord_t lv_obj_get_style_height(const struct _lv_obj_t * obj, uint32_t part)
  20:Drivers/lvgl/src/widgets/../core/lv_obj_style_gen.h **** {
  21:Drivers/lvgl/src/widgets/../core/lv_obj_style_gen.h ****     lv_style_value_t v = lv_obj_get_style_prop(obj, part, LV_STYLE_HEIGHT);
  22:Drivers/lvgl/src/widgets/../core/lv_obj_style_gen.h ****     return (lv_coord_t)v.num;
  23:Drivers/lvgl/src/widgets/../core/lv_obj_style_gen.h **** }
  24:Drivers/lvgl/src/widgets/../core/lv_obj_style_gen.h **** 
  25:Drivers/lvgl/src/widgets/../core/lv_obj_style_gen.h **** static inline lv_coord_t lv_obj_get_style_min_height(const struct _lv_obj_t * obj, uint32_t part)
  26:Drivers/lvgl/src/widgets/../core/lv_obj_style_gen.h **** {
  27:Drivers/lvgl/src/widgets/../core/lv_obj_style_gen.h ****     lv_style_value_t v = lv_obj_get_style_prop(obj, part, LV_STYLE_MIN_HEIGHT);
  28:Drivers/lvgl/src/widgets/../core/lv_obj_style_gen.h ****     return (lv_coord_t)v.num;
  29:Drivers/lvgl/src/widgets/../core/lv_obj_style_gen.h **** }
  30:Drivers/lvgl/src/widgets/../core/lv_obj_style_gen.h **** 
  31:Drivers/lvgl/src/widgets/../core/lv_obj_style_gen.h **** static inline lv_coord_t lv_obj_get_style_max_height(const struct _lv_obj_t * obj, uint32_t part)
  32:Drivers/lvgl/src/widgets/../core/lv_obj_style_gen.h **** {
  33:Drivers/lvgl/src/widgets/../core/lv_obj_style_gen.h ****     lv_style_value_t v = lv_obj_get_style_prop(obj, part, LV_STYLE_MAX_HEIGHT);
  34:Drivers/lvgl/src/widgets/../core/lv_obj_style_gen.h ****     return (lv_coord_t)v.num;
  35:Drivers/lvgl/src/widgets/../core/lv_obj_style_gen.h **** }
  36:Drivers/lvgl/src/widgets/../core/lv_obj_style_gen.h **** 
  37:Drivers/lvgl/src/widgets/../core/lv_obj_style_gen.h **** static inline lv_coord_t lv_obj_get_style_x(const struct _lv_obj_t * obj, uint32_t part)
  38:Drivers/lvgl/src/widgets/../core/lv_obj_style_gen.h **** {
  39:Drivers/lvgl/src/widgets/../core/lv_obj_style_gen.h ****     lv_style_value_t v = lv_obj_get_style_prop(obj, part, LV_STYLE_X);
  40:Drivers/lvgl/src/widgets/../core/lv_obj_style_gen.h ****     return (lv_coord_t)v.num;
  41:Drivers/lvgl/src/widgets/../core/lv_obj_style_gen.h **** }
  42:Drivers/lvgl/src/widgets/../core/lv_obj_style_gen.h **** 
  43:Drivers/lvgl/src/widgets/../core/lv_obj_style_gen.h **** static inline lv_coord_t lv_obj_get_style_y(const struct _lv_obj_t * obj, uint32_t part)
  44:Drivers/lvgl/src/widgets/../core/lv_obj_style_gen.h **** {
  45:Drivers/lvgl/src/widgets/../core/lv_obj_style_gen.h ****     lv_style_value_t v = lv_obj_get_style_prop(obj, part, LV_STYLE_Y);
  46:Drivers/lvgl/src/widgets/../core/lv_obj_style_gen.h ****     return (lv_coord_t)v.num;
  47:Drivers/lvgl/src/widgets/../core/lv_obj_style_gen.h **** }
  48:Drivers/lvgl/src/widgets/../core/lv_obj_style_gen.h **** 
  49:Drivers/lvgl/src/widgets/../core/lv_obj_style_gen.h **** static inline lv_align_t lv_obj_get_style_align(const struct _lv_obj_t * obj, uint32_t part)
  50:Drivers/lvgl/src/widgets/../core/lv_obj_style_gen.h **** {
  51:Drivers/lvgl/src/widgets/../core/lv_obj_style_gen.h ****     lv_style_value_t v = lv_obj_get_style_prop(obj, part, LV_STYLE_ALIGN);
  52:Drivers/lvgl/src/widgets/../core/lv_obj_style_gen.h ****     return (lv_align_t)v.num;
  53:Drivers/lvgl/src/widgets/../core/lv_obj_style_gen.h **** }
  54:Drivers/lvgl/src/widgets/../core/lv_obj_style_gen.h **** 
  55:Drivers/lvgl/src/widgets/../core/lv_obj_style_gen.h **** static inline lv_coord_t lv_obj_get_style_transform_width(const struct _lv_obj_t * obj, uint32_t pa
  56:Drivers/lvgl/src/widgets/../core/lv_obj_style_gen.h **** {
  57:Drivers/lvgl/src/widgets/../core/lv_obj_style_gen.h ****     lv_style_value_t v = lv_obj_get_style_prop(obj, part, LV_STYLE_TRANSFORM_WIDTH);
  58:Drivers/lvgl/src/widgets/../core/lv_obj_style_gen.h ****     return (lv_coord_t)v.num;
  59:Drivers/lvgl/src/widgets/../core/lv_obj_style_gen.h **** }
  60:Drivers/lvgl/src/widgets/../core/lv_obj_style_gen.h **** 
  61:Drivers/lvgl/src/widgets/../core/lv_obj_style_gen.h **** static inline lv_coord_t lv_obj_get_style_transform_height(const struct _lv_obj_t * obj, uint32_t p
  62:Drivers/lvgl/src/widgets/../core/lv_obj_style_gen.h **** {
ARM GAS  /var/folders/0z/tsy30v1j4xl4_7kw94k978ww0000gn/T//cch0tet4.s 			page 12


  63:Drivers/lvgl/src/widgets/../core/lv_obj_style_gen.h ****     lv_style_value_t v = lv_obj_get_style_prop(obj, part, LV_STYLE_TRANSFORM_HEIGHT);
  64:Drivers/lvgl/src/widgets/../core/lv_obj_style_gen.h ****     return (lv_coord_t)v.num;
  65:Drivers/lvgl/src/widgets/../core/lv_obj_style_gen.h **** }
  66:Drivers/lvgl/src/widgets/../core/lv_obj_style_gen.h **** 
  67:Drivers/lvgl/src/widgets/../core/lv_obj_style_gen.h **** static inline lv_coord_t lv_obj_get_style_translate_x(const struct _lv_obj_t * obj, uint32_t part)
  68:Drivers/lvgl/src/widgets/../core/lv_obj_style_gen.h **** {
  69:Drivers/lvgl/src/widgets/../core/lv_obj_style_gen.h ****     lv_style_value_t v = lv_obj_get_style_prop(obj, part, LV_STYLE_TRANSLATE_X);
  70:Drivers/lvgl/src/widgets/../core/lv_obj_style_gen.h ****     return (lv_coord_t)v.num;
  71:Drivers/lvgl/src/widgets/../core/lv_obj_style_gen.h **** }
  72:Drivers/lvgl/src/widgets/../core/lv_obj_style_gen.h **** 
  73:Drivers/lvgl/src/widgets/../core/lv_obj_style_gen.h **** static inline lv_coord_t lv_obj_get_style_translate_y(const struct _lv_obj_t * obj, uint32_t part)
  74:Drivers/lvgl/src/widgets/../core/lv_obj_style_gen.h **** {
  75:Drivers/lvgl/src/widgets/../core/lv_obj_style_gen.h ****     lv_style_value_t v = lv_obj_get_style_prop(obj, part, LV_STYLE_TRANSLATE_Y);
  76:Drivers/lvgl/src/widgets/../core/lv_obj_style_gen.h ****     return (lv_coord_t)v.num;
  77:Drivers/lvgl/src/widgets/../core/lv_obj_style_gen.h **** }
  78:Drivers/lvgl/src/widgets/../core/lv_obj_style_gen.h **** 
  79:Drivers/lvgl/src/widgets/../core/lv_obj_style_gen.h **** static inline lv_coord_t lv_obj_get_style_transform_zoom(const struct _lv_obj_t * obj, uint32_t par
  80:Drivers/lvgl/src/widgets/../core/lv_obj_style_gen.h **** {
  81:Drivers/lvgl/src/widgets/../core/lv_obj_style_gen.h ****     lv_style_value_t v = lv_obj_get_style_prop(obj, part, LV_STYLE_TRANSFORM_ZOOM);
  82:Drivers/lvgl/src/widgets/../core/lv_obj_style_gen.h ****     return (lv_coord_t)v.num;
  83:Drivers/lvgl/src/widgets/../core/lv_obj_style_gen.h **** }
  84:Drivers/lvgl/src/widgets/../core/lv_obj_style_gen.h **** 
  85:Drivers/lvgl/src/widgets/../core/lv_obj_style_gen.h **** static inline lv_coord_t lv_obj_get_style_transform_angle(const struct _lv_obj_t * obj, uint32_t pa
  86:Drivers/lvgl/src/widgets/../core/lv_obj_style_gen.h **** {
  87:Drivers/lvgl/src/widgets/../core/lv_obj_style_gen.h ****     lv_style_value_t v = lv_obj_get_style_prop(obj, part, LV_STYLE_TRANSFORM_ANGLE);
  88:Drivers/lvgl/src/widgets/../core/lv_obj_style_gen.h ****     return (lv_coord_t)v.num;
  89:Drivers/lvgl/src/widgets/../core/lv_obj_style_gen.h **** }
  90:Drivers/lvgl/src/widgets/../core/lv_obj_style_gen.h **** 
  91:Drivers/lvgl/src/widgets/../core/lv_obj_style_gen.h **** static inline lv_coord_t lv_obj_get_style_transform_pivot_x(const struct _lv_obj_t * obj, uint32_t 
  92:Drivers/lvgl/src/widgets/../core/lv_obj_style_gen.h **** {
  93:Drivers/lvgl/src/widgets/../core/lv_obj_style_gen.h ****     lv_style_value_t v = lv_obj_get_style_prop(obj, part, LV_STYLE_TRANSFORM_PIVOT_X);
  94:Drivers/lvgl/src/widgets/../core/lv_obj_style_gen.h ****     return (lv_coord_t)v.num;
  95:Drivers/lvgl/src/widgets/../core/lv_obj_style_gen.h **** }
  96:Drivers/lvgl/src/widgets/../core/lv_obj_style_gen.h **** 
  97:Drivers/lvgl/src/widgets/../core/lv_obj_style_gen.h **** static inline lv_coord_t lv_obj_get_style_transform_pivot_y(const struct _lv_obj_t * obj, uint32_t 
  98:Drivers/lvgl/src/widgets/../core/lv_obj_style_gen.h **** {
  99:Drivers/lvgl/src/widgets/../core/lv_obj_style_gen.h ****     lv_style_value_t v = lv_obj_get_style_prop(obj, part, LV_STYLE_TRANSFORM_PIVOT_Y);
 100:Drivers/lvgl/src/widgets/../core/lv_obj_style_gen.h ****     return (lv_coord_t)v.num;
 101:Drivers/lvgl/src/widgets/../core/lv_obj_style_gen.h **** }
 102:Drivers/lvgl/src/widgets/../core/lv_obj_style_gen.h **** 
 103:Drivers/lvgl/src/widgets/../core/lv_obj_style_gen.h **** static inline lv_coord_t lv_obj_get_style_pad_top(const struct _lv_obj_t * obj, uint32_t part)
 104:Drivers/lvgl/src/widgets/../core/lv_obj_style_gen.h **** {
 105:Drivers/lvgl/src/widgets/../core/lv_obj_style_gen.h ****     lv_style_value_t v = lv_obj_get_style_prop(obj, part, LV_STYLE_PAD_TOP);
 106:Drivers/lvgl/src/widgets/../core/lv_obj_style_gen.h ****     return (lv_coord_t)v.num;
 107:Drivers/lvgl/src/widgets/../core/lv_obj_style_gen.h **** }
 108:Drivers/lvgl/src/widgets/../core/lv_obj_style_gen.h **** 
 109:Drivers/lvgl/src/widgets/../core/lv_obj_style_gen.h **** static inline lv_coord_t lv_obj_get_style_pad_bottom(const struct _lv_obj_t * obj, uint32_t part)
 110:Drivers/lvgl/src/widgets/../core/lv_obj_style_gen.h **** {
 111:Drivers/lvgl/src/widgets/../core/lv_obj_style_gen.h ****     lv_style_value_t v = lv_obj_get_style_prop(obj, part, LV_STYLE_PAD_BOTTOM);
 112:Drivers/lvgl/src/widgets/../core/lv_obj_style_gen.h ****     return (lv_coord_t)v.num;
 113:Drivers/lvgl/src/widgets/../core/lv_obj_style_gen.h **** }
 114:Drivers/lvgl/src/widgets/../core/lv_obj_style_gen.h **** 
 115:Drivers/lvgl/src/widgets/../core/lv_obj_style_gen.h **** static inline lv_coord_t lv_obj_get_style_pad_left(const struct _lv_obj_t * obj, uint32_t part)
 116:Drivers/lvgl/src/widgets/../core/lv_obj_style_gen.h **** {
 117:Drivers/lvgl/src/widgets/../core/lv_obj_style_gen.h ****     lv_style_value_t v = lv_obj_get_style_prop(obj, part, LV_STYLE_PAD_LEFT);
 280              		.loc 2 117 26 view .LVU71
 281 0046 1222     		movs	r2, #18
ARM GAS  /var/folders/0z/tsy30v1j4xl4_7kw94k978ww0000gn/T//cch0tet4.s 			page 13


 282              	.LBE112:
 283              	.LBE111:
 151:Drivers/lvgl/src/widgets/lv_switch.c **** 
 284              		.loc 1 151 32 view .LVU72
 285 0048 0646     		mov	r6, r0
 286              	.LVL32:
 287              	.LBB116:
 288              	.LBB113:
 289              		.loc 2 117 26 view .LVU73
 290 004a 0021     		movs	r1, #0
 291 004c 2846     		mov	r0, r5
 292              	.LVL33:
 293              		.loc 2 117 26 view .LVU74
 294              	.LBE113:
 295              	.LBE116:
 154:Drivers/lvgl/src/widgets/lv_switch.c ****     lv_coord_t bg_right = lv_obj_get_style_pad_right(obj,   LV_PART_MAIN);
 296              		.loc 1 154 5 is_stmt 1 view .LVU75
 297              	.LBB117:
 298              	.LBI111:
 115:Drivers/lvgl/src/widgets/../core/lv_obj_style_gen.h **** {
 299              		.loc 2 115 26 view .LVU76
 300              	.LBB114:
 301              		.loc 2 117 5 view .LVU77
 302              		.loc 2 117 26 is_stmt 0 view .LVU78
 303 004e FFF7FEFF 		bl	lv_obj_get_style_prop
 304              	.LVL34:
 305              	.LBE114:
 306              	.LBE117:
 307              	.LBB118:
 308              	.LBB119:
 118:Drivers/lvgl/src/widgets/../core/lv_obj_style_gen.h ****     return (lv_coord_t)v.num;
 119:Drivers/lvgl/src/widgets/../core/lv_obj_style_gen.h **** }
 120:Drivers/lvgl/src/widgets/../core/lv_obj_style_gen.h **** 
 121:Drivers/lvgl/src/widgets/../core/lv_obj_style_gen.h **** static inline lv_coord_t lv_obj_get_style_pad_right(const struct _lv_obj_t * obj, uint32_t part)
 122:Drivers/lvgl/src/widgets/../core/lv_obj_style_gen.h **** {
 123:Drivers/lvgl/src/widgets/../core/lv_obj_style_gen.h ****     lv_style_value_t v = lv_obj_get_style_prop(obj, part, LV_STYLE_PAD_RIGHT);
 309              		.loc 2 123 26 view .LVU79
 310 0052 1322     		movs	r2, #19
 311 0054 0021     		movs	r1, #0
 312              	.LBE119:
 313              	.LBE118:
 314              	.LBB122:
 315              	.LBB115:
 117:Drivers/lvgl/src/widgets/../core/lv_obj_style_gen.h ****     return (lv_coord_t)v.num;
 316              		.loc 2 117 26 view .LVU80
 317 0056 0446     		mov	r4, r0
 318              	.LVL35:
 118:Drivers/lvgl/src/widgets/../core/lv_obj_style_gen.h ****     return (lv_coord_t)v.num;
 319              		.loc 2 118 5 is_stmt 1 view .LVU81
 118:Drivers/lvgl/src/widgets/../core/lv_obj_style_gen.h ****     return (lv_coord_t)v.num;
 320              		.loc 2 118 5 is_stmt 0 view .LVU82
 321              	.LBE115:
 322              	.LBE122:
 155:Drivers/lvgl/src/widgets/lv_switch.c ****     lv_coord_t bg_top = lv_obj_get_style_pad_top(obj,       LV_PART_MAIN);
 323              		.loc 1 155 5 is_stmt 1 view .LVU83
 324              	.LBB123:
 325              	.LBI118:
ARM GAS  /var/folders/0z/tsy30v1j4xl4_7kw94k978ww0000gn/T//cch0tet4.s 			page 14


 121:Drivers/lvgl/src/widgets/../core/lv_obj_style_gen.h **** {
 326              		.loc 2 121 26 view .LVU84
 327              	.LBB120:
 328              		.loc 2 123 5 view .LVU85
 329              		.loc 2 123 26 is_stmt 0 view .LVU86
 330 0058 2846     		mov	r0, r5
 331 005a FFF7FEFF 		bl	lv_obj_get_style_prop
 332              	.LVL36:
 333              	.LBE120:
 334              	.LBE123:
 335              	.LBB124:
 336              	.LBB125:
 105:Drivers/lvgl/src/widgets/../core/lv_obj_style_gen.h ****     return (lv_coord_t)v.num;
 337              		.loc 2 105 26 view .LVU87
 338 005e 1022     		movs	r2, #16
 339              	.LBE125:
 340              	.LBE124:
 341              	.LBB128:
 342              	.LBB121:
 343              		.loc 2 123 26 view .LVU88
 344 0060 0746     		mov	r7, r0
 345              	.LVL37:
 124:Drivers/lvgl/src/widgets/../core/lv_obj_style_gen.h ****     return (lv_coord_t)v.num;
 346              		.loc 2 124 5 is_stmt 1 view .LVU89
 347              		.loc 2 124 5 is_stmt 0 view .LVU90
 348              	.LBE121:
 349              	.LBE128:
 156:Drivers/lvgl/src/widgets/lv_switch.c ****     lv_coord_t bg_bottom = lv_obj_get_style_pad_bottom(obj, LV_PART_MAIN);
 350              		.loc 1 156 5 is_stmt 1 view .LVU91
 351              	.LBB129:
 352              	.LBI124:
 103:Drivers/lvgl/src/widgets/../core/lv_obj_style_gen.h **** {
 353              		.loc 2 103 26 view .LVU92
 354              	.LBB126:
 105:Drivers/lvgl/src/widgets/../core/lv_obj_style_gen.h ****     return (lv_coord_t)v.num;
 355              		.loc 2 105 5 view .LVU93
 105:Drivers/lvgl/src/widgets/../core/lv_obj_style_gen.h ****     return (lv_coord_t)v.num;
 356              		.loc 2 105 26 is_stmt 0 view .LVU94
 357 0062 0021     		movs	r1, #0
 358 0064 2846     		mov	r0, r5
 359 0066 FFF7FEFF 		bl	lv_obj_get_style_prop
 360              	.LVL38:
 361              	.LBE126:
 362              	.LBE129:
 363              	.LBB130:
 364              	.LBB131:
 111:Drivers/lvgl/src/widgets/../core/lv_obj_style_gen.h ****     return (lv_coord_t)v.num;
 365              		.loc 2 111 26 view .LVU95
 366 006a 0021     		movs	r1, #0
 367              	.LBE131:
 368              	.LBE130:
 369              	.LBB133:
 370              	.LBB127:
 105:Drivers/lvgl/src/widgets/../core/lv_obj_style_gen.h ****     return (lv_coord_t)v.num;
 371              		.loc 2 105 26 view .LVU96
 372 006c 8046     		mov	r8, r0
 373              	.LVL39:
ARM GAS  /var/folders/0z/tsy30v1j4xl4_7kw94k978ww0000gn/T//cch0tet4.s 			page 15


 106:Drivers/lvgl/src/widgets/../core/lv_obj_style_gen.h **** }
 374              		.loc 2 106 5 is_stmt 1 view .LVU97
 106:Drivers/lvgl/src/widgets/../core/lv_obj_style_gen.h **** }
 375              		.loc 2 106 5 is_stmt 0 view .LVU98
 376              	.LBE127:
 377              	.LBE133:
 157:Drivers/lvgl/src/widgets/lv_switch.c **** 
 378              		.loc 1 157 5 is_stmt 1 view .LVU99
 379              	.LBB134:
 380              	.LBI130:
 109:Drivers/lvgl/src/widgets/../core/lv_obj_style_gen.h **** {
 381              		.loc 2 109 26 view .LVU100
 382              	.LBB132:
 111:Drivers/lvgl/src/widgets/../core/lv_obj_style_gen.h ****     return (lv_coord_t)v.num;
 383              		.loc 2 111 5 view .LVU101
 111:Drivers/lvgl/src/widgets/../core/lv_obj_style_gen.h ****     return (lv_coord_t)v.num;
 384              		.loc 2 111 26 is_stmt 0 view .LVU102
 385 006e 1122     		movs	r2, #17
 386 0070 2846     		mov	r0, r5
 387 0072 FFF7FEFF 		bl	lv_obj_get_style_prop
 388              	.LVL40:
 112:Drivers/lvgl/src/widgets/../core/lv_obj_style_gen.h **** }
 389              		.loc 2 112 5 is_stmt 1 view .LVU103
 112:Drivers/lvgl/src/widgets/../core/lv_obj_style_gen.h **** }
 390              		.loc 2 112 5 is_stmt 0 view .LVU104
 391              	.LBE132:
 392              	.LBE134:
 161:Drivers/lvgl/src/widgets/lv_switch.c ****     lv_area_copy(&indic_area, &obj->coords);
 393              		.loc 1 161 5 is_stmt 1 view .LVU105
 162:Drivers/lvgl/src/widgets/lv_switch.c ****     indic_area.x1 += bg_left;
 394              		.loc 1 162 5 view .LVU106
 395              	.LBB135:
 396              	.LBI135:
 397              		.file 3 "Drivers/lvgl/src/widgets/../core/../misc/../font/../misc/lv_area.h"
   1:Drivers/lvgl/src/widgets/../core/../misc/../font/../misc/lv_area.h **** /**
   2:Drivers/lvgl/src/widgets/../core/../misc/../font/../misc/lv_area.h ****  * @file lv_area.h
   3:Drivers/lvgl/src/widgets/../core/../misc/../font/../misc/lv_area.h ****  *
   4:Drivers/lvgl/src/widgets/../core/../misc/../font/../misc/lv_area.h ****  */
   5:Drivers/lvgl/src/widgets/../core/../misc/../font/../misc/lv_area.h **** 
   6:Drivers/lvgl/src/widgets/../core/../misc/../font/../misc/lv_area.h **** #ifndef LV_AREA_H
   7:Drivers/lvgl/src/widgets/../core/../misc/../font/../misc/lv_area.h **** #define LV_AREA_H
   8:Drivers/lvgl/src/widgets/../core/../misc/../font/../misc/lv_area.h **** 
   9:Drivers/lvgl/src/widgets/../core/../misc/../font/../misc/lv_area.h **** #ifdef __cplusplus
  10:Drivers/lvgl/src/widgets/../core/../misc/../font/../misc/lv_area.h **** extern "C" {
  11:Drivers/lvgl/src/widgets/../core/../misc/../font/../misc/lv_area.h **** #endif
  12:Drivers/lvgl/src/widgets/../core/../misc/../font/../misc/lv_area.h **** 
  13:Drivers/lvgl/src/widgets/../core/../misc/../font/../misc/lv_area.h **** /*********************
  14:Drivers/lvgl/src/widgets/../core/../misc/../font/../misc/lv_area.h ****  *      INCLUDES
  15:Drivers/lvgl/src/widgets/../core/../misc/../font/../misc/lv_area.h ****  *********************/
  16:Drivers/lvgl/src/widgets/../core/../misc/../font/../misc/lv_area.h **** #include "../lv_conf_internal.h"
  17:Drivers/lvgl/src/widgets/../core/../misc/../font/../misc/lv_area.h **** #include <stdbool.h>
  18:Drivers/lvgl/src/widgets/../core/../misc/../font/../misc/lv_area.h **** #include <stdint.h>
  19:Drivers/lvgl/src/widgets/../core/../misc/../font/../misc/lv_area.h **** 
  20:Drivers/lvgl/src/widgets/../core/../misc/../font/../misc/lv_area.h **** /*********************
  21:Drivers/lvgl/src/widgets/../core/../misc/../font/../misc/lv_area.h ****  *      DEFINES
  22:Drivers/lvgl/src/widgets/../core/../misc/../font/../misc/lv_area.h ****  *********************/
  23:Drivers/lvgl/src/widgets/../core/../misc/../font/../misc/lv_area.h **** 
ARM GAS  /var/folders/0z/tsy30v1j4xl4_7kw94k978ww0000gn/T//cch0tet4.s 			page 16


  24:Drivers/lvgl/src/widgets/../core/../misc/../font/../misc/lv_area.h **** #if LV_USE_LARGE_COORD
  25:Drivers/lvgl/src/widgets/../core/../misc/../font/../misc/lv_area.h **** typedef int32_t lv_coord_t;
  26:Drivers/lvgl/src/widgets/../core/../misc/../font/../misc/lv_area.h **** #else
  27:Drivers/lvgl/src/widgets/../core/../misc/../font/../misc/lv_area.h **** typedef int16_t lv_coord_t;
  28:Drivers/lvgl/src/widgets/../core/../misc/../font/../misc/lv_area.h **** #endif
  29:Drivers/lvgl/src/widgets/../core/../misc/../font/../misc/lv_area.h **** 
  30:Drivers/lvgl/src/widgets/../core/../misc/../font/../misc/lv_area.h **** /**********************
  31:Drivers/lvgl/src/widgets/../core/../misc/../font/../misc/lv_area.h ****  *      TYPEDEFS
  32:Drivers/lvgl/src/widgets/../core/../misc/../font/../misc/lv_area.h ****  **********************/
  33:Drivers/lvgl/src/widgets/../core/../misc/../font/../misc/lv_area.h **** 
  34:Drivers/lvgl/src/widgets/../core/../misc/../font/../misc/lv_area.h **** /**
  35:Drivers/lvgl/src/widgets/../core/../misc/../font/../misc/lv_area.h ****  * Represents a point on the screen.
  36:Drivers/lvgl/src/widgets/../core/../misc/../font/../misc/lv_area.h ****  */
  37:Drivers/lvgl/src/widgets/../core/../misc/../font/../misc/lv_area.h **** typedef struct {
  38:Drivers/lvgl/src/widgets/../core/../misc/../font/../misc/lv_area.h ****     lv_coord_t x;
  39:Drivers/lvgl/src/widgets/../core/../misc/../font/../misc/lv_area.h ****     lv_coord_t y;
  40:Drivers/lvgl/src/widgets/../core/../misc/../font/../misc/lv_area.h **** } lv_point_t;
  41:Drivers/lvgl/src/widgets/../core/../misc/../font/../misc/lv_area.h **** 
  42:Drivers/lvgl/src/widgets/../core/../misc/../font/../misc/lv_area.h **** /** Represents an area of the screen.*/
  43:Drivers/lvgl/src/widgets/../core/../misc/../font/../misc/lv_area.h **** typedef struct {
  44:Drivers/lvgl/src/widgets/../core/../misc/../font/../misc/lv_area.h ****     lv_coord_t x1;
  45:Drivers/lvgl/src/widgets/../core/../misc/../font/../misc/lv_area.h ****     lv_coord_t y1;
  46:Drivers/lvgl/src/widgets/../core/../misc/../font/../misc/lv_area.h ****     lv_coord_t x2;
  47:Drivers/lvgl/src/widgets/../core/../misc/../font/../misc/lv_area.h ****     lv_coord_t y2;
  48:Drivers/lvgl/src/widgets/../core/../misc/../font/../misc/lv_area.h **** } lv_area_t;
  49:Drivers/lvgl/src/widgets/../core/../misc/../font/../misc/lv_area.h **** 
  50:Drivers/lvgl/src/widgets/../core/../misc/../font/../misc/lv_area.h **** /** Alignments*/
  51:Drivers/lvgl/src/widgets/../core/../misc/../font/../misc/lv_area.h **** enum {
  52:Drivers/lvgl/src/widgets/../core/../misc/../font/../misc/lv_area.h ****     LV_ALIGN_DEFAULT = 0,
  53:Drivers/lvgl/src/widgets/../core/../misc/../font/../misc/lv_area.h ****     LV_ALIGN_TOP_LEFT,
  54:Drivers/lvgl/src/widgets/../core/../misc/../font/../misc/lv_area.h ****     LV_ALIGN_TOP_MID,
  55:Drivers/lvgl/src/widgets/../core/../misc/../font/../misc/lv_area.h ****     LV_ALIGN_TOP_RIGHT,
  56:Drivers/lvgl/src/widgets/../core/../misc/../font/../misc/lv_area.h ****     LV_ALIGN_BOTTOM_LEFT,
  57:Drivers/lvgl/src/widgets/../core/../misc/../font/../misc/lv_area.h ****     LV_ALIGN_BOTTOM_MID,
  58:Drivers/lvgl/src/widgets/../core/../misc/../font/../misc/lv_area.h ****     LV_ALIGN_BOTTOM_RIGHT,
  59:Drivers/lvgl/src/widgets/../core/../misc/../font/../misc/lv_area.h ****     LV_ALIGN_LEFT_MID,
  60:Drivers/lvgl/src/widgets/../core/../misc/../font/../misc/lv_area.h ****     LV_ALIGN_RIGHT_MID,
  61:Drivers/lvgl/src/widgets/../core/../misc/../font/../misc/lv_area.h ****     LV_ALIGN_CENTER,
  62:Drivers/lvgl/src/widgets/../core/../misc/../font/../misc/lv_area.h **** 
  63:Drivers/lvgl/src/widgets/../core/../misc/../font/../misc/lv_area.h ****     LV_ALIGN_OUT_TOP_LEFT,
  64:Drivers/lvgl/src/widgets/../core/../misc/../font/../misc/lv_area.h ****     LV_ALIGN_OUT_TOP_MID,
  65:Drivers/lvgl/src/widgets/../core/../misc/../font/../misc/lv_area.h ****     LV_ALIGN_OUT_TOP_RIGHT,
  66:Drivers/lvgl/src/widgets/../core/../misc/../font/../misc/lv_area.h ****     LV_ALIGN_OUT_BOTTOM_LEFT,
  67:Drivers/lvgl/src/widgets/../core/../misc/../font/../misc/lv_area.h ****     LV_ALIGN_OUT_BOTTOM_MID,
  68:Drivers/lvgl/src/widgets/../core/../misc/../font/../misc/lv_area.h ****     LV_ALIGN_OUT_BOTTOM_RIGHT,
  69:Drivers/lvgl/src/widgets/../core/../misc/../font/../misc/lv_area.h ****     LV_ALIGN_OUT_LEFT_TOP,
  70:Drivers/lvgl/src/widgets/../core/../misc/../font/../misc/lv_area.h ****     LV_ALIGN_OUT_LEFT_MID,
  71:Drivers/lvgl/src/widgets/../core/../misc/../font/../misc/lv_area.h ****     LV_ALIGN_OUT_LEFT_BOTTOM,
  72:Drivers/lvgl/src/widgets/../core/../misc/../font/../misc/lv_area.h ****     LV_ALIGN_OUT_RIGHT_TOP,
  73:Drivers/lvgl/src/widgets/../core/../misc/../font/../misc/lv_area.h ****     LV_ALIGN_OUT_RIGHT_MID,
  74:Drivers/lvgl/src/widgets/../core/../misc/../font/../misc/lv_area.h ****     LV_ALIGN_OUT_RIGHT_BOTTOM,
  75:Drivers/lvgl/src/widgets/../core/../misc/../font/../misc/lv_area.h **** };
  76:Drivers/lvgl/src/widgets/../core/../misc/../font/../misc/lv_area.h **** typedef uint8_t lv_align_t;
  77:Drivers/lvgl/src/widgets/../core/../misc/../font/../misc/lv_area.h **** 
  78:Drivers/lvgl/src/widgets/../core/../misc/../font/../misc/lv_area.h **** enum {
  79:Drivers/lvgl/src/widgets/../core/../misc/../font/../misc/lv_area.h ****     LV_DIR_NONE     = 0x00,
  80:Drivers/lvgl/src/widgets/../core/../misc/../font/../misc/lv_area.h ****     LV_DIR_LEFT     = (1 << 0),
ARM GAS  /var/folders/0z/tsy30v1j4xl4_7kw94k978ww0000gn/T//cch0tet4.s 			page 17


  81:Drivers/lvgl/src/widgets/../core/../misc/../font/../misc/lv_area.h ****     LV_DIR_RIGHT    = (1 << 1),
  82:Drivers/lvgl/src/widgets/../core/../misc/../font/../misc/lv_area.h ****     LV_DIR_TOP      = (1 << 2),
  83:Drivers/lvgl/src/widgets/../core/../misc/../font/../misc/lv_area.h ****     LV_DIR_BOTTOM   = (1 << 3),
  84:Drivers/lvgl/src/widgets/../core/../misc/../font/../misc/lv_area.h ****     LV_DIR_HOR      = LV_DIR_LEFT | LV_DIR_RIGHT,
  85:Drivers/lvgl/src/widgets/../core/../misc/../font/../misc/lv_area.h ****     LV_DIR_VER      = LV_DIR_TOP | LV_DIR_BOTTOM,
  86:Drivers/lvgl/src/widgets/../core/../misc/../font/../misc/lv_area.h ****     LV_DIR_ALL      = LV_DIR_HOR | LV_DIR_VER,
  87:Drivers/lvgl/src/widgets/../core/../misc/../font/../misc/lv_area.h **** };
  88:Drivers/lvgl/src/widgets/../core/../misc/../font/../misc/lv_area.h **** 
  89:Drivers/lvgl/src/widgets/../core/../misc/../font/../misc/lv_area.h **** typedef uint8_t lv_dir_t;
  90:Drivers/lvgl/src/widgets/../core/../misc/../font/../misc/lv_area.h **** 
  91:Drivers/lvgl/src/widgets/../core/../misc/../font/../misc/lv_area.h **** /**********************
  92:Drivers/lvgl/src/widgets/../core/../misc/../font/../misc/lv_area.h ****  * GLOBAL PROTOTYPES
  93:Drivers/lvgl/src/widgets/../core/../misc/../font/../misc/lv_area.h ****  **********************/
  94:Drivers/lvgl/src/widgets/../core/../misc/../font/../misc/lv_area.h **** 
  95:Drivers/lvgl/src/widgets/../core/../misc/../font/../misc/lv_area.h **** /**
  96:Drivers/lvgl/src/widgets/../core/../misc/../font/../misc/lv_area.h ****  * Initialize an area
  97:Drivers/lvgl/src/widgets/../core/../misc/../font/../misc/lv_area.h ****  * @param area_p pointer to an area
  98:Drivers/lvgl/src/widgets/../core/../misc/../font/../misc/lv_area.h ****  * @param x1 left coordinate of the area
  99:Drivers/lvgl/src/widgets/../core/../misc/../font/../misc/lv_area.h ****  * @param y1 top coordinate of the area
 100:Drivers/lvgl/src/widgets/../core/../misc/../font/../misc/lv_area.h ****  * @param x2 right coordinate of the area
 101:Drivers/lvgl/src/widgets/../core/../misc/../font/../misc/lv_area.h ****  * @param y2 bottom coordinate of the area
 102:Drivers/lvgl/src/widgets/../core/../misc/../font/../misc/lv_area.h ****  */
 103:Drivers/lvgl/src/widgets/../core/../misc/../font/../misc/lv_area.h **** void lv_area_set(lv_area_t * area_p, lv_coord_t x1, lv_coord_t y1, lv_coord_t x2, lv_coord_t y2);
 104:Drivers/lvgl/src/widgets/../core/../misc/../font/../misc/lv_area.h **** 
 105:Drivers/lvgl/src/widgets/../core/../misc/../font/../misc/lv_area.h **** /**
 106:Drivers/lvgl/src/widgets/../core/../misc/../font/../misc/lv_area.h ****  * Copy an area
 107:Drivers/lvgl/src/widgets/../core/../misc/../font/../misc/lv_area.h ****  * @param dest pointer to the destination area
 108:Drivers/lvgl/src/widgets/../core/../misc/../font/../misc/lv_area.h ****  * @param src pointer to the source area
 109:Drivers/lvgl/src/widgets/../core/../misc/../font/../misc/lv_area.h ****  */
 110:Drivers/lvgl/src/widgets/../core/../misc/../font/../misc/lv_area.h **** inline static void lv_area_copy(lv_area_t * dest, const lv_area_t * src)
 398              		.loc 3 110 20 view .LVU107
 399              	.LBB136:
 111:Drivers/lvgl/src/widgets/../core/../misc/../font/../misc/lv_area.h **** {
 112:Drivers/lvgl/src/widgets/../core/../misc/../font/../misc/lv_area.h ****     dest->x1 = src->x1;
 400              		.loc 3 112 5 view .LVU108
 113:Drivers/lvgl/src/widgets/../core/../misc/../font/../misc/lv_area.h ****     dest->y1 = src->y1;
 401              		.loc 3 113 5 view .LVU109
 402              		.loc 3 113 19 is_stmt 0 view .LVU110
 403 0076 B5F91630 		ldrsh	r3, [r5, #22]
 114:Drivers/lvgl/src/widgets/../core/../misc/../font/../misc/lv_area.h ****     dest->x2 = src->x2;
 404              		.loc 3 114 5 is_stmt 1 view .LVU111
 405              	.LBE136:
 406              	.LBE135:
 165:Drivers/lvgl/src/widgets/lv_switch.c ****     indic_area.y2 -= bg_bottom;
 407              		.loc 1 165 19 is_stmt 0 view .LVU112
 408 007a 4344     		add	r3, r3, r8
 409 007c ADF80630 		strh	r3, [sp, #6]	@ movhi
 410              	.LBB139:
 411              	.LBB137:
 412              		.loc 3 114 19 view .LVU113
 413 0080 B5F91830 		ldrsh	r3, [r5, #24]
 115:Drivers/lvgl/src/widgets/../core/../misc/../font/../misc/lv_area.h ****     dest->y2 = src->y2;
 414              		.loc 3 115 5 is_stmt 1 view .LVU114
 415              	.LBE137:
 416              	.LBE139:
 164:Drivers/lvgl/src/widgets/lv_switch.c ****     indic_area.y1 += bg_top;
 417              		.loc 1 164 19 is_stmt 0 view .LVU115
ARM GAS  /var/folders/0z/tsy30v1j4xl4_7kw94k978ww0000gn/T//cch0tet4.s 			page 18


 418 0084 DB1B     		subs	r3, r3, r7
 419 0086 ADF80830 		strh	r3, [sp, #8]	@ movhi
 420              	.LBB140:
 421              	.LBB138:
 422              		.loc 3 115 19 view .LVU116
 423 008a B5F91A30 		ldrsh	r3, [r5, #26]
 424              	.LVL41:
 425              		.loc 3 115 19 view .LVU117
 426              	.LBE138:
 427              	.LBE140:
 163:Drivers/lvgl/src/widgets/lv_switch.c ****     indic_area.x2 -= bg_right;
 428              		.loc 1 163 5 is_stmt 1 view .LVU118
 166:Drivers/lvgl/src/widgets/lv_switch.c **** 
 429              		.loc 1 166 19 is_stmt 0 view .LVU119
 430 008e 181A     		subs	r0, r3, r0
 431              	.LVL42:
 163:Drivers/lvgl/src/widgets/lv_switch.c ****     indic_area.x2 -= bg_right;
 432              		.loc 1 163 19 view .LVU120
 433 0090 AB8A     		ldrh	r3, [r5, #20]
 166:Drivers/lvgl/src/widgets/lv_switch.c **** 
 434              		.loc 1 166 19 view .LVU121
 435 0092 ADF80A00 		strh	r0, [sp, #10]	@ movhi
 163:Drivers/lvgl/src/widgets/lv_switch.c ****     indic_area.x2 -= bg_right;
 436              		.loc 1 163 19 view .LVU122
 437 0096 1C44     		add	r4, r4, r3
 438              	.LVL43:
 169:Drivers/lvgl/src/widgets/lv_switch.c ****     lv_obj_init_draw_rect_dsc(obj, LV_PART_INDICATOR, &draw_indic_dsc);
 439              		.loc 1 169 5 view .LVU123
 440 0098 05A8     		add	r0, sp, #20
 163:Drivers/lvgl/src/widgets/lv_switch.c ****     indic_area.x2 -= bg_right;
 441              		.loc 1 163 19 view .LVU124
 442 009a ADF80440 		strh	r4, [sp, #4]	@ movhi
 164:Drivers/lvgl/src/widgets/lv_switch.c ****     indic_area.y1 += bg_top;
 443              		.loc 1 164 5 is_stmt 1 view .LVU125
 165:Drivers/lvgl/src/widgets/lv_switch.c ****     indic_area.y2 -= bg_bottom;
 444              		.loc 1 165 5 view .LVU126
 166:Drivers/lvgl/src/widgets/lv_switch.c **** 
 445              		.loc 1 166 5 view .LVU127
 168:Drivers/lvgl/src/widgets/lv_switch.c ****     lv_draw_rect_dsc_init(&draw_indic_dsc);
 446              		.loc 1 168 5 view .LVU128
 169:Drivers/lvgl/src/widgets/lv_switch.c ****     lv_obj_init_draw_rect_dsc(obj, LV_PART_INDICATOR, &draw_indic_dsc);
 447              		.loc 1 169 5 view .LVU129
 448 009e FFF7FEFF 		bl	lv_draw_rect_dsc_init
 449              	.LVL44:
 170:Drivers/lvgl/src/widgets/lv_switch.c ****     lv_draw_rect(draw_ctx, &draw_indic_dsc, &indic_area);
 450              		.loc 1 170 5 view .LVU130
 451 00a2 05AA     		add	r2, sp, #20
 452 00a4 4FF40031 		mov	r1, #131072
 453 00a8 2846     		mov	r0, r5
 454 00aa FFF7FEFF 		bl	lv_obj_init_draw_rect_dsc
 455              	.LVL45:
 171:Drivers/lvgl/src/widgets/lv_switch.c **** 
 456              		.loc 1 171 5 view .LVU131
 457 00ae 01AA     		add	r2, sp, #4
 458 00b0 05A9     		add	r1, sp, #20
 459 00b2 3046     		mov	r0, r6
 460 00b4 FFF7FEFF 		bl	lv_draw_rect
ARM GAS  /var/folders/0z/tsy30v1j4xl4_7kw94k978ww0000gn/T//cch0tet4.s 			page 19


 461              	.LVL46:
 174:Drivers/lvgl/src/widgets/lv_switch.c ****     lv_coord_t knob_size = lv_obj_get_height(obj);
 462              		.loc 1 174 5 view .LVU132
 175:Drivers/lvgl/src/widgets/lv_switch.c ****     lv_coord_t anim_length = lv_area_get_width(&obj->coords) - knob_size;
 463              		.loc 1 175 5 view .LVU133
 175:Drivers/lvgl/src/widgets/lv_switch.c ****     lv_coord_t anim_length = lv_area_get_width(&obj->coords) - knob_size;
 464              		.loc 1 175 28 is_stmt 0 view .LVU134
 465 00b8 2846     		mov	r0, r5
 466 00ba FFF7FEFF 		bl	lv_obj_get_height
 467              	.LVL47:
 176:Drivers/lvgl/src/widgets/lv_switch.c **** 
 468              		.loc 1 176 5 is_stmt 1 view .LVU135
 469              	.LBB141:
 470              	.LBI141:
 116:Drivers/lvgl/src/widgets/../core/../misc/../font/../misc/lv_area.h **** }
 117:Drivers/lvgl/src/widgets/../core/../misc/../font/../misc/lv_area.h **** 
 118:Drivers/lvgl/src/widgets/../core/../misc/../font/../misc/lv_area.h **** /**
 119:Drivers/lvgl/src/widgets/../core/../misc/../font/../misc/lv_area.h ****  * Get the width of an area
 120:Drivers/lvgl/src/widgets/../core/../misc/../font/../misc/lv_area.h ****  * @param area_p pointer to an area
 121:Drivers/lvgl/src/widgets/../core/../misc/../font/../misc/lv_area.h ****  * @return the width of the area (if x1 == x2 -> width = 1)
 122:Drivers/lvgl/src/widgets/../core/../misc/../font/../misc/lv_area.h ****  */
 123:Drivers/lvgl/src/widgets/../core/../misc/../font/../misc/lv_area.h **** static inline lv_coord_t lv_area_get_width(const lv_area_t * area_p)
 471              		.loc 3 123 26 view .LVU136
 472              	.LBB142:
 124:Drivers/lvgl/src/widgets/../core/../misc/../font/../misc/lv_area.h **** {
 125:Drivers/lvgl/src/widgets/../core/../misc/../font/../misc/lv_area.h ****     return (lv_coord_t)(area_p->x2 - area_p->x1 + 1);
 473              		.loc 3 125 5 view .LVU137
 474              		.loc 3 125 5 is_stmt 0 view .LVU138
 475              	.LBE142:
 476              	.LBE141:
 176:Drivers/lvgl/src/widgets/lv_switch.c **** 
 477              		.loc 1 176 62 view .LVU139
 478 00be 2B8B     		ldrh	r3, [r5, #24]
 479 00c0 AA8A     		ldrh	r2, [r5, #20]
 480 00c2 87B2     		uxth	r7, r0
 481              	.LVL48:
 176:Drivers/lvgl/src/widgets/lv_switch.c **** 
 482              		.loc 1 176 62 view .LVU140
 483 00c4 DB1B     		subs	r3, r3, r7
 484 00c6 0133     		adds	r3, r3, #1
 485 00c8 9B1A     		subs	r3, r3, r2
 486 00ca 1FFA83F8 		uxth	r8, r3
 487              	.LVL49:
 176:Drivers/lvgl/src/widgets/lv_switch.c **** 
 488              		.loc 1 176 16 view .LVU141
 489 00ce 1CB2     		sxth	r4, r3
 490              	.LVL50:
 178:Drivers/lvgl/src/widgets/lv_switch.c ****         /* Use the animation's coordinate */
 491              		.loc 1 178 5 is_stmt 1 view .LVU142
 178:Drivers/lvgl/src/widgets/lv_switch.c ****         /* Use the animation's coordinate */
 492              		.loc 1 178 8 is_stmt 0 view .LVU143
 493 00d0 6B6A     		ldr	r3, [r5, #36]
 178:Drivers/lvgl/src/widgets/lv_switch.c ****         /* Use the animation's coordinate */
 494              		.loc 1 178 7 view .LVU144
 495 00d2 5A1C     		adds	r2, r3, #1
 496 00d4 00F0DF80 		beq	.L18
 180:Drivers/lvgl/src/widgets/lv_switch.c ****     }
ARM GAS  /var/folders/0z/tsy30v1j4xl4_7kw94k978ww0000gn/T//cch0tet4.s 			page 20


 497              		.loc 1 180 9 is_stmt 1 view .LVU145
 498              	.LVL51:
 180:Drivers/lvgl/src/widgets/lv_switch.c ****     }
 499              		.loc 1 180 37 is_stmt 0 view .LVU146
 500 00d8 03FB04F4 		mul	r4, r3, r4
 501              	.LVL52:
 180:Drivers/lvgl/src/widgets/lv_switch.c ****     }
 502              		.loc 1 180 55 view .LVU147
 503 00dc 002C     		cmp	r4, #0
 504 00de B8BF     		it	lt
 505 00e0 FF34     		addlt	r4, r4, #255
 189:Drivers/lvgl/src/widgets/lv_switch.c ****     }
 506              		.loc 1 189 36 view .LVU148
 507 00e2 C4F30F24 		ubfx	r4, r4, #8, #16
 508              	.LVL53:
 509              	.L20:
 188:Drivers/lvgl/src/widgets/lv_switch.c ****         anim_value_x = anim_length - anim_value_x;
 510              		.loc 1 188 5 is_stmt 1 view .LVU149
 511              	.LBB143:
 512              	.LBI143:
 125:Drivers/lvgl/src/widgets/../core/lv_obj_style_gen.h **** }
 126:Drivers/lvgl/src/widgets/../core/lv_obj_style_gen.h **** 
 127:Drivers/lvgl/src/widgets/../core/lv_obj_style_gen.h **** static inline lv_coord_t lv_obj_get_style_pad_row(const struct _lv_obj_t * obj, uint32_t part)
 128:Drivers/lvgl/src/widgets/../core/lv_obj_style_gen.h **** {
 129:Drivers/lvgl/src/widgets/../core/lv_obj_style_gen.h ****     lv_style_value_t v = lv_obj_get_style_prop(obj, part, LV_STYLE_PAD_ROW);
 130:Drivers/lvgl/src/widgets/../core/lv_obj_style_gen.h ****     return (lv_coord_t)v.num;
 131:Drivers/lvgl/src/widgets/../core/lv_obj_style_gen.h **** }
 132:Drivers/lvgl/src/widgets/../core/lv_obj_style_gen.h **** 
 133:Drivers/lvgl/src/widgets/../core/lv_obj_style_gen.h **** static inline lv_coord_t lv_obj_get_style_pad_column(const struct _lv_obj_t * obj, uint32_t part)
 134:Drivers/lvgl/src/widgets/../core/lv_obj_style_gen.h **** {
 135:Drivers/lvgl/src/widgets/../core/lv_obj_style_gen.h ****     lv_style_value_t v = lv_obj_get_style_prop(obj, part, LV_STYLE_PAD_COLUMN);
 136:Drivers/lvgl/src/widgets/../core/lv_obj_style_gen.h ****     return (lv_coord_t)v.num;
 137:Drivers/lvgl/src/widgets/../core/lv_obj_style_gen.h **** }
 138:Drivers/lvgl/src/widgets/../core/lv_obj_style_gen.h **** 
 139:Drivers/lvgl/src/widgets/../core/lv_obj_style_gen.h **** static inline lv_color_t lv_obj_get_style_bg_color(const struct _lv_obj_t * obj, uint32_t part)
 140:Drivers/lvgl/src/widgets/../core/lv_obj_style_gen.h **** {
 141:Drivers/lvgl/src/widgets/../core/lv_obj_style_gen.h ****     lv_style_value_t v = lv_obj_get_style_prop(obj, part, LV_STYLE_BG_COLOR);
 142:Drivers/lvgl/src/widgets/../core/lv_obj_style_gen.h ****     return v.color;
 143:Drivers/lvgl/src/widgets/../core/lv_obj_style_gen.h **** }
 144:Drivers/lvgl/src/widgets/../core/lv_obj_style_gen.h **** 
 145:Drivers/lvgl/src/widgets/../core/lv_obj_style_gen.h **** static inline lv_color_t lv_obj_get_style_bg_color_filtered(const struct _lv_obj_t * obj, uint32_t 
 146:Drivers/lvgl/src/widgets/../core/lv_obj_style_gen.h **** {
 147:Drivers/lvgl/src/widgets/../core/lv_obj_style_gen.h ****     lv_style_value_t v = _lv_obj_style_apply_color_filter(obj, part, lv_obj_get_style_prop(obj, par
 148:Drivers/lvgl/src/widgets/../core/lv_obj_style_gen.h ****     return v.color;
 149:Drivers/lvgl/src/widgets/../core/lv_obj_style_gen.h **** }
 150:Drivers/lvgl/src/widgets/../core/lv_obj_style_gen.h **** 
 151:Drivers/lvgl/src/widgets/../core/lv_obj_style_gen.h **** static inline lv_opa_t lv_obj_get_style_bg_opa(const struct _lv_obj_t * obj, uint32_t part)
 152:Drivers/lvgl/src/widgets/../core/lv_obj_style_gen.h **** {
 153:Drivers/lvgl/src/widgets/../core/lv_obj_style_gen.h ****     lv_style_value_t v = lv_obj_get_style_prop(obj, part, LV_STYLE_BG_OPA);
 154:Drivers/lvgl/src/widgets/../core/lv_obj_style_gen.h ****     return (lv_opa_t)v.num;
 155:Drivers/lvgl/src/widgets/../core/lv_obj_style_gen.h **** }
 156:Drivers/lvgl/src/widgets/../core/lv_obj_style_gen.h **** 
 157:Drivers/lvgl/src/widgets/../core/lv_obj_style_gen.h **** static inline lv_color_t lv_obj_get_style_bg_grad_color(const struct _lv_obj_t * obj, uint32_t part
 158:Drivers/lvgl/src/widgets/../core/lv_obj_style_gen.h **** {
 159:Drivers/lvgl/src/widgets/../core/lv_obj_style_gen.h ****     lv_style_value_t v = lv_obj_get_style_prop(obj, part, LV_STYLE_BG_GRAD_COLOR);
 160:Drivers/lvgl/src/widgets/../core/lv_obj_style_gen.h ****     return v.color;
 161:Drivers/lvgl/src/widgets/../core/lv_obj_style_gen.h **** }
ARM GAS  /var/folders/0z/tsy30v1j4xl4_7kw94k978ww0000gn/T//cch0tet4.s 			page 21


 162:Drivers/lvgl/src/widgets/../core/lv_obj_style_gen.h **** 
 163:Drivers/lvgl/src/widgets/../core/lv_obj_style_gen.h **** static inline lv_color_t lv_obj_get_style_bg_grad_color_filtered(const struct _lv_obj_t * obj, uint
 164:Drivers/lvgl/src/widgets/../core/lv_obj_style_gen.h **** {
 165:Drivers/lvgl/src/widgets/../core/lv_obj_style_gen.h ****     lv_style_value_t v = _lv_obj_style_apply_color_filter(obj, part, lv_obj_get_style_prop(obj, par
 166:Drivers/lvgl/src/widgets/../core/lv_obj_style_gen.h ****     return v.color;
 167:Drivers/lvgl/src/widgets/../core/lv_obj_style_gen.h **** }
 168:Drivers/lvgl/src/widgets/../core/lv_obj_style_gen.h **** 
 169:Drivers/lvgl/src/widgets/../core/lv_obj_style_gen.h **** static inline lv_grad_dir_t lv_obj_get_style_bg_grad_dir(const struct _lv_obj_t * obj, uint32_t par
 170:Drivers/lvgl/src/widgets/../core/lv_obj_style_gen.h **** {
 171:Drivers/lvgl/src/widgets/../core/lv_obj_style_gen.h ****     lv_style_value_t v = lv_obj_get_style_prop(obj, part, LV_STYLE_BG_GRAD_DIR);
 172:Drivers/lvgl/src/widgets/../core/lv_obj_style_gen.h ****     return (lv_grad_dir_t)v.num;
 173:Drivers/lvgl/src/widgets/../core/lv_obj_style_gen.h **** }
 174:Drivers/lvgl/src/widgets/../core/lv_obj_style_gen.h **** 
 175:Drivers/lvgl/src/widgets/../core/lv_obj_style_gen.h **** static inline lv_coord_t lv_obj_get_style_bg_main_stop(const struct _lv_obj_t * obj, uint32_t part)
 176:Drivers/lvgl/src/widgets/../core/lv_obj_style_gen.h **** {
 177:Drivers/lvgl/src/widgets/../core/lv_obj_style_gen.h ****     lv_style_value_t v = lv_obj_get_style_prop(obj, part, LV_STYLE_BG_MAIN_STOP);
 178:Drivers/lvgl/src/widgets/../core/lv_obj_style_gen.h ****     return (lv_coord_t)v.num;
 179:Drivers/lvgl/src/widgets/../core/lv_obj_style_gen.h **** }
 180:Drivers/lvgl/src/widgets/../core/lv_obj_style_gen.h **** 
 181:Drivers/lvgl/src/widgets/../core/lv_obj_style_gen.h **** static inline lv_coord_t lv_obj_get_style_bg_grad_stop(const struct _lv_obj_t * obj, uint32_t part)
 182:Drivers/lvgl/src/widgets/../core/lv_obj_style_gen.h **** {
 183:Drivers/lvgl/src/widgets/../core/lv_obj_style_gen.h ****     lv_style_value_t v = lv_obj_get_style_prop(obj, part, LV_STYLE_BG_GRAD_STOP);
 184:Drivers/lvgl/src/widgets/../core/lv_obj_style_gen.h ****     return (lv_coord_t)v.num;
 185:Drivers/lvgl/src/widgets/../core/lv_obj_style_gen.h **** }
 186:Drivers/lvgl/src/widgets/../core/lv_obj_style_gen.h **** 
 187:Drivers/lvgl/src/widgets/../core/lv_obj_style_gen.h **** static inline const lv_grad_dsc_t * lv_obj_get_style_bg_grad(const struct _lv_obj_t * obj, uint32_t
 188:Drivers/lvgl/src/widgets/../core/lv_obj_style_gen.h **** {
 189:Drivers/lvgl/src/widgets/../core/lv_obj_style_gen.h ****     lv_style_value_t v = lv_obj_get_style_prop(obj, part, LV_STYLE_BG_GRAD);
 190:Drivers/lvgl/src/widgets/../core/lv_obj_style_gen.h ****     return (const lv_grad_dsc_t *)v.ptr;
 191:Drivers/lvgl/src/widgets/../core/lv_obj_style_gen.h **** }
 192:Drivers/lvgl/src/widgets/../core/lv_obj_style_gen.h **** 
 193:Drivers/lvgl/src/widgets/../core/lv_obj_style_gen.h **** static inline lv_dither_mode_t lv_obj_get_style_bg_dither_mode(const struct _lv_obj_t * obj, uint32
 194:Drivers/lvgl/src/widgets/../core/lv_obj_style_gen.h **** {
 195:Drivers/lvgl/src/widgets/../core/lv_obj_style_gen.h ****     lv_style_value_t v = lv_obj_get_style_prop(obj, part, LV_STYLE_BG_DITHER_MODE);
 196:Drivers/lvgl/src/widgets/../core/lv_obj_style_gen.h ****     return (lv_dither_mode_t)v.num;
 197:Drivers/lvgl/src/widgets/../core/lv_obj_style_gen.h **** }
 198:Drivers/lvgl/src/widgets/../core/lv_obj_style_gen.h **** 
 199:Drivers/lvgl/src/widgets/../core/lv_obj_style_gen.h **** static inline const void * lv_obj_get_style_bg_img_src(const struct _lv_obj_t * obj, uint32_t part)
 200:Drivers/lvgl/src/widgets/../core/lv_obj_style_gen.h **** {
 201:Drivers/lvgl/src/widgets/../core/lv_obj_style_gen.h ****     lv_style_value_t v = lv_obj_get_style_prop(obj, part, LV_STYLE_BG_IMG_SRC);
 202:Drivers/lvgl/src/widgets/../core/lv_obj_style_gen.h ****     return (const void *)v.ptr;
 203:Drivers/lvgl/src/widgets/../core/lv_obj_style_gen.h **** }
 204:Drivers/lvgl/src/widgets/../core/lv_obj_style_gen.h **** 
 205:Drivers/lvgl/src/widgets/../core/lv_obj_style_gen.h **** static inline lv_opa_t lv_obj_get_style_bg_img_opa(const struct _lv_obj_t * obj, uint32_t part)
 206:Drivers/lvgl/src/widgets/../core/lv_obj_style_gen.h **** {
 207:Drivers/lvgl/src/widgets/../core/lv_obj_style_gen.h ****     lv_style_value_t v = lv_obj_get_style_prop(obj, part, LV_STYLE_BG_IMG_OPA);
 208:Drivers/lvgl/src/widgets/../core/lv_obj_style_gen.h ****     return (lv_opa_t)v.num;
 209:Drivers/lvgl/src/widgets/../core/lv_obj_style_gen.h **** }
 210:Drivers/lvgl/src/widgets/../core/lv_obj_style_gen.h **** 
 211:Drivers/lvgl/src/widgets/../core/lv_obj_style_gen.h **** static inline lv_color_t lv_obj_get_style_bg_img_recolor(const struct _lv_obj_t * obj, uint32_t par
 212:Drivers/lvgl/src/widgets/../core/lv_obj_style_gen.h **** {
 213:Drivers/lvgl/src/widgets/../core/lv_obj_style_gen.h ****     lv_style_value_t v = lv_obj_get_style_prop(obj, part, LV_STYLE_BG_IMG_RECOLOR);
 214:Drivers/lvgl/src/widgets/../core/lv_obj_style_gen.h ****     return v.color;
 215:Drivers/lvgl/src/widgets/../core/lv_obj_style_gen.h **** }
 216:Drivers/lvgl/src/widgets/../core/lv_obj_style_gen.h **** 
 217:Drivers/lvgl/src/widgets/../core/lv_obj_style_gen.h **** static inline lv_color_t lv_obj_get_style_bg_img_recolor_filtered(const struct _lv_obj_t * obj, uin
 218:Drivers/lvgl/src/widgets/../core/lv_obj_style_gen.h **** {
ARM GAS  /var/folders/0z/tsy30v1j4xl4_7kw94k978ww0000gn/T//cch0tet4.s 			page 22


 219:Drivers/lvgl/src/widgets/../core/lv_obj_style_gen.h ****     lv_style_value_t v = _lv_obj_style_apply_color_filter(obj, part, lv_obj_get_style_prop(obj, par
 220:Drivers/lvgl/src/widgets/../core/lv_obj_style_gen.h ****     return v.color;
 221:Drivers/lvgl/src/widgets/../core/lv_obj_style_gen.h **** }
 222:Drivers/lvgl/src/widgets/../core/lv_obj_style_gen.h **** 
 223:Drivers/lvgl/src/widgets/../core/lv_obj_style_gen.h **** static inline lv_opa_t lv_obj_get_style_bg_img_recolor_opa(const struct _lv_obj_t * obj, uint32_t p
 224:Drivers/lvgl/src/widgets/../core/lv_obj_style_gen.h **** {
 225:Drivers/lvgl/src/widgets/../core/lv_obj_style_gen.h ****     lv_style_value_t v = lv_obj_get_style_prop(obj, part, LV_STYLE_BG_IMG_RECOLOR_OPA);
 226:Drivers/lvgl/src/widgets/../core/lv_obj_style_gen.h ****     return (lv_opa_t)v.num;
 227:Drivers/lvgl/src/widgets/../core/lv_obj_style_gen.h **** }
 228:Drivers/lvgl/src/widgets/../core/lv_obj_style_gen.h **** 
 229:Drivers/lvgl/src/widgets/../core/lv_obj_style_gen.h **** static inline bool lv_obj_get_style_bg_img_tiled(const struct _lv_obj_t * obj, uint32_t part)
 230:Drivers/lvgl/src/widgets/../core/lv_obj_style_gen.h **** {
 231:Drivers/lvgl/src/widgets/../core/lv_obj_style_gen.h ****     lv_style_value_t v = lv_obj_get_style_prop(obj, part, LV_STYLE_BG_IMG_TILED);
 232:Drivers/lvgl/src/widgets/../core/lv_obj_style_gen.h ****     return (bool)v.num;
 233:Drivers/lvgl/src/widgets/../core/lv_obj_style_gen.h **** }
 234:Drivers/lvgl/src/widgets/../core/lv_obj_style_gen.h **** 
 235:Drivers/lvgl/src/widgets/../core/lv_obj_style_gen.h **** static inline lv_color_t lv_obj_get_style_border_color(const struct _lv_obj_t * obj, uint32_t part)
 236:Drivers/lvgl/src/widgets/../core/lv_obj_style_gen.h **** {
 237:Drivers/lvgl/src/widgets/../core/lv_obj_style_gen.h ****     lv_style_value_t v = lv_obj_get_style_prop(obj, part, LV_STYLE_BORDER_COLOR);
 238:Drivers/lvgl/src/widgets/../core/lv_obj_style_gen.h ****     return v.color;
 239:Drivers/lvgl/src/widgets/../core/lv_obj_style_gen.h **** }
 240:Drivers/lvgl/src/widgets/../core/lv_obj_style_gen.h **** 
 241:Drivers/lvgl/src/widgets/../core/lv_obj_style_gen.h **** static inline lv_color_t lv_obj_get_style_border_color_filtered(const struct _lv_obj_t * obj, uint3
 242:Drivers/lvgl/src/widgets/../core/lv_obj_style_gen.h **** {
 243:Drivers/lvgl/src/widgets/../core/lv_obj_style_gen.h ****     lv_style_value_t v = _lv_obj_style_apply_color_filter(obj, part, lv_obj_get_style_prop(obj, par
 244:Drivers/lvgl/src/widgets/../core/lv_obj_style_gen.h ****     return v.color;
 245:Drivers/lvgl/src/widgets/../core/lv_obj_style_gen.h **** }
 246:Drivers/lvgl/src/widgets/../core/lv_obj_style_gen.h **** 
 247:Drivers/lvgl/src/widgets/../core/lv_obj_style_gen.h **** static inline lv_opa_t lv_obj_get_style_border_opa(const struct _lv_obj_t * obj, uint32_t part)
 248:Drivers/lvgl/src/widgets/../core/lv_obj_style_gen.h **** {
 249:Drivers/lvgl/src/widgets/../core/lv_obj_style_gen.h ****     lv_style_value_t v = lv_obj_get_style_prop(obj, part, LV_STYLE_BORDER_OPA);
 250:Drivers/lvgl/src/widgets/../core/lv_obj_style_gen.h ****     return (lv_opa_t)v.num;
 251:Drivers/lvgl/src/widgets/../core/lv_obj_style_gen.h **** }
 252:Drivers/lvgl/src/widgets/../core/lv_obj_style_gen.h **** 
 253:Drivers/lvgl/src/widgets/../core/lv_obj_style_gen.h **** static inline lv_coord_t lv_obj_get_style_border_width(const struct _lv_obj_t * obj, uint32_t part)
 254:Drivers/lvgl/src/widgets/../core/lv_obj_style_gen.h **** {
 255:Drivers/lvgl/src/widgets/../core/lv_obj_style_gen.h ****     lv_style_value_t v = lv_obj_get_style_prop(obj, part, LV_STYLE_BORDER_WIDTH);
 256:Drivers/lvgl/src/widgets/../core/lv_obj_style_gen.h ****     return (lv_coord_t)v.num;
 257:Drivers/lvgl/src/widgets/../core/lv_obj_style_gen.h **** }
 258:Drivers/lvgl/src/widgets/../core/lv_obj_style_gen.h **** 
 259:Drivers/lvgl/src/widgets/../core/lv_obj_style_gen.h **** static inline lv_border_side_t lv_obj_get_style_border_side(const struct _lv_obj_t * obj, uint32_t 
 260:Drivers/lvgl/src/widgets/../core/lv_obj_style_gen.h **** {
 261:Drivers/lvgl/src/widgets/../core/lv_obj_style_gen.h ****     lv_style_value_t v = lv_obj_get_style_prop(obj, part, LV_STYLE_BORDER_SIDE);
 262:Drivers/lvgl/src/widgets/../core/lv_obj_style_gen.h ****     return (lv_border_side_t)v.num;
 263:Drivers/lvgl/src/widgets/../core/lv_obj_style_gen.h **** }
 264:Drivers/lvgl/src/widgets/../core/lv_obj_style_gen.h **** 
 265:Drivers/lvgl/src/widgets/../core/lv_obj_style_gen.h **** static inline bool lv_obj_get_style_border_post(const struct _lv_obj_t * obj, uint32_t part)
 266:Drivers/lvgl/src/widgets/../core/lv_obj_style_gen.h **** {
 267:Drivers/lvgl/src/widgets/../core/lv_obj_style_gen.h ****     lv_style_value_t v = lv_obj_get_style_prop(obj, part, LV_STYLE_BORDER_POST);
 268:Drivers/lvgl/src/widgets/../core/lv_obj_style_gen.h ****     return (bool)v.num;
 269:Drivers/lvgl/src/widgets/../core/lv_obj_style_gen.h **** }
 270:Drivers/lvgl/src/widgets/../core/lv_obj_style_gen.h **** 
 271:Drivers/lvgl/src/widgets/../core/lv_obj_style_gen.h **** static inline lv_coord_t lv_obj_get_style_outline_width(const struct _lv_obj_t * obj, uint32_t part
 272:Drivers/lvgl/src/widgets/../core/lv_obj_style_gen.h **** {
 273:Drivers/lvgl/src/widgets/../core/lv_obj_style_gen.h ****     lv_style_value_t v = lv_obj_get_style_prop(obj, part, LV_STYLE_OUTLINE_WIDTH);
 274:Drivers/lvgl/src/widgets/../core/lv_obj_style_gen.h ****     return (lv_coord_t)v.num;
 275:Drivers/lvgl/src/widgets/../core/lv_obj_style_gen.h **** }
ARM GAS  /var/folders/0z/tsy30v1j4xl4_7kw94k978ww0000gn/T//cch0tet4.s 			page 23


 276:Drivers/lvgl/src/widgets/../core/lv_obj_style_gen.h **** 
 277:Drivers/lvgl/src/widgets/../core/lv_obj_style_gen.h **** static inline lv_color_t lv_obj_get_style_outline_color(const struct _lv_obj_t * obj, uint32_t part
 278:Drivers/lvgl/src/widgets/../core/lv_obj_style_gen.h **** {
 279:Drivers/lvgl/src/widgets/../core/lv_obj_style_gen.h ****     lv_style_value_t v = lv_obj_get_style_prop(obj, part, LV_STYLE_OUTLINE_COLOR);
 280:Drivers/lvgl/src/widgets/../core/lv_obj_style_gen.h ****     return v.color;
 281:Drivers/lvgl/src/widgets/../core/lv_obj_style_gen.h **** }
 282:Drivers/lvgl/src/widgets/../core/lv_obj_style_gen.h **** 
 283:Drivers/lvgl/src/widgets/../core/lv_obj_style_gen.h **** static inline lv_color_t lv_obj_get_style_outline_color_filtered(const struct _lv_obj_t * obj, uint
 284:Drivers/lvgl/src/widgets/../core/lv_obj_style_gen.h **** {
 285:Drivers/lvgl/src/widgets/../core/lv_obj_style_gen.h ****     lv_style_value_t v = _lv_obj_style_apply_color_filter(obj, part, lv_obj_get_style_prop(obj, par
 286:Drivers/lvgl/src/widgets/../core/lv_obj_style_gen.h ****     return v.color;
 287:Drivers/lvgl/src/widgets/../core/lv_obj_style_gen.h **** }
 288:Drivers/lvgl/src/widgets/../core/lv_obj_style_gen.h **** 
 289:Drivers/lvgl/src/widgets/../core/lv_obj_style_gen.h **** static inline lv_opa_t lv_obj_get_style_outline_opa(const struct _lv_obj_t * obj, uint32_t part)
 290:Drivers/lvgl/src/widgets/../core/lv_obj_style_gen.h **** {
 291:Drivers/lvgl/src/widgets/../core/lv_obj_style_gen.h ****     lv_style_value_t v = lv_obj_get_style_prop(obj, part, LV_STYLE_OUTLINE_OPA);
 292:Drivers/lvgl/src/widgets/../core/lv_obj_style_gen.h ****     return (lv_opa_t)v.num;
 293:Drivers/lvgl/src/widgets/../core/lv_obj_style_gen.h **** }
 294:Drivers/lvgl/src/widgets/../core/lv_obj_style_gen.h **** 
 295:Drivers/lvgl/src/widgets/../core/lv_obj_style_gen.h **** static inline lv_coord_t lv_obj_get_style_outline_pad(const struct _lv_obj_t * obj, uint32_t part)
 296:Drivers/lvgl/src/widgets/../core/lv_obj_style_gen.h **** {
 297:Drivers/lvgl/src/widgets/../core/lv_obj_style_gen.h ****     lv_style_value_t v = lv_obj_get_style_prop(obj, part, LV_STYLE_OUTLINE_PAD);
 298:Drivers/lvgl/src/widgets/../core/lv_obj_style_gen.h ****     return (lv_coord_t)v.num;
 299:Drivers/lvgl/src/widgets/../core/lv_obj_style_gen.h **** }
 300:Drivers/lvgl/src/widgets/../core/lv_obj_style_gen.h **** 
 301:Drivers/lvgl/src/widgets/../core/lv_obj_style_gen.h **** static inline lv_coord_t lv_obj_get_style_shadow_width(const struct _lv_obj_t * obj, uint32_t part)
 302:Drivers/lvgl/src/widgets/../core/lv_obj_style_gen.h **** {
 303:Drivers/lvgl/src/widgets/../core/lv_obj_style_gen.h ****     lv_style_value_t v = lv_obj_get_style_prop(obj, part, LV_STYLE_SHADOW_WIDTH);
 304:Drivers/lvgl/src/widgets/../core/lv_obj_style_gen.h ****     return (lv_coord_t)v.num;
 305:Drivers/lvgl/src/widgets/../core/lv_obj_style_gen.h **** }
 306:Drivers/lvgl/src/widgets/../core/lv_obj_style_gen.h **** 
 307:Drivers/lvgl/src/widgets/../core/lv_obj_style_gen.h **** static inline lv_coord_t lv_obj_get_style_shadow_ofs_x(const struct _lv_obj_t * obj, uint32_t part)
 308:Drivers/lvgl/src/widgets/../core/lv_obj_style_gen.h **** {
 309:Drivers/lvgl/src/widgets/../core/lv_obj_style_gen.h ****     lv_style_value_t v = lv_obj_get_style_prop(obj, part, LV_STYLE_SHADOW_OFS_X);
 310:Drivers/lvgl/src/widgets/../core/lv_obj_style_gen.h ****     return (lv_coord_t)v.num;
 311:Drivers/lvgl/src/widgets/../core/lv_obj_style_gen.h **** }
 312:Drivers/lvgl/src/widgets/../core/lv_obj_style_gen.h **** 
 313:Drivers/lvgl/src/widgets/../core/lv_obj_style_gen.h **** static inline lv_coord_t lv_obj_get_style_shadow_ofs_y(const struct _lv_obj_t * obj, uint32_t part)
 314:Drivers/lvgl/src/widgets/../core/lv_obj_style_gen.h **** {
 315:Drivers/lvgl/src/widgets/../core/lv_obj_style_gen.h ****     lv_style_value_t v = lv_obj_get_style_prop(obj, part, LV_STYLE_SHADOW_OFS_Y);
 316:Drivers/lvgl/src/widgets/../core/lv_obj_style_gen.h ****     return (lv_coord_t)v.num;
 317:Drivers/lvgl/src/widgets/../core/lv_obj_style_gen.h **** }
 318:Drivers/lvgl/src/widgets/../core/lv_obj_style_gen.h **** 
 319:Drivers/lvgl/src/widgets/../core/lv_obj_style_gen.h **** static inline lv_coord_t lv_obj_get_style_shadow_spread(const struct _lv_obj_t * obj, uint32_t part
 320:Drivers/lvgl/src/widgets/../core/lv_obj_style_gen.h **** {
 321:Drivers/lvgl/src/widgets/../core/lv_obj_style_gen.h ****     lv_style_value_t v = lv_obj_get_style_prop(obj, part, LV_STYLE_SHADOW_SPREAD);
 322:Drivers/lvgl/src/widgets/../core/lv_obj_style_gen.h ****     return (lv_coord_t)v.num;
 323:Drivers/lvgl/src/widgets/../core/lv_obj_style_gen.h **** }
 324:Drivers/lvgl/src/widgets/../core/lv_obj_style_gen.h **** 
 325:Drivers/lvgl/src/widgets/../core/lv_obj_style_gen.h **** static inline lv_color_t lv_obj_get_style_shadow_color(const struct _lv_obj_t * obj, uint32_t part)
 326:Drivers/lvgl/src/widgets/../core/lv_obj_style_gen.h **** {
 327:Drivers/lvgl/src/widgets/../core/lv_obj_style_gen.h ****     lv_style_value_t v = lv_obj_get_style_prop(obj, part, LV_STYLE_SHADOW_COLOR);
 328:Drivers/lvgl/src/widgets/../core/lv_obj_style_gen.h ****     return v.color;
 329:Drivers/lvgl/src/widgets/../core/lv_obj_style_gen.h **** }
 330:Drivers/lvgl/src/widgets/../core/lv_obj_style_gen.h **** 
 331:Drivers/lvgl/src/widgets/../core/lv_obj_style_gen.h **** static inline lv_color_t lv_obj_get_style_shadow_color_filtered(const struct _lv_obj_t * obj, uint3
 332:Drivers/lvgl/src/widgets/../core/lv_obj_style_gen.h **** {
ARM GAS  /var/folders/0z/tsy30v1j4xl4_7kw94k978ww0000gn/T//cch0tet4.s 			page 24


 333:Drivers/lvgl/src/widgets/../core/lv_obj_style_gen.h ****     lv_style_value_t v = _lv_obj_style_apply_color_filter(obj, part, lv_obj_get_style_prop(obj, par
 334:Drivers/lvgl/src/widgets/../core/lv_obj_style_gen.h ****     return v.color;
 335:Drivers/lvgl/src/widgets/../core/lv_obj_style_gen.h **** }
 336:Drivers/lvgl/src/widgets/../core/lv_obj_style_gen.h **** 
 337:Drivers/lvgl/src/widgets/../core/lv_obj_style_gen.h **** static inline lv_opa_t lv_obj_get_style_shadow_opa(const struct _lv_obj_t * obj, uint32_t part)
 338:Drivers/lvgl/src/widgets/../core/lv_obj_style_gen.h **** {
 339:Drivers/lvgl/src/widgets/../core/lv_obj_style_gen.h ****     lv_style_value_t v = lv_obj_get_style_prop(obj, part, LV_STYLE_SHADOW_OPA);
 340:Drivers/lvgl/src/widgets/../core/lv_obj_style_gen.h ****     return (lv_opa_t)v.num;
 341:Drivers/lvgl/src/widgets/../core/lv_obj_style_gen.h **** }
 342:Drivers/lvgl/src/widgets/../core/lv_obj_style_gen.h **** 
 343:Drivers/lvgl/src/widgets/../core/lv_obj_style_gen.h **** static inline lv_opa_t lv_obj_get_style_img_opa(const struct _lv_obj_t * obj, uint32_t part)
 344:Drivers/lvgl/src/widgets/../core/lv_obj_style_gen.h **** {
 345:Drivers/lvgl/src/widgets/../core/lv_obj_style_gen.h ****     lv_style_value_t v = lv_obj_get_style_prop(obj, part, LV_STYLE_IMG_OPA);
 346:Drivers/lvgl/src/widgets/../core/lv_obj_style_gen.h ****     return (lv_opa_t)v.num;
 347:Drivers/lvgl/src/widgets/../core/lv_obj_style_gen.h **** }
 348:Drivers/lvgl/src/widgets/../core/lv_obj_style_gen.h **** 
 349:Drivers/lvgl/src/widgets/../core/lv_obj_style_gen.h **** static inline lv_color_t lv_obj_get_style_img_recolor(const struct _lv_obj_t * obj, uint32_t part)
 350:Drivers/lvgl/src/widgets/../core/lv_obj_style_gen.h **** {
 351:Drivers/lvgl/src/widgets/../core/lv_obj_style_gen.h ****     lv_style_value_t v = lv_obj_get_style_prop(obj, part, LV_STYLE_IMG_RECOLOR);
 352:Drivers/lvgl/src/widgets/../core/lv_obj_style_gen.h ****     return v.color;
 353:Drivers/lvgl/src/widgets/../core/lv_obj_style_gen.h **** }
 354:Drivers/lvgl/src/widgets/../core/lv_obj_style_gen.h **** 
 355:Drivers/lvgl/src/widgets/../core/lv_obj_style_gen.h **** static inline lv_color_t lv_obj_get_style_img_recolor_filtered(const struct _lv_obj_t * obj, uint32
 356:Drivers/lvgl/src/widgets/../core/lv_obj_style_gen.h **** {
 357:Drivers/lvgl/src/widgets/../core/lv_obj_style_gen.h ****     lv_style_value_t v = _lv_obj_style_apply_color_filter(obj, part, lv_obj_get_style_prop(obj, par
 358:Drivers/lvgl/src/widgets/../core/lv_obj_style_gen.h ****     return v.color;
 359:Drivers/lvgl/src/widgets/../core/lv_obj_style_gen.h **** }
 360:Drivers/lvgl/src/widgets/../core/lv_obj_style_gen.h **** 
 361:Drivers/lvgl/src/widgets/../core/lv_obj_style_gen.h **** static inline lv_opa_t lv_obj_get_style_img_recolor_opa(const struct _lv_obj_t * obj, uint32_t part
 362:Drivers/lvgl/src/widgets/../core/lv_obj_style_gen.h **** {
 363:Drivers/lvgl/src/widgets/../core/lv_obj_style_gen.h ****     lv_style_value_t v = lv_obj_get_style_prop(obj, part, LV_STYLE_IMG_RECOLOR_OPA);
 364:Drivers/lvgl/src/widgets/../core/lv_obj_style_gen.h ****     return (lv_opa_t)v.num;
 365:Drivers/lvgl/src/widgets/../core/lv_obj_style_gen.h **** }
 366:Drivers/lvgl/src/widgets/../core/lv_obj_style_gen.h **** 
 367:Drivers/lvgl/src/widgets/../core/lv_obj_style_gen.h **** static inline lv_coord_t lv_obj_get_style_line_width(const struct _lv_obj_t * obj, uint32_t part)
 368:Drivers/lvgl/src/widgets/../core/lv_obj_style_gen.h **** {
 369:Drivers/lvgl/src/widgets/../core/lv_obj_style_gen.h ****     lv_style_value_t v = lv_obj_get_style_prop(obj, part, LV_STYLE_LINE_WIDTH);
 370:Drivers/lvgl/src/widgets/../core/lv_obj_style_gen.h ****     return (lv_coord_t)v.num;
 371:Drivers/lvgl/src/widgets/../core/lv_obj_style_gen.h **** }
 372:Drivers/lvgl/src/widgets/../core/lv_obj_style_gen.h **** 
 373:Drivers/lvgl/src/widgets/../core/lv_obj_style_gen.h **** static inline lv_coord_t lv_obj_get_style_line_dash_width(const struct _lv_obj_t * obj, uint32_t pa
 374:Drivers/lvgl/src/widgets/../core/lv_obj_style_gen.h **** {
 375:Drivers/lvgl/src/widgets/../core/lv_obj_style_gen.h ****     lv_style_value_t v = lv_obj_get_style_prop(obj, part, LV_STYLE_LINE_DASH_WIDTH);
 376:Drivers/lvgl/src/widgets/../core/lv_obj_style_gen.h ****     return (lv_coord_t)v.num;
 377:Drivers/lvgl/src/widgets/../core/lv_obj_style_gen.h **** }
 378:Drivers/lvgl/src/widgets/../core/lv_obj_style_gen.h **** 
 379:Drivers/lvgl/src/widgets/../core/lv_obj_style_gen.h **** static inline lv_coord_t lv_obj_get_style_line_dash_gap(const struct _lv_obj_t * obj, uint32_t part
 380:Drivers/lvgl/src/widgets/../core/lv_obj_style_gen.h **** {
 381:Drivers/lvgl/src/widgets/../core/lv_obj_style_gen.h ****     lv_style_value_t v = lv_obj_get_style_prop(obj, part, LV_STYLE_LINE_DASH_GAP);
 382:Drivers/lvgl/src/widgets/../core/lv_obj_style_gen.h ****     return (lv_coord_t)v.num;
 383:Drivers/lvgl/src/widgets/../core/lv_obj_style_gen.h **** }
 384:Drivers/lvgl/src/widgets/../core/lv_obj_style_gen.h **** 
 385:Drivers/lvgl/src/widgets/../core/lv_obj_style_gen.h **** static inline bool lv_obj_get_style_line_rounded(const struct _lv_obj_t * obj, uint32_t part)
 386:Drivers/lvgl/src/widgets/../core/lv_obj_style_gen.h **** {
 387:Drivers/lvgl/src/widgets/../core/lv_obj_style_gen.h ****     lv_style_value_t v = lv_obj_get_style_prop(obj, part, LV_STYLE_LINE_ROUNDED);
 388:Drivers/lvgl/src/widgets/../core/lv_obj_style_gen.h ****     return (bool)v.num;
 389:Drivers/lvgl/src/widgets/../core/lv_obj_style_gen.h **** }
ARM GAS  /var/folders/0z/tsy30v1j4xl4_7kw94k978ww0000gn/T//cch0tet4.s 			page 25


 390:Drivers/lvgl/src/widgets/../core/lv_obj_style_gen.h **** 
 391:Drivers/lvgl/src/widgets/../core/lv_obj_style_gen.h **** static inline lv_color_t lv_obj_get_style_line_color(const struct _lv_obj_t * obj, uint32_t part)
 392:Drivers/lvgl/src/widgets/../core/lv_obj_style_gen.h **** {
 393:Drivers/lvgl/src/widgets/../core/lv_obj_style_gen.h ****     lv_style_value_t v = lv_obj_get_style_prop(obj, part, LV_STYLE_LINE_COLOR);
 394:Drivers/lvgl/src/widgets/../core/lv_obj_style_gen.h ****     return v.color;
 395:Drivers/lvgl/src/widgets/../core/lv_obj_style_gen.h **** }
 396:Drivers/lvgl/src/widgets/../core/lv_obj_style_gen.h **** 
 397:Drivers/lvgl/src/widgets/../core/lv_obj_style_gen.h **** static inline lv_color_t lv_obj_get_style_line_color_filtered(const struct _lv_obj_t * obj, uint32_
 398:Drivers/lvgl/src/widgets/../core/lv_obj_style_gen.h **** {
 399:Drivers/lvgl/src/widgets/../core/lv_obj_style_gen.h ****     lv_style_value_t v = _lv_obj_style_apply_color_filter(obj, part, lv_obj_get_style_prop(obj, par
 400:Drivers/lvgl/src/widgets/../core/lv_obj_style_gen.h ****     return v.color;
 401:Drivers/lvgl/src/widgets/../core/lv_obj_style_gen.h **** }
 402:Drivers/lvgl/src/widgets/../core/lv_obj_style_gen.h **** 
 403:Drivers/lvgl/src/widgets/../core/lv_obj_style_gen.h **** static inline lv_opa_t lv_obj_get_style_line_opa(const struct _lv_obj_t * obj, uint32_t part)
 404:Drivers/lvgl/src/widgets/../core/lv_obj_style_gen.h **** {
 405:Drivers/lvgl/src/widgets/../core/lv_obj_style_gen.h ****     lv_style_value_t v = lv_obj_get_style_prop(obj, part, LV_STYLE_LINE_OPA);
 406:Drivers/lvgl/src/widgets/../core/lv_obj_style_gen.h ****     return (lv_opa_t)v.num;
 407:Drivers/lvgl/src/widgets/../core/lv_obj_style_gen.h **** }
 408:Drivers/lvgl/src/widgets/../core/lv_obj_style_gen.h **** 
 409:Drivers/lvgl/src/widgets/../core/lv_obj_style_gen.h **** static inline lv_coord_t lv_obj_get_style_arc_width(const struct _lv_obj_t * obj, uint32_t part)
 410:Drivers/lvgl/src/widgets/../core/lv_obj_style_gen.h **** {
 411:Drivers/lvgl/src/widgets/../core/lv_obj_style_gen.h ****     lv_style_value_t v = lv_obj_get_style_prop(obj, part, LV_STYLE_ARC_WIDTH);
 412:Drivers/lvgl/src/widgets/../core/lv_obj_style_gen.h ****     return (lv_coord_t)v.num;
 413:Drivers/lvgl/src/widgets/../core/lv_obj_style_gen.h **** }
 414:Drivers/lvgl/src/widgets/../core/lv_obj_style_gen.h **** 
 415:Drivers/lvgl/src/widgets/../core/lv_obj_style_gen.h **** static inline bool lv_obj_get_style_arc_rounded(const struct _lv_obj_t * obj, uint32_t part)
 416:Drivers/lvgl/src/widgets/../core/lv_obj_style_gen.h **** {
 417:Drivers/lvgl/src/widgets/../core/lv_obj_style_gen.h ****     lv_style_value_t v = lv_obj_get_style_prop(obj, part, LV_STYLE_ARC_ROUNDED);
 418:Drivers/lvgl/src/widgets/../core/lv_obj_style_gen.h ****     return (bool)v.num;
 419:Drivers/lvgl/src/widgets/../core/lv_obj_style_gen.h **** }
 420:Drivers/lvgl/src/widgets/../core/lv_obj_style_gen.h **** 
 421:Drivers/lvgl/src/widgets/../core/lv_obj_style_gen.h **** static inline lv_color_t lv_obj_get_style_arc_color(const struct _lv_obj_t * obj, uint32_t part)
 422:Drivers/lvgl/src/widgets/../core/lv_obj_style_gen.h **** {
 423:Drivers/lvgl/src/widgets/../core/lv_obj_style_gen.h ****     lv_style_value_t v = lv_obj_get_style_prop(obj, part, LV_STYLE_ARC_COLOR);
 424:Drivers/lvgl/src/widgets/../core/lv_obj_style_gen.h ****     return v.color;
 425:Drivers/lvgl/src/widgets/../core/lv_obj_style_gen.h **** }
 426:Drivers/lvgl/src/widgets/../core/lv_obj_style_gen.h **** 
 427:Drivers/lvgl/src/widgets/../core/lv_obj_style_gen.h **** static inline lv_color_t lv_obj_get_style_arc_color_filtered(const struct _lv_obj_t * obj, uint32_t
 428:Drivers/lvgl/src/widgets/../core/lv_obj_style_gen.h **** {
 429:Drivers/lvgl/src/widgets/../core/lv_obj_style_gen.h ****     lv_style_value_t v = _lv_obj_style_apply_color_filter(obj, part, lv_obj_get_style_prop(obj, par
 430:Drivers/lvgl/src/widgets/../core/lv_obj_style_gen.h ****     return v.color;
 431:Drivers/lvgl/src/widgets/../core/lv_obj_style_gen.h **** }
 432:Drivers/lvgl/src/widgets/../core/lv_obj_style_gen.h **** 
 433:Drivers/lvgl/src/widgets/../core/lv_obj_style_gen.h **** static inline lv_opa_t lv_obj_get_style_arc_opa(const struct _lv_obj_t * obj, uint32_t part)
 434:Drivers/lvgl/src/widgets/../core/lv_obj_style_gen.h **** {
 435:Drivers/lvgl/src/widgets/../core/lv_obj_style_gen.h ****     lv_style_value_t v = lv_obj_get_style_prop(obj, part, LV_STYLE_ARC_OPA);
 436:Drivers/lvgl/src/widgets/../core/lv_obj_style_gen.h ****     return (lv_opa_t)v.num;
 437:Drivers/lvgl/src/widgets/../core/lv_obj_style_gen.h **** }
 438:Drivers/lvgl/src/widgets/../core/lv_obj_style_gen.h **** 
 439:Drivers/lvgl/src/widgets/../core/lv_obj_style_gen.h **** static inline const void * lv_obj_get_style_arc_img_src(const struct _lv_obj_t * obj, uint32_t part
 440:Drivers/lvgl/src/widgets/../core/lv_obj_style_gen.h **** {
 441:Drivers/lvgl/src/widgets/../core/lv_obj_style_gen.h ****     lv_style_value_t v = lv_obj_get_style_prop(obj, part, LV_STYLE_ARC_IMG_SRC);
 442:Drivers/lvgl/src/widgets/../core/lv_obj_style_gen.h ****     return (const void *)v.ptr;
 443:Drivers/lvgl/src/widgets/../core/lv_obj_style_gen.h **** }
 444:Drivers/lvgl/src/widgets/../core/lv_obj_style_gen.h **** 
 445:Drivers/lvgl/src/widgets/../core/lv_obj_style_gen.h **** static inline lv_color_t lv_obj_get_style_text_color(const struct _lv_obj_t * obj, uint32_t part)
 446:Drivers/lvgl/src/widgets/../core/lv_obj_style_gen.h **** {
ARM GAS  /var/folders/0z/tsy30v1j4xl4_7kw94k978ww0000gn/T//cch0tet4.s 			page 26


 447:Drivers/lvgl/src/widgets/../core/lv_obj_style_gen.h ****     lv_style_value_t v = lv_obj_get_style_prop(obj, part, LV_STYLE_TEXT_COLOR);
 448:Drivers/lvgl/src/widgets/../core/lv_obj_style_gen.h ****     return v.color;
 449:Drivers/lvgl/src/widgets/../core/lv_obj_style_gen.h **** }
 450:Drivers/lvgl/src/widgets/../core/lv_obj_style_gen.h **** 
 451:Drivers/lvgl/src/widgets/../core/lv_obj_style_gen.h **** static inline lv_color_t lv_obj_get_style_text_color_filtered(const struct _lv_obj_t * obj, uint32_
 452:Drivers/lvgl/src/widgets/../core/lv_obj_style_gen.h **** {
 453:Drivers/lvgl/src/widgets/../core/lv_obj_style_gen.h ****     lv_style_value_t v = _lv_obj_style_apply_color_filter(obj, part, lv_obj_get_style_prop(obj, par
 454:Drivers/lvgl/src/widgets/../core/lv_obj_style_gen.h ****     return v.color;
 455:Drivers/lvgl/src/widgets/../core/lv_obj_style_gen.h **** }
 456:Drivers/lvgl/src/widgets/../core/lv_obj_style_gen.h **** 
 457:Drivers/lvgl/src/widgets/../core/lv_obj_style_gen.h **** static inline lv_opa_t lv_obj_get_style_text_opa(const struct _lv_obj_t * obj, uint32_t part)
 458:Drivers/lvgl/src/widgets/../core/lv_obj_style_gen.h **** {
 459:Drivers/lvgl/src/widgets/../core/lv_obj_style_gen.h ****     lv_style_value_t v = lv_obj_get_style_prop(obj, part, LV_STYLE_TEXT_OPA);
 460:Drivers/lvgl/src/widgets/../core/lv_obj_style_gen.h ****     return (lv_opa_t)v.num;
 461:Drivers/lvgl/src/widgets/../core/lv_obj_style_gen.h **** }
 462:Drivers/lvgl/src/widgets/../core/lv_obj_style_gen.h **** 
 463:Drivers/lvgl/src/widgets/../core/lv_obj_style_gen.h **** static inline const lv_font_t * lv_obj_get_style_text_font(const struct _lv_obj_t * obj, uint32_t p
 464:Drivers/lvgl/src/widgets/../core/lv_obj_style_gen.h **** {
 465:Drivers/lvgl/src/widgets/../core/lv_obj_style_gen.h ****     lv_style_value_t v = lv_obj_get_style_prop(obj, part, LV_STYLE_TEXT_FONT);
 466:Drivers/lvgl/src/widgets/../core/lv_obj_style_gen.h ****     return (const lv_font_t *)v.ptr;
 467:Drivers/lvgl/src/widgets/../core/lv_obj_style_gen.h **** }
 468:Drivers/lvgl/src/widgets/../core/lv_obj_style_gen.h **** 
 469:Drivers/lvgl/src/widgets/../core/lv_obj_style_gen.h **** static inline lv_coord_t lv_obj_get_style_text_letter_space(const struct _lv_obj_t * obj, uint32_t 
 470:Drivers/lvgl/src/widgets/../core/lv_obj_style_gen.h **** {
 471:Drivers/lvgl/src/widgets/../core/lv_obj_style_gen.h ****     lv_style_value_t v = lv_obj_get_style_prop(obj, part, LV_STYLE_TEXT_LETTER_SPACE);
 472:Drivers/lvgl/src/widgets/../core/lv_obj_style_gen.h ****     return (lv_coord_t)v.num;
 473:Drivers/lvgl/src/widgets/../core/lv_obj_style_gen.h **** }
 474:Drivers/lvgl/src/widgets/../core/lv_obj_style_gen.h **** 
 475:Drivers/lvgl/src/widgets/../core/lv_obj_style_gen.h **** static inline lv_coord_t lv_obj_get_style_text_line_space(const struct _lv_obj_t * obj, uint32_t pa
 476:Drivers/lvgl/src/widgets/../core/lv_obj_style_gen.h **** {
 477:Drivers/lvgl/src/widgets/../core/lv_obj_style_gen.h ****     lv_style_value_t v = lv_obj_get_style_prop(obj, part, LV_STYLE_TEXT_LINE_SPACE);
 478:Drivers/lvgl/src/widgets/../core/lv_obj_style_gen.h ****     return (lv_coord_t)v.num;
 479:Drivers/lvgl/src/widgets/../core/lv_obj_style_gen.h **** }
 480:Drivers/lvgl/src/widgets/../core/lv_obj_style_gen.h **** 
 481:Drivers/lvgl/src/widgets/../core/lv_obj_style_gen.h **** static inline lv_text_decor_t lv_obj_get_style_text_decor(const struct _lv_obj_t * obj, uint32_t pa
 482:Drivers/lvgl/src/widgets/../core/lv_obj_style_gen.h **** {
 483:Drivers/lvgl/src/widgets/../core/lv_obj_style_gen.h ****     lv_style_value_t v = lv_obj_get_style_prop(obj, part, LV_STYLE_TEXT_DECOR);
 484:Drivers/lvgl/src/widgets/../core/lv_obj_style_gen.h ****     return (lv_text_decor_t)v.num;
 485:Drivers/lvgl/src/widgets/../core/lv_obj_style_gen.h **** }
 486:Drivers/lvgl/src/widgets/../core/lv_obj_style_gen.h **** 
 487:Drivers/lvgl/src/widgets/../core/lv_obj_style_gen.h **** static inline lv_text_align_t lv_obj_get_style_text_align(const struct _lv_obj_t * obj, uint32_t pa
 488:Drivers/lvgl/src/widgets/../core/lv_obj_style_gen.h **** {
 489:Drivers/lvgl/src/widgets/../core/lv_obj_style_gen.h ****     lv_style_value_t v = lv_obj_get_style_prop(obj, part, LV_STYLE_TEXT_ALIGN);
 490:Drivers/lvgl/src/widgets/../core/lv_obj_style_gen.h ****     return (lv_text_align_t)v.num;
 491:Drivers/lvgl/src/widgets/../core/lv_obj_style_gen.h **** }
 492:Drivers/lvgl/src/widgets/../core/lv_obj_style_gen.h **** 
 493:Drivers/lvgl/src/widgets/../core/lv_obj_style_gen.h **** static inline lv_coord_t lv_obj_get_style_radius(const struct _lv_obj_t * obj, uint32_t part)
 494:Drivers/lvgl/src/widgets/../core/lv_obj_style_gen.h **** {
 495:Drivers/lvgl/src/widgets/../core/lv_obj_style_gen.h ****     lv_style_value_t v = lv_obj_get_style_prop(obj, part, LV_STYLE_RADIUS);
 496:Drivers/lvgl/src/widgets/../core/lv_obj_style_gen.h ****     return (lv_coord_t)v.num;
 497:Drivers/lvgl/src/widgets/../core/lv_obj_style_gen.h **** }
 498:Drivers/lvgl/src/widgets/../core/lv_obj_style_gen.h **** 
 499:Drivers/lvgl/src/widgets/../core/lv_obj_style_gen.h **** static inline bool lv_obj_get_style_clip_corner(const struct _lv_obj_t * obj, uint32_t part)
 500:Drivers/lvgl/src/widgets/../core/lv_obj_style_gen.h **** {
 501:Drivers/lvgl/src/widgets/../core/lv_obj_style_gen.h ****     lv_style_value_t v = lv_obj_get_style_prop(obj, part, LV_STYLE_CLIP_CORNER);
 502:Drivers/lvgl/src/widgets/../core/lv_obj_style_gen.h ****     return (bool)v.num;
 503:Drivers/lvgl/src/widgets/../core/lv_obj_style_gen.h **** }
ARM GAS  /var/folders/0z/tsy30v1j4xl4_7kw94k978ww0000gn/T//cch0tet4.s 			page 27


 504:Drivers/lvgl/src/widgets/../core/lv_obj_style_gen.h **** 
 505:Drivers/lvgl/src/widgets/../core/lv_obj_style_gen.h **** static inline lv_opa_t lv_obj_get_style_opa(const struct _lv_obj_t * obj, uint32_t part)
 506:Drivers/lvgl/src/widgets/../core/lv_obj_style_gen.h **** {
 507:Drivers/lvgl/src/widgets/../core/lv_obj_style_gen.h ****     lv_style_value_t v = lv_obj_get_style_prop(obj, part, LV_STYLE_OPA);
 508:Drivers/lvgl/src/widgets/../core/lv_obj_style_gen.h ****     return (lv_opa_t)v.num;
 509:Drivers/lvgl/src/widgets/../core/lv_obj_style_gen.h **** }
 510:Drivers/lvgl/src/widgets/../core/lv_obj_style_gen.h **** 
 511:Drivers/lvgl/src/widgets/../core/lv_obj_style_gen.h **** static inline lv_opa_t lv_obj_get_style_opa_layered(const struct _lv_obj_t * obj, uint32_t part)
 512:Drivers/lvgl/src/widgets/../core/lv_obj_style_gen.h **** {
 513:Drivers/lvgl/src/widgets/../core/lv_obj_style_gen.h ****     lv_style_value_t v = lv_obj_get_style_prop(obj, part, LV_STYLE_OPA_LAYERED);
 514:Drivers/lvgl/src/widgets/../core/lv_obj_style_gen.h ****     return (lv_opa_t)v.num;
 515:Drivers/lvgl/src/widgets/../core/lv_obj_style_gen.h **** }
 516:Drivers/lvgl/src/widgets/../core/lv_obj_style_gen.h **** 
 517:Drivers/lvgl/src/widgets/../core/lv_obj_style_gen.h **** static inline const lv_color_filter_dsc_t * lv_obj_get_style_color_filter_dsc(const struct _lv_obj_
 518:Drivers/lvgl/src/widgets/../core/lv_obj_style_gen.h **** {
 519:Drivers/lvgl/src/widgets/../core/lv_obj_style_gen.h ****     lv_style_value_t v = lv_obj_get_style_prop(obj, part, LV_STYLE_COLOR_FILTER_DSC);
 520:Drivers/lvgl/src/widgets/../core/lv_obj_style_gen.h ****     return (const lv_color_filter_dsc_t *)v.ptr;
 521:Drivers/lvgl/src/widgets/../core/lv_obj_style_gen.h **** }
 522:Drivers/lvgl/src/widgets/../core/lv_obj_style_gen.h **** 
 523:Drivers/lvgl/src/widgets/../core/lv_obj_style_gen.h **** static inline lv_opa_t lv_obj_get_style_color_filter_opa(const struct _lv_obj_t * obj, uint32_t par
 524:Drivers/lvgl/src/widgets/../core/lv_obj_style_gen.h **** {
 525:Drivers/lvgl/src/widgets/../core/lv_obj_style_gen.h ****     lv_style_value_t v = lv_obj_get_style_prop(obj, part, LV_STYLE_COLOR_FILTER_OPA);
 526:Drivers/lvgl/src/widgets/../core/lv_obj_style_gen.h ****     return (lv_opa_t)v.num;
 527:Drivers/lvgl/src/widgets/../core/lv_obj_style_gen.h **** }
 528:Drivers/lvgl/src/widgets/../core/lv_obj_style_gen.h **** 
 529:Drivers/lvgl/src/widgets/../core/lv_obj_style_gen.h **** static inline const lv_anim_t * lv_obj_get_style_anim(const struct _lv_obj_t * obj, uint32_t part)
 530:Drivers/lvgl/src/widgets/../core/lv_obj_style_gen.h **** {
 531:Drivers/lvgl/src/widgets/../core/lv_obj_style_gen.h ****     lv_style_value_t v = lv_obj_get_style_prop(obj, part, LV_STYLE_ANIM);
 532:Drivers/lvgl/src/widgets/../core/lv_obj_style_gen.h ****     return (const lv_anim_t *)v.ptr;
 533:Drivers/lvgl/src/widgets/../core/lv_obj_style_gen.h **** }
 534:Drivers/lvgl/src/widgets/../core/lv_obj_style_gen.h **** 
 535:Drivers/lvgl/src/widgets/../core/lv_obj_style_gen.h **** static inline uint32_t lv_obj_get_style_anim_time(const struct _lv_obj_t * obj, uint32_t part)
 536:Drivers/lvgl/src/widgets/../core/lv_obj_style_gen.h **** {
 537:Drivers/lvgl/src/widgets/../core/lv_obj_style_gen.h ****     lv_style_value_t v = lv_obj_get_style_prop(obj, part, LV_STYLE_ANIM_TIME);
 538:Drivers/lvgl/src/widgets/../core/lv_obj_style_gen.h ****     return (uint32_t)v.num;
 539:Drivers/lvgl/src/widgets/../core/lv_obj_style_gen.h **** }
 540:Drivers/lvgl/src/widgets/../core/lv_obj_style_gen.h **** 
 541:Drivers/lvgl/src/widgets/../core/lv_obj_style_gen.h **** static inline uint32_t lv_obj_get_style_anim_speed(const struct _lv_obj_t * obj, uint32_t part)
 542:Drivers/lvgl/src/widgets/../core/lv_obj_style_gen.h **** {
 543:Drivers/lvgl/src/widgets/../core/lv_obj_style_gen.h ****     lv_style_value_t v = lv_obj_get_style_prop(obj, part, LV_STYLE_ANIM_SPEED);
 544:Drivers/lvgl/src/widgets/../core/lv_obj_style_gen.h ****     return (uint32_t)v.num;
 545:Drivers/lvgl/src/widgets/../core/lv_obj_style_gen.h **** }
 546:Drivers/lvgl/src/widgets/../core/lv_obj_style_gen.h **** 
 547:Drivers/lvgl/src/widgets/../core/lv_obj_style_gen.h **** static inline const lv_style_transition_dsc_t * lv_obj_get_style_transition(const struct _lv_obj_t 
 548:Drivers/lvgl/src/widgets/../core/lv_obj_style_gen.h **** {
 549:Drivers/lvgl/src/widgets/../core/lv_obj_style_gen.h ****     lv_style_value_t v = lv_obj_get_style_prop(obj, part, LV_STYLE_TRANSITION);
 550:Drivers/lvgl/src/widgets/../core/lv_obj_style_gen.h ****     return (const lv_style_transition_dsc_t *)v.ptr;
 551:Drivers/lvgl/src/widgets/../core/lv_obj_style_gen.h **** }
 552:Drivers/lvgl/src/widgets/../core/lv_obj_style_gen.h **** 
 553:Drivers/lvgl/src/widgets/../core/lv_obj_style_gen.h **** static inline lv_blend_mode_t lv_obj_get_style_blend_mode(const struct _lv_obj_t * obj, uint32_t pa
 554:Drivers/lvgl/src/widgets/../core/lv_obj_style_gen.h **** {
 555:Drivers/lvgl/src/widgets/../core/lv_obj_style_gen.h ****     lv_style_value_t v = lv_obj_get_style_prop(obj, part, LV_STYLE_BLEND_MODE);
 556:Drivers/lvgl/src/widgets/../core/lv_obj_style_gen.h ****     return (lv_blend_mode_t)v.num;
 557:Drivers/lvgl/src/widgets/../core/lv_obj_style_gen.h **** }
 558:Drivers/lvgl/src/widgets/../core/lv_obj_style_gen.h **** 
 559:Drivers/lvgl/src/widgets/../core/lv_obj_style_gen.h **** static inline uint16_t lv_obj_get_style_layout(const struct _lv_obj_t * obj, uint32_t part)
 560:Drivers/lvgl/src/widgets/../core/lv_obj_style_gen.h **** {
ARM GAS  /var/folders/0z/tsy30v1j4xl4_7kw94k978ww0000gn/T//cch0tet4.s 			page 28


 561:Drivers/lvgl/src/widgets/../core/lv_obj_style_gen.h ****     lv_style_value_t v = lv_obj_get_style_prop(obj, part, LV_STYLE_LAYOUT);
 562:Drivers/lvgl/src/widgets/../core/lv_obj_style_gen.h ****     return (uint16_t)v.num;
 563:Drivers/lvgl/src/widgets/../core/lv_obj_style_gen.h **** }
 564:Drivers/lvgl/src/widgets/../core/lv_obj_style_gen.h **** 
 565:Drivers/lvgl/src/widgets/../core/lv_obj_style_gen.h **** static inline lv_base_dir_t lv_obj_get_style_base_dir(const struct _lv_obj_t * obj, uint32_t part)
 513              		.loc 2 565 29 view .LVU150
 514              	.LBB144:
 566:Drivers/lvgl/src/widgets/../core/lv_obj_style_gen.h **** {
 567:Drivers/lvgl/src/widgets/../core/lv_obj_style_gen.h ****     lv_style_value_t v = lv_obj_get_style_prop(obj, part, LV_STYLE_BASE_DIR);
 515              		.loc 2 567 5 view .LVU151
 516              		.loc 2 567 26 is_stmt 0 view .LVU152
 517 00e6 1622     		movs	r2, #22
 518 00e8 0021     		movs	r1, #0
 519 00ea 2846     		mov	r0, r5
 520 00ec FFF7FEFF 		bl	lv_obj_get_style_prop
 521              	.LVL54:
 568:Drivers/lvgl/src/widgets/../core/lv_obj_style_gen.h ****     return (lv_base_dir_t)v.num;
 522              		.loc 2 568 5 is_stmt 1 view .LVU153
 523              		.loc 2 568 12 is_stmt 0 view .LVU154
 524 00f0 C0B2     		uxtb	r0, r0
 525              	.LVL55:
 526              		.loc 2 568 12 view .LVU155
 527              	.LBE144:
 528              	.LBE143:
 188:Drivers/lvgl/src/widgets/lv_switch.c ****         anim_value_x = anim_length - anim_value_x;
 529              		.loc 1 188 7 view .LVU156
 530 00f2 0128     		cmp	r0, #1
 189:Drivers/lvgl/src/widgets/lv_switch.c ****     }
 531              		.loc 1 189 9 is_stmt 1 view .LVU157
 189:Drivers/lvgl/src/widgets/lv_switch.c ****     }
 532              		.loc 1 189 36 is_stmt 0 view .LVU158
 533 00f4 08BF     		it	eq
 534 00f6 A8EB0404 		subeq	r4, r8, r4
 193:Drivers/lvgl/src/widgets/lv_switch.c ****     knob_area.x2 = knob_area.x1 + knob_size;
 535              		.loc 1 193 35 view .LVU159
 536 00fa AB8A     		ldrh	r3, [r5, #20]
 196:Drivers/lvgl/src/widgets/lv_switch.c ****     knob_area.y2 = obj->coords.y2;
 537              		.loc 1 196 18 view .LVU160
 538 00fc E98A     		ldrh	r1, [r5, #22]
 539 00fe ADF80E10 		strh	r1, [sp, #14]	@ movhi
 189:Drivers/lvgl/src/widgets/lv_switch.c ****     }
 540              		.loc 1 189 36 view .LVU161
 541 0102 08BF     		it	eq
 542 0104 A4B2     		uxtheq	r4, r4
 543              	.LVL56:
 192:Drivers/lvgl/src/widgets/lv_switch.c ****     knob_area.x1 = obj->coords.x1 + anim_value_x;
 544              		.loc 1 192 5 is_stmt 1 view .LVU162
 193:Drivers/lvgl/src/widgets/lv_switch.c ****     knob_area.x2 = knob_area.x1 + knob_size;
 545              		.loc 1 193 5 view .LVU163
 193:Drivers/lvgl/src/widgets/lv_switch.c ****     knob_area.x2 = knob_area.x1 + knob_size;
 546              		.loc 1 193 35 is_stmt 0 view .LVU164
 547 0106 1C44     		add	r4, r4, r3
 548 0108 A4B2     		uxth	r4, r4
 197:Drivers/lvgl/src/widgets/lv_switch.c **** 
 549              		.loc 1 197 18 view .LVU165
 550 010a 6B8B     		ldrh	r3, [r5, #26]
 551 010c ADF81230 		strh	r3, [sp, #18]	@ movhi
ARM GAS  /var/folders/0z/tsy30v1j4xl4_7kw94k978ww0000gn/T//cch0tet4.s 			page 29


 194:Drivers/lvgl/src/widgets/lv_switch.c **** 
 552              		.loc 1 194 33 view .LVU166
 553 0110 2744     		add	r7, r7, r4
 554              	.LVL57:
 555              	.LBB145:
 556              	.LBB146:
 117:Drivers/lvgl/src/widgets/../core/lv_obj_style_gen.h ****     return (lv_coord_t)v.num;
 557              		.loc 2 117 26 view .LVU167
 558 0112 1222     		movs	r2, #18
 559 0114 4FF44031 		mov	r1, #196608
 560 0118 2846     		mov	r0, r5
 561              	.LBE146:
 562              	.LBE145:
 193:Drivers/lvgl/src/widgets/lv_switch.c ****     knob_area.x2 = knob_area.x1 + knob_size;
 563              		.loc 1 193 18 view .LVU168
 564 011a ADF80C40 		strh	r4, [sp, #12]	@ movhi
 194:Drivers/lvgl/src/widgets/lv_switch.c **** 
 565              		.loc 1 194 5 is_stmt 1 view .LVU169
 194:Drivers/lvgl/src/widgets/lv_switch.c **** 
 566              		.loc 1 194 18 is_stmt 0 view .LVU170
 567 011e ADF81070 		strh	r7, [sp, #16]	@ movhi
 196:Drivers/lvgl/src/widgets/lv_switch.c ****     knob_area.y2 = obj->coords.y2;
 568              		.loc 1 196 5 is_stmt 1 view .LVU171
 197:Drivers/lvgl/src/widgets/lv_switch.c **** 
 569              		.loc 1 197 5 view .LVU172
 199:Drivers/lvgl/src/widgets/lv_switch.c ****     lv_coord_t knob_right = lv_obj_get_style_pad_right(obj, LV_PART_KNOB);
 570              		.loc 1 199 5 view .LVU173
 571              	.LVL58:
 572              	.LBB149:
 573              	.LBI145:
 115:Drivers/lvgl/src/widgets/../core/lv_obj_style_gen.h **** {
 574              		.loc 2 115 26 view .LVU174
 575              	.LBB147:
 117:Drivers/lvgl/src/widgets/../core/lv_obj_style_gen.h ****     return (lv_coord_t)v.num;
 576              		.loc 2 117 5 view .LVU175
 117:Drivers/lvgl/src/widgets/../core/lv_obj_style_gen.h ****     return (lv_coord_t)v.num;
 577              		.loc 2 117 26 is_stmt 0 view .LVU176
 578 0122 FFF7FEFF 		bl	lv_obj_get_style_prop
 579              	.LVL59:
 580              	.LBE147:
 581              	.LBE149:
 582              	.LBB150:
 583              	.LBB151:
 123:Drivers/lvgl/src/widgets/../core/lv_obj_style_gen.h ****     return (lv_coord_t)v.num;
 584              		.loc 2 123 26 view .LVU177
 585 0126 1322     		movs	r2, #19
 586              	.LBE151:
 587              	.LBE150:
 588              	.LBB154:
 589              	.LBB148:
 117:Drivers/lvgl/src/widgets/../core/lv_obj_style_gen.h ****     return (lv_coord_t)v.num;
 590              		.loc 2 117 26 view .LVU178
 591 0128 8046     		mov	r8, r0
 592              	.LVL60:
 118:Drivers/lvgl/src/widgets/../core/lv_obj_style_gen.h **** }
 593              		.loc 2 118 5 is_stmt 1 view .LVU179
 118:Drivers/lvgl/src/widgets/../core/lv_obj_style_gen.h **** }
ARM GAS  /var/folders/0z/tsy30v1j4xl4_7kw94k978ww0000gn/T//cch0tet4.s 			page 30


 594              		.loc 2 118 5 is_stmt 0 view .LVU180
 595              	.LBE148:
 596              	.LBE154:
 200:Drivers/lvgl/src/widgets/lv_switch.c ****     lv_coord_t knob_top = lv_obj_get_style_pad_top(obj, LV_PART_KNOB);
 597              		.loc 1 200 5 is_stmt 1 view .LVU181
 598              	.LBB155:
 599              	.LBI150:
 121:Drivers/lvgl/src/widgets/../core/lv_obj_style_gen.h **** {
 600              		.loc 2 121 26 view .LVU182
 601              	.LBB152:
 123:Drivers/lvgl/src/widgets/../core/lv_obj_style_gen.h ****     return (lv_coord_t)v.num;
 602              		.loc 2 123 5 view .LVU183
 123:Drivers/lvgl/src/widgets/../core/lv_obj_style_gen.h ****     return (lv_coord_t)v.num;
 603              		.loc 2 123 26 is_stmt 0 view .LVU184
 604 012a 4FF44031 		mov	r1, #196608
 605 012e 2846     		mov	r0, r5
 606 0130 FFF7FEFF 		bl	lv_obj_get_style_prop
 607              	.LVL61:
 608              	.LBE152:
 609              	.LBE155:
 610              	.LBB156:
 611              	.LBB157:
 105:Drivers/lvgl/src/widgets/../core/lv_obj_style_gen.h ****     return (lv_coord_t)v.num;
 612              		.loc 2 105 26 view .LVU185
 613 0134 1022     		movs	r2, #16
 614              	.LBE157:
 615              	.LBE156:
 616              	.LBB160:
 617              	.LBB153:
 123:Drivers/lvgl/src/widgets/../core/lv_obj_style_gen.h ****     return (lv_coord_t)v.num;
 618              		.loc 2 123 26 view .LVU186
 619 0136 0446     		mov	r4, r0
 620              	.LVL62:
 124:Drivers/lvgl/src/widgets/../core/lv_obj_style_gen.h **** }
 621              		.loc 2 124 5 is_stmt 1 view .LVU187
 124:Drivers/lvgl/src/widgets/../core/lv_obj_style_gen.h **** }
 622              		.loc 2 124 5 is_stmt 0 view .LVU188
 623              	.LBE153:
 624              	.LBE160:
 201:Drivers/lvgl/src/widgets/lv_switch.c ****     lv_coord_t knob_bottom = lv_obj_get_style_pad_bottom(obj, LV_PART_KNOB);
 625              		.loc 1 201 5 is_stmt 1 view .LVU189
 626              	.LBB161:
 627              	.LBI156:
 103:Drivers/lvgl/src/widgets/../core/lv_obj_style_gen.h **** {
 628              		.loc 2 103 26 view .LVU190
 629              	.LBB158:
 105:Drivers/lvgl/src/widgets/../core/lv_obj_style_gen.h ****     return (lv_coord_t)v.num;
 630              		.loc 2 105 5 view .LVU191
 105:Drivers/lvgl/src/widgets/../core/lv_obj_style_gen.h ****     return (lv_coord_t)v.num;
 631              		.loc 2 105 26 is_stmt 0 view .LVU192
 632 0138 4FF44031 		mov	r1, #196608
 633 013c 2846     		mov	r0, r5
 634 013e FFF7FEFF 		bl	lv_obj_get_style_prop
 635              	.LVL63:
 636              	.LBE158:
 637              	.LBE161:
 638              	.LBB162:
ARM GAS  /var/folders/0z/tsy30v1j4xl4_7kw94k978ww0000gn/T//cch0tet4.s 			page 31


 639              	.LBB163:
 111:Drivers/lvgl/src/widgets/../core/lv_obj_style_gen.h ****     return (lv_coord_t)v.num;
 640              		.loc 2 111 26 view .LVU193
 641 0142 4FF44031 		mov	r1, #196608
 642              	.LBE163:
 643              	.LBE162:
 644              	.LBB165:
 645              	.LBB159:
 105:Drivers/lvgl/src/widgets/../core/lv_obj_style_gen.h ****     return (lv_coord_t)v.num;
 646              		.loc 2 105 26 view .LVU194
 647 0146 0746     		mov	r7, r0
 106:Drivers/lvgl/src/widgets/../core/lv_obj_style_gen.h **** }
 648              		.loc 2 106 5 is_stmt 1 view .LVU195
 649              	.LVL64:
 106:Drivers/lvgl/src/widgets/../core/lv_obj_style_gen.h **** }
 650              		.loc 2 106 5 is_stmt 0 view .LVU196
 651              	.LBE159:
 652              	.LBE165:
 202:Drivers/lvgl/src/widgets/lv_switch.c **** 
 653              		.loc 1 202 5 is_stmt 1 view .LVU197
 654              	.LBB166:
 655              	.LBI162:
 109:Drivers/lvgl/src/widgets/../core/lv_obj_style_gen.h **** {
 656              		.loc 2 109 26 view .LVU198
 657              	.LBB164:
 111:Drivers/lvgl/src/widgets/../core/lv_obj_style_gen.h ****     return (lv_coord_t)v.num;
 658              		.loc 2 111 5 view .LVU199
 111:Drivers/lvgl/src/widgets/../core/lv_obj_style_gen.h ****     return (lv_coord_t)v.num;
 659              		.loc 2 111 26 is_stmt 0 view .LVU200
 660 0148 1122     		movs	r2, #17
 661 014a 2846     		mov	r0, r5
 662 014c FFF7FEFF 		bl	lv_obj_get_style_prop
 663              	.LVL65:
 112:Drivers/lvgl/src/widgets/../core/lv_obj_style_gen.h **** }
 664              		.loc 2 112 5 is_stmt 1 view .LVU201
 112:Drivers/lvgl/src/widgets/../core/lv_obj_style_gen.h **** }
 665              		.loc 2 112 5 is_stmt 0 view .LVU202
 666              	.LBE164:
 667              	.LBE166:
 205:Drivers/lvgl/src/widgets/lv_switch.c ****     knob_area.x2 += knob_right;
 668              		.loc 1 205 5 is_stmt 1 view .LVU203
 205:Drivers/lvgl/src/widgets/lv_switch.c ****     knob_area.x2 += knob_right;
 669              		.loc 1 205 18 is_stmt 0 view .LVU204
 670 0150 BDF80C30 		ldrh	r3, [sp, #12]
 208:Drivers/lvgl/src/widgets/lv_switch.c **** 
 671              		.loc 1 208 18 view .LVU205
 672 0154 BDF81220 		ldrh	r2, [sp, #18]
 205:Drivers/lvgl/src/widgets/lv_switch.c ****     knob_area.x2 += knob_right;
 673              		.loc 1 205 18 view .LVU206
 674 0158 A3EB0803 		sub	r3, r3, r8
 675 015c ADF80C30 		strh	r3, [sp, #12]	@ movhi
 206:Drivers/lvgl/src/widgets/lv_switch.c ****     knob_area.y1 -= knob_top;
 676              		.loc 1 206 5 is_stmt 1 view .LVU207
 206:Drivers/lvgl/src/widgets/lv_switch.c ****     knob_area.y1 -= knob_top;
 677              		.loc 1 206 18 is_stmt 0 view .LVU208
 678 0160 BDF81030 		ldrh	r3, [sp, #16]
 679 0164 1C44     		add	r4, r4, r3
ARM GAS  /var/folders/0z/tsy30v1j4xl4_7kw94k978ww0000gn/T//cch0tet4.s 			page 32


 680              	.LVL66:
 207:Drivers/lvgl/src/widgets/lv_switch.c ****     knob_area.y2 += knob_bottom;
 681              		.loc 1 207 18 view .LVU209
 682 0166 BDF80E30 		ldrh	r3, [sp, #14]
 206:Drivers/lvgl/src/widgets/lv_switch.c ****     knob_area.y1 -= knob_top;
 683              		.loc 1 206 18 view .LVU210
 684 016a ADF81040 		strh	r4, [sp, #16]	@ movhi
 207:Drivers/lvgl/src/widgets/lv_switch.c ****     knob_area.y2 += knob_bottom;
 685              		.loc 1 207 5 is_stmt 1 view .LVU211
 207:Drivers/lvgl/src/widgets/lv_switch.c ****     knob_area.y2 += knob_bottom;
 686              		.loc 1 207 18 is_stmt 0 view .LVU212
 687 016e DB1B     		subs	r3, r3, r7
 688 0170 ADF80E30 		strh	r3, [sp, #14]	@ movhi
 208:Drivers/lvgl/src/widgets/lv_switch.c **** 
 689              		.loc 1 208 5 is_stmt 1 view .LVU213
 208:Drivers/lvgl/src/widgets/lv_switch.c **** 
 690              		.loc 1 208 18 is_stmt 0 view .LVU214
 691 0174 8318     		adds	r3, r0, r2
 211:Drivers/lvgl/src/widgets/lv_switch.c ****     lv_obj_init_draw_rect_dsc(obj, LV_PART_KNOB, &knob_rect_dsc);
 692              		.loc 1 211 5 view .LVU215
 693 0176 13A8     		add	r0, sp, #76
 694              	.LVL67:
 208:Drivers/lvgl/src/widgets/lv_switch.c **** 
 695              		.loc 1 208 18 view .LVU216
 696 0178 ADF81230 		strh	r3, [sp, #18]	@ movhi
 210:Drivers/lvgl/src/widgets/lv_switch.c ****     lv_draw_rect_dsc_init(&knob_rect_dsc);
 697              		.loc 1 210 5 is_stmt 1 view .LVU217
 211:Drivers/lvgl/src/widgets/lv_switch.c ****     lv_obj_init_draw_rect_dsc(obj, LV_PART_KNOB, &knob_rect_dsc);
 698              		.loc 1 211 5 view .LVU218
 699 017c FFF7FEFF 		bl	lv_draw_rect_dsc_init
 700              	.LVL68:
 212:Drivers/lvgl/src/widgets/lv_switch.c **** 
 701              		.loc 1 212 5 view .LVU219
 702 0180 13AA     		add	r2, sp, #76
 703 0182 2846     		mov	r0, r5
 704 0184 4FF44031 		mov	r1, #196608
 705 0188 FFF7FEFF 		bl	lv_obj_init_draw_rect_dsc
 706              	.LVL69:
 214:Drivers/lvgl/src/widgets/lv_switch.c **** }
 707              		.loc 1 214 5 view .LVU220
 708 018c 03AA     		add	r2, sp, #12
 709 018e 13A9     		add	r1, sp, #76
 710 0190 3046     		mov	r0, r6
 711 0192 FFF7FEFF 		bl	lv_draw_rect
 712              	.LVL70:
 215:Drivers/lvgl/src/widgets/lv_switch.c **** 
 713              		.loc 1 215 1 is_stmt 0 view .LVU221
 714 0196 3CE7     		b	.L7
 715              	.LVL71:
 716              	.L29:
 215:Drivers/lvgl/src/widgets/lv_switch.c **** 
 717              		.loc 1 215 1 view .LVU222
 718              	.LBE110:
 719              	.LBE109:
 720              	.LBB169:
 123:Drivers/lvgl/src/widgets/lv_switch.c ****         lv_coord_t knob_right = lv_obj_get_style_pad_right(obj,  LV_PART_KNOB);
 721              		.loc 1 123 9 is_stmt 1 view .LVU223
ARM GAS  /var/folders/0z/tsy30v1j4xl4_7kw94k978ww0000gn/T//cch0tet4.s 			page 33


 722              	.LBB170:
 723              	.LBI170:
 115:Drivers/lvgl/src/widgets/../core/lv_obj_style_gen.h **** {
 724              		.loc 2 115 26 view .LVU224
 725              	.LBB171:
 117:Drivers/lvgl/src/widgets/../core/lv_obj_style_gen.h ****     return (lv_coord_t)v.num;
 726              		.loc 2 117 5 view .LVU225
 117:Drivers/lvgl/src/widgets/../core/lv_obj_style_gen.h ****     return (lv_coord_t)v.num;
 727              		.loc 2 117 26 is_stmt 0 view .LVU226
 728 0198 1222     		movs	r2, #18
 729 019a 4FF44031 		mov	r1, #196608
 730 019e FFF7FEFF 		bl	lv_obj_get_style_prop
 731              	.LVL72:
 118:Drivers/lvgl/src/widgets/../core/lv_obj_style_gen.h **** }
 732              		.loc 2 118 5 is_stmt 1 view .LVU227
 733              	.LBE171:
 734              	.LBE170:
 735              	.LBB173:
 736              	.LBB174:
 123:Drivers/lvgl/src/widgets/../core/lv_obj_style_gen.h ****     return (lv_coord_t)v.num;
 737              		.loc 2 123 26 is_stmt 0 view .LVU228
 738 01a2 2A46     		mov	r2, r5
 739 01a4 4FF44031 		mov	r1, #196608
 740              	.LBE174:
 741              	.LBE173:
 742              	.LBB177:
 743              	.LBB172:
 118:Drivers/lvgl/src/widgets/../core/lv_obj_style_gen.h **** }
 744              		.loc 2 118 12 view .LVU229
 745 01a8 05B2     		sxth	r5, r0
 746              	.LVL73:
 118:Drivers/lvgl/src/widgets/../core/lv_obj_style_gen.h **** }
 747              		.loc 2 118 12 view .LVU230
 748              	.LBE172:
 749              	.LBE177:
 124:Drivers/lvgl/src/widgets/lv_switch.c ****         lv_coord_t knob_top = lv_obj_get_style_pad_top(obj,    LV_PART_KNOB);
 750              		.loc 1 124 9 is_stmt 1 view .LVU231
 751              	.LBB178:
 752              	.LBI173:
 121:Drivers/lvgl/src/widgets/../core/lv_obj_style_gen.h **** {
 753              		.loc 2 121 26 view .LVU232
 754              	.LBB175:
 123:Drivers/lvgl/src/widgets/../core/lv_obj_style_gen.h ****     return (lv_coord_t)v.num;
 755              		.loc 2 123 5 view .LVU233
 123:Drivers/lvgl/src/widgets/../core/lv_obj_style_gen.h ****     return (lv_coord_t)v.num;
 756              		.loc 2 123 26 is_stmt 0 view .LVU234
 757 01aa 3046     		mov	r0, r6
 758 01ac FFF7FEFF 		bl	lv_obj_get_style_prop
 759              	.LVL74:
 124:Drivers/lvgl/src/widgets/../core/lv_obj_style_gen.h **** }
 760              		.loc 2 124 5 is_stmt 1 view .LVU235
 761              	.LBE175:
 762              	.LBE178:
 763              	.LBB179:
 764              	.LBB180:
 105:Drivers/lvgl/src/widgets/../core/lv_obj_style_gen.h ****     return (lv_coord_t)v.num;
 765              		.loc 2 105 26 is_stmt 0 view .LVU236
ARM GAS  /var/folders/0z/tsy30v1j4xl4_7kw94k978ww0000gn/T//cch0tet4.s 			page 34


 766 01b0 1022     		movs	r2, #16
 767              	.LBE180:
 768              	.LBE179:
 769              	.LBB183:
 770              	.LBB176:
 124:Drivers/lvgl/src/widgets/../core/lv_obj_style_gen.h **** }
 771              		.loc 2 124 12 view .LVU237
 772 01b2 0FFA80F9 		sxth	r9, r0
 773              	.LVL75:
 124:Drivers/lvgl/src/widgets/../core/lv_obj_style_gen.h **** }
 774              		.loc 2 124 12 view .LVU238
 775              	.LBE176:
 776              	.LBE183:
 125:Drivers/lvgl/src/widgets/lv_switch.c ****         lv_coord_t knob_bottom = lv_obj_get_style_pad_bottom(obj, LV_PART_KNOB);
 777              		.loc 1 125 9 is_stmt 1 view .LVU239
 778              	.LBB184:
 779              	.LBI179:
 103:Drivers/lvgl/src/widgets/../core/lv_obj_style_gen.h **** {
 780              		.loc 2 103 26 view .LVU240
 781              	.LBB181:
 105:Drivers/lvgl/src/widgets/../core/lv_obj_style_gen.h ****     return (lv_coord_t)v.num;
 782              		.loc 2 105 5 view .LVU241
 105:Drivers/lvgl/src/widgets/../core/lv_obj_style_gen.h ****     return (lv_coord_t)v.num;
 783              		.loc 2 105 26 is_stmt 0 view .LVU242
 784 01b6 4FF44031 		mov	r1, #196608
 785 01ba 3046     		mov	r0, r6
 786 01bc FFF7FEFF 		bl	lv_obj_get_style_prop
 787              	.LVL76:
 106:Drivers/lvgl/src/widgets/../core/lv_obj_style_gen.h **** }
 788              		.loc 2 106 5 is_stmt 1 view .LVU243
 789              	.LBE181:
 790              	.LBE184:
 791              	.LBB185:
 792              	.LBB186:
 111:Drivers/lvgl/src/widgets/../core/lv_obj_style_gen.h ****     return (lv_coord_t)v.num;
 793              		.loc 2 111 26 is_stmt 0 view .LVU244
 794 01c0 1122     		movs	r2, #17
 795              	.LBE186:
 796              	.LBE185:
 797              	.LBB189:
 798              	.LBB182:
 106:Drivers/lvgl/src/widgets/../core/lv_obj_style_gen.h **** }
 799              		.loc 2 106 12 view .LVU245
 800 01c2 0FFA80F8 		sxth	r8, r0
 801              	.LVL77:
 106:Drivers/lvgl/src/widgets/../core/lv_obj_style_gen.h **** }
 802              		.loc 2 106 12 view .LVU246
 803              	.LBE182:
 804              	.LBE189:
 126:Drivers/lvgl/src/widgets/lv_switch.c **** 
 805              		.loc 1 126 9 is_stmt 1 view .LVU247
 806              	.LBB190:
 807              	.LBI185:
 109:Drivers/lvgl/src/widgets/../core/lv_obj_style_gen.h **** {
 808              		.loc 2 109 26 view .LVU248
 809              	.LBB187:
 111:Drivers/lvgl/src/widgets/../core/lv_obj_style_gen.h ****     return (lv_coord_t)v.num;
ARM GAS  /var/folders/0z/tsy30v1j4xl4_7kw94k978ww0000gn/T//cch0tet4.s 			page 35


 810              		.loc 2 111 5 view .LVU249
 111:Drivers/lvgl/src/widgets/../core/lv_obj_style_gen.h ****     return (lv_coord_t)v.num;
 811              		.loc 2 111 26 is_stmt 0 view .LVU250
 812 01c6 4FF44031 		mov	r1, #196608
 813 01ca 3046     		mov	r0, r6
 814 01cc FFF7FEFF 		bl	lv_obj_get_style_prop
 815              	.LVL78:
 112:Drivers/lvgl/src/widgets/../core/lv_obj_style_gen.h **** }
 816              		.loc 2 112 5 is_stmt 1 view .LVU251
 817              	.LBE187:
 818              	.LBE190:
 131:Drivers/lvgl/src/widgets/lv_switch.c **** 
 819              		.loc 1 131 22 is_stmt 0 view .LVU252
 820 01d0 4FF44031 		mov	r1, #196608
 821              	.LBB191:
 822              	.LBB188:
 112:Drivers/lvgl/src/widgets/../core/lv_obj_style_gen.h **** }
 823              		.loc 2 112 12 view .LVU253
 824 01d4 07B2     		sxth	r7, r0
 825              	.LVL79:
 112:Drivers/lvgl/src/widgets/../core/lv_obj_style_gen.h **** }
 826              		.loc 2 112 12 view .LVU254
 827              	.LBE188:
 828              	.LBE191:
 129:Drivers/lvgl/src/widgets/lv_switch.c ****         knob_size += _LV_SWITCH_KNOB_EXT_AREA_CORRECTION;
 829              		.loc 1 129 9 is_stmt 1 view .LVU255
 130:Drivers/lvgl/src/widgets/lv_switch.c ****         knob_size += lv_obj_calculate_ext_draw_size(obj, LV_PART_KNOB);
 830              		.loc 1 130 9 view .LVU256
 131:Drivers/lvgl/src/widgets/lv_switch.c **** 
 831              		.loc 1 131 9 view .LVU257
 131:Drivers/lvgl/src/widgets/lv_switch.c **** 
 832              		.loc 1 131 22 is_stmt 0 view .LVU258
 833 01d6 3046     		mov	r0, r6
 834 01d8 FFF7FEFF 		bl	lv_obj_calculate_ext_draw_size
 835              	.LVL80:
 129:Drivers/lvgl/src/widgets/lv_switch.c ****         knob_size += _LV_SWITCH_KNOB_EXT_AREA_CORRECTION;
 836              		.loc 1 129 20 view .LVU259
 837 01dc 4D45     		cmp	r5, r9
 838 01de 2B46     		mov	r3, r5
 839 01e0 B8BF     		it	lt
 840 01e2 4B46     		movlt	r3, r9
 841 01e4 4345     		cmp	r3, r8
 842 01e6 B8BF     		it	lt
 843 01e8 4346     		movlt	r3, r8
 844 01ea BB42     		cmp	r3, r7
 845 01ec B8BF     		it	lt
 846 01ee 3B46     		movlt	r3, r7
 130:Drivers/lvgl/src/widgets/lv_switch.c ****         knob_size += lv_obj_calculate_ext_draw_size(obj, LV_PART_KNOB);
 847              		.loc 1 130 19 view .LVU260
 848 01f0 0233     		adds	r3, r3, #2
 131:Drivers/lvgl/src/widgets/lv_switch.c **** 
 849              		.loc 1 131 19 view .LVU261
 850 01f2 0344     		add	r3, r3, r0
 133:Drivers/lvgl/src/widgets/lv_switch.c ****         *s = LV_MAX(*s, knob_size);
 851              		.loc 1 133 26 view .LVU262
 852 01f4 2046     		mov	r0, r4
 131:Drivers/lvgl/src/widgets/lv_switch.c **** 
ARM GAS  /var/folders/0z/tsy30v1j4xl4_7kw94k978ww0000gn/T//cch0tet4.s 			page 36


 853              		.loc 1 131 19 view .LVU263
 854 01f6 9CB2     		uxth	r4, r3
 855              	.LVL81:
 133:Drivers/lvgl/src/widgets/lv_switch.c ****         *s = LV_MAX(*s, knob_size);
 856              		.loc 1 133 9 is_stmt 1 view .LVU264
 133:Drivers/lvgl/src/widgets/lv_switch.c ****         *s = LV_MAX(*s, knob_size);
 857              		.loc 1 133 26 is_stmt 0 view .LVU265
 858 01f8 FFF7FEFF 		bl	lv_event_get_param
 859              	.LVL82:
 134:Drivers/lvgl/src/widgets/lv_switch.c ****         *s = LV_MAX(*s, lv_obj_calculate_ext_draw_size(obj, LV_PART_INDICATOR));
 860              		.loc 1 134 14 view .LVU266
 861 01fc B0F90030 		ldrsh	r3, [r0]
 862 0200 24B2     		sxth	r4, r4
 134:Drivers/lvgl/src/widgets/lv_switch.c ****         *s = LV_MAX(*s, lv_obj_calculate_ext_draw_size(obj, LV_PART_INDICATOR));
 863              		.loc 1 134 14 view .LVU267
 864 0202 9C42     		cmp	r4, r3
 865 0204 B8BF     		it	lt
 866 0206 1C46     		movlt	r4, r3
 867              	.LVL83:
 134:Drivers/lvgl/src/widgets/lv_switch.c ****         *s = LV_MAX(*s, lv_obj_calculate_ext_draw_size(obj, LV_PART_INDICATOR));
 868              		.loc 1 134 12 view .LVU268
 869 0208 0480     		strh	r4, [r0]	@ movhi
 133:Drivers/lvgl/src/widgets/lv_switch.c ****         *s = LV_MAX(*s, knob_size);
 870              		.loc 1 133 26 view .LVU269
 871 020a 0546     		mov	r5, r0
 872              	.LVL84:
 134:Drivers/lvgl/src/widgets/lv_switch.c ****         *s = LV_MAX(*s, lv_obj_calculate_ext_draw_size(obj, LV_PART_INDICATOR));
 873              		.loc 1 134 9 is_stmt 1 view .LVU270
 135:Drivers/lvgl/src/widgets/lv_switch.c ****     }
 874              		.loc 1 135 9 view .LVU271
 135:Drivers/lvgl/src/widgets/lv_switch.c ****     }
 875              		.loc 1 135 14 is_stmt 0 view .LVU272
 876 020c 4FF40031 		mov	r1, #131072
 877 0210 3046     		mov	r0, r6
 878              	.LVL85:
 135:Drivers/lvgl/src/widgets/lv_switch.c ****     }
 879              		.loc 1 135 14 view .LVU273
 880 0212 FFF7FEFF 		bl	lv_obj_calculate_ext_draw_size
 881              	.LVL86:
 135:Drivers/lvgl/src/widgets/lv_switch.c ****     }
 882              		.loc 1 135 12 view .LVU274
 883 0216 8442     		cmp	r4, r0
 884 0218 0FDD     		ble	.L11
 885 021a B5F90000 		ldrsh	r0, [r5]
 886              	.L12:
 135:Drivers/lvgl/src/widgets/lv_switch.c ****     }
 887              		.loc 1 135 12 view .LVU275
 888 021e 2880     		strh	r0, [r5]	@ movhi
 889              	.LBE169:
 890 0220 F7E6     		b	.L7
 891              	.LVL87:
 892              	.L30:
 138:Drivers/lvgl/src/widgets/lv_switch.c ****         lv_obj_invalidate(obj);
 893              		.loc 1 138 9 is_stmt 1 view .LVU276
 894              	.LBB192:
 895              	.LBI192:
 232:Drivers/lvgl/src/widgets/lv_switch.c **** }
ARM GAS  /var/folders/0z/tsy30v1j4xl4_7kw94k978ww0000gn/T//cch0tet4.s 			page 37


 233:Drivers/lvgl/src/widgets/lv_switch.c **** 
 234:Drivers/lvgl/src/widgets/lv_switch.c **** /**
 235:Drivers/lvgl/src/widgets/lv_switch.c ****  * Starts an animation for the switch knob. if the anim_time style property is greater than 0
 236:Drivers/lvgl/src/widgets/lv_switch.c ****  * @param obj the switch to animate
 237:Drivers/lvgl/src/widgets/lv_switch.c ****  */
 238:Drivers/lvgl/src/widgets/lv_switch.c **** static void lv_switch_trigger_anim(lv_obj_t * obj)
 896              		.loc 1 238 13 view .LVU277
 897              	.LBB193:
 239:Drivers/lvgl/src/widgets/lv_switch.c **** {
 240:Drivers/lvgl/src/widgets/lv_switch.c ****     LV_ASSERT_OBJ(obj, MY_CLASS);
 898              		.loc 1 240 5 view .LVU278
 899              		.loc 1 240 5 view .LVU279
 900              		.loc 1 240 5 view .LVU280
 241:Drivers/lvgl/src/widgets/lv_switch.c ****     lv_switch_t * sw = (lv_switch_t *)obj;
 901              		.loc 1 241 5 view .LVU281
 242:Drivers/lvgl/src/widgets/lv_switch.c **** 
 243:Drivers/lvgl/src/widgets/lv_switch.c ****     uint32_t anim_dur_full = lv_obj_get_style_anim_time(obj, LV_PART_MAIN);
 902              		.loc 1 243 5 view .LVU282
 903              	.LBB194:
 904              	.LBI194:
 535:Drivers/lvgl/src/widgets/../core/lv_obj_style_gen.h **** {
 905              		.loc 2 535 24 view .LVU283
 906              	.LBB195:
 537:Drivers/lvgl/src/widgets/../core/lv_obj_style_gen.h ****     return (uint32_t)v.num;
 907              		.loc 2 537 5 view .LVU284
 537:Drivers/lvgl/src/widgets/../core/lv_obj_style_gen.h ****     return (uint32_t)v.num;
 908              		.loc 2 537 26 is_stmt 0 view .LVU285
 909 0222 6522     		movs	r2, #101
 910 0224 0021     		movs	r1, #0
 911 0226 FFF7FEFF 		bl	lv_obj_get_style_prop
 912              	.LVL88:
 538:Drivers/lvgl/src/widgets/../core/lv_obj_style_gen.h **** }
 913              		.loc 2 538 5 is_stmt 1 view .LVU286
 538:Drivers/lvgl/src/widgets/../core/lv_obj_style_gen.h **** }
 914              		.loc 2 538 5 is_stmt 0 view .LVU287
 915              	.LBE195:
 916              	.LBE194:
 244:Drivers/lvgl/src/widgets/lv_switch.c **** 
 245:Drivers/lvgl/src/widgets/lv_switch.c ****     if(anim_dur_full > 0) {
 917              		.loc 1 245 5 is_stmt 1 view .LVU288
 918              		.loc 1 245 7 is_stmt 0 view .LVU289
 919 022a 0446     		mov	r4, r0
 920              	.LVL89:
 921              		.loc 1 245 7 view .LVU290
 922 022c 58B9     		cbnz	r0, .L31
 923              	.LVL90:
 924              	.L14:
 925              		.loc 1 245 7 view .LVU291
 926              	.LBE193:
 927              	.LBE192:
 139:Drivers/lvgl/src/widgets/lv_switch.c ****     }
 928              		.loc 1 139 9 is_stmt 1 view .LVU292
 929 022e 3046     		mov	r0, r6
 930              	.LBE108:
 931              	.LBE107:
 144:Drivers/lvgl/src/widgets/lv_switch.c **** 
 932              		.loc 1 144 1 is_stmt 0 view .LVU293
ARM GAS  /var/folders/0z/tsy30v1j4xl4_7kw94k978ww0000gn/T//cch0tet4.s 			page 38


 933 0230 25B0     		add	sp, sp, #148
 934              		.cfi_remember_state
 935              		.cfi_def_cfa_offset 28
 936              		@ sp needed
 937 0232 BDE8F043 		pop	{r4, r5, r6, r7, r8, r9, lr}
 938              		.cfi_restore 14
 939              		.cfi_restore 9
 940              		.cfi_restore 8
 941              		.cfi_restore 7
 942              		.cfi_restore 6
 943              		.cfi_restore 5
 944              		.cfi_restore 4
 945              		.cfi_def_cfa_offset 0
 946              	.LVL91:
 947              	.LBB229:
 948              	.LBB228:
 139:Drivers/lvgl/src/widgets/lv_switch.c ****     }
 949              		.loc 1 139 9 view .LVU294
 950 0236 FFF7FEBF 		b	lv_obj_invalidate
 951              	.LVL92:
 952              	.L11:
 953              		.cfi_restore_state
 954              	.LBB224:
 135:Drivers/lvgl/src/widgets/lv_switch.c ****     }
 955              		.loc 1 135 14 view .LVU295
 956 023a 4FF40031 		mov	r1, #131072
 957 023e 3046     		mov	r0, r6
 958 0240 FFF7FEFF 		bl	lv_obj_calculate_ext_draw_size
 959              	.LVL93:
 960 0244 EBE7     		b	.L12
 961              	.LVL94:
 962              	.L31:
 135:Drivers/lvgl/src/widgets/lv_switch.c ****     }
 963              		.loc 1 135 14 view .LVU296
 964              	.LBE224:
 965              	.LBB225:
 966              	.LBB222:
 967              	.LBB196:
 246:Drivers/lvgl/src/widgets/lv_switch.c ****         bool chk = lv_obj_get_state(obj) & LV_STATE_CHECKED;
 968              		.loc 1 246 9 is_stmt 1 view .LVU297
 969              		.loc 1 246 20 is_stmt 0 view .LVU298
 970 0246 3046     		mov	r0, r6
 971              	.LVL95:
 972              		.loc 1 246 20 view .LVU299
 973 0248 FFF7FEFF 		bl	lv_obj_get_state
 974              	.LVL96:
 247:Drivers/lvgl/src/widgets/lv_switch.c ****         int32_t anim_start;
 248:Drivers/lvgl/src/widgets/lv_switch.c ****         int32_t anim_end;
 249:Drivers/lvgl/src/widgets/lv_switch.c ****         /*No animation in progress -> simply set the values*/
 250:Drivers/lvgl/src/widgets/lv_switch.c ****         if(sw->anim_state == LV_SWITCH_ANIM_STATE_INV) {
 975              		.loc 1 250 14 view .LVU300
 976 024c 756A     		ldr	r5, [r6, #36]
 977              	.LVL97:
 978              		.loc 1 250 11 view .LVU301
 979 024e 691C     		adds	r1, r5, #1
 980 0250 00F00100 		and	r0, r0, #1
 981              	.LVL98:
ARM GAS  /var/folders/0z/tsy30v1j4xl4_7kw94k978ww0000gn/T//cch0tet4.s 			page 39


 247:Drivers/lvgl/src/widgets/lv_switch.c ****         int32_t anim_start;
 982              		.loc 1 247 9 is_stmt 1 view .LVU302
 248:Drivers/lvgl/src/widgets/lv_switch.c ****         /*No animation in progress -> simply set the values*/
 983              		.loc 1 248 9 view .LVU303
 984              		.loc 1 250 9 view .LVU304
 985              		.loc 1 250 11 is_stmt 0 view .LVU305
 986 0254 27D0     		beq	.L32
 251:Drivers/lvgl/src/widgets/lv_switch.c ****             anim_start = chk ? LV_SWITCH_ANIM_STATE_START : LV_SWITCH_ANIM_STATE_END;
 252:Drivers/lvgl/src/widgets/lv_switch.c ****             anim_end   = chk ? LV_SWITCH_ANIM_STATE_END : LV_SWITCH_ANIM_STATE_START;
 253:Drivers/lvgl/src/widgets/lv_switch.c ****         }
 254:Drivers/lvgl/src/widgets/lv_switch.c ****         /*Animation in progress. Start from the animation end value*/
 255:Drivers/lvgl/src/widgets/lv_switch.c ****         else {
 256:Drivers/lvgl/src/widgets/lv_switch.c ****             anim_start = sw->anim_state;
 987              		.loc 1 256 13 is_stmt 1 view .LVU306
 988              	.LVL99:
 257:Drivers/lvgl/src/widgets/lv_switch.c ****             anim_end   = chk ? LV_SWITCH_ANIM_STATE_END : LV_SWITCH_ANIM_STATE_START;
 989              		.loc 1 257 13 view .LVU307
 990              		.loc 1 257 57 is_stmt 0 view .LVU308
 991 0256 4FEA0028 		lsl	r8, r0, #8
 258:Drivers/lvgl/src/widgets/lv_switch.c ****         }
 259:Drivers/lvgl/src/widgets/lv_switch.c ****         /*Calculate actual animation duration*/
 260:Drivers/lvgl/src/widgets/lv_switch.c ****         uint32_t anim_dur = (anim_dur_full * LV_ABS(anim_start - anim_end)) / LV_SWITCH_ANIM_STATE_
 992              		.loc 1 260 46 view .LVU309
 993 025a A5EB0020 		sub	r0, r5, r0, lsl #8
 994              	.LVL100:
 995              		.loc 1 260 46 view .LVU310
 996 025e 80EAE077 		eor	r7, r0, r0, asr #31
 997 0262 A7EBE077 		sub	r7, r7, r0, asr #31
 998              	.LVL101:
 999              	.L16:
 1000              		.loc 1 260 9 is_stmt 1 view .LVU311
 261:Drivers/lvgl/src/widgets/lv_switch.c **** 
 262:Drivers/lvgl/src/widgets/lv_switch.c ****         /*Stop the previous animation if it exists*/
 263:Drivers/lvgl/src/widgets/lv_switch.c ****         lv_anim_del(sw, NULL);
 1001              		.loc 1 263 9 view .LVU312
 1002 0266 0021     		movs	r1, #0
 1003 0268 3046     		mov	r0, r6
 1004 026a FFF7FEFF 		bl	lv_anim_del
 1005              	.LVL102:
 264:Drivers/lvgl/src/widgets/lv_switch.c **** 
 265:Drivers/lvgl/src/widgets/lv_switch.c ****         lv_anim_t a;
 1006              		.loc 1 265 9 view .LVU313
 266:Drivers/lvgl/src/widgets/lv_switch.c ****         lv_anim_init(&a);
 1007              		.loc 1 266 9 view .LVU314
 1008 026e 13A8     		add	r0, sp, #76
 1009 0270 FFF7FEFF 		bl	lv_anim_init
 1010              	.LVL103:
 267:Drivers/lvgl/src/widgets/lv_switch.c ****         lv_anim_set_var(&a, sw);
 1011              		.loc 1 267 9 view .LVU315
 1012              	.LBB197:
 1013              	.LBI197:
 1014              		.file 4 "Drivers/lvgl/src/widgets/../core/../misc/lv_anim.h"
   1:Drivers/lvgl/src/widgets/../core/../misc/lv_anim.h **** /**
   2:Drivers/lvgl/src/widgets/../core/../misc/lv_anim.h ****  * @file lv_anim.h
   3:Drivers/lvgl/src/widgets/../core/../misc/lv_anim.h ****  *
   4:Drivers/lvgl/src/widgets/../core/../misc/lv_anim.h ****  */
   5:Drivers/lvgl/src/widgets/../core/../misc/lv_anim.h **** 
ARM GAS  /var/folders/0z/tsy30v1j4xl4_7kw94k978ww0000gn/T//cch0tet4.s 			page 40


   6:Drivers/lvgl/src/widgets/../core/../misc/lv_anim.h **** #ifndef LV_ANIM_H
   7:Drivers/lvgl/src/widgets/../core/../misc/lv_anim.h **** #define LV_ANIM_H
   8:Drivers/lvgl/src/widgets/../core/../misc/lv_anim.h **** 
   9:Drivers/lvgl/src/widgets/../core/../misc/lv_anim.h **** #ifdef __cplusplus
  10:Drivers/lvgl/src/widgets/../core/../misc/lv_anim.h **** extern "C" {
  11:Drivers/lvgl/src/widgets/../core/../misc/lv_anim.h **** #endif
  12:Drivers/lvgl/src/widgets/../core/../misc/lv_anim.h **** 
  13:Drivers/lvgl/src/widgets/../core/../misc/lv_anim.h **** /*********************
  14:Drivers/lvgl/src/widgets/../core/../misc/lv_anim.h ****  *      INCLUDES
  15:Drivers/lvgl/src/widgets/../core/../misc/lv_anim.h ****  *********************/
  16:Drivers/lvgl/src/widgets/../core/../misc/lv_anim.h **** #include "../lv_conf_internal.h"
  17:Drivers/lvgl/src/widgets/../core/../misc/lv_anim.h **** 
  18:Drivers/lvgl/src/widgets/../core/../misc/lv_anim.h **** #include <stdint.h>
  19:Drivers/lvgl/src/widgets/../core/../misc/lv_anim.h **** #include <stdbool.h>
  20:Drivers/lvgl/src/widgets/../core/../misc/lv_anim.h **** #include <stddef.h>
  21:Drivers/lvgl/src/widgets/../core/../misc/lv_anim.h **** 
  22:Drivers/lvgl/src/widgets/../core/../misc/lv_anim.h **** /*********************
  23:Drivers/lvgl/src/widgets/../core/../misc/lv_anim.h ****  *      DEFINES
  24:Drivers/lvgl/src/widgets/../core/../misc/lv_anim.h ****  *********************/
  25:Drivers/lvgl/src/widgets/../core/../misc/lv_anim.h **** 
  26:Drivers/lvgl/src/widgets/../core/../misc/lv_anim.h **** #define LV_ANIM_REPEAT_INFINITE      0xFFFF
  27:Drivers/lvgl/src/widgets/../core/../misc/lv_anim.h **** #define LV_ANIM_PLAYTIME_INFINITE    0xFFFFFFFF
  28:Drivers/lvgl/src/widgets/../core/../misc/lv_anim.h **** 
  29:Drivers/lvgl/src/widgets/../core/../misc/lv_anim.h **** LV_EXPORT_CONST_INT(LV_ANIM_REPEAT_INFINITE);
  30:Drivers/lvgl/src/widgets/../core/../misc/lv_anim.h **** LV_EXPORT_CONST_INT(LV_ANIM_PLAYTIME_INFINITE);
  31:Drivers/lvgl/src/widgets/../core/../misc/lv_anim.h **** 
  32:Drivers/lvgl/src/widgets/../core/../misc/lv_anim.h **** /**********************
  33:Drivers/lvgl/src/widgets/../core/../misc/lv_anim.h ****  *      TYPEDEFS
  34:Drivers/lvgl/src/widgets/../core/../misc/lv_anim.h ****  **********************/
  35:Drivers/lvgl/src/widgets/../core/../misc/lv_anim.h **** 
  36:Drivers/lvgl/src/widgets/../core/../misc/lv_anim.h **** /** Can be used to indicate if animations are enabled or disabled in a case*/
  37:Drivers/lvgl/src/widgets/../core/../misc/lv_anim.h **** typedef enum {
  38:Drivers/lvgl/src/widgets/../core/../misc/lv_anim.h ****     LV_ANIM_OFF,
  39:Drivers/lvgl/src/widgets/../core/../misc/lv_anim.h ****     LV_ANIM_ON,
  40:Drivers/lvgl/src/widgets/../core/../misc/lv_anim.h **** } lv_anim_enable_t;
  41:Drivers/lvgl/src/widgets/../core/../misc/lv_anim.h **** 
  42:Drivers/lvgl/src/widgets/../core/../misc/lv_anim.h **** struct _lv_anim_t;
  43:Drivers/lvgl/src/widgets/../core/../misc/lv_anim.h **** struct _lv_timer_t;
  44:Drivers/lvgl/src/widgets/../core/../misc/lv_anim.h **** 
  45:Drivers/lvgl/src/widgets/../core/../misc/lv_anim.h **** /** Get the current value during an animation*/
  46:Drivers/lvgl/src/widgets/../core/../misc/lv_anim.h **** typedef int32_t (*lv_anim_path_cb_t)(const struct _lv_anim_t *);
  47:Drivers/lvgl/src/widgets/../core/../misc/lv_anim.h **** 
  48:Drivers/lvgl/src/widgets/../core/../misc/lv_anim.h **** /** Generic prototype of "animator" functions.
  49:Drivers/lvgl/src/widgets/../core/../misc/lv_anim.h ****  * First parameter is the variable to animate.
  50:Drivers/lvgl/src/widgets/../core/../misc/lv_anim.h ****  * Second parameter is the value to set.
  51:Drivers/lvgl/src/widgets/../core/../misc/lv_anim.h ****  * Compatible with `lv_xxx_set_yyy(obj, value)` functions
  52:Drivers/lvgl/src/widgets/../core/../misc/lv_anim.h ****  * The `x` in `_xcb_t` means it's not a fully generic prototype because
  53:Drivers/lvgl/src/widgets/../core/../misc/lv_anim.h ****  * it doesn't receive `lv_anim_t *` as its first argument*/
  54:Drivers/lvgl/src/widgets/../core/../misc/lv_anim.h **** typedef void (*lv_anim_exec_xcb_t)(void *, int32_t);
  55:Drivers/lvgl/src/widgets/../core/../misc/lv_anim.h **** 
  56:Drivers/lvgl/src/widgets/../core/../misc/lv_anim.h **** /** Same as `lv_anim_exec_xcb_t` but receives `lv_anim_t *` as the first parameter.
  57:Drivers/lvgl/src/widgets/../core/../misc/lv_anim.h ****  * It's more consistent but less convenient. Might be used by binding generator functions.*/
  58:Drivers/lvgl/src/widgets/../core/../misc/lv_anim.h **** typedef void (*lv_anim_custom_exec_cb_t)(struct _lv_anim_t *, int32_t);
  59:Drivers/lvgl/src/widgets/../core/../misc/lv_anim.h **** 
  60:Drivers/lvgl/src/widgets/../core/../misc/lv_anim.h **** /** Callback to call when the animation is ready*/
  61:Drivers/lvgl/src/widgets/../core/../misc/lv_anim.h **** typedef void (*lv_anim_ready_cb_t)(struct _lv_anim_t *);
  62:Drivers/lvgl/src/widgets/../core/../misc/lv_anim.h **** 
ARM GAS  /var/folders/0z/tsy30v1j4xl4_7kw94k978ww0000gn/T//cch0tet4.s 			page 41


  63:Drivers/lvgl/src/widgets/../core/../misc/lv_anim.h **** /** Callback to call when the animation really stars (considering `delay`)*/
  64:Drivers/lvgl/src/widgets/../core/../misc/lv_anim.h **** typedef void (*lv_anim_start_cb_t)(struct _lv_anim_t *);
  65:Drivers/lvgl/src/widgets/../core/../misc/lv_anim.h **** 
  66:Drivers/lvgl/src/widgets/../core/../misc/lv_anim.h **** /** Callback used when the animation values are relative to get the current value*/
  67:Drivers/lvgl/src/widgets/../core/../misc/lv_anim.h **** typedef int32_t (*lv_anim_get_value_cb_t)(struct _lv_anim_t *);
  68:Drivers/lvgl/src/widgets/../core/../misc/lv_anim.h **** 
  69:Drivers/lvgl/src/widgets/../core/../misc/lv_anim.h **** /** Callback used when the animation is deleted*/
  70:Drivers/lvgl/src/widgets/../core/../misc/lv_anim.h **** typedef void (*lv_anim_deleted_cb_t)(struct _lv_anim_t *);
  71:Drivers/lvgl/src/widgets/../core/../misc/lv_anim.h **** 
  72:Drivers/lvgl/src/widgets/../core/../misc/lv_anim.h **** /** Describes an animation*/
  73:Drivers/lvgl/src/widgets/../core/../misc/lv_anim.h **** typedef struct _lv_anim_t {
  74:Drivers/lvgl/src/widgets/../core/../misc/lv_anim.h ****     void * var;                          /**<Variable to animate*/
  75:Drivers/lvgl/src/widgets/../core/../misc/lv_anim.h ****     lv_anim_exec_xcb_t exec_cb;          /**< Function to execute to animate*/
  76:Drivers/lvgl/src/widgets/../core/../misc/lv_anim.h ****     lv_anim_start_cb_t start_cb;         /**< Call it when the animation is starts (considering `de
  77:Drivers/lvgl/src/widgets/../core/../misc/lv_anim.h ****     lv_anim_ready_cb_t ready_cb;         /**< Call it when the animation is ready*/
  78:Drivers/lvgl/src/widgets/../core/../misc/lv_anim.h ****     lv_anim_deleted_cb_t deleted_cb;     /**< Call it when the animation is deleted*/
  79:Drivers/lvgl/src/widgets/../core/../misc/lv_anim.h ****     lv_anim_get_value_cb_t get_value_cb; /**< Get the current value in relative mode*/
  80:Drivers/lvgl/src/widgets/../core/../misc/lv_anim.h **** #if LV_USE_USER_DATA
  81:Drivers/lvgl/src/widgets/../core/../misc/lv_anim.h ****     void * user_data; /**< Custom user data*/
  82:Drivers/lvgl/src/widgets/../core/../misc/lv_anim.h **** #endif
  83:Drivers/lvgl/src/widgets/../core/../misc/lv_anim.h ****     lv_anim_path_cb_t path_cb;         /**< Describe the path (curve) of animations*/
  84:Drivers/lvgl/src/widgets/../core/../misc/lv_anim.h ****     int32_t start_value;               /**< Start value*/
  85:Drivers/lvgl/src/widgets/../core/../misc/lv_anim.h ****     int32_t current_value;             /**< Current value*/
  86:Drivers/lvgl/src/widgets/../core/../misc/lv_anim.h ****     int32_t end_value;                 /**< End value*/
  87:Drivers/lvgl/src/widgets/../core/../misc/lv_anim.h ****     int32_t time;                /**< Animation time in ms*/
  88:Drivers/lvgl/src/widgets/../core/../misc/lv_anim.h ****     int32_t act_time;            /**< Current time in animation. Set to negative to make delay.*/
  89:Drivers/lvgl/src/widgets/../core/../misc/lv_anim.h ****     uint32_t playback_delay;     /**< Wait before play back*/
  90:Drivers/lvgl/src/widgets/../core/../misc/lv_anim.h ****     uint32_t playback_time;      /**< Duration of playback animation*/
  91:Drivers/lvgl/src/widgets/../core/../misc/lv_anim.h ****     uint32_t repeat_delay;       /**< Wait before repeat*/
  92:Drivers/lvgl/src/widgets/../core/../misc/lv_anim.h ****     uint16_t repeat_cnt;         /**< Repeat count for the animation*/
  93:Drivers/lvgl/src/widgets/../core/../misc/lv_anim.h ****     uint8_t early_apply  : 1;    /**< 1: Apply start value immediately even is there is `delay`*/
  94:Drivers/lvgl/src/widgets/../core/../misc/lv_anim.h **** 
  95:Drivers/lvgl/src/widgets/../core/../misc/lv_anim.h ****     /*Animation system use these - user shouldn't set*/
  96:Drivers/lvgl/src/widgets/../core/../misc/lv_anim.h ****     uint8_t playback_now : 1; /**< Play back is in progress*/
  97:Drivers/lvgl/src/widgets/../core/../misc/lv_anim.h ****     uint8_t run_round : 1;    /**< Indicates the animation has run in this round*/
  98:Drivers/lvgl/src/widgets/../core/../misc/lv_anim.h ****     uint8_t start_cb_called : 1;    /**< Indicates that the `start_cb` was already called*/
  99:Drivers/lvgl/src/widgets/../core/../misc/lv_anim.h **** } lv_anim_t;
 100:Drivers/lvgl/src/widgets/../core/../misc/lv_anim.h **** 
 101:Drivers/lvgl/src/widgets/../core/../misc/lv_anim.h **** /**********************
 102:Drivers/lvgl/src/widgets/../core/../misc/lv_anim.h ****  * GLOBAL PROTOTYPES
 103:Drivers/lvgl/src/widgets/../core/../misc/lv_anim.h ****  **********************/
 104:Drivers/lvgl/src/widgets/../core/../misc/lv_anim.h **** 
 105:Drivers/lvgl/src/widgets/../core/../misc/lv_anim.h **** /**
 106:Drivers/lvgl/src/widgets/../core/../misc/lv_anim.h ****  * Init. the animation module
 107:Drivers/lvgl/src/widgets/../core/../misc/lv_anim.h ****  */
 108:Drivers/lvgl/src/widgets/../core/../misc/lv_anim.h **** void _lv_anim_core_init(void);
 109:Drivers/lvgl/src/widgets/../core/../misc/lv_anim.h **** 
 110:Drivers/lvgl/src/widgets/../core/../misc/lv_anim.h **** /**
 111:Drivers/lvgl/src/widgets/../core/../misc/lv_anim.h ****  * Initialize an animation variable.
 112:Drivers/lvgl/src/widgets/../core/../misc/lv_anim.h ****  * E.g.:
 113:Drivers/lvgl/src/widgets/../core/../misc/lv_anim.h ****  * lv_anim_t a;
 114:Drivers/lvgl/src/widgets/../core/../misc/lv_anim.h ****  * lv_anim_init(&a);
 115:Drivers/lvgl/src/widgets/../core/../misc/lv_anim.h ****  * lv_anim_set_...(&a);
 116:Drivers/lvgl/src/widgets/../core/../misc/lv_anim.h ****  * lv_anim_start(&a);
 117:Drivers/lvgl/src/widgets/../core/../misc/lv_anim.h ****  * @param a     pointer to an `lv_anim_t` variable to initialize
 118:Drivers/lvgl/src/widgets/../core/../misc/lv_anim.h ****  */
 119:Drivers/lvgl/src/widgets/../core/../misc/lv_anim.h **** void lv_anim_init(lv_anim_t * a);
ARM GAS  /var/folders/0z/tsy30v1j4xl4_7kw94k978ww0000gn/T//cch0tet4.s 			page 42


 120:Drivers/lvgl/src/widgets/../core/../misc/lv_anim.h **** 
 121:Drivers/lvgl/src/widgets/../core/../misc/lv_anim.h **** /**
 122:Drivers/lvgl/src/widgets/../core/../misc/lv_anim.h ****  * Set a variable to animate
 123:Drivers/lvgl/src/widgets/../core/../misc/lv_anim.h ****  * @param a     pointer to an initialized `lv_anim_t` variable
 124:Drivers/lvgl/src/widgets/../core/../misc/lv_anim.h ****  * @param var   pointer to a variable to animate
 125:Drivers/lvgl/src/widgets/../core/../misc/lv_anim.h ****  */
 126:Drivers/lvgl/src/widgets/../core/../misc/lv_anim.h **** static inline void lv_anim_set_var(lv_anim_t * a, void * var)
 1015              		.loc 4 126 20 view .LVU316
 1016              	.LBB198:
 127:Drivers/lvgl/src/widgets/../core/../misc/lv_anim.h **** {
 128:Drivers/lvgl/src/widgets/../core/../misc/lv_anim.h ****     a->var = var;
 1017              		.loc 4 128 5 view .LVU317
 1018              	.LBE198:
 1019              	.LBE197:
 260:Drivers/lvgl/src/widgets/lv_switch.c **** 
 1020              		.loc 1 260 44 is_stmt 0 view .LVU318
 1021 0274 07FB04F4 		mul	r4, r7, r4
 1022              	.LVL104:
 1023              	.LBB200:
 1024              	.LBB201:
 129:Drivers/lvgl/src/widgets/../core/../misc/lv_anim.h **** }
 130:Drivers/lvgl/src/widgets/../core/../misc/lv_anim.h **** 
 131:Drivers/lvgl/src/widgets/../core/../misc/lv_anim.h **** /**
 132:Drivers/lvgl/src/widgets/../core/../misc/lv_anim.h ****  * Set a function to animate `var`
 133:Drivers/lvgl/src/widgets/../core/../misc/lv_anim.h ****  * @param a         pointer to an initialized `lv_anim_t` variable
 134:Drivers/lvgl/src/widgets/../core/../misc/lv_anim.h ****  * @param exec_cb   a function to execute during animation
 135:Drivers/lvgl/src/widgets/../core/../misc/lv_anim.h ****  *                  LVGL's built-in functions can be used.
 136:Drivers/lvgl/src/widgets/../core/../misc/lv_anim.h ****  *                  E.g. lv_obj_set_x
 137:Drivers/lvgl/src/widgets/../core/../misc/lv_anim.h ****  */
 138:Drivers/lvgl/src/widgets/../core/../misc/lv_anim.h **** static inline void lv_anim_set_exec_cb(lv_anim_t * a, lv_anim_exec_xcb_t exec_cb)
 139:Drivers/lvgl/src/widgets/../core/../misc/lv_anim.h **** {
 140:Drivers/lvgl/src/widgets/../core/../misc/lv_anim.h ****     a->exec_cb = exec_cb;
 141:Drivers/lvgl/src/widgets/../core/../misc/lv_anim.h **** }
 142:Drivers/lvgl/src/widgets/../core/../misc/lv_anim.h **** 
 143:Drivers/lvgl/src/widgets/../core/../misc/lv_anim.h **** /**
 144:Drivers/lvgl/src/widgets/../core/../misc/lv_anim.h ****  * Set the duration of an animation
 145:Drivers/lvgl/src/widgets/../core/../misc/lv_anim.h ****  * @param a         pointer to an initialized `lv_anim_t` variable
 146:Drivers/lvgl/src/widgets/../core/../misc/lv_anim.h ****  * @param duration  duration of the animation in milliseconds
 147:Drivers/lvgl/src/widgets/../core/../misc/lv_anim.h ****  */
 148:Drivers/lvgl/src/widgets/../core/../misc/lv_anim.h **** static inline void lv_anim_set_time(lv_anim_t * a, uint32_t duration)
 149:Drivers/lvgl/src/widgets/../core/../misc/lv_anim.h **** {
 150:Drivers/lvgl/src/widgets/../core/../misc/lv_anim.h ****     a->time = duration;
 151:Drivers/lvgl/src/widgets/../core/../misc/lv_anim.h **** }
 152:Drivers/lvgl/src/widgets/../core/../misc/lv_anim.h **** 
 153:Drivers/lvgl/src/widgets/../core/../misc/lv_anim.h **** /**
 154:Drivers/lvgl/src/widgets/../core/../misc/lv_anim.h ****  * Set a delay before starting the animation
 155:Drivers/lvgl/src/widgets/../core/../misc/lv_anim.h ****  * @param a         pointer to an initialized `lv_anim_t` variable
 156:Drivers/lvgl/src/widgets/../core/../misc/lv_anim.h ****  * @param delay     delay before the animation in milliseconds
 157:Drivers/lvgl/src/widgets/../core/../misc/lv_anim.h ****  */
 158:Drivers/lvgl/src/widgets/../core/../misc/lv_anim.h **** static inline void lv_anim_set_delay(lv_anim_t * a, uint32_t delay)
 159:Drivers/lvgl/src/widgets/../core/../misc/lv_anim.h **** {
 160:Drivers/lvgl/src/widgets/../core/../misc/lv_anim.h ****     a->act_time = -(int32_t)(delay);
 161:Drivers/lvgl/src/widgets/../core/../misc/lv_anim.h **** }
 162:Drivers/lvgl/src/widgets/../core/../misc/lv_anim.h **** 
 163:Drivers/lvgl/src/widgets/../core/../misc/lv_anim.h **** /**
 164:Drivers/lvgl/src/widgets/../core/../misc/lv_anim.h ****  * Set the start and end values of an animation
 165:Drivers/lvgl/src/widgets/../core/../misc/lv_anim.h ****  * @param a         pointer to an initialized `lv_anim_t` variable
ARM GAS  /var/folders/0z/tsy30v1j4xl4_7kw94k978ww0000gn/T//cch0tet4.s 			page 43


 166:Drivers/lvgl/src/widgets/../core/../misc/lv_anim.h ****  * @param start     the start value
 167:Drivers/lvgl/src/widgets/../core/../misc/lv_anim.h ****  * @param end       the end value
 168:Drivers/lvgl/src/widgets/../core/../misc/lv_anim.h ****  */
 169:Drivers/lvgl/src/widgets/../core/../misc/lv_anim.h **** static inline void lv_anim_set_values(lv_anim_t * a, int32_t start, int32_t end)
 170:Drivers/lvgl/src/widgets/../core/../misc/lv_anim.h **** {
 171:Drivers/lvgl/src/widgets/../core/../misc/lv_anim.h ****     a->start_value = start;
 172:Drivers/lvgl/src/widgets/../core/../misc/lv_anim.h ****     a->current_value = start;
 173:Drivers/lvgl/src/widgets/../core/../misc/lv_anim.h ****     a->end_value = end;
 174:Drivers/lvgl/src/widgets/../core/../misc/lv_anim.h **** }
 175:Drivers/lvgl/src/widgets/../core/../misc/lv_anim.h **** 
 176:Drivers/lvgl/src/widgets/../core/../misc/lv_anim.h **** /**
 177:Drivers/lvgl/src/widgets/../core/../misc/lv_anim.h ****  * Similar to `lv_anim_set_exec_cb` but `lv_anim_custom_exec_cb_t` receives
 178:Drivers/lvgl/src/widgets/../core/../misc/lv_anim.h ****  * `lv_anim_t * ` as its first parameter instead of `void *`.
 179:Drivers/lvgl/src/widgets/../core/../misc/lv_anim.h ****  * This function might be used when LVGL is bound to other languages because
 180:Drivers/lvgl/src/widgets/../core/../misc/lv_anim.h ****  * it's more consistent to have `lv_anim_t *` as first parameter.
 181:Drivers/lvgl/src/widgets/../core/../misc/lv_anim.h ****  * The variable to animate can be stored in the animation's `user_data`
 182:Drivers/lvgl/src/widgets/../core/../misc/lv_anim.h ****  * @param a         pointer to an initialized `lv_anim_t` variable
 183:Drivers/lvgl/src/widgets/../core/../misc/lv_anim.h ****  * @param exec_cb   a function to execute.
 184:Drivers/lvgl/src/widgets/../core/../misc/lv_anim.h ****  */
 185:Drivers/lvgl/src/widgets/../core/../misc/lv_anim.h **** static inline void lv_anim_set_custom_exec_cb(lv_anim_t * a, lv_anim_custom_exec_cb_t exec_cb)
 186:Drivers/lvgl/src/widgets/../core/../misc/lv_anim.h **** {
 187:Drivers/lvgl/src/widgets/../core/../misc/lv_anim.h ****     a->var     = a;
 188:Drivers/lvgl/src/widgets/../core/../misc/lv_anim.h ****     a->exec_cb = (lv_anim_exec_xcb_t)exec_cb;
 189:Drivers/lvgl/src/widgets/../core/../misc/lv_anim.h **** }
 190:Drivers/lvgl/src/widgets/../core/../misc/lv_anim.h **** 
 191:Drivers/lvgl/src/widgets/../core/../misc/lv_anim.h **** /**
 192:Drivers/lvgl/src/widgets/../core/../misc/lv_anim.h ****  * Set the path (curve) of the animation.
 193:Drivers/lvgl/src/widgets/../core/../misc/lv_anim.h ****  * @param a         pointer to an initialized `lv_anim_t` variable
 194:Drivers/lvgl/src/widgets/../core/../misc/lv_anim.h ****  * @param path_cb a function to set the current value of the animation.
 195:Drivers/lvgl/src/widgets/../core/../misc/lv_anim.h ****  */
 196:Drivers/lvgl/src/widgets/../core/../misc/lv_anim.h **** static inline void lv_anim_set_path_cb(lv_anim_t * a, lv_anim_path_cb_t path_cb)
 197:Drivers/lvgl/src/widgets/../core/../misc/lv_anim.h **** {
 198:Drivers/lvgl/src/widgets/../core/../misc/lv_anim.h ****     a->path_cb = path_cb;
 199:Drivers/lvgl/src/widgets/../core/../misc/lv_anim.h **** }
 200:Drivers/lvgl/src/widgets/../core/../misc/lv_anim.h **** 
 201:Drivers/lvgl/src/widgets/../core/../misc/lv_anim.h **** /**
 202:Drivers/lvgl/src/widgets/../core/../misc/lv_anim.h ****  * Set a function call when the animation really starts (considering `delay`)
 203:Drivers/lvgl/src/widgets/../core/../misc/lv_anim.h ****  * @param a         pointer to an initialized `lv_anim_t` variable
 204:Drivers/lvgl/src/widgets/../core/../misc/lv_anim.h ****  * @param start_cb  a function call when the animation starts
 205:Drivers/lvgl/src/widgets/../core/../misc/lv_anim.h ****  */
 206:Drivers/lvgl/src/widgets/../core/../misc/lv_anim.h **** static inline void lv_anim_set_start_cb(lv_anim_t * a, lv_anim_start_cb_t start_cb)
 207:Drivers/lvgl/src/widgets/../core/../misc/lv_anim.h **** {
 208:Drivers/lvgl/src/widgets/../core/../misc/lv_anim.h ****     a->start_cb = start_cb;
 209:Drivers/lvgl/src/widgets/../core/../misc/lv_anim.h **** }
 210:Drivers/lvgl/src/widgets/../core/../misc/lv_anim.h **** 
 211:Drivers/lvgl/src/widgets/../core/../misc/lv_anim.h **** /**
 212:Drivers/lvgl/src/widgets/../core/../misc/lv_anim.h ****  * Set a function to use the current value of the variable and make start and end value
 213:Drivers/lvgl/src/widgets/../core/../misc/lv_anim.h ****  * relative to the returned current value.
 214:Drivers/lvgl/src/widgets/../core/../misc/lv_anim.h ****  * @param a             pointer to an initialized `lv_anim_t` variable
 215:Drivers/lvgl/src/widgets/../core/../misc/lv_anim.h ****  * @param get_value_cb  a function call when the animation starts
 216:Drivers/lvgl/src/widgets/../core/../misc/lv_anim.h ****  */
 217:Drivers/lvgl/src/widgets/../core/../misc/lv_anim.h **** static inline void lv_anim_set_get_value_cb(lv_anim_t * a, lv_anim_get_value_cb_t get_value_cb)
 218:Drivers/lvgl/src/widgets/../core/../misc/lv_anim.h **** {
 219:Drivers/lvgl/src/widgets/../core/../misc/lv_anim.h ****     a->get_value_cb = get_value_cb;
 220:Drivers/lvgl/src/widgets/../core/../misc/lv_anim.h **** }
 221:Drivers/lvgl/src/widgets/../core/../misc/lv_anim.h **** 
 222:Drivers/lvgl/src/widgets/../core/../misc/lv_anim.h **** /**
ARM GAS  /var/folders/0z/tsy30v1j4xl4_7kw94k978ww0000gn/T//cch0tet4.s 			page 44


 223:Drivers/lvgl/src/widgets/../core/../misc/lv_anim.h ****  * Set a function call when the animation is ready
 224:Drivers/lvgl/src/widgets/../core/../misc/lv_anim.h ****  * @param a         pointer to an initialized `lv_anim_t` variable
 225:Drivers/lvgl/src/widgets/../core/../misc/lv_anim.h ****  * @param ready_cb  a function call when the animation is ready
 226:Drivers/lvgl/src/widgets/../core/../misc/lv_anim.h ****  */
 227:Drivers/lvgl/src/widgets/../core/../misc/lv_anim.h **** static inline void lv_anim_set_ready_cb(lv_anim_t * a, lv_anim_ready_cb_t ready_cb)
 228:Drivers/lvgl/src/widgets/../core/../misc/lv_anim.h **** {
 229:Drivers/lvgl/src/widgets/../core/../misc/lv_anim.h ****     a->ready_cb = ready_cb;
 1025              		.loc 4 229 17 view .LVU319
 1026 0278 104B     		ldr	r3, .L33+4
 1027 027a 1693     		str	r3, [sp, #88]
 1028              	.LBE201:
 1029              	.LBE200:
 260:Drivers/lvgl/src/widgets/lv_switch.c **** 
 1030              		.loc 1 260 18 view .LVU320
 1031 027c 240A     		lsrs	r4, r4, #8
 1032              	.LVL105:
 1033              	.LBB203:
 1034              	.LBB204:
 140:Drivers/lvgl/src/widgets/../core/../misc/lv_anim.h **** }
 1035              		.loc 4 140 16 view .LVU321
 1036 027e 104B     		ldr	r3, .L33+8
 1037              	.LBE204:
 1038              	.LBE203:
 1039              	.LBB207:
 1040              	.LBB208:
 173:Drivers/lvgl/src/widgets/../core/../misc/lv_anim.h **** }
 1041              		.loc 4 173 18 view .LVU322
 1042 0280 CDF87480 		str	r8, [sp, #116]
 1043              	.LBE208:
 1044              	.LBE207:
 268:Drivers/lvgl/src/widgets/lv_switch.c ****         lv_anim_set_exec_cb(&a, lv_switch_anim_exec_cb);
 269:Drivers/lvgl/src/widgets/lv_switch.c ****         lv_anim_set_values(&a, anim_start, anim_end);
 270:Drivers/lvgl/src/widgets/lv_switch.c ****         lv_anim_set_ready_cb(&a, lv_switch_anim_ready);
 271:Drivers/lvgl/src/widgets/lv_switch.c ****         lv_anim_set_time(&a, anim_dur);
 272:Drivers/lvgl/src/widgets/lv_switch.c ****         lv_anim_start(&a);
 1045              		.loc 1 272 9 view .LVU323
 1046 0284 13A8     		add	r0, sp, #76
 1047              	.LVL106:
 1048              	.LBB211:
 1049              	.LBB209:
 172:Drivers/lvgl/src/widgets/../core/../misc/lv_anim.h ****     a->end_value = end;
 1050              		.loc 4 172 22 view .LVU324
 1051 0286 CDE91B55 		strd	r5, r5, [sp, #108]
 1052              	.LBE209:
 1053              	.LBE211:
 1054              	.LBB212:
 1055              	.LBB199:
 128:Drivers/lvgl/src/widgets/../core/../misc/lv_anim.h **** }
 1056              		.loc 4 128 12 view .LVU325
 1057 028a 1396     		str	r6, [sp, #76]
 1058              	.LVL107:
 128:Drivers/lvgl/src/widgets/../core/../misc/lv_anim.h **** }
 1059              		.loc 4 128 12 view .LVU326
 1060              	.LBE199:
 1061              	.LBE212:
 268:Drivers/lvgl/src/widgets/lv_switch.c ****         lv_anim_set_exec_cb(&a, lv_switch_anim_exec_cb);
 1062              		.loc 1 268 9 is_stmt 1 view .LVU327
ARM GAS  /var/folders/0z/tsy30v1j4xl4_7kw94k978ww0000gn/T//cch0tet4.s 			page 45


 1063              	.LBB213:
 1064              	.LBI203:
 138:Drivers/lvgl/src/widgets/../core/../misc/lv_anim.h **** {
 1065              		.loc 4 138 20 view .LVU328
 1066              	.LBB205:
 140:Drivers/lvgl/src/widgets/../core/../misc/lv_anim.h **** }
 1067              		.loc 4 140 5 view .LVU329
 1068              	.LBE205:
 1069              	.LBE213:
 1070              	.LBB214:
 1071              	.LBB215:
 150:Drivers/lvgl/src/widgets/../core/../misc/lv_anim.h **** }
 1072              		.loc 4 150 13 is_stmt 0 view .LVU330
 1073 028c 1E94     		str	r4, [sp, #120]
 1074              	.LBE215:
 1075              	.LBE214:
 1076              	.LBB217:
 1077              	.LBB206:
 140:Drivers/lvgl/src/widgets/../core/../misc/lv_anim.h **** }
 1078              		.loc 4 140 16 view .LVU331
 1079 028e 1493     		str	r3, [sp, #80]
 1080              	.LVL108:
 140:Drivers/lvgl/src/widgets/../core/../misc/lv_anim.h **** }
 1081              		.loc 4 140 16 view .LVU332
 1082              	.LBE206:
 1083              	.LBE217:
 269:Drivers/lvgl/src/widgets/lv_switch.c ****         lv_anim_set_ready_cb(&a, lv_switch_anim_ready);
 1084              		.loc 1 269 9 is_stmt 1 view .LVU333
 1085              	.LBB218:
 1086              	.LBI207:
 169:Drivers/lvgl/src/widgets/../core/../misc/lv_anim.h **** {
 1087              		.loc 4 169 20 view .LVU334
 1088              	.LBB210:
 171:Drivers/lvgl/src/widgets/../core/../misc/lv_anim.h ****     a->current_value = start;
 1089              		.loc 4 171 5 view .LVU335
 172:Drivers/lvgl/src/widgets/../core/../misc/lv_anim.h ****     a->end_value = end;
 1090              		.loc 4 172 5 view .LVU336
 173:Drivers/lvgl/src/widgets/../core/../misc/lv_anim.h **** }
 1091              		.loc 4 173 5 view .LVU337
 173:Drivers/lvgl/src/widgets/../core/../misc/lv_anim.h **** }
 1092              		.loc 4 173 5 is_stmt 0 view .LVU338
 1093              	.LBE210:
 1094              	.LBE218:
 270:Drivers/lvgl/src/widgets/lv_switch.c ****         lv_anim_set_time(&a, anim_dur);
 1095              		.loc 1 270 9 is_stmt 1 view .LVU339
 1096              	.LBB219:
 1097              	.LBI200:
 227:Drivers/lvgl/src/widgets/../core/../misc/lv_anim.h **** {
 1098              		.loc 4 227 20 view .LVU340
 1099              	.LBB202:
 1100              		.loc 4 229 5 view .LVU341
 1101              		.loc 4 229 5 is_stmt 0 view .LVU342
 1102              	.LBE202:
 1103              	.LBE219:
 271:Drivers/lvgl/src/widgets/lv_switch.c ****         lv_anim_start(&a);
 1104              		.loc 1 271 9 is_stmt 1 view .LVU343
 1105              	.LBB220:
ARM GAS  /var/folders/0z/tsy30v1j4xl4_7kw94k978ww0000gn/T//cch0tet4.s 			page 46


 1106              	.LBI214:
 148:Drivers/lvgl/src/widgets/../core/../misc/lv_anim.h **** {
 1107              		.loc 4 148 20 view .LVU344
 1108              	.LBB216:
 150:Drivers/lvgl/src/widgets/../core/../misc/lv_anim.h **** }
 1109              		.loc 4 150 5 view .LVU345
 150:Drivers/lvgl/src/widgets/../core/../misc/lv_anim.h **** }
 1110              		.loc 4 150 5 is_stmt 0 view .LVU346
 1111              	.LBE216:
 1112              	.LBE220:
 1113              		.loc 1 272 9 is_stmt 1 view .LVU347
 1114 0290 FFF7FEFF 		bl	lv_anim_start
 1115              	.LVL109:
 1116 0294 CBE7     		b	.L14
 1117              	.LVL110:
 1118              	.L18:
 1119              		.loc 1 272 9 is_stmt 0 view .LVU348
 1120              	.LBE196:
 1121              	.LBE222:
 1122              	.LBE225:
 1123              	.LBB226:
 1124              	.LBB168:
 1125              	.LBB167:
 184:Drivers/lvgl/src/widgets/lv_switch.c ****         anim_value_x = chk ? anim_length : 0;
 1126              		.loc 1 184 9 is_stmt 1 view .LVU349
 184:Drivers/lvgl/src/widgets/lv_switch.c ****         anim_value_x = chk ? anim_length : 0;
 1127              		.loc 1 184 20 is_stmt 0 view .LVU350
 1128 0296 2846     		mov	r0, r5
 1129              	.LVL111:
 184:Drivers/lvgl/src/widgets/lv_switch.c ****         anim_value_x = chk ? anim_length : 0;
 1130              		.loc 1 184 20 view .LVU351
 1131 0298 FFF7FEFF 		bl	lv_obj_get_state
 1132              	.LVL112:
 185:Drivers/lvgl/src/widgets/lv_switch.c ****     }
 1133              		.loc 1 185 9 is_stmt 1 view .LVU352
 1134 029c 10F00104 		ands	r4, r0, #1
 1135              	.LVL113:
 185:Drivers/lvgl/src/widgets/lv_switch.c ****     }
 1136              		.loc 1 185 9 is_stmt 0 view .LVU353
 1137 02a0 18BF     		it	ne
 1138 02a2 4446     		movne	r4, r8
 1139 02a4 1FE7     		b	.L20
 1140              	.LVL114:
 1141              	.L32:
 185:Drivers/lvgl/src/widgets/lv_switch.c ****     }
 1142              		.loc 1 185 9 view .LVU354
 1143              	.LBE167:
 1144              	.LBE168:
 1145              	.LBE226:
 1146              	.LBB227:
 1147              	.LBB223:
 1148              	.LBB221:
 251:Drivers/lvgl/src/widgets/lv_switch.c ****             anim_end   = chk ? LV_SWITCH_ANIM_STATE_END : LV_SWITCH_ANIM_STATE_START;
 1149              		.loc 1 251 13 is_stmt 1 view .LVU355
 1150 02a6 4FF48077 		mov	r7, #256
 251:Drivers/lvgl/src/widgets/lv_switch.c ****             anim_end   = chk ? LV_SWITCH_ANIM_STATE_END : LV_SWITCH_ANIM_STATE_START;
 1151              		.loc 1 251 59 is_stmt 0 view .LVU356
ARM GAS  /var/folders/0z/tsy30v1j4xl4_7kw94k978ww0000gn/T//cch0tet4.s 			page 47


 1152 02aa 10B9     		cbnz	r0, .L22
 252:Drivers/lvgl/src/widgets/lv_switch.c ****         }
 1153              		.loc 1 252 57 view .LVU357
 1154 02ac 8046     		mov	r8, r0
 251:Drivers/lvgl/src/widgets/lv_switch.c ****             anim_end   = chk ? LV_SWITCH_ANIM_STATE_END : LV_SWITCH_ANIM_STATE_START;
 1155              		.loc 1 251 59 view .LVU358
 1156 02ae 3D46     		mov	r5, r7
 1157 02b0 D9E7     		b	.L16
 1158              	.L22:
 252:Drivers/lvgl/src/widgets/lv_switch.c ****         }
 1159              		.loc 1 252 57 view .LVU359
 1160 02b2 B846     		mov	r8, r7
 251:Drivers/lvgl/src/widgets/lv_switch.c ****             anim_end   = chk ? LV_SWITCH_ANIM_STATE_END : LV_SWITCH_ANIM_STATE_START;
 1161              		.loc 1 251 59 view .LVU360
 1162 02b4 0025     		movs	r5, #0
 1163 02b6 D6E7     		b	.L16
 1164              	.L34:
 1165              		.align	2
 1166              	.L33:
 1167 02b8 00000000 		.word	.LANCHOR0
 1168 02bc 00000000 		.word	lv_switch_anim_ready
 1169 02c0 00000000 		.word	lv_switch_anim_exec_cb
 1170              	.LBE221:
 1171              	.LBE223:
 1172              	.LBE227:
 1173              	.LBE228:
 1174              	.LBE229:
 1175              		.cfi_endproc
 1176              	.LFE170:
 1178              		.section	.text.lv_switch_create,"ax",%progbits
 1179              		.align	1
 1180              		.p2align 2,,3
 1181              		.global	lv_switch_create
 1182              		.syntax unified
 1183              		.thumb
 1184              		.thumb_func
 1186              	lv_switch_create:
 1187              	.LVL115:
 1188              	.LFB167:
  74:Drivers/lvgl/src/widgets/lv_switch.c ****     LV_LOG_INFO("begin");
 1189              		.loc 1 74 1 is_stmt 1 view -0
 1190              		.cfi_startproc
 1191              		@ args = 0, pretend = 0, frame = 0
 1192              		@ frame_needed = 0, uses_anonymous_args = 0
  75:Drivers/lvgl/src/widgets/lv_switch.c ****     lv_obj_t * obj = lv_obj_class_create_obj(MY_CLASS, parent);
 1193              		.loc 1 75 5 view .LVU362
  75:Drivers/lvgl/src/widgets/lv_switch.c ****     lv_obj_t * obj = lv_obj_class_create_obj(MY_CLASS, parent);
 1194              		.loc 1 75 5 view .LVU363
  75:Drivers/lvgl/src/widgets/lv_switch.c ****     lv_obj_t * obj = lv_obj_class_create_obj(MY_CLASS, parent);
 1195              		.loc 1 75 5 view .LVU364
  76:Drivers/lvgl/src/widgets/lv_switch.c ****     lv_obj_class_init_obj(obj);
 1196              		.loc 1 76 5 view .LVU365
  74:Drivers/lvgl/src/widgets/lv_switch.c ****     LV_LOG_INFO("begin");
 1197              		.loc 1 74 1 is_stmt 0 view .LVU366
 1198 0000 10B5     		push	{r4, lr}
 1199              		.cfi_def_cfa_offset 8
 1200              		.cfi_offset 4, -8
ARM GAS  /var/folders/0z/tsy30v1j4xl4_7kw94k978ww0000gn/T//cch0tet4.s 			page 48


 1201              		.cfi_offset 14, -4
  74:Drivers/lvgl/src/widgets/lv_switch.c ****     LV_LOG_INFO("begin");
 1202              		.loc 1 74 1 view .LVU367
 1203 0002 0146     		mov	r1, r0
  76:Drivers/lvgl/src/widgets/lv_switch.c ****     lv_obj_class_init_obj(obj);
 1204              		.loc 1 76 22 view .LVU368
 1205 0004 0348     		ldr	r0, .L37
 1206              	.LVL116:
  76:Drivers/lvgl/src/widgets/lv_switch.c ****     lv_obj_class_init_obj(obj);
 1207              		.loc 1 76 22 view .LVU369
 1208 0006 FFF7FEFF 		bl	lv_obj_class_create_obj
 1209              	.LVL117:
  76:Drivers/lvgl/src/widgets/lv_switch.c ****     lv_obj_class_init_obj(obj);
 1210              		.loc 1 76 22 view .LVU370
 1211 000a 0446     		mov	r4, r0
 1212              	.LVL118:
  77:Drivers/lvgl/src/widgets/lv_switch.c ****     return obj;
 1213              		.loc 1 77 5 is_stmt 1 view .LVU371
 1214 000c FFF7FEFF 		bl	lv_obj_class_init_obj
 1215              	.LVL119:
  78:Drivers/lvgl/src/widgets/lv_switch.c **** }
 1216              		.loc 1 78 5 view .LVU372
  79:Drivers/lvgl/src/widgets/lv_switch.c **** 
 1217              		.loc 1 79 1 is_stmt 0 view .LVU373
 1218 0010 2046     		mov	r0, r4
 1219 0012 10BD     		pop	{r4, pc}
 1220              	.LVL120:
 1221              	.L38:
  79:Drivers/lvgl/src/widgets/lv_switch.c **** 
 1222              		.loc 1 79 1 view .LVU374
 1223              		.align	2
 1224              	.L37:
 1225 0014 00000000 		.word	.LANCHOR0
 1226              		.cfi_endproc
 1227              	.LFE167:
 1229              		.global	lv_switch_class
 1230              		.section	.rodata.lv_switch_class,"a"
 1231              		.align	2
 1232              		.set	.LANCHOR0,. + 0
 1235              	lv_switch_class:
 1236 0000 00000000 		.word	lv_obj_class
 1237 0004 00000000 		.word	lv_switch_constructor
 1238 0008 00000000 		.word	lv_switch_destructor
 1239 000c 00000000 		.space	4
 1240 0010 00000000 		.word	lv_switch_event
 1241 0014 3400     		.short	52
 1242 0016 1E00     		.short	30
 1243 0018 84       		.byte	132
 1244 0019 02       		.byte	2
 1245 001a 00       		.byte	0
 1246 001b 00       		.space	1
 1247              		.text
 1248              	.Letext0:
 1249              		.file 5 "/Users/johannes/Library/Application Support/Code/User/globalStorage/bmd.stm32-for-vscode/
 1250              		.file 6 "/Users/johannes/Library/Application Support/Code/User/globalStorage/bmd.stm32-for-vscode/
 1251              		.file 7 "/Users/johannes/Library/Application Support/Code/User/globalStorage/bmd.stm32-for-vscode/
 1252              		.file 8 "Drivers/lvgl/src/widgets/../core/../misc/../font/lv_font.h"
ARM GAS  /var/folders/0z/tsy30v1j4xl4_7kw94k978ww0000gn/T//cch0tet4.s 			page 49


 1253              		.file 9 "Drivers/lvgl/src/widgets/../core/../misc/lv_types.h"
 1254              		.file 10 "Drivers/lvgl/src/widgets/../core/../misc/lv_color.h"
 1255              		.file 11 "Drivers/lvgl/src/widgets/../core/../misc/lv_txt.h"
 1256              		.file 12 "Drivers/lvgl/src/widgets/../core/../misc/lv_bidi.h"
 1257              		.file 13 "Drivers/lvgl/src/widgets/../core/../misc/lv_style.h"
 1258              		.file 14 "Drivers/lvgl/src/widgets/../core/../hal/../draw/lv_img_buf.h"
 1259              		.file 15 "Drivers/lvgl/src/widgets/../core/lv_obj.h"
 1260              		.file 16 "Drivers/lvgl/src/widgets/../core/../hal/../draw/lv_draw_rect.h"
 1261              		.file 17 "Drivers/lvgl/src/widgets/../core/../hal/../draw/lv_draw_label.h"
 1262              		.file 18 "Drivers/lvgl/src/widgets/../core/../hal/../draw/lv_draw_img.h"
 1263              		.file 19 "Drivers/lvgl/src/widgets/../core/../hal/../draw/lv_draw_line.h"
 1264              		.file 20 "Drivers/lvgl/src/widgets/../core/../hal/../draw/lv_draw_arc.h"
 1265              		.file 21 "Drivers/lvgl/src/widgets/../core/../hal/../draw/lv_draw_layer.h"
 1266              		.file 22 "Drivers/lvgl/src/widgets/../core/../hal/../draw/lv_draw.h"
 1267              		.file 23 "Drivers/lvgl/src/widgets/../core/../hal/../misc/lv_ll.h"
 1268              		.file 24 "Drivers/lvgl/src/widgets/../core/lv_group.h"
 1269              		.file 25 "Drivers/lvgl/src/widgets/../core/lv_obj_scroll.h"
 1270              		.file 26 "Drivers/lvgl/src/widgets/../core/lv_obj_style.h"
 1271              		.file 27 "Drivers/lvgl/src/widgets/../core/lv_obj_class.h"
 1272              		.file 28 "Drivers/lvgl/src/widgets/../core/lv_event.h"
 1273              		.file 29 "Drivers/lvgl/src/widgets/lv_switch.h"
 1274              		.file 30 "Drivers/lvgl/src/widgets/../core/../hal/../draw/sw/../../core/lv_obj_pos.h"
 1275              		.file 31 "Drivers/lvgl/src/widgets/../core/lv_obj_draw.h"
ARM GAS  /var/folders/0z/tsy30v1j4xl4_7kw94k978ww0000gn/T//cch0tet4.s 			page 50

