ARM GAS  /var/folders/lp/x54gwt890xv47sdkqj1k04q40000gn/T//cccwpvLX.s 			page 1


   1              		.cpu cortex-m4
   2              		.arch armv7e-m
   3              		.fpu fpv4-sp-d16
   4              		.eabi_attribute 27, 1
   5              		.eabi_attribute 28, 1
   6              		.eabi_attribute 20, 1
   7              		.eabi_attribute 21, 1
   8              		.eabi_attribute 23, 3
   9              		.eabi_attribute 24, 1
  10              		.eabi_attribute 25, 1
  11              		.eabi_attribute 26, 1
  12              		.eabi_attribute 30, 2
  13              		.eabi_attribute 34, 1
  14              		.eabi_attribute 18, 4
  15              		.file	"lv_spinner.c"
  16              		.text
  17              	.Ltext0:
  18              		.cfi_sections	.debug_frame
  19              		.file 1 "Drivers/lvgl/src/extra/widgets/spinner/lv_spinner.c"
  20              		.section	.text.lv_spinner_constructor,"ax",%progbits
  21              		.align	1
  22              		.p2align 2,,3
  23              		.syntax unified
  24              		.thumb
  25              		.thumb_func
  27              	lv_spinner_constructor:
  28              	.LVL0:
  29              	.LFB205:
   1:Drivers/lvgl/src/extra/widgets/spinner/lv_spinner.c **** /**
   2:Drivers/lvgl/src/extra/widgets/spinner/lv_spinner.c ****  * @file lv_spinner.c
   3:Drivers/lvgl/src/extra/widgets/spinner/lv_spinner.c ****  *
   4:Drivers/lvgl/src/extra/widgets/spinner/lv_spinner.c ****  */
   5:Drivers/lvgl/src/extra/widgets/spinner/lv_spinner.c **** 
   6:Drivers/lvgl/src/extra/widgets/spinner/lv_spinner.c **** /*********************
   7:Drivers/lvgl/src/extra/widgets/spinner/lv_spinner.c ****  *      INCLUDES
   8:Drivers/lvgl/src/extra/widgets/spinner/lv_spinner.c ****  *********************/
   9:Drivers/lvgl/src/extra/widgets/spinner/lv_spinner.c **** #include "lv_spinner.h"
  10:Drivers/lvgl/src/extra/widgets/spinner/lv_spinner.c **** #if LV_USE_SPINNER
  11:Drivers/lvgl/src/extra/widgets/spinner/lv_spinner.c **** 
  12:Drivers/lvgl/src/extra/widgets/spinner/lv_spinner.c **** /*********************
  13:Drivers/lvgl/src/extra/widgets/spinner/lv_spinner.c ****  *      DEFINES
  14:Drivers/lvgl/src/extra/widgets/spinner/lv_spinner.c ****  *********************/
  15:Drivers/lvgl/src/extra/widgets/spinner/lv_spinner.c **** 
  16:Drivers/lvgl/src/extra/widgets/spinner/lv_spinner.c **** /**********************
  17:Drivers/lvgl/src/extra/widgets/spinner/lv_spinner.c ****  *      TYPEDEFS
  18:Drivers/lvgl/src/extra/widgets/spinner/lv_spinner.c ****  **********************/
  19:Drivers/lvgl/src/extra/widgets/spinner/lv_spinner.c **** 
  20:Drivers/lvgl/src/extra/widgets/spinner/lv_spinner.c **** /**********************
  21:Drivers/lvgl/src/extra/widgets/spinner/lv_spinner.c ****  *  STATIC PROTOTYPES
  22:Drivers/lvgl/src/extra/widgets/spinner/lv_spinner.c ****  **********************/
  23:Drivers/lvgl/src/extra/widgets/spinner/lv_spinner.c **** static void lv_spinner_constructor(const lv_obj_class_t * class_p, lv_obj_t * obj);
  24:Drivers/lvgl/src/extra/widgets/spinner/lv_spinner.c **** static void arc_anim_start_angle(void * obj, int32_t v);
  25:Drivers/lvgl/src/extra/widgets/spinner/lv_spinner.c **** static void arc_anim_end_angle(void * obj, int32_t v);
  26:Drivers/lvgl/src/extra/widgets/spinner/lv_spinner.c **** 
  27:Drivers/lvgl/src/extra/widgets/spinner/lv_spinner.c **** /**********************
  28:Drivers/lvgl/src/extra/widgets/spinner/lv_spinner.c ****  *  STATIC VARIABLES
  29:Drivers/lvgl/src/extra/widgets/spinner/lv_spinner.c ****  **********************/
ARM GAS  /var/folders/lp/x54gwt890xv47sdkqj1k04q40000gn/T//cccwpvLX.s 			page 2


  30:Drivers/lvgl/src/extra/widgets/spinner/lv_spinner.c **** const lv_obj_class_t lv_spinner_class = {
  31:Drivers/lvgl/src/extra/widgets/spinner/lv_spinner.c ****     .base_class = &lv_arc_class,
  32:Drivers/lvgl/src/extra/widgets/spinner/lv_spinner.c ****     .constructor_cb = lv_spinner_constructor
  33:Drivers/lvgl/src/extra/widgets/spinner/lv_spinner.c **** };
  34:Drivers/lvgl/src/extra/widgets/spinner/lv_spinner.c **** 
  35:Drivers/lvgl/src/extra/widgets/spinner/lv_spinner.c **** static uint32_t time_param;
  36:Drivers/lvgl/src/extra/widgets/spinner/lv_spinner.c **** static uint32_t arc_length_param;
  37:Drivers/lvgl/src/extra/widgets/spinner/lv_spinner.c **** 
  38:Drivers/lvgl/src/extra/widgets/spinner/lv_spinner.c **** /**********************
  39:Drivers/lvgl/src/extra/widgets/spinner/lv_spinner.c ****  *      MACROS
  40:Drivers/lvgl/src/extra/widgets/spinner/lv_spinner.c ****  **********************/
  41:Drivers/lvgl/src/extra/widgets/spinner/lv_spinner.c **** 
  42:Drivers/lvgl/src/extra/widgets/spinner/lv_spinner.c **** /**********************
  43:Drivers/lvgl/src/extra/widgets/spinner/lv_spinner.c ****  *   GLOBAL FUNCTIONS
  44:Drivers/lvgl/src/extra/widgets/spinner/lv_spinner.c ****  **********************/
  45:Drivers/lvgl/src/extra/widgets/spinner/lv_spinner.c **** 
  46:Drivers/lvgl/src/extra/widgets/spinner/lv_spinner.c **** /**
  47:Drivers/lvgl/src/extra/widgets/spinner/lv_spinner.c ****  * Create a spinner object
  48:Drivers/lvgl/src/extra/widgets/spinner/lv_spinner.c ****  * @param parent pointer to an object, it will be the parent of the new spinner
  49:Drivers/lvgl/src/extra/widgets/spinner/lv_spinner.c ****  * @return pointer to the created spinner
  50:Drivers/lvgl/src/extra/widgets/spinner/lv_spinner.c ****  */
  51:Drivers/lvgl/src/extra/widgets/spinner/lv_spinner.c **** lv_obj_t * lv_spinner_create(lv_obj_t * parent, uint32_t time, uint32_t arc_length)
  52:Drivers/lvgl/src/extra/widgets/spinner/lv_spinner.c **** {
  53:Drivers/lvgl/src/extra/widgets/spinner/lv_spinner.c ****     time_param = time;
  54:Drivers/lvgl/src/extra/widgets/spinner/lv_spinner.c ****     arc_length_param = arc_length;
  55:Drivers/lvgl/src/extra/widgets/spinner/lv_spinner.c **** 
  56:Drivers/lvgl/src/extra/widgets/spinner/lv_spinner.c ****     lv_obj_t * obj = lv_obj_class_create_obj(&lv_spinner_class, parent);
  57:Drivers/lvgl/src/extra/widgets/spinner/lv_spinner.c ****     lv_obj_class_init_obj(obj);
  58:Drivers/lvgl/src/extra/widgets/spinner/lv_spinner.c ****     return obj;
  59:Drivers/lvgl/src/extra/widgets/spinner/lv_spinner.c **** }
  60:Drivers/lvgl/src/extra/widgets/spinner/lv_spinner.c **** 
  61:Drivers/lvgl/src/extra/widgets/spinner/lv_spinner.c **** 
  62:Drivers/lvgl/src/extra/widgets/spinner/lv_spinner.c **** /**********************
  63:Drivers/lvgl/src/extra/widgets/spinner/lv_spinner.c ****  *   STATIC FUNCTIONS
  64:Drivers/lvgl/src/extra/widgets/spinner/lv_spinner.c ****  **********************/
  65:Drivers/lvgl/src/extra/widgets/spinner/lv_spinner.c **** 
  66:Drivers/lvgl/src/extra/widgets/spinner/lv_spinner.c **** static void lv_spinner_constructor(const lv_obj_class_t * class_p, lv_obj_t * obj)
  67:Drivers/lvgl/src/extra/widgets/spinner/lv_spinner.c **** {
  30              		.loc 1 67 1 view -0
  31              		.cfi_startproc
  32              		@ args = 0, pretend = 0, frame = 72
  33              		@ frame_needed = 0, uses_anonymous_args = 0
  68:Drivers/lvgl/src/extra/widgets/spinner/lv_spinner.c ****     LV_TRACE_OBJ_CREATE("begin");
  34              		.loc 1 68 33 view .LVU1
  69:Drivers/lvgl/src/extra/widgets/spinner/lv_spinner.c **** 
  70:Drivers/lvgl/src/extra/widgets/spinner/lv_spinner.c ****     LV_UNUSED(class_p);
  35              		.loc 1 70 5 view .LVU2
  71:Drivers/lvgl/src/extra/widgets/spinner/lv_spinner.c **** 
  72:Drivers/lvgl/src/extra/widgets/spinner/lv_spinner.c ****     lv_obj_clear_flag(obj, LV_OBJ_FLAG_CLICKABLE);
  36              		.loc 1 72 5 view .LVU3
  67:Drivers/lvgl/src/extra/widgets/spinner/lv_spinner.c ****     LV_TRACE_OBJ_CREATE("begin");
  37              		.loc 1 67 1 is_stmt 0 view .LVU4
  38 0000 30B5     		push	{r4, r5, lr}
  39              		.cfi_def_cfa_offset 12
  40              		.cfi_offset 4, -12
  41              		.cfi_offset 5, -8
  42              		.cfi_offset 14, -4
ARM GAS  /var/folders/lp/x54gwt890xv47sdkqj1k04q40000gn/T//cccwpvLX.s 			page 3


  43 0002 0C46     		mov	r4, r1
  44 0004 93B0     		sub	sp, sp, #76
  45              		.cfi_def_cfa_offset 88
  46              		.loc 1 72 5 view .LVU5
  47 0006 0221     		movs	r1, #2
  48              	.LVL1:
  49              		.loc 1 72 5 view .LVU6
  50 0008 2046     		mov	r0, r4
  51              	.LVL2:
  52              		.loc 1 72 5 view .LVU7
  53 000a FFF7FEFF 		bl	lv_obj_clear_flag
  54              	.LVL3:
  73:Drivers/lvgl/src/extra/widgets/spinner/lv_spinner.c **** 
  74:Drivers/lvgl/src/extra/widgets/spinner/lv_spinner.c ****     lv_anim_t a;
  55              		.loc 1 74 5 is_stmt 1 view .LVU8
  75:Drivers/lvgl/src/extra/widgets/spinner/lv_spinner.c ****     lv_anim_init(&a);
  56              		.loc 1 75 5 view .LVU9
  57 000e 6846     		mov	r0, sp
  58 0010 FFF7FEFF 		bl	lv_anim_init
  59              	.LVL4:
  76:Drivers/lvgl/src/extra/widgets/spinner/lv_spinner.c ****     lv_anim_set_var(&a, obj);
  60              		.loc 1 76 5 view .LVU10
  61              	.LBB18:
  62              	.LBI18:
  63              		.file 2 "Drivers/lvgl/src/extra/widgets/spinner/../../../../src/misc/lv_anim.h"
   1:Drivers/lvgl/src/extra/widgets/spinner/../../../../src/misc/lv_anim.h **** /**
   2:Drivers/lvgl/src/extra/widgets/spinner/../../../../src/misc/lv_anim.h ****  * @file lv_anim.h
   3:Drivers/lvgl/src/extra/widgets/spinner/../../../../src/misc/lv_anim.h ****  *
   4:Drivers/lvgl/src/extra/widgets/spinner/../../../../src/misc/lv_anim.h ****  */
   5:Drivers/lvgl/src/extra/widgets/spinner/../../../../src/misc/lv_anim.h **** 
   6:Drivers/lvgl/src/extra/widgets/spinner/../../../../src/misc/lv_anim.h **** #ifndef LV_ANIM_H
   7:Drivers/lvgl/src/extra/widgets/spinner/../../../../src/misc/lv_anim.h **** #define LV_ANIM_H
   8:Drivers/lvgl/src/extra/widgets/spinner/../../../../src/misc/lv_anim.h **** 
   9:Drivers/lvgl/src/extra/widgets/spinner/../../../../src/misc/lv_anim.h **** #ifdef __cplusplus
  10:Drivers/lvgl/src/extra/widgets/spinner/../../../../src/misc/lv_anim.h **** extern "C" {
  11:Drivers/lvgl/src/extra/widgets/spinner/../../../../src/misc/lv_anim.h **** #endif
  12:Drivers/lvgl/src/extra/widgets/spinner/../../../../src/misc/lv_anim.h **** 
  13:Drivers/lvgl/src/extra/widgets/spinner/../../../../src/misc/lv_anim.h **** /*********************
  14:Drivers/lvgl/src/extra/widgets/spinner/../../../../src/misc/lv_anim.h ****  *      INCLUDES
  15:Drivers/lvgl/src/extra/widgets/spinner/../../../../src/misc/lv_anim.h ****  *********************/
  16:Drivers/lvgl/src/extra/widgets/spinner/../../../../src/misc/lv_anim.h **** #include "../lv_conf_internal.h"
  17:Drivers/lvgl/src/extra/widgets/spinner/../../../../src/misc/lv_anim.h **** 
  18:Drivers/lvgl/src/extra/widgets/spinner/../../../../src/misc/lv_anim.h **** #include <stdint.h>
  19:Drivers/lvgl/src/extra/widgets/spinner/../../../../src/misc/lv_anim.h **** #include <stdbool.h>
  20:Drivers/lvgl/src/extra/widgets/spinner/../../../../src/misc/lv_anim.h **** #include <stddef.h>
  21:Drivers/lvgl/src/extra/widgets/spinner/../../../../src/misc/lv_anim.h **** 
  22:Drivers/lvgl/src/extra/widgets/spinner/../../../../src/misc/lv_anim.h **** /*********************
  23:Drivers/lvgl/src/extra/widgets/spinner/../../../../src/misc/lv_anim.h ****  *      DEFINES
  24:Drivers/lvgl/src/extra/widgets/spinner/../../../../src/misc/lv_anim.h ****  *********************/
  25:Drivers/lvgl/src/extra/widgets/spinner/../../../../src/misc/lv_anim.h **** 
  26:Drivers/lvgl/src/extra/widgets/spinner/../../../../src/misc/lv_anim.h **** #define LV_ANIM_REPEAT_INFINITE      0xFFFF
  27:Drivers/lvgl/src/extra/widgets/spinner/../../../../src/misc/lv_anim.h **** #define LV_ANIM_PLAYTIME_INFINITE    0xFFFFFFFF
  28:Drivers/lvgl/src/extra/widgets/spinner/../../../../src/misc/lv_anim.h **** 
  29:Drivers/lvgl/src/extra/widgets/spinner/../../../../src/misc/lv_anim.h **** LV_EXPORT_CONST_INT(LV_ANIM_REPEAT_INFINITE);
  30:Drivers/lvgl/src/extra/widgets/spinner/../../../../src/misc/lv_anim.h **** LV_EXPORT_CONST_INT(LV_ANIM_PLAYTIME_INFINITE);
  31:Drivers/lvgl/src/extra/widgets/spinner/../../../../src/misc/lv_anim.h **** 
  32:Drivers/lvgl/src/extra/widgets/spinner/../../../../src/misc/lv_anim.h **** /**********************
ARM GAS  /var/folders/lp/x54gwt890xv47sdkqj1k04q40000gn/T//cccwpvLX.s 			page 4


  33:Drivers/lvgl/src/extra/widgets/spinner/../../../../src/misc/lv_anim.h ****  *      TYPEDEFS
  34:Drivers/lvgl/src/extra/widgets/spinner/../../../../src/misc/lv_anim.h ****  **********************/
  35:Drivers/lvgl/src/extra/widgets/spinner/../../../../src/misc/lv_anim.h **** 
  36:Drivers/lvgl/src/extra/widgets/spinner/../../../../src/misc/lv_anim.h **** /** Can be used to indicate if animations are enabled or disabled in a case*/
  37:Drivers/lvgl/src/extra/widgets/spinner/../../../../src/misc/lv_anim.h **** typedef enum {
  38:Drivers/lvgl/src/extra/widgets/spinner/../../../../src/misc/lv_anim.h ****     LV_ANIM_OFF,
  39:Drivers/lvgl/src/extra/widgets/spinner/../../../../src/misc/lv_anim.h ****     LV_ANIM_ON,
  40:Drivers/lvgl/src/extra/widgets/spinner/../../../../src/misc/lv_anim.h **** } lv_anim_enable_t;
  41:Drivers/lvgl/src/extra/widgets/spinner/../../../../src/misc/lv_anim.h **** 
  42:Drivers/lvgl/src/extra/widgets/spinner/../../../../src/misc/lv_anim.h **** struct _lv_anim_t;
  43:Drivers/lvgl/src/extra/widgets/spinner/../../../../src/misc/lv_anim.h **** struct _lv_timer_t;
  44:Drivers/lvgl/src/extra/widgets/spinner/../../../../src/misc/lv_anim.h **** 
  45:Drivers/lvgl/src/extra/widgets/spinner/../../../../src/misc/lv_anim.h **** /** Get the current value during an animation*/
  46:Drivers/lvgl/src/extra/widgets/spinner/../../../../src/misc/lv_anim.h **** typedef int32_t (*lv_anim_path_cb_t)(const struct _lv_anim_t *);
  47:Drivers/lvgl/src/extra/widgets/spinner/../../../../src/misc/lv_anim.h **** 
  48:Drivers/lvgl/src/extra/widgets/spinner/../../../../src/misc/lv_anim.h **** /** Generic prototype of "animator" functions.
  49:Drivers/lvgl/src/extra/widgets/spinner/../../../../src/misc/lv_anim.h ****  * First parameter is the variable to animate.
  50:Drivers/lvgl/src/extra/widgets/spinner/../../../../src/misc/lv_anim.h ****  * Second parameter is the value to set.
  51:Drivers/lvgl/src/extra/widgets/spinner/../../../../src/misc/lv_anim.h ****  * Compatible with `lv_xxx_set_yyy(obj, value)` functions
  52:Drivers/lvgl/src/extra/widgets/spinner/../../../../src/misc/lv_anim.h ****  * The `x` in `_xcb_t` means it's not a fully generic prototype because
  53:Drivers/lvgl/src/extra/widgets/spinner/../../../../src/misc/lv_anim.h ****  * it doesn't receive `lv_anim_t *` as its first argument*/
  54:Drivers/lvgl/src/extra/widgets/spinner/../../../../src/misc/lv_anim.h **** typedef void (*lv_anim_exec_xcb_t)(void *, int32_t);
  55:Drivers/lvgl/src/extra/widgets/spinner/../../../../src/misc/lv_anim.h **** 
  56:Drivers/lvgl/src/extra/widgets/spinner/../../../../src/misc/lv_anim.h **** /** Same as `lv_anim_exec_xcb_t` but receives `lv_anim_t *` as the first parameter.
  57:Drivers/lvgl/src/extra/widgets/spinner/../../../../src/misc/lv_anim.h ****  * It's more consistent but less convenient. Might be used by binding generator functions.*/
  58:Drivers/lvgl/src/extra/widgets/spinner/../../../../src/misc/lv_anim.h **** typedef void (*lv_anim_custom_exec_cb_t)(struct _lv_anim_t *, int32_t);
  59:Drivers/lvgl/src/extra/widgets/spinner/../../../../src/misc/lv_anim.h **** 
  60:Drivers/lvgl/src/extra/widgets/spinner/../../../../src/misc/lv_anim.h **** /** Callback to call when the animation is ready*/
  61:Drivers/lvgl/src/extra/widgets/spinner/../../../../src/misc/lv_anim.h **** typedef void (*lv_anim_ready_cb_t)(struct _lv_anim_t *);
  62:Drivers/lvgl/src/extra/widgets/spinner/../../../../src/misc/lv_anim.h **** 
  63:Drivers/lvgl/src/extra/widgets/spinner/../../../../src/misc/lv_anim.h **** /** Callback to call when the animation really stars (considering `delay`)*/
  64:Drivers/lvgl/src/extra/widgets/spinner/../../../../src/misc/lv_anim.h **** typedef void (*lv_anim_start_cb_t)(struct _lv_anim_t *);
  65:Drivers/lvgl/src/extra/widgets/spinner/../../../../src/misc/lv_anim.h **** 
  66:Drivers/lvgl/src/extra/widgets/spinner/../../../../src/misc/lv_anim.h **** /** Callback used when the animation values are relative to get the current value*/
  67:Drivers/lvgl/src/extra/widgets/spinner/../../../../src/misc/lv_anim.h **** typedef int32_t (*lv_anim_get_value_cb_t)(struct _lv_anim_t *);
  68:Drivers/lvgl/src/extra/widgets/spinner/../../../../src/misc/lv_anim.h **** 
  69:Drivers/lvgl/src/extra/widgets/spinner/../../../../src/misc/lv_anim.h **** /** Callback used when the animation is deleted*/
  70:Drivers/lvgl/src/extra/widgets/spinner/../../../../src/misc/lv_anim.h **** typedef void (*lv_anim_deleted_cb_t)(struct _lv_anim_t *);
  71:Drivers/lvgl/src/extra/widgets/spinner/../../../../src/misc/lv_anim.h **** 
  72:Drivers/lvgl/src/extra/widgets/spinner/../../../../src/misc/lv_anim.h **** /** Describes an animation*/
  73:Drivers/lvgl/src/extra/widgets/spinner/../../../../src/misc/lv_anim.h **** typedef struct _lv_anim_t {
  74:Drivers/lvgl/src/extra/widgets/spinner/../../../../src/misc/lv_anim.h ****     void * var;                          /**<Variable to animate*/
  75:Drivers/lvgl/src/extra/widgets/spinner/../../../../src/misc/lv_anim.h ****     lv_anim_exec_xcb_t exec_cb;          /**< Function to execute to animate*/
  76:Drivers/lvgl/src/extra/widgets/spinner/../../../../src/misc/lv_anim.h ****     lv_anim_start_cb_t start_cb;         /**< Call it when the animation is starts (considering `de
  77:Drivers/lvgl/src/extra/widgets/spinner/../../../../src/misc/lv_anim.h ****     lv_anim_ready_cb_t ready_cb;         /**< Call it when the animation is ready*/
  78:Drivers/lvgl/src/extra/widgets/spinner/../../../../src/misc/lv_anim.h ****     lv_anim_deleted_cb_t deleted_cb;     /**< Call it when the animation is deleted*/
  79:Drivers/lvgl/src/extra/widgets/spinner/../../../../src/misc/lv_anim.h ****     lv_anim_get_value_cb_t get_value_cb; /**< Get the current value in relative mode*/
  80:Drivers/lvgl/src/extra/widgets/spinner/../../../../src/misc/lv_anim.h **** #if LV_USE_USER_DATA
  81:Drivers/lvgl/src/extra/widgets/spinner/../../../../src/misc/lv_anim.h ****     void * user_data; /**< Custom user data*/
  82:Drivers/lvgl/src/extra/widgets/spinner/../../../../src/misc/lv_anim.h **** #endif
  83:Drivers/lvgl/src/extra/widgets/spinner/../../../../src/misc/lv_anim.h ****     lv_anim_path_cb_t path_cb;         /**< Describe the path (curve) of animations*/
  84:Drivers/lvgl/src/extra/widgets/spinner/../../../../src/misc/lv_anim.h ****     int32_t start_value;               /**< Start value*/
  85:Drivers/lvgl/src/extra/widgets/spinner/../../../../src/misc/lv_anim.h ****     int32_t current_value;             /**< Current value*/
  86:Drivers/lvgl/src/extra/widgets/spinner/../../../../src/misc/lv_anim.h ****     int32_t end_value;                 /**< End value*/
  87:Drivers/lvgl/src/extra/widgets/spinner/../../../../src/misc/lv_anim.h ****     int32_t time;                /**< Animation time in ms*/
  88:Drivers/lvgl/src/extra/widgets/spinner/../../../../src/misc/lv_anim.h ****     int32_t act_time;            /**< Current time in animation. Set to negative to make delay.*/
  89:Drivers/lvgl/src/extra/widgets/spinner/../../../../src/misc/lv_anim.h ****     uint32_t playback_delay;     /**< Wait before play back*/
ARM GAS  /var/folders/lp/x54gwt890xv47sdkqj1k04q40000gn/T//cccwpvLX.s 			page 5


  90:Drivers/lvgl/src/extra/widgets/spinner/../../../../src/misc/lv_anim.h ****     uint32_t playback_time;      /**< Duration of playback animation*/
  91:Drivers/lvgl/src/extra/widgets/spinner/../../../../src/misc/lv_anim.h ****     uint32_t repeat_delay;       /**< Wait before repeat*/
  92:Drivers/lvgl/src/extra/widgets/spinner/../../../../src/misc/lv_anim.h ****     uint16_t repeat_cnt;         /**< Repeat count for the animation*/
  93:Drivers/lvgl/src/extra/widgets/spinner/../../../../src/misc/lv_anim.h ****     uint8_t early_apply  : 1;    /**< 1: Apply start value immediately even is there is `delay`*/
  94:Drivers/lvgl/src/extra/widgets/spinner/../../../../src/misc/lv_anim.h **** 
  95:Drivers/lvgl/src/extra/widgets/spinner/../../../../src/misc/lv_anim.h ****     /*Animation system use these - user shouldn't set*/
  96:Drivers/lvgl/src/extra/widgets/spinner/../../../../src/misc/lv_anim.h ****     uint8_t playback_now : 1; /**< Play back is in progress*/
  97:Drivers/lvgl/src/extra/widgets/spinner/../../../../src/misc/lv_anim.h ****     uint8_t run_round : 1;    /**< Indicates the animation has run in this round*/
  98:Drivers/lvgl/src/extra/widgets/spinner/../../../../src/misc/lv_anim.h ****     uint8_t start_cb_called : 1;    /**< Indicates that the `start_cb` was already called*/
  99:Drivers/lvgl/src/extra/widgets/spinner/../../../../src/misc/lv_anim.h **** } lv_anim_t;
 100:Drivers/lvgl/src/extra/widgets/spinner/../../../../src/misc/lv_anim.h **** 
 101:Drivers/lvgl/src/extra/widgets/spinner/../../../../src/misc/lv_anim.h **** /**********************
 102:Drivers/lvgl/src/extra/widgets/spinner/../../../../src/misc/lv_anim.h ****  * GLOBAL PROTOTYPES
 103:Drivers/lvgl/src/extra/widgets/spinner/../../../../src/misc/lv_anim.h ****  **********************/
 104:Drivers/lvgl/src/extra/widgets/spinner/../../../../src/misc/lv_anim.h **** 
 105:Drivers/lvgl/src/extra/widgets/spinner/../../../../src/misc/lv_anim.h **** /**
 106:Drivers/lvgl/src/extra/widgets/spinner/../../../../src/misc/lv_anim.h ****  * Init. the animation module
 107:Drivers/lvgl/src/extra/widgets/spinner/../../../../src/misc/lv_anim.h ****  */
 108:Drivers/lvgl/src/extra/widgets/spinner/../../../../src/misc/lv_anim.h **** void _lv_anim_core_init(void);
 109:Drivers/lvgl/src/extra/widgets/spinner/../../../../src/misc/lv_anim.h **** 
 110:Drivers/lvgl/src/extra/widgets/spinner/../../../../src/misc/lv_anim.h **** /**
 111:Drivers/lvgl/src/extra/widgets/spinner/../../../../src/misc/lv_anim.h ****  * Initialize an animation variable.
 112:Drivers/lvgl/src/extra/widgets/spinner/../../../../src/misc/lv_anim.h ****  * E.g.:
 113:Drivers/lvgl/src/extra/widgets/spinner/../../../../src/misc/lv_anim.h ****  * lv_anim_t a;
 114:Drivers/lvgl/src/extra/widgets/spinner/../../../../src/misc/lv_anim.h ****  * lv_anim_init(&a);
 115:Drivers/lvgl/src/extra/widgets/spinner/../../../../src/misc/lv_anim.h ****  * lv_anim_set_...(&a);
 116:Drivers/lvgl/src/extra/widgets/spinner/../../../../src/misc/lv_anim.h ****  * lv_anim_start(&a);
 117:Drivers/lvgl/src/extra/widgets/spinner/../../../../src/misc/lv_anim.h ****  * @param a     pointer to an `lv_anim_t` variable to initialize
 118:Drivers/lvgl/src/extra/widgets/spinner/../../../../src/misc/lv_anim.h ****  */
 119:Drivers/lvgl/src/extra/widgets/spinner/../../../../src/misc/lv_anim.h **** void lv_anim_init(lv_anim_t * a);
 120:Drivers/lvgl/src/extra/widgets/spinner/../../../../src/misc/lv_anim.h **** 
 121:Drivers/lvgl/src/extra/widgets/spinner/../../../../src/misc/lv_anim.h **** /**
 122:Drivers/lvgl/src/extra/widgets/spinner/../../../../src/misc/lv_anim.h ****  * Set a variable to animate
 123:Drivers/lvgl/src/extra/widgets/spinner/../../../../src/misc/lv_anim.h ****  * @param a     pointer to an initialized `lv_anim_t` variable
 124:Drivers/lvgl/src/extra/widgets/spinner/../../../../src/misc/lv_anim.h ****  * @param var   pointer to a variable to animate
 125:Drivers/lvgl/src/extra/widgets/spinner/../../../../src/misc/lv_anim.h ****  */
 126:Drivers/lvgl/src/extra/widgets/spinner/../../../../src/misc/lv_anim.h **** static inline void lv_anim_set_var(lv_anim_t * a, void * var)
  64              		.loc 2 126 20 view .LVU11
  65              	.LBB19:
 127:Drivers/lvgl/src/extra/widgets/spinner/../../../../src/misc/lv_anim.h **** {
 128:Drivers/lvgl/src/extra/widgets/spinner/../../../../src/misc/lv_anim.h ****     a->var = var;
  66              		.loc 2 128 5 view .LVU12
  67              	.LBE19:
  68              	.LBE18:
  77:Drivers/lvgl/src/extra/widgets/spinner/lv_spinner.c ****     lv_anim_set_exec_cb(&a, arc_anim_end_angle);
  78:Drivers/lvgl/src/extra/widgets/spinner/lv_spinner.c ****     lv_anim_set_repeat_count(&a, LV_ANIM_REPEAT_INFINITE);
  79:Drivers/lvgl/src/extra/widgets/spinner/lv_spinner.c ****     lv_anim_set_time(&a, time_param);
  80:Drivers/lvgl/src/extra/widgets/spinner/lv_spinner.c ****     lv_anim_set_values(&a, arc_length_param, 360 + arc_length_param);
  69              		.loc 1 80 5 is_stmt 0 view .LVU13
  70 0014 164B     		ldr	r3, .L4
  79:Drivers/lvgl/src/extra/widgets/spinner/lv_spinner.c ****     lv_anim_set_values(&a, arc_length_param, 360 + arc_length_param);
  71              		.loc 1 79 5 view .LVU14
  72 0016 174A     		ldr	r2, .L4+4
  73              		.loc 1 80 5 view .LVU15
  74 0018 1B68     		ldr	r3, [r3]
  75              	.LBB20:
  76              	.LBB21:
ARM GAS  /var/folders/lp/x54gwt890xv47sdkqj1k04q40000gn/T//cccwpvLX.s 			page 6


 129:Drivers/lvgl/src/extra/widgets/spinner/../../../../src/misc/lv_anim.h **** }
 130:Drivers/lvgl/src/extra/widgets/spinner/../../../../src/misc/lv_anim.h **** 
 131:Drivers/lvgl/src/extra/widgets/spinner/../../../../src/misc/lv_anim.h **** /**
 132:Drivers/lvgl/src/extra/widgets/spinner/../../../../src/misc/lv_anim.h ****  * Set a function to animate `var`
 133:Drivers/lvgl/src/extra/widgets/spinner/../../../../src/misc/lv_anim.h ****  * @param a         pointer to an initialized `lv_anim_t` variable
 134:Drivers/lvgl/src/extra/widgets/spinner/../../../../src/misc/lv_anim.h ****  * @param exec_cb   a function to execute during animation
 135:Drivers/lvgl/src/extra/widgets/spinner/../../../../src/misc/lv_anim.h ****  *                  LVGL's built-in functions can be used.
 136:Drivers/lvgl/src/extra/widgets/spinner/../../../../src/misc/lv_anim.h ****  *                  E.g. lv_obj_set_x
 137:Drivers/lvgl/src/extra/widgets/spinner/../../../../src/misc/lv_anim.h ****  */
 138:Drivers/lvgl/src/extra/widgets/spinner/../../../../src/misc/lv_anim.h **** static inline void lv_anim_set_exec_cb(lv_anim_t * a, lv_anim_exec_xcb_t exec_cb)
 139:Drivers/lvgl/src/extra/widgets/spinner/../../../../src/misc/lv_anim.h **** {
 140:Drivers/lvgl/src/extra/widgets/spinner/../../../../src/misc/lv_anim.h ****     a->exec_cb = exec_cb;
  77              		.loc 2 140 16 view .LVU16
  78 001a 1749     		ldr	r1, .L4+8
  79              	.LBE21:
  80              	.LBE20:
  81              	.LBB23:
  82              	.LBB24:
 141:Drivers/lvgl/src/extra/widgets/spinner/../../../../src/misc/lv_anim.h **** }
 142:Drivers/lvgl/src/extra/widgets/spinner/../../../../src/misc/lv_anim.h **** 
 143:Drivers/lvgl/src/extra/widgets/spinner/../../../../src/misc/lv_anim.h **** /**
 144:Drivers/lvgl/src/extra/widgets/spinner/../../../../src/misc/lv_anim.h ****  * Set the duration of an animation
 145:Drivers/lvgl/src/extra/widgets/spinner/../../../../src/misc/lv_anim.h ****  * @param a         pointer to an initialized `lv_anim_t` variable
 146:Drivers/lvgl/src/extra/widgets/spinner/../../../../src/misc/lv_anim.h ****  * @param duration  duration of the animation in milliseconds
 147:Drivers/lvgl/src/extra/widgets/spinner/../../../../src/misc/lv_anim.h ****  */
 148:Drivers/lvgl/src/extra/widgets/spinner/../../../../src/misc/lv_anim.h **** static inline void lv_anim_set_time(lv_anim_t * a, uint32_t duration)
 149:Drivers/lvgl/src/extra/widgets/spinner/../../../../src/misc/lv_anim.h **** {
 150:Drivers/lvgl/src/extra/widgets/spinner/../../../../src/misc/lv_anim.h ****     a->time = duration;
  83              		.loc 2 150 13 view .LVU17
  84 001c 1268     		ldr	r2, [r2]
  85 001e 0B92     		str	r2, [sp, #44]
  86              	.LBE24:
  87              	.LBE23:
  88              	.LBB26:
  89              	.LBB22:
 140:Drivers/lvgl/src/extra/widgets/spinner/../../../../src/misc/lv_anim.h **** }
  90              		.loc 2 140 16 view .LVU18
  91 0020 CDE90041 		strd	r4, r1, [sp]
  92              	.LBE22:
  93              	.LBE26:
  78:Drivers/lvgl/src/extra/widgets/spinner/lv_spinner.c ****     lv_anim_set_time(&a, time_param);
  94              		.loc 1 78 5 is_stmt 1 view .LVU19
  95              	.LVL5:
  96              	.LBB27:
  97              	.LBI27:
 151:Drivers/lvgl/src/extra/widgets/spinner/../../../../src/misc/lv_anim.h **** }
 152:Drivers/lvgl/src/extra/widgets/spinner/../../../../src/misc/lv_anim.h **** 
 153:Drivers/lvgl/src/extra/widgets/spinner/../../../../src/misc/lv_anim.h **** /**
 154:Drivers/lvgl/src/extra/widgets/spinner/../../../../src/misc/lv_anim.h ****  * Set a delay before starting the animation
 155:Drivers/lvgl/src/extra/widgets/spinner/../../../../src/misc/lv_anim.h ****  * @param a         pointer to an initialized `lv_anim_t` variable
 156:Drivers/lvgl/src/extra/widgets/spinner/../../../../src/misc/lv_anim.h ****  * @param delay     delay before the animation in milliseconds
 157:Drivers/lvgl/src/extra/widgets/spinner/../../../../src/misc/lv_anim.h ****  */
 158:Drivers/lvgl/src/extra/widgets/spinner/../../../../src/misc/lv_anim.h **** static inline void lv_anim_set_delay(lv_anim_t * a, uint32_t delay)
 159:Drivers/lvgl/src/extra/widgets/spinner/../../../../src/misc/lv_anim.h **** {
 160:Drivers/lvgl/src/extra/widgets/spinner/../../../../src/misc/lv_anim.h ****     a->act_time = -(int32_t)(delay);
 161:Drivers/lvgl/src/extra/widgets/spinner/../../../../src/misc/lv_anim.h **** }
 162:Drivers/lvgl/src/extra/widgets/spinner/../../../../src/misc/lv_anim.h **** 
ARM GAS  /var/folders/lp/x54gwt890xv47sdkqj1k04q40000gn/T//cccwpvLX.s 			page 7


 163:Drivers/lvgl/src/extra/widgets/spinner/../../../../src/misc/lv_anim.h **** /**
 164:Drivers/lvgl/src/extra/widgets/spinner/../../../../src/misc/lv_anim.h ****  * Set the start and end values of an animation
 165:Drivers/lvgl/src/extra/widgets/spinner/../../../../src/misc/lv_anim.h ****  * @param a         pointer to an initialized `lv_anim_t` variable
 166:Drivers/lvgl/src/extra/widgets/spinner/../../../../src/misc/lv_anim.h ****  * @param start     the start value
 167:Drivers/lvgl/src/extra/widgets/spinner/../../../../src/misc/lv_anim.h ****  * @param end       the end value
 168:Drivers/lvgl/src/extra/widgets/spinner/../../../../src/misc/lv_anim.h ****  */
 169:Drivers/lvgl/src/extra/widgets/spinner/../../../../src/misc/lv_anim.h **** static inline void lv_anim_set_values(lv_anim_t * a, int32_t start, int32_t end)
 170:Drivers/lvgl/src/extra/widgets/spinner/../../../../src/misc/lv_anim.h **** {
 171:Drivers/lvgl/src/extra/widgets/spinner/../../../../src/misc/lv_anim.h ****     a->start_value = start;
 172:Drivers/lvgl/src/extra/widgets/spinner/../../../../src/misc/lv_anim.h ****     a->current_value = start;
 173:Drivers/lvgl/src/extra/widgets/spinner/../../../../src/misc/lv_anim.h ****     a->end_value = end;
 174:Drivers/lvgl/src/extra/widgets/spinner/../../../../src/misc/lv_anim.h **** }
 175:Drivers/lvgl/src/extra/widgets/spinner/../../../../src/misc/lv_anim.h **** 
 176:Drivers/lvgl/src/extra/widgets/spinner/../../../../src/misc/lv_anim.h **** /**
 177:Drivers/lvgl/src/extra/widgets/spinner/../../../../src/misc/lv_anim.h ****  * Similar to `lv_anim_set_exec_cb` but `lv_anim_custom_exec_cb_t` receives
 178:Drivers/lvgl/src/extra/widgets/spinner/../../../../src/misc/lv_anim.h ****  * `lv_anim_t * ` as its first parameter instead of `void *`.
 179:Drivers/lvgl/src/extra/widgets/spinner/../../../../src/misc/lv_anim.h ****  * This function might be used when LVGL is bound to other languages because
 180:Drivers/lvgl/src/extra/widgets/spinner/../../../../src/misc/lv_anim.h ****  * it's more consistent to have `lv_anim_t *` as first parameter.
 181:Drivers/lvgl/src/extra/widgets/spinner/../../../../src/misc/lv_anim.h ****  * The variable to animate can be stored in the animation's `user_data`
 182:Drivers/lvgl/src/extra/widgets/spinner/../../../../src/misc/lv_anim.h ****  * @param a         pointer to an initialized `lv_anim_t` variable
 183:Drivers/lvgl/src/extra/widgets/spinner/../../../../src/misc/lv_anim.h ****  * @param exec_cb   a function to execute.
 184:Drivers/lvgl/src/extra/widgets/spinner/../../../../src/misc/lv_anim.h ****  */
 185:Drivers/lvgl/src/extra/widgets/spinner/../../../../src/misc/lv_anim.h **** static inline void lv_anim_set_custom_exec_cb(lv_anim_t * a, lv_anim_custom_exec_cb_t exec_cb)
 186:Drivers/lvgl/src/extra/widgets/spinner/../../../../src/misc/lv_anim.h **** {
 187:Drivers/lvgl/src/extra/widgets/spinner/../../../../src/misc/lv_anim.h ****     a->var     = a;
 188:Drivers/lvgl/src/extra/widgets/spinner/../../../../src/misc/lv_anim.h ****     a->exec_cb = (lv_anim_exec_xcb_t)exec_cb;
 189:Drivers/lvgl/src/extra/widgets/spinner/../../../../src/misc/lv_anim.h **** }
 190:Drivers/lvgl/src/extra/widgets/spinner/../../../../src/misc/lv_anim.h **** 
 191:Drivers/lvgl/src/extra/widgets/spinner/../../../../src/misc/lv_anim.h **** /**
 192:Drivers/lvgl/src/extra/widgets/spinner/../../../../src/misc/lv_anim.h ****  * Set the path (curve) of the animation.
 193:Drivers/lvgl/src/extra/widgets/spinner/../../../../src/misc/lv_anim.h ****  * @param a         pointer to an initialized `lv_anim_t` variable
 194:Drivers/lvgl/src/extra/widgets/spinner/../../../../src/misc/lv_anim.h ****  * @param path_cb a function to set the current value of the animation.
 195:Drivers/lvgl/src/extra/widgets/spinner/../../../../src/misc/lv_anim.h ****  */
 196:Drivers/lvgl/src/extra/widgets/spinner/../../../../src/misc/lv_anim.h **** static inline void lv_anim_set_path_cb(lv_anim_t * a, lv_anim_path_cb_t path_cb)
 197:Drivers/lvgl/src/extra/widgets/spinner/../../../../src/misc/lv_anim.h **** {
 198:Drivers/lvgl/src/extra/widgets/spinner/../../../../src/misc/lv_anim.h ****     a->path_cb = path_cb;
 199:Drivers/lvgl/src/extra/widgets/spinner/../../../../src/misc/lv_anim.h **** }
 200:Drivers/lvgl/src/extra/widgets/spinner/../../../../src/misc/lv_anim.h **** 
 201:Drivers/lvgl/src/extra/widgets/spinner/../../../../src/misc/lv_anim.h **** /**
 202:Drivers/lvgl/src/extra/widgets/spinner/../../../../src/misc/lv_anim.h ****  * Set a function call when the animation really starts (considering `delay`)
 203:Drivers/lvgl/src/extra/widgets/spinner/../../../../src/misc/lv_anim.h ****  * @param a         pointer to an initialized `lv_anim_t` variable
 204:Drivers/lvgl/src/extra/widgets/spinner/../../../../src/misc/lv_anim.h ****  * @param start_cb  a function call when the animation starts
 205:Drivers/lvgl/src/extra/widgets/spinner/../../../../src/misc/lv_anim.h ****  */
 206:Drivers/lvgl/src/extra/widgets/spinner/../../../../src/misc/lv_anim.h **** static inline void lv_anim_set_start_cb(lv_anim_t * a, lv_anim_start_cb_t start_cb)
 207:Drivers/lvgl/src/extra/widgets/spinner/../../../../src/misc/lv_anim.h **** {
 208:Drivers/lvgl/src/extra/widgets/spinner/../../../../src/misc/lv_anim.h ****     a->start_cb = start_cb;
 209:Drivers/lvgl/src/extra/widgets/spinner/../../../../src/misc/lv_anim.h **** }
 210:Drivers/lvgl/src/extra/widgets/spinner/../../../../src/misc/lv_anim.h **** 
 211:Drivers/lvgl/src/extra/widgets/spinner/../../../../src/misc/lv_anim.h **** /**
 212:Drivers/lvgl/src/extra/widgets/spinner/../../../../src/misc/lv_anim.h ****  * Set a function to use the current value of the variable and make start and end value
 213:Drivers/lvgl/src/extra/widgets/spinner/../../../../src/misc/lv_anim.h ****  * relative to the returned current value.
 214:Drivers/lvgl/src/extra/widgets/spinner/../../../../src/misc/lv_anim.h ****  * @param a             pointer to an initialized `lv_anim_t` variable
 215:Drivers/lvgl/src/extra/widgets/spinner/../../../../src/misc/lv_anim.h ****  * @param get_value_cb  a function call when the animation starts
 216:Drivers/lvgl/src/extra/widgets/spinner/../../../../src/misc/lv_anim.h ****  */
 217:Drivers/lvgl/src/extra/widgets/spinner/../../../../src/misc/lv_anim.h **** static inline void lv_anim_set_get_value_cb(lv_anim_t * a, lv_anim_get_value_cb_t get_value_cb)
 218:Drivers/lvgl/src/extra/widgets/spinner/../../../../src/misc/lv_anim.h **** {
 219:Drivers/lvgl/src/extra/widgets/spinner/../../../../src/misc/lv_anim.h ****     a->get_value_cb = get_value_cb;
ARM GAS  /var/folders/lp/x54gwt890xv47sdkqj1k04q40000gn/T//cccwpvLX.s 			page 8


 220:Drivers/lvgl/src/extra/widgets/spinner/../../../../src/misc/lv_anim.h **** }
 221:Drivers/lvgl/src/extra/widgets/spinner/../../../../src/misc/lv_anim.h **** 
 222:Drivers/lvgl/src/extra/widgets/spinner/../../../../src/misc/lv_anim.h **** /**
 223:Drivers/lvgl/src/extra/widgets/spinner/../../../../src/misc/lv_anim.h ****  * Set a function call when the animation is ready
 224:Drivers/lvgl/src/extra/widgets/spinner/../../../../src/misc/lv_anim.h ****  * @param a         pointer to an initialized `lv_anim_t` variable
 225:Drivers/lvgl/src/extra/widgets/spinner/../../../../src/misc/lv_anim.h ****  * @param ready_cb  a function call when the animation is ready
 226:Drivers/lvgl/src/extra/widgets/spinner/../../../../src/misc/lv_anim.h ****  */
 227:Drivers/lvgl/src/extra/widgets/spinner/../../../../src/misc/lv_anim.h **** static inline void lv_anim_set_ready_cb(lv_anim_t * a, lv_anim_ready_cb_t ready_cb)
 228:Drivers/lvgl/src/extra/widgets/spinner/../../../../src/misc/lv_anim.h **** {
 229:Drivers/lvgl/src/extra/widgets/spinner/../../../../src/misc/lv_anim.h ****     a->ready_cb = ready_cb;
 230:Drivers/lvgl/src/extra/widgets/spinner/../../../../src/misc/lv_anim.h **** }
 231:Drivers/lvgl/src/extra/widgets/spinner/../../../../src/misc/lv_anim.h **** 
 232:Drivers/lvgl/src/extra/widgets/spinner/../../../../src/misc/lv_anim.h **** /**
 233:Drivers/lvgl/src/extra/widgets/spinner/../../../../src/misc/lv_anim.h ****  * Set a function call when the animation is deleted.
 234:Drivers/lvgl/src/extra/widgets/spinner/../../../../src/misc/lv_anim.h ****  * @param a         pointer to an initialized `lv_anim_t` variable
 235:Drivers/lvgl/src/extra/widgets/spinner/../../../../src/misc/lv_anim.h ****  * @param deleted_cb  a function call when the animation is deleted
 236:Drivers/lvgl/src/extra/widgets/spinner/../../../../src/misc/lv_anim.h ****  */
 237:Drivers/lvgl/src/extra/widgets/spinner/../../../../src/misc/lv_anim.h **** static inline void lv_anim_set_deleted_cb(lv_anim_t * a, lv_anim_deleted_cb_t deleted_cb)
 238:Drivers/lvgl/src/extra/widgets/spinner/../../../../src/misc/lv_anim.h **** {
 239:Drivers/lvgl/src/extra/widgets/spinner/../../../../src/misc/lv_anim.h ****     a->deleted_cb = deleted_cb;
 240:Drivers/lvgl/src/extra/widgets/spinner/../../../../src/misc/lv_anim.h **** }
 241:Drivers/lvgl/src/extra/widgets/spinner/../../../../src/misc/lv_anim.h **** 
 242:Drivers/lvgl/src/extra/widgets/spinner/../../../../src/misc/lv_anim.h **** /**
 243:Drivers/lvgl/src/extra/widgets/spinner/../../../../src/misc/lv_anim.h ****  * Make the animation to play back to when the forward direction is ready
 244:Drivers/lvgl/src/extra/widgets/spinner/../../../../src/misc/lv_anim.h ****  * @param a         pointer to an initialized `lv_anim_t` variable
 245:Drivers/lvgl/src/extra/widgets/spinner/../../../../src/misc/lv_anim.h ****  * @param time      the duration of the playback animation in milliseconds. 0: disable playback
 246:Drivers/lvgl/src/extra/widgets/spinner/../../../../src/misc/lv_anim.h ****  */
 247:Drivers/lvgl/src/extra/widgets/spinner/../../../../src/misc/lv_anim.h **** static inline void lv_anim_set_playback_time(lv_anim_t * a, uint32_t time)
 248:Drivers/lvgl/src/extra/widgets/spinner/../../../../src/misc/lv_anim.h **** {
 249:Drivers/lvgl/src/extra/widgets/spinner/../../../../src/misc/lv_anim.h ****     a->playback_time = time;
 250:Drivers/lvgl/src/extra/widgets/spinner/../../../../src/misc/lv_anim.h **** }
 251:Drivers/lvgl/src/extra/widgets/spinner/../../../../src/misc/lv_anim.h **** 
 252:Drivers/lvgl/src/extra/widgets/spinner/../../../../src/misc/lv_anim.h **** /**
 253:Drivers/lvgl/src/extra/widgets/spinner/../../../../src/misc/lv_anim.h ****  * Make the animation to play back to when the forward direction is ready
 254:Drivers/lvgl/src/extra/widgets/spinner/../../../../src/misc/lv_anim.h ****  * @param a         pointer to an initialized `lv_anim_t` variable
 255:Drivers/lvgl/src/extra/widgets/spinner/../../../../src/misc/lv_anim.h ****  * @param delay     delay in milliseconds before starting the playback animation.
 256:Drivers/lvgl/src/extra/widgets/spinner/../../../../src/misc/lv_anim.h ****  */
 257:Drivers/lvgl/src/extra/widgets/spinner/../../../../src/misc/lv_anim.h **** static inline void lv_anim_set_playback_delay(lv_anim_t * a, uint32_t delay)
 258:Drivers/lvgl/src/extra/widgets/spinner/../../../../src/misc/lv_anim.h **** {
 259:Drivers/lvgl/src/extra/widgets/spinner/../../../../src/misc/lv_anim.h ****     a->playback_delay = delay;
 260:Drivers/lvgl/src/extra/widgets/spinner/../../../../src/misc/lv_anim.h **** }
 261:Drivers/lvgl/src/extra/widgets/spinner/../../../../src/misc/lv_anim.h **** 
 262:Drivers/lvgl/src/extra/widgets/spinner/../../../../src/misc/lv_anim.h **** /**
 263:Drivers/lvgl/src/extra/widgets/spinner/../../../../src/misc/lv_anim.h ****  * Make the animation repeat itself.
 264:Drivers/lvgl/src/extra/widgets/spinner/../../../../src/misc/lv_anim.h ****  * @param a         pointer to an initialized `lv_anim_t` variable
 265:Drivers/lvgl/src/extra/widgets/spinner/../../../../src/misc/lv_anim.h ****  * @param cnt       repeat count or `LV_ANIM_REPEAT_INFINITE` for infinite repetition. 0: to disabl
 266:Drivers/lvgl/src/extra/widgets/spinner/../../../../src/misc/lv_anim.h ****  */
 267:Drivers/lvgl/src/extra/widgets/spinner/../../../../src/misc/lv_anim.h **** static inline void lv_anim_set_repeat_count(lv_anim_t * a, uint16_t cnt)
  98              		.loc 2 267 20 view .LVU20
  99              	.LBB28:
 268:Drivers/lvgl/src/extra/widgets/spinner/../../../../src/misc/lv_anim.h **** {
 269:Drivers/lvgl/src/extra/widgets/spinner/../../../../src/misc/lv_anim.h ****     a->repeat_cnt = cnt;
 100              		.loc 2 269 5 view .LVU21
 101              	.LBE28:
 102              	.LBE27:
 103              		.loc 1 80 50 is_stmt 0 view .LVU22
 104 0024 03F5B472 		add	r2, r3, #360
ARM GAS  /var/folders/lp/x54gwt890xv47sdkqj1k04q40000gn/T//cccwpvLX.s 			page 9


 105              	.LBB31:
 106              	.LBB29:
 107              		.loc 2 269 19 view .LVU23
 108 0028 4FF6FF71 		movw	r1, #65535
 109              	.LBE29:
 110              	.LBE31:
  81:Drivers/lvgl/src/extra/widgets/spinner/lv_spinner.c ****     lv_anim_start(&a);
 111              		.loc 1 81 5 view .LVU24
 112 002c 6846     		mov	r0, sp
 113              	.LBB32:
 114              	.LBB33:
 172:Drivers/lvgl/src/extra/widgets/spinner/../../../../src/misc/lv_anim.h ****     a->end_value = end;
 115              		.loc 2 172 22 view .LVU25
 116 002e CDE90833 		strd	r3, r3, [sp, #32]
 117              	.LBE33:
 118              	.LBE32:
 119              	.LBB35:
 120              	.LBB30:
 121              		.loc 2 269 19 view .LVU26
 122 0032 ADF84010 		strh	r1, [sp, #64]	@ movhi
 123              	.LVL6:
 124              		.loc 2 269 19 view .LVU27
 125              	.LBE30:
 126              	.LBE35:
  79:Drivers/lvgl/src/extra/widgets/spinner/lv_spinner.c ****     lv_anim_set_values(&a, arc_length_param, 360 + arc_length_param);
 127              		.loc 1 79 5 is_stmt 1 view .LVU28
 128              	.LBB36:
 129              	.LBI23:
 148:Drivers/lvgl/src/extra/widgets/spinner/../../../../src/misc/lv_anim.h **** {
 130              		.loc 2 148 20 view .LVU29
 131              	.LBB25:
 150:Drivers/lvgl/src/extra/widgets/spinner/../../../../src/misc/lv_anim.h **** }
 132              		.loc 2 150 5 view .LVU30
 150:Drivers/lvgl/src/extra/widgets/spinner/../../../../src/misc/lv_anim.h **** }
 133              		.loc 2 150 5 is_stmt 0 view .LVU31
 134              	.LBE25:
 135              	.LBE36:
  80:Drivers/lvgl/src/extra/widgets/spinner/lv_spinner.c ****     lv_anim_start(&a);
 136              		.loc 1 80 5 is_stmt 1 view .LVU32
 137              	.LBB37:
 138              	.LBI32:
 169:Drivers/lvgl/src/extra/widgets/spinner/../../../../src/misc/lv_anim.h **** {
 139              		.loc 2 169 20 view .LVU33
 140              	.LBB34:
 171:Drivers/lvgl/src/extra/widgets/spinner/../../../../src/misc/lv_anim.h ****     a->current_value = start;
 141              		.loc 2 171 5 view .LVU34
 173:Drivers/lvgl/src/extra/widgets/spinner/../../../../src/misc/lv_anim.h **** }
 142              		.loc 2 173 5 view .LVU35
 173:Drivers/lvgl/src/extra/widgets/spinner/../../../../src/misc/lv_anim.h **** }
 143              		.loc 2 173 18 is_stmt 0 view .LVU36
 144 0036 0A92     		str	r2, [sp, #40]
 145              	.LVL7:
 173:Drivers/lvgl/src/extra/widgets/spinner/../../../../src/misc/lv_anim.h **** }
 146              		.loc 2 173 18 view .LVU37
 147              	.LBE34:
 148              	.LBE37:
 149              		.loc 1 81 5 is_stmt 1 view .LVU38
ARM GAS  /var/folders/lp/x54gwt890xv47sdkqj1k04q40000gn/T//cccwpvLX.s 			page 10


 150 0038 FFF7FEFF 		bl	lv_anim_start
 151              	.LVL8:
  82:Drivers/lvgl/src/extra/widgets/spinner/lv_spinner.c **** 
  83:Drivers/lvgl/src/extra/widgets/spinner/lv_spinner.c ****     lv_anim_set_path_cb(&a, lv_anim_path_ease_in_out);
 152              		.loc 1 83 5 view .LVU39
 153              	.LBB38:
 154              	.LBI38:
 196:Drivers/lvgl/src/extra/widgets/spinner/../../../../src/misc/lv_anim.h **** {
 155              		.loc 2 196 20 view .LVU40
 156              	.LBB39:
 198:Drivers/lvgl/src/extra/widgets/spinner/../../../../src/misc/lv_anim.h **** }
 157              		.loc 2 198 5 view .LVU41
 158              	.LBE39:
 159              	.LBE38:
 160              	.LBB42:
 161              	.LBB43:
 171:Drivers/lvgl/src/extra/widgets/spinner/../../../../src/misc/lv_anim.h ****     a->current_value = start;
 162              		.loc 2 171 20 is_stmt 0 view .LVU42
 163 003c 0021     		movs	r1, #0
 164 003e 0020     		movs	r0, #0
 165              	.LBE43:
 166              	.LBE42:
 167              	.LBB46:
 168              	.LBB47:
 140:Drivers/lvgl/src/extra/widgets/spinner/../../../../src/misc/lv_anim.h **** }
 169              		.loc 2 140 16 view .LVU43
 170 0040 0E4B     		ldr	r3, .L4+12
 171              	.LBE47:
 172              	.LBE46:
 173              	.LBB50:
 174              	.LBB40:
 198:Drivers/lvgl/src/extra/widgets/spinner/../../../../src/misc/lv_anim.h **** }
 175              		.loc 2 198 16 view .LVU44
 176 0042 0F4A     		ldr	r2, .L4+16
 177              	.LBE40:
 178              	.LBE50:
 179              	.LBB51:
 180              	.LBB48:
 140:Drivers/lvgl/src/extra/widgets/spinner/../../../../src/misc/lv_anim.h **** }
 181              		.loc 2 140 16 view .LVU45
 182 0044 0193     		str	r3, [sp, #4]
 183              	.LBE48:
 184              	.LBE51:
 185              	.LBB52:
 186              	.LBB44:
 171:Drivers/lvgl/src/extra/widgets/spinner/../../../../src/misc/lv_anim.h ****     a->current_value = start;
 187              		.loc 2 171 20 view .LVU46
 188 0046 CDE90801 		strd	r0, [sp, #32]
 173:Drivers/lvgl/src/extra/widgets/spinner/../../../../src/misc/lv_anim.h **** }
 189              		.loc 2 173 18 view .LVU47
 190 004a 4FF4B475 		mov	r5, #360
 191              	.LBE44:
 192              	.LBE52:
  84:Drivers/lvgl/src/extra/widgets/spinner/lv_spinner.c ****     lv_anim_set_values(&a, 0, 360);
  85:Drivers/lvgl/src/extra/widgets/spinner/lv_spinner.c ****     lv_anim_set_exec_cb(&a, arc_anim_start_angle);
  86:Drivers/lvgl/src/extra/widgets/spinner/lv_spinner.c ****     lv_anim_start(&a);
 193              		.loc 1 86 5 view .LVU48
ARM GAS  /var/folders/lp/x54gwt890xv47sdkqj1k04q40000gn/T//cccwpvLX.s 			page 11


 194 004e 6846     		mov	r0, sp
 195              	.LBB53:
 196              	.LBB41:
 198:Drivers/lvgl/src/extra/widgets/spinner/../../../../src/misc/lv_anim.h **** }
 197              		.loc 2 198 16 view .LVU49
 198 0050 0792     		str	r2, [sp, #28]
 199              	.LVL9:
 198:Drivers/lvgl/src/extra/widgets/spinner/../../../../src/misc/lv_anim.h **** }
 200              		.loc 2 198 16 view .LVU50
 201              	.LBE41:
 202              	.LBE53:
  84:Drivers/lvgl/src/extra/widgets/spinner/lv_spinner.c ****     lv_anim_set_values(&a, 0, 360);
 203              		.loc 1 84 5 is_stmt 1 view .LVU51
 204              	.LBB54:
 205              	.LBI42:
 169:Drivers/lvgl/src/extra/widgets/spinner/../../../../src/misc/lv_anim.h **** {
 206              		.loc 2 169 20 view .LVU52
 207              	.LBB45:
 171:Drivers/lvgl/src/extra/widgets/spinner/../../../../src/misc/lv_anim.h ****     a->current_value = start;
 208              		.loc 2 171 5 view .LVU53
 172:Drivers/lvgl/src/extra/widgets/spinner/../../../../src/misc/lv_anim.h ****     a->end_value = end;
 209              		.loc 2 172 5 view .LVU54
 173:Drivers/lvgl/src/extra/widgets/spinner/../../../../src/misc/lv_anim.h **** }
 210              		.loc 2 173 5 view .LVU55
 173:Drivers/lvgl/src/extra/widgets/spinner/../../../../src/misc/lv_anim.h **** }
 211              		.loc 2 173 18 is_stmt 0 view .LVU56
 212 0052 0A95     		str	r5, [sp, #40]
 213              	.LVL10:
 173:Drivers/lvgl/src/extra/widgets/spinner/../../../../src/misc/lv_anim.h **** }
 214              		.loc 2 173 18 view .LVU57
 215              	.LBE45:
 216              	.LBE54:
  85:Drivers/lvgl/src/extra/widgets/spinner/lv_spinner.c ****     lv_anim_start(&a);
 217              		.loc 1 85 5 is_stmt 1 view .LVU58
 218              	.LBB55:
 219              	.LBI46:
 138:Drivers/lvgl/src/extra/widgets/spinner/../../../../src/misc/lv_anim.h **** {
 220              		.loc 2 138 20 view .LVU59
 221              	.LBB49:
 140:Drivers/lvgl/src/extra/widgets/spinner/../../../../src/misc/lv_anim.h **** }
 222              		.loc 2 140 5 view .LVU60
 140:Drivers/lvgl/src/extra/widgets/spinner/../../../../src/misc/lv_anim.h **** }
 223              		.loc 2 140 5 is_stmt 0 view .LVU61
 224              	.LBE49:
 225              	.LBE55:
 226              		.loc 1 86 5 is_stmt 1 view .LVU62
 227 0054 FFF7FEFF 		bl	lv_anim_start
 228              	.LVL11:
  87:Drivers/lvgl/src/extra/widgets/spinner/lv_spinner.c **** 
  88:Drivers/lvgl/src/extra/widgets/spinner/lv_spinner.c ****     lv_arc_set_bg_angles(obj, 0, 360);
 229              		.loc 1 88 5 view .LVU63
 230 0058 2A46     		mov	r2, r5
 231 005a 2046     		mov	r0, r4
 232 005c 0021     		movs	r1, #0
 233 005e FFF7FEFF 		bl	lv_arc_set_bg_angles
 234              	.LVL12:
  89:Drivers/lvgl/src/extra/widgets/spinner/lv_spinner.c ****     lv_arc_set_rotation(obj, 270);
ARM GAS  /var/folders/lp/x54gwt890xv47sdkqj1k04q40000gn/T//cccwpvLX.s 			page 12


 235              		.loc 1 89 5 view .LVU64
 236 0062 4FF48771 		mov	r1, #270
 237 0066 2046     		mov	r0, r4
 238 0068 FFF7FEFF 		bl	lv_arc_set_rotation
 239              	.LVL13:
  90:Drivers/lvgl/src/extra/widgets/spinner/lv_spinner.c **** }
 240              		.loc 1 90 1 is_stmt 0 view .LVU65
 241 006c 13B0     		add	sp, sp, #76
 242              		.cfi_def_cfa_offset 12
 243              	.LVL14:
 244              		.loc 1 90 1 view .LVU66
 245              		@ sp needed
 246 006e 30BD     		pop	{r4, r5, pc}
 247              	.LVL15:
 248              	.L5:
 249              		.loc 1 90 1 view .LVU67
 250              		.align	2
 251              	.L4:
 252 0070 00000000 		.word	arc_length_param
 253 0074 00000000 		.word	time_param
 254 0078 00000000 		.word	arc_anim_end_angle
 255 007c 00000000 		.word	arc_anim_start_angle
 256 0080 00000000 		.word	lv_anim_path_ease_in_out
 257              		.cfi_endproc
 258              	.LFE205:
 260              		.section	.text.arc_anim_start_angle,"ax",%progbits
 261              		.align	1
 262              		.p2align 2,,3
 263              		.syntax unified
 264              		.thumb
 265              		.thumb_func
 267              	arc_anim_start_angle:
 268              	.LVL16:
 269              	.LFB206:
  91:Drivers/lvgl/src/extra/widgets/spinner/lv_spinner.c **** 
  92:Drivers/lvgl/src/extra/widgets/spinner/lv_spinner.c **** 
  93:Drivers/lvgl/src/extra/widgets/spinner/lv_spinner.c **** static void arc_anim_start_angle(void * obj, int32_t v)
  94:Drivers/lvgl/src/extra/widgets/spinner/lv_spinner.c **** {
 270              		.loc 1 94 1 is_stmt 1 view -0
 271              		.cfi_startproc
 272              		@ args = 0, pretend = 0, frame = 0
 273              		@ frame_needed = 0, uses_anonymous_args = 0
 274              		@ link register save eliminated.
  95:Drivers/lvgl/src/extra/widgets/spinner/lv_spinner.c ****     lv_arc_set_start_angle(obj, (uint16_t) v);
 275              		.loc 1 95 5 view .LVU69
 276 0000 89B2     		uxth	r1, r1
 277              	.LVL17:
 278              		.loc 1 95 5 is_stmt 0 view .LVU70
 279 0002 FFF7FEBF 		b	lv_arc_set_start_angle
 280              	.LVL18:
 281              		.loc 1 95 5 view .LVU71
 282              		.cfi_endproc
 283              	.LFE206:
 285 0006 00BF     		.section	.text.arc_anim_end_angle,"ax",%progbits
 286              		.align	1
 287              		.p2align 2,,3
 288              		.syntax unified
ARM GAS  /var/folders/lp/x54gwt890xv47sdkqj1k04q40000gn/T//cccwpvLX.s 			page 13


 289              		.thumb
 290              		.thumb_func
 292              	arc_anim_end_angle:
 293              	.LVL19:
 294              	.LFB207:
  96:Drivers/lvgl/src/extra/widgets/spinner/lv_spinner.c **** }
  97:Drivers/lvgl/src/extra/widgets/spinner/lv_spinner.c **** 
  98:Drivers/lvgl/src/extra/widgets/spinner/lv_spinner.c **** 
  99:Drivers/lvgl/src/extra/widgets/spinner/lv_spinner.c **** static void arc_anim_end_angle(void * obj, int32_t v)
 100:Drivers/lvgl/src/extra/widgets/spinner/lv_spinner.c **** {
 295              		.loc 1 100 1 is_stmt 1 view -0
 296              		.cfi_startproc
 297              		@ args = 0, pretend = 0, frame = 0
 298              		@ frame_needed = 0, uses_anonymous_args = 0
 299              		@ link register save eliminated.
 101:Drivers/lvgl/src/extra/widgets/spinner/lv_spinner.c ****     lv_arc_set_end_angle(obj, (uint16_t) v);
 300              		.loc 1 101 5 view .LVU73
 301 0000 89B2     		uxth	r1, r1
 302              	.LVL20:
 303              		.loc 1 101 5 is_stmt 0 view .LVU74
 304 0002 FFF7FEBF 		b	lv_arc_set_end_angle
 305              	.LVL21:
 306              		.loc 1 101 5 view .LVU75
 307              		.cfi_endproc
 308              	.LFE207:
 310 0006 00BF     		.section	.text.lv_spinner_create,"ax",%progbits
 311              		.align	1
 312              		.p2align 2,,3
 313              		.global	lv_spinner_create
 314              		.syntax unified
 315              		.thumb
 316              		.thumb_func
 318              	lv_spinner_create:
 319              	.LVL22:
 320              	.LFB204:
  52:Drivers/lvgl/src/extra/widgets/spinner/lv_spinner.c ****     time_param = time;
 321              		.loc 1 52 1 is_stmt 1 view -0
 322              		.cfi_startproc
 323              		@ args = 0, pretend = 0, frame = 0
 324              		@ frame_needed = 0, uses_anonymous_args = 0
  53:Drivers/lvgl/src/extra/widgets/spinner/lv_spinner.c ****     arc_length_param = arc_length;
 325              		.loc 1 53 5 view .LVU77
  52:Drivers/lvgl/src/extra/widgets/spinner/lv_spinner.c ****     time_param = time;
 326              		.loc 1 52 1 is_stmt 0 view .LVU78
 327 0000 38B5     		push	{r3, r4, r5, lr}
 328              		.cfi_def_cfa_offset 16
 329              		.cfi_offset 3, -16
 330              		.cfi_offset 4, -12
 331              		.cfi_offset 5, -8
 332              		.cfi_offset 14, -4
  54:Drivers/lvgl/src/extra/widgets/spinner/lv_spinner.c **** 
 333              		.loc 1 54 22 view .LVU79
 334 0002 074B     		ldr	r3, .L10
  53:Drivers/lvgl/src/extra/widgets/spinner/lv_spinner.c ****     arc_length_param = arc_length;
 335              		.loc 1 53 16 view .LVU80
 336 0004 074C     		ldr	r4, .L10+4
  54:Drivers/lvgl/src/extra/widgets/spinner/lv_spinner.c **** 
ARM GAS  /var/folders/lp/x54gwt890xv47sdkqj1k04q40000gn/T//cccwpvLX.s 			page 14


 337              		.loc 1 54 22 view .LVU81
 338 0006 1A60     		str	r2, [r3]
  52:Drivers/lvgl/src/extra/widgets/spinner/lv_spinner.c ****     time_param = time;
 339              		.loc 1 52 1 view .LVU82
 340 0008 0D46     		mov	r5, r1
  56:Drivers/lvgl/src/extra/widgets/spinner/lv_spinner.c ****     lv_obj_class_init_obj(obj);
 341              		.loc 1 56 22 view .LVU83
 342 000a 0146     		mov	r1, r0
 343              	.LVL23:
  56:Drivers/lvgl/src/extra/widgets/spinner/lv_spinner.c ****     lv_obj_class_init_obj(obj);
 344              		.loc 1 56 22 view .LVU84
 345 000c 0648     		ldr	r0, .L10+8
 346              	.LVL24:
  53:Drivers/lvgl/src/extra/widgets/spinner/lv_spinner.c ****     arc_length_param = arc_length;
 347              		.loc 1 53 16 view .LVU85
 348 000e 2560     		str	r5, [r4]
  54:Drivers/lvgl/src/extra/widgets/spinner/lv_spinner.c **** 
 349              		.loc 1 54 5 is_stmt 1 view .LVU86
  56:Drivers/lvgl/src/extra/widgets/spinner/lv_spinner.c ****     lv_obj_class_init_obj(obj);
 350              		.loc 1 56 5 view .LVU87
  56:Drivers/lvgl/src/extra/widgets/spinner/lv_spinner.c ****     lv_obj_class_init_obj(obj);
 351              		.loc 1 56 22 is_stmt 0 view .LVU88
 352 0010 FFF7FEFF 		bl	lv_obj_class_create_obj
 353              	.LVL25:
  56:Drivers/lvgl/src/extra/widgets/spinner/lv_spinner.c ****     lv_obj_class_init_obj(obj);
 354              		.loc 1 56 22 view .LVU89
 355 0014 0446     		mov	r4, r0
 356              	.LVL26:
  57:Drivers/lvgl/src/extra/widgets/spinner/lv_spinner.c ****     return obj;
 357              		.loc 1 57 5 is_stmt 1 view .LVU90
 358 0016 FFF7FEFF 		bl	lv_obj_class_init_obj
 359              	.LVL27:
  58:Drivers/lvgl/src/extra/widgets/spinner/lv_spinner.c **** }
 360              		.loc 1 58 5 view .LVU91
  59:Drivers/lvgl/src/extra/widgets/spinner/lv_spinner.c **** 
 361              		.loc 1 59 1 is_stmt 0 view .LVU92
 362 001a 2046     		mov	r0, r4
 363 001c 38BD     		pop	{r3, r4, r5, pc}
 364              	.LVL28:
 365              	.L11:
  59:Drivers/lvgl/src/extra/widgets/spinner/lv_spinner.c **** 
 366              		.loc 1 59 1 view .LVU93
 367 001e 00BF     		.align	2
 368              	.L10:
 369 0020 00000000 		.word	arc_length_param
 370 0024 00000000 		.word	time_param
 371 0028 00000000 		.word	lv_spinner_class
 372              		.cfi_endproc
 373              	.LFE204:
 375              		.section	.bss.arc_length_param,"aw",%nobits
 376              		.align	2
 379              	arc_length_param:
 380 0000 00000000 		.space	4
 381              		.section	.bss.time_param,"aw",%nobits
 382              		.align	2
 385              	time_param:
 386 0000 00000000 		.space	4
ARM GAS  /var/folders/lp/x54gwt890xv47sdkqj1k04q40000gn/T//cccwpvLX.s 			page 15


 387              		.global	lv_spinner_class
 388              		.section	.rodata.lv_spinner_class,"a"
 389              		.align	2
 392              	lv_spinner_class:
 393 0000 00000000 		.word	lv_arc_class
 394 0004 00000000 		.word	lv_spinner_constructor
 395 0008 00000000 		.space	20
 395      00000000 
 395      00000000 
 395      00000000 
 395      00000000 
 396              		.text
 397              	.Letext0:
 398              		.file 3 "/Users/jr/Library/Application Support/Code/User/globalStorage/bmd.stm32-for-vscode/@xpack
 399              		.file 4 "/Users/jr/Library/Application Support/Code/User/globalStorage/bmd.stm32-for-vscode/@xpack
 400              		.file 5 "Drivers/lvgl/src/extra/widgets/spinner/../../../../src/hal/../draw/../misc/../font/../mis
 401              		.file 6 "Drivers/lvgl/src/extra/widgets/spinner/../../../../src/hal/../draw/../misc/lv_color.h"
 402              		.file 7 "Drivers/lvgl/src/extra/widgets/spinner/../../../../src/hal/../draw/../misc/lv_style.h"
 403              		.file 8 "Drivers/lvgl/src/extra/widgets/spinner/../../../../src/core/lv_obj.h"
 404              		.file 9 "Drivers/lvgl/src/extra/widgets/spinner/../../../../src/hal/../misc/lv_ll.h"
 405              		.file 10 "Drivers/lvgl/src/extra/widgets/spinner/../../../../src/core/lv_group.h"
 406              		.file 11 "Drivers/lvgl/src/extra/widgets/spinner/../../../../src/core/lv_obj_scroll.h"
 407              		.file 12 "Drivers/lvgl/src/extra/widgets/spinner/../../../../src/core/lv_obj_style.h"
 408              		.file 13 "Drivers/lvgl/src/extra/widgets/spinner/../../../../src/core/lv_obj_class.h"
 409              		.file 14 "Drivers/lvgl/src/extra/widgets/spinner/../../../../src/core/lv_event.h"
 410              		.file 15 "Drivers/lvgl/src/extra/widgets/spinner/../../../../src/widgets/lv_bar.h"
 411              		.file 16 "Drivers/lvgl/src/extra/widgets/spinner/../../../../src/extra/widgets/imgbtn/lv_imgbtn.h"
 412              		.file 17 "Drivers/lvgl/src/extra/widgets/spinner/../../../../src/widgets/lv_arc.h"
 413              		.file 18 "Drivers/lvgl/src/extra/widgets/spinner/lv_spinner.h"
ARM GAS  /var/folders/lp/x54gwt890xv47sdkqj1k04q40000gn/T//cccwpvLX.s 			page 16

