ARM GAS  /var/folders/0z/tsy30v1j4xl4_7kw94k978ww0000gn/T//ccqJTzTx.s 			page 1


   1              		.cpu cortex-m4
   2              		.arch armv7e-m
   3              		.fpu fpv4-sp-d16
   4              		.eabi_attribute 27, 1
   5              		.eabi_attribute 28, 1
   6              		.eabi_attribute 23, 1
   7              		.eabi_attribute 24, 1
   8              		.eabi_attribute 25, 1
   9              		.eabi_attribute 26, 1
  10              		.eabi_attribute 30, 2
  11              		.eabi_attribute 34, 1
  12              		.eabi_attribute 18, 4
  13              		.file	"lv_style_gen.c"
  14              		.text
  15              	.Ltext0:
  16              		.cfi_sections	.debug_frame
  17              		.section	.text.lv_style_set_width,"ax",%progbits
  18              		.align	1
  19              		.p2align 2,,3
  20              		.global	lv_style_set_width
  21              		.syntax unified
  22              		.thumb
  23              		.thumb_func
  25              	lv_style_set_width:
  26              	.LVL0:
  27              	.LFB54:
  28              		.file 1 "Drivers/lvgl/src/misc/lv_style_gen.c"
   1:Drivers/lvgl/src/misc/lv_style_gen.c **** #include "lv_style.h"
   2:Drivers/lvgl/src/misc/lv_style_gen.c **** 
   3:Drivers/lvgl/src/misc/lv_style_gen.c **** void lv_style_set_width(lv_style_t * style, lv_coord_t value)
   4:Drivers/lvgl/src/misc/lv_style_gen.c **** {
  29              		.loc 1 4 1 view -0
  30              		.cfi_startproc
  31              		@ args = 0, pretend = 0, frame = 0
  32              		@ frame_needed = 0, uses_anonymous_args = 0
  33              		@ link register save eliminated.
   5:Drivers/lvgl/src/misc/lv_style_gen.c ****     lv_style_value_t v = {
  34              		.loc 1 5 5 view .LVU1
   6:Drivers/lvgl/src/misc/lv_style_gen.c ****         .num = (int32_t)value
   7:Drivers/lvgl/src/misc/lv_style_gen.c ****     };
   8:Drivers/lvgl/src/misc/lv_style_gen.c ****     lv_style_set_prop(style, LV_STYLE_WIDTH, v);
  35              		.loc 1 8 5 view .LVU2
   4:Drivers/lvgl/src/misc/lv_style_gen.c ****     lv_style_value_t v = {
  36              		.loc 1 4 1 is_stmt 0 view .LVU3
  37 0000 0A46     		mov	r2, r1
  38              		.loc 1 8 5 view .LVU4
  39 0002 0121     		movs	r1, #1
  40              	.LVL1:
  41              		.loc 1 8 5 view .LVU5
  42 0004 FFF7FEBF 		b	lv_style_set_prop
  43              	.LVL2:
  44              		.loc 1 8 5 view .LVU6
  45              		.cfi_endproc
  46              	.LFE54:
  48              		.section	.text.lv_style_set_min_width,"ax",%progbits
  49              		.align	1
  50              		.p2align 2,,3
ARM GAS  /var/folders/0z/tsy30v1j4xl4_7kw94k978ww0000gn/T//ccqJTzTx.s 			page 2


  51              		.global	lv_style_set_min_width
  52              		.syntax unified
  53              		.thumb
  54              		.thumb_func
  56              	lv_style_set_min_width:
  57              	.LVL3:
  58              	.LFB55:
   9:Drivers/lvgl/src/misc/lv_style_gen.c **** }
  10:Drivers/lvgl/src/misc/lv_style_gen.c **** 
  11:Drivers/lvgl/src/misc/lv_style_gen.c **** void lv_style_set_min_width(lv_style_t * style, lv_coord_t value)
  12:Drivers/lvgl/src/misc/lv_style_gen.c **** {
  59              		.loc 1 12 1 is_stmt 1 view -0
  60              		.cfi_startproc
  61              		@ args = 0, pretend = 0, frame = 0
  62              		@ frame_needed = 0, uses_anonymous_args = 0
  63              		@ link register save eliminated.
  13:Drivers/lvgl/src/misc/lv_style_gen.c ****     lv_style_value_t v = {
  64              		.loc 1 13 5 view .LVU8
  14:Drivers/lvgl/src/misc/lv_style_gen.c ****         .num = (int32_t)value
  15:Drivers/lvgl/src/misc/lv_style_gen.c ****     };
  16:Drivers/lvgl/src/misc/lv_style_gen.c ****     lv_style_set_prop(style, LV_STYLE_MIN_WIDTH, v);
  65              		.loc 1 16 5 view .LVU9
  12:Drivers/lvgl/src/misc/lv_style_gen.c ****     lv_style_value_t v = {
  66              		.loc 1 12 1 is_stmt 0 view .LVU10
  67 0000 0A46     		mov	r2, r1
  68              		.loc 1 16 5 view .LVU11
  69 0002 0221     		movs	r1, #2
  70              	.LVL4:
  71              		.loc 1 16 5 view .LVU12
  72 0004 FFF7FEBF 		b	lv_style_set_prop
  73              	.LVL5:
  74              		.loc 1 16 5 view .LVU13
  75              		.cfi_endproc
  76              	.LFE55:
  78              		.section	.text.lv_style_set_max_width,"ax",%progbits
  79              		.align	1
  80              		.p2align 2,,3
  81              		.global	lv_style_set_max_width
  82              		.syntax unified
  83              		.thumb
  84              		.thumb_func
  86              	lv_style_set_max_width:
  87              	.LVL6:
  88              	.LFB56:
  17:Drivers/lvgl/src/misc/lv_style_gen.c **** }
  18:Drivers/lvgl/src/misc/lv_style_gen.c **** 
  19:Drivers/lvgl/src/misc/lv_style_gen.c **** void lv_style_set_max_width(lv_style_t * style, lv_coord_t value)
  20:Drivers/lvgl/src/misc/lv_style_gen.c **** {
  89              		.loc 1 20 1 is_stmt 1 view -0
  90              		.cfi_startproc
  91              		@ args = 0, pretend = 0, frame = 0
  92              		@ frame_needed = 0, uses_anonymous_args = 0
  93              		@ link register save eliminated.
  21:Drivers/lvgl/src/misc/lv_style_gen.c ****     lv_style_value_t v = {
  94              		.loc 1 21 5 view .LVU15
  22:Drivers/lvgl/src/misc/lv_style_gen.c ****         .num = (int32_t)value
  23:Drivers/lvgl/src/misc/lv_style_gen.c ****     };
ARM GAS  /var/folders/0z/tsy30v1j4xl4_7kw94k978ww0000gn/T//ccqJTzTx.s 			page 3


  24:Drivers/lvgl/src/misc/lv_style_gen.c ****     lv_style_set_prop(style, LV_STYLE_MAX_WIDTH, v);
  95              		.loc 1 24 5 view .LVU16
  20:Drivers/lvgl/src/misc/lv_style_gen.c ****     lv_style_value_t v = {
  96              		.loc 1 20 1 is_stmt 0 view .LVU17
  97 0000 0A46     		mov	r2, r1
  98              		.loc 1 24 5 view .LVU18
  99 0002 0321     		movs	r1, #3
 100              	.LVL7:
 101              		.loc 1 24 5 view .LVU19
 102 0004 FFF7FEBF 		b	lv_style_set_prop
 103              	.LVL8:
 104              		.loc 1 24 5 view .LVU20
 105              		.cfi_endproc
 106              	.LFE56:
 108              		.section	.text.lv_style_set_height,"ax",%progbits
 109              		.align	1
 110              		.p2align 2,,3
 111              		.global	lv_style_set_height
 112              		.syntax unified
 113              		.thumb
 114              		.thumb_func
 116              	lv_style_set_height:
 117              	.LVL9:
 118              	.LFB57:
  25:Drivers/lvgl/src/misc/lv_style_gen.c **** }
  26:Drivers/lvgl/src/misc/lv_style_gen.c **** 
  27:Drivers/lvgl/src/misc/lv_style_gen.c **** void lv_style_set_height(lv_style_t * style, lv_coord_t value)
  28:Drivers/lvgl/src/misc/lv_style_gen.c **** {
 119              		.loc 1 28 1 is_stmt 1 view -0
 120              		.cfi_startproc
 121              		@ args = 0, pretend = 0, frame = 0
 122              		@ frame_needed = 0, uses_anonymous_args = 0
 123              		@ link register save eliminated.
  29:Drivers/lvgl/src/misc/lv_style_gen.c ****     lv_style_value_t v = {
 124              		.loc 1 29 5 view .LVU22
  30:Drivers/lvgl/src/misc/lv_style_gen.c ****         .num = (int32_t)value
  31:Drivers/lvgl/src/misc/lv_style_gen.c ****     };
  32:Drivers/lvgl/src/misc/lv_style_gen.c ****     lv_style_set_prop(style, LV_STYLE_HEIGHT, v);
 125              		.loc 1 32 5 view .LVU23
  28:Drivers/lvgl/src/misc/lv_style_gen.c ****     lv_style_value_t v = {
 126              		.loc 1 28 1 is_stmt 0 view .LVU24
 127 0000 0A46     		mov	r2, r1
 128              		.loc 1 32 5 view .LVU25
 129 0002 0421     		movs	r1, #4
 130              	.LVL10:
 131              		.loc 1 32 5 view .LVU26
 132 0004 FFF7FEBF 		b	lv_style_set_prop
 133              	.LVL11:
 134              		.loc 1 32 5 view .LVU27
 135              		.cfi_endproc
 136              	.LFE57:
 138              		.section	.text.lv_style_set_min_height,"ax",%progbits
 139              		.align	1
 140              		.p2align 2,,3
 141              		.global	lv_style_set_min_height
 142              		.syntax unified
 143              		.thumb
ARM GAS  /var/folders/0z/tsy30v1j4xl4_7kw94k978ww0000gn/T//ccqJTzTx.s 			page 4


 144              		.thumb_func
 146              	lv_style_set_min_height:
 147              	.LVL12:
 148              	.LFB58:
  33:Drivers/lvgl/src/misc/lv_style_gen.c **** }
  34:Drivers/lvgl/src/misc/lv_style_gen.c **** 
  35:Drivers/lvgl/src/misc/lv_style_gen.c **** void lv_style_set_min_height(lv_style_t * style, lv_coord_t value)
  36:Drivers/lvgl/src/misc/lv_style_gen.c **** {
 149              		.loc 1 36 1 is_stmt 1 view -0
 150              		.cfi_startproc
 151              		@ args = 0, pretend = 0, frame = 0
 152              		@ frame_needed = 0, uses_anonymous_args = 0
 153              		@ link register save eliminated.
  37:Drivers/lvgl/src/misc/lv_style_gen.c ****     lv_style_value_t v = {
 154              		.loc 1 37 5 view .LVU29
  38:Drivers/lvgl/src/misc/lv_style_gen.c ****         .num = (int32_t)value
  39:Drivers/lvgl/src/misc/lv_style_gen.c ****     };
  40:Drivers/lvgl/src/misc/lv_style_gen.c ****     lv_style_set_prop(style, LV_STYLE_MIN_HEIGHT, v);
 155              		.loc 1 40 5 view .LVU30
  36:Drivers/lvgl/src/misc/lv_style_gen.c ****     lv_style_value_t v = {
 156              		.loc 1 36 1 is_stmt 0 view .LVU31
 157 0000 0A46     		mov	r2, r1
 158              		.loc 1 40 5 view .LVU32
 159 0002 0521     		movs	r1, #5
 160              	.LVL13:
 161              		.loc 1 40 5 view .LVU33
 162 0004 FFF7FEBF 		b	lv_style_set_prop
 163              	.LVL14:
 164              		.loc 1 40 5 view .LVU34
 165              		.cfi_endproc
 166              	.LFE58:
 168              		.section	.text.lv_style_set_max_height,"ax",%progbits
 169              		.align	1
 170              		.p2align 2,,3
 171              		.global	lv_style_set_max_height
 172              		.syntax unified
 173              		.thumb
 174              		.thumb_func
 176              	lv_style_set_max_height:
 177              	.LVL15:
 178              	.LFB59:
  41:Drivers/lvgl/src/misc/lv_style_gen.c **** }
  42:Drivers/lvgl/src/misc/lv_style_gen.c **** 
  43:Drivers/lvgl/src/misc/lv_style_gen.c **** void lv_style_set_max_height(lv_style_t * style, lv_coord_t value)
  44:Drivers/lvgl/src/misc/lv_style_gen.c **** {
 179              		.loc 1 44 1 is_stmt 1 view -0
 180              		.cfi_startproc
 181              		@ args = 0, pretend = 0, frame = 0
 182              		@ frame_needed = 0, uses_anonymous_args = 0
 183              		@ link register save eliminated.
  45:Drivers/lvgl/src/misc/lv_style_gen.c ****     lv_style_value_t v = {
 184              		.loc 1 45 5 view .LVU36
  46:Drivers/lvgl/src/misc/lv_style_gen.c ****         .num = (int32_t)value
  47:Drivers/lvgl/src/misc/lv_style_gen.c ****     };
  48:Drivers/lvgl/src/misc/lv_style_gen.c ****     lv_style_set_prop(style, LV_STYLE_MAX_HEIGHT, v);
 185              		.loc 1 48 5 view .LVU37
  44:Drivers/lvgl/src/misc/lv_style_gen.c ****     lv_style_value_t v = {
ARM GAS  /var/folders/0z/tsy30v1j4xl4_7kw94k978ww0000gn/T//ccqJTzTx.s 			page 5


 186              		.loc 1 44 1 is_stmt 0 view .LVU38
 187 0000 0A46     		mov	r2, r1
 188              		.loc 1 48 5 view .LVU39
 189 0002 0621     		movs	r1, #6
 190              	.LVL16:
 191              		.loc 1 48 5 view .LVU40
 192 0004 FFF7FEBF 		b	lv_style_set_prop
 193              	.LVL17:
 194              		.loc 1 48 5 view .LVU41
 195              		.cfi_endproc
 196              	.LFE59:
 198              		.section	.text.lv_style_set_x,"ax",%progbits
 199              		.align	1
 200              		.p2align 2,,3
 201              		.global	lv_style_set_x
 202              		.syntax unified
 203              		.thumb
 204              		.thumb_func
 206              	lv_style_set_x:
 207              	.LVL18:
 208              	.LFB60:
  49:Drivers/lvgl/src/misc/lv_style_gen.c **** }
  50:Drivers/lvgl/src/misc/lv_style_gen.c **** 
  51:Drivers/lvgl/src/misc/lv_style_gen.c **** void lv_style_set_x(lv_style_t * style, lv_coord_t value)
  52:Drivers/lvgl/src/misc/lv_style_gen.c **** {
 209              		.loc 1 52 1 is_stmt 1 view -0
 210              		.cfi_startproc
 211              		@ args = 0, pretend = 0, frame = 0
 212              		@ frame_needed = 0, uses_anonymous_args = 0
 213              		@ link register save eliminated.
  53:Drivers/lvgl/src/misc/lv_style_gen.c ****     lv_style_value_t v = {
 214              		.loc 1 53 5 view .LVU43
  54:Drivers/lvgl/src/misc/lv_style_gen.c ****         .num = (int32_t)value
  55:Drivers/lvgl/src/misc/lv_style_gen.c ****     };
  56:Drivers/lvgl/src/misc/lv_style_gen.c ****     lv_style_set_prop(style, LV_STYLE_X, v);
 215              		.loc 1 56 5 view .LVU44
  52:Drivers/lvgl/src/misc/lv_style_gen.c ****     lv_style_value_t v = {
 216              		.loc 1 52 1 is_stmt 0 view .LVU45
 217 0000 0A46     		mov	r2, r1
 218              		.loc 1 56 5 view .LVU46
 219 0002 0721     		movs	r1, #7
 220              	.LVL19:
 221              		.loc 1 56 5 view .LVU47
 222 0004 FFF7FEBF 		b	lv_style_set_prop
 223              	.LVL20:
 224              		.loc 1 56 5 view .LVU48
 225              		.cfi_endproc
 226              	.LFE60:
 228              		.section	.text.lv_style_set_y,"ax",%progbits
 229              		.align	1
 230              		.p2align 2,,3
 231              		.global	lv_style_set_y
 232              		.syntax unified
 233              		.thumb
 234              		.thumb_func
 236              	lv_style_set_y:
 237              	.LVL21:
ARM GAS  /var/folders/0z/tsy30v1j4xl4_7kw94k978ww0000gn/T//ccqJTzTx.s 			page 6


 238              	.LFB61:
  57:Drivers/lvgl/src/misc/lv_style_gen.c **** }
  58:Drivers/lvgl/src/misc/lv_style_gen.c **** 
  59:Drivers/lvgl/src/misc/lv_style_gen.c **** void lv_style_set_y(lv_style_t * style, lv_coord_t value)
  60:Drivers/lvgl/src/misc/lv_style_gen.c **** {
 239              		.loc 1 60 1 is_stmt 1 view -0
 240              		.cfi_startproc
 241              		@ args = 0, pretend = 0, frame = 0
 242              		@ frame_needed = 0, uses_anonymous_args = 0
 243              		@ link register save eliminated.
  61:Drivers/lvgl/src/misc/lv_style_gen.c ****     lv_style_value_t v = {
 244              		.loc 1 61 5 view .LVU50
  62:Drivers/lvgl/src/misc/lv_style_gen.c ****         .num = (int32_t)value
  63:Drivers/lvgl/src/misc/lv_style_gen.c ****     };
  64:Drivers/lvgl/src/misc/lv_style_gen.c ****     lv_style_set_prop(style, LV_STYLE_Y, v);
 245              		.loc 1 64 5 view .LVU51
  60:Drivers/lvgl/src/misc/lv_style_gen.c ****     lv_style_value_t v = {
 246              		.loc 1 60 1 is_stmt 0 view .LVU52
 247 0000 0A46     		mov	r2, r1
 248              		.loc 1 64 5 view .LVU53
 249 0002 0821     		movs	r1, #8
 250              	.LVL22:
 251              		.loc 1 64 5 view .LVU54
 252 0004 FFF7FEBF 		b	lv_style_set_prop
 253              	.LVL23:
 254              		.loc 1 64 5 view .LVU55
 255              		.cfi_endproc
 256              	.LFE61:
 258              		.section	.text.lv_style_set_align,"ax",%progbits
 259              		.align	1
 260              		.p2align 2,,3
 261              		.global	lv_style_set_align
 262              		.syntax unified
 263              		.thumb
 264              		.thumb_func
 266              	lv_style_set_align:
 267              	.LVL24:
 268              	.LFB62:
  65:Drivers/lvgl/src/misc/lv_style_gen.c **** }
  66:Drivers/lvgl/src/misc/lv_style_gen.c **** 
  67:Drivers/lvgl/src/misc/lv_style_gen.c **** void lv_style_set_align(lv_style_t * style, lv_align_t value)
  68:Drivers/lvgl/src/misc/lv_style_gen.c **** {
 269              		.loc 1 68 1 is_stmt 1 view -0
 270              		.cfi_startproc
 271              		@ args = 0, pretend = 0, frame = 0
 272              		@ frame_needed = 0, uses_anonymous_args = 0
 273              		@ link register save eliminated.
  69:Drivers/lvgl/src/misc/lv_style_gen.c ****     lv_style_value_t v = {
 274              		.loc 1 69 5 view .LVU57
  70:Drivers/lvgl/src/misc/lv_style_gen.c ****         .num = (int32_t)value
  71:Drivers/lvgl/src/misc/lv_style_gen.c ****     };
  72:Drivers/lvgl/src/misc/lv_style_gen.c ****     lv_style_set_prop(style, LV_STYLE_ALIGN, v);
 275              		.loc 1 72 5 view .LVU58
  68:Drivers/lvgl/src/misc/lv_style_gen.c ****     lv_style_value_t v = {
 276              		.loc 1 68 1 is_stmt 0 view .LVU59
 277 0000 0A46     		mov	r2, r1
 278              		.loc 1 72 5 view .LVU60
ARM GAS  /var/folders/0z/tsy30v1j4xl4_7kw94k978ww0000gn/T//ccqJTzTx.s 			page 7


 279 0002 0921     		movs	r1, #9
 280              	.LVL25:
 281              		.loc 1 72 5 view .LVU61
 282 0004 FFF7FEBF 		b	lv_style_set_prop
 283              	.LVL26:
 284              		.loc 1 72 5 view .LVU62
 285              		.cfi_endproc
 286              	.LFE62:
 288              		.section	.text.lv_style_set_transform_width,"ax",%progbits
 289              		.align	1
 290              		.p2align 2,,3
 291              		.global	lv_style_set_transform_width
 292              		.syntax unified
 293              		.thumb
 294              		.thumb_func
 296              	lv_style_set_transform_width:
 297              	.LVL27:
 298              	.LFB63:
  73:Drivers/lvgl/src/misc/lv_style_gen.c **** }
  74:Drivers/lvgl/src/misc/lv_style_gen.c **** 
  75:Drivers/lvgl/src/misc/lv_style_gen.c **** void lv_style_set_transform_width(lv_style_t * style, lv_coord_t value)
  76:Drivers/lvgl/src/misc/lv_style_gen.c **** {
 299              		.loc 1 76 1 is_stmt 1 view -0
 300              		.cfi_startproc
 301              		@ args = 0, pretend = 0, frame = 0
 302              		@ frame_needed = 0, uses_anonymous_args = 0
 303              		@ link register save eliminated.
  77:Drivers/lvgl/src/misc/lv_style_gen.c ****     lv_style_value_t v = {
 304              		.loc 1 77 5 view .LVU64
  78:Drivers/lvgl/src/misc/lv_style_gen.c ****         .num = (int32_t)value
  79:Drivers/lvgl/src/misc/lv_style_gen.c ****     };
  80:Drivers/lvgl/src/misc/lv_style_gen.c ****     lv_style_set_prop(style, LV_STYLE_TRANSFORM_WIDTH, v);
 305              		.loc 1 80 5 view .LVU65
  76:Drivers/lvgl/src/misc/lv_style_gen.c ****     lv_style_value_t v = {
 306              		.loc 1 76 1 is_stmt 0 view .LVU66
 307 0000 0A46     		mov	r2, r1
 308              		.loc 1 80 5 view .LVU67
 309 0002 6921     		movs	r1, #105
 310              	.LVL28:
 311              		.loc 1 80 5 view .LVU68
 312 0004 FFF7FEBF 		b	lv_style_set_prop
 313              	.LVL29:
 314              		.loc 1 80 5 view .LVU69
 315              		.cfi_endproc
 316              	.LFE63:
 318              		.section	.text.lv_style_set_transform_height,"ax",%progbits
 319              		.align	1
 320              		.p2align 2,,3
 321              		.global	lv_style_set_transform_height
 322              		.syntax unified
 323              		.thumb
 324              		.thumb_func
 326              	lv_style_set_transform_height:
 327              	.LVL30:
 328              	.LFB64:
  81:Drivers/lvgl/src/misc/lv_style_gen.c **** }
  82:Drivers/lvgl/src/misc/lv_style_gen.c **** 
ARM GAS  /var/folders/0z/tsy30v1j4xl4_7kw94k978ww0000gn/T//ccqJTzTx.s 			page 8


  83:Drivers/lvgl/src/misc/lv_style_gen.c **** void lv_style_set_transform_height(lv_style_t * style, lv_coord_t value)
  84:Drivers/lvgl/src/misc/lv_style_gen.c **** {
 329              		.loc 1 84 1 is_stmt 1 view -0
 330              		.cfi_startproc
 331              		@ args = 0, pretend = 0, frame = 0
 332              		@ frame_needed = 0, uses_anonymous_args = 0
 333              		@ link register save eliminated.
  85:Drivers/lvgl/src/misc/lv_style_gen.c ****     lv_style_value_t v = {
 334              		.loc 1 85 5 view .LVU71
  86:Drivers/lvgl/src/misc/lv_style_gen.c ****         .num = (int32_t)value
  87:Drivers/lvgl/src/misc/lv_style_gen.c ****     };
  88:Drivers/lvgl/src/misc/lv_style_gen.c ****     lv_style_set_prop(style, LV_STYLE_TRANSFORM_HEIGHT, v);
 335              		.loc 1 88 5 view .LVU72
  84:Drivers/lvgl/src/misc/lv_style_gen.c ****     lv_style_value_t v = {
 336              		.loc 1 84 1 is_stmt 0 view .LVU73
 337 0000 0A46     		mov	r2, r1
 338              		.loc 1 88 5 view .LVU74
 339 0002 6A21     		movs	r1, #106
 340              	.LVL31:
 341              		.loc 1 88 5 view .LVU75
 342 0004 FFF7FEBF 		b	lv_style_set_prop
 343              	.LVL32:
 344              		.loc 1 88 5 view .LVU76
 345              		.cfi_endproc
 346              	.LFE64:
 348              		.section	.text.lv_style_set_translate_x,"ax",%progbits
 349              		.align	1
 350              		.p2align 2,,3
 351              		.global	lv_style_set_translate_x
 352              		.syntax unified
 353              		.thumb
 354              		.thumb_func
 356              	lv_style_set_translate_x:
 357              	.LVL33:
 358              	.LFB65:
  89:Drivers/lvgl/src/misc/lv_style_gen.c **** }
  90:Drivers/lvgl/src/misc/lv_style_gen.c **** 
  91:Drivers/lvgl/src/misc/lv_style_gen.c **** void lv_style_set_translate_x(lv_style_t * style, lv_coord_t value)
  92:Drivers/lvgl/src/misc/lv_style_gen.c **** {
 359              		.loc 1 92 1 is_stmt 1 view -0
 360              		.cfi_startproc
 361              		@ args = 0, pretend = 0, frame = 0
 362              		@ frame_needed = 0, uses_anonymous_args = 0
 363              		@ link register save eliminated.
  93:Drivers/lvgl/src/misc/lv_style_gen.c ****     lv_style_value_t v = {
 364              		.loc 1 93 5 view .LVU78
  94:Drivers/lvgl/src/misc/lv_style_gen.c ****         .num = (int32_t)value
  95:Drivers/lvgl/src/misc/lv_style_gen.c ****     };
  96:Drivers/lvgl/src/misc/lv_style_gen.c ****     lv_style_set_prop(style, LV_STYLE_TRANSLATE_X, v);
 365              		.loc 1 96 5 view .LVU79
  92:Drivers/lvgl/src/misc/lv_style_gen.c ****     lv_style_value_t v = {
 366              		.loc 1 92 1 is_stmt 0 view .LVU80
 367 0000 0A46     		mov	r2, r1
 368              		.loc 1 96 5 view .LVU81
 369 0002 6B21     		movs	r1, #107
 370              	.LVL34:
 371              		.loc 1 96 5 view .LVU82
ARM GAS  /var/folders/0z/tsy30v1j4xl4_7kw94k978ww0000gn/T//ccqJTzTx.s 			page 9


 372 0004 FFF7FEBF 		b	lv_style_set_prop
 373              	.LVL35:
 374              		.loc 1 96 5 view .LVU83
 375              		.cfi_endproc
 376              	.LFE65:
 378              		.section	.text.lv_style_set_translate_y,"ax",%progbits
 379              		.align	1
 380              		.p2align 2,,3
 381              		.global	lv_style_set_translate_y
 382              		.syntax unified
 383              		.thumb
 384              		.thumb_func
 386              	lv_style_set_translate_y:
 387              	.LVL36:
 388              	.LFB66:
  97:Drivers/lvgl/src/misc/lv_style_gen.c **** }
  98:Drivers/lvgl/src/misc/lv_style_gen.c **** 
  99:Drivers/lvgl/src/misc/lv_style_gen.c **** void lv_style_set_translate_y(lv_style_t * style, lv_coord_t value)
 100:Drivers/lvgl/src/misc/lv_style_gen.c **** {
 389              		.loc 1 100 1 is_stmt 1 view -0
 390              		.cfi_startproc
 391              		@ args = 0, pretend = 0, frame = 0
 392              		@ frame_needed = 0, uses_anonymous_args = 0
 393              		@ link register save eliminated.
 101:Drivers/lvgl/src/misc/lv_style_gen.c ****     lv_style_value_t v = {
 394              		.loc 1 101 5 view .LVU85
 102:Drivers/lvgl/src/misc/lv_style_gen.c ****         .num = (int32_t)value
 103:Drivers/lvgl/src/misc/lv_style_gen.c ****     };
 104:Drivers/lvgl/src/misc/lv_style_gen.c ****     lv_style_set_prop(style, LV_STYLE_TRANSLATE_Y, v);
 395              		.loc 1 104 5 view .LVU86
 100:Drivers/lvgl/src/misc/lv_style_gen.c ****     lv_style_value_t v = {
 396              		.loc 1 100 1 is_stmt 0 view .LVU87
 397 0000 0A46     		mov	r2, r1
 398              		.loc 1 104 5 view .LVU88
 399 0002 6C21     		movs	r1, #108
 400              	.LVL37:
 401              		.loc 1 104 5 view .LVU89
 402 0004 FFF7FEBF 		b	lv_style_set_prop
 403              	.LVL38:
 404              		.loc 1 104 5 view .LVU90
 405              		.cfi_endproc
 406              	.LFE66:
 408              		.section	.text.lv_style_set_transform_zoom,"ax",%progbits
 409              		.align	1
 410              		.p2align 2,,3
 411              		.global	lv_style_set_transform_zoom
 412              		.syntax unified
 413              		.thumb
 414              		.thumb_func
 416              	lv_style_set_transform_zoom:
 417              	.LVL39:
 418              	.LFB67:
 105:Drivers/lvgl/src/misc/lv_style_gen.c **** }
 106:Drivers/lvgl/src/misc/lv_style_gen.c **** 
 107:Drivers/lvgl/src/misc/lv_style_gen.c **** void lv_style_set_transform_zoom(lv_style_t * style, lv_coord_t value)
 108:Drivers/lvgl/src/misc/lv_style_gen.c **** {
 419              		.loc 1 108 1 is_stmt 1 view -0
ARM GAS  /var/folders/0z/tsy30v1j4xl4_7kw94k978ww0000gn/T//ccqJTzTx.s 			page 10


 420              		.cfi_startproc
 421              		@ args = 0, pretend = 0, frame = 0
 422              		@ frame_needed = 0, uses_anonymous_args = 0
 423              		@ link register save eliminated.
 109:Drivers/lvgl/src/misc/lv_style_gen.c ****     lv_style_value_t v = {
 424              		.loc 1 109 5 view .LVU92
 110:Drivers/lvgl/src/misc/lv_style_gen.c ****         .num = (int32_t)value
 111:Drivers/lvgl/src/misc/lv_style_gen.c ****     };
 112:Drivers/lvgl/src/misc/lv_style_gen.c ****     lv_style_set_prop(style, LV_STYLE_TRANSFORM_ZOOM, v);
 425              		.loc 1 112 5 view .LVU93
 108:Drivers/lvgl/src/misc/lv_style_gen.c ****     lv_style_value_t v = {
 426              		.loc 1 108 1 is_stmt 0 view .LVU94
 427 0000 0A46     		mov	r2, r1
 428              		.loc 1 112 5 view .LVU95
 429 0002 6D21     		movs	r1, #109
 430              	.LVL40:
 431              		.loc 1 112 5 view .LVU96
 432 0004 FFF7FEBF 		b	lv_style_set_prop
 433              	.LVL41:
 434              		.loc 1 112 5 view .LVU97
 435              		.cfi_endproc
 436              	.LFE67:
 438              		.section	.text.lv_style_set_transform_angle,"ax",%progbits
 439              		.align	1
 440              		.p2align 2,,3
 441              		.global	lv_style_set_transform_angle
 442              		.syntax unified
 443              		.thumb
 444              		.thumb_func
 446              	lv_style_set_transform_angle:
 447              	.LVL42:
 448              	.LFB68:
 113:Drivers/lvgl/src/misc/lv_style_gen.c **** }
 114:Drivers/lvgl/src/misc/lv_style_gen.c **** 
 115:Drivers/lvgl/src/misc/lv_style_gen.c **** void lv_style_set_transform_angle(lv_style_t * style, lv_coord_t value)
 116:Drivers/lvgl/src/misc/lv_style_gen.c **** {
 449              		.loc 1 116 1 is_stmt 1 view -0
 450              		.cfi_startproc
 451              		@ args = 0, pretend = 0, frame = 0
 452              		@ frame_needed = 0, uses_anonymous_args = 0
 453              		@ link register save eliminated.
 117:Drivers/lvgl/src/misc/lv_style_gen.c ****     lv_style_value_t v = {
 454              		.loc 1 117 5 view .LVU99
 118:Drivers/lvgl/src/misc/lv_style_gen.c ****         .num = (int32_t)value
 119:Drivers/lvgl/src/misc/lv_style_gen.c ****     };
 120:Drivers/lvgl/src/misc/lv_style_gen.c ****     lv_style_set_prop(style, LV_STYLE_TRANSFORM_ANGLE, v);
 455              		.loc 1 120 5 view .LVU100
 116:Drivers/lvgl/src/misc/lv_style_gen.c ****     lv_style_value_t v = {
 456              		.loc 1 116 1 is_stmt 0 view .LVU101
 457 0000 0A46     		mov	r2, r1
 458              		.loc 1 120 5 view .LVU102
 459 0002 6E21     		movs	r1, #110
 460              	.LVL43:
 461              		.loc 1 120 5 view .LVU103
 462 0004 FFF7FEBF 		b	lv_style_set_prop
 463              	.LVL44:
 464              		.loc 1 120 5 view .LVU104
ARM GAS  /var/folders/0z/tsy30v1j4xl4_7kw94k978ww0000gn/T//ccqJTzTx.s 			page 11


 465              		.cfi_endproc
 466              	.LFE68:
 468              		.section	.text.lv_style_set_transform_pivot_x,"ax",%progbits
 469              		.align	1
 470              		.p2align 2,,3
 471              		.global	lv_style_set_transform_pivot_x
 472              		.syntax unified
 473              		.thumb
 474              		.thumb_func
 476              	lv_style_set_transform_pivot_x:
 477              	.LVL45:
 478              	.LFB69:
 121:Drivers/lvgl/src/misc/lv_style_gen.c **** }
 122:Drivers/lvgl/src/misc/lv_style_gen.c **** 
 123:Drivers/lvgl/src/misc/lv_style_gen.c **** void lv_style_set_transform_pivot_x(lv_style_t * style, lv_coord_t value)
 124:Drivers/lvgl/src/misc/lv_style_gen.c **** {
 479              		.loc 1 124 1 is_stmt 1 view -0
 480              		.cfi_startproc
 481              		@ args = 0, pretend = 0, frame = 0
 482              		@ frame_needed = 0, uses_anonymous_args = 0
 483              		@ link register save eliminated.
 125:Drivers/lvgl/src/misc/lv_style_gen.c ****     lv_style_value_t v = {
 484              		.loc 1 125 5 view .LVU106
 126:Drivers/lvgl/src/misc/lv_style_gen.c ****         .num = (int32_t)value
 127:Drivers/lvgl/src/misc/lv_style_gen.c ****     };
 128:Drivers/lvgl/src/misc/lv_style_gen.c ****     lv_style_set_prop(style, LV_STYLE_TRANSFORM_PIVOT_X, v);
 485              		.loc 1 128 5 view .LVU107
 124:Drivers/lvgl/src/misc/lv_style_gen.c ****     lv_style_value_t v = {
 486              		.loc 1 124 1 is_stmt 0 view .LVU108
 487 0000 0A46     		mov	r2, r1
 488              		.loc 1 128 5 view .LVU109
 489 0002 6F21     		movs	r1, #111
 490              	.LVL46:
 491              		.loc 1 128 5 view .LVU110
 492 0004 FFF7FEBF 		b	lv_style_set_prop
 493              	.LVL47:
 494              		.loc 1 128 5 view .LVU111
 495              		.cfi_endproc
 496              	.LFE69:
 498              		.section	.text.lv_style_set_transform_pivot_y,"ax",%progbits
 499              		.align	1
 500              		.p2align 2,,3
 501              		.global	lv_style_set_transform_pivot_y
 502              		.syntax unified
 503              		.thumb
 504              		.thumb_func
 506              	lv_style_set_transform_pivot_y:
 507              	.LVL48:
 508              	.LFB70:
 129:Drivers/lvgl/src/misc/lv_style_gen.c **** }
 130:Drivers/lvgl/src/misc/lv_style_gen.c **** 
 131:Drivers/lvgl/src/misc/lv_style_gen.c **** void lv_style_set_transform_pivot_y(lv_style_t * style, lv_coord_t value)
 132:Drivers/lvgl/src/misc/lv_style_gen.c **** {
 509              		.loc 1 132 1 is_stmt 1 view -0
 510              		.cfi_startproc
 511              		@ args = 0, pretend = 0, frame = 0
 512              		@ frame_needed = 0, uses_anonymous_args = 0
ARM GAS  /var/folders/0z/tsy30v1j4xl4_7kw94k978ww0000gn/T//ccqJTzTx.s 			page 12


 513              		@ link register save eliminated.
 133:Drivers/lvgl/src/misc/lv_style_gen.c ****     lv_style_value_t v = {
 514              		.loc 1 133 5 view .LVU113
 134:Drivers/lvgl/src/misc/lv_style_gen.c ****         .num = (int32_t)value
 135:Drivers/lvgl/src/misc/lv_style_gen.c ****     };
 136:Drivers/lvgl/src/misc/lv_style_gen.c ****     lv_style_set_prop(style, LV_STYLE_TRANSFORM_PIVOT_Y, v);
 515              		.loc 1 136 5 view .LVU114
 132:Drivers/lvgl/src/misc/lv_style_gen.c ****     lv_style_value_t v = {
 516              		.loc 1 132 1 is_stmt 0 view .LVU115
 517 0000 0A46     		mov	r2, r1
 518              		.loc 1 136 5 view .LVU116
 519 0002 7021     		movs	r1, #112
 520              	.LVL49:
 521              		.loc 1 136 5 view .LVU117
 522 0004 FFF7FEBF 		b	lv_style_set_prop
 523              	.LVL50:
 524              		.loc 1 136 5 view .LVU118
 525              		.cfi_endproc
 526              	.LFE70:
 528              		.section	.text.lv_style_set_pad_top,"ax",%progbits
 529              		.align	1
 530              		.p2align 2,,3
 531              		.global	lv_style_set_pad_top
 532              		.syntax unified
 533              		.thumb
 534              		.thumb_func
 536              	lv_style_set_pad_top:
 537              	.LVL51:
 538              	.LFB71:
 137:Drivers/lvgl/src/misc/lv_style_gen.c **** }
 138:Drivers/lvgl/src/misc/lv_style_gen.c **** 
 139:Drivers/lvgl/src/misc/lv_style_gen.c **** void lv_style_set_pad_top(lv_style_t * style, lv_coord_t value)
 140:Drivers/lvgl/src/misc/lv_style_gen.c **** {
 539              		.loc 1 140 1 is_stmt 1 view -0
 540              		.cfi_startproc
 541              		@ args = 0, pretend = 0, frame = 0
 542              		@ frame_needed = 0, uses_anonymous_args = 0
 543              		@ link register save eliminated.
 141:Drivers/lvgl/src/misc/lv_style_gen.c ****     lv_style_value_t v = {
 544              		.loc 1 141 5 view .LVU120
 142:Drivers/lvgl/src/misc/lv_style_gen.c ****         .num = (int32_t)value
 143:Drivers/lvgl/src/misc/lv_style_gen.c ****     };
 144:Drivers/lvgl/src/misc/lv_style_gen.c ****     lv_style_set_prop(style, LV_STYLE_PAD_TOP, v);
 545              		.loc 1 144 5 view .LVU121
 140:Drivers/lvgl/src/misc/lv_style_gen.c ****     lv_style_value_t v = {
 546              		.loc 1 140 1 is_stmt 0 view .LVU122
 547 0000 0A46     		mov	r2, r1
 548              		.loc 1 144 5 view .LVU123
 549 0002 1021     		movs	r1, #16
 550              	.LVL52:
 551              		.loc 1 144 5 view .LVU124
 552 0004 FFF7FEBF 		b	lv_style_set_prop
 553              	.LVL53:
 554              		.loc 1 144 5 view .LVU125
 555              		.cfi_endproc
 556              	.LFE71:
 558              		.section	.text.lv_style_set_pad_bottom,"ax",%progbits
ARM GAS  /var/folders/0z/tsy30v1j4xl4_7kw94k978ww0000gn/T//ccqJTzTx.s 			page 13


 559              		.align	1
 560              		.p2align 2,,3
 561              		.global	lv_style_set_pad_bottom
 562              		.syntax unified
 563              		.thumb
 564              		.thumb_func
 566              	lv_style_set_pad_bottom:
 567              	.LVL54:
 568              	.LFB72:
 145:Drivers/lvgl/src/misc/lv_style_gen.c **** }
 146:Drivers/lvgl/src/misc/lv_style_gen.c **** 
 147:Drivers/lvgl/src/misc/lv_style_gen.c **** void lv_style_set_pad_bottom(lv_style_t * style, lv_coord_t value)
 148:Drivers/lvgl/src/misc/lv_style_gen.c **** {
 569              		.loc 1 148 1 is_stmt 1 view -0
 570              		.cfi_startproc
 571              		@ args = 0, pretend = 0, frame = 0
 572              		@ frame_needed = 0, uses_anonymous_args = 0
 573              		@ link register save eliminated.
 149:Drivers/lvgl/src/misc/lv_style_gen.c ****     lv_style_value_t v = {
 574              		.loc 1 149 5 view .LVU127
 150:Drivers/lvgl/src/misc/lv_style_gen.c ****         .num = (int32_t)value
 151:Drivers/lvgl/src/misc/lv_style_gen.c ****     };
 152:Drivers/lvgl/src/misc/lv_style_gen.c ****     lv_style_set_prop(style, LV_STYLE_PAD_BOTTOM, v);
 575              		.loc 1 152 5 view .LVU128
 148:Drivers/lvgl/src/misc/lv_style_gen.c ****     lv_style_value_t v = {
 576              		.loc 1 148 1 is_stmt 0 view .LVU129
 577 0000 0A46     		mov	r2, r1
 578              		.loc 1 152 5 view .LVU130
 579 0002 1121     		movs	r1, #17
 580              	.LVL55:
 581              		.loc 1 152 5 view .LVU131
 582 0004 FFF7FEBF 		b	lv_style_set_prop
 583              	.LVL56:
 584              		.loc 1 152 5 view .LVU132
 585              		.cfi_endproc
 586              	.LFE72:
 588              		.section	.text.lv_style_set_pad_left,"ax",%progbits
 589              		.align	1
 590              		.p2align 2,,3
 591              		.global	lv_style_set_pad_left
 592              		.syntax unified
 593              		.thumb
 594              		.thumb_func
 596              	lv_style_set_pad_left:
 597              	.LVL57:
 598              	.LFB73:
 153:Drivers/lvgl/src/misc/lv_style_gen.c **** }
 154:Drivers/lvgl/src/misc/lv_style_gen.c **** 
 155:Drivers/lvgl/src/misc/lv_style_gen.c **** void lv_style_set_pad_left(lv_style_t * style, lv_coord_t value)
 156:Drivers/lvgl/src/misc/lv_style_gen.c **** {
 599              		.loc 1 156 1 is_stmt 1 view -0
 600              		.cfi_startproc
 601              		@ args = 0, pretend = 0, frame = 0
 602              		@ frame_needed = 0, uses_anonymous_args = 0
 603              		@ link register save eliminated.
 157:Drivers/lvgl/src/misc/lv_style_gen.c ****     lv_style_value_t v = {
 604              		.loc 1 157 5 view .LVU134
ARM GAS  /var/folders/0z/tsy30v1j4xl4_7kw94k978ww0000gn/T//ccqJTzTx.s 			page 14


 158:Drivers/lvgl/src/misc/lv_style_gen.c ****         .num = (int32_t)value
 159:Drivers/lvgl/src/misc/lv_style_gen.c ****     };
 160:Drivers/lvgl/src/misc/lv_style_gen.c ****     lv_style_set_prop(style, LV_STYLE_PAD_LEFT, v);
 605              		.loc 1 160 5 view .LVU135
 156:Drivers/lvgl/src/misc/lv_style_gen.c ****     lv_style_value_t v = {
 606              		.loc 1 156 1 is_stmt 0 view .LVU136
 607 0000 0A46     		mov	r2, r1
 608              		.loc 1 160 5 view .LVU137
 609 0002 1221     		movs	r1, #18
 610              	.LVL58:
 611              		.loc 1 160 5 view .LVU138
 612 0004 FFF7FEBF 		b	lv_style_set_prop
 613              	.LVL59:
 614              		.loc 1 160 5 view .LVU139
 615              		.cfi_endproc
 616              	.LFE73:
 618              		.section	.text.lv_style_set_pad_right,"ax",%progbits
 619              		.align	1
 620              		.p2align 2,,3
 621              		.global	lv_style_set_pad_right
 622              		.syntax unified
 623              		.thumb
 624              		.thumb_func
 626              	lv_style_set_pad_right:
 627              	.LVL60:
 628              	.LFB74:
 161:Drivers/lvgl/src/misc/lv_style_gen.c **** }
 162:Drivers/lvgl/src/misc/lv_style_gen.c **** 
 163:Drivers/lvgl/src/misc/lv_style_gen.c **** void lv_style_set_pad_right(lv_style_t * style, lv_coord_t value)
 164:Drivers/lvgl/src/misc/lv_style_gen.c **** {
 629              		.loc 1 164 1 is_stmt 1 view -0
 630              		.cfi_startproc
 631              		@ args = 0, pretend = 0, frame = 0
 632              		@ frame_needed = 0, uses_anonymous_args = 0
 633              		@ link register save eliminated.
 165:Drivers/lvgl/src/misc/lv_style_gen.c ****     lv_style_value_t v = {
 634              		.loc 1 165 5 view .LVU141
 166:Drivers/lvgl/src/misc/lv_style_gen.c ****         .num = (int32_t)value
 167:Drivers/lvgl/src/misc/lv_style_gen.c ****     };
 168:Drivers/lvgl/src/misc/lv_style_gen.c ****     lv_style_set_prop(style, LV_STYLE_PAD_RIGHT, v);
 635              		.loc 1 168 5 view .LVU142
 164:Drivers/lvgl/src/misc/lv_style_gen.c ****     lv_style_value_t v = {
 636              		.loc 1 164 1 is_stmt 0 view .LVU143
 637 0000 0A46     		mov	r2, r1
 638              		.loc 1 168 5 view .LVU144
 639 0002 1321     		movs	r1, #19
 640              	.LVL61:
 641              		.loc 1 168 5 view .LVU145
 642 0004 FFF7FEBF 		b	lv_style_set_prop
 643              	.LVL62:
 644              		.loc 1 168 5 view .LVU146
 645              		.cfi_endproc
 646              	.LFE74:
 648              		.section	.text.lv_style_set_pad_row,"ax",%progbits
 649              		.align	1
 650              		.p2align 2,,3
 651              		.global	lv_style_set_pad_row
ARM GAS  /var/folders/0z/tsy30v1j4xl4_7kw94k978ww0000gn/T//ccqJTzTx.s 			page 15


 652              		.syntax unified
 653              		.thumb
 654              		.thumb_func
 656              	lv_style_set_pad_row:
 657              	.LVL63:
 658              	.LFB75:
 169:Drivers/lvgl/src/misc/lv_style_gen.c **** }
 170:Drivers/lvgl/src/misc/lv_style_gen.c **** 
 171:Drivers/lvgl/src/misc/lv_style_gen.c **** void lv_style_set_pad_row(lv_style_t * style, lv_coord_t value)
 172:Drivers/lvgl/src/misc/lv_style_gen.c **** {
 659              		.loc 1 172 1 is_stmt 1 view -0
 660              		.cfi_startproc
 661              		@ args = 0, pretend = 0, frame = 0
 662              		@ frame_needed = 0, uses_anonymous_args = 0
 663              		@ link register save eliminated.
 173:Drivers/lvgl/src/misc/lv_style_gen.c ****     lv_style_value_t v = {
 664              		.loc 1 173 5 view .LVU148
 174:Drivers/lvgl/src/misc/lv_style_gen.c ****         .num = (int32_t)value
 175:Drivers/lvgl/src/misc/lv_style_gen.c ****     };
 176:Drivers/lvgl/src/misc/lv_style_gen.c ****     lv_style_set_prop(style, LV_STYLE_PAD_ROW, v);
 665              		.loc 1 176 5 view .LVU149
 172:Drivers/lvgl/src/misc/lv_style_gen.c ****     lv_style_value_t v = {
 666              		.loc 1 172 1 is_stmt 0 view .LVU150
 667 0000 0A46     		mov	r2, r1
 668              		.loc 1 176 5 view .LVU151
 669 0002 1421     		movs	r1, #20
 670              	.LVL64:
 671              		.loc 1 176 5 view .LVU152
 672 0004 FFF7FEBF 		b	lv_style_set_prop
 673              	.LVL65:
 674              		.loc 1 176 5 view .LVU153
 675              		.cfi_endproc
 676              	.LFE75:
 678              		.section	.text.lv_style_set_pad_column,"ax",%progbits
 679              		.align	1
 680              		.p2align 2,,3
 681              		.global	lv_style_set_pad_column
 682              		.syntax unified
 683              		.thumb
 684              		.thumb_func
 686              	lv_style_set_pad_column:
 687              	.LVL66:
 688              	.LFB76:
 177:Drivers/lvgl/src/misc/lv_style_gen.c **** }
 178:Drivers/lvgl/src/misc/lv_style_gen.c **** 
 179:Drivers/lvgl/src/misc/lv_style_gen.c **** void lv_style_set_pad_column(lv_style_t * style, lv_coord_t value)
 180:Drivers/lvgl/src/misc/lv_style_gen.c **** {
 689              		.loc 1 180 1 is_stmt 1 view -0
 690              		.cfi_startproc
 691              		@ args = 0, pretend = 0, frame = 0
 692              		@ frame_needed = 0, uses_anonymous_args = 0
 693              		@ link register save eliminated.
 181:Drivers/lvgl/src/misc/lv_style_gen.c ****     lv_style_value_t v = {
 694              		.loc 1 181 5 view .LVU155
 182:Drivers/lvgl/src/misc/lv_style_gen.c ****         .num = (int32_t)value
 183:Drivers/lvgl/src/misc/lv_style_gen.c ****     };
 184:Drivers/lvgl/src/misc/lv_style_gen.c ****     lv_style_set_prop(style, LV_STYLE_PAD_COLUMN, v);
ARM GAS  /var/folders/0z/tsy30v1j4xl4_7kw94k978ww0000gn/T//ccqJTzTx.s 			page 16


 695              		.loc 1 184 5 view .LVU156
 180:Drivers/lvgl/src/misc/lv_style_gen.c ****     lv_style_value_t v = {
 696              		.loc 1 180 1 is_stmt 0 view .LVU157
 697 0000 0A46     		mov	r2, r1
 698              		.loc 1 184 5 view .LVU158
 699 0002 1521     		movs	r1, #21
 700              	.LVL67:
 701              		.loc 1 184 5 view .LVU159
 702 0004 FFF7FEBF 		b	lv_style_set_prop
 703              	.LVL68:
 704              		.loc 1 184 5 view .LVU160
 705              		.cfi_endproc
 706              	.LFE76:
 708              		.section	.text.lv_style_set_bg_color,"ax",%progbits
 709              		.align	1
 710              		.p2align 2,,3
 711              		.global	lv_style_set_bg_color
 712              		.syntax unified
 713              		.thumb
 714              		.thumb_func
 716              	lv_style_set_bg_color:
 717              	.LVL69:
 718              	.LFB77:
 185:Drivers/lvgl/src/misc/lv_style_gen.c **** }
 186:Drivers/lvgl/src/misc/lv_style_gen.c **** 
 187:Drivers/lvgl/src/misc/lv_style_gen.c **** void lv_style_set_bg_color(lv_style_t * style, lv_color_t value)
 188:Drivers/lvgl/src/misc/lv_style_gen.c **** {
 719              		.loc 1 188 1 is_stmt 1 view -0
 720              		.cfi_startproc
 721              		@ args = 0, pretend = 0, frame = 8
 722              		@ frame_needed = 0, uses_anonymous_args = 0
 723              		@ link register save eliminated.
 189:Drivers/lvgl/src/misc/lv_style_gen.c ****     lv_style_value_t v = {
 724              		.loc 1 189 5 view .LVU162
 190:Drivers/lvgl/src/misc/lv_style_gen.c ****         .color = value
 191:Drivers/lvgl/src/misc/lv_style_gen.c ****     };
 192:Drivers/lvgl/src/misc/lv_style_gen.c ****     lv_style_set_prop(style, LV_STYLE_BG_COLOR, v);
 725              		.loc 1 192 5 view .LVU163
 188:Drivers/lvgl/src/misc/lv_style_gen.c ****     lv_style_value_t v = {
 726              		.loc 1 188 1 is_stmt 0 view .LVU164
 727 0000 82B0     		sub	sp, sp, #8
 728              		.cfi_def_cfa_offset 8
 189:Drivers/lvgl/src/misc/lv_style_gen.c ****     lv_style_value_t v = {
 729              		.loc 1 189 22 view .LVU165
 730 0002 0023     		movs	r3, #0
 731              		.loc 1 192 5 view .LVU166
 732 0004 8AB2     		uxth	r2, r1
 733 0006 2021     		movs	r1, #32
 734              	.LVL70:
 189:Drivers/lvgl/src/misc/lv_style_gen.c ****     lv_style_value_t v = {
 735              		.loc 1 189 22 view .LVU167
 736 0008 ADF80030 		strh	r3, [sp]	@ movhi
 193:Drivers/lvgl/src/misc/lv_style_gen.c **** }
 737              		.loc 1 193 1 view .LVU168
 738 000c 02B0     		add	sp, sp, #8
 739              		.cfi_def_cfa_offset 0
 740              		@ sp needed
ARM GAS  /var/folders/0z/tsy30v1j4xl4_7kw94k978ww0000gn/T//ccqJTzTx.s 			page 17


 192:Drivers/lvgl/src/misc/lv_style_gen.c **** }
 741              		.loc 1 192 5 view .LVU169
 742 000e FFF7FEBF 		b	lv_style_set_prop
 743              	.LVL71:
 192:Drivers/lvgl/src/misc/lv_style_gen.c **** }
 744              		.loc 1 192 5 view .LVU170
 745              		.cfi_endproc
 746              	.LFE77:
 748 0012 00BF     		.section	.text.lv_style_set_bg_opa,"ax",%progbits
 749              		.align	1
 750              		.p2align 2,,3
 751              		.global	lv_style_set_bg_opa
 752              		.syntax unified
 753              		.thumb
 754              		.thumb_func
 756              	lv_style_set_bg_opa:
 757              	.LVL72:
 758              	.LFB78:
 194:Drivers/lvgl/src/misc/lv_style_gen.c **** 
 195:Drivers/lvgl/src/misc/lv_style_gen.c **** void lv_style_set_bg_opa(lv_style_t * style, lv_opa_t value)
 196:Drivers/lvgl/src/misc/lv_style_gen.c **** {
 759              		.loc 1 196 1 is_stmt 1 view -0
 760              		.cfi_startproc
 761              		@ args = 0, pretend = 0, frame = 0
 762              		@ frame_needed = 0, uses_anonymous_args = 0
 763              		@ link register save eliminated.
 197:Drivers/lvgl/src/misc/lv_style_gen.c ****     lv_style_value_t v = {
 764              		.loc 1 197 5 view .LVU172
 198:Drivers/lvgl/src/misc/lv_style_gen.c ****         .num = (int32_t)value
 199:Drivers/lvgl/src/misc/lv_style_gen.c ****     };
 200:Drivers/lvgl/src/misc/lv_style_gen.c ****     lv_style_set_prop(style, LV_STYLE_BG_OPA, v);
 765              		.loc 1 200 5 view .LVU173
 196:Drivers/lvgl/src/misc/lv_style_gen.c ****     lv_style_value_t v = {
 766              		.loc 1 196 1 is_stmt 0 view .LVU174
 767 0000 0A46     		mov	r2, r1
 768              		.loc 1 200 5 view .LVU175
 769 0002 2121     		movs	r1, #33
 770              	.LVL73:
 771              		.loc 1 200 5 view .LVU176
 772 0004 FFF7FEBF 		b	lv_style_set_prop
 773              	.LVL74:
 774              		.loc 1 200 5 view .LVU177
 775              		.cfi_endproc
 776              	.LFE78:
 778              		.section	.text.lv_style_set_bg_grad_color,"ax",%progbits
 779              		.align	1
 780              		.p2align 2,,3
 781              		.global	lv_style_set_bg_grad_color
 782              		.syntax unified
 783              		.thumb
 784              		.thumb_func
 786              	lv_style_set_bg_grad_color:
 787              	.LVL75:
 788              	.LFB79:
 201:Drivers/lvgl/src/misc/lv_style_gen.c **** }
 202:Drivers/lvgl/src/misc/lv_style_gen.c **** 
 203:Drivers/lvgl/src/misc/lv_style_gen.c **** void lv_style_set_bg_grad_color(lv_style_t * style, lv_color_t value)
ARM GAS  /var/folders/0z/tsy30v1j4xl4_7kw94k978ww0000gn/T//ccqJTzTx.s 			page 18


 204:Drivers/lvgl/src/misc/lv_style_gen.c **** {
 789              		.loc 1 204 1 is_stmt 1 view -0
 790              		.cfi_startproc
 791              		@ args = 0, pretend = 0, frame = 8
 792              		@ frame_needed = 0, uses_anonymous_args = 0
 793              		@ link register save eliminated.
 205:Drivers/lvgl/src/misc/lv_style_gen.c ****     lv_style_value_t v = {
 794              		.loc 1 205 5 view .LVU179
 206:Drivers/lvgl/src/misc/lv_style_gen.c ****         .color = value
 207:Drivers/lvgl/src/misc/lv_style_gen.c ****     };
 208:Drivers/lvgl/src/misc/lv_style_gen.c ****     lv_style_set_prop(style, LV_STYLE_BG_GRAD_COLOR, v);
 795              		.loc 1 208 5 view .LVU180
 204:Drivers/lvgl/src/misc/lv_style_gen.c ****     lv_style_value_t v = {
 796              		.loc 1 204 1 is_stmt 0 view .LVU181
 797 0000 82B0     		sub	sp, sp, #8
 798              		.cfi_def_cfa_offset 8
 205:Drivers/lvgl/src/misc/lv_style_gen.c ****     lv_style_value_t v = {
 799              		.loc 1 205 22 view .LVU182
 800 0002 0023     		movs	r3, #0
 801              		.loc 1 208 5 view .LVU183
 802 0004 8AB2     		uxth	r2, r1
 803 0006 2221     		movs	r1, #34
 804              	.LVL76:
 205:Drivers/lvgl/src/misc/lv_style_gen.c ****     lv_style_value_t v = {
 805              		.loc 1 205 22 view .LVU184
 806 0008 ADF80030 		strh	r3, [sp]	@ movhi
 209:Drivers/lvgl/src/misc/lv_style_gen.c **** }
 807              		.loc 1 209 1 view .LVU185
 808 000c 02B0     		add	sp, sp, #8
 809              		.cfi_def_cfa_offset 0
 810              		@ sp needed
 208:Drivers/lvgl/src/misc/lv_style_gen.c **** }
 811              		.loc 1 208 5 view .LVU186
 812 000e FFF7FEBF 		b	lv_style_set_prop
 813              	.LVL77:
 208:Drivers/lvgl/src/misc/lv_style_gen.c **** }
 814              		.loc 1 208 5 view .LVU187
 815              		.cfi_endproc
 816              	.LFE79:
 818 0012 00BF     		.section	.text.lv_style_set_bg_grad_dir,"ax",%progbits
 819              		.align	1
 820              		.p2align 2,,3
 821              		.global	lv_style_set_bg_grad_dir
 822              		.syntax unified
 823              		.thumb
 824              		.thumb_func
 826              	lv_style_set_bg_grad_dir:
 827              	.LVL78:
 828              	.LFB80:
 210:Drivers/lvgl/src/misc/lv_style_gen.c **** 
 211:Drivers/lvgl/src/misc/lv_style_gen.c **** void lv_style_set_bg_grad_dir(lv_style_t * style, lv_grad_dir_t value)
 212:Drivers/lvgl/src/misc/lv_style_gen.c **** {
 829              		.loc 1 212 1 is_stmt 1 view -0
 830              		.cfi_startproc
 831              		@ args = 0, pretend = 0, frame = 0
 832              		@ frame_needed = 0, uses_anonymous_args = 0
 833              		@ link register save eliminated.
ARM GAS  /var/folders/0z/tsy30v1j4xl4_7kw94k978ww0000gn/T//ccqJTzTx.s 			page 19


 213:Drivers/lvgl/src/misc/lv_style_gen.c ****     lv_style_value_t v = {
 834              		.loc 1 213 5 view .LVU189
 214:Drivers/lvgl/src/misc/lv_style_gen.c ****         .num = (int32_t)value
 215:Drivers/lvgl/src/misc/lv_style_gen.c ****     };
 216:Drivers/lvgl/src/misc/lv_style_gen.c ****     lv_style_set_prop(style, LV_STYLE_BG_GRAD_DIR, v);
 835              		.loc 1 216 5 view .LVU190
 212:Drivers/lvgl/src/misc/lv_style_gen.c ****     lv_style_value_t v = {
 836              		.loc 1 212 1 is_stmt 0 view .LVU191
 837 0000 0A46     		mov	r2, r1
 838              		.loc 1 216 5 view .LVU192
 839 0002 2321     		movs	r1, #35
 840              	.LVL79:
 841              		.loc 1 216 5 view .LVU193
 842 0004 FFF7FEBF 		b	lv_style_set_prop
 843              	.LVL80:
 844              		.loc 1 216 5 view .LVU194
 845              		.cfi_endproc
 846              	.LFE80:
 848              		.section	.text.lv_style_set_bg_main_stop,"ax",%progbits
 849              		.align	1
 850              		.p2align 2,,3
 851              		.global	lv_style_set_bg_main_stop
 852              		.syntax unified
 853              		.thumb
 854              		.thumb_func
 856              	lv_style_set_bg_main_stop:
 857              	.LVL81:
 858              	.LFB81:
 217:Drivers/lvgl/src/misc/lv_style_gen.c **** }
 218:Drivers/lvgl/src/misc/lv_style_gen.c **** 
 219:Drivers/lvgl/src/misc/lv_style_gen.c **** void lv_style_set_bg_main_stop(lv_style_t * style, lv_coord_t value)
 220:Drivers/lvgl/src/misc/lv_style_gen.c **** {
 859              		.loc 1 220 1 is_stmt 1 view -0
 860              		.cfi_startproc
 861              		@ args = 0, pretend = 0, frame = 0
 862              		@ frame_needed = 0, uses_anonymous_args = 0
 863              		@ link register save eliminated.
 221:Drivers/lvgl/src/misc/lv_style_gen.c ****     lv_style_value_t v = {
 864              		.loc 1 221 5 view .LVU196
 222:Drivers/lvgl/src/misc/lv_style_gen.c ****         .num = (int32_t)value
 223:Drivers/lvgl/src/misc/lv_style_gen.c ****     };
 224:Drivers/lvgl/src/misc/lv_style_gen.c ****     lv_style_set_prop(style, LV_STYLE_BG_MAIN_STOP, v);
 865              		.loc 1 224 5 view .LVU197
 220:Drivers/lvgl/src/misc/lv_style_gen.c ****     lv_style_value_t v = {
 866              		.loc 1 220 1 is_stmt 0 view .LVU198
 867 0000 0A46     		mov	r2, r1
 868              		.loc 1 224 5 view .LVU199
 869 0002 2421     		movs	r1, #36
 870              	.LVL82:
 871              		.loc 1 224 5 view .LVU200
 872 0004 FFF7FEBF 		b	lv_style_set_prop
 873              	.LVL83:
 874              		.loc 1 224 5 view .LVU201
 875              		.cfi_endproc
 876              	.LFE81:
 878              		.section	.text.lv_style_set_bg_grad_stop,"ax",%progbits
 879              		.align	1
ARM GAS  /var/folders/0z/tsy30v1j4xl4_7kw94k978ww0000gn/T//ccqJTzTx.s 			page 20


 880              		.p2align 2,,3
 881              		.global	lv_style_set_bg_grad_stop
 882              		.syntax unified
 883              		.thumb
 884              		.thumb_func
 886              	lv_style_set_bg_grad_stop:
 887              	.LVL84:
 888              	.LFB82:
 225:Drivers/lvgl/src/misc/lv_style_gen.c **** }
 226:Drivers/lvgl/src/misc/lv_style_gen.c **** 
 227:Drivers/lvgl/src/misc/lv_style_gen.c **** void lv_style_set_bg_grad_stop(lv_style_t * style, lv_coord_t value)
 228:Drivers/lvgl/src/misc/lv_style_gen.c **** {
 889              		.loc 1 228 1 is_stmt 1 view -0
 890              		.cfi_startproc
 891              		@ args = 0, pretend = 0, frame = 0
 892              		@ frame_needed = 0, uses_anonymous_args = 0
 893              		@ link register save eliminated.
 229:Drivers/lvgl/src/misc/lv_style_gen.c ****     lv_style_value_t v = {
 894              		.loc 1 229 5 view .LVU203
 230:Drivers/lvgl/src/misc/lv_style_gen.c ****         .num = (int32_t)value
 231:Drivers/lvgl/src/misc/lv_style_gen.c ****     };
 232:Drivers/lvgl/src/misc/lv_style_gen.c ****     lv_style_set_prop(style, LV_STYLE_BG_GRAD_STOP, v);
 895              		.loc 1 232 5 view .LVU204
 228:Drivers/lvgl/src/misc/lv_style_gen.c ****     lv_style_value_t v = {
 896              		.loc 1 228 1 is_stmt 0 view .LVU205
 897 0000 0A46     		mov	r2, r1
 898              		.loc 1 232 5 view .LVU206
 899 0002 2521     		movs	r1, #37
 900              	.LVL85:
 901              		.loc 1 232 5 view .LVU207
 902 0004 FFF7FEBF 		b	lv_style_set_prop
 903              	.LVL86:
 904              		.loc 1 232 5 view .LVU208
 905              		.cfi_endproc
 906              	.LFE82:
 908              		.section	.text.lv_style_set_bg_grad,"ax",%progbits
 909              		.align	1
 910              		.p2align 2,,3
 911              		.global	lv_style_set_bg_grad
 912              		.syntax unified
 913              		.thumb
 914              		.thumb_func
 916              	lv_style_set_bg_grad:
 917              	.LVL87:
 918              	.LFB83:
 233:Drivers/lvgl/src/misc/lv_style_gen.c **** }
 234:Drivers/lvgl/src/misc/lv_style_gen.c **** 
 235:Drivers/lvgl/src/misc/lv_style_gen.c **** void lv_style_set_bg_grad(lv_style_t * style, const lv_grad_dsc_t * value)
 236:Drivers/lvgl/src/misc/lv_style_gen.c **** {
 919              		.loc 1 236 1 is_stmt 1 view -0
 920              		.cfi_startproc
 921              		@ args = 0, pretend = 0, frame = 0
 922              		@ frame_needed = 0, uses_anonymous_args = 0
 923              		@ link register save eliminated.
 237:Drivers/lvgl/src/misc/lv_style_gen.c ****     lv_style_value_t v = {
 924              		.loc 1 237 5 view .LVU210
 238:Drivers/lvgl/src/misc/lv_style_gen.c ****         .ptr = value
ARM GAS  /var/folders/0z/tsy30v1j4xl4_7kw94k978ww0000gn/T//ccqJTzTx.s 			page 21


 239:Drivers/lvgl/src/misc/lv_style_gen.c ****     };
 240:Drivers/lvgl/src/misc/lv_style_gen.c ****     lv_style_set_prop(style, LV_STYLE_BG_GRAD, v);
 925              		.loc 1 240 5 view .LVU211
 236:Drivers/lvgl/src/misc/lv_style_gen.c ****     lv_style_value_t v = {
 926              		.loc 1 236 1 is_stmt 0 view .LVU212
 927 0000 0A46     		mov	r2, r1
 928              		.loc 1 240 5 view .LVU213
 929 0002 2621     		movs	r1, #38
 930              	.LVL88:
 931              		.loc 1 240 5 view .LVU214
 932 0004 FFF7FEBF 		b	lv_style_set_prop
 933              	.LVL89:
 934              		.loc 1 240 5 view .LVU215
 935              		.cfi_endproc
 936              	.LFE83:
 938              		.section	.text.lv_style_set_bg_dither_mode,"ax",%progbits
 939              		.align	1
 940              		.p2align 2,,3
 941              		.global	lv_style_set_bg_dither_mode
 942              		.syntax unified
 943              		.thumb
 944              		.thumb_func
 946              	lv_style_set_bg_dither_mode:
 947              	.LVL90:
 948              	.LFB84:
 241:Drivers/lvgl/src/misc/lv_style_gen.c **** }
 242:Drivers/lvgl/src/misc/lv_style_gen.c **** 
 243:Drivers/lvgl/src/misc/lv_style_gen.c **** void lv_style_set_bg_dither_mode(lv_style_t * style, lv_dither_mode_t value)
 244:Drivers/lvgl/src/misc/lv_style_gen.c **** {
 949              		.loc 1 244 1 is_stmt 1 view -0
 950              		.cfi_startproc
 951              		@ args = 0, pretend = 0, frame = 0
 952              		@ frame_needed = 0, uses_anonymous_args = 0
 953              		@ link register save eliminated.
 245:Drivers/lvgl/src/misc/lv_style_gen.c ****     lv_style_value_t v = {
 954              		.loc 1 245 5 view .LVU217
 246:Drivers/lvgl/src/misc/lv_style_gen.c ****         .num = (int32_t)value
 247:Drivers/lvgl/src/misc/lv_style_gen.c ****     };
 248:Drivers/lvgl/src/misc/lv_style_gen.c ****     lv_style_set_prop(style, LV_STYLE_BG_DITHER_MODE, v);
 955              		.loc 1 248 5 view .LVU218
 244:Drivers/lvgl/src/misc/lv_style_gen.c ****     lv_style_value_t v = {
 956              		.loc 1 244 1 is_stmt 0 view .LVU219
 957 0000 0A46     		mov	r2, r1
 958              		.loc 1 248 5 view .LVU220
 959 0002 2721     		movs	r1, #39
 960              	.LVL91:
 961              		.loc 1 248 5 view .LVU221
 962 0004 FFF7FEBF 		b	lv_style_set_prop
 963              	.LVL92:
 964              		.loc 1 248 5 view .LVU222
 965              		.cfi_endproc
 966              	.LFE84:
 968              		.section	.text.lv_style_set_bg_img_src,"ax",%progbits
 969              		.align	1
 970              		.p2align 2,,3
 971              		.global	lv_style_set_bg_img_src
 972              		.syntax unified
ARM GAS  /var/folders/0z/tsy30v1j4xl4_7kw94k978ww0000gn/T//ccqJTzTx.s 			page 22


 973              		.thumb
 974              		.thumb_func
 976              	lv_style_set_bg_img_src:
 977              	.LVL93:
 978              	.LFB85:
 249:Drivers/lvgl/src/misc/lv_style_gen.c **** }
 250:Drivers/lvgl/src/misc/lv_style_gen.c **** 
 251:Drivers/lvgl/src/misc/lv_style_gen.c **** void lv_style_set_bg_img_src(lv_style_t * style, const void * value)
 252:Drivers/lvgl/src/misc/lv_style_gen.c **** {
 979              		.loc 1 252 1 is_stmt 1 view -0
 980              		.cfi_startproc
 981              		@ args = 0, pretend = 0, frame = 0
 982              		@ frame_needed = 0, uses_anonymous_args = 0
 983              		@ link register save eliminated.
 253:Drivers/lvgl/src/misc/lv_style_gen.c ****     lv_style_value_t v = {
 984              		.loc 1 253 5 view .LVU224
 254:Drivers/lvgl/src/misc/lv_style_gen.c ****         .ptr = value
 255:Drivers/lvgl/src/misc/lv_style_gen.c ****     };
 256:Drivers/lvgl/src/misc/lv_style_gen.c ****     lv_style_set_prop(style, LV_STYLE_BG_IMG_SRC, v);
 985              		.loc 1 256 5 view .LVU225
 252:Drivers/lvgl/src/misc/lv_style_gen.c ****     lv_style_value_t v = {
 986              		.loc 1 252 1 is_stmt 0 view .LVU226
 987 0000 0A46     		mov	r2, r1
 988              		.loc 1 256 5 view .LVU227
 989 0002 2821     		movs	r1, #40
 990              	.LVL94:
 991              		.loc 1 256 5 view .LVU228
 992 0004 FFF7FEBF 		b	lv_style_set_prop
 993              	.LVL95:
 994              		.loc 1 256 5 view .LVU229
 995              		.cfi_endproc
 996              	.LFE85:
 998              		.section	.text.lv_style_set_bg_img_opa,"ax",%progbits
 999              		.align	1
 1000              		.p2align 2,,3
 1001              		.global	lv_style_set_bg_img_opa
 1002              		.syntax unified
 1003              		.thumb
 1004              		.thumb_func
 1006              	lv_style_set_bg_img_opa:
 1007              	.LVL96:
 1008              	.LFB86:
 257:Drivers/lvgl/src/misc/lv_style_gen.c **** }
 258:Drivers/lvgl/src/misc/lv_style_gen.c **** 
 259:Drivers/lvgl/src/misc/lv_style_gen.c **** void lv_style_set_bg_img_opa(lv_style_t * style, lv_opa_t value)
 260:Drivers/lvgl/src/misc/lv_style_gen.c **** {
 1009              		.loc 1 260 1 is_stmt 1 view -0
 1010              		.cfi_startproc
 1011              		@ args = 0, pretend = 0, frame = 0
 1012              		@ frame_needed = 0, uses_anonymous_args = 0
 1013              		@ link register save eliminated.
 261:Drivers/lvgl/src/misc/lv_style_gen.c ****     lv_style_value_t v = {
 1014              		.loc 1 261 5 view .LVU231
 262:Drivers/lvgl/src/misc/lv_style_gen.c ****         .num = (int32_t)value
 263:Drivers/lvgl/src/misc/lv_style_gen.c ****     };
 264:Drivers/lvgl/src/misc/lv_style_gen.c ****     lv_style_set_prop(style, LV_STYLE_BG_IMG_OPA, v);
 1015              		.loc 1 264 5 view .LVU232
ARM GAS  /var/folders/0z/tsy30v1j4xl4_7kw94k978ww0000gn/T//ccqJTzTx.s 			page 23


 260:Drivers/lvgl/src/misc/lv_style_gen.c ****     lv_style_value_t v = {
 1016              		.loc 1 260 1 is_stmt 0 view .LVU233
 1017 0000 0A46     		mov	r2, r1
 1018              		.loc 1 264 5 view .LVU234
 1019 0002 2921     		movs	r1, #41
 1020              	.LVL97:
 1021              		.loc 1 264 5 view .LVU235
 1022 0004 FFF7FEBF 		b	lv_style_set_prop
 1023              	.LVL98:
 1024              		.loc 1 264 5 view .LVU236
 1025              		.cfi_endproc
 1026              	.LFE86:
 1028              		.section	.text.lv_style_set_bg_img_recolor,"ax",%progbits
 1029              		.align	1
 1030              		.p2align 2,,3
 1031              		.global	lv_style_set_bg_img_recolor
 1032              		.syntax unified
 1033              		.thumb
 1034              		.thumb_func
 1036              	lv_style_set_bg_img_recolor:
 1037              	.LVL99:
 1038              	.LFB87:
 265:Drivers/lvgl/src/misc/lv_style_gen.c **** }
 266:Drivers/lvgl/src/misc/lv_style_gen.c **** 
 267:Drivers/lvgl/src/misc/lv_style_gen.c **** void lv_style_set_bg_img_recolor(lv_style_t * style, lv_color_t value)
 268:Drivers/lvgl/src/misc/lv_style_gen.c **** {
 1039              		.loc 1 268 1 is_stmt 1 view -0
 1040              		.cfi_startproc
 1041              		@ args = 0, pretend = 0, frame = 8
 1042              		@ frame_needed = 0, uses_anonymous_args = 0
 1043              		@ link register save eliminated.
 269:Drivers/lvgl/src/misc/lv_style_gen.c ****     lv_style_value_t v = {
 1044              		.loc 1 269 5 view .LVU238
 270:Drivers/lvgl/src/misc/lv_style_gen.c ****         .color = value
 271:Drivers/lvgl/src/misc/lv_style_gen.c ****     };
 272:Drivers/lvgl/src/misc/lv_style_gen.c ****     lv_style_set_prop(style, LV_STYLE_BG_IMG_RECOLOR, v);
 1045              		.loc 1 272 5 view .LVU239
 268:Drivers/lvgl/src/misc/lv_style_gen.c ****     lv_style_value_t v = {
 1046              		.loc 1 268 1 is_stmt 0 view .LVU240
 1047 0000 82B0     		sub	sp, sp, #8
 1048              		.cfi_def_cfa_offset 8
 269:Drivers/lvgl/src/misc/lv_style_gen.c ****     lv_style_value_t v = {
 1049              		.loc 1 269 22 view .LVU241
 1050 0002 0023     		movs	r3, #0
 1051              		.loc 1 272 5 view .LVU242
 1052 0004 8AB2     		uxth	r2, r1
 1053 0006 2A21     		movs	r1, #42
 1054              	.LVL100:
 269:Drivers/lvgl/src/misc/lv_style_gen.c ****     lv_style_value_t v = {
 1055              		.loc 1 269 22 view .LVU243
 1056 0008 ADF80030 		strh	r3, [sp]	@ movhi
 273:Drivers/lvgl/src/misc/lv_style_gen.c **** }
 1057              		.loc 1 273 1 view .LVU244
 1058 000c 02B0     		add	sp, sp, #8
 1059              		.cfi_def_cfa_offset 0
 1060              		@ sp needed
 272:Drivers/lvgl/src/misc/lv_style_gen.c **** }
ARM GAS  /var/folders/0z/tsy30v1j4xl4_7kw94k978ww0000gn/T//ccqJTzTx.s 			page 24


 1061              		.loc 1 272 5 view .LVU245
 1062 000e FFF7FEBF 		b	lv_style_set_prop
 1063              	.LVL101:
 272:Drivers/lvgl/src/misc/lv_style_gen.c **** }
 1064              		.loc 1 272 5 view .LVU246
 1065              		.cfi_endproc
 1066              	.LFE87:
 1068 0012 00BF     		.section	.text.lv_style_set_bg_img_recolor_opa,"ax",%progbits
 1069              		.align	1
 1070              		.p2align 2,,3
 1071              		.global	lv_style_set_bg_img_recolor_opa
 1072              		.syntax unified
 1073              		.thumb
 1074              		.thumb_func
 1076              	lv_style_set_bg_img_recolor_opa:
 1077              	.LVL102:
 1078              	.LFB88:
 274:Drivers/lvgl/src/misc/lv_style_gen.c **** 
 275:Drivers/lvgl/src/misc/lv_style_gen.c **** void lv_style_set_bg_img_recolor_opa(lv_style_t * style, lv_opa_t value)
 276:Drivers/lvgl/src/misc/lv_style_gen.c **** {
 1079              		.loc 1 276 1 is_stmt 1 view -0
 1080              		.cfi_startproc
 1081              		@ args = 0, pretend = 0, frame = 0
 1082              		@ frame_needed = 0, uses_anonymous_args = 0
 1083              		@ link register save eliminated.
 277:Drivers/lvgl/src/misc/lv_style_gen.c ****     lv_style_value_t v = {
 1084              		.loc 1 277 5 view .LVU248
 278:Drivers/lvgl/src/misc/lv_style_gen.c ****         .num = (int32_t)value
 279:Drivers/lvgl/src/misc/lv_style_gen.c ****     };
 280:Drivers/lvgl/src/misc/lv_style_gen.c ****     lv_style_set_prop(style, LV_STYLE_BG_IMG_RECOLOR_OPA, v);
 1085              		.loc 1 280 5 view .LVU249
 276:Drivers/lvgl/src/misc/lv_style_gen.c ****     lv_style_value_t v = {
 1086              		.loc 1 276 1 is_stmt 0 view .LVU250
 1087 0000 0A46     		mov	r2, r1
 1088              		.loc 1 280 5 view .LVU251
 1089 0002 2B21     		movs	r1, #43
 1090              	.LVL103:
 1091              		.loc 1 280 5 view .LVU252
 1092 0004 FFF7FEBF 		b	lv_style_set_prop
 1093              	.LVL104:
 1094              		.loc 1 280 5 view .LVU253
 1095              		.cfi_endproc
 1096              	.LFE88:
 1098              		.section	.text.lv_style_set_bg_img_tiled,"ax",%progbits
 1099              		.align	1
 1100              		.p2align 2,,3
 1101              		.global	lv_style_set_bg_img_tiled
 1102              		.syntax unified
 1103              		.thumb
 1104              		.thumb_func
 1106              	lv_style_set_bg_img_tiled:
 1107              	.LVL105:
 1108              	.LFB89:
 281:Drivers/lvgl/src/misc/lv_style_gen.c **** }
 282:Drivers/lvgl/src/misc/lv_style_gen.c **** 
 283:Drivers/lvgl/src/misc/lv_style_gen.c **** void lv_style_set_bg_img_tiled(lv_style_t * style, bool value)
 284:Drivers/lvgl/src/misc/lv_style_gen.c **** {
ARM GAS  /var/folders/0z/tsy30v1j4xl4_7kw94k978ww0000gn/T//ccqJTzTx.s 			page 25


 1109              		.loc 1 284 1 is_stmt 1 view -0
 1110              		.cfi_startproc
 1111              		@ args = 0, pretend = 0, frame = 0
 1112              		@ frame_needed = 0, uses_anonymous_args = 0
 1113              		@ link register save eliminated.
 285:Drivers/lvgl/src/misc/lv_style_gen.c ****     lv_style_value_t v = {
 1114              		.loc 1 285 5 view .LVU255
 286:Drivers/lvgl/src/misc/lv_style_gen.c ****         .num = (int32_t)value
 287:Drivers/lvgl/src/misc/lv_style_gen.c ****     };
 288:Drivers/lvgl/src/misc/lv_style_gen.c ****     lv_style_set_prop(style, LV_STYLE_BG_IMG_TILED, v);
 1115              		.loc 1 288 5 view .LVU256
 284:Drivers/lvgl/src/misc/lv_style_gen.c ****     lv_style_value_t v = {
 1116              		.loc 1 284 1 is_stmt 0 view .LVU257
 1117 0000 0A46     		mov	r2, r1
 1118              		.loc 1 288 5 view .LVU258
 1119 0002 2C21     		movs	r1, #44
 1120              	.LVL106:
 1121              		.loc 1 288 5 view .LVU259
 1122 0004 FFF7FEBF 		b	lv_style_set_prop
 1123              	.LVL107:
 1124              		.loc 1 288 5 view .LVU260
 1125              		.cfi_endproc
 1126              	.LFE89:
 1128              		.section	.text.lv_style_set_border_color,"ax",%progbits
 1129              		.align	1
 1130              		.p2align 2,,3
 1131              		.global	lv_style_set_border_color
 1132              		.syntax unified
 1133              		.thumb
 1134              		.thumb_func
 1136              	lv_style_set_border_color:
 1137              	.LVL108:
 1138              	.LFB90:
 289:Drivers/lvgl/src/misc/lv_style_gen.c **** }
 290:Drivers/lvgl/src/misc/lv_style_gen.c **** 
 291:Drivers/lvgl/src/misc/lv_style_gen.c **** void lv_style_set_border_color(lv_style_t * style, lv_color_t value)
 292:Drivers/lvgl/src/misc/lv_style_gen.c **** {
 1139              		.loc 1 292 1 is_stmt 1 view -0
 1140              		.cfi_startproc
 1141              		@ args = 0, pretend = 0, frame = 8
 1142              		@ frame_needed = 0, uses_anonymous_args = 0
 1143              		@ link register save eliminated.
 293:Drivers/lvgl/src/misc/lv_style_gen.c ****     lv_style_value_t v = {
 1144              		.loc 1 293 5 view .LVU262
 294:Drivers/lvgl/src/misc/lv_style_gen.c ****         .color = value
 295:Drivers/lvgl/src/misc/lv_style_gen.c ****     };
 296:Drivers/lvgl/src/misc/lv_style_gen.c ****     lv_style_set_prop(style, LV_STYLE_BORDER_COLOR, v);
 1145              		.loc 1 296 5 view .LVU263
 292:Drivers/lvgl/src/misc/lv_style_gen.c ****     lv_style_value_t v = {
 1146              		.loc 1 292 1 is_stmt 0 view .LVU264
 1147 0000 82B0     		sub	sp, sp, #8
 1148              		.cfi_def_cfa_offset 8
 293:Drivers/lvgl/src/misc/lv_style_gen.c ****     lv_style_value_t v = {
 1149              		.loc 1 293 22 view .LVU265
 1150 0002 0023     		movs	r3, #0
 1151              		.loc 1 296 5 view .LVU266
 1152 0004 8AB2     		uxth	r2, r1
ARM GAS  /var/folders/0z/tsy30v1j4xl4_7kw94k978ww0000gn/T//ccqJTzTx.s 			page 26


 1153 0006 3021     		movs	r1, #48
 1154              	.LVL109:
 293:Drivers/lvgl/src/misc/lv_style_gen.c ****     lv_style_value_t v = {
 1155              		.loc 1 293 22 view .LVU267
 1156 0008 ADF80030 		strh	r3, [sp]	@ movhi
 297:Drivers/lvgl/src/misc/lv_style_gen.c **** }
 1157              		.loc 1 297 1 view .LVU268
 1158 000c 02B0     		add	sp, sp, #8
 1159              		.cfi_def_cfa_offset 0
 1160              		@ sp needed
 296:Drivers/lvgl/src/misc/lv_style_gen.c **** }
 1161              		.loc 1 296 5 view .LVU269
 1162 000e FFF7FEBF 		b	lv_style_set_prop
 1163              	.LVL110:
 296:Drivers/lvgl/src/misc/lv_style_gen.c **** }
 1164              		.loc 1 296 5 view .LVU270
 1165              		.cfi_endproc
 1166              	.LFE90:
 1168 0012 00BF     		.section	.text.lv_style_set_border_opa,"ax",%progbits
 1169              		.align	1
 1170              		.p2align 2,,3
 1171              		.global	lv_style_set_border_opa
 1172              		.syntax unified
 1173              		.thumb
 1174              		.thumb_func
 1176              	lv_style_set_border_opa:
 1177              	.LVL111:
 1178              	.LFB91:
 298:Drivers/lvgl/src/misc/lv_style_gen.c **** 
 299:Drivers/lvgl/src/misc/lv_style_gen.c **** void lv_style_set_border_opa(lv_style_t * style, lv_opa_t value)
 300:Drivers/lvgl/src/misc/lv_style_gen.c **** {
 1179              		.loc 1 300 1 is_stmt 1 view -0
 1180              		.cfi_startproc
 1181              		@ args = 0, pretend = 0, frame = 0
 1182              		@ frame_needed = 0, uses_anonymous_args = 0
 1183              		@ link register save eliminated.
 301:Drivers/lvgl/src/misc/lv_style_gen.c ****     lv_style_value_t v = {
 1184              		.loc 1 301 5 view .LVU272
 302:Drivers/lvgl/src/misc/lv_style_gen.c ****         .num = (int32_t)value
 303:Drivers/lvgl/src/misc/lv_style_gen.c ****     };
 304:Drivers/lvgl/src/misc/lv_style_gen.c ****     lv_style_set_prop(style, LV_STYLE_BORDER_OPA, v);
 1185              		.loc 1 304 5 view .LVU273
 300:Drivers/lvgl/src/misc/lv_style_gen.c ****     lv_style_value_t v = {
 1186              		.loc 1 300 1 is_stmt 0 view .LVU274
 1187 0000 0A46     		mov	r2, r1
 1188              		.loc 1 304 5 view .LVU275
 1189 0002 3121     		movs	r1, #49
 1190              	.LVL112:
 1191              		.loc 1 304 5 view .LVU276
 1192 0004 FFF7FEBF 		b	lv_style_set_prop
 1193              	.LVL113:
 1194              		.loc 1 304 5 view .LVU277
 1195              		.cfi_endproc
 1196              	.LFE91:
 1198              		.section	.text.lv_style_set_border_width,"ax",%progbits
 1199              		.align	1
 1200              		.p2align 2,,3
ARM GAS  /var/folders/0z/tsy30v1j4xl4_7kw94k978ww0000gn/T//ccqJTzTx.s 			page 27


 1201              		.global	lv_style_set_border_width
 1202              		.syntax unified
 1203              		.thumb
 1204              		.thumb_func
 1206              	lv_style_set_border_width:
 1207              	.LVL114:
 1208              	.LFB92:
 305:Drivers/lvgl/src/misc/lv_style_gen.c **** }
 306:Drivers/lvgl/src/misc/lv_style_gen.c **** 
 307:Drivers/lvgl/src/misc/lv_style_gen.c **** void lv_style_set_border_width(lv_style_t * style, lv_coord_t value)
 308:Drivers/lvgl/src/misc/lv_style_gen.c **** {
 1209              		.loc 1 308 1 is_stmt 1 view -0
 1210              		.cfi_startproc
 1211              		@ args = 0, pretend = 0, frame = 0
 1212              		@ frame_needed = 0, uses_anonymous_args = 0
 1213              		@ link register save eliminated.
 309:Drivers/lvgl/src/misc/lv_style_gen.c ****     lv_style_value_t v = {
 1214              		.loc 1 309 5 view .LVU279
 310:Drivers/lvgl/src/misc/lv_style_gen.c ****         .num = (int32_t)value
 311:Drivers/lvgl/src/misc/lv_style_gen.c ****     };
 312:Drivers/lvgl/src/misc/lv_style_gen.c ****     lv_style_set_prop(style, LV_STYLE_BORDER_WIDTH, v);
 1215              		.loc 1 312 5 view .LVU280
 308:Drivers/lvgl/src/misc/lv_style_gen.c ****     lv_style_value_t v = {
 1216              		.loc 1 308 1 is_stmt 0 view .LVU281
 1217 0000 0A46     		mov	r2, r1
 1218              		.loc 1 312 5 view .LVU282
 1219 0002 3221     		movs	r1, #50
 1220              	.LVL115:
 1221              		.loc 1 312 5 view .LVU283
 1222 0004 FFF7FEBF 		b	lv_style_set_prop
 1223              	.LVL116:
 1224              		.loc 1 312 5 view .LVU284
 1225              		.cfi_endproc
 1226              	.LFE92:
 1228              		.section	.text.lv_style_set_border_side,"ax",%progbits
 1229              		.align	1
 1230              		.p2align 2,,3
 1231              		.global	lv_style_set_border_side
 1232              		.syntax unified
 1233              		.thumb
 1234              		.thumb_func
 1236              	lv_style_set_border_side:
 1237              	.LVL117:
 1238              	.LFB93:
 313:Drivers/lvgl/src/misc/lv_style_gen.c **** }
 314:Drivers/lvgl/src/misc/lv_style_gen.c **** 
 315:Drivers/lvgl/src/misc/lv_style_gen.c **** void lv_style_set_border_side(lv_style_t * style, lv_border_side_t value)
 316:Drivers/lvgl/src/misc/lv_style_gen.c **** {
 1239              		.loc 1 316 1 is_stmt 1 view -0
 1240              		.cfi_startproc
 1241              		@ args = 0, pretend = 0, frame = 0
 1242              		@ frame_needed = 0, uses_anonymous_args = 0
 1243              		@ link register save eliminated.
 317:Drivers/lvgl/src/misc/lv_style_gen.c ****     lv_style_value_t v = {
 1244              		.loc 1 317 5 view .LVU286
 318:Drivers/lvgl/src/misc/lv_style_gen.c ****         .num = (int32_t)value
 319:Drivers/lvgl/src/misc/lv_style_gen.c ****     };
ARM GAS  /var/folders/0z/tsy30v1j4xl4_7kw94k978ww0000gn/T//ccqJTzTx.s 			page 28


 320:Drivers/lvgl/src/misc/lv_style_gen.c ****     lv_style_set_prop(style, LV_STYLE_BORDER_SIDE, v);
 1245              		.loc 1 320 5 view .LVU287
 316:Drivers/lvgl/src/misc/lv_style_gen.c ****     lv_style_value_t v = {
 1246              		.loc 1 316 1 is_stmt 0 view .LVU288
 1247 0000 0A46     		mov	r2, r1
 1248              		.loc 1 320 5 view .LVU289
 1249 0002 3321     		movs	r1, #51
 1250              	.LVL118:
 1251              		.loc 1 320 5 view .LVU290
 1252 0004 FFF7FEBF 		b	lv_style_set_prop
 1253              	.LVL119:
 1254              		.loc 1 320 5 view .LVU291
 1255              		.cfi_endproc
 1256              	.LFE93:
 1258              		.section	.text.lv_style_set_border_post,"ax",%progbits
 1259              		.align	1
 1260              		.p2align 2,,3
 1261              		.global	lv_style_set_border_post
 1262              		.syntax unified
 1263              		.thumb
 1264              		.thumb_func
 1266              	lv_style_set_border_post:
 1267              	.LVL120:
 1268              	.LFB94:
 321:Drivers/lvgl/src/misc/lv_style_gen.c **** }
 322:Drivers/lvgl/src/misc/lv_style_gen.c **** 
 323:Drivers/lvgl/src/misc/lv_style_gen.c **** void lv_style_set_border_post(lv_style_t * style, bool value)
 324:Drivers/lvgl/src/misc/lv_style_gen.c **** {
 1269              		.loc 1 324 1 is_stmt 1 view -0
 1270              		.cfi_startproc
 1271              		@ args = 0, pretend = 0, frame = 0
 1272              		@ frame_needed = 0, uses_anonymous_args = 0
 1273              		@ link register save eliminated.
 325:Drivers/lvgl/src/misc/lv_style_gen.c ****     lv_style_value_t v = {
 1274              		.loc 1 325 5 view .LVU293
 326:Drivers/lvgl/src/misc/lv_style_gen.c ****         .num = (int32_t)value
 327:Drivers/lvgl/src/misc/lv_style_gen.c ****     };
 328:Drivers/lvgl/src/misc/lv_style_gen.c ****     lv_style_set_prop(style, LV_STYLE_BORDER_POST, v);
 1275              		.loc 1 328 5 view .LVU294
 324:Drivers/lvgl/src/misc/lv_style_gen.c ****     lv_style_value_t v = {
 1276              		.loc 1 324 1 is_stmt 0 view .LVU295
 1277 0000 0A46     		mov	r2, r1
 1278              		.loc 1 328 5 view .LVU296
 1279 0002 3421     		movs	r1, #52
 1280              	.LVL121:
 1281              		.loc 1 328 5 view .LVU297
 1282 0004 FFF7FEBF 		b	lv_style_set_prop
 1283              	.LVL122:
 1284              		.loc 1 328 5 view .LVU298
 1285              		.cfi_endproc
 1286              	.LFE94:
 1288              		.section	.text.lv_style_set_outline_width,"ax",%progbits
 1289              		.align	1
 1290              		.p2align 2,,3
 1291              		.global	lv_style_set_outline_width
 1292              		.syntax unified
 1293              		.thumb
ARM GAS  /var/folders/0z/tsy30v1j4xl4_7kw94k978ww0000gn/T//ccqJTzTx.s 			page 29


 1294              		.thumb_func
 1296              	lv_style_set_outline_width:
 1297              	.LVL123:
 1298              	.LFB95:
 329:Drivers/lvgl/src/misc/lv_style_gen.c **** }
 330:Drivers/lvgl/src/misc/lv_style_gen.c **** 
 331:Drivers/lvgl/src/misc/lv_style_gen.c **** void lv_style_set_outline_width(lv_style_t * style, lv_coord_t value)
 332:Drivers/lvgl/src/misc/lv_style_gen.c **** {
 1299              		.loc 1 332 1 is_stmt 1 view -0
 1300              		.cfi_startproc
 1301              		@ args = 0, pretend = 0, frame = 0
 1302              		@ frame_needed = 0, uses_anonymous_args = 0
 1303              		@ link register save eliminated.
 333:Drivers/lvgl/src/misc/lv_style_gen.c ****     lv_style_value_t v = {
 1304              		.loc 1 333 5 view .LVU300
 334:Drivers/lvgl/src/misc/lv_style_gen.c ****         .num = (int32_t)value
 335:Drivers/lvgl/src/misc/lv_style_gen.c ****     };
 336:Drivers/lvgl/src/misc/lv_style_gen.c ****     lv_style_set_prop(style, LV_STYLE_OUTLINE_WIDTH, v);
 1305              		.loc 1 336 5 view .LVU301
 332:Drivers/lvgl/src/misc/lv_style_gen.c ****     lv_style_value_t v = {
 1306              		.loc 1 332 1 is_stmt 0 view .LVU302
 1307 0000 0A46     		mov	r2, r1
 1308              		.loc 1 336 5 view .LVU303
 1309 0002 3521     		movs	r1, #53
 1310              	.LVL124:
 1311              		.loc 1 336 5 view .LVU304
 1312 0004 FFF7FEBF 		b	lv_style_set_prop
 1313              	.LVL125:
 1314              		.loc 1 336 5 view .LVU305
 1315              		.cfi_endproc
 1316              	.LFE95:
 1318              		.section	.text.lv_style_set_outline_color,"ax",%progbits
 1319              		.align	1
 1320              		.p2align 2,,3
 1321              		.global	lv_style_set_outline_color
 1322              		.syntax unified
 1323              		.thumb
 1324              		.thumb_func
 1326              	lv_style_set_outline_color:
 1327              	.LVL126:
 1328              	.LFB96:
 337:Drivers/lvgl/src/misc/lv_style_gen.c **** }
 338:Drivers/lvgl/src/misc/lv_style_gen.c **** 
 339:Drivers/lvgl/src/misc/lv_style_gen.c **** void lv_style_set_outline_color(lv_style_t * style, lv_color_t value)
 340:Drivers/lvgl/src/misc/lv_style_gen.c **** {
 1329              		.loc 1 340 1 is_stmt 1 view -0
 1330              		.cfi_startproc
 1331              		@ args = 0, pretend = 0, frame = 8
 1332              		@ frame_needed = 0, uses_anonymous_args = 0
 1333              		@ link register save eliminated.
 341:Drivers/lvgl/src/misc/lv_style_gen.c ****     lv_style_value_t v = {
 1334              		.loc 1 341 5 view .LVU307
 342:Drivers/lvgl/src/misc/lv_style_gen.c ****         .color = value
 343:Drivers/lvgl/src/misc/lv_style_gen.c ****     };
 344:Drivers/lvgl/src/misc/lv_style_gen.c ****     lv_style_set_prop(style, LV_STYLE_OUTLINE_COLOR, v);
 1335              		.loc 1 344 5 view .LVU308
 340:Drivers/lvgl/src/misc/lv_style_gen.c ****     lv_style_value_t v = {
ARM GAS  /var/folders/0z/tsy30v1j4xl4_7kw94k978ww0000gn/T//ccqJTzTx.s 			page 30


 1336              		.loc 1 340 1 is_stmt 0 view .LVU309
 1337 0000 82B0     		sub	sp, sp, #8
 1338              		.cfi_def_cfa_offset 8
 341:Drivers/lvgl/src/misc/lv_style_gen.c ****     lv_style_value_t v = {
 1339              		.loc 1 341 22 view .LVU310
 1340 0002 0023     		movs	r3, #0
 1341              		.loc 1 344 5 view .LVU311
 1342 0004 8AB2     		uxth	r2, r1
 1343 0006 3621     		movs	r1, #54
 1344              	.LVL127:
 341:Drivers/lvgl/src/misc/lv_style_gen.c ****     lv_style_value_t v = {
 1345              		.loc 1 341 22 view .LVU312
 1346 0008 ADF80030 		strh	r3, [sp]	@ movhi
 345:Drivers/lvgl/src/misc/lv_style_gen.c **** }
 1347              		.loc 1 345 1 view .LVU313
 1348 000c 02B0     		add	sp, sp, #8
 1349              		.cfi_def_cfa_offset 0
 1350              		@ sp needed
 344:Drivers/lvgl/src/misc/lv_style_gen.c **** }
 1351              		.loc 1 344 5 view .LVU314
 1352 000e FFF7FEBF 		b	lv_style_set_prop
 1353              	.LVL128:
 344:Drivers/lvgl/src/misc/lv_style_gen.c **** }
 1354              		.loc 1 344 5 view .LVU315
 1355              		.cfi_endproc
 1356              	.LFE96:
 1358 0012 00BF     		.section	.text.lv_style_set_outline_opa,"ax",%progbits
 1359              		.align	1
 1360              		.p2align 2,,3
 1361              		.global	lv_style_set_outline_opa
 1362              		.syntax unified
 1363              		.thumb
 1364              		.thumb_func
 1366              	lv_style_set_outline_opa:
 1367              	.LVL129:
 1368              	.LFB97:
 346:Drivers/lvgl/src/misc/lv_style_gen.c **** 
 347:Drivers/lvgl/src/misc/lv_style_gen.c **** void lv_style_set_outline_opa(lv_style_t * style, lv_opa_t value)
 348:Drivers/lvgl/src/misc/lv_style_gen.c **** {
 1369              		.loc 1 348 1 is_stmt 1 view -0
 1370              		.cfi_startproc
 1371              		@ args = 0, pretend = 0, frame = 0
 1372              		@ frame_needed = 0, uses_anonymous_args = 0
 1373              		@ link register save eliminated.
 349:Drivers/lvgl/src/misc/lv_style_gen.c ****     lv_style_value_t v = {
 1374              		.loc 1 349 5 view .LVU317
 350:Drivers/lvgl/src/misc/lv_style_gen.c ****         .num = (int32_t)value
 351:Drivers/lvgl/src/misc/lv_style_gen.c ****     };
 352:Drivers/lvgl/src/misc/lv_style_gen.c ****     lv_style_set_prop(style, LV_STYLE_OUTLINE_OPA, v);
 1375              		.loc 1 352 5 view .LVU318
 348:Drivers/lvgl/src/misc/lv_style_gen.c ****     lv_style_value_t v = {
 1376              		.loc 1 348 1 is_stmt 0 view .LVU319
 1377 0000 0A46     		mov	r2, r1
 1378              		.loc 1 352 5 view .LVU320
 1379 0002 3721     		movs	r1, #55
 1380              	.LVL130:
 1381              		.loc 1 352 5 view .LVU321
ARM GAS  /var/folders/0z/tsy30v1j4xl4_7kw94k978ww0000gn/T//ccqJTzTx.s 			page 31


 1382 0004 FFF7FEBF 		b	lv_style_set_prop
 1383              	.LVL131:
 1384              		.loc 1 352 5 view .LVU322
 1385              		.cfi_endproc
 1386              	.LFE97:
 1388              		.section	.text.lv_style_set_outline_pad,"ax",%progbits
 1389              		.align	1
 1390              		.p2align 2,,3
 1391              		.global	lv_style_set_outline_pad
 1392              		.syntax unified
 1393              		.thumb
 1394              		.thumb_func
 1396              	lv_style_set_outline_pad:
 1397              	.LVL132:
 1398              	.LFB98:
 353:Drivers/lvgl/src/misc/lv_style_gen.c **** }
 354:Drivers/lvgl/src/misc/lv_style_gen.c **** 
 355:Drivers/lvgl/src/misc/lv_style_gen.c **** void lv_style_set_outline_pad(lv_style_t * style, lv_coord_t value)
 356:Drivers/lvgl/src/misc/lv_style_gen.c **** {
 1399              		.loc 1 356 1 is_stmt 1 view -0
 1400              		.cfi_startproc
 1401              		@ args = 0, pretend = 0, frame = 0
 1402              		@ frame_needed = 0, uses_anonymous_args = 0
 1403              		@ link register save eliminated.
 357:Drivers/lvgl/src/misc/lv_style_gen.c ****     lv_style_value_t v = {
 1404              		.loc 1 357 5 view .LVU324
 358:Drivers/lvgl/src/misc/lv_style_gen.c ****         .num = (int32_t)value
 359:Drivers/lvgl/src/misc/lv_style_gen.c ****     };
 360:Drivers/lvgl/src/misc/lv_style_gen.c ****     lv_style_set_prop(style, LV_STYLE_OUTLINE_PAD, v);
 1405              		.loc 1 360 5 view .LVU325
 356:Drivers/lvgl/src/misc/lv_style_gen.c ****     lv_style_value_t v = {
 1406              		.loc 1 356 1 is_stmt 0 view .LVU326
 1407 0000 0A46     		mov	r2, r1
 1408              		.loc 1 360 5 view .LVU327
 1409 0002 3821     		movs	r1, #56
 1410              	.LVL133:
 1411              		.loc 1 360 5 view .LVU328
 1412 0004 FFF7FEBF 		b	lv_style_set_prop
 1413              	.LVL134:
 1414              		.loc 1 360 5 view .LVU329
 1415              		.cfi_endproc
 1416              	.LFE98:
 1418              		.section	.text.lv_style_set_shadow_width,"ax",%progbits
 1419              		.align	1
 1420              		.p2align 2,,3
 1421              		.global	lv_style_set_shadow_width
 1422              		.syntax unified
 1423              		.thumb
 1424              		.thumb_func
 1426              	lv_style_set_shadow_width:
 1427              	.LVL135:
 1428              	.LFB99:
 361:Drivers/lvgl/src/misc/lv_style_gen.c **** }
 362:Drivers/lvgl/src/misc/lv_style_gen.c **** 
 363:Drivers/lvgl/src/misc/lv_style_gen.c **** void lv_style_set_shadow_width(lv_style_t * style, lv_coord_t value)
 364:Drivers/lvgl/src/misc/lv_style_gen.c **** {
 1429              		.loc 1 364 1 is_stmt 1 view -0
ARM GAS  /var/folders/0z/tsy30v1j4xl4_7kw94k978ww0000gn/T//ccqJTzTx.s 			page 32


 1430              		.cfi_startproc
 1431              		@ args = 0, pretend = 0, frame = 0
 1432              		@ frame_needed = 0, uses_anonymous_args = 0
 1433              		@ link register save eliminated.
 365:Drivers/lvgl/src/misc/lv_style_gen.c ****     lv_style_value_t v = {
 1434              		.loc 1 365 5 view .LVU331
 366:Drivers/lvgl/src/misc/lv_style_gen.c ****         .num = (int32_t)value
 367:Drivers/lvgl/src/misc/lv_style_gen.c ****     };
 368:Drivers/lvgl/src/misc/lv_style_gen.c ****     lv_style_set_prop(style, LV_STYLE_SHADOW_WIDTH, v);
 1435              		.loc 1 368 5 view .LVU332
 364:Drivers/lvgl/src/misc/lv_style_gen.c ****     lv_style_value_t v = {
 1436              		.loc 1 364 1 is_stmt 0 view .LVU333
 1437 0000 0A46     		mov	r2, r1
 1438              		.loc 1 368 5 view .LVU334
 1439 0002 4021     		movs	r1, #64
 1440              	.LVL136:
 1441              		.loc 1 368 5 view .LVU335
 1442 0004 FFF7FEBF 		b	lv_style_set_prop
 1443              	.LVL137:
 1444              		.loc 1 368 5 view .LVU336
 1445              		.cfi_endproc
 1446              	.LFE99:
 1448              		.section	.text.lv_style_set_shadow_ofs_x,"ax",%progbits
 1449              		.align	1
 1450              		.p2align 2,,3
 1451              		.global	lv_style_set_shadow_ofs_x
 1452              		.syntax unified
 1453              		.thumb
 1454              		.thumb_func
 1456              	lv_style_set_shadow_ofs_x:
 1457              	.LVL138:
 1458              	.LFB100:
 369:Drivers/lvgl/src/misc/lv_style_gen.c **** }
 370:Drivers/lvgl/src/misc/lv_style_gen.c **** 
 371:Drivers/lvgl/src/misc/lv_style_gen.c **** void lv_style_set_shadow_ofs_x(lv_style_t * style, lv_coord_t value)
 372:Drivers/lvgl/src/misc/lv_style_gen.c **** {
 1459              		.loc 1 372 1 is_stmt 1 view -0
 1460              		.cfi_startproc
 1461              		@ args = 0, pretend = 0, frame = 0
 1462              		@ frame_needed = 0, uses_anonymous_args = 0
 1463              		@ link register save eliminated.
 373:Drivers/lvgl/src/misc/lv_style_gen.c ****     lv_style_value_t v = {
 1464              		.loc 1 373 5 view .LVU338
 374:Drivers/lvgl/src/misc/lv_style_gen.c ****         .num = (int32_t)value
 375:Drivers/lvgl/src/misc/lv_style_gen.c ****     };
 376:Drivers/lvgl/src/misc/lv_style_gen.c ****     lv_style_set_prop(style, LV_STYLE_SHADOW_OFS_X, v);
 1465              		.loc 1 376 5 view .LVU339
 372:Drivers/lvgl/src/misc/lv_style_gen.c ****     lv_style_value_t v = {
 1466              		.loc 1 372 1 is_stmt 0 view .LVU340
 1467 0000 0A46     		mov	r2, r1
 1468              		.loc 1 376 5 view .LVU341
 1469 0002 4121     		movs	r1, #65
 1470              	.LVL139:
 1471              		.loc 1 376 5 view .LVU342
 1472 0004 FFF7FEBF 		b	lv_style_set_prop
 1473              	.LVL140:
 1474              		.loc 1 376 5 view .LVU343
ARM GAS  /var/folders/0z/tsy30v1j4xl4_7kw94k978ww0000gn/T//ccqJTzTx.s 			page 33


 1475              		.cfi_endproc
 1476              	.LFE100:
 1478              		.section	.text.lv_style_set_shadow_ofs_y,"ax",%progbits
 1479              		.align	1
 1480              		.p2align 2,,3
 1481              		.global	lv_style_set_shadow_ofs_y
 1482              		.syntax unified
 1483              		.thumb
 1484              		.thumb_func
 1486              	lv_style_set_shadow_ofs_y:
 1487              	.LVL141:
 1488              	.LFB101:
 377:Drivers/lvgl/src/misc/lv_style_gen.c **** }
 378:Drivers/lvgl/src/misc/lv_style_gen.c **** 
 379:Drivers/lvgl/src/misc/lv_style_gen.c **** void lv_style_set_shadow_ofs_y(lv_style_t * style, lv_coord_t value)
 380:Drivers/lvgl/src/misc/lv_style_gen.c **** {
 1489              		.loc 1 380 1 is_stmt 1 view -0
 1490              		.cfi_startproc
 1491              		@ args = 0, pretend = 0, frame = 0
 1492              		@ frame_needed = 0, uses_anonymous_args = 0
 1493              		@ link register save eliminated.
 381:Drivers/lvgl/src/misc/lv_style_gen.c ****     lv_style_value_t v = {
 1494              		.loc 1 381 5 view .LVU345
 382:Drivers/lvgl/src/misc/lv_style_gen.c ****         .num = (int32_t)value
 383:Drivers/lvgl/src/misc/lv_style_gen.c ****     };
 384:Drivers/lvgl/src/misc/lv_style_gen.c ****     lv_style_set_prop(style, LV_STYLE_SHADOW_OFS_Y, v);
 1495              		.loc 1 384 5 view .LVU346
 380:Drivers/lvgl/src/misc/lv_style_gen.c ****     lv_style_value_t v = {
 1496              		.loc 1 380 1 is_stmt 0 view .LVU347
 1497 0000 0A46     		mov	r2, r1
 1498              		.loc 1 384 5 view .LVU348
 1499 0002 4221     		movs	r1, #66
 1500              	.LVL142:
 1501              		.loc 1 384 5 view .LVU349
 1502 0004 FFF7FEBF 		b	lv_style_set_prop
 1503              	.LVL143:
 1504              		.loc 1 384 5 view .LVU350
 1505              		.cfi_endproc
 1506              	.LFE101:
 1508              		.section	.text.lv_style_set_shadow_spread,"ax",%progbits
 1509              		.align	1
 1510              		.p2align 2,,3
 1511              		.global	lv_style_set_shadow_spread
 1512              		.syntax unified
 1513              		.thumb
 1514              		.thumb_func
 1516              	lv_style_set_shadow_spread:
 1517              	.LVL144:
 1518              	.LFB102:
 385:Drivers/lvgl/src/misc/lv_style_gen.c **** }
 386:Drivers/lvgl/src/misc/lv_style_gen.c **** 
 387:Drivers/lvgl/src/misc/lv_style_gen.c **** void lv_style_set_shadow_spread(lv_style_t * style, lv_coord_t value)
 388:Drivers/lvgl/src/misc/lv_style_gen.c **** {
 1519              		.loc 1 388 1 is_stmt 1 view -0
 1520              		.cfi_startproc
 1521              		@ args = 0, pretend = 0, frame = 0
 1522              		@ frame_needed = 0, uses_anonymous_args = 0
ARM GAS  /var/folders/0z/tsy30v1j4xl4_7kw94k978ww0000gn/T//ccqJTzTx.s 			page 34


 1523              		@ link register save eliminated.
 389:Drivers/lvgl/src/misc/lv_style_gen.c ****     lv_style_value_t v = {
 1524              		.loc 1 389 5 view .LVU352
 390:Drivers/lvgl/src/misc/lv_style_gen.c ****         .num = (int32_t)value
 391:Drivers/lvgl/src/misc/lv_style_gen.c ****     };
 392:Drivers/lvgl/src/misc/lv_style_gen.c ****     lv_style_set_prop(style, LV_STYLE_SHADOW_SPREAD, v);
 1525              		.loc 1 392 5 view .LVU353
 388:Drivers/lvgl/src/misc/lv_style_gen.c ****     lv_style_value_t v = {
 1526              		.loc 1 388 1 is_stmt 0 view .LVU354
 1527 0000 0A46     		mov	r2, r1
 1528              		.loc 1 392 5 view .LVU355
 1529 0002 4321     		movs	r1, #67
 1530              	.LVL145:
 1531              		.loc 1 392 5 view .LVU356
 1532 0004 FFF7FEBF 		b	lv_style_set_prop
 1533              	.LVL146:
 1534              		.loc 1 392 5 view .LVU357
 1535              		.cfi_endproc
 1536              	.LFE102:
 1538              		.section	.text.lv_style_set_shadow_color,"ax",%progbits
 1539              		.align	1
 1540              		.p2align 2,,3
 1541              		.global	lv_style_set_shadow_color
 1542              		.syntax unified
 1543              		.thumb
 1544              		.thumb_func
 1546              	lv_style_set_shadow_color:
 1547              	.LVL147:
 1548              	.LFB103:
 393:Drivers/lvgl/src/misc/lv_style_gen.c **** }
 394:Drivers/lvgl/src/misc/lv_style_gen.c **** 
 395:Drivers/lvgl/src/misc/lv_style_gen.c **** void lv_style_set_shadow_color(lv_style_t * style, lv_color_t value)
 396:Drivers/lvgl/src/misc/lv_style_gen.c **** {
 1549              		.loc 1 396 1 is_stmt 1 view -0
 1550              		.cfi_startproc
 1551              		@ args = 0, pretend = 0, frame = 8
 1552              		@ frame_needed = 0, uses_anonymous_args = 0
 1553              		@ link register save eliminated.
 397:Drivers/lvgl/src/misc/lv_style_gen.c ****     lv_style_value_t v = {
 1554              		.loc 1 397 5 view .LVU359
 398:Drivers/lvgl/src/misc/lv_style_gen.c ****         .color = value
 399:Drivers/lvgl/src/misc/lv_style_gen.c ****     };
 400:Drivers/lvgl/src/misc/lv_style_gen.c ****     lv_style_set_prop(style, LV_STYLE_SHADOW_COLOR, v);
 1555              		.loc 1 400 5 view .LVU360
 396:Drivers/lvgl/src/misc/lv_style_gen.c ****     lv_style_value_t v = {
 1556              		.loc 1 396 1 is_stmt 0 view .LVU361
 1557 0000 82B0     		sub	sp, sp, #8
 1558              		.cfi_def_cfa_offset 8
 397:Drivers/lvgl/src/misc/lv_style_gen.c ****     lv_style_value_t v = {
 1559              		.loc 1 397 22 view .LVU362
 1560 0002 0023     		movs	r3, #0
 1561              		.loc 1 400 5 view .LVU363
 1562 0004 8AB2     		uxth	r2, r1
 1563 0006 4421     		movs	r1, #68
 1564              	.LVL148:
 397:Drivers/lvgl/src/misc/lv_style_gen.c ****     lv_style_value_t v = {
 1565              		.loc 1 397 22 view .LVU364
ARM GAS  /var/folders/0z/tsy30v1j4xl4_7kw94k978ww0000gn/T//ccqJTzTx.s 			page 35


 1566 0008 ADF80030 		strh	r3, [sp]	@ movhi
 401:Drivers/lvgl/src/misc/lv_style_gen.c **** }
 1567              		.loc 1 401 1 view .LVU365
 1568 000c 02B0     		add	sp, sp, #8
 1569              		.cfi_def_cfa_offset 0
 1570              		@ sp needed
 400:Drivers/lvgl/src/misc/lv_style_gen.c **** }
 1571              		.loc 1 400 5 view .LVU366
 1572 000e FFF7FEBF 		b	lv_style_set_prop
 1573              	.LVL149:
 400:Drivers/lvgl/src/misc/lv_style_gen.c **** }
 1574              		.loc 1 400 5 view .LVU367
 1575              		.cfi_endproc
 1576              	.LFE103:
 1578 0012 00BF     		.section	.text.lv_style_set_shadow_opa,"ax",%progbits
 1579              		.align	1
 1580              		.p2align 2,,3
 1581              		.global	lv_style_set_shadow_opa
 1582              		.syntax unified
 1583              		.thumb
 1584              		.thumb_func
 1586              	lv_style_set_shadow_opa:
 1587              	.LVL150:
 1588              	.LFB104:
 402:Drivers/lvgl/src/misc/lv_style_gen.c **** 
 403:Drivers/lvgl/src/misc/lv_style_gen.c **** void lv_style_set_shadow_opa(lv_style_t * style, lv_opa_t value)
 404:Drivers/lvgl/src/misc/lv_style_gen.c **** {
 1589              		.loc 1 404 1 is_stmt 1 view -0
 1590              		.cfi_startproc
 1591              		@ args = 0, pretend = 0, frame = 0
 1592              		@ frame_needed = 0, uses_anonymous_args = 0
 1593              		@ link register save eliminated.
 405:Drivers/lvgl/src/misc/lv_style_gen.c ****     lv_style_value_t v = {
 1594              		.loc 1 405 5 view .LVU369
 406:Drivers/lvgl/src/misc/lv_style_gen.c ****         .num = (int32_t)value
 407:Drivers/lvgl/src/misc/lv_style_gen.c ****     };
 408:Drivers/lvgl/src/misc/lv_style_gen.c ****     lv_style_set_prop(style, LV_STYLE_SHADOW_OPA, v);
 1595              		.loc 1 408 5 view .LVU370
 404:Drivers/lvgl/src/misc/lv_style_gen.c ****     lv_style_value_t v = {
 1596              		.loc 1 404 1 is_stmt 0 view .LVU371
 1597 0000 0A46     		mov	r2, r1
 1598              		.loc 1 408 5 view .LVU372
 1599 0002 4521     		movs	r1, #69
 1600              	.LVL151:
 1601              		.loc 1 408 5 view .LVU373
 1602 0004 FFF7FEBF 		b	lv_style_set_prop
 1603              	.LVL152:
 1604              		.loc 1 408 5 view .LVU374
 1605              		.cfi_endproc
 1606              	.LFE104:
 1608              		.section	.text.lv_style_set_img_opa,"ax",%progbits
 1609              		.align	1
 1610              		.p2align 2,,3
 1611              		.global	lv_style_set_img_opa
 1612              		.syntax unified
 1613              		.thumb
 1614              		.thumb_func
ARM GAS  /var/folders/0z/tsy30v1j4xl4_7kw94k978ww0000gn/T//ccqJTzTx.s 			page 36


 1616              	lv_style_set_img_opa:
 1617              	.LVL153:
 1618              	.LFB105:
 409:Drivers/lvgl/src/misc/lv_style_gen.c **** }
 410:Drivers/lvgl/src/misc/lv_style_gen.c **** 
 411:Drivers/lvgl/src/misc/lv_style_gen.c **** void lv_style_set_img_opa(lv_style_t * style, lv_opa_t value)
 412:Drivers/lvgl/src/misc/lv_style_gen.c **** {
 1619              		.loc 1 412 1 is_stmt 1 view -0
 1620              		.cfi_startproc
 1621              		@ args = 0, pretend = 0, frame = 0
 1622              		@ frame_needed = 0, uses_anonymous_args = 0
 1623              		@ link register save eliminated.
 413:Drivers/lvgl/src/misc/lv_style_gen.c ****     lv_style_value_t v = {
 1624              		.loc 1 413 5 view .LVU376
 414:Drivers/lvgl/src/misc/lv_style_gen.c ****         .num = (int32_t)value
 415:Drivers/lvgl/src/misc/lv_style_gen.c ****     };
 416:Drivers/lvgl/src/misc/lv_style_gen.c ****     lv_style_set_prop(style, LV_STYLE_IMG_OPA, v);
 1625              		.loc 1 416 5 view .LVU377
 412:Drivers/lvgl/src/misc/lv_style_gen.c ****     lv_style_value_t v = {
 1626              		.loc 1 412 1 is_stmt 0 view .LVU378
 1627 0000 0A46     		mov	r2, r1
 1628              		.loc 1 416 5 view .LVU379
 1629 0002 4621     		movs	r1, #70
 1630              	.LVL154:
 1631              		.loc 1 416 5 view .LVU380
 1632 0004 FFF7FEBF 		b	lv_style_set_prop
 1633              	.LVL155:
 1634              		.loc 1 416 5 view .LVU381
 1635              		.cfi_endproc
 1636              	.LFE105:
 1638              		.section	.text.lv_style_set_img_recolor,"ax",%progbits
 1639              		.align	1
 1640              		.p2align 2,,3
 1641              		.global	lv_style_set_img_recolor
 1642              		.syntax unified
 1643              		.thumb
 1644              		.thumb_func
 1646              	lv_style_set_img_recolor:
 1647              	.LVL156:
 1648              	.LFB106:
 417:Drivers/lvgl/src/misc/lv_style_gen.c **** }
 418:Drivers/lvgl/src/misc/lv_style_gen.c **** 
 419:Drivers/lvgl/src/misc/lv_style_gen.c **** void lv_style_set_img_recolor(lv_style_t * style, lv_color_t value)
 420:Drivers/lvgl/src/misc/lv_style_gen.c **** {
 1649              		.loc 1 420 1 is_stmt 1 view -0
 1650              		.cfi_startproc
 1651              		@ args = 0, pretend = 0, frame = 8
 1652              		@ frame_needed = 0, uses_anonymous_args = 0
 1653              		@ link register save eliminated.
 421:Drivers/lvgl/src/misc/lv_style_gen.c ****     lv_style_value_t v = {
 1654              		.loc 1 421 5 view .LVU383
 422:Drivers/lvgl/src/misc/lv_style_gen.c ****         .color = value
 423:Drivers/lvgl/src/misc/lv_style_gen.c ****     };
 424:Drivers/lvgl/src/misc/lv_style_gen.c ****     lv_style_set_prop(style, LV_STYLE_IMG_RECOLOR, v);
 1655              		.loc 1 424 5 view .LVU384
 420:Drivers/lvgl/src/misc/lv_style_gen.c ****     lv_style_value_t v = {
 1656              		.loc 1 420 1 is_stmt 0 view .LVU385
ARM GAS  /var/folders/0z/tsy30v1j4xl4_7kw94k978ww0000gn/T//ccqJTzTx.s 			page 37


 1657 0000 82B0     		sub	sp, sp, #8
 1658              		.cfi_def_cfa_offset 8
 421:Drivers/lvgl/src/misc/lv_style_gen.c ****     lv_style_value_t v = {
 1659              		.loc 1 421 22 view .LVU386
 1660 0002 0023     		movs	r3, #0
 1661              		.loc 1 424 5 view .LVU387
 1662 0004 8AB2     		uxth	r2, r1
 1663 0006 4721     		movs	r1, #71
 1664              	.LVL157:
 421:Drivers/lvgl/src/misc/lv_style_gen.c ****     lv_style_value_t v = {
 1665              		.loc 1 421 22 view .LVU388
 1666 0008 ADF80030 		strh	r3, [sp]	@ movhi
 425:Drivers/lvgl/src/misc/lv_style_gen.c **** }
 1667              		.loc 1 425 1 view .LVU389
 1668 000c 02B0     		add	sp, sp, #8
 1669              		.cfi_def_cfa_offset 0
 1670              		@ sp needed
 424:Drivers/lvgl/src/misc/lv_style_gen.c **** }
 1671              		.loc 1 424 5 view .LVU390
 1672 000e FFF7FEBF 		b	lv_style_set_prop
 1673              	.LVL158:
 424:Drivers/lvgl/src/misc/lv_style_gen.c **** }
 1674              		.loc 1 424 5 view .LVU391
 1675              		.cfi_endproc
 1676              	.LFE106:
 1678 0012 00BF     		.section	.text.lv_style_set_img_recolor_opa,"ax",%progbits
 1679              		.align	1
 1680              		.p2align 2,,3
 1681              		.global	lv_style_set_img_recolor_opa
 1682              		.syntax unified
 1683              		.thumb
 1684              		.thumb_func
 1686              	lv_style_set_img_recolor_opa:
 1687              	.LVL159:
 1688              	.LFB107:
 426:Drivers/lvgl/src/misc/lv_style_gen.c **** 
 427:Drivers/lvgl/src/misc/lv_style_gen.c **** void lv_style_set_img_recolor_opa(lv_style_t * style, lv_opa_t value)
 428:Drivers/lvgl/src/misc/lv_style_gen.c **** {
 1689              		.loc 1 428 1 is_stmt 1 view -0
 1690              		.cfi_startproc
 1691              		@ args = 0, pretend = 0, frame = 0
 1692              		@ frame_needed = 0, uses_anonymous_args = 0
 1693              		@ link register save eliminated.
 429:Drivers/lvgl/src/misc/lv_style_gen.c ****     lv_style_value_t v = {
 1694              		.loc 1 429 5 view .LVU393
 430:Drivers/lvgl/src/misc/lv_style_gen.c ****         .num = (int32_t)value
 431:Drivers/lvgl/src/misc/lv_style_gen.c ****     };
 432:Drivers/lvgl/src/misc/lv_style_gen.c ****     lv_style_set_prop(style, LV_STYLE_IMG_RECOLOR_OPA, v);
 1695              		.loc 1 432 5 view .LVU394
 428:Drivers/lvgl/src/misc/lv_style_gen.c ****     lv_style_value_t v = {
 1696              		.loc 1 428 1 is_stmt 0 view .LVU395
 1697 0000 0A46     		mov	r2, r1
 1698              		.loc 1 432 5 view .LVU396
 1699 0002 4821     		movs	r1, #72
 1700              	.LVL160:
 1701              		.loc 1 432 5 view .LVU397
 1702 0004 FFF7FEBF 		b	lv_style_set_prop
ARM GAS  /var/folders/0z/tsy30v1j4xl4_7kw94k978ww0000gn/T//ccqJTzTx.s 			page 38


 1703              	.LVL161:
 1704              		.loc 1 432 5 view .LVU398
 1705              		.cfi_endproc
 1706              	.LFE107:
 1708              		.section	.text.lv_style_set_line_width,"ax",%progbits
 1709              		.align	1
 1710              		.p2align 2,,3
 1711              		.global	lv_style_set_line_width
 1712              		.syntax unified
 1713              		.thumb
 1714              		.thumb_func
 1716              	lv_style_set_line_width:
 1717              	.LVL162:
 1718              	.LFB108:
 433:Drivers/lvgl/src/misc/lv_style_gen.c **** }
 434:Drivers/lvgl/src/misc/lv_style_gen.c **** 
 435:Drivers/lvgl/src/misc/lv_style_gen.c **** void lv_style_set_line_width(lv_style_t * style, lv_coord_t value)
 436:Drivers/lvgl/src/misc/lv_style_gen.c **** {
 1719              		.loc 1 436 1 is_stmt 1 view -0
 1720              		.cfi_startproc
 1721              		@ args = 0, pretend = 0, frame = 0
 1722              		@ frame_needed = 0, uses_anonymous_args = 0
 1723              		@ link register save eliminated.
 437:Drivers/lvgl/src/misc/lv_style_gen.c ****     lv_style_value_t v = {
 1724              		.loc 1 437 5 view .LVU400
 438:Drivers/lvgl/src/misc/lv_style_gen.c ****         .num = (int32_t)value
 439:Drivers/lvgl/src/misc/lv_style_gen.c ****     };
 440:Drivers/lvgl/src/misc/lv_style_gen.c ****     lv_style_set_prop(style, LV_STYLE_LINE_WIDTH, v);
 1725              		.loc 1 440 5 view .LVU401
 436:Drivers/lvgl/src/misc/lv_style_gen.c ****     lv_style_value_t v = {
 1726              		.loc 1 436 1 is_stmt 0 view .LVU402
 1727 0000 0A46     		mov	r2, r1
 1728              		.loc 1 440 5 view .LVU403
 1729 0002 4921     		movs	r1, #73
 1730              	.LVL163:
 1731              		.loc 1 440 5 view .LVU404
 1732 0004 FFF7FEBF 		b	lv_style_set_prop
 1733              	.LVL164:
 1734              		.loc 1 440 5 view .LVU405
 1735              		.cfi_endproc
 1736              	.LFE108:
 1738              		.section	.text.lv_style_set_line_dash_width,"ax",%progbits
 1739              		.align	1
 1740              		.p2align 2,,3
 1741              		.global	lv_style_set_line_dash_width
 1742              		.syntax unified
 1743              		.thumb
 1744              		.thumb_func
 1746              	lv_style_set_line_dash_width:
 1747              	.LVL165:
 1748              	.LFB109:
 441:Drivers/lvgl/src/misc/lv_style_gen.c **** }
 442:Drivers/lvgl/src/misc/lv_style_gen.c **** 
 443:Drivers/lvgl/src/misc/lv_style_gen.c **** void lv_style_set_line_dash_width(lv_style_t * style, lv_coord_t value)
 444:Drivers/lvgl/src/misc/lv_style_gen.c **** {
 1749              		.loc 1 444 1 is_stmt 1 view -0
 1750              		.cfi_startproc
ARM GAS  /var/folders/0z/tsy30v1j4xl4_7kw94k978ww0000gn/T//ccqJTzTx.s 			page 39


 1751              		@ args = 0, pretend = 0, frame = 0
 1752              		@ frame_needed = 0, uses_anonymous_args = 0
 1753              		@ link register save eliminated.
 445:Drivers/lvgl/src/misc/lv_style_gen.c ****     lv_style_value_t v = {
 1754              		.loc 1 445 5 view .LVU407
 446:Drivers/lvgl/src/misc/lv_style_gen.c ****         .num = (int32_t)value
 447:Drivers/lvgl/src/misc/lv_style_gen.c ****     };
 448:Drivers/lvgl/src/misc/lv_style_gen.c ****     lv_style_set_prop(style, LV_STYLE_LINE_DASH_WIDTH, v);
 1755              		.loc 1 448 5 view .LVU408
 444:Drivers/lvgl/src/misc/lv_style_gen.c ****     lv_style_value_t v = {
 1756              		.loc 1 444 1 is_stmt 0 view .LVU409
 1757 0000 0A46     		mov	r2, r1
 1758              		.loc 1 448 5 view .LVU410
 1759 0002 4A21     		movs	r1, #74
 1760              	.LVL166:
 1761              		.loc 1 448 5 view .LVU411
 1762 0004 FFF7FEBF 		b	lv_style_set_prop
 1763              	.LVL167:
 1764              		.loc 1 448 5 view .LVU412
 1765              		.cfi_endproc
 1766              	.LFE109:
 1768              		.section	.text.lv_style_set_line_dash_gap,"ax",%progbits
 1769              		.align	1
 1770              		.p2align 2,,3
 1771              		.global	lv_style_set_line_dash_gap
 1772              		.syntax unified
 1773              		.thumb
 1774              		.thumb_func
 1776              	lv_style_set_line_dash_gap:
 1777              	.LVL168:
 1778              	.LFB110:
 449:Drivers/lvgl/src/misc/lv_style_gen.c **** }
 450:Drivers/lvgl/src/misc/lv_style_gen.c **** 
 451:Drivers/lvgl/src/misc/lv_style_gen.c **** void lv_style_set_line_dash_gap(lv_style_t * style, lv_coord_t value)
 452:Drivers/lvgl/src/misc/lv_style_gen.c **** {
 1779              		.loc 1 452 1 is_stmt 1 view -0
 1780              		.cfi_startproc
 1781              		@ args = 0, pretend = 0, frame = 0
 1782              		@ frame_needed = 0, uses_anonymous_args = 0
 1783              		@ link register save eliminated.
 453:Drivers/lvgl/src/misc/lv_style_gen.c ****     lv_style_value_t v = {
 1784              		.loc 1 453 5 view .LVU414
 454:Drivers/lvgl/src/misc/lv_style_gen.c ****         .num = (int32_t)value
 455:Drivers/lvgl/src/misc/lv_style_gen.c ****     };
 456:Drivers/lvgl/src/misc/lv_style_gen.c ****     lv_style_set_prop(style, LV_STYLE_LINE_DASH_GAP, v);
 1785              		.loc 1 456 5 view .LVU415
 452:Drivers/lvgl/src/misc/lv_style_gen.c ****     lv_style_value_t v = {
 1786              		.loc 1 452 1 is_stmt 0 view .LVU416
 1787 0000 0A46     		mov	r2, r1
 1788              		.loc 1 456 5 view .LVU417
 1789 0002 4B21     		movs	r1, #75
 1790              	.LVL169:
 1791              		.loc 1 456 5 view .LVU418
 1792 0004 FFF7FEBF 		b	lv_style_set_prop
 1793              	.LVL170:
 1794              		.loc 1 456 5 view .LVU419
 1795              		.cfi_endproc
ARM GAS  /var/folders/0z/tsy30v1j4xl4_7kw94k978ww0000gn/T//ccqJTzTx.s 			page 40


 1796              	.LFE110:
 1798              		.section	.text.lv_style_set_line_rounded,"ax",%progbits
 1799              		.align	1
 1800              		.p2align 2,,3
 1801              		.global	lv_style_set_line_rounded
 1802              		.syntax unified
 1803              		.thumb
 1804              		.thumb_func
 1806              	lv_style_set_line_rounded:
 1807              	.LVL171:
 1808              	.LFB111:
 457:Drivers/lvgl/src/misc/lv_style_gen.c **** }
 458:Drivers/lvgl/src/misc/lv_style_gen.c **** 
 459:Drivers/lvgl/src/misc/lv_style_gen.c **** void lv_style_set_line_rounded(lv_style_t * style, bool value)
 460:Drivers/lvgl/src/misc/lv_style_gen.c **** {
 1809              		.loc 1 460 1 is_stmt 1 view -0
 1810              		.cfi_startproc
 1811              		@ args = 0, pretend = 0, frame = 0
 1812              		@ frame_needed = 0, uses_anonymous_args = 0
 1813              		@ link register save eliminated.
 461:Drivers/lvgl/src/misc/lv_style_gen.c ****     lv_style_value_t v = {
 1814              		.loc 1 461 5 view .LVU421
 462:Drivers/lvgl/src/misc/lv_style_gen.c ****         .num = (int32_t)value
 463:Drivers/lvgl/src/misc/lv_style_gen.c ****     };
 464:Drivers/lvgl/src/misc/lv_style_gen.c ****     lv_style_set_prop(style, LV_STYLE_LINE_ROUNDED, v);
 1815              		.loc 1 464 5 view .LVU422
 460:Drivers/lvgl/src/misc/lv_style_gen.c ****     lv_style_value_t v = {
 1816              		.loc 1 460 1 is_stmt 0 view .LVU423
 1817 0000 0A46     		mov	r2, r1
 1818              		.loc 1 464 5 view .LVU424
 1819 0002 4C21     		movs	r1, #76
 1820              	.LVL172:
 1821              		.loc 1 464 5 view .LVU425
 1822 0004 FFF7FEBF 		b	lv_style_set_prop
 1823              	.LVL173:
 1824              		.loc 1 464 5 view .LVU426
 1825              		.cfi_endproc
 1826              	.LFE111:
 1828              		.section	.text.lv_style_set_line_color,"ax",%progbits
 1829              		.align	1
 1830              		.p2align 2,,3
 1831              		.global	lv_style_set_line_color
 1832              		.syntax unified
 1833              		.thumb
 1834              		.thumb_func
 1836              	lv_style_set_line_color:
 1837              	.LVL174:
 1838              	.LFB112:
 465:Drivers/lvgl/src/misc/lv_style_gen.c **** }
 466:Drivers/lvgl/src/misc/lv_style_gen.c **** 
 467:Drivers/lvgl/src/misc/lv_style_gen.c **** void lv_style_set_line_color(lv_style_t * style, lv_color_t value)
 468:Drivers/lvgl/src/misc/lv_style_gen.c **** {
 1839              		.loc 1 468 1 is_stmt 1 view -0
 1840              		.cfi_startproc
 1841              		@ args = 0, pretend = 0, frame = 8
 1842              		@ frame_needed = 0, uses_anonymous_args = 0
 1843              		@ link register save eliminated.
ARM GAS  /var/folders/0z/tsy30v1j4xl4_7kw94k978ww0000gn/T//ccqJTzTx.s 			page 41


 469:Drivers/lvgl/src/misc/lv_style_gen.c ****     lv_style_value_t v = {
 1844              		.loc 1 469 5 view .LVU428
 470:Drivers/lvgl/src/misc/lv_style_gen.c ****         .color = value
 471:Drivers/lvgl/src/misc/lv_style_gen.c ****     };
 472:Drivers/lvgl/src/misc/lv_style_gen.c ****     lv_style_set_prop(style, LV_STYLE_LINE_COLOR, v);
 1845              		.loc 1 472 5 view .LVU429
 468:Drivers/lvgl/src/misc/lv_style_gen.c ****     lv_style_value_t v = {
 1846              		.loc 1 468 1 is_stmt 0 view .LVU430
 1847 0000 82B0     		sub	sp, sp, #8
 1848              		.cfi_def_cfa_offset 8
 469:Drivers/lvgl/src/misc/lv_style_gen.c ****     lv_style_value_t v = {
 1849              		.loc 1 469 22 view .LVU431
 1850 0002 0023     		movs	r3, #0
 1851              		.loc 1 472 5 view .LVU432
 1852 0004 8AB2     		uxth	r2, r1
 1853 0006 4D21     		movs	r1, #77
 1854              	.LVL175:
 469:Drivers/lvgl/src/misc/lv_style_gen.c ****     lv_style_value_t v = {
 1855              		.loc 1 469 22 view .LVU433
 1856 0008 ADF80030 		strh	r3, [sp]	@ movhi
 473:Drivers/lvgl/src/misc/lv_style_gen.c **** }
 1857              		.loc 1 473 1 view .LVU434
 1858 000c 02B0     		add	sp, sp, #8
 1859              		.cfi_def_cfa_offset 0
 1860              		@ sp needed
 472:Drivers/lvgl/src/misc/lv_style_gen.c **** }
 1861              		.loc 1 472 5 view .LVU435
 1862 000e FFF7FEBF 		b	lv_style_set_prop
 1863              	.LVL176:
 472:Drivers/lvgl/src/misc/lv_style_gen.c **** }
 1864              		.loc 1 472 5 view .LVU436
 1865              		.cfi_endproc
 1866              	.LFE112:
 1868 0012 00BF     		.section	.text.lv_style_set_line_opa,"ax",%progbits
 1869              		.align	1
 1870              		.p2align 2,,3
 1871              		.global	lv_style_set_line_opa
 1872              		.syntax unified
 1873              		.thumb
 1874              		.thumb_func
 1876              	lv_style_set_line_opa:
 1877              	.LVL177:
 1878              	.LFB113:
 474:Drivers/lvgl/src/misc/lv_style_gen.c **** 
 475:Drivers/lvgl/src/misc/lv_style_gen.c **** void lv_style_set_line_opa(lv_style_t * style, lv_opa_t value)
 476:Drivers/lvgl/src/misc/lv_style_gen.c **** {
 1879              		.loc 1 476 1 is_stmt 1 view -0
 1880              		.cfi_startproc
 1881              		@ args = 0, pretend = 0, frame = 0
 1882              		@ frame_needed = 0, uses_anonymous_args = 0
 1883              		@ link register save eliminated.
 477:Drivers/lvgl/src/misc/lv_style_gen.c ****     lv_style_value_t v = {
 1884              		.loc 1 477 5 view .LVU438
 478:Drivers/lvgl/src/misc/lv_style_gen.c ****         .num = (int32_t)value
 479:Drivers/lvgl/src/misc/lv_style_gen.c ****     };
 480:Drivers/lvgl/src/misc/lv_style_gen.c ****     lv_style_set_prop(style, LV_STYLE_LINE_OPA, v);
 1885              		.loc 1 480 5 view .LVU439
ARM GAS  /var/folders/0z/tsy30v1j4xl4_7kw94k978ww0000gn/T//ccqJTzTx.s 			page 42


 476:Drivers/lvgl/src/misc/lv_style_gen.c ****     lv_style_value_t v = {
 1886              		.loc 1 476 1 is_stmt 0 view .LVU440
 1887 0000 0A46     		mov	r2, r1
 1888              		.loc 1 480 5 view .LVU441
 1889 0002 4E21     		movs	r1, #78
 1890              	.LVL178:
 1891              		.loc 1 480 5 view .LVU442
 1892 0004 FFF7FEBF 		b	lv_style_set_prop
 1893              	.LVL179:
 1894              		.loc 1 480 5 view .LVU443
 1895              		.cfi_endproc
 1896              	.LFE113:
 1898              		.section	.text.lv_style_set_arc_width,"ax",%progbits
 1899              		.align	1
 1900              		.p2align 2,,3
 1901              		.global	lv_style_set_arc_width
 1902              		.syntax unified
 1903              		.thumb
 1904              		.thumb_func
 1906              	lv_style_set_arc_width:
 1907              	.LVL180:
 1908              	.LFB114:
 481:Drivers/lvgl/src/misc/lv_style_gen.c **** }
 482:Drivers/lvgl/src/misc/lv_style_gen.c **** 
 483:Drivers/lvgl/src/misc/lv_style_gen.c **** void lv_style_set_arc_width(lv_style_t * style, lv_coord_t value)
 484:Drivers/lvgl/src/misc/lv_style_gen.c **** {
 1909              		.loc 1 484 1 is_stmt 1 view -0
 1910              		.cfi_startproc
 1911              		@ args = 0, pretend = 0, frame = 0
 1912              		@ frame_needed = 0, uses_anonymous_args = 0
 1913              		@ link register save eliminated.
 485:Drivers/lvgl/src/misc/lv_style_gen.c ****     lv_style_value_t v = {
 1914              		.loc 1 485 5 view .LVU445
 486:Drivers/lvgl/src/misc/lv_style_gen.c ****         .num = (int32_t)value
 487:Drivers/lvgl/src/misc/lv_style_gen.c ****     };
 488:Drivers/lvgl/src/misc/lv_style_gen.c ****     lv_style_set_prop(style, LV_STYLE_ARC_WIDTH, v);
 1915              		.loc 1 488 5 view .LVU446
 484:Drivers/lvgl/src/misc/lv_style_gen.c ****     lv_style_value_t v = {
 1916              		.loc 1 484 1 is_stmt 0 view .LVU447
 1917 0000 0A46     		mov	r2, r1
 1918              		.loc 1 488 5 view .LVU448
 1919 0002 5021     		movs	r1, #80
 1920              	.LVL181:
 1921              		.loc 1 488 5 view .LVU449
 1922 0004 FFF7FEBF 		b	lv_style_set_prop
 1923              	.LVL182:
 1924              		.loc 1 488 5 view .LVU450
 1925              		.cfi_endproc
 1926              	.LFE114:
 1928              		.section	.text.lv_style_set_arc_rounded,"ax",%progbits
 1929              		.align	1
 1930              		.p2align 2,,3
 1931              		.global	lv_style_set_arc_rounded
 1932              		.syntax unified
 1933              		.thumb
 1934              		.thumb_func
 1936              	lv_style_set_arc_rounded:
ARM GAS  /var/folders/0z/tsy30v1j4xl4_7kw94k978ww0000gn/T//ccqJTzTx.s 			page 43


 1937              	.LVL183:
 1938              	.LFB115:
 489:Drivers/lvgl/src/misc/lv_style_gen.c **** }
 490:Drivers/lvgl/src/misc/lv_style_gen.c **** 
 491:Drivers/lvgl/src/misc/lv_style_gen.c **** void lv_style_set_arc_rounded(lv_style_t * style, bool value)
 492:Drivers/lvgl/src/misc/lv_style_gen.c **** {
 1939              		.loc 1 492 1 is_stmt 1 view -0
 1940              		.cfi_startproc
 1941              		@ args = 0, pretend = 0, frame = 0
 1942              		@ frame_needed = 0, uses_anonymous_args = 0
 1943              		@ link register save eliminated.
 493:Drivers/lvgl/src/misc/lv_style_gen.c ****     lv_style_value_t v = {
 1944              		.loc 1 493 5 view .LVU452
 494:Drivers/lvgl/src/misc/lv_style_gen.c ****         .num = (int32_t)value
 495:Drivers/lvgl/src/misc/lv_style_gen.c ****     };
 496:Drivers/lvgl/src/misc/lv_style_gen.c ****     lv_style_set_prop(style, LV_STYLE_ARC_ROUNDED, v);
 1945              		.loc 1 496 5 view .LVU453
 492:Drivers/lvgl/src/misc/lv_style_gen.c ****     lv_style_value_t v = {
 1946              		.loc 1 492 1 is_stmt 0 view .LVU454
 1947 0000 0A46     		mov	r2, r1
 1948              		.loc 1 496 5 view .LVU455
 1949 0002 5121     		movs	r1, #81
 1950              	.LVL184:
 1951              		.loc 1 496 5 view .LVU456
 1952 0004 FFF7FEBF 		b	lv_style_set_prop
 1953              	.LVL185:
 1954              		.loc 1 496 5 view .LVU457
 1955              		.cfi_endproc
 1956              	.LFE115:
 1958              		.section	.text.lv_style_set_arc_color,"ax",%progbits
 1959              		.align	1
 1960              		.p2align 2,,3
 1961              		.global	lv_style_set_arc_color
 1962              		.syntax unified
 1963              		.thumb
 1964              		.thumb_func
 1966              	lv_style_set_arc_color:
 1967              	.LVL186:
 1968              	.LFB116:
 497:Drivers/lvgl/src/misc/lv_style_gen.c **** }
 498:Drivers/lvgl/src/misc/lv_style_gen.c **** 
 499:Drivers/lvgl/src/misc/lv_style_gen.c **** void lv_style_set_arc_color(lv_style_t * style, lv_color_t value)
 500:Drivers/lvgl/src/misc/lv_style_gen.c **** {
 1969              		.loc 1 500 1 is_stmt 1 view -0
 1970              		.cfi_startproc
 1971              		@ args = 0, pretend = 0, frame = 8
 1972              		@ frame_needed = 0, uses_anonymous_args = 0
 1973              		@ link register save eliminated.
 501:Drivers/lvgl/src/misc/lv_style_gen.c ****     lv_style_value_t v = {
 1974              		.loc 1 501 5 view .LVU459
 502:Drivers/lvgl/src/misc/lv_style_gen.c ****         .color = value
 503:Drivers/lvgl/src/misc/lv_style_gen.c ****     };
 504:Drivers/lvgl/src/misc/lv_style_gen.c ****     lv_style_set_prop(style, LV_STYLE_ARC_COLOR, v);
 1975              		.loc 1 504 5 view .LVU460
 500:Drivers/lvgl/src/misc/lv_style_gen.c ****     lv_style_value_t v = {
 1976              		.loc 1 500 1 is_stmt 0 view .LVU461
 1977 0000 82B0     		sub	sp, sp, #8
ARM GAS  /var/folders/0z/tsy30v1j4xl4_7kw94k978ww0000gn/T//ccqJTzTx.s 			page 44


 1978              		.cfi_def_cfa_offset 8
 501:Drivers/lvgl/src/misc/lv_style_gen.c ****     lv_style_value_t v = {
 1979              		.loc 1 501 22 view .LVU462
 1980 0002 0023     		movs	r3, #0
 1981              		.loc 1 504 5 view .LVU463
 1982 0004 8AB2     		uxth	r2, r1
 1983 0006 5221     		movs	r1, #82
 1984              	.LVL187:
 501:Drivers/lvgl/src/misc/lv_style_gen.c ****     lv_style_value_t v = {
 1985              		.loc 1 501 22 view .LVU464
 1986 0008 ADF80030 		strh	r3, [sp]	@ movhi
 505:Drivers/lvgl/src/misc/lv_style_gen.c **** }
 1987              		.loc 1 505 1 view .LVU465
 1988 000c 02B0     		add	sp, sp, #8
 1989              		.cfi_def_cfa_offset 0
 1990              		@ sp needed
 504:Drivers/lvgl/src/misc/lv_style_gen.c **** }
 1991              		.loc 1 504 5 view .LVU466
 1992 000e FFF7FEBF 		b	lv_style_set_prop
 1993              	.LVL188:
 504:Drivers/lvgl/src/misc/lv_style_gen.c **** }
 1994              		.loc 1 504 5 view .LVU467
 1995              		.cfi_endproc
 1996              	.LFE116:
 1998 0012 00BF     		.section	.text.lv_style_set_arc_opa,"ax",%progbits
 1999              		.align	1
 2000              		.p2align 2,,3
 2001              		.global	lv_style_set_arc_opa
 2002              		.syntax unified
 2003              		.thumb
 2004              		.thumb_func
 2006              	lv_style_set_arc_opa:
 2007              	.LVL189:
 2008              	.LFB117:
 506:Drivers/lvgl/src/misc/lv_style_gen.c **** 
 507:Drivers/lvgl/src/misc/lv_style_gen.c **** void lv_style_set_arc_opa(lv_style_t * style, lv_opa_t value)
 508:Drivers/lvgl/src/misc/lv_style_gen.c **** {
 2009              		.loc 1 508 1 is_stmt 1 view -0
 2010              		.cfi_startproc
 2011              		@ args = 0, pretend = 0, frame = 0
 2012              		@ frame_needed = 0, uses_anonymous_args = 0
 2013              		@ link register save eliminated.
 509:Drivers/lvgl/src/misc/lv_style_gen.c ****     lv_style_value_t v = {
 2014              		.loc 1 509 5 view .LVU469
 510:Drivers/lvgl/src/misc/lv_style_gen.c ****         .num = (int32_t)value
 511:Drivers/lvgl/src/misc/lv_style_gen.c ****     };
 512:Drivers/lvgl/src/misc/lv_style_gen.c ****     lv_style_set_prop(style, LV_STYLE_ARC_OPA, v);
 2015              		.loc 1 512 5 view .LVU470
 508:Drivers/lvgl/src/misc/lv_style_gen.c ****     lv_style_value_t v = {
 2016              		.loc 1 508 1 is_stmt 0 view .LVU471
 2017 0000 0A46     		mov	r2, r1
 2018              		.loc 1 512 5 view .LVU472
 2019 0002 5321     		movs	r1, #83
 2020              	.LVL190:
 2021              		.loc 1 512 5 view .LVU473
 2022 0004 FFF7FEBF 		b	lv_style_set_prop
 2023              	.LVL191:
ARM GAS  /var/folders/0z/tsy30v1j4xl4_7kw94k978ww0000gn/T//ccqJTzTx.s 			page 45


 2024              		.loc 1 512 5 view .LVU474
 2025              		.cfi_endproc
 2026              	.LFE117:
 2028              		.section	.text.lv_style_set_arc_img_src,"ax",%progbits
 2029              		.align	1
 2030              		.p2align 2,,3
 2031              		.global	lv_style_set_arc_img_src
 2032              		.syntax unified
 2033              		.thumb
 2034              		.thumb_func
 2036              	lv_style_set_arc_img_src:
 2037              	.LVL192:
 2038              	.LFB118:
 513:Drivers/lvgl/src/misc/lv_style_gen.c **** }
 514:Drivers/lvgl/src/misc/lv_style_gen.c **** 
 515:Drivers/lvgl/src/misc/lv_style_gen.c **** void lv_style_set_arc_img_src(lv_style_t * style, const void * value)
 516:Drivers/lvgl/src/misc/lv_style_gen.c **** {
 2039              		.loc 1 516 1 is_stmt 1 view -0
 2040              		.cfi_startproc
 2041              		@ args = 0, pretend = 0, frame = 0
 2042              		@ frame_needed = 0, uses_anonymous_args = 0
 2043              		@ link register save eliminated.
 517:Drivers/lvgl/src/misc/lv_style_gen.c ****     lv_style_value_t v = {
 2044              		.loc 1 517 5 view .LVU476
 518:Drivers/lvgl/src/misc/lv_style_gen.c ****         .ptr = value
 519:Drivers/lvgl/src/misc/lv_style_gen.c ****     };
 520:Drivers/lvgl/src/misc/lv_style_gen.c ****     lv_style_set_prop(style, LV_STYLE_ARC_IMG_SRC, v);
 2045              		.loc 1 520 5 view .LVU477
 516:Drivers/lvgl/src/misc/lv_style_gen.c ****     lv_style_value_t v = {
 2046              		.loc 1 516 1 is_stmt 0 view .LVU478
 2047 0000 0A46     		mov	r2, r1
 2048              		.loc 1 520 5 view .LVU479
 2049 0002 5421     		movs	r1, #84
 2050              	.LVL193:
 2051              		.loc 1 520 5 view .LVU480
 2052 0004 FFF7FEBF 		b	lv_style_set_prop
 2053              	.LVL194:
 2054              		.loc 1 520 5 view .LVU481
 2055              		.cfi_endproc
 2056              	.LFE118:
 2058              		.section	.text.lv_style_set_text_color,"ax",%progbits
 2059              		.align	1
 2060              		.p2align 2,,3
 2061              		.global	lv_style_set_text_color
 2062              		.syntax unified
 2063              		.thumb
 2064              		.thumb_func
 2066              	lv_style_set_text_color:
 2067              	.LVL195:
 2068              	.LFB119:
 521:Drivers/lvgl/src/misc/lv_style_gen.c **** }
 522:Drivers/lvgl/src/misc/lv_style_gen.c **** 
 523:Drivers/lvgl/src/misc/lv_style_gen.c **** void lv_style_set_text_color(lv_style_t * style, lv_color_t value)
 524:Drivers/lvgl/src/misc/lv_style_gen.c **** {
 2069              		.loc 1 524 1 is_stmt 1 view -0
 2070              		.cfi_startproc
 2071              		@ args = 0, pretend = 0, frame = 8
ARM GAS  /var/folders/0z/tsy30v1j4xl4_7kw94k978ww0000gn/T//ccqJTzTx.s 			page 46


 2072              		@ frame_needed = 0, uses_anonymous_args = 0
 2073              		@ link register save eliminated.
 525:Drivers/lvgl/src/misc/lv_style_gen.c ****     lv_style_value_t v = {
 2074              		.loc 1 525 5 view .LVU483
 526:Drivers/lvgl/src/misc/lv_style_gen.c ****         .color = value
 527:Drivers/lvgl/src/misc/lv_style_gen.c ****     };
 528:Drivers/lvgl/src/misc/lv_style_gen.c ****     lv_style_set_prop(style, LV_STYLE_TEXT_COLOR, v);
 2075              		.loc 1 528 5 view .LVU484
 524:Drivers/lvgl/src/misc/lv_style_gen.c ****     lv_style_value_t v = {
 2076              		.loc 1 524 1 is_stmt 0 view .LVU485
 2077 0000 82B0     		sub	sp, sp, #8
 2078              		.cfi_def_cfa_offset 8
 525:Drivers/lvgl/src/misc/lv_style_gen.c ****     lv_style_value_t v = {
 2079              		.loc 1 525 22 view .LVU486
 2080 0002 0023     		movs	r3, #0
 2081              		.loc 1 528 5 view .LVU487
 2082 0004 8AB2     		uxth	r2, r1
 2083 0006 5521     		movs	r1, #85
 2084              	.LVL196:
 525:Drivers/lvgl/src/misc/lv_style_gen.c ****     lv_style_value_t v = {
 2085              		.loc 1 525 22 view .LVU488
 2086 0008 ADF80030 		strh	r3, [sp]	@ movhi
 529:Drivers/lvgl/src/misc/lv_style_gen.c **** }
 2087              		.loc 1 529 1 view .LVU489
 2088 000c 02B0     		add	sp, sp, #8
 2089              		.cfi_def_cfa_offset 0
 2090              		@ sp needed
 528:Drivers/lvgl/src/misc/lv_style_gen.c **** }
 2091              		.loc 1 528 5 view .LVU490
 2092 000e FFF7FEBF 		b	lv_style_set_prop
 2093              	.LVL197:
 528:Drivers/lvgl/src/misc/lv_style_gen.c **** }
 2094              		.loc 1 528 5 view .LVU491
 2095              		.cfi_endproc
 2096              	.LFE119:
 2098 0012 00BF     		.section	.text.lv_style_set_text_opa,"ax",%progbits
 2099              		.align	1
 2100              		.p2align 2,,3
 2101              		.global	lv_style_set_text_opa
 2102              		.syntax unified
 2103              		.thumb
 2104              		.thumb_func
 2106              	lv_style_set_text_opa:
 2107              	.LVL198:
 2108              	.LFB120:
 530:Drivers/lvgl/src/misc/lv_style_gen.c **** 
 531:Drivers/lvgl/src/misc/lv_style_gen.c **** void lv_style_set_text_opa(lv_style_t * style, lv_opa_t value)
 532:Drivers/lvgl/src/misc/lv_style_gen.c **** {
 2109              		.loc 1 532 1 is_stmt 1 view -0
 2110              		.cfi_startproc
 2111              		@ args = 0, pretend = 0, frame = 0
 2112              		@ frame_needed = 0, uses_anonymous_args = 0
 2113              		@ link register save eliminated.
 533:Drivers/lvgl/src/misc/lv_style_gen.c ****     lv_style_value_t v = {
 2114              		.loc 1 533 5 view .LVU493
 534:Drivers/lvgl/src/misc/lv_style_gen.c ****         .num = (int32_t)value
 535:Drivers/lvgl/src/misc/lv_style_gen.c ****     };
ARM GAS  /var/folders/0z/tsy30v1j4xl4_7kw94k978ww0000gn/T//ccqJTzTx.s 			page 47


 536:Drivers/lvgl/src/misc/lv_style_gen.c ****     lv_style_set_prop(style, LV_STYLE_TEXT_OPA, v);
 2115              		.loc 1 536 5 view .LVU494
 532:Drivers/lvgl/src/misc/lv_style_gen.c ****     lv_style_value_t v = {
 2116              		.loc 1 532 1 is_stmt 0 view .LVU495
 2117 0000 0A46     		mov	r2, r1
 2118              		.loc 1 536 5 view .LVU496
 2119 0002 5621     		movs	r1, #86
 2120              	.LVL199:
 2121              		.loc 1 536 5 view .LVU497
 2122 0004 FFF7FEBF 		b	lv_style_set_prop
 2123              	.LVL200:
 2124              		.loc 1 536 5 view .LVU498
 2125              		.cfi_endproc
 2126              	.LFE120:
 2128              		.section	.text.lv_style_set_text_font,"ax",%progbits
 2129              		.align	1
 2130              		.p2align 2,,3
 2131              		.global	lv_style_set_text_font
 2132              		.syntax unified
 2133              		.thumb
 2134              		.thumb_func
 2136              	lv_style_set_text_font:
 2137              	.LVL201:
 2138              	.LFB121:
 537:Drivers/lvgl/src/misc/lv_style_gen.c **** }
 538:Drivers/lvgl/src/misc/lv_style_gen.c **** 
 539:Drivers/lvgl/src/misc/lv_style_gen.c **** void lv_style_set_text_font(lv_style_t * style, const lv_font_t * value)
 540:Drivers/lvgl/src/misc/lv_style_gen.c **** {
 2139              		.loc 1 540 1 is_stmt 1 view -0
 2140              		.cfi_startproc
 2141              		@ args = 0, pretend = 0, frame = 0
 2142              		@ frame_needed = 0, uses_anonymous_args = 0
 2143              		@ link register save eliminated.
 541:Drivers/lvgl/src/misc/lv_style_gen.c ****     lv_style_value_t v = {
 2144              		.loc 1 541 5 view .LVU500
 542:Drivers/lvgl/src/misc/lv_style_gen.c ****         .ptr = value
 543:Drivers/lvgl/src/misc/lv_style_gen.c ****     };
 544:Drivers/lvgl/src/misc/lv_style_gen.c ****     lv_style_set_prop(style, LV_STYLE_TEXT_FONT, v);
 2145              		.loc 1 544 5 view .LVU501
 540:Drivers/lvgl/src/misc/lv_style_gen.c ****     lv_style_value_t v = {
 2146              		.loc 1 540 1 is_stmt 0 view .LVU502
 2147 0000 0A46     		mov	r2, r1
 2148              		.loc 1 544 5 view .LVU503
 2149 0002 5721     		movs	r1, #87
 2150              	.LVL202:
 2151              		.loc 1 544 5 view .LVU504
 2152 0004 FFF7FEBF 		b	lv_style_set_prop
 2153              	.LVL203:
 2154              		.loc 1 544 5 view .LVU505
 2155              		.cfi_endproc
 2156              	.LFE121:
 2158              		.section	.text.lv_style_set_text_letter_space,"ax",%progbits
 2159              		.align	1
 2160              		.p2align 2,,3
 2161              		.global	lv_style_set_text_letter_space
 2162              		.syntax unified
 2163              		.thumb
ARM GAS  /var/folders/0z/tsy30v1j4xl4_7kw94k978ww0000gn/T//ccqJTzTx.s 			page 48


 2164              		.thumb_func
 2166              	lv_style_set_text_letter_space:
 2167              	.LVL204:
 2168              	.LFB122:
 545:Drivers/lvgl/src/misc/lv_style_gen.c **** }
 546:Drivers/lvgl/src/misc/lv_style_gen.c **** 
 547:Drivers/lvgl/src/misc/lv_style_gen.c **** void lv_style_set_text_letter_space(lv_style_t * style, lv_coord_t value)
 548:Drivers/lvgl/src/misc/lv_style_gen.c **** {
 2169              		.loc 1 548 1 is_stmt 1 view -0
 2170              		.cfi_startproc
 2171              		@ args = 0, pretend = 0, frame = 0
 2172              		@ frame_needed = 0, uses_anonymous_args = 0
 2173              		@ link register save eliminated.
 549:Drivers/lvgl/src/misc/lv_style_gen.c ****     lv_style_value_t v = {
 2174              		.loc 1 549 5 view .LVU507
 550:Drivers/lvgl/src/misc/lv_style_gen.c ****         .num = (int32_t)value
 551:Drivers/lvgl/src/misc/lv_style_gen.c ****     };
 552:Drivers/lvgl/src/misc/lv_style_gen.c ****     lv_style_set_prop(style, LV_STYLE_TEXT_LETTER_SPACE, v);
 2175              		.loc 1 552 5 view .LVU508
 548:Drivers/lvgl/src/misc/lv_style_gen.c ****     lv_style_value_t v = {
 2176              		.loc 1 548 1 is_stmt 0 view .LVU509
 2177 0000 0A46     		mov	r2, r1
 2178              		.loc 1 552 5 view .LVU510
 2179 0002 5821     		movs	r1, #88
 2180              	.LVL205:
 2181              		.loc 1 552 5 view .LVU511
 2182 0004 FFF7FEBF 		b	lv_style_set_prop
 2183              	.LVL206:
 2184              		.loc 1 552 5 view .LVU512
 2185              		.cfi_endproc
 2186              	.LFE122:
 2188              		.section	.text.lv_style_set_text_line_space,"ax",%progbits
 2189              		.align	1
 2190              		.p2align 2,,3
 2191              		.global	lv_style_set_text_line_space
 2192              		.syntax unified
 2193              		.thumb
 2194              		.thumb_func
 2196              	lv_style_set_text_line_space:
 2197              	.LVL207:
 2198              	.LFB123:
 553:Drivers/lvgl/src/misc/lv_style_gen.c **** }
 554:Drivers/lvgl/src/misc/lv_style_gen.c **** 
 555:Drivers/lvgl/src/misc/lv_style_gen.c **** void lv_style_set_text_line_space(lv_style_t * style, lv_coord_t value)
 556:Drivers/lvgl/src/misc/lv_style_gen.c **** {
 2199              		.loc 1 556 1 is_stmt 1 view -0
 2200              		.cfi_startproc
 2201              		@ args = 0, pretend = 0, frame = 0
 2202              		@ frame_needed = 0, uses_anonymous_args = 0
 2203              		@ link register save eliminated.
 557:Drivers/lvgl/src/misc/lv_style_gen.c ****     lv_style_value_t v = {
 2204              		.loc 1 557 5 view .LVU514
 558:Drivers/lvgl/src/misc/lv_style_gen.c ****         .num = (int32_t)value
 559:Drivers/lvgl/src/misc/lv_style_gen.c ****     };
 560:Drivers/lvgl/src/misc/lv_style_gen.c ****     lv_style_set_prop(style, LV_STYLE_TEXT_LINE_SPACE, v);
 2205              		.loc 1 560 5 view .LVU515
 556:Drivers/lvgl/src/misc/lv_style_gen.c ****     lv_style_value_t v = {
ARM GAS  /var/folders/0z/tsy30v1j4xl4_7kw94k978ww0000gn/T//ccqJTzTx.s 			page 49


 2206              		.loc 1 556 1 is_stmt 0 view .LVU516
 2207 0000 0A46     		mov	r2, r1
 2208              		.loc 1 560 5 view .LVU517
 2209 0002 5921     		movs	r1, #89
 2210              	.LVL208:
 2211              		.loc 1 560 5 view .LVU518
 2212 0004 FFF7FEBF 		b	lv_style_set_prop
 2213              	.LVL209:
 2214              		.loc 1 560 5 view .LVU519
 2215              		.cfi_endproc
 2216              	.LFE123:
 2218              		.section	.text.lv_style_set_text_decor,"ax",%progbits
 2219              		.align	1
 2220              		.p2align 2,,3
 2221              		.global	lv_style_set_text_decor
 2222              		.syntax unified
 2223              		.thumb
 2224              		.thumb_func
 2226              	lv_style_set_text_decor:
 2227              	.LVL210:
 2228              	.LFB124:
 561:Drivers/lvgl/src/misc/lv_style_gen.c **** }
 562:Drivers/lvgl/src/misc/lv_style_gen.c **** 
 563:Drivers/lvgl/src/misc/lv_style_gen.c **** void lv_style_set_text_decor(lv_style_t * style, lv_text_decor_t value)
 564:Drivers/lvgl/src/misc/lv_style_gen.c **** {
 2229              		.loc 1 564 1 is_stmt 1 view -0
 2230              		.cfi_startproc
 2231              		@ args = 0, pretend = 0, frame = 0
 2232              		@ frame_needed = 0, uses_anonymous_args = 0
 2233              		@ link register save eliminated.
 565:Drivers/lvgl/src/misc/lv_style_gen.c ****     lv_style_value_t v = {
 2234              		.loc 1 565 5 view .LVU521
 566:Drivers/lvgl/src/misc/lv_style_gen.c ****         .num = (int32_t)value
 567:Drivers/lvgl/src/misc/lv_style_gen.c ****     };
 568:Drivers/lvgl/src/misc/lv_style_gen.c ****     lv_style_set_prop(style, LV_STYLE_TEXT_DECOR, v);
 2235              		.loc 1 568 5 view .LVU522
 564:Drivers/lvgl/src/misc/lv_style_gen.c ****     lv_style_value_t v = {
 2236              		.loc 1 564 1 is_stmt 0 view .LVU523
 2237 0000 0A46     		mov	r2, r1
 2238              		.loc 1 568 5 view .LVU524
 2239 0002 5A21     		movs	r1, #90
 2240              	.LVL211:
 2241              		.loc 1 568 5 view .LVU525
 2242 0004 FFF7FEBF 		b	lv_style_set_prop
 2243              	.LVL212:
 2244              		.loc 1 568 5 view .LVU526
 2245              		.cfi_endproc
 2246              	.LFE124:
 2248              		.section	.text.lv_style_set_text_align,"ax",%progbits
 2249              		.align	1
 2250              		.p2align 2,,3
 2251              		.global	lv_style_set_text_align
 2252              		.syntax unified
 2253              		.thumb
 2254              		.thumb_func
 2256              	lv_style_set_text_align:
 2257              	.LVL213:
ARM GAS  /var/folders/0z/tsy30v1j4xl4_7kw94k978ww0000gn/T//ccqJTzTx.s 			page 50


 2258              	.LFB125:
 569:Drivers/lvgl/src/misc/lv_style_gen.c **** }
 570:Drivers/lvgl/src/misc/lv_style_gen.c **** 
 571:Drivers/lvgl/src/misc/lv_style_gen.c **** void lv_style_set_text_align(lv_style_t * style, lv_text_align_t value)
 572:Drivers/lvgl/src/misc/lv_style_gen.c **** {
 2259              		.loc 1 572 1 is_stmt 1 view -0
 2260              		.cfi_startproc
 2261              		@ args = 0, pretend = 0, frame = 0
 2262              		@ frame_needed = 0, uses_anonymous_args = 0
 2263              		@ link register save eliminated.
 573:Drivers/lvgl/src/misc/lv_style_gen.c ****     lv_style_value_t v = {
 2264              		.loc 1 573 5 view .LVU528
 574:Drivers/lvgl/src/misc/lv_style_gen.c ****         .num = (int32_t)value
 575:Drivers/lvgl/src/misc/lv_style_gen.c ****     };
 576:Drivers/lvgl/src/misc/lv_style_gen.c ****     lv_style_set_prop(style, LV_STYLE_TEXT_ALIGN, v);
 2265              		.loc 1 576 5 view .LVU529
 572:Drivers/lvgl/src/misc/lv_style_gen.c ****     lv_style_value_t v = {
 2266              		.loc 1 572 1 is_stmt 0 view .LVU530
 2267 0000 0A46     		mov	r2, r1
 2268              		.loc 1 576 5 view .LVU531
 2269 0002 5B21     		movs	r1, #91
 2270              	.LVL214:
 2271              		.loc 1 576 5 view .LVU532
 2272 0004 FFF7FEBF 		b	lv_style_set_prop
 2273              	.LVL215:
 2274              		.loc 1 576 5 view .LVU533
 2275              		.cfi_endproc
 2276              	.LFE125:
 2278              		.section	.text.lv_style_set_radius,"ax",%progbits
 2279              		.align	1
 2280              		.p2align 2,,3
 2281              		.global	lv_style_set_radius
 2282              		.syntax unified
 2283              		.thumb
 2284              		.thumb_func
 2286              	lv_style_set_radius:
 2287              	.LVL216:
 2288              	.LFB126:
 577:Drivers/lvgl/src/misc/lv_style_gen.c **** }
 578:Drivers/lvgl/src/misc/lv_style_gen.c **** 
 579:Drivers/lvgl/src/misc/lv_style_gen.c **** void lv_style_set_radius(lv_style_t * style, lv_coord_t value)
 580:Drivers/lvgl/src/misc/lv_style_gen.c **** {
 2289              		.loc 1 580 1 is_stmt 1 view -0
 2290              		.cfi_startproc
 2291              		@ args = 0, pretend = 0, frame = 0
 2292              		@ frame_needed = 0, uses_anonymous_args = 0
 2293              		@ link register save eliminated.
 581:Drivers/lvgl/src/misc/lv_style_gen.c ****     lv_style_value_t v = {
 2294              		.loc 1 581 5 view .LVU535
 582:Drivers/lvgl/src/misc/lv_style_gen.c ****         .num = (int32_t)value
 583:Drivers/lvgl/src/misc/lv_style_gen.c ****     };
 584:Drivers/lvgl/src/misc/lv_style_gen.c ****     lv_style_set_prop(style, LV_STYLE_RADIUS, v);
 2295              		.loc 1 584 5 view .LVU536
 580:Drivers/lvgl/src/misc/lv_style_gen.c ****     lv_style_value_t v = {
 2296              		.loc 1 580 1 is_stmt 0 view .LVU537
 2297 0000 0A46     		mov	r2, r1
 2298              		.loc 1 584 5 view .LVU538
ARM GAS  /var/folders/0z/tsy30v1j4xl4_7kw94k978ww0000gn/T//ccqJTzTx.s 			page 51


 2299 0002 0B21     		movs	r1, #11
 2300              	.LVL217:
 2301              		.loc 1 584 5 view .LVU539
 2302 0004 FFF7FEBF 		b	lv_style_set_prop
 2303              	.LVL218:
 2304              		.loc 1 584 5 view .LVU540
 2305              		.cfi_endproc
 2306              	.LFE126:
 2308              		.section	.text.lv_style_set_clip_corner,"ax",%progbits
 2309              		.align	1
 2310              		.p2align 2,,3
 2311              		.global	lv_style_set_clip_corner
 2312              		.syntax unified
 2313              		.thumb
 2314              		.thumb_func
 2316              	lv_style_set_clip_corner:
 2317              	.LVL219:
 2318              	.LFB127:
 585:Drivers/lvgl/src/misc/lv_style_gen.c **** }
 586:Drivers/lvgl/src/misc/lv_style_gen.c **** 
 587:Drivers/lvgl/src/misc/lv_style_gen.c **** void lv_style_set_clip_corner(lv_style_t * style, bool value)
 588:Drivers/lvgl/src/misc/lv_style_gen.c **** {
 2319              		.loc 1 588 1 is_stmt 1 view -0
 2320              		.cfi_startproc
 2321              		@ args = 0, pretend = 0, frame = 0
 2322              		@ frame_needed = 0, uses_anonymous_args = 0
 2323              		@ link register save eliminated.
 589:Drivers/lvgl/src/misc/lv_style_gen.c ****     lv_style_value_t v = {
 2324              		.loc 1 589 5 view .LVU542
 590:Drivers/lvgl/src/misc/lv_style_gen.c ****         .num = (int32_t)value
 591:Drivers/lvgl/src/misc/lv_style_gen.c ****     };
 592:Drivers/lvgl/src/misc/lv_style_gen.c ****     lv_style_set_prop(style, LV_STYLE_CLIP_CORNER, v);
 2325              		.loc 1 592 5 view .LVU543
 588:Drivers/lvgl/src/misc/lv_style_gen.c ****     lv_style_value_t v = {
 2326              		.loc 1 588 1 is_stmt 0 view .LVU544
 2327 0000 0A46     		mov	r2, r1
 2328              		.loc 1 592 5 view .LVU545
 2329 0002 1721     		movs	r1, #23
 2330              	.LVL220:
 2331              		.loc 1 592 5 view .LVU546
 2332 0004 FFF7FEBF 		b	lv_style_set_prop
 2333              	.LVL221:
 2334              		.loc 1 592 5 view .LVU547
 2335              		.cfi_endproc
 2336              	.LFE127:
 2338              		.section	.text.lv_style_set_opa,"ax",%progbits
 2339              		.align	1
 2340              		.p2align 2,,3
 2341              		.global	lv_style_set_opa
 2342              		.syntax unified
 2343              		.thumb
 2344              		.thumb_func
 2346              	lv_style_set_opa:
 2347              	.LVL222:
 2348              	.LFB128:
 593:Drivers/lvgl/src/misc/lv_style_gen.c **** }
 594:Drivers/lvgl/src/misc/lv_style_gen.c **** 
ARM GAS  /var/folders/0z/tsy30v1j4xl4_7kw94k978ww0000gn/T//ccqJTzTx.s 			page 52


 595:Drivers/lvgl/src/misc/lv_style_gen.c **** void lv_style_set_opa(lv_style_t * style, lv_opa_t value)
 596:Drivers/lvgl/src/misc/lv_style_gen.c **** {
 2349              		.loc 1 596 1 is_stmt 1 view -0
 2350              		.cfi_startproc
 2351              		@ args = 0, pretend = 0, frame = 0
 2352              		@ frame_needed = 0, uses_anonymous_args = 0
 2353              		@ link register save eliminated.
 597:Drivers/lvgl/src/misc/lv_style_gen.c ****     lv_style_value_t v = {
 2354              		.loc 1 597 5 view .LVU549
 598:Drivers/lvgl/src/misc/lv_style_gen.c ****         .num = (int32_t)value
 599:Drivers/lvgl/src/misc/lv_style_gen.c ****     };
 600:Drivers/lvgl/src/misc/lv_style_gen.c ****     lv_style_set_prop(style, LV_STYLE_OPA, v);
 2355              		.loc 1 600 5 view .LVU550
 596:Drivers/lvgl/src/misc/lv_style_gen.c ****     lv_style_value_t v = {
 2356              		.loc 1 596 1 is_stmt 0 view .LVU551
 2357 0000 0A46     		mov	r2, r1
 2358              		.loc 1 600 5 view .LVU552
 2359 0002 6021     		movs	r1, #96
 2360              	.LVL223:
 2361              		.loc 1 600 5 view .LVU553
 2362 0004 FFF7FEBF 		b	lv_style_set_prop
 2363              	.LVL224:
 2364              		.loc 1 600 5 view .LVU554
 2365              		.cfi_endproc
 2366              	.LFE128:
 2368              		.section	.text.lv_style_set_opa_layered,"ax",%progbits
 2369              		.align	1
 2370              		.p2align 2,,3
 2371              		.global	lv_style_set_opa_layered
 2372              		.syntax unified
 2373              		.thumb
 2374              		.thumb_func
 2376              	lv_style_set_opa_layered:
 2377              	.LVL225:
 2378              	.LFB129:
 601:Drivers/lvgl/src/misc/lv_style_gen.c **** }
 602:Drivers/lvgl/src/misc/lv_style_gen.c **** 
 603:Drivers/lvgl/src/misc/lv_style_gen.c **** void lv_style_set_opa_layered(lv_style_t * style, lv_opa_t value)
 604:Drivers/lvgl/src/misc/lv_style_gen.c **** {
 2379              		.loc 1 604 1 is_stmt 1 view -0
 2380              		.cfi_startproc
 2381              		@ args = 0, pretend = 0, frame = 0
 2382              		@ frame_needed = 0, uses_anonymous_args = 0
 2383              		@ link register save eliminated.
 605:Drivers/lvgl/src/misc/lv_style_gen.c ****     lv_style_value_t v = {
 2384              		.loc 1 605 5 view .LVU556
 606:Drivers/lvgl/src/misc/lv_style_gen.c ****         .num = (int32_t)value
 607:Drivers/lvgl/src/misc/lv_style_gen.c ****     };
 608:Drivers/lvgl/src/misc/lv_style_gen.c ****     lv_style_set_prop(style, LV_STYLE_OPA_LAYERED, v);
 2385              		.loc 1 608 5 view .LVU557
 604:Drivers/lvgl/src/misc/lv_style_gen.c ****     lv_style_value_t v = {
 2386              		.loc 1 604 1 is_stmt 0 view .LVU558
 2387 0000 0A46     		mov	r2, r1
 2388              		.loc 1 608 5 view .LVU559
 2389 0002 6121     		movs	r1, #97
 2390              	.LVL226:
 2391              		.loc 1 608 5 view .LVU560
ARM GAS  /var/folders/0z/tsy30v1j4xl4_7kw94k978ww0000gn/T//ccqJTzTx.s 			page 53


 2392 0004 FFF7FEBF 		b	lv_style_set_prop
 2393              	.LVL227:
 2394              		.loc 1 608 5 view .LVU561
 2395              		.cfi_endproc
 2396              	.LFE129:
 2398              		.section	.text.lv_style_set_color_filter_dsc,"ax",%progbits
 2399              		.align	1
 2400              		.p2align 2,,3
 2401              		.global	lv_style_set_color_filter_dsc
 2402              		.syntax unified
 2403              		.thumb
 2404              		.thumb_func
 2406              	lv_style_set_color_filter_dsc:
 2407              	.LVL228:
 2408              	.LFB130:
 609:Drivers/lvgl/src/misc/lv_style_gen.c **** }
 610:Drivers/lvgl/src/misc/lv_style_gen.c **** 
 611:Drivers/lvgl/src/misc/lv_style_gen.c **** void lv_style_set_color_filter_dsc(lv_style_t * style, const lv_color_filter_dsc_t * value)
 612:Drivers/lvgl/src/misc/lv_style_gen.c **** {
 2409              		.loc 1 612 1 is_stmt 1 view -0
 2410              		.cfi_startproc
 2411              		@ args = 0, pretend = 0, frame = 0
 2412              		@ frame_needed = 0, uses_anonymous_args = 0
 2413              		@ link register save eliminated.
 613:Drivers/lvgl/src/misc/lv_style_gen.c ****     lv_style_value_t v = {
 2414              		.loc 1 613 5 view .LVU563
 614:Drivers/lvgl/src/misc/lv_style_gen.c ****         .ptr = value
 615:Drivers/lvgl/src/misc/lv_style_gen.c ****     };
 616:Drivers/lvgl/src/misc/lv_style_gen.c ****     lv_style_set_prop(style, LV_STYLE_COLOR_FILTER_DSC, v);
 2415              		.loc 1 616 5 view .LVU564
 612:Drivers/lvgl/src/misc/lv_style_gen.c ****     lv_style_value_t v = {
 2416              		.loc 1 612 1 is_stmt 0 view .LVU565
 2417 0000 0A46     		mov	r2, r1
 2418              		.loc 1 616 5 view .LVU566
 2419 0002 6221     		movs	r1, #98
 2420              	.LVL229:
 2421              		.loc 1 616 5 view .LVU567
 2422 0004 FFF7FEBF 		b	lv_style_set_prop
 2423              	.LVL230:
 2424              		.loc 1 616 5 view .LVU568
 2425              		.cfi_endproc
 2426              	.LFE130:
 2428              		.section	.text.lv_style_set_color_filter_opa,"ax",%progbits
 2429              		.align	1
 2430              		.p2align 2,,3
 2431              		.global	lv_style_set_color_filter_opa
 2432              		.syntax unified
 2433              		.thumb
 2434              		.thumb_func
 2436              	lv_style_set_color_filter_opa:
 2437              	.LVL231:
 2438              	.LFB131:
 617:Drivers/lvgl/src/misc/lv_style_gen.c **** }
 618:Drivers/lvgl/src/misc/lv_style_gen.c **** 
 619:Drivers/lvgl/src/misc/lv_style_gen.c **** void lv_style_set_color_filter_opa(lv_style_t * style, lv_opa_t value)
 620:Drivers/lvgl/src/misc/lv_style_gen.c **** {
 2439              		.loc 1 620 1 is_stmt 1 view -0
ARM GAS  /var/folders/0z/tsy30v1j4xl4_7kw94k978ww0000gn/T//ccqJTzTx.s 			page 54


 2440              		.cfi_startproc
 2441              		@ args = 0, pretend = 0, frame = 0
 2442              		@ frame_needed = 0, uses_anonymous_args = 0
 2443              		@ link register save eliminated.
 621:Drivers/lvgl/src/misc/lv_style_gen.c ****     lv_style_value_t v = {
 2444              		.loc 1 621 5 view .LVU570
 622:Drivers/lvgl/src/misc/lv_style_gen.c ****         .num = (int32_t)value
 623:Drivers/lvgl/src/misc/lv_style_gen.c ****     };
 624:Drivers/lvgl/src/misc/lv_style_gen.c ****     lv_style_set_prop(style, LV_STYLE_COLOR_FILTER_OPA, v);
 2445              		.loc 1 624 5 view .LVU571
 620:Drivers/lvgl/src/misc/lv_style_gen.c ****     lv_style_value_t v = {
 2446              		.loc 1 620 1 is_stmt 0 view .LVU572
 2447 0000 0A46     		mov	r2, r1
 2448              		.loc 1 624 5 view .LVU573
 2449 0002 6321     		movs	r1, #99
 2450              	.LVL232:
 2451              		.loc 1 624 5 view .LVU574
 2452 0004 FFF7FEBF 		b	lv_style_set_prop
 2453              	.LVL233:
 2454              		.loc 1 624 5 view .LVU575
 2455              		.cfi_endproc
 2456              	.LFE131:
 2458              		.section	.text.lv_style_set_anim,"ax",%progbits
 2459              		.align	1
 2460              		.p2align 2,,3
 2461              		.global	lv_style_set_anim
 2462              		.syntax unified
 2463              		.thumb
 2464              		.thumb_func
 2466              	lv_style_set_anim:
 2467              	.LVL234:
 2468              	.LFB132:
 625:Drivers/lvgl/src/misc/lv_style_gen.c **** }
 626:Drivers/lvgl/src/misc/lv_style_gen.c **** 
 627:Drivers/lvgl/src/misc/lv_style_gen.c **** void lv_style_set_anim(lv_style_t * style, const lv_anim_t * value)
 628:Drivers/lvgl/src/misc/lv_style_gen.c **** {
 2469              		.loc 1 628 1 is_stmt 1 view -0
 2470              		.cfi_startproc
 2471              		@ args = 0, pretend = 0, frame = 0
 2472              		@ frame_needed = 0, uses_anonymous_args = 0
 2473              		@ link register save eliminated.
 629:Drivers/lvgl/src/misc/lv_style_gen.c ****     lv_style_value_t v = {
 2474              		.loc 1 629 5 view .LVU577
 630:Drivers/lvgl/src/misc/lv_style_gen.c ****         .ptr = value
 631:Drivers/lvgl/src/misc/lv_style_gen.c ****     };
 632:Drivers/lvgl/src/misc/lv_style_gen.c ****     lv_style_set_prop(style, LV_STYLE_ANIM, v);
 2475              		.loc 1 632 5 view .LVU578
 628:Drivers/lvgl/src/misc/lv_style_gen.c ****     lv_style_value_t v = {
 2476              		.loc 1 628 1 is_stmt 0 view .LVU579
 2477 0000 0A46     		mov	r2, r1
 2478              		.loc 1 632 5 view .LVU580
 2479 0002 6421     		movs	r1, #100
 2480              	.LVL235:
 2481              		.loc 1 632 5 view .LVU581
 2482 0004 FFF7FEBF 		b	lv_style_set_prop
 2483              	.LVL236:
 2484              		.loc 1 632 5 view .LVU582
ARM GAS  /var/folders/0z/tsy30v1j4xl4_7kw94k978ww0000gn/T//ccqJTzTx.s 			page 55


 2485              		.cfi_endproc
 2486              	.LFE132:
 2488              		.section	.text.lv_style_set_anim_time,"ax",%progbits
 2489              		.align	1
 2490              		.p2align 2,,3
 2491              		.global	lv_style_set_anim_time
 2492              		.syntax unified
 2493              		.thumb
 2494              		.thumb_func
 2496              	lv_style_set_anim_time:
 2497              	.LVL237:
 2498              	.LFB133:
 633:Drivers/lvgl/src/misc/lv_style_gen.c **** }
 634:Drivers/lvgl/src/misc/lv_style_gen.c **** 
 635:Drivers/lvgl/src/misc/lv_style_gen.c **** void lv_style_set_anim_time(lv_style_t * style, uint32_t value)
 636:Drivers/lvgl/src/misc/lv_style_gen.c **** {
 2499              		.loc 1 636 1 is_stmt 1 view -0
 2500              		.cfi_startproc
 2501              		@ args = 0, pretend = 0, frame = 0
 2502              		@ frame_needed = 0, uses_anonymous_args = 0
 2503              		@ link register save eliminated.
 637:Drivers/lvgl/src/misc/lv_style_gen.c ****     lv_style_value_t v = {
 2504              		.loc 1 637 5 view .LVU584
 638:Drivers/lvgl/src/misc/lv_style_gen.c ****         .num = (int32_t)value
 639:Drivers/lvgl/src/misc/lv_style_gen.c ****     };
 640:Drivers/lvgl/src/misc/lv_style_gen.c ****     lv_style_set_prop(style, LV_STYLE_ANIM_TIME, v);
 2505              		.loc 1 640 5 view .LVU585
 636:Drivers/lvgl/src/misc/lv_style_gen.c ****     lv_style_value_t v = {
 2506              		.loc 1 636 1 is_stmt 0 view .LVU586
 2507 0000 0A46     		mov	r2, r1
 2508              		.loc 1 640 5 view .LVU587
 2509 0002 6521     		movs	r1, #101
 2510              	.LVL238:
 2511              		.loc 1 640 5 view .LVU588
 2512 0004 FFF7FEBF 		b	lv_style_set_prop
 2513              	.LVL239:
 2514              		.loc 1 640 5 view .LVU589
 2515              		.cfi_endproc
 2516              	.LFE133:
 2518              		.section	.text.lv_style_set_anim_speed,"ax",%progbits
 2519              		.align	1
 2520              		.p2align 2,,3
 2521              		.global	lv_style_set_anim_speed
 2522              		.syntax unified
 2523              		.thumb
 2524              		.thumb_func
 2526              	lv_style_set_anim_speed:
 2527              	.LVL240:
 2528              	.LFB134:
 641:Drivers/lvgl/src/misc/lv_style_gen.c **** }
 642:Drivers/lvgl/src/misc/lv_style_gen.c **** 
 643:Drivers/lvgl/src/misc/lv_style_gen.c **** void lv_style_set_anim_speed(lv_style_t * style, uint32_t value)
 644:Drivers/lvgl/src/misc/lv_style_gen.c **** {
 2529              		.loc 1 644 1 is_stmt 1 view -0
 2530              		.cfi_startproc
 2531              		@ args = 0, pretend = 0, frame = 0
 2532              		@ frame_needed = 0, uses_anonymous_args = 0
ARM GAS  /var/folders/0z/tsy30v1j4xl4_7kw94k978ww0000gn/T//ccqJTzTx.s 			page 56


 2533              		@ link register save eliminated.
 645:Drivers/lvgl/src/misc/lv_style_gen.c ****     lv_style_value_t v = {
 2534              		.loc 1 645 5 view .LVU591
 646:Drivers/lvgl/src/misc/lv_style_gen.c ****         .num = (int32_t)value
 647:Drivers/lvgl/src/misc/lv_style_gen.c ****     };
 648:Drivers/lvgl/src/misc/lv_style_gen.c ****     lv_style_set_prop(style, LV_STYLE_ANIM_SPEED, v);
 2535              		.loc 1 648 5 view .LVU592
 644:Drivers/lvgl/src/misc/lv_style_gen.c ****     lv_style_value_t v = {
 2536              		.loc 1 644 1 is_stmt 0 view .LVU593
 2537 0000 0A46     		mov	r2, r1
 2538              		.loc 1 648 5 view .LVU594
 2539 0002 6621     		movs	r1, #102
 2540              	.LVL241:
 2541              		.loc 1 648 5 view .LVU595
 2542 0004 FFF7FEBF 		b	lv_style_set_prop
 2543              	.LVL242:
 2544              		.loc 1 648 5 view .LVU596
 2545              		.cfi_endproc
 2546              	.LFE134:
 2548              		.section	.text.lv_style_set_transition,"ax",%progbits
 2549              		.align	1
 2550              		.p2align 2,,3
 2551              		.global	lv_style_set_transition
 2552              		.syntax unified
 2553              		.thumb
 2554              		.thumb_func
 2556              	lv_style_set_transition:
 2557              	.LVL243:
 2558              	.LFB135:
 649:Drivers/lvgl/src/misc/lv_style_gen.c **** }
 650:Drivers/lvgl/src/misc/lv_style_gen.c **** 
 651:Drivers/lvgl/src/misc/lv_style_gen.c **** void lv_style_set_transition(lv_style_t * style, const lv_style_transition_dsc_t * value)
 652:Drivers/lvgl/src/misc/lv_style_gen.c **** {
 2559              		.loc 1 652 1 is_stmt 1 view -0
 2560              		.cfi_startproc
 2561              		@ args = 0, pretend = 0, frame = 0
 2562              		@ frame_needed = 0, uses_anonymous_args = 0
 2563              		@ link register save eliminated.
 653:Drivers/lvgl/src/misc/lv_style_gen.c ****     lv_style_value_t v = {
 2564              		.loc 1 653 5 view .LVU598
 654:Drivers/lvgl/src/misc/lv_style_gen.c ****         .ptr = value
 655:Drivers/lvgl/src/misc/lv_style_gen.c ****     };
 656:Drivers/lvgl/src/misc/lv_style_gen.c ****     lv_style_set_prop(style, LV_STYLE_TRANSITION, v);
 2565              		.loc 1 656 5 view .LVU599
 652:Drivers/lvgl/src/misc/lv_style_gen.c ****     lv_style_value_t v = {
 2566              		.loc 1 652 1 is_stmt 0 view .LVU600
 2567 0000 0A46     		mov	r2, r1
 2568              		.loc 1 656 5 view .LVU601
 2569 0002 6721     		movs	r1, #103
 2570              	.LVL244:
 2571              		.loc 1 656 5 view .LVU602
 2572 0004 FFF7FEBF 		b	lv_style_set_prop
 2573              	.LVL245:
 2574              		.loc 1 656 5 view .LVU603
 2575              		.cfi_endproc
 2576              	.LFE135:
 2578              		.section	.text.lv_style_set_blend_mode,"ax",%progbits
ARM GAS  /var/folders/0z/tsy30v1j4xl4_7kw94k978ww0000gn/T//ccqJTzTx.s 			page 57


 2579              		.align	1
 2580              		.p2align 2,,3
 2581              		.global	lv_style_set_blend_mode
 2582              		.syntax unified
 2583              		.thumb
 2584              		.thumb_func
 2586              	lv_style_set_blend_mode:
 2587              	.LVL246:
 2588              	.LFB136:
 657:Drivers/lvgl/src/misc/lv_style_gen.c **** }
 658:Drivers/lvgl/src/misc/lv_style_gen.c **** 
 659:Drivers/lvgl/src/misc/lv_style_gen.c **** void lv_style_set_blend_mode(lv_style_t * style, lv_blend_mode_t value)
 660:Drivers/lvgl/src/misc/lv_style_gen.c **** {
 2589              		.loc 1 660 1 is_stmt 1 view -0
 2590              		.cfi_startproc
 2591              		@ args = 0, pretend = 0, frame = 0
 2592              		@ frame_needed = 0, uses_anonymous_args = 0
 2593              		@ link register save eliminated.
 661:Drivers/lvgl/src/misc/lv_style_gen.c ****     lv_style_value_t v = {
 2594              		.loc 1 661 5 view .LVU605
 662:Drivers/lvgl/src/misc/lv_style_gen.c ****         .num = (int32_t)value
 663:Drivers/lvgl/src/misc/lv_style_gen.c ****     };
 664:Drivers/lvgl/src/misc/lv_style_gen.c ****     lv_style_set_prop(style, LV_STYLE_BLEND_MODE, v);
 2595              		.loc 1 664 5 view .LVU606
 660:Drivers/lvgl/src/misc/lv_style_gen.c ****     lv_style_value_t v = {
 2596              		.loc 1 660 1 is_stmt 0 view .LVU607
 2597 0000 0A46     		mov	r2, r1
 2598              		.loc 1 664 5 view .LVU608
 2599 0002 6821     		movs	r1, #104
 2600              	.LVL247:
 2601              		.loc 1 664 5 view .LVU609
 2602 0004 FFF7FEBF 		b	lv_style_set_prop
 2603              	.LVL248:
 2604              		.loc 1 664 5 view .LVU610
 2605              		.cfi_endproc
 2606              	.LFE136:
 2608              		.section	.text.lv_style_set_layout,"ax",%progbits
 2609              		.align	1
 2610              		.p2align 2,,3
 2611              		.global	lv_style_set_layout
 2612              		.syntax unified
 2613              		.thumb
 2614              		.thumb_func
 2616              	lv_style_set_layout:
 2617              	.LVL249:
 2618              	.LFB137:
 665:Drivers/lvgl/src/misc/lv_style_gen.c **** }
 666:Drivers/lvgl/src/misc/lv_style_gen.c **** 
 667:Drivers/lvgl/src/misc/lv_style_gen.c **** void lv_style_set_layout(lv_style_t * style, uint16_t value)
 668:Drivers/lvgl/src/misc/lv_style_gen.c **** {
 2619              		.loc 1 668 1 is_stmt 1 view -0
 2620              		.cfi_startproc
 2621              		@ args = 0, pretend = 0, frame = 0
 2622              		@ frame_needed = 0, uses_anonymous_args = 0
 2623              		@ link register save eliminated.
 669:Drivers/lvgl/src/misc/lv_style_gen.c ****     lv_style_value_t v = {
 2624              		.loc 1 669 5 view .LVU612
ARM GAS  /var/folders/0z/tsy30v1j4xl4_7kw94k978ww0000gn/T//ccqJTzTx.s 			page 58


 670:Drivers/lvgl/src/misc/lv_style_gen.c ****         .num = (int32_t)value
 671:Drivers/lvgl/src/misc/lv_style_gen.c ****     };
 672:Drivers/lvgl/src/misc/lv_style_gen.c ****     lv_style_set_prop(style, LV_STYLE_LAYOUT, v);
 2625              		.loc 1 672 5 view .LVU613
 668:Drivers/lvgl/src/misc/lv_style_gen.c ****     lv_style_value_t v = {
 2626              		.loc 1 668 1 is_stmt 0 view .LVU614
 2627 0000 0A46     		mov	r2, r1
 2628              		.loc 1 672 5 view .LVU615
 2629 0002 0A21     		movs	r1, #10
 2630              	.LVL250:
 2631              		.loc 1 672 5 view .LVU616
 2632 0004 FFF7FEBF 		b	lv_style_set_prop
 2633              	.LVL251:
 2634              		.loc 1 672 5 view .LVU617
 2635              		.cfi_endproc
 2636              	.LFE137:
 2638              		.section	.text.lv_style_set_base_dir,"ax",%progbits
 2639              		.align	1
 2640              		.p2align 2,,3
 2641              		.global	lv_style_set_base_dir
 2642              		.syntax unified
 2643              		.thumb
 2644              		.thumb_func
 2646              	lv_style_set_base_dir:
 2647              	.LVL252:
 2648              	.LFB138:
 673:Drivers/lvgl/src/misc/lv_style_gen.c **** }
 674:Drivers/lvgl/src/misc/lv_style_gen.c **** 
 675:Drivers/lvgl/src/misc/lv_style_gen.c **** void lv_style_set_base_dir(lv_style_t * style, lv_base_dir_t value)
 676:Drivers/lvgl/src/misc/lv_style_gen.c **** {
 2649              		.loc 1 676 1 is_stmt 1 view -0
 2650              		.cfi_startproc
 2651              		@ args = 0, pretend = 0, frame = 0
 2652              		@ frame_needed = 0, uses_anonymous_args = 0
 2653              		@ link register save eliminated.
 677:Drivers/lvgl/src/misc/lv_style_gen.c ****     lv_style_value_t v = {
 2654              		.loc 1 677 5 view .LVU619
 678:Drivers/lvgl/src/misc/lv_style_gen.c ****         .num = (int32_t)value
 679:Drivers/lvgl/src/misc/lv_style_gen.c ****     };
 680:Drivers/lvgl/src/misc/lv_style_gen.c ****     lv_style_set_prop(style, LV_STYLE_BASE_DIR, v);
 2655              		.loc 1 680 5 view .LVU620
 676:Drivers/lvgl/src/misc/lv_style_gen.c ****     lv_style_value_t v = {
 2656              		.loc 1 676 1 is_stmt 0 view .LVU621
 2657 0000 0A46     		mov	r2, r1
 2658              		.loc 1 680 5 view .LVU622
 2659 0002 1621     		movs	r1, #22
 2660              	.LVL253:
 2661              		.loc 1 680 5 view .LVU623
 2662 0004 FFF7FEBF 		b	lv_style_set_prop
 2663              	.LVL254:
 2664              		.loc 1 680 5 view .LVU624
 2665              		.cfi_endproc
 2666              	.LFE138:
 2668              		.text
 2669              	.Letext0:
 2670              		.file 2 "/Users/johannes/Library/Application Support/Code/User/globalStorage/bmd.stm32-for-vscode/
 2671              		.file 3 "/Users/johannes/Library/Application Support/Code/User/globalStorage/bmd.stm32-for-vscode/
ARM GAS  /var/folders/0z/tsy30v1j4xl4_7kw94k978ww0000gn/T//ccqJTzTx.s 			page 59


 2672              		.file 4 "Drivers/lvgl/src/misc/../font/../misc/lv_area.h"
 2673              		.file 5 "Drivers/lvgl/src/misc/../font/lv_font.h"
 2674              		.file 6 "Drivers/lvgl/src/misc/lv_color.h"
 2675              		.file 7 "Drivers/lvgl/src/misc/lv_anim.h"
 2676              		.file 8 "Drivers/lvgl/src/misc/lv_txt.h"
 2677              		.file 9 "Drivers/lvgl/src/misc/lv_bidi.h"
 2678              		.file 10 "Drivers/lvgl/src/misc/lv_style.h"
ARM GAS  /var/folders/0z/tsy30v1j4xl4_7kw94k978ww0000gn/T//ccqJTzTx.s 			page 60

