ARM GAS  /var/folders/lp/x54gwt890xv47sdkqj1k04q40000gn/T//ccn9ZgyV.s 			page 1


   1              		.cpu cortex-m4
   2              		.arch armv7e-m
   3              		.fpu fpv4-sp-d16
   4              		.eabi_attribute 27, 1
   5              		.eabi_attribute 28, 1
   6              		.eabi_attribute 20, 1
   7              		.eabi_attribute 21, 1
   8              		.eabi_attribute 23, 3
   9              		.eabi_attribute 24, 1
  10              		.eabi_attribute 25, 1
  11              		.eabi_attribute 26, 1
  12              		.eabi_attribute 30, 2
  13              		.eabi_attribute 34, 1
  14              		.eabi_attribute 18, 4
  15              		.file	"lv_table.c"
  16              		.text
  17              	.Ltext0:
  18              		.cfi_sections	.debug_frame
  19              		.file 1 "Drivers/lvgl/src/widgets/lv_table.c"
  20              		.section	.text.get_row_height,"ax",%progbits
  21              		.align	1
  22              		.p2align 2,,3
  23              		.syntax unified
  24              		.thumb
  25              		.thumb_func
  27              	get_row_height:
  28              	.LVL0:
  29              	.LFB184:
   1:Drivers/lvgl/src/widgets/lv_table.c **** /**
   2:Drivers/lvgl/src/widgets/lv_table.c ****  * @file lv_table.c
   3:Drivers/lvgl/src/widgets/lv_table.c ****  *
   4:Drivers/lvgl/src/widgets/lv_table.c ****  */
   5:Drivers/lvgl/src/widgets/lv_table.c **** 
   6:Drivers/lvgl/src/widgets/lv_table.c **** /*********************
   7:Drivers/lvgl/src/widgets/lv_table.c ****  *      INCLUDES
   8:Drivers/lvgl/src/widgets/lv_table.c ****  *********************/
   9:Drivers/lvgl/src/widgets/lv_table.c **** #include "lv_table.h"
  10:Drivers/lvgl/src/widgets/lv_table.c **** #if LV_USE_TABLE != 0
  11:Drivers/lvgl/src/widgets/lv_table.c **** 
  12:Drivers/lvgl/src/widgets/lv_table.c **** #include "../core/lv_indev.h"
  13:Drivers/lvgl/src/widgets/lv_table.c **** #include "../misc/lv_assert.h"
  14:Drivers/lvgl/src/widgets/lv_table.c **** #include "../misc/lv_txt.h"
  15:Drivers/lvgl/src/widgets/lv_table.c **** #include "../misc/lv_txt_ap.h"
  16:Drivers/lvgl/src/widgets/lv_table.c **** #include "../misc/lv_math.h"
  17:Drivers/lvgl/src/widgets/lv_table.c **** #include "../misc/lv_printf.h"
  18:Drivers/lvgl/src/widgets/lv_table.c **** #include "../draw/lv_draw.h"
  19:Drivers/lvgl/src/widgets/lv_table.c **** 
  20:Drivers/lvgl/src/widgets/lv_table.c **** /*********************
  21:Drivers/lvgl/src/widgets/lv_table.c ****  *      DEFINES
  22:Drivers/lvgl/src/widgets/lv_table.c ****  *********************/
  23:Drivers/lvgl/src/widgets/lv_table.c **** #define MY_CLASS &lv_table_class
  24:Drivers/lvgl/src/widgets/lv_table.c **** 
  25:Drivers/lvgl/src/widgets/lv_table.c **** /**********************
  26:Drivers/lvgl/src/widgets/lv_table.c ****  *      TYPEDEFS
  27:Drivers/lvgl/src/widgets/lv_table.c ****  **********************/
  28:Drivers/lvgl/src/widgets/lv_table.c **** 
  29:Drivers/lvgl/src/widgets/lv_table.c **** /**********************
ARM GAS  /var/folders/lp/x54gwt890xv47sdkqj1k04q40000gn/T//ccn9ZgyV.s 			page 2


  30:Drivers/lvgl/src/widgets/lv_table.c ****  *  STATIC PROTOTYPES
  31:Drivers/lvgl/src/widgets/lv_table.c ****  **********************/
  32:Drivers/lvgl/src/widgets/lv_table.c **** static void lv_table_constructor(const lv_obj_class_t * class_p, lv_obj_t * obj);
  33:Drivers/lvgl/src/widgets/lv_table.c **** static void lv_table_destructor(const lv_obj_class_t * class_p, lv_obj_t * obj);
  34:Drivers/lvgl/src/widgets/lv_table.c **** static void lv_table_event(const lv_obj_class_t * class_p, lv_event_t * e);
  35:Drivers/lvgl/src/widgets/lv_table.c **** static void draw_main(lv_event_t * e);
  36:Drivers/lvgl/src/widgets/lv_table.c **** static lv_coord_t get_row_height(lv_obj_t * obj, uint16_t row_id, const lv_font_t * font,
  37:Drivers/lvgl/src/widgets/lv_table.c ****                                  lv_coord_t letter_space, lv_coord_t line_space,
  38:Drivers/lvgl/src/widgets/lv_table.c ****                                  lv_coord_t cell_left, lv_coord_t cell_right, lv_coord_t cell_top, 
  39:Drivers/lvgl/src/widgets/lv_table.c **** static void refr_size_form_row(lv_obj_t * obj, uint32_t start_row);
  40:Drivers/lvgl/src/widgets/lv_table.c **** static void refr_cell_size(lv_obj_t * obj, uint32_t row, uint32_t col);
  41:Drivers/lvgl/src/widgets/lv_table.c **** static lv_res_t get_pressed_cell(lv_obj_t * obj, uint16_t * row, uint16_t * col);
  42:Drivers/lvgl/src/widgets/lv_table.c **** static size_t get_cell_txt_len(const char * txt);
  43:Drivers/lvgl/src/widgets/lv_table.c **** static void copy_cell_txt(lv_table_cell_t * dst, const char * txt);
  44:Drivers/lvgl/src/widgets/lv_table.c **** static void get_cell_area(lv_obj_t * obj, uint16_t row, uint16_t col, lv_area_t * area);
  45:Drivers/lvgl/src/widgets/lv_table.c **** static void scroll_to_selected_cell(lv_obj_t * obj);
  46:Drivers/lvgl/src/widgets/lv_table.c **** 
  47:Drivers/lvgl/src/widgets/lv_table.c **** static inline bool is_cell_empty(void * cell)
  48:Drivers/lvgl/src/widgets/lv_table.c **** {
  49:Drivers/lvgl/src/widgets/lv_table.c ****     return cell == NULL;
  50:Drivers/lvgl/src/widgets/lv_table.c **** }
  51:Drivers/lvgl/src/widgets/lv_table.c **** 
  52:Drivers/lvgl/src/widgets/lv_table.c **** /**********************
  53:Drivers/lvgl/src/widgets/lv_table.c ****  *  STATIC VARIABLES
  54:Drivers/lvgl/src/widgets/lv_table.c ****  **********************/
  55:Drivers/lvgl/src/widgets/lv_table.c **** const lv_obj_class_t lv_table_class  = {
  56:Drivers/lvgl/src/widgets/lv_table.c ****     .constructor_cb = lv_table_constructor,
  57:Drivers/lvgl/src/widgets/lv_table.c ****     .destructor_cb = lv_table_destructor,
  58:Drivers/lvgl/src/widgets/lv_table.c ****     .event_cb = lv_table_event,
  59:Drivers/lvgl/src/widgets/lv_table.c ****     .width_def = LV_SIZE_CONTENT,
  60:Drivers/lvgl/src/widgets/lv_table.c ****     .height_def = LV_SIZE_CONTENT,
  61:Drivers/lvgl/src/widgets/lv_table.c ****     .base_class = &lv_obj_class,
  62:Drivers/lvgl/src/widgets/lv_table.c ****     .editable = LV_OBJ_CLASS_EDITABLE_TRUE,
  63:Drivers/lvgl/src/widgets/lv_table.c ****     .group_def = LV_OBJ_CLASS_GROUP_DEF_TRUE,
  64:Drivers/lvgl/src/widgets/lv_table.c ****     .instance_size = sizeof(lv_table_t),
  65:Drivers/lvgl/src/widgets/lv_table.c **** };
  66:Drivers/lvgl/src/widgets/lv_table.c **** /**********************
  67:Drivers/lvgl/src/widgets/lv_table.c ****  *      MACROS
  68:Drivers/lvgl/src/widgets/lv_table.c ****  **********************/
  69:Drivers/lvgl/src/widgets/lv_table.c **** 
  70:Drivers/lvgl/src/widgets/lv_table.c **** /**********************
  71:Drivers/lvgl/src/widgets/lv_table.c ****  *   GLOBAL FUNCTIONS
  72:Drivers/lvgl/src/widgets/lv_table.c ****  **********************/
  73:Drivers/lvgl/src/widgets/lv_table.c **** 
  74:Drivers/lvgl/src/widgets/lv_table.c **** lv_obj_t * lv_table_create(lv_obj_t * parent)
  75:Drivers/lvgl/src/widgets/lv_table.c **** {
  76:Drivers/lvgl/src/widgets/lv_table.c ****     LV_LOG_INFO("begin");
  77:Drivers/lvgl/src/widgets/lv_table.c ****     lv_obj_t * obj = lv_obj_class_create_obj(MY_CLASS, parent);
  78:Drivers/lvgl/src/widgets/lv_table.c ****     lv_obj_class_init_obj(obj);
  79:Drivers/lvgl/src/widgets/lv_table.c ****     return obj;
  80:Drivers/lvgl/src/widgets/lv_table.c **** }
  81:Drivers/lvgl/src/widgets/lv_table.c **** 
  82:Drivers/lvgl/src/widgets/lv_table.c **** /*=====================
  83:Drivers/lvgl/src/widgets/lv_table.c ****  * Setter functions
  84:Drivers/lvgl/src/widgets/lv_table.c ****  *====================*/
  85:Drivers/lvgl/src/widgets/lv_table.c **** 
  86:Drivers/lvgl/src/widgets/lv_table.c **** void lv_table_set_cell_value(lv_obj_t * obj, uint16_t row, uint16_t col, const char * txt)
ARM GAS  /var/folders/lp/x54gwt890xv47sdkqj1k04q40000gn/T//ccn9ZgyV.s 			page 3


  87:Drivers/lvgl/src/widgets/lv_table.c **** {
  88:Drivers/lvgl/src/widgets/lv_table.c ****     LV_ASSERT_OBJ(obj, MY_CLASS);
  89:Drivers/lvgl/src/widgets/lv_table.c ****     LV_ASSERT_NULL(txt);
  90:Drivers/lvgl/src/widgets/lv_table.c **** 
  91:Drivers/lvgl/src/widgets/lv_table.c ****     lv_table_t * table = (lv_table_t *)obj;
  92:Drivers/lvgl/src/widgets/lv_table.c **** 
  93:Drivers/lvgl/src/widgets/lv_table.c ****     /*Auto expand*/
  94:Drivers/lvgl/src/widgets/lv_table.c ****     if(col >= table->col_cnt) lv_table_set_col_cnt(obj, col + 1);
  95:Drivers/lvgl/src/widgets/lv_table.c ****     if(row >= table->row_cnt) lv_table_set_row_cnt(obj, row + 1);
  96:Drivers/lvgl/src/widgets/lv_table.c **** 
  97:Drivers/lvgl/src/widgets/lv_table.c ****     uint32_t cell = row * table->col_cnt + col;
  98:Drivers/lvgl/src/widgets/lv_table.c ****     lv_table_cell_ctrl_t ctrl = 0;
  99:Drivers/lvgl/src/widgets/lv_table.c **** 
 100:Drivers/lvgl/src/widgets/lv_table.c ****     /*Save the control byte*/
 101:Drivers/lvgl/src/widgets/lv_table.c ****     if(table->cell_data[cell]) ctrl = table->cell_data[cell]->ctrl;
 102:Drivers/lvgl/src/widgets/lv_table.c **** 
 103:Drivers/lvgl/src/widgets/lv_table.c **** #if LV_USE_USER_DATA
 104:Drivers/lvgl/src/widgets/lv_table.c ****     void * user_data = NULL;
 105:Drivers/lvgl/src/widgets/lv_table.c **** 
 106:Drivers/lvgl/src/widgets/lv_table.c ****     /*Save the user data*/
 107:Drivers/lvgl/src/widgets/lv_table.c ****     if(table->cell_data[cell]) user_data = table->cell_data[cell]->user_data;
 108:Drivers/lvgl/src/widgets/lv_table.c **** #endif
 109:Drivers/lvgl/src/widgets/lv_table.c **** 
 110:Drivers/lvgl/src/widgets/lv_table.c ****     size_t to_allocate = get_cell_txt_len(txt);
 111:Drivers/lvgl/src/widgets/lv_table.c **** 
 112:Drivers/lvgl/src/widgets/lv_table.c ****     table->cell_data[cell] = lv_mem_realloc(table->cell_data[cell], to_allocate);
 113:Drivers/lvgl/src/widgets/lv_table.c ****     LV_ASSERT_MALLOC(table->cell_data[cell]);
 114:Drivers/lvgl/src/widgets/lv_table.c ****     if(table->cell_data[cell] == NULL) return;
 115:Drivers/lvgl/src/widgets/lv_table.c **** 
 116:Drivers/lvgl/src/widgets/lv_table.c ****     copy_cell_txt(table->cell_data[cell], txt);
 117:Drivers/lvgl/src/widgets/lv_table.c **** 
 118:Drivers/lvgl/src/widgets/lv_table.c ****     table->cell_data[cell]->ctrl = ctrl;
 119:Drivers/lvgl/src/widgets/lv_table.c **** #if LV_USE_USER_DATA
 120:Drivers/lvgl/src/widgets/lv_table.c ****     table->cell_data[cell]->user_data = user_data;
 121:Drivers/lvgl/src/widgets/lv_table.c **** #endif
 122:Drivers/lvgl/src/widgets/lv_table.c ****     refr_cell_size(obj, row, col);
 123:Drivers/lvgl/src/widgets/lv_table.c **** }
 124:Drivers/lvgl/src/widgets/lv_table.c **** 
 125:Drivers/lvgl/src/widgets/lv_table.c **** void lv_table_set_cell_value_fmt(lv_obj_t * obj, uint16_t row, uint16_t col, const char * fmt, ...)
 126:Drivers/lvgl/src/widgets/lv_table.c **** {
 127:Drivers/lvgl/src/widgets/lv_table.c ****     LV_ASSERT_OBJ(obj, MY_CLASS);
 128:Drivers/lvgl/src/widgets/lv_table.c ****     LV_ASSERT_NULL(fmt);
 129:Drivers/lvgl/src/widgets/lv_table.c **** 
 130:Drivers/lvgl/src/widgets/lv_table.c ****     lv_table_t * table = (lv_table_t *)obj;
 131:Drivers/lvgl/src/widgets/lv_table.c ****     if(col >= table->col_cnt) {
 132:Drivers/lvgl/src/widgets/lv_table.c ****         lv_table_set_col_cnt(obj, col + 1);
 133:Drivers/lvgl/src/widgets/lv_table.c ****     }
 134:Drivers/lvgl/src/widgets/lv_table.c **** 
 135:Drivers/lvgl/src/widgets/lv_table.c ****     /*Auto expand*/
 136:Drivers/lvgl/src/widgets/lv_table.c ****     if(row >= table->row_cnt) {
 137:Drivers/lvgl/src/widgets/lv_table.c ****         lv_table_set_row_cnt(obj, row + 1);
 138:Drivers/lvgl/src/widgets/lv_table.c ****     }
 139:Drivers/lvgl/src/widgets/lv_table.c **** 
 140:Drivers/lvgl/src/widgets/lv_table.c ****     uint32_t cell = row * table->col_cnt + col;
 141:Drivers/lvgl/src/widgets/lv_table.c ****     lv_table_cell_ctrl_t ctrl = 0;
 142:Drivers/lvgl/src/widgets/lv_table.c **** 
 143:Drivers/lvgl/src/widgets/lv_table.c ****     /*Save the control byte*/
ARM GAS  /var/folders/lp/x54gwt890xv47sdkqj1k04q40000gn/T//ccn9ZgyV.s 			page 4


 144:Drivers/lvgl/src/widgets/lv_table.c ****     if(table->cell_data[cell]) ctrl = table->cell_data[cell]->ctrl;
 145:Drivers/lvgl/src/widgets/lv_table.c **** 
 146:Drivers/lvgl/src/widgets/lv_table.c **** #if LV_USE_USER_DATA
 147:Drivers/lvgl/src/widgets/lv_table.c ****     void * user_data = NULL;
 148:Drivers/lvgl/src/widgets/lv_table.c **** 
 149:Drivers/lvgl/src/widgets/lv_table.c ****     /*Save the user_data*/
 150:Drivers/lvgl/src/widgets/lv_table.c ****     if(table->cell_data[cell]) user_data = table->cell_data[cell]->user_data;
 151:Drivers/lvgl/src/widgets/lv_table.c **** #endif
 152:Drivers/lvgl/src/widgets/lv_table.c **** 
 153:Drivers/lvgl/src/widgets/lv_table.c ****     va_list ap, ap2;
 154:Drivers/lvgl/src/widgets/lv_table.c ****     va_start(ap, fmt);
 155:Drivers/lvgl/src/widgets/lv_table.c ****     va_copy(ap2, ap);
 156:Drivers/lvgl/src/widgets/lv_table.c **** 
 157:Drivers/lvgl/src/widgets/lv_table.c ****     /*Allocate space for the new text by using trick from C99 standard section 7.19.6.12*/
 158:Drivers/lvgl/src/widgets/lv_table.c ****     uint32_t len = lv_vsnprintf(NULL, 0, fmt, ap);
 159:Drivers/lvgl/src/widgets/lv_table.c ****     va_end(ap);
 160:Drivers/lvgl/src/widgets/lv_table.c **** 
 161:Drivers/lvgl/src/widgets/lv_table.c **** #if LV_USE_ARABIC_PERSIAN_CHARS
 162:Drivers/lvgl/src/widgets/lv_table.c ****     /*Put together the text according to the format string*/
 163:Drivers/lvgl/src/widgets/lv_table.c ****     char * raw_txt = lv_mem_buf_get(len + 1);
 164:Drivers/lvgl/src/widgets/lv_table.c ****     LV_ASSERT_MALLOC(raw_txt);
 165:Drivers/lvgl/src/widgets/lv_table.c ****     if(raw_txt == NULL) {
 166:Drivers/lvgl/src/widgets/lv_table.c ****         va_end(ap2);
 167:Drivers/lvgl/src/widgets/lv_table.c ****         return;
 168:Drivers/lvgl/src/widgets/lv_table.c ****     }
 169:Drivers/lvgl/src/widgets/lv_table.c **** 
 170:Drivers/lvgl/src/widgets/lv_table.c ****     lv_vsnprintf(raw_txt, len + 1, fmt, ap2);
 171:Drivers/lvgl/src/widgets/lv_table.c **** 
 172:Drivers/lvgl/src/widgets/lv_table.c ****     /*Get the size of the Arabic text and process it*/
 173:Drivers/lvgl/src/widgets/lv_table.c ****     size_t len_ap = _lv_txt_ap_calc_bytes_cnt(raw_txt);
 174:Drivers/lvgl/src/widgets/lv_table.c ****     table->cell_data[cell] = lv_mem_realloc(table->cell_data[cell], sizeof(lv_table_cell_t) + len_a
 175:Drivers/lvgl/src/widgets/lv_table.c ****     LV_ASSERT_MALLOC(table->cell_data[cell]);
 176:Drivers/lvgl/src/widgets/lv_table.c ****     if(table->cell_data[cell] == NULL) {
 177:Drivers/lvgl/src/widgets/lv_table.c ****         va_end(ap2);
 178:Drivers/lvgl/src/widgets/lv_table.c ****         return;
 179:Drivers/lvgl/src/widgets/lv_table.c ****     }
 180:Drivers/lvgl/src/widgets/lv_table.c ****     _lv_txt_ap_proc(raw_txt, table->cell_data[cell]->txt);
 181:Drivers/lvgl/src/widgets/lv_table.c **** 
 182:Drivers/lvgl/src/widgets/lv_table.c ****     lv_mem_buf_release(raw_txt);
 183:Drivers/lvgl/src/widgets/lv_table.c **** #else
 184:Drivers/lvgl/src/widgets/lv_table.c ****     table->cell_data[cell] = lv_mem_realloc(table->cell_data[cell],
 185:Drivers/lvgl/src/widgets/lv_table.c ****                                             sizeof(lv_table_cell_t) + len + 1); /*+1: trailing '\0;
 186:Drivers/lvgl/src/widgets/lv_table.c ****     LV_ASSERT_MALLOC(table->cell_data[cell]);
 187:Drivers/lvgl/src/widgets/lv_table.c ****     if(table->cell_data[cell] == NULL) {
 188:Drivers/lvgl/src/widgets/lv_table.c ****         va_end(ap2);
 189:Drivers/lvgl/src/widgets/lv_table.c ****         return;
 190:Drivers/lvgl/src/widgets/lv_table.c ****     }
 191:Drivers/lvgl/src/widgets/lv_table.c **** 
 192:Drivers/lvgl/src/widgets/lv_table.c ****     table->cell_data[cell]->txt[len] = 0; /*Ensure NULL termination*/
 193:Drivers/lvgl/src/widgets/lv_table.c **** 
 194:Drivers/lvgl/src/widgets/lv_table.c ****     lv_vsnprintf(table->cell_data[cell]->txt, len + 1, fmt, ap2);
 195:Drivers/lvgl/src/widgets/lv_table.c **** #endif
 196:Drivers/lvgl/src/widgets/lv_table.c **** 
 197:Drivers/lvgl/src/widgets/lv_table.c ****     va_end(ap2);
 198:Drivers/lvgl/src/widgets/lv_table.c **** 
 199:Drivers/lvgl/src/widgets/lv_table.c ****     table->cell_data[cell]->ctrl = ctrl;
 200:Drivers/lvgl/src/widgets/lv_table.c **** #if LV_USE_USER_DATA
ARM GAS  /var/folders/lp/x54gwt890xv47sdkqj1k04q40000gn/T//ccn9ZgyV.s 			page 5


 201:Drivers/lvgl/src/widgets/lv_table.c ****     table->cell_data[cell]->user_data = user_data;
 202:Drivers/lvgl/src/widgets/lv_table.c **** #endif
 203:Drivers/lvgl/src/widgets/lv_table.c ****     refr_cell_size(obj, row, col);
 204:Drivers/lvgl/src/widgets/lv_table.c **** }
 205:Drivers/lvgl/src/widgets/lv_table.c **** 
 206:Drivers/lvgl/src/widgets/lv_table.c **** void lv_table_set_row_cnt(lv_obj_t * obj, uint16_t row_cnt)
 207:Drivers/lvgl/src/widgets/lv_table.c **** {
 208:Drivers/lvgl/src/widgets/lv_table.c ****     LV_ASSERT_OBJ(obj, MY_CLASS);
 209:Drivers/lvgl/src/widgets/lv_table.c **** 
 210:Drivers/lvgl/src/widgets/lv_table.c ****     lv_table_t * table = (lv_table_t *)obj;
 211:Drivers/lvgl/src/widgets/lv_table.c **** 
 212:Drivers/lvgl/src/widgets/lv_table.c ****     if(table->row_cnt == row_cnt) return;
 213:Drivers/lvgl/src/widgets/lv_table.c **** 
 214:Drivers/lvgl/src/widgets/lv_table.c ****     uint16_t old_row_cnt = table->row_cnt;
 215:Drivers/lvgl/src/widgets/lv_table.c ****     table->row_cnt         = row_cnt;
 216:Drivers/lvgl/src/widgets/lv_table.c **** 
 217:Drivers/lvgl/src/widgets/lv_table.c ****     table->row_h = lv_mem_realloc(table->row_h, table->row_cnt * sizeof(table->row_h[0]));
 218:Drivers/lvgl/src/widgets/lv_table.c ****     LV_ASSERT_MALLOC(table->row_h);
 219:Drivers/lvgl/src/widgets/lv_table.c ****     if(table->row_h == NULL) return;
 220:Drivers/lvgl/src/widgets/lv_table.c **** 
 221:Drivers/lvgl/src/widgets/lv_table.c ****     /*Free the unused cells*/
 222:Drivers/lvgl/src/widgets/lv_table.c ****     if(old_row_cnt > row_cnt) {
 223:Drivers/lvgl/src/widgets/lv_table.c ****         uint16_t old_cell_cnt = old_row_cnt * table->col_cnt;
 224:Drivers/lvgl/src/widgets/lv_table.c ****         uint32_t new_cell_cnt = table->col_cnt * table->row_cnt;
 225:Drivers/lvgl/src/widgets/lv_table.c ****         uint32_t i;
 226:Drivers/lvgl/src/widgets/lv_table.c ****         for(i = new_cell_cnt; i < old_cell_cnt; i++) {
 227:Drivers/lvgl/src/widgets/lv_table.c **** #if LV_USE_USER_DATA
 228:Drivers/lvgl/src/widgets/lv_table.c ****             if(table->cell_data[i]->user_data) {
 229:Drivers/lvgl/src/widgets/lv_table.c ****                 lv_mem_free(table->cell_data[i]->user_data);
 230:Drivers/lvgl/src/widgets/lv_table.c ****                 table->cell_data[i]->user_data = NULL;
 231:Drivers/lvgl/src/widgets/lv_table.c ****             }
 232:Drivers/lvgl/src/widgets/lv_table.c **** #endif
 233:Drivers/lvgl/src/widgets/lv_table.c ****             lv_mem_free(table->cell_data[i]);
 234:Drivers/lvgl/src/widgets/lv_table.c ****         }
 235:Drivers/lvgl/src/widgets/lv_table.c ****     }
 236:Drivers/lvgl/src/widgets/lv_table.c **** 
 237:Drivers/lvgl/src/widgets/lv_table.c ****     table->cell_data = lv_mem_realloc(table->cell_data, table->row_cnt * table->col_cnt * sizeof(lv
 238:Drivers/lvgl/src/widgets/lv_table.c ****     LV_ASSERT_MALLOC(table->cell_data);
 239:Drivers/lvgl/src/widgets/lv_table.c ****     if(table->cell_data == NULL) return;
 240:Drivers/lvgl/src/widgets/lv_table.c **** 
 241:Drivers/lvgl/src/widgets/lv_table.c ****     /*Initialize the new fields*/
 242:Drivers/lvgl/src/widgets/lv_table.c ****     if(old_row_cnt < row_cnt) {
 243:Drivers/lvgl/src/widgets/lv_table.c ****         uint32_t old_cell_cnt = old_row_cnt * table->col_cnt;
 244:Drivers/lvgl/src/widgets/lv_table.c ****         uint32_t new_cell_cnt = table->col_cnt * table->row_cnt;
 245:Drivers/lvgl/src/widgets/lv_table.c ****         lv_memset_00(&table->cell_data[old_cell_cnt], (new_cell_cnt - old_cell_cnt) * sizeof(table-
 246:Drivers/lvgl/src/widgets/lv_table.c ****     }
 247:Drivers/lvgl/src/widgets/lv_table.c **** 
 248:Drivers/lvgl/src/widgets/lv_table.c ****     refr_size_form_row(obj, 0);
 249:Drivers/lvgl/src/widgets/lv_table.c **** }
 250:Drivers/lvgl/src/widgets/lv_table.c **** 
 251:Drivers/lvgl/src/widgets/lv_table.c **** void lv_table_set_col_cnt(lv_obj_t * obj, uint16_t col_cnt)
 252:Drivers/lvgl/src/widgets/lv_table.c **** {
 253:Drivers/lvgl/src/widgets/lv_table.c ****     LV_ASSERT_OBJ(obj, MY_CLASS);
 254:Drivers/lvgl/src/widgets/lv_table.c **** 
 255:Drivers/lvgl/src/widgets/lv_table.c ****     lv_table_t * table = (lv_table_t *)obj;
 256:Drivers/lvgl/src/widgets/lv_table.c **** 
 257:Drivers/lvgl/src/widgets/lv_table.c ****     if(table->col_cnt == col_cnt) return;
ARM GAS  /var/folders/lp/x54gwt890xv47sdkqj1k04q40000gn/T//ccn9ZgyV.s 			page 6


 258:Drivers/lvgl/src/widgets/lv_table.c **** 
 259:Drivers/lvgl/src/widgets/lv_table.c ****     uint16_t old_col_cnt = table->col_cnt;
 260:Drivers/lvgl/src/widgets/lv_table.c ****     table->col_cnt         = col_cnt;
 261:Drivers/lvgl/src/widgets/lv_table.c **** 
 262:Drivers/lvgl/src/widgets/lv_table.c ****     lv_table_cell_t ** new_cell_data = lv_mem_alloc(table->row_cnt * table->col_cnt * sizeof(lv_tab
 263:Drivers/lvgl/src/widgets/lv_table.c ****     LV_ASSERT_MALLOC(new_cell_data);
 264:Drivers/lvgl/src/widgets/lv_table.c ****     if(new_cell_data == NULL) return;
 265:Drivers/lvgl/src/widgets/lv_table.c ****     uint32_t new_cell_cnt = table->col_cnt * table->row_cnt;
 266:Drivers/lvgl/src/widgets/lv_table.c **** 
 267:Drivers/lvgl/src/widgets/lv_table.c ****     lv_memset_00(new_cell_data, new_cell_cnt * sizeof(table->cell_data[0]));
 268:Drivers/lvgl/src/widgets/lv_table.c **** 
 269:Drivers/lvgl/src/widgets/lv_table.c ****     /*The new column(s) messes up the mapping of `cell_data`*/
 270:Drivers/lvgl/src/widgets/lv_table.c ****     uint32_t old_col_start;
 271:Drivers/lvgl/src/widgets/lv_table.c ****     uint32_t new_col_start;
 272:Drivers/lvgl/src/widgets/lv_table.c ****     uint32_t min_col_cnt = LV_MIN(old_col_cnt, col_cnt);
 273:Drivers/lvgl/src/widgets/lv_table.c ****     uint32_t row;
 274:Drivers/lvgl/src/widgets/lv_table.c ****     for(row = 0; row < table->row_cnt; row++) {
 275:Drivers/lvgl/src/widgets/lv_table.c ****         old_col_start = row * old_col_cnt;
 276:Drivers/lvgl/src/widgets/lv_table.c ****         new_col_start = row * col_cnt;
 277:Drivers/lvgl/src/widgets/lv_table.c **** 
 278:Drivers/lvgl/src/widgets/lv_table.c ****         lv_memcpy_small(&new_cell_data[new_col_start], &table->cell_data[old_col_start],
 279:Drivers/lvgl/src/widgets/lv_table.c ****                         sizeof(new_cell_data[0]) * min_col_cnt);
 280:Drivers/lvgl/src/widgets/lv_table.c **** 
 281:Drivers/lvgl/src/widgets/lv_table.c ****         /*Free the old cells (only if the table becomes smaller)*/
 282:Drivers/lvgl/src/widgets/lv_table.c ****         int32_t i;
 283:Drivers/lvgl/src/widgets/lv_table.c ****         for(i = 0; i < (int32_t)old_col_cnt - col_cnt; i++) {
 284:Drivers/lvgl/src/widgets/lv_table.c ****             uint32_t idx = old_col_start + min_col_cnt + i;
 285:Drivers/lvgl/src/widgets/lv_table.c **** #if LV_USE_USER_DATA
 286:Drivers/lvgl/src/widgets/lv_table.c ****             if(table->cell_data[idx]->user_data) {
 287:Drivers/lvgl/src/widgets/lv_table.c ****                 lv_mem_free(table->cell_data[idx]->user_data);
 288:Drivers/lvgl/src/widgets/lv_table.c ****                 table->cell_data[idx]->user_data = NULL;
 289:Drivers/lvgl/src/widgets/lv_table.c ****             }
 290:Drivers/lvgl/src/widgets/lv_table.c **** #endif
 291:Drivers/lvgl/src/widgets/lv_table.c ****             lv_mem_free(table->cell_data[idx]);
 292:Drivers/lvgl/src/widgets/lv_table.c ****             table->cell_data[idx] = NULL;
 293:Drivers/lvgl/src/widgets/lv_table.c ****         }
 294:Drivers/lvgl/src/widgets/lv_table.c ****     }
 295:Drivers/lvgl/src/widgets/lv_table.c **** 
 296:Drivers/lvgl/src/widgets/lv_table.c ****     lv_mem_free(table->cell_data);
 297:Drivers/lvgl/src/widgets/lv_table.c ****     table->cell_data = new_cell_data;
 298:Drivers/lvgl/src/widgets/lv_table.c **** 
 299:Drivers/lvgl/src/widgets/lv_table.c ****     /*Initialize the new column widths if any*/
 300:Drivers/lvgl/src/widgets/lv_table.c ****     table->col_w = lv_mem_realloc(table->col_w, col_cnt * sizeof(table->col_w[0]));
 301:Drivers/lvgl/src/widgets/lv_table.c ****     LV_ASSERT_MALLOC(table->col_w);
 302:Drivers/lvgl/src/widgets/lv_table.c ****     if(table->col_w == NULL) return;
 303:Drivers/lvgl/src/widgets/lv_table.c **** 
 304:Drivers/lvgl/src/widgets/lv_table.c ****     uint32_t col;
 305:Drivers/lvgl/src/widgets/lv_table.c ****     for(col = old_col_cnt; col < col_cnt; col++) {
 306:Drivers/lvgl/src/widgets/lv_table.c ****         table->col_w[col] = LV_DPI_DEF;
 307:Drivers/lvgl/src/widgets/lv_table.c ****     }
 308:Drivers/lvgl/src/widgets/lv_table.c **** 
 309:Drivers/lvgl/src/widgets/lv_table.c **** 
 310:Drivers/lvgl/src/widgets/lv_table.c ****     refr_size_form_row(obj, 0) ;
 311:Drivers/lvgl/src/widgets/lv_table.c **** }
 312:Drivers/lvgl/src/widgets/lv_table.c **** 
 313:Drivers/lvgl/src/widgets/lv_table.c **** void lv_table_set_col_width(lv_obj_t * obj, uint16_t col_id, lv_coord_t w)
 314:Drivers/lvgl/src/widgets/lv_table.c **** {
ARM GAS  /var/folders/lp/x54gwt890xv47sdkqj1k04q40000gn/T//ccn9ZgyV.s 			page 7


 315:Drivers/lvgl/src/widgets/lv_table.c ****     LV_ASSERT_OBJ(obj, MY_CLASS);
 316:Drivers/lvgl/src/widgets/lv_table.c **** 
 317:Drivers/lvgl/src/widgets/lv_table.c ****     lv_table_t * table = (lv_table_t *)obj;
 318:Drivers/lvgl/src/widgets/lv_table.c **** 
 319:Drivers/lvgl/src/widgets/lv_table.c ****     /*Auto expand*/
 320:Drivers/lvgl/src/widgets/lv_table.c ****     if(col_id >= table->col_cnt) lv_table_set_col_cnt(obj, col_id + 1);
 321:Drivers/lvgl/src/widgets/lv_table.c **** 
 322:Drivers/lvgl/src/widgets/lv_table.c ****     table->col_w[col_id] = w;
 323:Drivers/lvgl/src/widgets/lv_table.c ****     refr_size_form_row(obj, 0);
 324:Drivers/lvgl/src/widgets/lv_table.c **** }
 325:Drivers/lvgl/src/widgets/lv_table.c **** 
 326:Drivers/lvgl/src/widgets/lv_table.c **** void lv_table_add_cell_ctrl(lv_obj_t * obj, uint16_t row, uint16_t col, lv_table_cell_ctrl_t ctrl)
 327:Drivers/lvgl/src/widgets/lv_table.c **** {
 328:Drivers/lvgl/src/widgets/lv_table.c ****     LV_ASSERT_OBJ(obj, MY_CLASS);
 329:Drivers/lvgl/src/widgets/lv_table.c **** 
 330:Drivers/lvgl/src/widgets/lv_table.c ****     lv_table_t * table = (lv_table_t *)obj;
 331:Drivers/lvgl/src/widgets/lv_table.c **** 
 332:Drivers/lvgl/src/widgets/lv_table.c ****     /*Auto expand*/
 333:Drivers/lvgl/src/widgets/lv_table.c ****     if(col >= table->col_cnt) lv_table_set_col_cnt(obj, col + 1);
 334:Drivers/lvgl/src/widgets/lv_table.c ****     if(row >= table->row_cnt) lv_table_set_row_cnt(obj, row + 1);
 335:Drivers/lvgl/src/widgets/lv_table.c **** 
 336:Drivers/lvgl/src/widgets/lv_table.c ****     uint32_t cell = row * table->col_cnt + col;
 337:Drivers/lvgl/src/widgets/lv_table.c **** 
 338:Drivers/lvgl/src/widgets/lv_table.c ****     if(is_cell_empty(table->cell_data[cell])) {
 339:Drivers/lvgl/src/widgets/lv_table.c ****         table->cell_data[cell]    = lv_mem_alloc(sizeof(lv_table_cell_t) + 1); /*+1: trailing '\0 *
 340:Drivers/lvgl/src/widgets/lv_table.c ****         LV_ASSERT_MALLOC(table->cell_data[cell]);
 341:Drivers/lvgl/src/widgets/lv_table.c ****         if(table->cell_data[cell] == NULL) return;
 342:Drivers/lvgl/src/widgets/lv_table.c **** 
 343:Drivers/lvgl/src/widgets/lv_table.c ****         table->cell_data[cell]->ctrl = 0;
 344:Drivers/lvgl/src/widgets/lv_table.c **** #if LV_USE_USER_DATA
 345:Drivers/lvgl/src/widgets/lv_table.c ****         table->cell_data[cell]->user_data = NULL;
 346:Drivers/lvgl/src/widgets/lv_table.c **** #endif
 347:Drivers/lvgl/src/widgets/lv_table.c ****         table->cell_data[cell]->txt[0] = '\0';
 348:Drivers/lvgl/src/widgets/lv_table.c ****     }
 349:Drivers/lvgl/src/widgets/lv_table.c **** 
 350:Drivers/lvgl/src/widgets/lv_table.c ****     table->cell_data[cell]->ctrl |= ctrl;
 351:Drivers/lvgl/src/widgets/lv_table.c **** }
 352:Drivers/lvgl/src/widgets/lv_table.c **** 
 353:Drivers/lvgl/src/widgets/lv_table.c **** void lv_table_clear_cell_ctrl(lv_obj_t * obj, uint16_t row, uint16_t col, lv_table_cell_ctrl_t ctrl
 354:Drivers/lvgl/src/widgets/lv_table.c **** {
 355:Drivers/lvgl/src/widgets/lv_table.c ****     LV_ASSERT_OBJ(obj, MY_CLASS);
 356:Drivers/lvgl/src/widgets/lv_table.c **** 
 357:Drivers/lvgl/src/widgets/lv_table.c ****     lv_table_t * table = (lv_table_t *)obj;
 358:Drivers/lvgl/src/widgets/lv_table.c **** 
 359:Drivers/lvgl/src/widgets/lv_table.c ****     /*Auto expand*/
 360:Drivers/lvgl/src/widgets/lv_table.c ****     if(col >= table->col_cnt) lv_table_set_col_cnt(obj, col + 1);
 361:Drivers/lvgl/src/widgets/lv_table.c ****     if(row >= table->row_cnt) lv_table_set_row_cnt(obj, row + 1);
 362:Drivers/lvgl/src/widgets/lv_table.c **** 
 363:Drivers/lvgl/src/widgets/lv_table.c ****     uint32_t cell = row * table->col_cnt + col;
 364:Drivers/lvgl/src/widgets/lv_table.c **** 
 365:Drivers/lvgl/src/widgets/lv_table.c ****     if(is_cell_empty(table->cell_data[cell])) {
 366:Drivers/lvgl/src/widgets/lv_table.c ****         table->cell_data[cell]    = lv_mem_alloc(sizeof(lv_table_cell_t) + 1); /*+1: trailing '\0 *
 367:Drivers/lvgl/src/widgets/lv_table.c ****         LV_ASSERT_MALLOC(table->cell_data[cell]);
 368:Drivers/lvgl/src/widgets/lv_table.c ****         if(table->cell_data[cell] == NULL) return;
 369:Drivers/lvgl/src/widgets/lv_table.c **** 
 370:Drivers/lvgl/src/widgets/lv_table.c ****         table->cell_data[cell]->ctrl = 0;
 371:Drivers/lvgl/src/widgets/lv_table.c **** #if LV_USE_USER_DATA
ARM GAS  /var/folders/lp/x54gwt890xv47sdkqj1k04q40000gn/T//ccn9ZgyV.s 			page 8


 372:Drivers/lvgl/src/widgets/lv_table.c ****         table->cell_data[cell]->user_data = NULL;
 373:Drivers/lvgl/src/widgets/lv_table.c **** #endif
 374:Drivers/lvgl/src/widgets/lv_table.c ****         table->cell_data[cell]->txt[0] = '\0';
 375:Drivers/lvgl/src/widgets/lv_table.c ****     }
 376:Drivers/lvgl/src/widgets/lv_table.c **** 
 377:Drivers/lvgl/src/widgets/lv_table.c ****     table->cell_data[cell]->ctrl &= (~ctrl);
 378:Drivers/lvgl/src/widgets/lv_table.c **** }
 379:Drivers/lvgl/src/widgets/lv_table.c **** 
 380:Drivers/lvgl/src/widgets/lv_table.c **** #if LV_USE_USER_DATA
 381:Drivers/lvgl/src/widgets/lv_table.c **** void lv_table_set_cell_user_data(lv_obj_t * obj, uint16_t row, uint16_t col, void * user_data)
 382:Drivers/lvgl/src/widgets/lv_table.c **** {
 383:Drivers/lvgl/src/widgets/lv_table.c ****     LV_ASSERT_OBJ(obj, MY_CLASS);
 384:Drivers/lvgl/src/widgets/lv_table.c **** 
 385:Drivers/lvgl/src/widgets/lv_table.c ****     lv_table_t * table = (lv_table_t *)obj;
 386:Drivers/lvgl/src/widgets/lv_table.c **** 
 387:Drivers/lvgl/src/widgets/lv_table.c ****     /*Auto expand*/
 388:Drivers/lvgl/src/widgets/lv_table.c ****     if(col >= table->col_cnt) lv_table_set_col_cnt(obj, col + 1);
 389:Drivers/lvgl/src/widgets/lv_table.c ****     if(row >= table->row_cnt) lv_table_set_row_cnt(obj, row + 1);
 390:Drivers/lvgl/src/widgets/lv_table.c **** 
 391:Drivers/lvgl/src/widgets/lv_table.c ****     uint32_t cell = row * table->col_cnt + col;
 392:Drivers/lvgl/src/widgets/lv_table.c **** 
 393:Drivers/lvgl/src/widgets/lv_table.c ****     if(is_cell_empty(table->cell_data[cell])) {
 394:Drivers/lvgl/src/widgets/lv_table.c ****         table->cell_data[cell]    = lv_mem_alloc(sizeof(lv_table_cell_t) + 1); /*+1: trailing '\0 *
 395:Drivers/lvgl/src/widgets/lv_table.c ****         LV_ASSERT_MALLOC(table->cell_data[cell]);
 396:Drivers/lvgl/src/widgets/lv_table.c ****         if(table->cell_data[cell] == NULL) return;
 397:Drivers/lvgl/src/widgets/lv_table.c **** 
 398:Drivers/lvgl/src/widgets/lv_table.c ****         table->cell_data[cell]->ctrl = 0;
 399:Drivers/lvgl/src/widgets/lv_table.c ****         table->cell_data[cell]->user_data = NULL;
 400:Drivers/lvgl/src/widgets/lv_table.c ****         table->cell_data[cell]->txt[0] = '\0';
 401:Drivers/lvgl/src/widgets/lv_table.c ****     }
 402:Drivers/lvgl/src/widgets/lv_table.c **** 
 403:Drivers/lvgl/src/widgets/lv_table.c ****     if(table->cell_data[cell]->user_data) {
 404:Drivers/lvgl/src/widgets/lv_table.c ****         lv_mem_free(table->cell_data[cell]->user_data);
 405:Drivers/lvgl/src/widgets/lv_table.c ****     }
 406:Drivers/lvgl/src/widgets/lv_table.c **** 
 407:Drivers/lvgl/src/widgets/lv_table.c ****     table->cell_data[cell]->user_data = user_data;
 408:Drivers/lvgl/src/widgets/lv_table.c **** }
 409:Drivers/lvgl/src/widgets/lv_table.c **** #endif
 410:Drivers/lvgl/src/widgets/lv_table.c **** 
 411:Drivers/lvgl/src/widgets/lv_table.c **** /*=====================
 412:Drivers/lvgl/src/widgets/lv_table.c ****  * Getter functions
 413:Drivers/lvgl/src/widgets/lv_table.c ****  *====================*/
 414:Drivers/lvgl/src/widgets/lv_table.c **** 
 415:Drivers/lvgl/src/widgets/lv_table.c **** const char * lv_table_get_cell_value(lv_obj_t * obj, uint16_t row, uint16_t col)
 416:Drivers/lvgl/src/widgets/lv_table.c **** {
 417:Drivers/lvgl/src/widgets/lv_table.c ****     LV_ASSERT_OBJ(obj, MY_CLASS);
 418:Drivers/lvgl/src/widgets/lv_table.c **** 
 419:Drivers/lvgl/src/widgets/lv_table.c ****     lv_table_t * table = (lv_table_t *)obj;
 420:Drivers/lvgl/src/widgets/lv_table.c ****     if(row >= table->row_cnt || col >= table->col_cnt) {
 421:Drivers/lvgl/src/widgets/lv_table.c ****         LV_LOG_WARN("invalid row or column");
 422:Drivers/lvgl/src/widgets/lv_table.c ****         return "";
 423:Drivers/lvgl/src/widgets/lv_table.c ****     }
 424:Drivers/lvgl/src/widgets/lv_table.c ****     uint32_t cell = row * table->col_cnt + col;
 425:Drivers/lvgl/src/widgets/lv_table.c **** 
 426:Drivers/lvgl/src/widgets/lv_table.c ****     if(is_cell_empty(table->cell_data[cell])) return "";
 427:Drivers/lvgl/src/widgets/lv_table.c **** 
 428:Drivers/lvgl/src/widgets/lv_table.c ****     return table->cell_data[cell]->txt;
ARM GAS  /var/folders/lp/x54gwt890xv47sdkqj1k04q40000gn/T//ccn9ZgyV.s 			page 9


 429:Drivers/lvgl/src/widgets/lv_table.c **** }
 430:Drivers/lvgl/src/widgets/lv_table.c **** 
 431:Drivers/lvgl/src/widgets/lv_table.c **** uint16_t lv_table_get_row_cnt(lv_obj_t * obj)
 432:Drivers/lvgl/src/widgets/lv_table.c **** {
 433:Drivers/lvgl/src/widgets/lv_table.c ****     LV_ASSERT_OBJ(obj, MY_CLASS);
 434:Drivers/lvgl/src/widgets/lv_table.c **** 
 435:Drivers/lvgl/src/widgets/lv_table.c ****     lv_table_t * table = (lv_table_t *)obj;
 436:Drivers/lvgl/src/widgets/lv_table.c ****     return table->row_cnt;
 437:Drivers/lvgl/src/widgets/lv_table.c **** }
 438:Drivers/lvgl/src/widgets/lv_table.c **** 
 439:Drivers/lvgl/src/widgets/lv_table.c **** uint16_t lv_table_get_col_cnt(lv_obj_t * obj)
 440:Drivers/lvgl/src/widgets/lv_table.c **** {
 441:Drivers/lvgl/src/widgets/lv_table.c ****     LV_ASSERT_OBJ(obj, MY_CLASS);
 442:Drivers/lvgl/src/widgets/lv_table.c **** 
 443:Drivers/lvgl/src/widgets/lv_table.c ****     lv_table_t * table = (lv_table_t *)obj;
 444:Drivers/lvgl/src/widgets/lv_table.c ****     return table->col_cnt;
 445:Drivers/lvgl/src/widgets/lv_table.c **** }
 446:Drivers/lvgl/src/widgets/lv_table.c **** 
 447:Drivers/lvgl/src/widgets/lv_table.c **** lv_coord_t lv_table_get_col_width(lv_obj_t * obj, uint16_t col)
 448:Drivers/lvgl/src/widgets/lv_table.c **** {
 449:Drivers/lvgl/src/widgets/lv_table.c ****     LV_ASSERT_OBJ(obj, MY_CLASS);
 450:Drivers/lvgl/src/widgets/lv_table.c **** 
 451:Drivers/lvgl/src/widgets/lv_table.c ****     lv_table_t * table = (lv_table_t *)obj;
 452:Drivers/lvgl/src/widgets/lv_table.c **** 
 453:Drivers/lvgl/src/widgets/lv_table.c ****     if(col >= table->col_cnt) {
 454:Drivers/lvgl/src/widgets/lv_table.c ****         LV_LOG_WARN("lv_table_set_col_width: too big 'col_id'. Must be < LV_TABLE_COL_MAX.");
 455:Drivers/lvgl/src/widgets/lv_table.c ****         return 0;
 456:Drivers/lvgl/src/widgets/lv_table.c ****     }
 457:Drivers/lvgl/src/widgets/lv_table.c **** 
 458:Drivers/lvgl/src/widgets/lv_table.c ****     return table->col_w[col];
 459:Drivers/lvgl/src/widgets/lv_table.c **** }
 460:Drivers/lvgl/src/widgets/lv_table.c **** 
 461:Drivers/lvgl/src/widgets/lv_table.c **** bool lv_table_has_cell_ctrl(lv_obj_t * obj, uint16_t row, uint16_t col, lv_table_cell_ctrl_t ctrl)
 462:Drivers/lvgl/src/widgets/lv_table.c **** {
 463:Drivers/lvgl/src/widgets/lv_table.c ****     LV_ASSERT_OBJ(obj, MY_CLASS);
 464:Drivers/lvgl/src/widgets/lv_table.c **** 
 465:Drivers/lvgl/src/widgets/lv_table.c ****     lv_table_t * table = (lv_table_t *)obj;
 466:Drivers/lvgl/src/widgets/lv_table.c ****     if(row >= table->row_cnt || col >= table->col_cnt) {
 467:Drivers/lvgl/src/widgets/lv_table.c ****         LV_LOG_WARN("lv_table_get_cell_crop: invalid row or column");
 468:Drivers/lvgl/src/widgets/lv_table.c ****         return false;
 469:Drivers/lvgl/src/widgets/lv_table.c ****     }
 470:Drivers/lvgl/src/widgets/lv_table.c ****     uint32_t cell = row * table->col_cnt + col;
 471:Drivers/lvgl/src/widgets/lv_table.c **** 
 472:Drivers/lvgl/src/widgets/lv_table.c ****     if(is_cell_empty(table->cell_data[cell])) return false;
 473:Drivers/lvgl/src/widgets/lv_table.c ****     else return (table->cell_data[cell]->ctrl & ctrl) == ctrl;
 474:Drivers/lvgl/src/widgets/lv_table.c **** }
 475:Drivers/lvgl/src/widgets/lv_table.c **** 
 476:Drivers/lvgl/src/widgets/lv_table.c **** void lv_table_get_selected_cell(lv_obj_t * obj, uint16_t * row, uint16_t * col)
 477:Drivers/lvgl/src/widgets/lv_table.c **** {
 478:Drivers/lvgl/src/widgets/lv_table.c ****     lv_table_t * table = (lv_table_t *)obj;
 479:Drivers/lvgl/src/widgets/lv_table.c ****     *row = table->row_act;
 480:Drivers/lvgl/src/widgets/lv_table.c ****     *col = table->col_act;
 481:Drivers/lvgl/src/widgets/lv_table.c **** }
 482:Drivers/lvgl/src/widgets/lv_table.c **** 
 483:Drivers/lvgl/src/widgets/lv_table.c **** #if LV_USE_USER_DATA
 484:Drivers/lvgl/src/widgets/lv_table.c **** void * lv_table_get_cell_user_data(lv_obj_t * obj, uint16_t row, uint16_t col)
 485:Drivers/lvgl/src/widgets/lv_table.c **** {
ARM GAS  /var/folders/lp/x54gwt890xv47sdkqj1k04q40000gn/T//ccn9ZgyV.s 			page 10


 486:Drivers/lvgl/src/widgets/lv_table.c ****     LV_ASSERT_OBJ(obj, MY_CLASS);
 487:Drivers/lvgl/src/widgets/lv_table.c **** 
 488:Drivers/lvgl/src/widgets/lv_table.c ****     lv_table_t * table = (lv_table_t *)obj;
 489:Drivers/lvgl/src/widgets/lv_table.c ****     if(row >= table->row_cnt || col >= table->col_cnt) {
 490:Drivers/lvgl/src/widgets/lv_table.c ****         LV_LOG_WARN("invalid row or column");
 491:Drivers/lvgl/src/widgets/lv_table.c ****         return NULL;
 492:Drivers/lvgl/src/widgets/lv_table.c ****     }
 493:Drivers/lvgl/src/widgets/lv_table.c ****     uint32_t cell = row * table->col_cnt + col;
 494:Drivers/lvgl/src/widgets/lv_table.c **** 
 495:Drivers/lvgl/src/widgets/lv_table.c ****     if(is_cell_empty(table->cell_data[cell])) return NULL;
 496:Drivers/lvgl/src/widgets/lv_table.c **** 
 497:Drivers/lvgl/src/widgets/lv_table.c ****     return table->cell_data[cell]->user_data;
 498:Drivers/lvgl/src/widgets/lv_table.c **** }
 499:Drivers/lvgl/src/widgets/lv_table.c **** #endif
 500:Drivers/lvgl/src/widgets/lv_table.c **** 
 501:Drivers/lvgl/src/widgets/lv_table.c **** /**********************
 502:Drivers/lvgl/src/widgets/lv_table.c ****  *   STATIC FUNCTIONS
 503:Drivers/lvgl/src/widgets/lv_table.c ****  **********************/
 504:Drivers/lvgl/src/widgets/lv_table.c **** 
 505:Drivers/lvgl/src/widgets/lv_table.c **** static void lv_table_constructor(const lv_obj_class_t * class_p, lv_obj_t * obj)
 506:Drivers/lvgl/src/widgets/lv_table.c **** {
 507:Drivers/lvgl/src/widgets/lv_table.c ****     LV_UNUSED(class_p);
 508:Drivers/lvgl/src/widgets/lv_table.c ****     LV_TRACE_OBJ_CREATE("begin");
 509:Drivers/lvgl/src/widgets/lv_table.c **** 
 510:Drivers/lvgl/src/widgets/lv_table.c ****     lv_table_t * table = (lv_table_t *)obj;
 511:Drivers/lvgl/src/widgets/lv_table.c **** 
 512:Drivers/lvgl/src/widgets/lv_table.c ****     table->col_cnt = 1;
 513:Drivers/lvgl/src/widgets/lv_table.c ****     table->row_cnt = 1;
 514:Drivers/lvgl/src/widgets/lv_table.c ****     table->col_w = lv_mem_alloc(table->col_cnt * sizeof(table->col_w[0]));
 515:Drivers/lvgl/src/widgets/lv_table.c ****     table->row_h = lv_mem_alloc(table->row_cnt * sizeof(table->row_h[0]));
 516:Drivers/lvgl/src/widgets/lv_table.c ****     table->col_w[0] = LV_DPI_DEF;
 517:Drivers/lvgl/src/widgets/lv_table.c ****     table->row_h[0] = LV_DPI_DEF;
 518:Drivers/lvgl/src/widgets/lv_table.c ****     table->cell_data = lv_mem_realloc(table->cell_data, table->row_cnt * table->col_cnt * sizeof(lv
 519:Drivers/lvgl/src/widgets/lv_table.c ****     table->cell_data[0] = NULL;
 520:Drivers/lvgl/src/widgets/lv_table.c **** 
 521:Drivers/lvgl/src/widgets/lv_table.c ****     LV_TRACE_OBJ_CREATE("finished");
 522:Drivers/lvgl/src/widgets/lv_table.c **** }
 523:Drivers/lvgl/src/widgets/lv_table.c **** 
 524:Drivers/lvgl/src/widgets/lv_table.c **** static void lv_table_destructor(const lv_obj_class_t * class_p, lv_obj_t * obj)
 525:Drivers/lvgl/src/widgets/lv_table.c **** {
 526:Drivers/lvgl/src/widgets/lv_table.c ****     LV_UNUSED(class_p);
 527:Drivers/lvgl/src/widgets/lv_table.c ****     lv_table_t * table = (lv_table_t *)obj;
 528:Drivers/lvgl/src/widgets/lv_table.c ****     /*Free the cell texts*/
 529:Drivers/lvgl/src/widgets/lv_table.c ****     uint16_t i;
 530:Drivers/lvgl/src/widgets/lv_table.c ****     for(i = 0; i < table->col_cnt * table->row_cnt; i++) {
 531:Drivers/lvgl/src/widgets/lv_table.c ****         if(table->cell_data[i]) {
 532:Drivers/lvgl/src/widgets/lv_table.c **** #if LV_USE_USER_DATA
 533:Drivers/lvgl/src/widgets/lv_table.c ****             if(table->cell_data[i]->user_data) {
 534:Drivers/lvgl/src/widgets/lv_table.c ****                 lv_mem_free(table->cell_data[i]->user_data);
 535:Drivers/lvgl/src/widgets/lv_table.c ****                 table->cell_data[i]->user_data = NULL;
 536:Drivers/lvgl/src/widgets/lv_table.c ****             }
 537:Drivers/lvgl/src/widgets/lv_table.c **** #endif
 538:Drivers/lvgl/src/widgets/lv_table.c ****             lv_mem_free(table->cell_data[i]);
 539:Drivers/lvgl/src/widgets/lv_table.c ****             table->cell_data[i] = NULL;
 540:Drivers/lvgl/src/widgets/lv_table.c ****         }
 541:Drivers/lvgl/src/widgets/lv_table.c ****     }
 542:Drivers/lvgl/src/widgets/lv_table.c **** 
ARM GAS  /var/folders/lp/x54gwt890xv47sdkqj1k04q40000gn/T//ccn9ZgyV.s 			page 11


 543:Drivers/lvgl/src/widgets/lv_table.c ****     if(table->cell_data) lv_mem_free(table->cell_data);
 544:Drivers/lvgl/src/widgets/lv_table.c ****     if(table->row_h) lv_mem_free(table->row_h);
 545:Drivers/lvgl/src/widgets/lv_table.c ****     if(table->col_w) lv_mem_free(table->col_w);
 546:Drivers/lvgl/src/widgets/lv_table.c **** }
 547:Drivers/lvgl/src/widgets/lv_table.c **** 
 548:Drivers/lvgl/src/widgets/lv_table.c **** static void lv_table_event(const lv_obj_class_t * class_p, lv_event_t * e)
 549:Drivers/lvgl/src/widgets/lv_table.c **** {
 550:Drivers/lvgl/src/widgets/lv_table.c ****     LV_UNUSED(class_p);
 551:Drivers/lvgl/src/widgets/lv_table.c **** 
 552:Drivers/lvgl/src/widgets/lv_table.c ****     lv_res_t res;
 553:Drivers/lvgl/src/widgets/lv_table.c **** 
 554:Drivers/lvgl/src/widgets/lv_table.c ****     /*Call the ancestor's event handler*/
 555:Drivers/lvgl/src/widgets/lv_table.c ****     res = lv_obj_event_base(MY_CLASS, e);
 556:Drivers/lvgl/src/widgets/lv_table.c ****     if(res != LV_RES_OK) return;
 557:Drivers/lvgl/src/widgets/lv_table.c **** 
 558:Drivers/lvgl/src/widgets/lv_table.c ****     lv_event_code_t code = lv_event_get_code(e);
 559:Drivers/lvgl/src/widgets/lv_table.c ****     lv_obj_t * obj = lv_event_get_target(e);
 560:Drivers/lvgl/src/widgets/lv_table.c ****     lv_table_t * table = (lv_table_t *)obj;
 561:Drivers/lvgl/src/widgets/lv_table.c **** 
 562:Drivers/lvgl/src/widgets/lv_table.c ****     if(code == LV_EVENT_STYLE_CHANGED) {
 563:Drivers/lvgl/src/widgets/lv_table.c ****         refr_size_form_row(obj, 0);
 564:Drivers/lvgl/src/widgets/lv_table.c ****     }
 565:Drivers/lvgl/src/widgets/lv_table.c ****     else if(code == LV_EVENT_GET_SELF_SIZE) {
 566:Drivers/lvgl/src/widgets/lv_table.c ****         lv_point_t * p = lv_event_get_param(e);
 567:Drivers/lvgl/src/widgets/lv_table.c ****         uint32_t i;
 568:Drivers/lvgl/src/widgets/lv_table.c ****         lv_coord_t w = 0;
 569:Drivers/lvgl/src/widgets/lv_table.c ****         for(i = 0; i < table->col_cnt; i++) w += table->col_w[i];
 570:Drivers/lvgl/src/widgets/lv_table.c **** 
 571:Drivers/lvgl/src/widgets/lv_table.c ****         lv_coord_t h = 0;
 572:Drivers/lvgl/src/widgets/lv_table.c ****         for(i = 0; i < table->row_cnt; i++) h += table->row_h[i];
 573:Drivers/lvgl/src/widgets/lv_table.c **** 
 574:Drivers/lvgl/src/widgets/lv_table.c ****         p->x = w - 1;
 575:Drivers/lvgl/src/widgets/lv_table.c ****         p->y = h - 1;
 576:Drivers/lvgl/src/widgets/lv_table.c ****     }
 577:Drivers/lvgl/src/widgets/lv_table.c ****     else if(code == LV_EVENT_PRESSED || code == LV_EVENT_PRESSING) {
 578:Drivers/lvgl/src/widgets/lv_table.c ****         uint16_t col;
 579:Drivers/lvgl/src/widgets/lv_table.c ****         uint16_t row;
 580:Drivers/lvgl/src/widgets/lv_table.c ****         lv_res_t pr_res = get_pressed_cell(obj, &row, &col);
 581:Drivers/lvgl/src/widgets/lv_table.c **** 
 582:Drivers/lvgl/src/widgets/lv_table.c ****         if(pr_res == LV_RES_OK && (table->col_act != col || table->row_act != row)) {
 583:Drivers/lvgl/src/widgets/lv_table.c ****             table->col_act = col;
 584:Drivers/lvgl/src/widgets/lv_table.c ****             table->row_act = row;
 585:Drivers/lvgl/src/widgets/lv_table.c ****             lv_obj_invalidate(obj);
 586:Drivers/lvgl/src/widgets/lv_table.c ****         }
 587:Drivers/lvgl/src/widgets/lv_table.c ****     }
 588:Drivers/lvgl/src/widgets/lv_table.c ****     else if(code == LV_EVENT_RELEASED) {
 589:Drivers/lvgl/src/widgets/lv_table.c ****         lv_obj_invalidate(obj);
 590:Drivers/lvgl/src/widgets/lv_table.c ****         lv_indev_t * indev = lv_indev_get_act();
 591:Drivers/lvgl/src/widgets/lv_table.c ****         lv_obj_t * scroll_obj = lv_indev_get_scroll_obj(indev);
 592:Drivers/lvgl/src/widgets/lv_table.c ****         if(table->col_act != LV_TABLE_CELL_NONE && table->row_act != LV_TABLE_CELL_NONE && scroll_o
 593:Drivers/lvgl/src/widgets/lv_table.c ****             res = lv_event_send(obj, LV_EVENT_VALUE_CHANGED, NULL);
 594:Drivers/lvgl/src/widgets/lv_table.c ****             if(res != LV_RES_OK) return;
 595:Drivers/lvgl/src/widgets/lv_table.c ****         }
 596:Drivers/lvgl/src/widgets/lv_table.c **** 
 597:Drivers/lvgl/src/widgets/lv_table.c ****         lv_indev_type_t indev_type = lv_indev_get_type(lv_indev_get_act());
 598:Drivers/lvgl/src/widgets/lv_table.c ****         if(indev_type == LV_INDEV_TYPE_POINTER || indev_type == LV_INDEV_TYPE_BUTTON) {
 599:Drivers/lvgl/src/widgets/lv_table.c ****             table->col_act = LV_TABLE_CELL_NONE;
ARM GAS  /var/folders/lp/x54gwt890xv47sdkqj1k04q40000gn/T//ccn9ZgyV.s 			page 12


 600:Drivers/lvgl/src/widgets/lv_table.c ****             table->row_act = LV_TABLE_CELL_NONE;
 601:Drivers/lvgl/src/widgets/lv_table.c ****         }
 602:Drivers/lvgl/src/widgets/lv_table.c ****     }
 603:Drivers/lvgl/src/widgets/lv_table.c ****     else if(code == LV_EVENT_FOCUSED) {
 604:Drivers/lvgl/src/widgets/lv_table.c ****         lv_obj_invalidate(obj);
 605:Drivers/lvgl/src/widgets/lv_table.c ****     }
 606:Drivers/lvgl/src/widgets/lv_table.c ****     else if(code == LV_EVENT_KEY) {
 607:Drivers/lvgl/src/widgets/lv_table.c ****         int32_t c = *((int32_t *)lv_event_get_param(e));
 608:Drivers/lvgl/src/widgets/lv_table.c ****         int32_t col = table->col_act;
 609:Drivers/lvgl/src/widgets/lv_table.c ****         int32_t row = table->row_act;
 610:Drivers/lvgl/src/widgets/lv_table.c ****         if(col == LV_TABLE_CELL_NONE || row == LV_TABLE_CELL_NONE) {
 611:Drivers/lvgl/src/widgets/lv_table.c ****             table->col_act = 0;
 612:Drivers/lvgl/src/widgets/lv_table.c ****             table->row_act = 0;
 613:Drivers/lvgl/src/widgets/lv_table.c ****             scroll_to_selected_cell(obj);
 614:Drivers/lvgl/src/widgets/lv_table.c ****             lv_obj_invalidate(obj);
 615:Drivers/lvgl/src/widgets/lv_table.c ****             return;
 616:Drivers/lvgl/src/widgets/lv_table.c ****         }
 617:Drivers/lvgl/src/widgets/lv_table.c **** 
 618:Drivers/lvgl/src/widgets/lv_table.c ****         if(col >= table->col_cnt) col = 0;
 619:Drivers/lvgl/src/widgets/lv_table.c ****         if(row >= table->row_cnt) row = 0;
 620:Drivers/lvgl/src/widgets/lv_table.c **** 
 621:Drivers/lvgl/src/widgets/lv_table.c ****         if(c == LV_KEY_LEFT) col--;
 622:Drivers/lvgl/src/widgets/lv_table.c ****         else if(c == LV_KEY_RIGHT) col++;
 623:Drivers/lvgl/src/widgets/lv_table.c ****         else if(c == LV_KEY_UP) row--;
 624:Drivers/lvgl/src/widgets/lv_table.c ****         else if(c == LV_KEY_DOWN) row++;
 625:Drivers/lvgl/src/widgets/lv_table.c ****         else return;
 626:Drivers/lvgl/src/widgets/lv_table.c **** 
 627:Drivers/lvgl/src/widgets/lv_table.c ****         if(col >= table->col_cnt) {
 628:Drivers/lvgl/src/widgets/lv_table.c ****             if(row < table->row_cnt - 1) {
 629:Drivers/lvgl/src/widgets/lv_table.c ****                 col = 0;
 630:Drivers/lvgl/src/widgets/lv_table.c ****                 row++;
 631:Drivers/lvgl/src/widgets/lv_table.c ****             }
 632:Drivers/lvgl/src/widgets/lv_table.c ****             else {
 633:Drivers/lvgl/src/widgets/lv_table.c ****                 col = table->col_cnt - 1;
 634:Drivers/lvgl/src/widgets/lv_table.c ****             }
 635:Drivers/lvgl/src/widgets/lv_table.c ****         }
 636:Drivers/lvgl/src/widgets/lv_table.c ****         else if(col < 0) {
 637:Drivers/lvgl/src/widgets/lv_table.c ****             if(row != 0) {
 638:Drivers/lvgl/src/widgets/lv_table.c ****                 col = table->col_cnt - 1;
 639:Drivers/lvgl/src/widgets/lv_table.c ****                 row--;
 640:Drivers/lvgl/src/widgets/lv_table.c ****             }
 641:Drivers/lvgl/src/widgets/lv_table.c ****             else {
 642:Drivers/lvgl/src/widgets/lv_table.c ****                 col = 0;
 643:Drivers/lvgl/src/widgets/lv_table.c ****             }
 644:Drivers/lvgl/src/widgets/lv_table.c ****         }
 645:Drivers/lvgl/src/widgets/lv_table.c **** 
 646:Drivers/lvgl/src/widgets/lv_table.c ****         if(row >= table->row_cnt) {
 647:Drivers/lvgl/src/widgets/lv_table.c ****             row = table->row_cnt - 1;
 648:Drivers/lvgl/src/widgets/lv_table.c ****         }
 649:Drivers/lvgl/src/widgets/lv_table.c ****         else if(row < 0) {
 650:Drivers/lvgl/src/widgets/lv_table.c ****             row = 0;
 651:Drivers/lvgl/src/widgets/lv_table.c ****         }
 652:Drivers/lvgl/src/widgets/lv_table.c **** 
 653:Drivers/lvgl/src/widgets/lv_table.c ****         if(table->col_act != col || table->row_act != row) {
 654:Drivers/lvgl/src/widgets/lv_table.c ****             table->col_act = col;
 655:Drivers/lvgl/src/widgets/lv_table.c ****             table->row_act = row;
 656:Drivers/lvgl/src/widgets/lv_table.c ****             lv_obj_invalidate(obj);
ARM GAS  /var/folders/lp/x54gwt890xv47sdkqj1k04q40000gn/T//ccn9ZgyV.s 			page 13


 657:Drivers/lvgl/src/widgets/lv_table.c **** 
 658:Drivers/lvgl/src/widgets/lv_table.c ****             scroll_to_selected_cell(obj);
 659:Drivers/lvgl/src/widgets/lv_table.c **** 
 660:Drivers/lvgl/src/widgets/lv_table.c ****             res = lv_event_send(obj, LV_EVENT_VALUE_CHANGED, NULL);
 661:Drivers/lvgl/src/widgets/lv_table.c ****             if(res != LV_RES_OK) return;
 662:Drivers/lvgl/src/widgets/lv_table.c ****         }
 663:Drivers/lvgl/src/widgets/lv_table.c ****     }
 664:Drivers/lvgl/src/widgets/lv_table.c ****     else if(code == LV_EVENT_DRAW_MAIN) {
 665:Drivers/lvgl/src/widgets/lv_table.c ****         draw_main(e);
 666:Drivers/lvgl/src/widgets/lv_table.c ****     }
 667:Drivers/lvgl/src/widgets/lv_table.c **** }
 668:Drivers/lvgl/src/widgets/lv_table.c **** 
 669:Drivers/lvgl/src/widgets/lv_table.c **** 
 670:Drivers/lvgl/src/widgets/lv_table.c **** static void draw_main(lv_event_t * e)
 671:Drivers/lvgl/src/widgets/lv_table.c **** {
 672:Drivers/lvgl/src/widgets/lv_table.c ****     lv_obj_t * obj = lv_event_get_target(e);
 673:Drivers/lvgl/src/widgets/lv_table.c ****     lv_table_t * table = (lv_table_t *)obj;
 674:Drivers/lvgl/src/widgets/lv_table.c ****     lv_draw_ctx_t * draw_ctx = lv_event_get_draw_ctx(e);
 675:Drivers/lvgl/src/widgets/lv_table.c ****     lv_area_t clip_area;
 676:Drivers/lvgl/src/widgets/lv_table.c ****     if(!_lv_area_intersect(&clip_area, &obj->coords, draw_ctx->clip_area)) return;
 677:Drivers/lvgl/src/widgets/lv_table.c **** 
 678:Drivers/lvgl/src/widgets/lv_table.c ****     const lv_area_t * clip_area_ori = draw_ctx->clip_area;
 679:Drivers/lvgl/src/widgets/lv_table.c ****     draw_ctx->clip_area = &clip_area;
 680:Drivers/lvgl/src/widgets/lv_table.c **** 
 681:Drivers/lvgl/src/widgets/lv_table.c ****     lv_point_t txt_size;
 682:Drivers/lvgl/src/widgets/lv_table.c ****     lv_area_t cell_area;
 683:Drivers/lvgl/src/widgets/lv_table.c **** 
 684:Drivers/lvgl/src/widgets/lv_table.c ****     lv_coord_t border_width = lv_obj_get_style_border_width(obj, LV_PART_MAIN);
 685:Drivers/lvgl/src/widgets/lv_table.c ****     lv_coord_t bg_top = lv_obj_get_style_pad_top(obj, LV_PART_MAIN);
 686:Drivers/lvgl/src/widgets/lv_table.c ****     lv_coord_t bg_bottom = lv_obj_get_style_pad_bottom(obj, LV_PART_MAIN);
 687:Drivers/lvgl/src/widgets/lv_table.c ****     lv_coord_t bg_left = lv_obj_get_style_pad_left(obj, LV_PART_MAIN);
 688:Drivers/lvgl/src/widgets/lv_table.c ****     lv_coord_t bg_right = lv_obj_get_style_pad_right(obj, LV_PART_MAIN);
 689:Drivers/lvgl/src/widgets/lv_table.c **** 
 690:Drivers/lvgl/src/widgets/lv_table.c ****     lv_state_t state_ori = obj->state;
 691:Drivers/lvgl/src/widgets/lv_table.c ****     obj->state = LV_STATE_DEFAULT;
 692:Drivers/lvgl/src/widgets/lv_table.c ****     obj->skip_trans = 1;
 693:Drivers/lvgl/src/widgets/lv_table.c ****     lv_draw_rect_dsc_t rect_dsc_def;
 694:Drivers/lvgl/src/widgets/lv_table.c ****     lv_draw_rect_dsc_t rect_dsc_act; /*Passed to the event to modify it*/
 695:Drivers/lvgl/src/widgets/lv_table.c ****     lv_draw_rect_dsc_init(&rect_dsc_def);
 696:Drivers/lvgl/src/widgets/lv_table.c ****     lv_obj_init_draw_rect_dsc(obj, LV_PART_ITEMS, &rect_dsc_def);
 697:Drivers/lvgl/src/widgets/lv_table.c **** 
 698:Drivers/lvgl/src/widgets/lv_table.c ****     lv_draw_label_dsc_t label_dsc_def;
 699:Drivers/lvgl/src/widgets/lv_table.c ****     lv_draw_label_dsc_t label_dsc_act;  /*Passed to the event to modify it*/
 700:Drivers/lvgl/src/widgets/lv_table.c ****     lv_draw_label_dsc_init(&label_dsc_def);
 701:Drivers/lvgl/src/widgets/lv_table.c ****     lv_obj_init_draw_label_dsc(obj, LV_PART_ITEMS, &label_dsc_def);
 702:Drivers/lvgl/src/widgets/lv_table.c ****     obj->state = state_ori;
 703:Drivers/lvgl/src/widgets/lv_table.c ****     obj->skip_trans = 0;
 704:Drivers/lvgl/src/widgets/lv_table.c **** 
 705:Drivers/lvgl/src/widgets/lv_table.c ****     uint16_t col;
 706:Drivers/lvgl/src/widgets/lv_table.c ****     uint16_t row;
 707:Drivers/lvgl/src/widgets/lv_table.c ****     uint16_t cell = 0;
 708:Drivers/lvgl/src/widgets/lv_table.c **** 
 709:Drivers/lvgl/src/widgets/lv_table.c ****     cell_area.y2 = obj->coords.y1 + bg_top - 1 - lv_obj_get_scroll_y(obj) + border_width;
 710:Drivers/lvgl/src/widgets/lv_table.c ****     lv_coord_t scroll_x = lv_obj_get_scroll_x(obj) ;
 711:Drivers/lvgl/src/widgets/lv_table.c ****     bool rtl = lv_obj_get_style_base_dir(obj, LV_PART_MAIN) == LV_BASE_DIR_RTL;
 712:Drivers/lvgl/src/widgets/lv_table.c **** 
 713:Drivers/lvgl/src/widgets/lv_table.c ****     /*Handle custom drawer*/
ARM GAS  /var/folders/lp/x54gwt890xv47sdkqj1k04q40000gn/T//ccn9ZgyV.s 			page 14


 714:Drivers/lvgl/src/widgets/lv_table.c ****     lv_obj_draw_part_dsc_t part_draw_dsc;
 715:Drivers/lvgl/src/widgets/lv_table.c ****     lv_obj_draw_dsc_init(&part_draw_dsc, draw_ctx);
 716:Drivers/lvgl/src/widgets/lv_table.c ****     part_draw_dsc.part = LV_PART_ITEMS;
 717:Drivers/lvgl/src/widgets/lv_table.c ****     part_draw_dsc.class_p = MY_CLASS;
 718:Drivers/lvgl/src/widgets/lv_table.c ****     part_draw_dsc.type = LV_TABLE_DRAW_PART_CELL;
 719:Drivers/lvgl/src/widgets/lv_table.c ****     part_draw_dsc.rect_dsc = &rect_dsc_act;
 720:Drivers/lvgl/src/widgets/lv_table.c ****     part_draw_dsc.label_dsc = &label_dsc_act;
 721:Drivers/lvgl/src/widgets/lv_table.c **** 
 722:Drivers/lvgl/src/widgets/lv_table.c ****     for(row = 0; row < table->row_cnt; row++) {
 723:Drivers/lvgl/src/widgets/lv_table.c ****         lv_coord_t h_row = table->row_h[row];
 724:Drivers/lvgl/src/widgets/lv_table.c **** 
 725:Drivers/lvgl/src/widgets/lv_table.c ****         cell_area.y1 = cell_area.y2 + 1;
 726:Drivers/lvgl/src/widgets/lv_table.c ****         cell_area.y2 = cell_area.y1 + h_row - 1;
 727:Drivers/lvgl/src/widgets/lv_table.c **** 
 728:Drivers/lvgl/src/widgets/lv_table.c ****         if(cell_area.y1 > clip_area.y2) break;
 729:Drivers/lvgl/src/widgets/lv_table.c **** 
 730:Drivers/lvgl/src/widgets/lv_table.c ****         if(rtl) cell_area.x1 = obj->coords.x2 - bg_right - 1 - scroll_x - border_width;
 731:Drivers/lvgl/src/widgets/lv_table.c ****         else cell_area.x2 = obj->coords.x1 + bg_left - 1 - scroll_x + border_width;
 732:Drivers/lvgl/src/widgets/lv_table.c **** 
 733:Drivers/lvgl/src/widgets/lv_table.c ****         for(col = 0; col < table->col_cnt; col++) {
 734:Drivers/lvgl/src/widgets/lv_table.c ****             lv_table_cell_ctrl_t ctrl = 0;
 735:Drivers/lvgl/src/widgets/lv_table.c ****             if(table->cell_data[cell]) ctrl = table->cell_data[cell]->ctrl;
 736:Drivers/lvgl/src/widgets/lv_table.c **** 
 737:Drivers/lvgl/src/widgets/lv_table.c ****             if(rtl) {
 738:Drivers/lvgl/src/widgets/lv_table.c ****                 cell_area.x2 = cell_area.x1 - 1;
 739:Drivers/lvgl/src/widgets/lv_table.c ****                 cell_area.x1 = cell_area.x2 - table->col_w[col] + 1;
 740:Drivers/lvgl/src/widgets/lv_table.c ****             }
 741:Drivers/lvgl/src/widgets/lv_table.c ****             else {
 742:Drivers/lvgl/src/widgets/lv_table.c ****                 cell_area.x1 = cell_area.x2 + 1;
 743:Drivers/lvgl/src/widgets/lv_table.c ****                 cell_area.x2 = cell_area.x1 + table->col_w[col] - 1;
 744:Drivers/lvgl/src/widgets/lv_table.c ****             }
 745:Drivers/lvgl/src/widgets/lv_table.c **** 
 746:Drivers/lvgl/src/widgets/lv_table.c ****             uint16_t col_merge = 0;
 747:Drivers/lvgl/src/widgets/lv_table.c ****             for(col_merge = 0; col_merge + col < table->col_cnt - 1; col_merge++) {
 748:Drivers/lvgl/src/widgets/lv_table.c ****                 lv_table_cell_t * next_cell_data = table->cell_data[cell + col_merge];
 749:Drivers/lvgl/src/widgets/lv_table.c **** 
 750:Drivers/lvgl/src/widgets/lv_table.c ****                 if(is_cell_empty(next_cell_data)) break;
 751:Drivers/lvgl/src/widgets/lv_table.c **** 
 752:Drivers/lvgl/src/widgets/lv_table.c ****                 lv_table_cell_ctrl_t merge_ctrl = (lv_table_cell_ctrl_t) next_cell_data->ctrl;
 753:Drivers/lvgl/src/widgets/lv_table.c ****                 if(merge_ctrl & LV_TABLE_CELL_CTRL_MERGE_RIGHT) {
 754:Drivers/lvgl/src/widgets/lv_table.c ****                     lv_coord_t offset = table->col_w[col + col_merge + 1];
 755:Drivers/lvgl/src/widgets/lv_table.c **** 
 756:Drivers/lvgl/src/widgets/lv_table.c ****                     if(rtl) cell_area.x1 -= offset;
 757:Drivers/lvgl/src/widgets/lv_table.c ****                     else cell_area.x2 += offset;
 758:Drivers/lvgl/src/widgets/lv_table.c ****                 }
 759:Drivers/lvgl/src/widgets/lv_table.c ****                 else {
 760:Drivers/lvgl/src/widgets/lv_table.c ****                     break;
 761:Drivers/lvgl/src/widgets/lv_table.c ****                 }
 762:Drivers/lvgl/src/widgets/lv_table.c ****             }
 763:Drivers/lvgl/src/widgets/lv_table.c **** 
 764:Drivers/lvgl/src/widgets/lv_table.c ****             if(cell_area.y2 < clip_area.y1) {
 765:Drivers/lvgl/src/widgets/lv_table.c ****                 cell += col_merge + 1;
 766:Drivers/lvgl/src/widgets/lv_table.c ****                 col += col_merge;
 767:Drivers/lvgl/src/widgets/lv_table.c ****                 continue;
 768:Drivers/lvgl/src/widgets/lv_table.c ****             }
 769:Drivers/lvgl/src/widgets/lv_table.c **** 
 770:Drivers/lvgl/src/widgets/lv_table.c ****             /*Expand the cell area with a half border to avoid drawing 2 borders next to each other
ARM GAS  /var/folders/lp/x54gwt890xv47sdkqj1k04q40000gn/T//ccn9ZgyV.s 			page 15


 771:Drivers/lvgl/src/widgets/lv_table.c ****             lv_area_t cell_area_border;
 772:Drivers/lvgl/src/widgets/lv_table.c ****             lv_area_copy(&cell_area_border, &cell_area);
 773:Drivers/lvgl/src/widgets/lv_table.c ****             if((rect_dsc_def.border_side & LV_BORDER_SIDE_LEFT) && cell_area_border.x1 > obj->coord
 774:Drivers/lvgl/src/widgets/lv_table.c ****                 cell_area_border.x1 -= rect_dsc_def.border_width / 2;
 775:Drivers/lvgl/src/widgets/lv_table.c ****             }
 776:Drivers/lvgl/src/widgets/lv_table.c ****             if((rect_dsc_def.border_side & LV_BORDER_SIDE_TOP) && cell_area_border.y1 > obj->coords
 777:Drivers/lvgl/src/widgets/lv_table.c ****                 cell_area_border.y1 -= rect_dsc_def.border_width / 2;
 778:Drivers/lvgl/src/widgets/lv_table.c ****             }
 779:Drivers/lvgl/src/widgets/lv_table.c ****             if((rect_dsc_def.border_side & LV_BORDER_SIDE_RIGHT) && cell_area_border.x2 < obj->coor
 780:Drivers/lvgl/src/widgets/lv_table.c ****                 cell_area_border.x2 += rect_dsc_def.border_width / 2 + (rect_dsc_def.border_width &
 781:Drivers/lvgl/src/widgets/lv_table.c ****             }
 782:Drivers/lvgl/src/widgets/lv_table.c ****             if((rect_dsc_def.border_side & LV_BORDER_SIDE_BOTTOM) &&
 783:Drivers/lvgl/src/widgets/lv_table.c ****                cell_area_border.y2 < obj->coords.y2 - bg_bottom - 1) {
 784:Drivers/lvgl/src/widgets/lv_table.c ****                 cell_area_border.y2 += rect_dsc_def.border_width / 2 + (rect_dsc_def.border_width &
 785:Drivers/lvgl/src/widgets/lv_table.c ****             }
 786:Drivers/lvgl/src/widgets/lv_table.c **** 
 787:Drivers/lvgl/src/widgets/lv_table.c ****             lv_state_t cell_state = LV_STATE_DEFAULT;
 788:Drivers/lvgl/src/widgets/lv_table.c ****             if(row == table->row_act && col == table->col_act) {
 789:Drivers/lvgl/src/widgets/lv_table.c ****                 if(!(obj->state & LV_STATE_SCROLLED) && (obj->state & LV_STATE_PRESSED)) cell_state
 790:Drivers/lvgl/src/widgets/lv_table.c ****                 if(obj->state & LV_STATE_FOCUSED) cell_state |= LV_STATE_FOCUSED;
 791:Drivers/lvgl/src/widgets/lv_table.c ****                 if(obj->state & LV_STATE_FOCUS_KEY) cell_state |= LV_STATE_FOCUS_KEY;
 792:Drivers/lvgl/src/widgets/lv_table.c ****                 if(obj->state & LV_STATE_EDITED) cell_state |= LV_STATE_EDITED;
 793:Drivers/lvgl/src/widgets/lv_table.c ****             }
 794:Drivers/lvgl/src/widgets/lv_table.c **** 
 795:Drivers/lvgl/src/widgets/lv_table.c ****             /*Set up the draw descriptors*/
 796:Drivers/lvgl/src/widgets/lv_table.c ****             if(cell_state == LV_STATE_DEFAULT) {
 797:Drivers/lvgl/src/widgets/lv_table.c ****                 lv_memcpy(&rect_dsc_act, &rect_dsc_def, sizeof(lv_draw_rect_dsc_t));
 798:Drivers/lvgl/src/widgets/lv_table.c ****                 lv_memcpy(&label_dsc_act, &label_dsc_def, sizeof(lv_draw_label_dsc_t));
 799:Drivers/lvgl/src/widgets/lv_table.c ****             }
 800:Drivers/lvgl/src/widgets/lv_table.c ****             /*In other cases get the styles directly without caching them*/
 801:Drivers/lvgl/src/widgets/lv_table.c ****             else {
 802:Drivers/lvgl/src/widgets/lv_table.c ****                 obj->state = cell_state;
 803:Drivers/lvgl/src/widgets/lv_table.c ****                 obj->skip_trans = 1;
 804:Drivers/lvgl/src/widgets/lv_table.c ****                 lv_draw_rect_dsc_init(&rect_dsc_act);
 805:Drivers/lvgl/src/widgets/lv_table.c ****                 lv_draw_label_dsc_init(&label_dsc_act);
 806:Drivers/lvgl/src/widgets/lv_table.c ****                 lv_obj_init_draw_rect_dsc(obj, LV_PART_ITEMS, &rect_dsc_act);
 807:Drivers/lvgl/src/widgets/lv_table.c ****                 lv_obj_init_draw_label_dsc(obj, LV_PART_ITEMS, &label_dsc_act);
 808:Drivers/lvgl/src/widgets/lv_table.c ****                 obj->state = state_ori;
 809:Drivers/lvgl/src/widgets/lv_table.c ****                 obj->skip_trans = 0;
 810:Drivers/lvgl/src/widgets/lv_table.c ****             }
 811:Drivers/lvgl/src/widgets/lv_table.c **** 
 812:Drivers/lvgl/src/widgets/lv_table.c ****             part_draw_dsc.draw_area = &cell_area_border;
 813:Drivers/lvgl/src/widgets/lv_table.c ****             part_draw_dsc.id = row * table->col_cnt + col;
 814:Drivers/lvgl/src/widgets/lv_table.c ****             lv_event_send(obj, LV_EVENT_DRAW_PART_BEGIN, &part_draw_dsc);
 815:Drivers/lvgl/src/widgets/lv_table.c **** 
 816:Drivers/lvgl/src/widgets/lv_table.c ****             lv_draw_rect(draw_ctx, &rect_dsc_act, &cell_area_border);
 817:Drivers/lvgl/src/widgets/lv_table.c **** 
 818:Drivers/lvgl/src/widgets/lv_table.c ****             if(table->cell_data[cell]) {
 819:Drivers/lvgl/src/widgets/lv_table.c ****                 const lv_coord_t cell_left = lv_obj_get_style_pad_left(obj, LV_PART_ITEMS);
 820:Drivers/lvgl/src/widgets/lv_table.c ****                 const lv_coord_t cell_right = lv_obj_get_style_pad_right(obj, LV_PART_ITEMS);
 821:Drivers/lvgl/src/widgets/lv_table.c ****                 const lv_coord_t cell_top = lv_obj_get_style_pad_top(obj, LV_PART_ITEMS);
 822:Drivers/lvgl/src/widgets/lv_table.c ****                 const lv_coord_t cell_bottom = lv_obj_get_style_pad_bottom(obj, LV_PART_ITEMS);
 823:Drivers/lvgl/src/widgets/lv_table.c ****                 lv_text_flag_t txt_flags = LV_TEXT_FLAG_NONE;
 824:Drivers/lvgl/src/widgets/lv_table.c ****                 lv_area_t txt_area;
 825:Drivers/lvgl/src/widgets/lv_table.c **** 
 826:Drivers/lvgl/src/widgets/lv_table.c ****                 txt_area.x1 = cell_area.x1 + cell_left;
 827:Drivers/lvgl/src/widgets/lv_table.c ****                 txt_area.x2 = cell_area.x2 - cell_right;
ARM GAS  /var/folders/lp/x54gwt890xv47sdkqj1k04q40000gn/T//ccn9ZgyV.s 			page 16


 828:Drivers/lvgl/src/widgets/lv_table.c ****                 txt_area.y1 = cell_area.y1 + cell_top;
 829:Drivers/lvgl/src/widgets/lv_table.c ****                 txt_area.y2 = cell_area.y2 - cell_bottom;
 830:Drivers/lvgl/src/widgets/lv_table.c **** 
 831:Drivers/lvgl/src/widgets/lv_table.c ****                 /*Align the content to the middle if not cropped*/
 832:Drivers/lvgl/src/widgets/lv_table.c ****                 bool crop = ctrl & LV_TABLE_CELL_CTRL_TEXT_CROP ? true : false;
 833:Drivers/lvgl/src/widgets/lv_table.c ****                 if(crop) txt_flags = LV_TEXT_FLAG_EXPAND;
 834:Drivers/lvgl/src/widgets/lv_table.c **** 
 835:Drivers/lvgl/src/widgets/lv_table.c ****                 lv_txt_get_size(&txt_size, table->cell_data[cell]->txt, label_dsc_def.font,
 836:Drivers/lvgl/src/widgets/lv_table.c ****                                 label_dsc_act.letter_space, label_dsc_act.line_space,
 837:Drivers/lvgl/src/widgets/lv_table.c ****                                 lv_area_get_width(&txt_area), txt_flags);
 838:Drivers/lvgl/src/widgets/lv_table.c **** 
 839:Drivers/lvgl/src/widgets/lv_table.c ****                 /*Align the content to the middle if not cropped*/
 840:Drivers/lvgl/src/widgets/lv_table.c ****                 if(!crop) {
 841:Drivers/lvgl/src/widgets/lv_table.c ****                     txt_area.y1 = cell_area.y1 + h_row / 2 - txt_size.y / 2;
 842:Drivers/lvgl/src/widgets/lv_table.c ****                     txt_area.y2 = cell_area.y1 + h_row / 2 + txt_size.y / 2;
 843:Drivers/lvgl/src/widgets/lv_table.c ****                 }
 844:Drivers/lvgl/src/widgets/lv_table.c **** 
 845:Drivers/lvgl/src/widgets/lv_table.c ****                 lv_area_t label_clip_area;
 846:Drivers/lvgl/src/widgets/lv_table.c ****                 bool label_mask_ok;
 847:Drivers/lvgl/src/widgets/lv_table.c ****                 label_mask_ok = _lv_area_intersect(&label_clip_area, &clip_area, &cell_area);
 848:Drivers/lvgl/src/widgets/lv_table.c ****                 if(label_mask_ok) {
 849:Drivers/lvgl/src/widgets/lv_table.c ****                     draw_ctx->clip_area = &label_clip_area;
 850:Drivers/lvgl/src/widgets/lv_table.c ****                     lv_draw_label(draw_ctx, &label_dsc_act, &txt_area, table->cell_data[cell]->txt,
 851:Drivers/lvgl/src/widgets/lv_table.c ****                     draw_ctx->clip_area = &clip_area;
 852:Drivers/lvgl/src/widgets/lv_table.c ****                 }
 853:Drivers/lvgl/src/widgets/lv_table.c ****             }
 854:Drivers/lvgl/src/widgets/lv_table.c **** 
 855:Drivers/lvgl/src/widgets/lv_table.c ****             lv_event_send(obj, LV_EVENT_DRAW_PART_END, &part_draw_dsc);
 856:Drivers/lvgl/src/widgets/lv_table.c **** 
 857:Drivers/lvgl/src/widgets/lv_table.c ****             cell += col_merge + 1;
 858:Drivers/lvgl/src/widgets/lv_table.c ****             col += col_merge;
 859:Drivers/lvgl/src/widgets/lv_table.c ****         }
 860:Drivers/lvgl/src/widgets/lv_table.c ****     }
 861:Drivers/lvgl/src/widgets/lv_table.c **** 
 862:Drivers/lvgl/src/widgets/lv_table.c ****     draw_ctx->clip_area = clip_area_ori;
 863:Drivers/lvgl/src/widgets/lv_table.c **** }
 864:Drivers/lvgl/src/widgets/lv_table.c **** 
 865:Drivers/lvgl/src/widgets/lv_table.c **** /* Refreshes size of the table starting from @start_row row */
 866:Drivers/lvgl/src/widgets/lv_table.c **** static void refr_size_form_row(lv_obj_t * obj, uint32_t start_row)
 867:Drivers/lvgl/src/widgets/lv_table.c **** {
 868:Drivers/lvgl/src/widgets/lv_table.c ****     const lv_coord_t cell_pad_left = lv_obj_get_style_pad_left(obj, LV_PART_ITEMS);
 869:Drivers/lvgl/src/widgets/lv_table.c ****     const lv_coord_t cell_pad_right = lv_obj_get_style_pad_right(obj, LV_PART_ITEMS);
 870:Drivers/lvgl/src/widgets/lv_table.c ****     const lv_coord_t cell_pad_top = lv_obj_get_style_pad_top(obj, LV_PART_ITEMS);
 871:Drivers/lvgl/src/widgets/lv_table.c ****     const lv_coord_t cell_pad_bottom = lv_obj_get_style_pad_bottom(obj, LV_PART_ITEMS);
 872:Drivers/lvgl/src/widgets/lv_table.c **** 
 873:Drivers/lvgl/src/widgets/lv_table.c ****     lv_coord_t letter_space = lv_obj_get_style_text_letter_space(obj, LV_PART_ITEMS);
 874:Drivers/lvgl/src/widgets/lv_table.c ****     lv_coord_t line_space = lv_obj_get_style_text_line_space(obj, LV_PART_ITEMS);
 875:Drivers/lvgl/src/widgets/lv_table.c ****     const lv_font_t * font = lv_obj_get_style_text_font(obj, LV_PART_ITEMS);
 876:Drivers/lvgl/src/widgets/lv_table.c **** 
 877:Drivers/lvgl/src/widgets/lv_table.c ****     const lv_coord_t minh = lv_obj_get_style_min_height(obj, LV_PART_ITEMS);
 878:Drivers/lvgl/src/widgets/lv_table.c ****     const lv_coord_t maxh = lv_obj_get_style_max_height(obj, LV_PART_ITEMS);
 879:Drivers/lvgl/src/widgets/lv_table.c **** 
 880:Drivers/lvgl/src/widgets/lv_table.c ****     lv_table_t * table = (lv_table_t *)obj;
 881:Drivers/lvgl/src/widgets/lv_table.c ****     uint32_t i;
 882:Drivers/lvgl/src/widgets/lv_table.c ****     for(i = start_row; i < table->row_cnt; i++) {
 883:Drivers/lvgl/src/widgets/lv_table.c ****         lv_coord_t calculated_height = get_row_height(obj, i, font, letter_space, line_space,
 884:Drivers/lvgl/src/widgets/lv_table.c ****                                                       cell_pad_left, cell_pad_right, cell_pad_top, 
ARM GAS  /var/folders/lp/x54gwt890xv47sdkqj1k04q40000gn/T//ccn9ZgyV.s 			page 17


 885:Drivers/lvgl/src/widgets/lv_table.c ****         table->row_h[i] = LV_CLAMP(minh, calculated_height, maxh);
 886:Drivers/lvgl/src/widgets/lv_table.c ****     }
 887:Drivers/lvgl/src/widgets/lv_table.c **** 
 888:Drivers/lvgl/src/widgets/lv_table.c ****     lv_obj_refresh_self_size(obj);
 889:Drivers/lvgl/src/widgets/lv_table.c ****     lv_obj_invalidate(obj);
 890:Drivers/lvgl/src/widgets/lv_table.c **** }
 891:Drivers/lvgl/src/widgets/lv_table.c **** 
 892:Drivers/lvgl/src/widgets/lv_table.c **** 
 893:Drivers/lvgl/src/widgets/lv_table.c **** static void refr_cell_size(lv_obj_t * obj, uint32_t row, uint32_t col)
 894:Drivers/lvgl/src/widgets/lv_table.c **** {
 895:Drivers/lvgl/src/widgets/lv_table.c ****     const lv_coord_t cell_pad_left = lv_obj_get_style_pad_left(obj, LV_PART_ITEMS);
 896:Drivers/lvgl/src/widgets/lv_table.c ****     const lv_coord_t cell_pad_right = lv_obj_get_style_pad_right(obj, LV_PART_ITEMS);
 897:Drivers/lvgl/src/widgets/lv_table.c ****     const lv_coord_t cell_pad_top = lv_obj_get_style_pad_top(obj, LV_PART_ITEMS);
 898:Drivers/lvgl/src/widgets/lv_table.c ****     const lv_coord_t cell_pad_bottom = lv_obj_get_style_pad_bottom(obj, LV_PART_ITEMS);
 899:Drivers/lvgl/src/widgets/lv_table.c **** 
 900:Drivers/lvgl/src/widgets/lv_table.c ****     lv_coord_t letter_space = lv_obj_get_style_text_letter_space(obj, LV_PART_ITEMS);
 901:Drivers/lvgl/src/widgets/lv_table.c ****     lv_coord_t line_space = lv_obj_get_style_text_line_space(obj, LV_PART_ITEMS);
 902:Drivers/lvgl/src/widgets/lv_table.c ****     const lv_font_t * font = lv_obj_get_style_text_font(obj, LV_PART_ITEMS);
 903:Drivers/lvgl/src/widgets/lv_table.c **** 
 904:Drivers/lvgl/src/widgets/lv_table.c ****     const lv_coord_t minh = lv_obj_get_style_min_height(obj, LV_PART_ITEMS);
 905:Drivers/lvgl/src/widgets/lv_table.c ****     const lv_coord_t maxh = lv_obj_get_style_max_height(obj, LV_PART_ITEMS);
 906:Drivers/lvgl/src/widgets/lv_table.c **** 
 907:Drivers/lvgl/src/widgets/lv_table.c ****     lv_table_t * table = (lv_table_t *)obj;
 908:Drivers/lvgl/src/widgets/lv_table.c ****     lv_coord_t calculated_height = get_row_height(obj, row, font, letter_space, line_space,
 909:Drivers/lvgl/src/widgets/lv_table.c ****                                                   cell_pad_left, cell_pad_right, cell_pad_top, cell
 910:Drivers/lvgl/src/widgets/lv_table.c **** 
 911:Drivers/lvgl/src/widgets/lv_table.c ****     lv_coord_t prev_row_size = table->row_h[row];
 912:Drivers/lvgl/src/widgets/lv_table.c ****     table->row_h[row] = LV_CLAMP(minh, calculated_height, maxh);
 913:Drivers/lvgl/src/widgets/lv_table.c **** 
 914:Drivers/lvgl/src/widgets/lv_table.c ****     /*If the row height havn't changed invalidate only this cell*/
 915:Drivers/lvgl/src/widgets/lv_table.c ****     if(prev_row_size == table->row_h[row]) {
 916:Drivers/lvgl/src/widgets/lv_table.c ****         lv_area_t cell_area;
 917:Drivers/lvgl/src/widgets/lv_table.c ****         get_cell_area(obj, row, col, &cell_area);
 918:Drivers/lvgl/src/widgets/lv_table.c ****         lv_area_move(&cell_area, obj->coords.x1, obj->coords.y1);
 919:Drivers/lvgl/src/widgets/lv_table.c ****         lv_obj_invalidate_area(obj, &cell_area);
 920:Drivers/lvgl/src/widgets/lv_table.c ****     }
 921:Drivers/lvgl/src/widgets/lv_table.c ****     else {
 922:Drivers/lvgl/src/widgets/lv_table.c ****         lv_obj_refresh_self_size(obj);
 923:Drivers/lvgl/src/widgets/lv_table.c ****         lv_obj_invalidate(obj);
 924:Drivers/lvgl/src/widgets/lv_table.c ****     }
 925:Drivers/lvgl/src/widgets/lv_table.c **** }
 926:Drivers/lvgl/src/widgets/lv_table.c **** 
 927:Drivers/lvgl/src/widgets/lv_table.c **** static lv_coord_t get_row_height(lv_obj_t * obj, uint16_t row_id, const lv_font_t * font,
 928:Drivers/lvgl/src/widgets/lv_table.c ****                                  lv_coord_t letter_space, lv_coord_t line_space,
 929:Drivers/lvgl/src/widgets/lv_table.c ****                                  lv_coord_t cell_left, lv_coord_t cell_right, lv_coord_t cell_top, 
 930:Drivers/lvgl/src/widgets/lv_table.c **** {
  30              		.loc 1 930 1 view -0
  31              		.cfi_startproc
  32              		@ args = 20, pretend = 0, frame = 40
  33              		@ frame_needed = 0, uses_anonymous_args = 0
 931:Drivers/lvgl/src/widgets/lv_table.c ****     lv_table_t * table = (lv_table_t *)obj;
  34              		.loc 1 931 5 view .LVU1
 930:Drivers/lvgl/src/widgets/lv_table.c ****     lv_table_t * table = (lv_table_t *)obj;
  35              		.loc 1 930 1 is_stmt 0 view .LVU2
  36 0000 2DE9F04F 		push	{r4, r5, r6, r7, r8, r9, r10, fp, lr}
  37              		.cfi_def_cfa_offset 36
  38              		.cfi_offset 4, -36
ARM GAS  /var/folders/lp/x54gwt890xv47sdkqj1k04q40000gn/T//ccn9ZgyV.s 			page 18


  39              		.cfi_offset 5, -32
  40              		.cfi_offset 6, -28
  41              		.cfi_offset 7, -24
  42              		.cfi_offset 8, -20
  43              		.cfi_offset 9, -16
  44              		.cfi_offset 10, -12
  45              		.cfi_offset 11, -8
  46              		.cfi_offset 14, -4
  47 0004 8FB0     		sub	sp, sp, #60
  48              		.cfi_def_cfa_offset 96
 930:Drivers/lvgl/src/widgets/lv_table.c ****     lv_table_t * table = (lv_table_t *)obj;
  49              		.loc 1 930 1 view .LVU3
  50 0006 8046     		mov	r8, r0
  51              	.LVL1:
 932:Drivers/lvgl/src/widgets/lv_table.c **** 
 933:Drivers/lvgl/src/widgets/lv_table.c ****     lv_coord_t h_max = lv_font_get_line_height(font) + cell_top + cell_bottom;
  52              		.loc 1 933 5 is_stmt 1 view .LVU4
 930:Drivers/lvgl/src/widgets/lv_table.c ****     lv_table_t * table = (lv_table_t *)obj;
  53              		.loc 1 930 1 is_stmt 0 view .LVU5
  54 0008 BDF96000 		ldrsh	r0, [sp, #96]
  55              	.LVL2:
 934:Drivers/lvgl/src/widgets/lv_table.c ****     /* Calculate the cell_data index where to start */
 935:Drivers/lvgl/src/widgets/lv_table.c ****     uint16_t row_start = row_id * table->col_cnt;
  56              		.loc 1 935 40 view .LVU6
  57 000c B8F824B0 		ldrh	fp, [r8, #36]
 933:Drivers/lvgl/src/widgets/lv_table.c ****     /* Calculate the cell_data index where to start */
  58              		.loc 1 933 65 discriminator 1 view .LVU7
  59 0010 1789     		ldrh	r7, [r2, #8]
 930:Drivers/lvgl/src/widgets/lv_table.c ****     lv_table_t * table = (lv_table_t *)obj;
  60              		.loc 1 930 1 view .LVU8
  61 0012 0592     		str	r2, [sp, #20]
  62              	.LVL3:
  63              	.LBB127:
  64              	.LBI127:
  65              		.file 2 "Drivers/lvgl/src/widgets/../core/../misc/../font/lv_font.h"
   1:Drivers/lvgl/src/widgets/../core/../misc/../font/lv_font.h **** /**
   2:Drivers/lvgl/src/widgets/../core/../misc/../font/lv_font.h ****  * @file lv_font.h
   3:Drivers/lvgl/src/widgets/../core/../misc/../font/lv_font.h ****  *
   4:Drivers/lvgl/src/widgets/../core/../misc/../font/lv_font.h ****  */
   5:Drivers/lvgl/src/widgets/../core/../misc/../font/lv_font.h **** 
   6:Drivers/lvgl/src/widgets/../core/../misc/../font/lv_font.h **** #ifndef LV_FONT_H
   7:Drivers/lvgl/src/widgets/../core/../misc/../font/lv_font.h **** #define LV_FONT_H
   8:Drivers/lvgl/src/widgets/../core/../misc/../font/lv_font.h **** 
   9:Drivers/lvgl/src/widgets/../core/../misc/../font/lv_font.h **** #ifdef __cplusplus
  10:Drivers/lvgl/src/widgets/../core/../misc/../font/lv_font.h **** extern "C" {
  11:Drivers/lvgl/src/widgets/../core/../misc/../font/lv_font.h **** #endif
  12:Drivers/lvgl/src/widgets/../core/../misc/../font/lv_font.h **** 
  13:Drivers/lvgl/src/widgets/../core/../misc/../font/lv_font.h **** /*********************
  14:Drivers/lvgl/src/widgets/../core/../misc/../font/lv_font.h ****  *      INCLUDES
  15:Drivers/lvgl/src/widgets/../core/../misc/../font/lv_font.h ****  *********************/
  16:Drivers/lvgl/src/widgets/../core/../misc/../font/lv_font.h **** #include "../lv_conf_internal.h"
  17:Drivers/lvgl/src/widgets/../core/../misc/../font/lv_font.h **** #include <stdint.h>
  18:Drivers/lvgl/src/widgets/../core/../misc/../font/lv_font.h **** #include <stddef.h>
  19:Drivers/lvgl/src/widgets/../core/../misc/../font/lv_font.h **** #include <stdbool.h>
  20:Drivers/lvgl/src/widgets/../core/../misc/../font/lv_font.h **** 
  21:Drivers/lvgl/src/widgets/../core/../misc/../font/lv_font.h **** #include "lv_symbol_def.h"
  22:Drivers/lvgl/src/widgets/../core/../misc/../font/lv_font.h **** #include "../misc/lv_area.h"
ARM GAS  /var/folders/lp/x54gwt890xv47sdkqj1k04q40000gn/T//ccn9ZgyV.s 			page 19


  23:Drivers/lvgl/src/widgets/../core/../misc/../font/lv_font.h **** 
  24:Drivers/lvgl/src/widgets/../core/../misc/../font/lv_font.h **** /*********************
  25:Drivers/lvgl/src/widgets/../core/../misc/../font/lv_font.h ****  *      DEFINES
  26:Drivers/lvgl/src/widgets/../core/../misc/../font/lv_font.h ****  *********************/
  27:Drivers/lvgl/src/widgets/../core/../misc/../font/lv_font.h **** 
  28:Drivers/lvgl/src/widgets/../core/../misc/../font/lv_font.h **** /* imgfont identifier */
  29:Drivers/lvgl/src/widgets/../core/../misc/../font/lv_font.h **** #define LV_IMGFONT_BPP 9
  30:Drivers/lvgl/src/widgets/../core/../misc/../font/lv_font.h **** 
  31:Drivers/lvgl/src/widgets/../core/../misc/../font/lv_font.h **** /**********************
  32:Drivers/lvgl/src/widgets/../core/../misc/../font/lv_font.h ****  *      TYPEDEFS
  33:Drivers/lvgl/src/widgets/../core/../misc/../font/lv_font.h ****  **********************/
  34:Drivers/lvgl/src/widgets/../core/../misc/../font/lv_font.h **** 
  35:Drivers/lvgl/src/widgets/../core/../misc/../font/lv_font.h **** /*------------------
  36:Drivers/lvgl/src/widgets/../core/../misc/../font/lv_font.h ****  * General types
  37:Drivers/lvgl/src/widgets/../core/../misc/../font/lv_font.h ****  *-----------------*/
  38:Drivers/lvgl/src/widgets/../core/../misc/../font/lv_font.h **** 
  39:Drivers/lvgl/src/widgets/../core/../misc/../font/lv_font.h **** struct _lv_font_t;
  40:Drivers/lvgl/src/widgets/../core/../misc/../font/lv_font.h **** /** Describes the properties of a glyph.*/
  41:Drivers/lvgl/src/widgets/../core/../misc/../font/lv_font.h **** typedef struct {
  42:Drivers/lvgl/src/widgets/../core/../misc/../font/lv_font.h ****     const struct _lv_font_t *
  43:Drivers/lvgl/src/widgets/../core/../misc/../font/lv_font.h ****         resolved_font; /**< Pointer to a font where the glyph was actually found after handling fal
  44:Drivers/lvgl/src/widgets/../core/../misc/../font/lv_font.h ****     uint16_t adv_w; /**< The glyph needs this space. Draw the next glyph after this width.*/
  45:Drivers/lvgl/src/widgets/../core/../misc/../font/lv_font.h ****     uint16_t box_w; /**< Width of the glyph's bounding box*/
  46:Drivers/lvgl/src/widgets/../core/../misc/../font/lv_font.h ****     uint16_t box_h; /**< Height of the glyph's bounding box*/
  47:Drivers/lvgl/src/widgets/../core/../misc/../font/lv_font.h ****     int16_t ofs_x;  /**< x offset of the bounding box*/
  48:Drivers/lvgl/src/widgets/../core/../misc/../font/lv_font.h ****     int16_t ofs_y;  /**< y offset of the bounding box*/
  49:Drivers/lvgl/src/widgets/../core/../misc/../font/lv_font.h ****     uint8_t bpp: 4;  /**< Bit-per-pixel: 1, 2, 4, 8*/
  50:Drivers/lvgl/src/widgets/../core/../misc/../font/lv_font.h ****     uint8_t is_placeholder: 1; /** Glyph is missing. But placeholder will still be displayed */
  51:Drivers/lvgl/src/widgets/../core/../misc/../font/lv_font.h **** } lv_font_glyph_dsc_t;
  52:Drivers/lvgl/src/widgets/../core/../misc/../font/lv_font.h **** 
  53:Drivers/lvgl/src/widgets/../core/../misc/../font/lv_font.h **** /** The bitmaps might be upscaled by 3 to achieve subpixel rendering.*/
  54:Drivers/lvgl/src/widgets/../core/../misc/../font/lv_font.h **** enum {
  55:Drivers/lvgl/src/widgets/../core/../misc/../font/lv_font.h ****     LV_FONT_SUBPX_NONE,
  56:Drivers/lvgl/src/widgets/../core/../misc/../font/lv_font.h ****     LV_FONT_SUBPX_HOR,
  57:Drivers/lvgl/src/widgets/../core/../misc/../font/lv_font.h ****     LV_FONT_SUBPX_VER,
  58:Drivers/lvgl/src/widgets/../core/../misc/../font/lv_font.h ****     LV_FONT_SUBPX_BOTH,
  59:Drivers/lvgl/src/widgets/../core/../misc/../font/lv_font.h **** };
  60:Drivers/lvgl/src/widgets/../core/../misc/../font/lv_font.h **** 
  61:Drivers/lvgl/src/widgets/../core/../misc/../font/lv_font.h **** typedef uint8_t lv_font_subpx_t;
  62:Drivers/lvgl/src/widgets/../core/../misc/../font/lv_font.h **** 
  63:Drivers/lvgl/src/widgets/../core/../misc/../font/lv_font.h **** /** Describe the properties of a font*/
  64:Drivers/lvgl/src/widgets/../core/../misc/../font/lv_font.h **** typedef struct _lv_font_t {
  65:Drivers/lvgl/src/widgets/../core/../misc/../font/lv_font.h ****     /** Get a glyph's descriptor from a font*/
  66:Drivers/lvgl/src/widgets/../core/../misc/../font/lv_font.h ****     bool (*get_glyph_dsc)(const struct _lv_font_t *, lv_font_glyph_dsc_t *, uint32_t letter, uint32
  67:Drivers/lvgl/src/widgets/../core/../misc/../font/lv_font.h **** 
  68:Drivers/lvgl/src/widgets/../core/../misc/../font/lv_font.h ****     /** Get a glyph's bitmap from a font*/
  69:Drivers/lvgl/src/widgets/../core/../misc/../font/lv_font.h ****     const uint8_t * (*get_glyph_bitmap)(const struct _lv_font_t *, uint32_t);
  70:Drivers/lvgl/src/widgets/../core/../misc/../font/lv_font.h **** 
  71:Drivers/lvgl/src/widgets/../core/../misc/../font/lv_font.h ****     /*Pointer to the font in a font pack (must have the same line height)*/
  72:Drivers/lvgl/src/widgets/../core/../misc/../font/lv_font.h ****     lv_coord_t line_height;         /**< The real line height where any text fits*/
  73:Drivers/lvgl/src/widgets/../core/../misc/../font/lv_font.h ****     lv_coord_t base_line;           /**< Base line measured from the top of the line_height*/
  74:Drivers/lvgl/src/widgets/../core/../misc/../font/lv_font.h ****     uint8_t subpx  : 2;             /**< An element of `lv_font_subpx_t`*/
  75:Drivers/lvgl/src/widgets/../core/../misc/../font/lv_font.h **** 
  76:Drivers/lvgl/src/widgets/../core/../misc/../font/lv_font.h ****     int8_t underline_position;      /**< Distance between the top of the underline and base line (<
  77:Drivers/lvgl/src/widgets/../core/../misc/../font/lv_font.h ****     int8_t underline_thickness;     /**< Thickness of the underline*/
  78:Drivers/lvgl/src/widgets/../core/../misc/../font/lv_font.h **** 
  79:Drivers/lvgl/src/widgets/../core/../misc/../font/lv_font.h ****     const void * dsc;               /**< Store implementation specific or run_time data or caching 
ARM GAS  /var/folders/lp/x54gwt890xv47sdkqj1k04q40000gn/T//ccn9ZgyV.s 			page 20


  80:Drivers/lvgl/src/widgets/../core/../misc/../font/lv_font.h ****     const struct _lv_font_t * fallback;   /**< Fallback font for missing glyph. Resolved recursivel
  81:Drivers/lvgl/src/widgets/../core/../misc/../font/lv_font.h **** #if LV_USE_USER_DATA
  82:Drivers/lvgl/src/widgets/../core/../misc/../font/lv_font.h ****     void * user_data;               /**< Custom user data for font.*/
  83:Drivers/lvgl/src/widgets/../core/../misc/../font/lv_font.h **** #endif
  84:Drivers/lvgl/src/widgets/../core/../misc/../font/lv_font.h **** } lv_font_t;
  85:Drivers/lvgl/src/widgets/../core/../misc/../font/lv_font.h **** 
  86:Drivers/lvgl/src/widgets/../core/../misc/../font/lv_font.h **** /**********************
  87:Drivers/lvgl/src/widgets/../core/../misc/../font/lv_font.h ****  * GLOBAL PROTOTYPES
  88:Drivers/lvgl/src/widgets/../core/../misc/../font/lv_font.h ****  **********************/
  89:Drivers/lvgl/src/widgets/../core/../misc/../font/lv_font.h **** 
  90:Drivers/lvgl/src/widgets/../core/../misc/../font/lv_font.h **** /**
  91:Drivers/lvgl/src/widgets/../core/../misc/../font/lv_font.h ****  * Return with the bitmap of a font.
  92:Drivers/lvgl/src/widgets/../core/../misc/../font/lv_font.h ****  * @param font_p pointer to a font
  93:Drivers/lvgl/src/widgets/../core/../misc/../font/lv_font.h ****  * @param letter a UNICODE character code
  94:Drivers/lvgl/src/widgets/../core/../misc/../font/lv_font.h ****  * @return pointer to the bitmap of the letter
  95:Drivers/lvgl/src/widgets/../core/../misc/../font/lv_font.h ****  */
  96:Drivers/lvgl/src/widgets/../core/../misc/../font/lv_font.h **** const uint8_t * lv_font_get_glyph_bitmap(const lv_font_t * font_p, uint32_t letter);
  97:Drivers/lvgl/src/widgets/../core/../misc/../font/lv_font.h **** 
  98:Drivers/lvgl/src/widgets/../core/../misc/../font/lv_font.h **** /**
  99:Drivers/lvgl/src/widgets/../core/../misc/../font/lv_font.h ****  * Get the descriptor of a glyph
 100:Drivers/lvgl/src/widgets/../core/../misc/../font/lv_font.h ****  * @param font_p pointer to font
 101:Drivers/lvgl/src/widgets/../core/../misc/../font/lv_font.h ****  * @param dsc_out store the result descriptor here
 102:Drivers/lvgl/src/widgets/../core/../misc/../font/lv_font.h ****  * @param letter a UNICODE letter code
 103:Drivers/lvgl/src/widgets/../core/../misc/../font/lv_font.h ****  * @param letter_next the next letter after `letter`. Used for kerning
 104:Drivers/lvgl/src/widgets/../core/../misc/../font/lv_font.h ****  * @return true: descriptor is successfully loaded into `dsc_out`.
 105:Drivers/lvgl/src/widgets/../core/../misc/../font/lv_font.h ****  *         false: the letter was not found, no data is loaded to `dsc_out`
 106:Drivers/lvgl/src/widgets/../core/../misc/../font/lv_font.h ****  */
 107:Drivers/lvgl/src/widgets/../core/../misc/../font/lv_font.h **** bool lv_font_get_glyph_dsc(const lv_font_t * font_p, lv_font_glyph_dsc_t * dsc_out, uint32_t letter
 108:Drivers/lvgl/src/widgets/../core/../misc/../font/lv_font.h ****                            uint32_t letter_next);
 109:Drivers/lvgl/src/widgets/../core/../misc/../font/lv_font.h **** 
 110:Drivers/lvgl/src/widgets/../core/../misc/../font/lv_font.h **** /**
 111:Drivers/lvgl/src/widgets/../core/../misc/../font/lv_font.h ****  * Get the width of a glyph with kerning
 112:Drivers/lvgl/src/widgets/../core/../misc/../font/lv_font.h ****  * @param font pointer to a font
 113:Drivers/lvgl/src/widgets/../core/../misc/../font/lv_font.h ****  * @param letter a UNICODE letter
 114:Drivers/lvgl/src/widgets/../core/../misc/../font/lv_font.h ****  * @param letter_next the next letter after `letter`. Used for kerning
 115:Drivers/lvgl/src/widgets/../core/../misc/../font/lv_font.h ****  * @return the width of the glyph
 116:Drivers/lvgl/src/widgets/../core/../misc/../font/lv_font.h ****  */
 117:Drivers/lvgl/src/widgets/../core/../misc/../font/lv_font.h **** uint16_t lv_font_get_glyph_width(const lv_font_t * font, uint32_t letter, uint32_t letter_next);
 118:Drivers/lvgl/src/widgets/../core/../misc/../font/lv_font.h **** 
 119:Drivers/lvgl/src/widgets/../core/../misc/../font/lv_font.h **** /**
 120:Drivers/lvgl/src/widgets/../core/../misc/../font/lv_font.h ****  * Get the line height of a font. All characters fit into this height
 121:Drivers/lvgl/src/widgets/../core/../misc/../font/lv_font.h ****  * @param font_p pointer to a font
 122:Drivers/lvgl/src/widgets/../core/../misc/../font/lv_font.h ****  * @return the height of a font
 123:Drivers/lvgl/src/widgets/../core/../misc/../font/lv_font.h ****  */
 124:Drivers/lvgl/src/widgets/../core/../misc/../font/lv_font.h **** static inline lv_coord_t lv_font_get_line_height(const lv_font_t * font_p)
  66              		.loc 2 124 26 is_stmt 1 view .LVU9
  67              	.LBB128:
 125:Drivers/lvgl/src/widgets/../core/../misc/../font/lv_font.h **** {
 126:Drivers/lvgl/src/widgets/../core/../misc/../font/lv_font.h ****     return font_p->line_height;
  68              		.loc 2 126 5 view .LVU10
  69              		.loc 2 126 5 is_stmt 0 view .LVU11
  70              	.LBE128:
  71              	.LBE127:
 930:Drivers/lvgl/src/widgets/lv_table.c ****     lv_table_t * table = (lv_table_t *)obj;
  72              		.loc 1 930 1 view .LVU12
  73 0014 CDE90930 		strd	r3, r0, [sp, #36]
  74 0018 BDF96C30 		ldrsh	r3, [sp, #108]
ARM GAS  /var/folders/lp/x54gwt890xv47sdkqj1k04q40000gn/T//ccn9ZgyV.s 			page 21


  75              	.LVL4:
 930:Drivers/lvgl/src/widgets/lv_table.c ****     lv_table_t * table = (lv_table_t *)obj;
  76              		.loc 1 930 1 view .LVU13
  77 001c BDF97000 		ldrsh	r0, [sp, #112]
  78 0020 0693     		str	r3, [sp, #24]
  79 0022 0344     		add	r3, r3, r0
  80 0024 9BB2     		uxth	r3, r3
  81              		.loc 1 935 14 view .LVU14
  82 0026 1BFB01F1 		smulbb	r1, fp, r1
  83              	.LVL5:
 933:Drivers/lvgl/src/widgets/lv_table.c ****     /* Calculate the cell_data index where to start */
  84              		.loc 1 933 65 discriminator 1 view .LVU15
  85 002a 1F44     		add	r7, r7, r3
  86              		.loc 1 935 14 view .LVU16
  87 002c 8EB2     		uxth	r6, r1
  88 002e 0893     		str	r3, [sp, #32]
 930:Drivers/lvgl/src/widgets/lv_table.c ****     lv_table_t * table = (lv_table_t *)obj;
  89              		.loc 1 930 1 view .LVU17
  90 0030 BDF96420 		ldrsh	r2, [sp, #100]
  91              	.LVL6:
 930:Drivers/lvgl/src/widgets/lv_table.c ****     lv_table_t * table = (lv_table_t *)obj;
  92              		.loc 1 930 1 view .LVU18
  93 0034 BDF96830 		ldrsh	r3, [sp, #104]
  94 0038 0790     		str	r0, [sp, #28]
 933:Drivers/lvgl/src/widgets/lv_table.c ****     /* Calculate the cell_data index where to start */
  95              		.loc 1 933 16 discriminator 1 view .LVU19
  96 003a 3FB2     		sxth	r7, r7
  97              	.LVL7:
  98              		.loc 1 935 5 is_stmt 1 view .LVU20
 936:Drivers/lvgl/src/widgets/lv_table.c **** 
 937:Drivers/lvgl/src/widgets/lv_table.c ****     /* Traverse the cells in the row_id row */
 938:Drivers/lvgl/src/widgets/lv_table.c ****     uint16_t cell;
  99              		.loc 1 938 5 view .LVU21
 939:Drivers/lvgl/src/widgets/lv_table.c ****     uint16_t col;
 100              		.loc 1 939 5 view .LVU22
 940:Drivers/lvgl/src/widgets/lv_table.c ****     for(cell = row_start, col = 0; cell < row_start + table->col_cnt; cell++, col++) {
 101              		.loc 1 940 5 view .LVU23
 102              		.loc 1 940 41 discriminator 1 view .LVU24
 103 003c 0496     		str	r6, [sp, #16]
 104 003e BBF1000F 		cmp	fp, #0
 105 0042 46D0     		beq	.L2
 106              	.LBB129:
 107              	.LBB130:
 941:Drivers/lvgl/src/widgets/lv_table.c ****         lv_table_cell_t * cell_data = table->cell_data[cell];
 942:Drivers/lvgl/src/widgets/lv_table.c **** 
 943:Drivers/lvgl/src/widgets/lv_table.c ****         if(is_cell_empty(cell_data)) {
 944:Drivers/lvgl/src/widgets/lv_table.c ****             continue;
 945:Drivers/lvgl/src/widgets/lv_table.c ****         }
 946:Drivers/lvgl/src/widgets/lv_table.c **** 
 947:Drivers/lvgl/src/widgets/lv_table.c ****         lv_coord_t txt_w = table->col_w[col];
 948:Drivers/lvgl/src/widgets/lv_table.c **** 
 949:Drivers/lvgl/src/widgets/lv_table.c ****         /* Traverse the current row from the first until the penultimate column.
 950:Drivers/lvgl/src/widgets/lv_table.c ****          * Increment the text width if the cell has the LV_TABLE_CELL_CTRL_MERGE_RIGHT control,
 951:Drivers/lvgl/src/widgets/lv_table.c ****          * exit the traversal when the current cell control is not LV_TABLE_CELL_CTRL_MERGE_RIGHT *
 952:Drivers/lvgl/src/widgets/lv_table.c ****         uint16_t col_merge = 0;
 953:Drivers/lvgl/src/widgets/lv_table.c ****         for(col_merge = 0; col_merge + col < table->col_cnt - 1; col_merge++) {
 954:Drivers/lvgl/src/widgets/lv_table.c ****             lv_table_cell_t * next_cell_data = table->cell_data[cell + col_merge];
ARM GAS  /var/folders/lp/x54gwt890xv47sdkqj1k04q40000gn/T//ccn9ZgyV.s 			page 22


 955:Drivers/lvgl/src/widgets/lv_table.c **** 
 956:Drivers/lvgl/src/widgets/lv_table.c ****             if(is_cell_empty(next_cell_data)) break;
 957:Drivers/lvgl/src/widgets/lv_table.c **** 
 958:Drivers/lvgl/src/widgets/lv_table.c ****             lv_table_cell_ctrl_t ctrl = (lv_table_cell_ctrl_t) next_cell_data->ctrl;
 959:Drivers/lvgl/src/widgets/lv_table.c ****             if(ctrl & LV_TABLE_CELL_CTRL_MERGE_RIGHT) {
 960:Drivers/lvgl/src/widgets/lv_table.c ****                 txt_w += table->col_w[col + col_merge + 1];
 961:Drivers/lvgl/src/widgets/lv_table.c ****             }
 962:Drivers/lvgl/src/widgets/lv_table.c ****             else {
 963:Drivers/lvgl/src/widgets/lv_table.c ****                 break;
 964:Drivers/lvgl/src/widgets/lv_table.c ****             }
 965:Drivers/lvgl/src/widgets/lv_table.c ****         }
 966:Drivers/lvgl/src/widgets/lv_table.c **** 
 967:Drivers/lvgl/src/widgets/lv_table.c ****         lv_table_cell_ctrl_t ctrl = (lv_table_cell_ctrl_t) cell_data->ctrl;
 968:Drivers/lvgl/src/widgets/lv_table.c **** 
 969:Drivers/lvgl/src/widgets/lv_table.c ****         /*When cropping the text we can assume the row height is equal to the line height*/
 970:Drivers/lvgl/src/widgets/lv_table.c ****         if(ctrl & LV_TABLE_CELL_CTRL_TEXT_CROP) {
 971:Drivers/lvgl/src/widgets/lv_table.c ****             h_max = LV_MAX(lv_font_get_line_height(font) + cell_top + cell_bottom,
 972:Drivers/lvgl/src/widgets/lv_table.c ****                            h_max);
 973:Drivers/lvgl/src/widgets/lv_table.c ****         }
 974:Drivers/lvgl/src/widgets/lv_table.c ****         /*Else we have to calculate the height of the cell text*/
 975:Drivers/lvgl/src/widgets/lv_table.c ****         else {
 976:Drivers/lvgl/src/widgets/lv_table.c ****             lv_point_t txt_size;
 977:Drivers/lvgl/src/widgets/lv_table.c ****             txt_w -= cell_left + cell_right;
 108              		.loc 1 977 19 is_stmt 0 view .LVU25
 109 0044 D318     		adds	r3, r2, r3
 110 0046 0B93     		str	r3, [sp, #44]
 111              	.LBE130:
 112              	.LBE129:
 940:Drivers/lvgl/src/widgets/lv_table.c ****     for(cell = row_start, col = 0; cell < row_start + table->col_cnt; cell++, col++) {
 113              		.loc 1 940 31 view .LVU26
 114 0048 0025     		movs	r5, #0
 115              	.LVL8:
 116              	.L7:
 117              	.LBB140:
 941:Drivers/lvgl/src/widgets/lv_table.c ****         lv_table_cell_t * cell_data = table->cell_data[cell];
 118              		.loc 1 941 9 is_stmt 1 view .LVU27
 941:Drivers/lvgl/src/widgets/lv_table.c ****         lv_table_cell_t * cell_data = table->cell_data[cell];
 119              		.loc 1 941 44 is_stmt 0 view .LVU28
 120 004a D8F82820 		ldr	r2, [r8, #40]
 941:Drivers/lvgl/src/widgets/lv_table.c ****         lv_table_cell_t * cell_data = table->cell_data[cell];
 121              		.loc 1 941 27 view .LVU29
 122 004e 52F82610 		ldr	r1, [r2, r6, lsl #2]
 123              	.LVL9:
 943:Drivers/lvgl/src/widgets/lv_table.c ****             continue;
 124              		.loc 1 943 9 is_stmt 1 view .LVU30
 943:Drivers/lvgl/src/widgets/lv_table.c ****             continue;
 125              		.loc 1 943 11 is_stmt 0 discriminator 1 view .LVU31
 126 0052 0029     		cmp	r1, #0
 127 0054 35D0     		beq	.L3
 947:Drivers/lvgl/src/widgets/lv_table.c **** 
 128              		.loc 1 947 9 is_stmt 1 view .LVU32
 947:Drivers/lvgl/src/widgets/lv_table.c **** 
 129              		.loc 1 947 40 is_stmt 0 view .LVU33
 130 0056 D8F83040 		ldr	r4, [r8, #48]
 953:Drivers/lvgl/src/widgets/lv_table.c ****             lv_table_cell_t * next_cell_data = table->cell_data[cell + col_merge];
 131              		.loc 1 953 61 discriminator 1 view .LVU34
 132 005a 0BF1FF30 		add	r0, fp, #-1
ARM GAS  /var/folders/lp/x54gwt890xv47sdkqj1k04q40000gn/T//ccn9ZgyV.s 			page 23


 953:Drivers/lvgl/src/widgets/lv_table.c ****             lv_table_cell_t * next_cell_data = table->cell_data[cell + col_merge];
 133              		.loc 1 953 44 discriminator 1 view .LVU35
 134 005e 8542     		cmp	r5, r0
 947:Drivers/lvgl/src/widgets/lv_table.c **** 
 135              		.loc 1 947 20 view .LVU36
 136 0060 34F91530 		ldrsh	r3, [r4, r5, lsl #1]
 137              	.LVL10:
 952:Drivers/lvgl/src/widgets/lv_table.c ****         for(col_merge = 0; col_merge + col < table->col_cnt - 1; col_merge++) {
 138              		.loc 1 952 9 is_stmt 1 view .LVU37
 953:Drivers/lvgl/src/widgets/lv_table.c ****             lv_table_cell_t * next_cell_data = table->cell_data[cell + col_merge];
 139              		.loc 1 953 9 view .LVU38
 953:Drivers/lvgl/src/widgets/lv_table.c ****             lv_table_cell_t * next_cell_data = table->cell_data[cell + col_merge];
 140              		.loc 1 953 44 discriminator 1 view .LVU39
 947:Drivers/lvgl/src/widgets/lv_table.c **** 
 141              		.loc 1 947 40 is_stmt 0 view .LVU40
 142 0064 04EB450E 		add	lr, r4, r5, lsl #1
 953:Drivers/lvgl/src/widgets/lv_table.c ****             lv_table_cell_t * next_cell_data = table->cell_data[cell + col_merge];
 143              		.loc 1 953 44 discriminator 1 view .LVU41
 144 0068 57DA     		bge	.L8
 145 006a 06F18040 		add	r0, r6, #1073741824
 146 006e 0138     		subs	r0, r0, #1
 147 0070 02EB800C 		add	ip, r2, r0, lsl #2
 148 0074 ABEB050A 		sub	r10, fp, r5
 149 0078 0122     		movs	r2, #1
 150 007a 08E0     		b	.L5
 151              	.LVL11:
 152              	.L28:
 153              	.LBB131:
 959:Drivers/lvgl/src/widgets/lv_table.c ****                 txt_w += table->col_w[col + col_merge + 1];
 154              		.loc 1 959 15 view .LVU42
 155 007c 0078     		ldrb	r0, [r0]	@ zero_extendqisi2
 156              	.LVL12:
 959:Drivers/lvgl/src/widgets/lv_table.c ****                 txt_w += table->col_w[col + col_merge + 1];
 157              		.loc 1 959 15 view .LVU43
 158 007e C007     		lsls	r0, r0, #31
 159 0080 0FD5     		bpl	.L4
 960:Drivers/lvgl/src/widgets/lv_table.c ****             }
 160              		.loc 1 960 23 view .LVU44
 161 0082 3EF8020F 		ldrh	r0, [lr, #2]!
 162              	.LBE131:
 953:Drivers/lvgl/src/widgets/lv_table.c ****             lv_table_cell_t * next_cell_data = table->cell_data[cell + col_merge];
 163              		.loc 1 953 44 discriminator 1 view .LVU45
 164 0086 5245     		cmp	r2, r10
 165              	.LBB132:
 960:Drivers/lvgl/src/widgets/lv_table.c ****             }
 166              		.loc 1 960 23 view .LVU46
 167 0088 0344     		add	r3, r3, r0
 168              	.LVL13:
 960:Drivers/lvgl/src/widgets/lv_table.c ****             }
 169              		.loc 1 960 23 view .LVU47
 170 008a 1BB2     		sxth	r3, r3
 171              	.LVL14:
 960:Drivers/lvgl/src/widgets/lv_table.c ****             }
 172              		.loc 1 960 23 view .LVU48
 173              	.LBE132:
 953:Drivers/lvgl/src/widgets/lv_table.c ****             lv_table_cell_t * next_cell_data = table->cell_data[cell + col_merge];
 174              		.loc 1 953 75 is_stmt 1 discriminator 2 view .LVU49
ARM GAS  /var/folders/lp/x54gwt890xv47sdkqj1k04q40000gn/T//ccn9ZgyV.s 			page 24


 953:Drivers/lvgl/src/widgets/lv_table.c ****             lv_table_cell_t * next_cell_data = table->cell_data[cell + col_merge];
 175              		.loc 1 953 44 discriminator 1 view .LVU50
 176 008c 43D0     		beq	.L27
 177              	.LVL15:
 178              	.L5:
 179              	.LBB133:
 958:Drivers/lvgl/src/widgets/lv_table.c ****             if(ctrl & LV_TABLE_CELL_CTRL_MERGE_RIGHT) {
 180              		.loc 1 958 13 view .LVU51
 960:Drivers/lvgl/src/widgets/lv_table.c ****             }
 181              		.loc 1 960 17 view .LVU52
 182 008e 1FFA82F9 		uxth	r9, r2
 954:Drivers/lvgl/src/widgets/lv_table.c **** 
 183              		.loc 1 954 31 is_stmt 0 view .LVU53
 184 0092 5CF8040F 		ldr	r0, [ip, #4]!
 185              	.LVL16:
 959:Drivers/lvgl/src/widgets/lv_table.c ****                 txt_w += table->col_w[col + col_merge + 1];
 186              		.loc 1 959 13 is_stmt 1 view .LVU54
 187 0096 09F1FF34 		add	r4, r9, #-1
 188              	.LBE133:
 953:Drivers/lvgl/src/widgets/lv_table.c ****             lv_table_cell_t * next_cell_data = table->cell_data[cell + col_merge];
 189              		.loc 1 953 44 is_stmt 0 discriminator 1 view .LVU55
 190 009a 0132     		adds	r2, r2, #1
 191 009c A4B2     		uxth	r4, r4
 192              	.LVL17:
 193              	.LBB134:
 954:Drivers/lvgl/src/widgets/lv_table.c **** 
 194              		.loc 1 954 13 is_stmt 1 view .LVU56
 956:Drivers/lvgl/src/widgets/lv_table.c **** 
 195              		.loc 1 956 13 view .LVU57
 956:Drivers/lvgl/src/widgets/lv_table.c **** 
 196              		.loc 1 956 15 is_stmt 0 discriminator 1 view .LVU58
 197 009e 0028     		cmp	r0, #0
 198 00a0 ECD1     		bne	.L28
 199              	.LVL18:
 200              	.L4:
 956:Drivers/lvgl/src/widgets/lv_table.c **** 
 201              		.loc 1 956 15 discriminator 1 view .LVU59
 202              	.LBE134:
 967:Drivers/lvgl/src/widgets/lv_table.c **** 
 203              		.loc 1 967 9 is_stmt 1 view .LVU60
 970:Drivers/lvgl/src/widgets/lv_table.c ****             h_max = LV_MAX(lv_font_get_line_height(font) + cell_top + cell_bottom,
 204              		.loc 1 970 9 view .LVU61
 970:Drivers/lvgl/src/widgets/lv_table.c ****             h_max = LV_MAX(lv_font_get_line_height(font) + cell_top + cell_bottom,
 205              		.loc 1 970 11 is_stmt 0 view .LVU62
 206 00a2 0A78     		ldrb	r2, [r1]	@ zero_extendqisi2
 207 00a4 12F00202 		ands	r2, r2, #2
 208 00a8 17D0     		beq	.L6
 971:Drivers/lvgl/src/widgets/lv_table.c ****                            h_max);
 209              		.loc 1 971 13 is_stmt 1 view .LVU63
 210              	.LVL19:
 211              	.LBB135:
 212              	.LBI135:
 124:Drivers/lvgl/src/widgets/../core/../misc/../font/lv_font.h **** {
 213              		.loc 2 124 26 view .LVU64
 214              	.LBB136:
 215              		.loc 2 126 5 view .LVU65
 216              		.loc 2 126 18 is_stmt 0 view .LVU66
ARM GAS  /var/folders/lp/x54gwt890xv47sdkqj1k04q40000gn/T//ccn9ZgyV.s 			page 25


 217 00aa 059B     		ldr	r3, [sp, #20]
 218              	.LVL20:
 219              		.loc 2 126 18 view .LVU67
 220              	.LBE136:
 221              	.LBE135:
 971:Drivers/lvgl/src/widgets/lv_table.c ****                            h_max);
 222              		.loc 1 971 21 discriminator 1 view .LVU68
 223 00ac 0799     		ldr	r1, [sp, #28]
 224              	.LVL21:
 225              	.LBB138:
 226              	.LBB137:
 227              		.loc 2 126 18 view .LVU69
 228 00ae B3F90820 		ldrsh	r2, [r3, #8]
 229              	.LVL22:
 230              		.loc 2 126 18 view .LVU70
 231              	.LBE137:
 232              	.LBE138:
 971:Drivers/lvgl/src/widgets/lv_table.c ****                            h_max);
 233              		.loc 1 971 21 discriminator 1 view .LVU71
 234 00b2 069B     		ldr	r3, [sp, #24]
 235 00b4 D318     		adds	r3, r2, r3
 236 00b6 0B44     		add	r3, r3, r1
 971:Drivers/lvgl/src/widgets/lv_table.c ****                            h_max);
 237              		.loc 1 971 19 discriminator 1 view .LVU72
 238 00b8 9F42     		cmp	r7, r3
 239 00ba 02DA     		bge	.L3
 971:Drivers/lvgl/src/widgets/lv_table.c ****                            h_max);
 240              		.loc 1 971 21 discriminator 1 view .LVU73
 241 00bc 089B     		ldr	r3, [sp, #32]
 242 00be 1A44     		add	r2, r2, r3
 971:Drivers/lvgl/src/widgets/lv_table.c ****                            h_max);
 243              		.loc 1 971 19 discriminator 1 view .LVU74
 244 00c0 17B2     		sxth	r7, r2
 245              	.LVL23:
 246              	.L3:
 971:Drivers/lvgl/src/widgets/lv_table.c ****                            h_max);
 247              		.loc 1 971 19 discriminator 1 view .LVU75
 248              	.LBE140:
 940:Drivers/lvgl/src/widgets/lv_table.c ****         lv_table_cell_t * cell_data = table->cell_data[cell];
 249              		.loc 1 940 77 is_stmt 1 discriminator 2 view .LVU76
 940:Drivers/lvgl/src/widgets/lv_table.c ****         lv_table_cell_t * cell_data = table->cell_data[cell];
 250              		.loc 1 940 53 is_stmt 0 discriminator 1 view .LVU77
 251 00c2 049B     		ldr	r3, [sp, #16]
 940:Drivers/lvgl/src/widgets/lv_table.c ****         lv_table_cell_t * cell_data = table->cell_data[cell];
 252              		.loc 1 940 75 discriminator 2 view .LVU78
 253 00c4 0136     		adds	r6, r6, #1
 254              	.LVL24:
 940:Drivers/lvgl/src/widgets/lv_table.c ****         lv_table_cell_t * cell_data = table->cell_data[cell];
 255              		.loc 1 940 75 discriminator 2 view .LVU79
 256 00c6 B6B2     		uxth	r6, r6
 257              	.LVL25:
 940:Drivers/lvgl/src/widgets/lv_table.c ****         lv_table_cell_t * cell_data = table->cell_data[cell];
 258              		.loc 1 940 53 discriminator 1 view .LVU80
 259 00c8 5B44     		add	r3, fp, r3
 940:Drivers/lvgl/src/widgets/lv_table.c ****         lv_table_cell_t * cell_data = table->cell_data[cell];
 260              		.loc 1 940 82 discriminator 2 view .LVU81
 261 00ca 0135     		adds	r5, r5, #1
ARM GAS  /var/folders/lp/x54gwt890xv47sdkqj1k04q40000gn/T//ccn9ZgyV.s 			page 26


 262              	.LVL26:
 940:Drivers/lvgl/src/widgets/lv_table.c ****         lv_table_cell_t * cell_data = table->cell_data[cell];
 263              		.loc 1 940 41 discriminator 1 view .LVU82
 264 00cc 9E42     		cmp	r6, r3
 940:Drivers/lvgl/src/widgets/lv_table.c ****         lv_table_cell_t * cell_data = table->cell_data[cell];
 265              		.loc 1 940 82 discriminator 2 view .LVU83
 266 00ce ADB2     		uxth	r5, r5
 267              	.LVL27:
 940:Drivers/lvgl/src/widgets/lv_table.c ****         lv_table_cell_t * cell_data = table->cell_data[cell];
 268              		.loc 1 940 41 is_stmt 1 discriminator 1 view .LVU84
 269 00d0 BBDB     		blt	.L7
 270              	.LVL28:
 271              	.L2:
 978:Drivers/lvgl/src/widgets/lv_table.c **** 
 979:Drivers/lvgl/src/widgets/lv_table.c ****             lv_txt_get_size(&txt_size, table->cell_data[cell]->txt, font,
 980:Drivers/lvgl/src/widgets/lv_table.c ****                             letter_space, line_space, txt_w, LV_TEXT_FLAG_NONE);
 981:Drivers/lvgl/src/widgets/lv_table.c **** 
 982:Drivers/lvgl/src/widgets/lv_table.c ****             h_max = LV_MAX(txt_size.y + cell_top + cell_bottom, h_max);
 983:Drivers/lvgl/src/widgets/lv_table.c ****             /*Skip until one element after the last merged column*/
 984:Drivers/lvgl/src/widgets/lv_table.c ****             cell += col_merge;
 985:Drivers/lvgl/src/widgets/lv_table.c ****             col += col_merge;
 986:Drivers/lvgl/src/widgets/lv_table.c ****         }
 987:Drivers/lvgl/src/widgets/lv_table.c ****     }
 988:Drivers/lvgl/src/widgets/lv_table.c **** 
 989:Drivers/lvgl/src/widgets/lv_table.c ****     return h_max;
 272              		.loc 1 989 5 view .LVU85
 990:Drivers/lvgl/src/widgets/lv_table.c **** }
 273              		.loc 1 990 1 is_stmt 0 view .LVU86
 274 00d2 3846     		mov	r0, r7
 275 00d4 0FB0     		add	sp, sp, #60
 276              		.cfi_remember_state
 277              		.cfi_def_cfa_offset 36
 278              		@ sp needed
 279 00d6 BDE8F08F 		pop	{r4, r5, r6, r7, r8, r9, r10, fp, pc}
 280              	.LVL29:
 281              	.L6:
 282              		.cfi_restore_state
 283              	.LBB141:
 284              	.LBB139:
 976:Drivers/lvgl/src/widgets/lv_table.c ****             txt_w -= cell_left + cell_right;
 285              		.loc 1 976 13 is_stmt 1 view .LVU87
 977:Drivers/lvgl/src/widgets/lv_table.c **** 
 286              		.loc 1 977 13 view .LVU88
 979:Drivers/lvgl/src/widgets/lv_table.c ****                             letter_space, line_space, txt_w, LV_TEXT_FLAG_NONE);
 287              		.loc 1 979 13 is_stmt 0 view .LVU89
 288 00da 0292     		str	r2, [sp, #8]
 289              	.LVL30:
 977:Drivers/lvgl/src/widgets/lv_table.c **** 
 290              		.loc 1 977 19 view .LVU90
 291 00dc 0B9A     		ldr	r2, [sp, #44]
 292 00de 9B1A     		subs	r3, r3, r2
 293              	.LVL31:
 979:Drivers/lvgl/src/widgets/lv_table.c ****                             letter_space, line_space, txt_w, LV_TEXT_FLAG_NONE);
 294              		.loc 1 979 13 is_stmt 1 view .LVU91
 295 00e0 1BB2     		sxth	r3, r3
 979:Drivers/lvgl/src/widgets/lv_table.c ****                             letter_space, line_space, txt_w, LV_TEXT_FLAG_NONE);
 296              		.loc 1 979 13 is_stmt 0 view .LVU92
ARM GAS  /var/folders/lp/x54gwt890xv47sdkqj1k04q40000gn/T//ccn9ZgyV.s 			page 27


 297 00e2 0193     		str	r3, [sp, #4]
 298 00e4 0A9B     		ldr	r3, [sp, #40]
 299              	.LVL32:
 979:Drivers/lvgl/src/widgets/lv_table.c ****                             letter_space, line_space, txt_w, LV_TEXT_FLAG_NONE);
 300              		.loc 1 979 13 view .LVU93
 301 00e6 059A     		ldr	r2, [sp, #20]
 302 00e8 0093     		str	r3, [sp]
 303 00ea 0831     		adds	r1, r1, #8
 304              	.LVL33:
 979:Drivers/lvgl/src/widgets/lv_table.c ****                             letter_space, line_space, txt_w, LV_TEXT_FLAG_NONE);
 305              		.loc 1 979 13 view .LVU94
 306 00ec 099B     		ldr	r3, [sp, #36]
 307 00ee 0DA8     		add	r0, sp, #52
 308 00f0 FFF7FEFF 		bl	lv_txt_get_size
 309              	.LVL34:
 982:Drivers/lvgl/src/widgets/lv_table.c ****             /*Skip until one element after the last merged column*/
 310              		.loc 1 982 13 is_stmt 1 view .LVU95
 982:Drivers/lvgl/src/widgets/lv_table.c ****             /*Skip until one element after the last merged column*/
 311              		.loc 1 982 21 is_stmt 0 view .LVU96
 312 00f4 069A     		ldr	r2, [sp, #24]
 313 00f6 BDF93630 		ldrsh	r3, [sp, #54]
 314 00fa B8F824B0 		ldrh	fp, [r8, #36]
 315 00fe 1344     		add	r3, r3, r2
 316 0100 079A     		ldr	r2, [sp, #28]
 317 0102 1344     		add	r3, r3, r2
 318 0104 BB42     		cmp	r3, r7
 984:Drivers/lvgl/src/widgets/lv_table.c ****             col += col_merge;
 319              		.loc 1 984 18 view .LVU97
 320 0106 2644     		add	r6, r6, r4
 321              	.LVL35:
 982:Drivers/lvgl/src/widgets/lv_table.c ****             /*Skip until one element after the last merged column*/
 322              		.loc 1 982 21 view .LVU98
 323 0108 B8BF     		it	lt
 324 010a 3B46     		movlt	r3, r7
 985:Drivers/lvgl/src/widgets/lv_table.c ****         }
 325              		.loc 1 985 17 view .LVU99
 326 010c 2C44     		add	r4, r4, r5
 984:Drivers/lvgl/src/widgets/lv_table.c ****             col += col_merge;
 327              		.loc 1 984 18 view .LVU100
 328 010e B6B2     		uxth	r6, r6
 985:Drivers/lvgl/src/widgets/lv_table.c ****         }
 329              		.loc 1 985 17 view .LVU101
 330 0110 A5B2     		uxth	r5, r4
 331              	.LVL36:
 982:Drivers/lvgl/src/widgets/lv_table.c ****             /*Skip until one element after the last merged column*/
 332              		.loc 1 982 19 view .LVU102
 333 0112 1FB2     		sxth	r7, r3
 334              	.LVL37:
 984:Drivers/lvgl/src/widgets/lv_table.c ****             col += col_merge;
 335              		.loc 1 984 13 is_stmt 1 view .LVU103
 985:Drivers/lvgl/src/widgets/lv_table.c ****         }
 336              		.loc 1 985 13 view .LVU104
 985:Drivers/lvgl/src/widgets/lv_table.c ****         }
 337              		.loc 1 985 13 is_stmt 0 view .LVU105
 338 0114 D5E7     		b	.L3
 339              	.LVL38:
 340              	.L27:
ARM GAS  /var/folders/lp/x54gwt890xv47sdkqj1k04q40000gn/T//ccn9ZgyV.s 			page 28


 985:Drivers/lvgl/src/widgets/lv_table.c ****         }
 341              		.loc 1 985 13 view .LVU106
 342              	.LBE139:
 343 0116 4C46     		mov	r4, r9
 344 0118 C3E7     		b	.L4
 345              	.LVL39:
 346              	.L8:
 953:Drivers/lvgl/src/widgets/lv_table.c ****             lv_table_cell_t * next_cell_data = table->cell_data[cell + col_merge];
 347              		.loc 1 953 23 view .LVU107
 348 011a 0024     		movs	r4, #0
 349 011c C1E7     		b	.L4
 350              	.LBE141:
 351              		.cfi_endproc
 352              	.LFE184:
 354 011e 00BF     		.section	.text.get_cell_area,"ax",%progbits
 355              		.align	1
 356              		.p2align 2,,3
 357              		.syntax unified
 358              		.thumb
 359              		.thumb_func
 361              	get_cell_area:
 362              	.LVL40:
 363              	.LFB188:
 991:Drivers/lvgl/src/widgets/lv_table.c **** 
 992:Drivers/lvgl/src/widgets/lv_table.c **** static lv_res_t get_pressed_cell(lv_obj_t * obj, uint16_t * row, uint16_t * col)
 993:Drivers/lvgl/src/widgets/lv_table.c **** {
 994:Drivers/lvgl/src/widgets/lv_table.c ****     lv_table_t * table = (lv_table_t *)obj;
 995:Drivers/lvgl/src/widgets/lv_table.c **** 
 996:Drivers/lvgl/src/widgets/lv_table.c ****     lv_indev_type_t type = lv_indev_get_type(lv_indev_get_act());
 997:Drivers/lvgl/src/widgets/lv_table.c ****     if(type != LV_INDEV_TYPE_POINTER && type != LV_INDEV_TYPE_BUTTON) {
 998:Drivers/lvgl/src/widgets/lv_table.c ****         if(col) *col = LV_TABLE_CELL_NONE;
 999:Drivers/lvgl/src/widgets/lv_table.c ****         if(row) *row = LV_TABLE_CELL_NONE;
1000:Drivers/lvgl/src/widgets/lv_table.c ****         return LV_RES_INV;
1001:Drivers/lvgl/src/widgets/lv_table.c ****     }
1002:Drivers/lvgl/src/widgets/lv_table.c **** 
1003:Drivers/lvgl/src/widgets/lv_table.c ****     lv_point_t p;
1004:Drivers/lvgl/src/widgets/lv_table.c ****     lv_indev_get_point(lv_indev_get_act(), &p);
1005:Drivers/lvgl/src/widgets/lv_table.c **** 
1006:Drivers/lvgl/src/widgets/lv_table.c ****     lv_coord_t tmp;
1007:Drivers/lvgl/src/widgets/lv_table.c ****     if(col) {
1008:Drivers/lvgl/src/widgets/lv_table.c ****         lv_coord_t x = p.x + lv_obj_get_scroll_x(obj);
1009:Drivers/lvgl/src/widgets/lv_table.c **** 
1010:Drivers/lvgl/src/widgets/lv_table.c ****         if(lv_obj_get_style_base_dir(obj, LV_PART_MAIN) == LV_BASE_DIR_RTL) {
1011:Drivers/lvgl/src/widgets/lv_table.c ****             x = obj->coords.x2 - lv_obj_get_style_pad_right(obj, LV_PART_MAIN) - x;
1012:Drivers/lvgl/src/widgets/lv_table.c ****         }
1013:Drivers/lvgl/src/widgets/lv_table.c ****         else {
1014:Drivers/lvgl/src/widgets/lv_table.c ****             x -= obj->coords.x1;
1015:Drivers/lvgl/src/widgets/lv_table.c ****             x -= lv_obj_get_style_pad_left(obj, LV_PART_MAIN);
1016:Drivers/lvgl/src/widgets/lv_table.c ****         }
1017:Drivers/lvgl/src/widgets/lv_table.c **** 
1018:Drivers/lvgl/src/widgets/lv_table.c ****         *col = 0;
1019:Drivers/lvgl/src/widgets/lv_table.c ****         tmp = 0;
1020:Drivers/lvgl/src/widgets/lv_table.c ****         for(*col = 0; *col < table->col_cnt; (*col)++) {
1021:Drivers/lvgl/src/widgets/lv_table.c ****             tmp += table->col_w[*col];
1022:Drivers/lvgl/src/widgets/lv_table.c ****             if(x < tmp) break;
1023:Drivers/lvgl/src/widgets/lv_table.c ****         }
1024:Drivers/lvgl/src/widgets/lv_table.c ****     }
ARM GAS  /var/folders/lp/x54gwt890xv47sdkqj1k04q40000gn/T//ccn9ZgyV.s 			page 29


1025:Drivers/lvgl/src/widgets/lv_table.c **** 
1026:Drivers/lvgl/src/widgets/lv_table.c ****     if(row) {
1027:Drivers/lvgl/src/widgets/lv_table.c ****         lv_coord_t y = p.y + lv_obj_get_scroll_y(obj);;
1028:Drivers/lvgl/src/widgets/lv_table.c ****         y -= obj->coords.y1;
1029:Drivers/lvgl/src/widgets/lv_table.c ****         y -= lv_obj_get_style_pad_top(obj, LV_PART_MAIN);
1030:Drivers/lvgl/src/widgets/lv_table.c **** 
1031:Drivers/lvgl/src/widgets/lv_table.c ****         *row = 0;
1032:Drivers/lvgl/src/widgets/lv_table.c ****         tmp = 0;
1033:Drivers/lvgl/src/widgets/lv_table.c **** 
1034:Drivers/lvgl/src/widgets/lv_table.c ****         for(*row = 0; *row < table->row_cnt; (*row)++) {
1035:Drivers/lvgl/src/widgets/lv_table.c ****             tmp += table->row_h[*row];
1036:Drivers/lvgl/src/widgets/lv_table.c ****             if(y < tmp) break;
1037:Drivers/lvgl/src/widgets/lv_table.c ****         }
1038:Drivers/lvgl/src/widgets/lv_table.c ****     }
1039:Drivers/lvgl/src/widgets/lv_table.c **** 
1040:Drivers/lvgl/src/widgets/lv_table.c ****     return LV_RES_OK;
1041:Drivers/lvgl/src/widgets/lv_table.c **** }
1042:Drivers/lvgl/src/widgets/lv_table.c **** 
1043:Drivers/lvgl/src/widgets/lv_table.c **** /* Returns number of bytes to allocate based on chars configuration */
1044:Drivers/lvgl/src/widgets/lv_table.c **** static size_t get_cell_txt_len(const char * txt)
1045:Drivers/lvgl/src/widgets/lv_table.c **** {
1046:Drivers/lvgl/src/widgets/lv_table.c ****     size_t retval = 0;
1047:Drivers/lvgl/src/widgets/lv_table.c **** 
1048:Drivers/lvgl/src/widgets/lv_table.c **** #if LV_USE_ARABIC_PERSIAN_CHARS
1049:Drivers/lvgl/src/widgets/lv_table.c ****     retval = sizeof(lv_table_cell_t) + _lv_txt_ap_calc_bytes_cnt(txt) + 1;
1050:Drivers/lvgl/src/widgets/lv_table.c **** #else
1051:Drivers/lvgl/src/widgets/lv_table.c ****     retval = sizeof(lv_table_cell_t) + strlen(txt) + 1;
1052:Drivers/lvgl/src/widgets/lv_table.c **** #endif
1053:Drivers/lvgl/src/widgets/lv_table.c **** 
1054:Drivers/lvgl/src/widgets/lv_table.c ****     return retval;
1055:Drivers/lvgl/src/widgets/lv_table.c **** }
1056:Drivers/lvgl/src/widgets/lv_table.c **** 
1057:Drivers/lvgl/src/widgets/lv_table.c **** /* Copy txt into dst skipping the format byte */
1058:Drivers/lvgl/src/widgets/lv_table.c **** static void copy_cell_txt(lv_table_cell_t * dst, const char * txt)
1059:Drivers/lvgl/src/widgets/lv_table.c **** {
1060:Drivers/lvgl/src/widgets/lv_table.c **** #if LV_USE_ARABIC_PERSIAN_CHARS
1061:Drivers/lvgl/src/widgets/lv_table.c ****     _lv_txt_ap_proc(txt, dst->txt);
1062:Drivers/lvgl/src/widgets/lv_table.c **** #else
1063:Drivers/lvgl/src/widgets/lv_table.c ****     strcpy(dst->txt, txt);
1064:Drivers/lvgl/src/widgets/lv_table.c **** #endif
1065:Drivers/lvgl/src/widgets/lv_table.c **** }
1066:Drivers/lvgl/src/widgets/lv_table.c **** 
1067:Drivers/lvgl/src/widgets/lv_table.c **** static void get_cell_area(lv_obj_t * obj, uint16_t row, uint16_t col, lv_area_t * area)
1068:Drivers/lvgl/src/widgets/lv_table.c **** {
 364              		.loc 1 1068 1 is_stmt 1 view -0
 365              		.cfi_startproc
 366              		@ args = 0, pretend = 0, frame = 0
 367              		@ frame_needed = 0, uses_anonymous_args = 0
1069:Drivers/lvgl/src/widgets/lv_table.c ****     lv_table_t * table = (lv_table_t *)obj;
 368              		.loc 1 1069 5 view .LVU109
1070:Drivers/lvgl/src/widgets/lv_table.c **** 
1071:Drivers/lvgl/src/widgets/lv_table.c ****     uint32_t c;
1072:Drivers/lvgl/src/widgets/lv_table.c ****     area->x1 = 0;
 369              		.loc 1 1072 14 is_stmt 0 view .LVU110
 370 0000 4FF0000C 		mov	ip, #0
1068:Drivers/lvgl/src/widgets/lv_table.c ****     lv_table_t * table = (lv_table_t *)obj;
 371              		.loc 1 1068 1 view .LVU111
ARM GAS  /var/folders/lp/x54gwt890xv47sdkqj1k04q40000gn/T//ccn9ZgyV.s 			page 30


 372 0004 2DE9F843 		push	{r3, r4, r5, r6, r7, r8, r9, lr}
 373              		.cfi_def_cfa_offset 32
 374              		.cfi_offset 3, -32
 375              		.cfi_offset 4, -28
 376              		.cfi_offset 5, -24
 377              		.cfi_offset 6, -20
 378              		.cfi_offset 7, -16
 379              		.cfi_offset 8, -12
 380              		.cfi_offset 9, -8
 381              		.cfi_offset 14, -4
1068:Drivers/lvgl/src/widgets/lv_table.c ****     lv_table_t * table = (lv_table_t *)obj;
 382              		.loc 1 1068 1 view .LVU112
 383 0008 1C46     		mov	r4, r3
 384 000a 0546     		mov	r5, r0
 385              	.LVL41:
1071:Drivers/lvgl/src/widgets/lv_table.c ****     area->x1 = 0;
 386              		.loc 1 1071 5 is_stmt 1 view .LVU113
 387              		.loc 1 1072 5 view .LVU114
1068:Drivers/lvgl/src/widgets/lv_table.c ****     lv_table_t * table = (lv_table_t *)obj;
 388              		.loc 1 1068 1 is_stmt 0 view .LVU115
 389 000c 0E46     		mov	r6, r1
 390              		.loc 1 1072 14 view .LVU116
 391 000e A3F800C0 		strh	ip, [r3]	@ movhi
1073:Drivers/lvgl/src/widgets/lv_table.c ****     for(c = 0; c < col; c++) {
 392              		.loc 1 1073 5 is_stmt 1 view .LVU117
 393              	.LVL42:
 394              		.loc 1 1073 18 discriminator 1 view .LVU118
 395 0012 1746     		mov	r7, r2
 396 0014 5AB1     		cbz	r2, .L30
 397 0016 036B     		ldr	r3, [r0, #48]
 398              	.LVL43:
 399              		.loc 1 1073 18 is_stmt 0 discriminator 1 view .LVU119
 400 0018 5700     		lsls	r7, r2, #1
 401 001a FA18     		adds	r2, r7, r3
 402              	.LVL44:
 403              	.L31:
1074:Drivers/lvgl/src/widgets/lv_table.c ****         area->x1 += table->col_w[c];
 404              		.loc 1 1074 9 is_stmt 1 view .LVU120
 405              		.loc 1 1074 33 is_stmt 0 view .LVU121
 406 001c 33F9021B 		ldrsh	r1, [r3], #2
 407              		.loc 1 1074 18 view .LVU122
 408 0020 8C44     		add	ip, ip, r1
 409 0022 0FFA8CFC 		sxth	ip, ip
1073:Drivers/lvgl/src/widgets/lv_table.c ****     for(c = 0; c < col; c++) {
 410              		.loc 1 1073 18 discriminator 1 view .LVU123
 411 0026 9342     		cmp	r3, r2
 412              		.loc 1 1074 18 view .LVU124
 413 0028 A4F800C0 		strh	ip, [r4]	@ movhi
1073:Drivers/lvgl/src/widgets/lv_table.c ****     for(c = 0; c < col; c++) {
 414              		.loc 1 1073 26 is_stmt 1 discriminator 3 view .LVU125
1073:Drivers/lvgl/src/widgets/lv_table.c ****     for(c = 0; c < col; c++) {
 415              		.loc 1 1073 18 discriminator 1 view .LVU126
 416 002c F6D1     		bne	.L31
 417              	.L30:
1075:Drivers/lvgl/src/widgets/lv_table.c ****     }
1076:Drivers/lvgl/src/widgets/lv_table.c **** 
1077:Drivers/lvgl/src/widgets/lv_table.c ****     bool rtl = lv_obj_get_style_base_dir(obj, LV_PART_MAIN) == LV_BASE_DIR_RTL;
ARM GAS  /var/folders/lp/x54gwt890xv47sdkqj1k04q40000gn/T//ccn9ZgyV.s 			page 31


 418              		.loc 1 1077 5 view .LVU127
 419              	.LVL45:
 420              	.LBB142:
 421              	.LBI142:
 422              		.file 3 "Drivers/lvgl/src/widgets/../core/lv_obj_style_gen.h"
   1:Drivers/lvgl/src/widgets/../core/lv_obj_style_gen.h **** static inline lv_coord_t lv_obj_get_style_width(const struct _lv_obj_t * obj, uint32_t part)
   2:Drivers/lvgl/src/widgets/../core/lv_obj_style_gen.h **** {
   3:Drivers/lvgl/src/widgets/../core/lv_obj_style_gen.h ****     lv_style_value_t v = lv_obj_get_style_prop(obj, part, LV_STYLE_WIDTH);
   4:Drivers/lvgl/src/widgets/../core/lv_obj_style_gen.h ****     return (lv_coord_t)v.num;
   5:Drivers/lvgl/src/widgets/../core/lv_obj_style_gen.h **** }
   6:Drivers/lvgl/src/widgets/../core/lv_obj_style_gen.h **** 
   7:Drivers/lvgl/src/widgets/../core/lv_obj_style_gen.h **** static inline lv_coord_t lv_obj_get_style_min_width(const struct _lv_obj_t * obj, uint32_t part)
   8:Drivers/lvgl/src/widgets/../core/lv_obj_style_gen.h **** {
   9:Drivers/lvgl/src/widgets/../core/lv_obj_style_gen.h ****     lv_style_value_t v = lv_obj_get_style_prop(obj, part, LV_STYLE_MIN_WIDTH);
  10:Drivers/lvgl/src/widgets/../core/lv_obj_style_gen.h ****     return (lv_coord_t)v.num;
  11:Drivers/lvgl/src/widgets/../core/lv_obj_style_gen.h **** }
  12:Drivers/lvgl/src/widgets/../core/lv_obj_style_gen.h **** 
  13:Drivers/lvgl/src/widgets/../core/lv_obj_style_gen.h **** static inline lv_coord_t lv_obj_get_style_max_width(const struct _lv_obj_t * obj, uint32_t part)
  14:Drivers/lvgl/src/widgets/../core/lv_obj_style_gen.h **** {
  15:Drivers/lvgl/src/widgets/../core/lv_obj_style_gen.h ****     lv_style_value_t v = lv_obj_get_style_prop(obj, part, LV_STYLE_MAX_WIDTH);
  16:Drivers/lvgl/src/widgets/../core/lv_obj_style_gen.h ****     return (lv_coord_t)v.num;
  17:Drivers/lvgl/src/widgets/../core/lv_obj_style_gen.h **** }
  18:Drivers/lvgl/src/widgets/../core/lv_obj_style_gen.h **** 
  19:Drivers/lvgl/src/widgets/../core/lv_obj_style_gen.h **** static inline lv_coord_t lv_obj_get_style_height(const struct _lv_obj_t * obj, uint32_t part)
  20:Drivers/lvgl/src/widgets/../core/lv_obj_style_gen.h **** {
  21:Drivers/lvgl/src/widgets/../core/lv_obj_style_gen.h ****     lv_style_value_t v = lv_obj_get_style_prop(obj, part, LV_STYLE_HEIGHT);
  22:Drivers/lvgl/src/widgets/../core/lv_obj_style_gen.h ****     return (lv_coord_t)v.num;
  23:Drivers/lvgl/src/widgets/../core/lv_obj_style_gen.h **** }
  24:Drivers/lvgl/src/widgets/../core/lv_obj_style_gen.h **** 
  25:Drivers/lvgl/src/widgets/../core/lv_obj_style_gen.h **** static inline lv_coord_t lv_obj_get_style_min_height(const struct _lv_obj_t * obj, uint32_t part)
  26:Drivers/lvgl/src/widgets/../core/lv_obj_style_gen.h **** {
  27:Drivers/lvgl/src/widgets/../core/lv_obj_style_gen.h ****     lv_style_value_t v = lv_obj_get_style_prop(obj, part, LV_STYLE_MIN_HEIGHT);
  28:Drivers/lvgl/src/widgets/../core/lv_obj_style_gen.h ****     return (lv_coord_t)v.num;
  29:Drivers/lvgl/src/widgets/../core/lv_obj_style_gen.h **** }
  30:Drivers/lvgl/src/widgets/../core/lv_obj_style_gen.h **** 
  31:Drivers/lvgl/src/widgets/../core/lv_obj_style_gen.h **** static inline lv_coord_t lv_obj_get_style_max_height(const struct _lv_obj_t * obj, uint32_t part)
  32:Drivers/lvgl/src/widgets/../core/lv_obj_style_gen.h **** {
  33:Drivers/lvgl/src/widgets/../core/lv_obj_style_gen.h ****     lv_style_value_t v = lv_obj_get_style_prop(obj, part, LV_STYLE_MAX_HEIGHT);
  34:Drivers/lvgl/src/widgets/../core/lv_obj_style_gen.h ****     return (lv_coord_t)v.num;
  35:Drivers/lvgl/src/widgets/../core/lv_obj_style_gen.h **** }
  36:Drivers/lvgl/src/widgets/../core/lv_obj_style_gen.h **** 
  37:Drivers/lvgl/src/widgets/../core/lv_obj_style_gen.h **** static inline lv_coord_t lv_obj_get_style_x(const struct _lv_obj_t * obj, uint32_t part)
  38:Drivers/lvgl/src/widgets/../core/lv_obj_style_gen.h **** {
  39:Drivers/lvgl/src/widgets/../core/lv_obj_style_gen.h ****     lv_style_value_t v = lv_obj_get_style_prop(obj, part, LV_STYLE_X);
  40:Drivers/lvgl/src/widgets/../core/lv_obj_style_gen.h ****     return (lv_coord_t)v.num;
  41:Drivers/lvgl/src/widgets/../core/lv_obj_style_gen.h **** }
  42:Drivers/lvgl/src/widgets/../core/lv_obj_style_gen.h **** 
  43:Drivers/lvgl/src/widgets/../core/lv_obj_style_gen.h **** static inline lv_coord_t lv_obj_get_style_y(const struct _lv_obj_t * obj, uint32_t part)
  44:Drivers/lvgl/src/widgets/../core/lv_obj_style_gen.h **** {
  45:Drivers/lvgl/src/widgets/../core/lv_obj_style_gen.h ****     lv_style_value_t v = lv_obj_get_style_prop(obj, part, LV_STYLE_Y);
  46:Drivers/lvgl/src/widgets/../core/lv_obj_style_gen.h ****     return (lv_coord_t)v.num;
  47:Drivers/lvgl/src/widgets/../core/lv_obj_style_gen.h **** }
  48:Drivers/lvgl/src/widgets/../core/lv_obj_style_gen.h **** 
  49:Drivers/lvgl/src/widgets/../core/lv_obj_style_gen.h **** static inline lv_align_t lv_obj_get_style_align(const struct _lv_obj_t * obj, uint32_t part)
  50:Drivers/lvgl/src/widgets/../core/lv_obj_style_gen.h **** {
  51:Drivers/lvgl/src/widgets/../core/lv_obj_style_gen.h ****     lv_style_value_t v = lv_obj_get_style_prop(obj, part, LV_STYLE_ALIGN);
  52:Drivers/lvgl/src/widgets/../core/lv_obj_style_gen.h ****     return (lv_align_t)v.num;
ARM GAS  /var/folders/lp/x54gwt890xv47sdkqj1k04q40000gn/T//ccn9ZgyV.s 			page 32


  53:Drivers/lvgl/src/widgets/../core/lv_obj_style_gen.h **** }
  54:Drivers/lvgl/src/widgets/../core/lv_obj_style_gen.h **** 
  55:Drivers/lvgl/src/widgets/../core/lv_obj_style_gen.h **** static inline lv_coord_t lv_obj_get_style_transform_width(const struct _lv_obj_t * obj, uint32_t pa
  56:Drivers/lvgl/src/widgets/../core/lv_obj_style_gen.h **** {
  57:Drivers/lvgl/src/widgets/../core/lv_obj_style_gen.h ****     lv_style_value_t v = lv_obj_get_style_prop(obj, part, LV_STYLE_TRANSFORM_WIDTH);
  58:Drivers/lvgl/src/widgets/../core/lv_obj_style_gen.h ****     return (lv_coord_t)v.num;
  59:Drivers/lvgl/src/widgets/../core/lv_obj_style_gen.h **** }
  60:Drivers/lvgl/src/widgets/../core/lv_obj_style_gen.h **** 
  61:Drivers/lvgl/src/widgets/../core/lv_obj_style_gen.h **** static inline lv_coord_t lv_obj_get_style_transform_height(const struct _lv_obj_t * obj, uint32_t p
  62:Drivers/lvgl/src/widgets/../core/lv_obj_style_gen.h **** {
  63:Drivers/lvgl/src/widgets/../core/lv_obj_style_gen.h ****     lv_style_value_t v = lv_obj_get_style_prop(obj, part, LV_STYLE_TRANSFORM_HEIGHT);
  64:Drivers/lvgl/src/widgets/../core/lv_obj_style_gen.h ****     return (lv_coord_t)v.num;
  65:Drivers/lvgl/src/widgets/../core/lv_obj_style_gen.h **** }
  66:Drivers/lvgl/src/widgets/../core/lv_obj_style_gen.h **** 
  67:Drivers/lvgl/src/widgets/../core/lv_obj_style_gen.h **** static inline lv_coord_t lv_obj_get_style_translate_x(const struct _lv_obj_t * obj, uint32_t part)
  68:Drivers/lvgl/src/widgets/../core/lv_obj_style_gen.h **** {
  69:Drivers/lvgl/src/widgets/../core/lv_obj_style_gen.h ****     lv_style_value_t v = lv_obj_get_style_prop(obj, part, LV_STYLE_TRANSLATE_X);
  70:Drivers/lvgl/src/widgets/../core/lv_obj_style_gen.h ****     return (lv_coord_t)v.num;
  71:Drivers/lvgl/src/widgets/../core/lv_obj_style_gen.h **** }
  72:Drivers/lvgl/src/widgets/../core/lv_obj_style_gen.h **** 
  73:Drivers/lvgl/src/widgets/../core/lv_obj_style_gen.h **** static inline lv_coord_t lv_obj_get_style_translate_y(const struct _lv_obj_t * obj, uint32_t part)
  74:Drivers/lvgl/src/widgets/../core/lv_obj_style_gen.h **** {
  75:Drivers/lvgl/src/widgets/../core/lv_obj_style_gen.h ****     lv_style_value_t v = lv_obj_get_style_prop(obj, part, LV_STYLE_TRANSLATE_Y);
  76:Drivers/lvgl/src/widgets/../core/lv_obj_style_gen.h ****     return (lv_coord_t)v.num;
  77:Drivers/lvgl/src/widgets/../core/lv_obj_style_gen.h **** }
  78:Drivers/lvgl/src/widgets/../core/lv_obj_style_gen.h **** 
  79:Drivers/lvgl/src/widgets/../core/lv_obj_style_gen.h **** static inline lv_coord_t lv_obj_get_style_transform_zoom(const struct _lv_obj_t * obj, uint32_t par
  80:Drivers/lvgl/src/widgets/../core/lv_obj_style_gen.h **** {
  81:Drivers/lvgl/src/widgets/../core/lv_obj_style_gen.h ****     lv_style_value_t v = lv_obj_get_style_prop(obj, part, LV_STYLE_TRANSFORM_ZOOM);
  82:Drivers/lvgl/src/widgets/../core/lv_obj_style_gen.h ****     return (lv_coord_t)v.num;
  83:Drivers/lvgl/src/widgets/../core/lv_obj_style_gen.h **** }
  84:Drivers/lvgl/src/widgets/../core/lv_obj_style_gen.h **** 
  85:Drivers/lvgl/src/widgets/../core/lv_obj_style_gen.h **** static inline lv_coord_t lv_obj_get_style_transform_angle(const struct _lv_obj_t * obj, uint32_t pa
  86:Drivers/lvgl/src/widgets/../core/lv_obj_style_gen.h **** {
  87:Drivers/lvgl/src/widgets/../core/lv_obj_style_gen.h ****     lv_style_value_t v = lv_obj_get_style_prop(obj, part, LV_STYLE_TRANSFORM_ANGLE);
  88:Drivers/lvgl/src/widgets/../core/lv_obj_style_gen.h ****     return (lv_coord_t)v.num;
  89:Drivers/lvgl/src/widgets/../core/lv_obj_style_gen.h **** }
  90:Drivers/lvgl/src/widgets/../core/lv_obj_style_gen.h **** 
  91:Drivers/lvgl/src/widgets/../core/lv_obj_style_gen.h **** static inline lv_coord_t lv_obj_get_style_transform_pivot_x(const struct _lv_obj_t * obj, uint32_t 
  92:Drivers/lvgl/src/widgets/../core/lv_obj_style_gen.h **** {
  93:Drivers/lvgl/src/widgets/../core/lv_obj_style_gen.h ****     lv_style_value_t v = lv_obj_get_style_prop(obj, part, LV_STYLE_TRANSFORM_PIVOT_X);
  94:Drivers/lvgl/src/widgets/../core/lv_obj_style_gen.h ****     return (lv_coord_t)v.num;
  95:Drivers/lvgl/src/widgets/../core/lv_obj_style_gen.h **** }
  96:Drivers/lvgl/src/widgets/../core/lv_obj_style_gen.h **** 
  97:Drivers/lvgl/src/widgets/../core/lv_obj_style_gen.h **** static inline lv_coord_t lv_obj_get_style_transform_pivot_y(const struct _lv_obj_t * obj, uint32_t 
  98:Drivers/lvgl/src/widgets/../core/lv_obj_style_gen.h **** {
  99:Drivers/lvgl/src/widgets/../core/lv_obj_style_gen.h ****     lv_style_value_t v = lv_obj_get_style_prop(obj, part, LV_STYLE_TRANSFORM_PIVOT_Y);
 100:Drivers/lvgl/src/widgets/../core/lv_obj_style_gen.h ****     return (lv_coord_t)v.num;
 101:Drivers/lvgl/src/widgets/../core/lv_obj_style_gen.h **** }
 102:Drivers/lvgl/src/widgets/../core/lv_obj_style_gen.h **** 
 103:Drivers/lvgl/src/widgets/../core/lv_obj_style_gen.h **** static inline lv_coord_t lv_obj_get_style_pad_top(const struct _lv_obj_t * obj, uint32_t part)
 104:Drivers/lvgl/src/widgets/../core/lv_obj_style_gen.h **** {
 105:Drivers/lvgl/src/widgets/../core/lv_obj_style_gen.h ****     lv_style_value_t v = lv_obj_get_style_prop(obj, part, LV_STYLE_PAD_TOP);
 106:Drivers/lvgl/src/widgets/../core/lv_obj_style_gen.h ****     return (lv_coord_t)v.num;
 107:Drivers/lvgl/src/widgets/../core/lv_obj_style_gen.h **** }
 108:Drivers/lvgl/src/widgets/../core/lv_obj_style_gen.h **** 
 109:Drivers/lvgl/src/widgets/../core/lv_obj_style_gen.h **** static inline lv_coord_t lv_obj_get_style_pad_bottom(const struct _lv_obj_t * obj, uint32_t part)
ARM GAS  /var/folders/lp/x54gwt890xv47sdkqj1k04q40000gn/T//ccn9ZgyV.s 			page 33


 110:Drivers/lvgl/src/widgets/../core/lv_obj_style_gen.h **** {
 111:Drivers/lvgl/src/widgets/../core/lv_obj_style_gen.h ****     lv_style_value_t v = lv_obj_get_style_prop(obj, part, LV_STYLE_PAD_BOTTOM);
 112:Drivers/lvgl/src/widgets/../core/lv_obj_style_gen.h ****     return (lv_coord_t)v.num;
 113:Drivers/lvgl/src/widgets/../core/lv_obj_style_gen.h **** }
 114:Drivers/lvgl/src/widgets/../core/lv_obj_style_gen.h **** 
 115:Drivers/lvgl/src/widgets/../core/lv_obj_style_gen.h **** static inline lv_coord_t lv_obj_get_style_pad_left(const struct _lv_obj_t * obj, uint32_t part)
 116:Drivers/lvgl/src/widgets/../core/lv_obj_style_gen.h **** {
 117:Drivers/lvgl/src/widgets/../core/lv_obj_style_gen.h ****     lv_style_value_t v = lv_obj_get_style_prop(obj, part, LV_STYLE_PAD_LEFT);
 118:Drivers/lvgl/src/widgets/../core/lv_obj_style_gen.h ****     return (lv_coord_t)v.num;
 119:Drivers/lvgl/src/widgets/../core/lv_obj_style_gen.h **** }
 120:Drivers/lvgl/src/widgets/../core/lv_obj_style_gen.h **** 
 121:Drivers/lvgl/src/widgets/../core/lv_obj_style_gen.h **** static inline lv_coord_t lv_obj_get_style_pad_right(const struct _lv_obj_t * obj, uint32_t part)
 122:Drivers/lvgl/src/widgets/../core/lv_obj_style_gen.h **** {
 123:Drivers/lvgl/src/widgets/../core/lv_obj_style_gen.h ****     lv_style_value_t v = lv_obj_get_style_prop(obj, part, LV_STYLE_PAD_RIGHT);
 124:Drivers/lvgl/src/widgets/../core/lv_obj_style_gen.h ****     return (lv_coord_t)v.num;
 125:Drivers/lvgl/src/widgets/../core/lv_obj_style_gen.h **** }
 126:Drivers/lvgl/src/widgets/../core/lv_obj_style_gen.h **** 
 127:Drivers/lvgl/src/widgets/../core/lv_obj_style_gen.h **** static inline lv_coord_t lv_obj_get_style_pad_row(const struct _lv_obj_t * obj, uint32_t part)
 128:Drivers/lvgl/src/widgets/../core/lv_obj_style_gen.h **** {
 129:Drivers/lvgl/src/widgets/../core/lv_obj_style_gen.h ****     lv_style_value_t v = lv_obj_get_style_prop(obj, part, LV_STYLE_PAD_ROW);
 130:Drivers/lvgl/src/widgets/../core/lv_obj_style_gen.h ****     return (lv_coord_t)v.num;
 131:Drivers/lvgl/src/widgets/../core/lv_obj_style_gen.h **** }
 132:Drivers/lvgl/src/widgets/../core/lv_obj_style_gen.h **** 
 133:Drivers/lvgl/src/widgets/../core/lv_obj_style_gen.h **** static inline lv_coord_t lv_obj_get_style_pad_column(const struct _lv_obj_t * obj, uint32_t part)
 134:Drivers/lvgl/src/widgets/../core/lv_obj_style_gen.h **** {
 135:Drivers/lvgl/src/widgets/../core/lv_obj_style_gen.h ****     lv_style_value_t v = lv_obj_get_style_prop(obj, part, LV_STYLE_PAD_COLUMN);
 136:Drivers/lvgl/src/widgets/../core/lv_obj_style_gen.h ****     return (lv_coord_t)v.num;
 137:Drivers/lvgl/src/widgets/../core/lv_obj_style_gen.h **** }
 138:Drivers/lvgl/src/widgets/../core/lv_obj_style_gen.h **** 
 139:Drivers/lvgl/src/widgets/../core/lv_obj_style_gen.h **** static inline lv_color_t lv_obj_get_style_bg_color(const struct _lv_obj_t * obj, uint32_t part)
 140:Drivers/lvgl/src/widgets/../core/lv_obj_style_gen.h **** {
 141:Drivers/lvgl/src/widgets/../core/lv_obj_style_gen.h ****     lv_style_value_t v = lv_obj_get_style_prop(obj, part, LV_STYLE_BG_COLOR);
 142:Drivers/lvgl/src/widgets/../core/lv_obj_style_gen.h ****     return v.color;
 143:Drivers/lvgl/src/widgets/../core/lv_obj_style_gen.h **** }
 144:Drivers/lvgl/src/widgets/../core/lv_obj_style_gen.h **** 
 145:Drivers/lvgl/src/widgets/../core/lv_obj_style_gen.h **** static inline lv_color_t lv_obj_get_style_bg_color_filtered(const struct _lv_obj_t * obj, uint32_t 
 146:Drivers/lvgl/src/widgets/../core/lv_obj_style_gen.h **** {
 147:Drivers/lvgl/src/widgets/../core/lv_obj_style_gen.h ****     lv_style_value_t v = _lv_obj_style_apply_color_filter(obj, part, lv_obj_get_style_prop(obj, par
 148:Drivers/lvgl/src/widgets/../core/lv_obj_style_gen.h ****     return v.color;
 149:Drivers/lvgl/src/widgets/../core/lv_obj_style_gen.h **** }
 150:Drivers/lvgl/src/widgets/../core/lv_obj_style_gen.h **** 
 151:Drivers/lvgl/src/widgets/../core/lv_obj_style_gen.h **** static inline lv_opa_t lv_obj_get_style_bg_opa(const struct _lv_obj_t * obj, uint32_t part)
 152:Drivers/lvgl/src/widgets/../core/lv_obj_style_gen.h **** {
 153:Drivers/lvgl/src/widgets/../core/lv_obj_style_gen.h ****     lv_style_value_t v = lv_obj_get_style_prop(obj, part, LV_STYLE_BG_OPA);
 154:Drivers/lvgl/src/widgets/../core/lv_obj_style_gen.h ****     return (lv_opa_t)v.num;
 155:Drivers/lvgl/src/widgets/../core/lv_obj_style_gen.h **** }
 156:Drivers/lvgl/src/widgets/../core/lv_obj_style_gen.h **** 
 157:Drivers/lvgl/src/widgets/../core/lv_obj_style_gen.h **** static inline lv_color_t lv_obj_get_style_bg_grad_color(const struct _lv_obj_t * obj, uint32_t part
 158:Drivers/lvgl/src/widgets/../core/lv_obj_style_gen.h **** {
 159:Drivers/lvgl/src/widgets/../core/lv_obj_style_gen.h ****     lv_style_value_t v = lv_obj_get_style_prop(obj, part, LV_STYLE_BG_GRAD_COLOR);
 160:Drivers/lvgl/src/widgets/../core/lv_obj_style_gen.h ****     return v.color;
 161:Drivers/lvgl/src/widgets/../core/lv_obj_style_gen.h **** }
 162:Drivers/lvgl/src/widgets/../core/lv_obj_style_gen.h **** 
 163:Drivers/lvgl/src/widgets/../core/lv_obj_style_gen.h **** static inline lv_color_t lv_obj_get_style_bg_grad_color_filtered(const struct _lv_obj_t * obj, uint
 164:Drivers/lvgl/src/widgets/../core/lv_obj_style_gen.h **** {
 165:Drivers/lvgl/src/widgets/../core/lv_obj_style_gen.h ****     lv_style_value_t v = _lv_obj_style_apply_color_filter(obj, part, lv_obj_get_style_prop(obj, par
 166:Drivers/lvgl/src/widgets/../core/lv_obj_style_gen.h ****     return v.color;
ARM GAS  /var/folders/lp/x54gwt890xv47sdkqj1k04q40000gn/T//ccn9ZgyV.s 			page 34


 167:Drivers/lvgl/src/widgets/../core/lv_obj_style_gen.h **** }
 168:Drivers/lvgl/src/widgets/../core/lv_obj_style_gen.h **** 
 169:Drivers/lvgl/src/widgets/../core/lv_obj_style_gen.h **** static inline lv_grad_dir_t lv_obj_get_style_bg_grad_dir(const struct _lv_obj_t * obj, uint32_t par
 170:Drivers/lvgl/src/widgets/../core/lv_obj_style_gen.h **** {
 171:Drivers/lvgl/src/widgets/../core/lv_obj_style_gen.h ****     lv_style_value_t v = lv_obj_get_style_prop(obj, part, LV_STYLE_BG_GRAD_DIR);
 172:Drivers/lvgl/src/widgets/../core/lv_obj_style_gen.h ****     return (lv_grad_dir_t)v.num;
 173:Drivers/lvgl/src/widgets/../core/lv_obj_style_gen.h **** }
 174:Drivers/lvgl/src/widgets/../core/lv_obj_style_gen.h **** 
 175:Drivers/lvgl/src/widgets/../core/lv_obj_style_gen.h **** static inline lv_coord_t lv_obj_get_style_bg_main_stop(const struct _lv_obj_t * obj, uint32_t part)
 176:Drivers/lvgl/src/widgets/../core/lv_obj_style_gen.h **** {
 177:Drivers/lvgl/src/widgets/../core/lv_obj_style_gen.h ****     lv_style_value_t v = lv_obj_get_style_prop(obj, part, LV_STYLE_BG_MAIN_STOP);
 178:Drivers/lvgl/src/widgets/../core/lv_obj_style_gen.h ****     return (lv_coord_t)v.num;
 179:Drivers/lvgl/src/widgets/../core/lv_obj_style_gen.h **** }
 180:Drivers/lvgl/src/widgets/../core/lv_obj_style_gen.h **** 
 181:Drivers/lvgl/src/widgets/../core/lv_obj_style_gen.h **** static inline lv_coord_t lv_obj_get_style_bg_grad_stop(const struct _lv_obj_t * obj, uint32_t part)
 182:Drivers/lvgl/src/widgets/../core/lv_obj_style_gen.h **** {
 183:Drivers/lvgl/src/widgets/../core/lv_obj_style_gen.h ****     lv_style_value_t v = lv_obj_get_style_prop(obj, part, LV_STYLE_BG_GRAD_STOP);
 184:Drivers/lvgl/src/widgets/../core/lv_obj_style_gen.h ****     return (lv_coord_t)v.num;
 185:Drivers/lvgl/src/widgets/../core/lv_obj_style_gen.h **** }
 186:Drivers/lvgl/src/widgets/../core/lv_obj_style_gen.h **** 
 187:Drivers/lvgl/src/widgets/../core/lv_obj_style_gen.h **** static inline const lv_grad_dsc_t * lv_obj_get_style_bg_grad(const struct _lv_obj_t * obj, uint32_t
 188:Drivers/lvgl/src/widgets/../core/lv_obj_style_gen.h **** {
 189:Drivers/lvgl/src/widgets/../core/lv_obj_style_gen.h ****     lv_style_value_t v = lv_obj_get_style_prop(obj, part, LV_STYLE_BG_GRAD);
 190:Drivers/lvgl/src/widgets/../core/lv_obj_style_gen.h ****     return (const lv_grad_dsc_t *)v.ptr;
 191:Drivers/lvgl/src/widgets/../core/lv_obj_style_gen.h **** }
 192:Drivers/lvgl/src/widgets/../core/lv_obj_style_gen.h **** 
 193:Drivers/lvgl/src/widgets/../core/lv_obj_style_gen.h **** static inline lv_dither_mode_t lv_obj_get_style_bg_dither_mode(const struct _lv_obj_t * obj, uint32
 194:Drivers/lvgl/src/widgets/../core/lv_obj_style_gen.h **** {
 195:Drivers/lvgl/src/widgets/../core/lv_obj_style_gen.h ****     lv_style_value_t v = lv_obj_get_style_prop(obj, part, LV_STYLE_BG_DITHER_MODE);
 196:Drivers/lvgl/src/widgets/../core/lv_obj_style_gen.h ****     return (lv_dither_mode_t)v.num;
 197:Drivers/lvgl/src/widgets/../core/lv_obj_style_gen.h **** }
 198:Drivers/lvgl/src/widgets/../core/lv_obj_style_gen.h **** 
 199:Drivers/lvgl/src/widgets/../core/lv_obj_style_gen.h **** static inline const void * lv_obj_get_style_bg_img_src(const struct _lv_obj_t * obj, uint32_t part)
 200:Drivers/lvgl/src/widgets/../core/lv_obj_style_gen.h **** {
 201:Drivers/lvgl/src/widgets/../core/lv_obj_style_gen.h ****     lv_style_value_t v = lv_obj_get_style_prop(obj, part, LV_STYLE_BG_IMG_SRC);
 202:Drivers/lvgl/src/widgets/../core/lv_obj_style_gen.h ****     return (const void *)v.ptr;
 203:Drivers/lvgl/src/widgets/../core/lv_obj_style_gen.h **** }
 204:Drivers/lvgl/src/widgets/../core/lv_obj_style_gen.h **** 
 205:Drivers/lvgl/src/widgets/../core/lv_obj_style_gen.h **** static inline lv_opa_t lv_obj_get_style_bg_img_opa(const struct _lv_obj_t * obj, uint32_t part)
 206:Drivers/lvgl/src/widgets/../core/lv_obj_style_gen.h **** {
 207:Drivers/lvgl/src/widgets/../core/lv_obj_style_gen.h ****     lv_style_value_t v = lv_obj_get_style_prop(obj, part, LV_STYLE_BG_IMG_OPA);
 208:Drivers/lvgl/src/widgets/../core/lv_obj_style_gen.h ****     return (lv_opa_t)v.num;
 209:Drivers/lvgl/src/widgets/../core/lv_obj_style_gen.h **** }
 210:Drivers/lvgl/src/widgets/../core/lv_obj_style_gen.h **** 
 211:Drivers/lvgl/src/widgets/../core/lv_obj_style_gen.h **** static inline lv_color_t lv_obj_get_style_bg_img_recolor(const struct _lv_obj_t * obj, uint32_t par
 212:Drivers/lvgl/src/widgets/../core/lv_obj_style_gen.h **** {
 213:Drivers/lvgl/src/widgets/../core/lv_obj_style_gen.h ****     lv_style_value_t v = lv_obj_get_style_prop(obj, part, LV_STYLE_BG_IMG_RECOLOR);
 214:Drivers/lvgl/src/widgets/../core/lv_obj_style_gen.h ****     return v.color;
 215:Drivers/lvgl/src/widgets/../core/lv_obj_style_gen.h **** }
 216:Drivers/lvgl/src/widgets/../core/lv_obj_style_gen.h **** 
 217:Drivers/lvgl/src/widgets/../core/lv_obj_style_gen.h **** static inline lv_color_t lv_obj_get_style_bg_img_recolor_filtered(const struct _lv_obj_t * obj, uin
 218:Drivers/lvgl/src/widgets/../core/lv_obj_style_gen.h **** {
 219:Drivers/lvgl/src/widgets/../core/lv_obj_style_gen.h ****     lv_style_value_t v = _lv_obj_style_apply_color_filter(obj, part, lv_obj_get_style_prop(obj, par
 220:Drivers/lvgl/src/widgets/../core/lv_obj_style_gen.h ****     return v.color;
 221:Drivers/lvgl/src/widgets/../core/lv_obj_style_gen.h **** }
 222:Drivers/lvgl/src/widgets/../core/lv_obj_style_gen.h **** 
 223:Drivers/lvgl/src/widgets/../core/lv_obj_style_gen.h **** static inline lv_opa_t lv_obj_get_style_bg_img_recolor_opa(const struct _lv_obj_t * obj, uint32_t p
ARM GAS  /var/folders/lp/x54gwt890xv47sdkqj1k04q40000gn/T//ccn9ZgyV.s 			page 35


 224:Drivers/lvgl/src/widgets/../core/lv_obj_style_gen.h **** {
 225:Drivers/lvgl/src/widgets/../core/lv_obj_style_gen.h ****     lv_style_value_t v = lv_obj_get_style_prop(obj, part, LV_STYLE_BG_IMG_RECOLOR_OPA);
 226:Drivers/lvgl/src/widgets/../core/lv_obj_style_gen.h ****     return (lv_opa_t)v.num;
 227:Drivers/lvgl/src/widgets/../core/lv_obj_style_gen.h **** }
 228:Drivers/lvgl/src/widgets/../core/lv_obj_style_gen.h **** 
 229:Drivers/lvgl/src/widgets/../core/lv_obj_style_gen.h **** static inline bool lv_obj_get_style_bg_img_tiled(const struct _lv_obj_t * obj, uint32_t part)
 230:Drivers/lvgl/src/widgets/../core/lv_obj_style_gen.h **** {
 231:Drivers/lvgl/src/widgets/../core/lv_obj_style_gen.h ****     lv_style_value_t v = lv_obj_get_style_prop(obj, part, LV_STYLE_BG_IMG_TILED);
 232:Drivers/lvgl/src/widgets/../core/lv_obj_style_gen.h ****     return (bool)v.num;
 233:Drivers/lvgl/src/widgets/../core/lv_obj_style_gen.h **** }
 234:Drivers/lvgl/src/widgets/../core/lv_obj_style_gen.h **** 
 235:Drivers/lvgl/src/widgets/../core/lv_obj_style_gen.h **** static inline lv_color_t lv_obj_get_style_border_color(const struct _lv_obj_t * obj, uint32_t part)
 236:Drivers/lvgl/src/widgets/../core/lv_obj_style_gen.h **** {
 237:Drivers/lvgl/src/widgets/../core/lv_obj_style_gen.h ****     lv_style_value_t v = lv_obj_get_style_prop(obj, part, LV_STYLE_BORDER_COLOR);
 238:Drivers/lvgl/src/widgets/../core/lv_obj_style_gen.h ****     return v.color;
 239:Drivers/lvgl/src/widgets/../core/lv_obj_style_gen.h **** }
 240:Drivers/lvgl/src/widgets/../core/lv_obj_style_gen.h **** 
 241:Drivers/lvgl/src/widgets/../core/lv_obj_style_gen.h **** static inline lv_color_t lv_obj_get_style_border_color_filtered(const struct _lv_obj_t * obj, uint3
 242:Drivers/lvgl/src/widgets/../core/lv_obj_style_gen.h **** {
 243:Drivers/lvgl/src/widgets/../core/lv_obj_style_gen.h ****     lv_style_value_t v = _lv_obj_style_apply_color_filter(obj, part, lv_obj_get_style_prop(obj, par
 244:Drivers/lvgl/src/widgets/../core/lv_obj_style_gen.h ****     return v.color;
 245:Drivers/lvgl/src/widgets/../core/lv_obj_style_gen.h **** }
 246:Drivers/lvgl/src/widgets/../core/lv_obj_style_gen.h **** 
 247:Drivers/lvgl/src/widgets/../core/lv_obj_style_gen.h **** static inline lv_opa_t lv_obj_get_style_border_opa(const struct _lv_obj_t * obj, uint32_t part)
 248:Drivers/lvgl/src/widgets/../core/lv_obj_style_gen.h **** {
 249:Drivers/lvgl/src/widgets/../core/lv_obj_style_gen.h ****     lv_style_value_t v = lv_obj_get_style_prop(obj, part, LV_STYLE_BORDER_OPA);
 250:Drivers/lvgl/src/widgets/../core/lv_obj_style_gen.h ****     return (lv_opa_t)v.num;
 251:Drivers/lvgl/src/widgets/../core/lv_obj_style_gen.h **** }
 252:Drivers/lvgl/src/widgets/../core/lv_obj_style_gen.h **** 
 253:Drivers/lvgl/src/widgets/../core/lv_obj_style_gen.h **** static inline lv_coord_t lv_obj_get_style_border_width(const struct _lv_obj_t * obj, uint32_t part)
 254:Drivers/lvgl/src/widgets/../core/lv_obj_style_gen.h **** {
 255:Drivers/lvgl/src/widgets/../core/lv_obj_style_gen.h ****     lv_style_value_t v = lv_obj_get_style_prop(obj, part, LV_STYLE_BORDER_WIDTH);
 256:Drivers/lvgl/src/widgets/../core/lv_obj_style_gen.h ****     return (lv_coord_t)v.num;
 257:Drivers/lvgl/src/widgets/../core/lv_obj_style_gen.h **** }
 258:Drivers/lvgl/src/widgets/../core/lv_obj_style_gen.h **** 
 259:Drivers/lvgl/src/widgets/../core/lv_obj_style_gen.h **** static inline lv_border_side_t lv_obj_get_style_border_side(const struct _lv_obj_t * obj, uint32_t 
 260:Drivers/lvgl/src/widgets/../core/lv_obj_style_gen.h **** {
 261:Drivers/lvgl/src/widgets/../core/lv_obj_style_gen.h ****     lv_style_value_t v = lv_obj_get_style_prop(obj, part, LV_STYLE_BORDER_SIDE);
 262:Drivers/lvgl/src/widgets/../core/lv_obj_style_gen.h ****     return (lv_border_side_t)v.num;
 263:Drivers/lvgl/src/widgets/../core/lv_obj_style_gen.h **** }
 264:Drivers/lvgl/src/widgets/../core/lv_obj_style_gen.h **** 
 265:Drivers/lvgl/src/widgets/../core/lv_obj_style_gen.h **** static inline bool lv_obj_get_style_border_post(const struct _lv_obj_t * obj, uint32_t part)
 266:Drivers/lvgl/src/widgets/../core/lv_obj_style_gen.h **** {
 267:Drivers/lvgl/src/widgets/../core/lv_obj_style_gen.h ****     lv_style_value_t v = lv_obj_get_style_prop(obj, part, LV_STYLE_BORDER_POST);
 268:Drivers/lvgl/src/widgets/../core/lv_obj_style_gen.h ****     return (bool)v.num;
 269:Drivers/lvgl/src/widgets/../core/lv_obj_style_gen.h **** }
 270:Drivers/lvgl/src/widgets/../core/lv_obj_style_gen.h **** 
 271:Drivers/lvgl/src/widgets/../core/lv_obj_style_gen.h **** static inline lv_coord_t lv_obj_get_style_outline_width(const struct _lv_obj_t * obj, uint32_t part
 272:Drivers/lvgl/src/widgets/../core/lv_obj_style_gen.h **** {
 273:Drivers/lvgl/src/widgets/../core/lv_obj_style_gen.h ****     lv_style_value_t v = lv_obj_get_style_prop(obj, part, LV_STYLE_OUTLINE_WIDTH);
 274:Drivers/lvgl/src/widgets/../core/lv_obj_style_gen.h ****     return (lv_coord_t)v.num;
 275:Drivers/lvgl/src/widgets/../core/lv_obj_style_gen.h **** }
 276:Drivers/lvgl/src/widgets/../core/lv_obj_style_gen.h **** 
 277:Drivers/lvgl/src/widgets/../core/lv_obj_style_gen.h **** static inline lv_color_t lv_obj_get_style_outline_color(const struct _lv_obj_t * obj, uint32_t part
 278:Drivers/lvgl/src/widgets/../core/lv_obj_style_gen.h **** {
 279:Drivers/lvgl/src/widgets/../core/lv_obj_style_gen.h ****     lv_style_value_t v = lv_obj_get_style_prop(obj, part, LV_STYLE_OUTLINE_COLOR);
 280:Drivers/lvgl/src/widgets/../core/lv_obj_style_gen.h ****     return v.color;
ARM GAS  /var/folders/lp/x54gwt890xv47sdkqj1k04q40000gn/T//ccn9ZgyV.s 			page 36


 281:Drivers/lvgl/src/widgets/../core/lv_obj_style_gen.h **** }
 282:Drivers/lvgl/src/widgets/../core/lv_obj_style_gen.h **** 
 283:Drivers/lvgl/src/widgets/../core/lv_obj_style_gen.h **** static inline lv_color_t lv_obj_get_style_outline_color_filtered(const struct _lv_obj_t * obj, uint
 284:Drivers/lvgl/src/widgets/../core/lv_obj_style_gen.h **** {
 285:Drivers/lvgl/src/widgets/../core/lv_obj_style_gen.h ****     lv_style_value_t v = _lv_obj_style_apply_color_filter(obj, part, lv_obj_get_style_prop(obj, par
 286:Drivers/lvgl/src/widgets/../core/lv_obj_style_gen.h ****     return v.color;
 287:Drivers/lvgl/src/widgets/../core/lv_obj_style_gen.h **** }
 288:Drivers/lvgl/src/widgets/../core/lv_obj_style_gen.h **** 
 289:Drivers/lvgl/src/widgets/../core/lv_obj_style_gen.h **** static inline lv_opa_t lv_obj_get_style_outline_opa(const struct _lv_obj_t * obj, uint32_t part)
 290:Drivers/lvgl/src/widgets/../core/lv_obj_style_gen.h **** {
 291:Drivers/lvgl/src/widgets/../core/lv_obj_style_gen.h ****     lv_style_value_t v = lv_obj_get_style_prop(obj, part, LV_STYLE_OUTLINE_OPA);
 292:Drivers/lvgl/src/widgets/../core/lv_obj_style_gen.h ****     return (lv_opa_t)v.num;
 293:Drivers/lvgl/src/widgets/../core/lv_obj_style_gen.h **** }
 294:Drivers/lvgl/src/widgets/../core/lv_obj_style_gen.h **** 
 295:Drivers/lvgl/src/widgets/../core/lv_obj_style_gen.h **** static inline lv_coord_t lv_obj_get_style_outline_pad(const struct _lv_obj_t * obj, uint32_t part)
 296:Drivers/lvgl/src/widgets/../core/lv_obj_style_gen.h **** {
 297:Drivers/lvgl/src/widgets/../core/lv_obj_style_gen.h ****     lv_style_value_t v = lv_obj_get_style_prop(obj, part, LV_STYLE_OUTLINE_PAD);
 298:Drivers/lvgl/src/widgets/../core/lv_obj_style_gen.h ****     return (lv_coord_t)v.num;
 299:Drivers/lvgl/src/widgets/../core/lv_obj_style_gen.h **** }
 300:Drivers/lvgl/src/widgets/../core/lv_obj_style_gen.h **** 
 301:Drivers/lvgl/src/widgets/../core/lv_obj_style_gen.h **** static inline lv_coord_t lv_obj_get_style_shadow_width(const struct _lv_obj_t * obj, uint32_t part)
 302:Drivers/lvgl/src/widgets/../core/lv_obj_style_gen.h **** {
 303:Drivers/lvgl/src/widgets/../core/lv_obj_style_gen.h ****     lv_style_value_t v = lv_obj_get_style_prop(obj, part, LV_STYLE_SHADOW_WIDTH);
 304:Drivers/lvgl/src/widgets/../core/lv_obj_style_gen.h ****     return (lv_coord_t)v.num;
 305:Drivers/lvgl/src/widgets/../core/lv_obj_style_gen.h **** }
 306:Drivers/lvgl/src/widgets/../core/lv_obj_style_gen.h **** 
 307:Drivers/lvgl/src/widgets/../core/lv_obj_style_gen.h **** static inline lv_coord_t lv_obj_get_style_shadow_ofs_x(const struct _lv_obj_t * obj, uint32_t part)
 308:Drivers/lvgl/src/widgets/../core/lv_obj_style_gen.h **** {
 309:Drivers/lvgl/src/widgets/../core/lv_obj_style_gen.h ****     lv_style_value_t v = lv_obj_get_style_prop(obj, part, LV_STYLE_SHADOW_OFS_X);
 310:Drivers/lvgl/src/widgets/../core/lv_obj_style_gen.h ****     return (lv_coord_t)v.num;
 311:Drivers/lvgl/src/widgets/../core/lv_obj_style_gen.h **** }
 312:Drivers/lvgl/src/widgets/../core/lv_obj_style_gen.h **** 
 313:Drivers/lvgl/src/widgets/../core/lv_obj_style_gen.h **** static inline lv_coord_t lv_obj_get_style_shadow_ofs_y(const struct _lv_obj_t * obj, uint32_t part)
 314:Drivers/lvgl/src/widgets/../core/lv_obj_style_gen.h **** {
 315:Drivers/lvgl/src/widgets/../core/lv_obj_style_gen.h ****     lv_style_value_t v = lv_obj_get_style_prop(obj, part, LV_STYLE_SHADOW_OFS_Y);
 316:Drivers/lvgl/src/widgets/../core/lv_obj_style_gen.h ****     return (lv_coord_t)v.num;
 317:Drivers/lvgl/src/widgets/../core/lv_obj_style_gen.h **** }
 318:Drivers/lvgl/src/widgets/../core/lv_obj_style_gen.h **** 
 319:Drivers/lvgl/src/widgets/../core/lv_obj_style_gen.h **** static inline lv_coord_t lv_obj_get_style_shadow_spread(const struct _lv_obj_t * obj, uint32_t part
 320:Drivers/lvgl/src/widgets/../core/lv_obj_style_gen.h **** {
 321:Drivers/lvgl/src/widgets/../core/lv_obj_style_gen.h ****     lv_style_value_t v = lv_obj_get_style_prop(obj, part, LV_STYLE_SHADOW_SPREAD);
 322:Drivers/lvgl/src/widgets/../core/lv_obj_style_gen.h ****     return (lv_coord_t)v.num;
 323:Drivers/lvgl/src/widgets/../core/lv_obj_style_gen.h **** }
 324:Drivers/lvgl/src/widgets/../core/lv_obj_style_gen.h **** 
 325:Drivers/lvgl/src/widgets/../core/lv_obj_style_gen.h **** static inline lv_color_t lv_obj_get_style_shadow_color(const struct _lv_obj_t * obj, uint32_t part)
 326:Drivers/lvgl/src/widgets/../core/lv_obj_style_gen.h **** {
 327:Drivers/lvgl/src/widgets/../core/lv_obj_style_gen.h ****     lv_style_value_t v = lv_obj_get_style_prop(obj, part, LV_STYLE_SHADOW_COLOR);
 328:Drivers/lvgl/src/widgets/../core/lv_obj_style_gen.h ****     return v.color;
 329:Drivers/lvgl/src/widgets/../core/lv_obj_style_gen.h **** }
 330:Drivers/lvgl/src/widgets/../core/lv_obj_style_gen.h **** 
 331:Drivers/lvgl/src/widgets/../core/lv_obj_style_gen.h **** static inline lv_color_t lv_obj_get_style_shadow_color_filtered(const struct _lv_obj_t * obj, uint3
 332:Drivers/lvgl/src/widgets/../core/lv_obj_style_gen.h **** {
 333:Drivers/lvgl/src/widgets/../core/lv_obj_style_gen.h ****     lv_style_value_t v = _lv_obj_style_apply_color_filter(obj, part, lv_obj_get_style_prop(obj, par
 334:Drivers/lvgl/src/widgets/../core/lv_obj_style_gen.h ****     return v.color;
 335:Drivers/lvgl/src/widgets/../core/lv_obj_style_gen.h **** }
 336:Drivers/lvgl/src/widgets/../core/lv_obj_style_gen.h **** 
 337:Drivers/lvgl/src/widgets/../core/lv_obj_style_gen.h **** static inline lv_opa_t lv_obj_get_style_shadow_opa(const struct _lv_obj_t * obj, uint32_t part)
ARM GAS  /var/folders/lp/x54gwt890xv47sdkqj1k04q40000gn/T//ccn9ZgyV.s 			page 37


 338:Drivers/lvgl/src/widgets/../core/lv_obj_style_gen.h **** {
 339:Drivers/lvgl/src/widgets/../core/lv_obj_style_gen.h ****     lv_style_value_t v = lv_obj_get_style_prop(obj, part, LV_STYLE_SHADOW_OPA);
 340:Drivers/lvgl/src/widgets/../core/lv_obj_style_gen.h ****     return (lv_opa_t)v.num;
 341:Drivers/lvgl/src/widgets/../core/lv_obj_style_gen.h **** }
 342:Drivers/lvgl/src/widgets/../core/lv_obj_style_gen.h **** 
 343:Drivers/lvgl/src/widgets/../core/lv_obj_style_gen.h **** static inline lv_opa_t lv_obj_get_style_img_opa(const struct _lv_obj_t * obj, uint32_t part)
 344:Drivers/lvgl/src/widgets/../core/lv_obj_style_gen.h **** {
 345:Drivers/lvgl/src/widgets/../core/lv_obj_style_gen.h ****     lv_style_value_t v = lv_obj_get_style_prop(obj, part, LV_STYLE_IMG_OPA);
 346:Drivers/lvgl/src/widgets/../core/lv_obj_style_gen.h ****     return (lv_opa_t)v.num;
 347:Drivers/lvgl/src/widgets/../core/lv_obj_style_gen.h **** }
 348:Drivers/lvgl/src/widgets/../core/lv_obj_style_gen.h **** 
 349:Drivers/lvgl/src/widgets/../core/lv_obj_style_gen.h **** static inline lv_color_t lv_obj_get_style_img_recolor(const struct _lv_obj_t * obj, uint32_t part)
 350:Drivers/lvgl/src/widgets/../core/lv_obj_style_gen.h **** {
 351:Drivers/lvgl/src/widgets/../core/lv_obj_style_gen.h ****     lv_style_value_t v = lv_obj_get_style_prop(obj, part, LV_STYLE_IMG_RECOLOR);
 352:Drivers/lvgl/src/widgets/../core/lv_obj_style_gen.h ****     return v.color;
 353:Drivers/lvgl/src/widgets/../core/lv_obj_style_gen.h **** }
 354:Drivers/lvgl/src/widgets/../core/lv_obj_style_gen.h **** 
 355:Drivers/lvgl/src/widgets/../core/lv_obj_style_gen.h **** static inline lv_color_t lv_obj_get_style_img_recolor_filtered(const struct _lv_obj_t * obj, uint32
 356:Drivers/lvgl/src/widgets/../core/lv_obj_style_gen.h **** {
 357:Drivers/lvgl/src/widgets/../core/lv_obj_style_gen.h ****     lv_style_value_t v = _lv_obj_style_apply_color_filter(obj, part, lv_obj_get_style_prop(obj, par
 358:Drivers/lvgl/src/widgets/../core/lv_obj_style_gen.h ****     return v.color;
 359:Drivers/lvgl/src/widgets/../core/lv_obj_style_gen.h **** }
 360:Drivers/lvgl/src/widgets/../core/lv_obj_style_gen.h **** 
 361:Drivers/lvgl/src/widgets/../core/lv_obj_style_gen.h **** static inline lv_opa_t lv_obj_get_style_img_recolor_opa(const struct _lv_obj_t * obj, uint32_t part
 362:Drivers/lvgl/src/widgets/../core/lv_obj_style_gen.h **** {
 363:Drivers/lvgl/src/widgets/../core/lv_obj_style_gen.h ****     lv_style_value_t v = lv_obj_get_style_prop(obj, part, LV_STYLE_IMG_RECOLOR_OPA);
 364:Drivers/lvgl/src/widgets/../core/lv_obj_style_gen.h ****     return (lv_opa_t)v.num;
 365:Drivers/lvgl/src/widgets/../core/lv_obj_style_gen.h **** }
 366:Drivers/lvgl/src/widgets/../core/lv_obj_style_gen.h **** 
 367:Drivers/lvgl/src/widgets/../core/lv_obj_style_gen.h **** static inline lv_coord_t lv_obj_get_style_line_width(const struct _lv_obj_t * obj, uint32_t part)
 368:Drivers/lvgl/src/widgets/../core/lv_obj_style_gen.h **** {
 369:Drivers/lvgl/src/widgets/../core/lv_obj_style_gen.h ****     lv_style_value_t v = lv_obj_get_style_prop(obj, part, LV_STYLE_LINE_WIDTH);
 370:Drivers/lvgl/src/widgets/../core/lv_obj_style_gen.h ****     return (lv_coord_t)v.num;
 371:Drivers/lvgl/src/widgets/../core/lv_obj_style_gen.h **** }
 372:Drivers/lvgl/src/widgets/../core/lv_obj_style_gen.h **** 
 373:Drivers/lvgl/src/widgets/../core/lv_obj_style_gen.h **** static inline lv_coord_t lv_obj_get_style_line_dash_width(const struct _lv_obj_t * obj, uint32_t pa
 374:Drivers/lvgl/src/widgets/../core/lv_obj_style_gen.h **** {
 375:Drivers/lvgl/src/widgets/../core/lv_obj_style_gen.h ****     lv_style_value_t v = lv_obj_get_style_prop(obj, part, LV_STYLE_LINE_DASH_WIDTH);
 376:Drivers/lvgl/src/widgets/../core/lv_obj_style_gen.h ****     return (lv_coord_t)v.num;
 377:Drivers/lvgl/src/widgets/../core/lv_obj_style_gen.h **** }
 378:Drivers/lvgl/src/widgets/../core/lv_obj_style_gen.h **** 
 379:Drivers/lvgl/src/widgets/../core/lv_obj_style_gen.h **** static inline lv_coord_t lv_obj_get_style_line_dash_gap(const struct _lv_obj_t * obj, uint32_t part
 380:Drivers/lvgl/src/widgets/../core/lv_obj_style_gen.h **** {
 381:Drivers/lvgl/src/widgets/../core/lv_obj_style_gen.h ****     lv_style_value_t v = lv_obj_get_style_prop(obj, part, LV_STYLE_LINE_DASH_GAP);
 382:Drivers/lvgl/src/widgets/../core/lv_obj_style_gen.h ****     return (lv_coord_t)v.num;
 383:Drivers/lvgl/src/widgets/../core/lv_obj_style_gen.h **** }
 384:Drivers/lvgl/src/widgets/../core/lv_obj_style_gen.h **** 
 385:Drivers/lvgl/src/widgets/../core/lv_obj_style_gen.h **** static inline bool lv_obj_get_style_line_rounded(const struct _lv_obj_t * obj, uint32_t part)
 386:Drivers/lvgl/src/widgets/../core/lv_obj_style_gen.h **** {
 387:Drivers/lvgl/src/widgets/../core/lv_obj_style_gen.h ****     lv_style_value_t v = lv_obj_get_style_prop(obj, part, LV_STYLE_LINE_ROUNDED);
 388:Drivers/lvgl/src/widgets/../core/lv_obj_style_gen.h ****     return (bool)v.num;
 389:Drivers/lvgl/src/widgets/../core/lv_obj_style_gen.h **** }
 390:Drivers/lvgl/src/widgets/../core/lv_obj_style_gen.h **** 
 391:Drivers/lvgl/src/widgets/../core/lv_obj_style_gen.h **** static inline lv_color_t lv_obj_get_style_line_color(const struct _lv_obj_t * obj, uint32_t part)
 392:Drivers/lvgl/src/widgets/../core/lv_obj_style_gen.h **** {
 393:Drivers/lvgl/src/widgets/../core/lv_obj_style_gen.h ****     lv_style_value_t v = lv_obj_get_style_prop(obj, part, LV_STYLE_LINE_COLOR);
 394:Drivers/lvgl/src/widgets/../core/lv_obj_style_gen.h ****     return v.color;
ARM GAS  /var/folders/lp/x54gwt890xv47sdkqj1k04q40000gn/T//ccn9ZgyV.s 			page 38


 395:Drivers/lvgl/src/widgets/../core/lv_obj_style_gen.h **** }
 396:Drivers/lvgl/src/widgets/../core/lv_obj_style_gen.h **** 
 397:Drivers/lvgl/src/widgets/../core/lv_obj_style_gen.h **** static inline lv_color_t lv_obj_get_style_line_color_filtered(const struct _lv_obj_t * obj, uint32_
 398:Drivers/lvgl/src/widgets/../core/lv_obj_style_gen.h **** {
 399:Drivers/lvgl/src/widgets/../core/lv_obj_style_gen.h ****     lv_style_value_t v = _lv_obj_style_apply_color_filter(obj, part, lv_obj_get_style_prop(obj, par
 400:Drivers/lvgl/src/widgets/../core/lv_obj_style_gen.h ****     return v.color;
 401:Drivers/lvgl/src/widgets/../core/lv_obj_style_gen.h **** }
 402:Drivers/lvgl/src/widgets/../core/lv_obj_style_gen.h **** 
 403:Drivers/lvgl/src/widgets/../core/lv_obj_style_gen.h **** static inline lv_opa_t lv_obj_get_style_line_opa(const struct _lv_obj_t * obj, uint32_t part)
 404:Drivers/lvgl/src/widgets/../core/lv_obj_style_gen.h **** {
 405:Drivers/lvgl/src/widgets/../core/lv_obj_style_gen.h ****     lv_style_value_t v = lv_obj_get_style_prop(obj, part, LV_STYLE_LINE_OPA);
 406:Drivers/lvgl/src/widgets/../core/lv_obj_style_gen.h ****     return (lv_opa_t)v.num;
 407:Drivers/lvgl/src/widgets/../core/lv_obj_style_gen.h **** }
 408:Drivers/lvgl/src/widgets/../core/lv_obj_style_gen.h **** 
 409:Drivers/lvgl/src/widgets/../core/lv_obj_style_gen.h **** static inline lv_coord_t lv_obj_get_style_arc_width(const struct _lv_obj_t * obj, uint32_t part)
 410:Drivers/lvgl/src/widgets/../core/lv_obj_style_gen.h **** {
 411:Drivers/lvgl/src/widgets/../core/lv_obj_style_gen.h ****     lv_style_value_t v = lv_obj_get_style_prop(obj, part, LV_STYLE_ARC_WIDTH);
 412:Drivers/lvgl/src/widgets/../core/lv_obj_style_gen.h ****     return (lv_coord_t)v.num;
 413:Drivers/lvgl/src/widgets/../core/lv_obj_style_gen.h **** }
 414:Drivers/lvgl/src/widgets/../core/lv_obj_style_gen.h **** 
 415:Drivers/lvgl/src/widgets/../core/lv_obj_style_gen.h **** static inline bool lv_obj_get_style_arc_rounded(const struct _lv_obj_t * obj, uint32_t part)
 416:Drivers/lvgl/src/widgets/../core/lv_obj_style_gen.h **** {
 417:Drivers/lvgl/src/widgets/../core/lv_obj_style_gen.h ****     lv_style_value_t v = lv_obj_get_style_prop(obj, part, LV_STYLE_ARC_ROUNDED);
 418:Drivers/lvgl/src/widgets/../core/lv_obj_style_gen.h ****     return (bool)v.num;
 419:Drivers/lvgl/src/widgets/../core/lv_obj_style_gen.h **** }
 420:Drivers/lvgl/src/widgets/../core/lv_obj_style_gen.h **** 
 421:Drivers/lvgl/src/widgets/../core/lv_obj_style_gen.h **** static inline lv_color_t lv_obj_get_style_arc_color(const struct _lv_obj_t * obj, uint32_t part)
 422:Drivers/lvgl/src/widgets/../core/lv_obj_style_gen.h **** {
 423:Drivers/lvgl/src/widgets/../core/lv_obj_style_gen.h ****     lv_style_value_t v = lv_obj_get_style_prop(obj, part, LV_STYLE_ARC_COLOR);
 424:Drivers/lvgl/src/widgets/../core/lv_obj_style_gen.h ****     return v.color;
 425:Drivers/lvgl/src/widgets/../core/lv_obj_style_gen.h **** }
 426:Drivers/lvgl/src/widgets/../core/lv_obj_style_gen.h **** 
 427:Drivers/lvgl/src/widgets/../core/lv_obj_style_gen.h **** static inline lv_color_t lv_obj_get_style_arc_color_filtered(const struct _lv_obj_t * obj, uint32_t
 428:Drivers/lvgl/src/widgets/../core/lv_obj_style_gen.h **** {
 429:Drivers/lvgl/src/widgets/../core/lv_obj_style_gen.h ****     lv_style_value_t v = _lv_obj_style_apply_color_filter(obj, part, lv_obj_get_style_prop(obj, par
 430:Drivers/lvgl/src/widgets/../core/lv_obj_style_gen.h ****     return v.color;
 431:Drivers/lvgl/src/widgets/../core/lv_obj_style_gen.h **** }
 432:Drivers/lvgl/src/widgets/../core/lv_obj_style_gen.h **** 
 433:Drivers/lvgl/src/widgets/../core/lv_obj_style_gen.h **** static inline lv_opa_t lv_obj_get_style_arc_opa(const struct _lv_obj_t * obj, uint32_t part)
 434:Drivers/lvgl/src/widgets/../core/lv_obj_style_gen.h **** {
 435:Drivers/lvgl/src/widgets/../core/lv_obj_style_gen.h ****     lv_style_value_t v = lv_obj_get_style_prop(obj, part, LV_STYLE_ARC_OPA);
 436:Drivers/lvgl/src/widgets/../core/lv_obj_style_gen.h ****     return (lv_opa_t)v.num;
 437:Drivers/lvgl/src/widgets/../core/lv_obj_style_gen.h **** }
 438:Drivers/lvgl/src/widgets/../core/lv_obj_style_gen.h **** 
 439:Drivers/lvgl/src/widgets/../core/lv_obj_style_gen.h **** static inline const void * lv_obj_get_style_arc_img_src(const struct _lv_obj_t * obj, uint32_t part
 440:Drivers/lvgl/src/widgets/../core/lv_obj_style_gen.h **** {
 441:Drivers/lvgl/src/widgets/../core/lv_obj_style_gen.h ****     lv_style_value_t v = lv_obj_get_style_prop(obj, part, LV_STYLE_ARC_IMG_SRC);
 442:Drivers/lvgl/src/widgets/../core/lv_obj_style_gen.h ****     return (const void *)v.ptr;
 443:Drivers/lvgl/src/widgets/../core/lv_obj_style_gen.h **** }
 444:Drivers/lvgl/src/widgets/../core/lv_obj_style_gen.h **** 
 445:Drivers/lvgl/src/widgets/../core/lv_obj_style_gen.h **** static inline lv_color_t lv_obj_get_style_text_color(const struct _lv_obj_t * obj, uint32_t part)
 446:Drivers/lvgl/src/widgets/../core/lv_obj_style_gen.h **** {
 447:Drivers/lvgl/src/widgets/../core/lv_obj_style_gen.h ****     lv_style_value_t v = lv_obj_get_style_prop(obj, part, LV_STYLE_TEXT_COLOR);
 448:Drivers/lvgl/src/widgets/../core/lv_obj_style_gen.h ****     return v.color;
 449:Drivers/lvgl/src/widgets/../core/lv_obj_style_gen.h **** }
 450:Drivers/lvgl/src/widgets/../core/lv_obj_style_gen.h **** 
 451:Drivers/lvgl/src/widgets/../core/lv_obj_style_gen.h **** static inline lv_color_t lv_obj_get_style_text_color_filtered(const struct _lv_obj_t * obj, uint32_
ARM GAS  /var/folders/lp/x54gwt890xv47sdkqj1k04q40000gn/T//ccn9ZgyV.s 			page 39


 452:Drivers/lvgl/src/widgets/../core/lv_obj_style_gen.h **** {
 453:Drivers/lvgl/src/widgets/../core/lv_obj_style_gen.h ****     lv_style_value_t v = _lv_obj_style_apply_color_filter(obj, part, lv_obj_get_style_prop(obj, par
 454:Drivers/lvgl/src/widgets/../core/lv_obj_style_gen.h ****     return v.color;
 455:Drivers/lvgl/src/widgets/../core/lv_obj_style_gen.h **** }
 456:Drivers/lvgl/src/widgets/../core/lv_obj_style_gen.h **** 
 457:Drivers/lvgl/src/widgets/../core/lv_obj_style_gen.h **** static inline lv_opa_t lv_obj_get_style_text_opa(const struct _lv_obj_t * obj, uint32_t part)
 458:Drivers/lvgl/src/widgets/../core/lv_obj_style_gen.h **** {
 459:Drivers/lvgl/src/widgets/../core/lv_obj_style_gen.h ****     lv_style_value_t v = lv_obj_get_style_prop(obj, part, LV_STYLE_TEXT_OPA);
 460:Drivers/lvgl/src/widgets/../core/lv_obj_style_gen.h ****     return (lv_opa_t)v.num;
 461:Drivers/lvgl/src/widgets/../core/lv_obj_style_gen.h **** }
 462:Drivers/lvgl/src/widgets/../core/lv_obj_style_gen.h **** 
 463:Drivers/lvgl/src/widgets/../core/lv_obj_style_gen.h **** static inline const lv_font_t * lv_obj_get_style_text_font(const struct _lv_obj_t * obj, uint32_t p
 464:Drivers/lvgl/src/widgets/../core/lv_obj_style_gen.h **** {
 465:Drivers/lvgl/src/widgets/../core/lv_obj_style_gen.h ****     lv_style_value_t v = lv_obj_get_style_prop(obj, part, LV_STYLE_TEXT_FONT);
 466:Drivers/lvgl/src/widgets/../core/lv_obj_style_gen.h ****     return (const lv_font_t *)v.ptr;
 467:Drivers/lvgl/src/widgets/../core/lv_obj_style_gen.h **** }
 468:Drivers/lvgl/src/widgets/../core/lv_obj_style_gen.h **** 
 469:Drivers/lvgl/src/widgets/../core/lv_obj_style_gen.h **** static inline lv_coord_t lv_obj_get_style_text_letter_space(const struct _lv_obj_t * obj, uint32_t 
 470:Drivers/lvgl/src/widgets/../core/lv_obj_style_gen.h **** {
 471:Drivers/lvgl/src/widgets/../core/lv_obj_style_gen.h ****     lv_style_value_t v = lv_obj_get_style_prop(obj, part, LV_STYLE_TEXT_LETTER_SPACE);
 472:Drivers/lvgl/src/widgets/../core/lv_obj_style_gen.h ****     return (lv_coord_t)v.num;
 473:Drivers/lvgl/src/widgets/../core/lv_obj_style_gen.h **** }
 474:Drivers/lvgl/src/widgets/../core/lv_obj_style_gen.h **** 
 475:Drivers/lvgl/src/widgets/../core/lv_obj_style_gen.h **** static inline lv_coord_t lv_obj_get_style_text_line_space(const struct _lv_obj_t * obj, uint32_t pa
 476:Drivers/lvgl/src/widgets/../core/lv_obj_style_gen.h **** {
 477:Drivers/lvgl/src/widgets/../core/lv_obj_style_gen.h ****     lv_style_value_t v = lv_obj_get_style_prop(obj, part, LV_STYLE_TEXT_LINE_SPACE);
 478:Drivers/lvgl/src/widgets/../core/lv_obj_style_gen.h ****     return (lv_coord_t)v.num;
 479:Drivers/lvgl/src/widgets/../core/lv_obj_style_gen.h **** }
 480:Drivers/lvgl/src/widgets/../core/lv_obj_style_gen.h **** 
 481:Drivers/lvgl/src/widgets/../core/lv_obj_style_gen.h **** static inline lv_text_decor_t lv_obj_get_style_text_decor(const struct _lv_obj_t * obj, uint32_t pa
 482:Drivers/lvgl/src/widgets/../core/lv_obj_style_gen.h **** {
 483:Drivers/lvgl/src/widgets/../core/lv_obj_style_gen.h ****     lv_style_value_t v = lv_obj_get_style_prop(obj, part, LV_STYLE_TEXT_DECOR);
 484:Drivers/lvgl/src/widgets/../core/lv_obj_style_gen.h ****     return (lv_text_decor_t)v.num;
 485:Drivers/lvgl/src/widgets/../core/lv_obj_style_gen.h **** }
 486:Drivers/lvgl/src/widgets/../core/lv_obj_style_gen.h **** 
 487:Drivers/lvgl/src/widgets/../core/lv_obj_style_gen.h **** static inline lv_text_align_t lv_obj_get_style_text_align(const struct _lv_obj_t * obj, uint32_t pa
 488:Drivers/lvgl/src/widgets/../core/lv_obj_style_gen.h **** {
 489:Drivers/lvgl/src/widgets/../core/lv_obj_style_gen.h ****     lv_style_value_t v = lv_obj_get_style_prop(obj, part, LV_STYLE_TEXT_ALIGN);
 490:Drivers/lvgl/src/widgets/../core/lv_obj_style_gen.h ****     return (lv_text_align_t)v.num;
 491:Drivers/lvgl/src/widgets/../core/lv_obj_style_gen.h **** }
 492:Drivers/lvgl/src/widgets/../core/lv_obj_style_gen.h **** 
 493:Drivers/lvgl/src/widgets/../core/lv_obj_style_gen.h **** static inline lv_coord_t lv_obj_get_style_radius(const struct _lv_obj_t * obj, uint32_t part)
 494:Drivers/lvgl/src/widgets/../core/lv_obj_style_gen.h **** {
 495:Drivers/lvgl/src/widgets/../core/lv_obj_style_gen.h ****     lv_style_value_t v = lv_obj_get_style_prop(obj, part, LV_STYLE_RADIUS);
 496:Drivers/lvgl/src/widgets/../core/lv_obj_style_gen.h ****     return (lv_coord_t)v.num;
 497:Drivers/lvgl/src/widgets/../core/lv_obj_style_gen.h **** }
 498:Drivers/lvgl/src/widgets/../core/lv_obj_style_gen.h **** 
 499:Drivers/lvgl/src/widgets/../core/lv_obj_style_gen.h **** static inline bool lv_obj_get_style_clip_corner(const struct _lv_obj_t * obj, uint32_t part)
 500:Drivers/lvgl/src/widgets/../core/lv_obj_style_gen.h **** {
 501:Drivers/lvgl/src/widgets/../core/lv_obj_style_gen.h ****     lv_style_value_t v = lv_obj_get_style_prop(obj, part, LV_STYLE_CLIP_CORNER);
 502:Drivers/lvgl/src/widgets/../core/lv_obj_style_gen.h ****     return (bool)v.num;
 503:Drivers/lvgl/src/widgets/../core/lv_obj_style_gen.h **** }
 504:Drivers/lvgl/src/widgets/../core/lv_obj_style_gen.h **** 
 505:Drivers/lvgl/src/widgets/../core/lv_obj_style_gen.h **** static inline lv_opa_t lv_obj_get_style_opa(const struct _lv_obj_t * obj, uint32_t part)
 506:Drivers/lvgl/src/widgets/../core/lv_obj_style_gen.h **** {
 507:Drivers/lvgl/src/widgets/../core/lv_obj_style_gen.h ****     lv_style_value_t v = lv_obj_get_style_prop(obj, part, LV_STYLE_OPA);
 508:Drivers/lvgl/src/widgets/../core/lv_obj_style_gen.h ****     return (lv_opa_t)v.num;
ARM GAS  /var/folders/lp/x54gwt890xv47sdkqj1k04q40000gn/T//ccn9ZgyV.s 			page 40


 509:Drivers/lvgl/src/widgets/../core/lv_obj_style_gen.h **** }
 510:Drivers/lvgl/src/widgets/../core/lv_obj_style_gen.h **** 
 511:Drivers/lvgl/src/widgets/../core/lv_obj_style_gen.h **** static inline lv_opa_t lv_obj_get_style_opa_layered(const struct _lv_obj_t * obj, uint32_t part)
 512:Drivers/lvgl/src/widgets/../core/lv_obj_style_gen.h **** {
 513:Drivers/lvgl/src/widgets/../core/lv_obj_style_gen.h ****     lv_style_value_t v = lv_obj_get_style_prop(obj, part, LV_STYLE_OPA_LAYERED);
 514:Drivers/lvgl/src/widgets/../core/lv_obj_style_gen.h ****     return (lv_opa_t)v.num;
 515:Drivers/lvgl/src/widgets/../core/lv_obj_style_gen.h **** }
 516:Drivers/lvgl/src/widgets/../core/lv_obj_style_gen.h **** 
 517:Drivers/lvgl/src/widgets/../core/lv_obj_style_gen.h **** static inline const lv_color_filter_dsc_t * lv_obj_get_style_color_filter_dsc(const struct _lv_obj_
 518:Drivers/lvgl/src/widgets/../core/lv_obj_style_gen.h **** {
 519:Drivers/lvgl/src/widgets/../core/lv_obj_style_gen.h ****     lv_style_value_t v = lv_obj_get_style_prop(obj, part, LV_STYLE_COLOR_FILTER_DSC);
 520:Drivers/lvgl/src/widgets/../core/lv_obj_style_gen.h ****     return (const lv_color_filter_dsc_t *)v.ptr;
 521:Drivers/lvgl/src/widgets/../core/lv_obj_style_gen.h **** }
 522:Drivers/lvgl/src/widgets/../core/lv_obj_style_gen.h **** 
 523:Drivers/lvgl/src/widgets/../core/lv_obj_style_gen.h **** static inline lv_opa_t lv_obj_get_style_color_filter_opa(const struct _lv_obj_t * obj, uint32_t par
 524:Drivers/lvgl/src/widgets/../core/lv_obj_style_gen.h **** {
 525:Drivers/lvgl/src/widgets/../core/lv_obj_style_gen.h ****     lv_style_value_t v = lv_obj_get_style_prop(obj, part, LV_STYLE_COLOR_FILTER_OPA);
 526:Drivers/lvgl/src/widgets/../core/lv_obj_style_gen.h ****     return (lv_opa_t)v.num;
 527:Drivers/lvgl/src/widgets/../core/lv_obj_style_gen.h **** }
 528:Drivers/lvgl/src/widgets/../core/lv_obj_style_gen.h **** 
 529:Drivers/lvgl/src/widgets/../core/lv_obj_style_gen.h **** static inline const lv_anim_t * lv_obj_get_style_anim(const struct _lv_obj_t * obj, uint32_t part)
 530:Drivers/lvgl/src/widgets/../core/lv_obj_style_gen.h **** {
 531:Drivers/lvgl/src/widgets/../core/lv_obj_style_gen.h ****     lv_style_value_t v = lv_obj_get_style_prop(obj, part, LV_STYLE_ANIM);
 532:Drivers/lvgl/src/widgets/../core/lv_obj_style_gen.h ****     return (const lv_anim_t *)v.ptr;
 533:Drivers/lvgl/src/widgets/../core/lv_obj_style_gen.h **** }
 534:Drivers/lvgl/src/widgets/../core/lv_obj_style_gen.h **** 
 535:Drivers/lvgl/src/widgets/../core/lv_obj_style_gen.h **** static inline uint32_t lv_obj_get_style_anim_time(const struct _lv_obj_t * obj, uint32_t part)
 536:Drivers/lvgl/src/widgets/../core/lv_obj_style_gen.h **** {
 537:Drivers/lvgl/src/widgets/../core/lv_obj_style_gen.h ****     lv_style_value_t v = lv_obj_get_style_prop(obj, part, LV_STYLE_ANIM_TIME);
 538:Drivers/lvgl/src/widgets/../core/lv_obj_style_gen.h ****     return (uint32_t)v.num;
 539:Drivers/lvgl/src/widgets/../core/lv_obj_style_gen.h **** }
 540:Drivers/lvgl/src/widgets/../core/lv_obj_style_gen.h **** 
 541:Drivers/lvgl/src/widgets/../core/lv_obj_style_gen.h **** static inline uint32_t lv_obj_get_style_anim_speed(const struct _lv_obj_t * obj, uint32_t part)
 542:Drivers/lvgl/src/widgets/../core/lv_obj_style_gen.h **** {
 543:Drivers/lvgl/src/widgets/../core/lv_obj_style_gen.h ****     lv_style_value_t v = lv_obj_get_style_prop(obj, part, LV_STYLE_ANIM_SPEED);
 544:Drivers/lvgl/src/widgets/../core/lv_obj_style_gen.h ****     return (uint32_t)v.num;
 545:Drivers/lvgl/src/widgets/../core/lv_obj_style_gen.h **** }
 546:Drivers/lvgl/src/widgets/../core/lv_obj_style_gen.h **** 
 547:Drivers/lvgl/src/widgets/../core/lv_obj_style_gen.h **** static inline const lv_style_transition_dsc_t * lv_obj_get_style_transition(const struct _lv_obj_t 
 548:Drivers/lvgl/src/widgets/../core/lv_obj_style_gen.h **** {
 549:Drivers/lvgl/src/widgets/../core/lv_obj_style_gen.h ****     lv_style_value_t v = lv_obj_get_style_prop(obj, part, LV_STYLE_TRANSITION);
 550:Drivers/lvgl/src/widgets/../core/lv_obj_style_gen.h ****     return (const lv_style_transition_dsc_t *)v.ptr;
 551:Drivers/lvgl/src/widgets/../core/lv_obj_style_gen.h **** }
 552:Drivers/lvgl/src/widgets/../core/lv_obj_style_gen.h **** 
 553:Drivers/lvgl/src/widgets/../core/lv_obj_style_gen.h **** static inline lv_blend_mode_t lv_obj_get_style_blend_mode(const struct _lv_obj_t * obj, uint32_t pa
 554:Drivers/lvgl/src/widgets/../core/lv_obj_style_gen.h **** {
 555:Drivers/lvgl/src/widgets/../core/lv_obj_style_gen.h ****     lv_style_value_t v = lv_obj_get_style_prop(obj, part, LV_STYLE_BLEND_MODE);
 556:Drivers/lvgl/src/widgets/../core/lv_obj_style_gen.h ****     return (lv_blend_mode_t)v.num;
 557:Drivers/lvgl/src/widgets/../core/lv_obj_style_gen.h **** }
 558:Drivers/lvgl/src/widgets/../core/lv_obj_style_gen.h **** 
 559:Drivers/lvgl/src/widgets/../core/lv_obj_style_gen.h **** static inline uint16_t lv_obj_get_style_layout(const struct _lv_obj_t * obj, uint32_t part)
 560:Drivers/lvgl/src/widgets/../core/lv_obj_style_gen.h **** {
 561:Drivers/lvgl/src/widgets/../core/lv_obj_style_gen.h ****     lv_style_value_t v = lv_obj_get_style_prop(obj, part, LV_STYLE_LAYOUT);
 562:Drivers/lvgl/src/widgets/../core/lv_obj_style_gen.h ****     return (uint16_t)v.num;
 563:Drivers/lvgl/src/widgets/../core/lv_obj_style_gen.h **** }
 564:Drivers/lvgl/src/widgets/../core/lv_obj_style_gen.h **** 
 565:Drivers/lvgl/src/widgets/../core/lv_obj_style_gen.h **** static inline lv_base_dir_t lv_obj_get_style_base_dir(const struct _lv_obj_t * obj, uint32_t part)
ARM GAS  /var/folders/lp/x54gwt890xv47sdkqj1k04q40000gn/T//ccn9ZgyV.s 			page 41


 423              		.loc 3 565 29 view .LVU128
 424              	.LBB143:
 566:Drivers/lvgl/src/widgets/../core/lv_obj_style_gen.h **** {
 567:Drivers/lvgl/src/widgets/../core/lv_obj_style_gen.h ****     lv_style_value_t v = lv_obj_get_style_prop(obj, part, LV_STYLE_BASE_DIR);
 425              		.loc 3 567 5 view .LVU129
 426              		.loc 3 567 26 is_stmt 0 view .LVU130
 427 002e 1622     		movs	r2, #22
 428 0030 0021     		movs	r1, #0
 429 0032 2846     		mov	r0, r5
 430              	.LVL46:
 431              		.loc 3 567 26 view .LVU131
 432 0034 FFF7FEFF 		bl	lv_obj_get_style_prop
 433              	.LVL47:
 568:Drivers/lvgl/src/widgets/../core/lv_obj_style_gen.h ****     return (lv_base_dir_t)v.num;
 434              		.loc 3 568 5 is_stmt 1 view .LVU132
 435              		.loc 3 568 12 is_stmt 0 view .LVU133
 436 0038 C0B2     		uxtb	r0, r0
 437              	.LVL48:
 438              		.loc 3 568 12 view .LVU134
 439              	.LBE143:
 440              	.LBE142:
1078:Drivers/lvgl/src/widgets/lv_table.c ****     if(rtl) {
 441              		.loc 1 1078 5 is_stmt 1 view .LVU135
 442              		.loc 1 1078 7 is_stmt 0 view .LVU136
 443 003a 0128     		cmp	r0, #1
 444              	.LBB144:
1079:Drivers/lvgl/src/widgets/lv_table.c ****         area->x1 += lv_obj_get_scroll_x(obj);
 445              		.loc 1 1079 21 view .LVU137
 446 003c 2846     		mov	r0, r5
 447              	.LVL49:
 448              		.loc 1 1079 21 view .LVU138
 449              	.LBE144:
1078:Drivers/lvgl/src/widgets/lv_table.c ****     if(rtl) {
 450              		.loc 1 1078 7 view .LVU139
 451 003e 35D0     		beq	.L45
 452              	.LVL50:
1080:Drivers/lvgl/src/widgets/lv_table.c ****         lv_coord_t w = lv_obj_get_width(obj);
1081:Drivers/lvgl/src/widgets/lv_table.c ****         area->x2 = w - area->x1 - lv_obj_get_style_pad_right(obj, 0);
1082:Drivers/lvgl/src/widgets/lv_table.c ****         area->x1 = area->x2 - table->col_w[col];
1083:Drivers/lvgl/src/widgets/lv_table.c ****     }
1084:Drivers/lvgl/src/widgets/lv_table.c ****     else {
1085:Drivers/lvgl/src/widgets/lv_table.c ****         area->x1 -= lv_obj_get_scroll_x(obj);
 453              		.loc 1 1085 9 is_stmt 1 view .LVU140
 454              		.loc 1 1085 21 is_stmt 0 view .LVU141
 455 0040 FFF7FEFF 		bl	lv_obj_get_scroll_x
 456              	.LVL51:
 457              		.loc 1 1085 18 discriminator 1 view .LVU142
 458 0044 2388     		ldrh	r3, [r4]
 459 0046 1B1A     		subs	r3, r3, r0
 460 0048 2380     		strh	r3, [r4]	@ movhi
1086:Drivers/lvgl/src/widgets/lv_table.c ****         area->x1 += lv_obj_get_style_pad_left(obj, 0);
 461              		.loc 1 1086 9 is_stmt 1 view .LVU143
 462              	.LVL52:
 463              	.LBB151:
 464              	.LBI151:
 115:Drivers/lvgl/src/widgets/../core/lv_obj_style_gen.h **** {
 465              		.loc 3 115 26 view .LVU144
ARM GAS  /var/folders/lp/x54gwt890xv47sdkqj1k04q40000gn/T//ccn9ZgyV.s 			page 42


 466              	.LBB152:
 117:Drivers/lvgl/src/widgets/../core/lv_obj_style_gen.h ****     return (lv_coord_t)v.num;
 467              		.loc 3 117 5 view .LVU145
 117:Drivers/lvgl/src/widgets/../core/lv_obj_style_gen.h ****     return (lv_coord_t)v.num;
 468              		.loc 3 117 26 is_stmt 0 view .LVU146
 469 004a 1222     		movs	r2, #18
 470 004c 0021     		movs	r1, #0
 471 004e 2846     		mov	r0, r5
 472 0050 FFF7FEFF 		bl	lv_obj_get_style_prop
 473              	.LVL53:
 118:Drivers/lvgl/src/widgets/../core/lv_obj_style_gen.h **** }
 474              		.loc 3 118 5 is_stmt 1 view .LVU147
 118:Drivers/lvgl/src/widgets/../core/lv_obj_style_gen.h **** }
 475              		.loc 3 118 5 is_stmt 0 view .LVU148
 476              	.LBE152:
 477              	.LBE151:
 478              		.loc 1 1086 18 discriminator 1 view .LVU149
 479 0054 2388     		ldrh	r3, [r4]
 480 0056 1844     		add	r0, r0, r3
 481 0058 80B2     		uxth	r0, r0
1087:Drivers/lvgl/src/widgets/lv_table.c ****         area->x2 = area->x1 + table->col_w[col] - 1;
 482              		.loc 1 1087 43 view .LVU150
 483 005a 2B6B     		ldr	r3, [r5, #48]
1086:Drivers/lvgl/src/widgets/lv_table.c ****         area->x2 = area->x1 + table->col_w[col] - 1;
 484              		.loc 1 1086 18 discriminator 1 view .LVU151
 485 005c 2080     		strh	r0, [r4]	@ movhi
 486              		.loc 1 1087 9 is_stmt 1 view .LVU152
 487              		.loc 1 1087 49 is_stmt 0 view .LVU153
 488 005e DB5B     		ldrh	r3, [r3, r7]
 489 0060 0138     		subs	r0, r0, #1
 490 0062 1844     		add	r0, r0, r3
 491              		.loc 1 1087 18 view .LVU154
 492 0064 A080     		strh	r0, [r4, #4]	@ movhi
 493              	.L33:
1088:Drivers/lvgl/src/widgets/lv_table.c ****     }
1089:Drivers/lvgl/src/widgets/lv_table.c **** 
1090:Drivers/lvgl/src/widgets/lv_table.c ****     uint32_t r;
 494              		.loc 1 1090 5 is_stmt 1 view .LVU155
1091:Drivers/lvgl/src/widgets/lv_table.c ****     area->y1 = 0;
 495              		.loc 1 1091 5 view .LVU156
 496              		.loc 1 1091 14 is_stmt 0 view .LVU157
 497 0066 0022     		movs	r2, #0
 498 0068 6280     		strh	r2, [r4, #2]	@ movhi
1092:Drivers/lvgl/src/widgets/lv_table.c ****     for(r = 0; r < row; r++) {
 499              		.loc 1 1092 5 is_stmt 1 view .LVU158
 500              	.LVL54:
 501              		.loc 1 1092 18 discriminator 1 view .LVU159
 502 006a 4EB1     		cbz	r6, .L34
 503 006c EB6A     		ldr	r3, [r5, #44]
 504 006e 7600     		lsls	r6, r6, #1
 505              	.LVL55:
 506              		.loc 1 1092 18 is_stmt 0 discriminator 1 view .LVU160
 507 0070 F118     		adds	r1, r6, r3
 508              	.LVL56:
 509              	.L35:
1093:Drivers/lvgl/src/widgets/lv_table.c ****         area->y1 += table->row_h[r];
 510              		.loc 1 1093 9 is_stmt 1 view .LVU161
ARM GAS  /var/folders/lp/x54gwt890xv47sdkqj1k04q40000gn/T//ccn9ZgyV.s 			page 43


 511              		.loc 1 1093 33 is_stmt 0 view .LVU162
 512 0072 33F9020B 		ldrsh	r0, [r3], #2
 513              		.loc 1 1093 18 view .LVU163
 514 0076 0244     		add	r2, r2, r0
 515 0078 12B2     		sxth	r2, r2
1092:Drivers/lvgl/src/widgets/lv_table.c ****     for(r = 0; r < row; r++) {
 516              		.loc 1 1092 18 discriminator 1 view .LVU164
 517 007a 9942     		cmp	r1, r3
 518              		.loc 1 1093 18 view .LVU165
 519 007c 6280     		strh	r2, [r4, #2]	@ movhi
1092:Drivers/lvgl/src/widgets/lv_table.c ****     for(r = 0; r < row; r++) {
 520              		.loc 1 1092 26 is_stmt 1 discriminator 3 view .LVU166
1092:Drivers/lvgl/src/widgets/lv_table.c ****     for(r = 0; r < row; r++) {
 521              		.loc 1 1092 18 discriminator 1 view .LVU167
 522 007e F8D1     		bne	.L35
 523              	.L34:
1094:Drivers/lvgl/src/widgets/lv_table.c ****     }
1095:Drivers/lvgl/src/widgets/lv_table.c **** 
1096:Drivers/lvgl/src/widgets/lv_table.c ****     area->y1 += lv_obj_get_style_pad_top(obj, 0);
 524              		.loc 1 1096 5 view .LVU168
 525              	.LVL57:
 526              	.LBB153:
 527              	.LBI153:
 103:Drivers/lvgl/src/widgets/../core/lv_obj_style_gen.h **** {
 528              		.loc 3 103 26 view .LVU169
 529              	.LBB154:
 105:Drivers/lvgl/src/widgets/../core/lv_obj_style_gen.h ****     return (lv_coord_t)v.num;
 530              		.loc 3 105 5 view .LVU170
 105:Drivers/lvgl/src/widgets/../core/lv_obj_style_gen.h ****     return (lv_coord_t)v.num;
 531              		.loc 3 105 26 is_stmt 0 view .LVU171
 532 0080 1022     		movs	r2, #16
 533 0082 0021     		movs	r1, #0
 534 0084 2846     		mov	r0, r5
 535 0086 FFF7FEFF 		bl	lv_obj_get_style_prop
 536              	.LVL58:
 106:Drivers/lvgl/src/widgets/../core/lv_obj_style_gen.h **** }
 537              		.loc 3 106 5 is_stmt 1 view .LVU172
 106:Drivers/lvgl/src/widgets/../core/lv_obj_style_gen.h **** }
 538              		.loc 3 106 5 is_stmt 0 view .LVU173
 539              	.LBE154:
 540              	.LBE153:
 541              		.loc 1 1096 14 discriminator 1 view .LVU174
 542 008a 6388     		ldrh	r3, [r4, #2]
 543 008c 1844     		add	r0, r0, r3
 544 008e 6080     		strh	r0, [r4, #2]	@ movhi
1097:Drivers/lvgl/src/widgets/lv_table.c ****     area->y1 -= lv_obj_get_scroll_y(obj);
 545              		.loc 1 1097 5 is_stmt 1 view .LVU175
 546              		.loc 1 1097 17 is_stmt 0 view .LVU176
 547 0090 2846     		mov	r0, r5
 548 0092 FFF7FEFF 		bl	lv_obj_get_scroll_y
 549              	.LVL59:
 550              		.loc 1 1097 14 discriminator 1 view .LVU177
 551 0096 6388     		ldrh	r3, [r4, #2]
1098:Drivers/lvgl/src/widgets/lv_table.c ****     area->y2 = area->y1 + table->row_h[row] - 1;
 552              		.loc 1 1098 39 view .LVU178
 553 0098 EA6A     		ldr	r2, [r5, #44]
1097:Drivers/lvgl/src/widgets/lv_table.c ****     area->y1 -= lv_obj_get_scroll_y(obj);
ARM GAS  /var/folders/lp/x54gwt890xv47sdkqj1k04q40000gn/T//ccn9ZgyV.s 			page 44


 554              		.loc 1 1097 14 discriminator 1 view .LVU179
 555 009a 181A     		subs	r0, r3, r0
 556 009c 80B2     		uxth	r0, r0
 557 009e 6080     		strh	r0, [r4, #2]	@ movhi
 558              		.loc 1 1098 5 is_stmt 1 view .LVU180
 559              		.loc 1 1098 45 is_stmt 0 view .LVU181
 560 00a0 935B     		ldrh	r3, [r2, r6]
 561 00a2 0138     		subs	r0, r0, #1
 562 00a4 1844     		add	r0, r0, r3
 563              		.loc 1 1098 14 view .LVU182
 564 00a6 E080     		strh	r0, [r4, #6]	@ movhi
1099:Drivers/lvgl/src/widgets/lv_table.c **** 
1100:Drivers/lvgl/src/widgets/lv_table.c **** }
 565              		.loc 1 1100 1 view .LVU183
 566 00a8 BDE8F883 		pop	{r3, r4, r5, r6, r7, r8, r9, pc}
 567              	.LVL60:
 568              	.L45:
 569              	.LBB155:
1079:Drivers/lvgl/src/widgets/lv_table.c ****         lv_coord_t w = lv_obj_get_width(obj);
 570              		.loc 1 1079 9 is_stmt 1 view .LVU184
1079:Drivers/lvgl/src/widgets/lv_table.c ****         lv_coord_t w = lv_obj_get_width(obj);
 571              		.loc 1 1079 21 is_stmt 0 view .LVU185
 572 00ac FFF7FEFF 		bl	lv_obj_get_scroll_x
 573              	.LVL61:
1079:Drivers/lvgl/src/widgets/lv_table.c ****         lv_coord_t w = lv_obj_get_width(obj);
 574              		.loc 1 1079 18 discriminator 1 view .LVU186
 575 00b0 2388     		ldrh	r3, [r4]
 576 00b2 1844     		add	r0, r0, r3
 577 00b4 2080     		strh	r0, [r4]	@ movhi
1080:Drivers/lvgl/src/widgets/lv_table.c ****         area->x2 = w - area->x1 - lv_obj_get_style_pad_right(obj, 0);
 578              		.loc 1 1080 9 is_stmt 1 view .LVU187
1080:Drivers/lvgl/src/widgets/lv_table.c ****         area->x2 = w - area->x1 - lv_obj_get_style_pad_right(obj, 0);
 579              		.loc 1 1080 24 is_stmt 0 view .LVU188
 580 00b6 2846     		mov	r0, r5
 581 00b8 FFF7FEFF 		bl	lv_obj_get_width
 582              	.LVL62:
 583              	.LBB145:
 584              	.LBB146:
 123:Drivers/lvgl/src/widgets/../core/lv_obj_style_gen.h ****     return (lv_coord_t)v.num;
 585              		.loc 3 123 26 view .LVU189
 586 00bc 1322     		movs	r2, #19
 587              	.LBE146:
 588              	.LBE145:
1080:Drivers/lvgl/src/widgets/lv_table.c ****         area->x2 = w - area->x1 - lv_obj_get_style_pad_right(obj, 0);
 589              		.loc 1 1080 24 view .LVU190
 590 00be 8046     		mov	r8, r0
 591              	.LVL63:
1081:Drivers/lvgl/src/widgets/lv_table.c ****         area->x1 = area->x2 - table->col_w[col];
 592              		.loc 1 1081 9 is_stmt 1 view .LVU191
 593              	.LBB149:
 594              	.LBB147:
 123:Drivers/lvgl/src/widgets/../core/lv_obj_style_gen.h ****     return (lv_coord_t)v.num;
 595              		.loc 3 123 26 is_stmt 0 view .LVU192
 596 00c0 0021     		movs	r1, #0
 597 00c2 2846     		mov	r0, r5
 598              	.LBE147:
 599              	.LBE149:
ARM GAS  /var/folders/lp/x54gwt890xv47sdkqj1k04q40000gn/T//ccn9ZgyV.s 			page 45


1081:Drivers/lvgl/src/widgets/lv_table.c ****         area->x1 = area->x2 - table->col_w[col];
 600              		.loc 1 1081 28 view .LVU193
 601 00c4 B4F80090 		ldrh	r9, [r4]
 602              	.LVL64:
 603              	.LBB150:
 604              	.LBI145:
 121:Drivers/lvgl/src/widgets/../core/lv_obj_style_gen.h **** {
 605              		.loc 3 121 26 is_stmt 1 view .LVU194
 606              	.LBB148:
 123:Drivers/lvgl/src/widgets/../core/lv_obj_style_gen.h ****     return (lv_coord_t)v.num;
 607              		.loc 3 123 5 view .LVU195
 123:Drivers/lvgl/src/widgets/../core/lv_obj_style_gen.h ****     return (lv_coord_t)v.num;
 608              		.loc 3 123 26 is_stmt 0 view .LVU196
 609 00c8 FFF7FEFF 		bl	lv_obj_get_style_prop
 610              	.LVL65:
 124:Drivers/lvgl/src/widgets/../core/lv_obj_style_gen.h **** }
 611              		.loc 3 124 5 is_stmt 1 view .LVU197
 124:Drivers/lvgl/src/widgets/../core/lv_obj_style_gen.h **** }
 612              		.loc 3 124 5 is_stmt 0 view .LVU198
 613              	.LBE148:
 614              	.LBE150:
1081:Drivers/lvgl/src/widgets/lv_table.c ****         area->x1 = area->x2 - table->col_w[col];
 615              		.loc 1 1081 33 discriminator 1 view .LVU199
 616 00cc 8144     		add	r9, r9, r0
 617 00ce A8EB0903 		sub	r3, r8, r9
1082:Drivers/lvgl/src/widgets/lv_table.c ****     }
 618              		.loc 1 1082 43 view .LVU200
 619 00d2 2A6B     		ldr	r2, [r5, #48]
1081:Drivers/lvgl/src/widgets/lv_table.c ****         area->x1 = area->x2 - table->col_w[col];
 620              		.loc 1 1081 33 discriminator 1 view .LVU201
 621 00d4 9BB2     		uxth	r3, r3
1081:Drivers/lvgl/src/widgets/lv_table.c ****         area->x1 = area->x2 - table->col_w[col];
 622              		.loc 1 1081 18 discriminator 1 view .LVU202
 623 00d6 A380     		strh	r3, [r4, #4]	@ movhi
1082:Drivers/lvgl/src/widgets/lv_table.c ****     }
 624              		.loc 1 1082 9 is_stmt 1 view .LVU203
1082:Drivers/lvgl/src/widgets/lv_table.c ****     }
 625              		.loc 1 1082 29 is_stmt 0 view .LVU204
 626 00d8 D25B     		ldrh	r2, [r2, r7]
 627 00da 9B1A     		subs	r3, r3, r2
1082:Drivers/lvgl/src/widgets/lv_table.c ****     }
 628              		.loc 1 1082 18 view .LVU205
 629 00dc 2380     		strh	r3, [r4]	@ movhi
 630              	.LBE155:
 631 00de C2E7     		b	.L33
 632              		.cfi_endproc
 633              	.LFE188:
 635              		.section	.text.scroll_to_selected_cell,"ax",%progbits
 636              		.align	1
 637              		.p2align 2,,3
 638              		.syntax unified
 639              		.thumb
 640              		.thumb_func
 642              	scroll_to_selected_cell:
 643              	.LVL66:
 644              	.LFB189:
1101:Drivers/lvgl/src/widgets/lv_table.c **** 
ARM GAS  /var/folders/lp/x54gwt890xv47sdkqj1k04q40000gn/T//ccn9ZgyV.s 			page 46


1102:Drivers/lvgl/src/widgets/lv_table.c **** 
1103:Drivers/lvgl/src/widgets/lv_table.c **** static void scroll_to_selected_cell(lv_obj_t * obj)
1104:Drivers/lvgl/src/widgets/lv_table.c **** {
 645              		.loc 1 1104 1 is_stmt 1 view -0
 646              		.cfi_startproc
 647              		@ args = 0, pretend = 0, frame = 8
 648              		@ frame_needed = 0, uses_anonymous_args = 0
1105:Drivers/lvgl/src/widgets/lv_table.c ****     lv_table_t * table = (lv_table_t *)obj;
 649              		.loc 1 1105 5 view .LVU207
1104:Drivers/lvgl/src/widgets/lv_table.c ****     lv_table_t * table = (lv_table_t *)obj;
 650              		.loc 1 1104 1 is_stmt 0 view .LVU208
 651 0000 30B5     		push	{r4, r5, lr}
 652              		.cfi_def_cfa_offset 12
 653              		.cfi_offset 4, -12
 654              		.cfi_offset 5, -8
 655              		.cfi_offset 14, -4
 656 0002 83B0     		sub	sp, sp, #12
 657              		.cfi_def_cfa_offset 24
1106:Drivers/lvgl/src/widgets/lv_table.c **** 
1107:Drivers/lvgl/src/widgets/lv_table.c ****     lv_area_t a;
1108:Drivers/lvgl/src/widgets/lv_table.c ****     get_cell_area(obj, table->row_act, table->col_act, &a);
 658              		.loc 1 1108 5 view .LVU209
 659 0004 C18E     		ldrh	r1, [r0, #54]
 660 0006 828E     		ldrh	r2, [r0, #52]
 661 0008 6B46     		mov	r3, sp
1104:Drivers/lvgl/src/widgets/lv_table.c ****     lv_table_t * table = (lv_table_t *)obj;
 662              		.loc 1 1104 1 view .LVU210
 663 000a 0446     		mov	r4, r0
 664              	.LVL67:
1107:Drivers/lvgl/src/widgets/lv_table.c ****     get_cell_area(obj, table->row_act, table->col_act, &a);
 665              		.loc 1 1107 5 is_stmt 1 view .LVU211
 666              		.loc 1 1108 5 view .LVU212
 667 000c FFF7FEFF 		bl	get_cell_area
 668              	.LVL68:
1109:Drivers/lvgl/src/widgets/lv_table.c ****     if(a.x1 < 0) {
 669              		.loc 1 1109 5 view .LVU213
 670              		.loc 1 1109 9 is_stmt 0 view .LVU214
 671 0010 BDF90010 		ldrsh	r1, [sp]
 672              		.loc 1 1109 7 view .LVU215
 673 0014 0029     		cmp	r1, #0
 674 0016 1DDB     		blt	.L53
1110:Drivers/lvgl/src/widgets/lv_table.c ****         lv_obj_scroll_by_bounded(obj, -a.x1, 0, LV_ANIM_ON);
1111:Drivers/lvgl/src/widgets/lv_table.c ****     }
1112:Drivers/lvgl/src/widgets/lv_table.c ****     else if(a.x2 > lv_obj_get_width(obj)) {
 675              		.loc 1 1112 10 is_stmt 1 view .LVU216
 676              		.loc 1 1112 20 is_stmt 0 view .LVU217
 677 0018 2046     		mov	r0, r4
 678              		.loc 1 1112 14 view .LVU218
 679 001a BDF90450 		ldrsh	r5, [sp, #4]
 680              		.loc 1 1112 20 view .LVU219
 681 001e FFF7FEFF 		bl	lv_obj_get_width
 682              	.LVL69:
 683              		.loc 1 1112 12 discriminator 1 view .LVU220
 684 0022 8542     		cmp	r5, r0
 685 0024 2BDC     		bgt	.L54
 686              	.L48:
1113:Drivers/lvgl/src/widgets/lv_table.c ****         lv_obj_scroll_by_bounded(obj, lv_obj_get_width(obj) - a.x2, 0, LV_ANIM_ON);
ARM GAS  /var/folders/lp/x54gwt890xv47sdkqj1k04q40000gn/T//ccn9ZgyV.s 			page 47


1114:Drivers/lvgl/src/widgets/lv_table.c ****     }
1115:Drivers/lvgl/src/widgets/lv_table.c **** 
1116:Drivers/lvgl/src/widgets/lv_table.c ****     if(a.y1 < 0) {
 687              		.loc 1 1116 5 is_stmt 1 view .LVU221
 688              		.loc 1 1116 9 is_stmt 0 view .LVU222
 689 0026 BDF90220 		ldrsh	r2, [sp, #2]
 690              		.loc 1 1116 7 view .LVU223
 691 002a 002A     		cmp	r2, #0
 692 002c 08DB     		blt	.L55
1117:Drivers/lvgl/src/widgets/lv_table.c ****         lv_obj_scroll_by_bounded(obj, 0, -a.y1, LV_ANIM_ON);
1118:Drivers/lvgl/src/widgets/lv_table.c ****     }
1119:Drivers/lvgl/src/widgets/lv_table.c ****     else if(a.y2 > lv_obj_get_height(obj)) {
 693              		.loc 1 1119 10 is_stmt 1 view .LVU224
 694              		.loc 1 1119 20 is_stmt 0 view .LVU225
 695 002e 2046     		mov	r0, r4
 696              		.loc 1 1119 14 view .LVU226
 697 0030 BDF90650 		ldrsh	r5, [sp, #6]
 698              		.loc 1 1119 20 view .LVU227
 699 0034 FFF7FEFF 		bl	lv_obj_get_height
 700              	.LVL70:
 701              		.loc 1 1119 12 discriminator 1 view .LVU228
 702 0038 8542     		cmp	r5, r0
 703 003a 13DC     		bgt	.L56
1120:Drivers/lvgl/src/widgets/lv_table.c ****         lv_obj_scroll_by_bounded(obj, 0, lv_obj_get_height(obj) - a.y2, LV_ANIM_ON);
1121:Drivers/lvgl/src/widgets/lv_table.c ****     }
1122:Drivers/lvgl/src/widgets/lv_table.c **** 
1123:Drivers/lvgl/src/widgets/lv_table.c **** }
 704              		.loc 1 1123 1 view .LVU229
 705 003c 03B0     		add	sp, sp, #12
 706              		.cfi_remember_state
 707              		.cfi_def_cfa_offset 12
 708              		@ sp needed
 709 003e 30BD     		pop	{r4, r5, pc}
 710              	.LVL71:
 711              	.L55:
 712              		.cfi_restore_state
1117:Drivers/lvgl/src/widgets/lv_table.c ****         lv_obj_scroll_by_bounded(obj, 0, -a.y1, LV_ANIM_ON);
 713              		.loc 1 1117 9 is_stmt 1 view .LVU230
 714 0040 5242     		rsbs	r2, r2, #0
 715 0042 0123     		movs	r3, #1
 716 0044 12B2     		sxth	r2, r2
 717 0046 0021     		movs	r1, #0
 718 0048 2046     		mov	r0, r4
 719              		.loc 1 1123 1 is_stmt 0 view .LVU231
 720 004a 03B0     		add	sp, sp, #12
 721              		.cfi_remember_state
 722              		.cfi_def_cfa_offset 12
 723              		@ sp needed
 724 004c BDE83040 		pop	{r4, r5, lr}
 725              		.cfi_restore 14
 726              		.cfi_restore 5
 727              		.cfi_restore 4
 728              		.cfi_def_cfa_offset 0
 729              	.LVL72:
1120:Drivers/lvgl/src/widgets/lv_table.c ****         lv_obj_scroll_by_bounded(obj, 0, lv_obj_get_height(obj) - a.y2, LV_ANIM_ON);
 730              		.loc 1 1120 9 discriminator 1 view .LVU232
 731 0050 FFF7FEBF 		b	lv_obj_scroll_by_bounded
ARM GAS  /var/folders/lp/x54gwt890xv47sdkqj1k04q40000gn/T//ccn9ZgyV.s 			page 48


 732              	.LVL73:
 733              	.L53:
 734              		.cfi_restore_state
1110:Drivers/lvgl/src/widgets/lv_table.c ****     }
 735              		.loc 1 1110 9 is_stmt 1 view .LVU233
 736 0054 4942     		rsbs	r1, r1, #0
 737 0056 0123     		movs	r3, #1
 738 0058 0022     		movs	r2, #0
 739 005a 09B2     		sxth	r1, r1
 740 005c 2046     		mov	r0, r4
 741 005e FFF7FEFF 		bl	lv_obj_scroll_by_bounded
 742              	.LVL74:
 743 0062 E0E7     		b	.L48
 744              	.L56:
1120:Drivers/lvgl/src/widgets/lv_table.c ****         lv_obj_scroll_by_bounded(obj, 0, lv_obj_get_height(obj) - a.y2, LV_ANIM_ON);
 745              		.loc 1 1120 9 view .LVU234
1120:Drivers/lvgl/src/widgets/lv_table.c ****         lv_obj_scroll_by_bounded(obj, 0, lv_obj_get_height(obj) - a.y2, LV_ANIM_ON);
 746              		.loc 1 1120 42 is_stmt 0 view .LVU235
 747 0064 2046     		mov	r0, r4
 748 0066 FFF7FEFF 		bl	lv_obj_get_height
 749              	.LVL75:
1120:Drivers/lvgl/src/widgets/lv_table.c ****         lv_obj_scroll_by_bounded(obj, 0, lv_obj_get_height(obj) - a.y2, LV_ANIM_ON);
 750              		.loc 1 1120 65 discriminator 1 view .LVU236
 751 006a 421B     		subs	r2, r0, r5
1120:Drivers/lvgl/src/widgets/lv_table.c ****         lv_obj_scroll_by_bounded(obj, 0, lv_obj_get_height(obj) - a.y2, LV_ANIM_ON);
 752              		.loc 1 1120 9 discriminator 1 view .LVU237
 753 006c 0123     		movs	r3, #1
 754 006e 12B2     		sxth	r2, r2
 755 0070 2046     		mov	r0, r4
 756 0072 0021     		movs	r1, #0
 757              		.loc 1 1123 1 view .LVU238
 758 0074 03B0     		add	sp, sp, #12
 759              		.cfi_remember_state
 760              		.cfi_def_cfa_offset 12
 761              		@ sp needed
 762 0076 BDE83040 		pop	{r4, r5, lr}
 763              		.cfi_restore 14
 764              		.cfi_restore 5
 765              		.cfi_restore 4
 766              		.cfi_def_cfa_offset 0
 767              	.LVL76:
1120:Drivers/lvgl/src/widgets/lv_table.c ****         lv_obj_scroll_by_bounded(obj, 0, lv_obj_get_height(obj) - a.y2, LV_ANIM_ON);
 768              		.loc 1 1120 9 discriminator 1 view .LVU239
 769 007a FFF7FEBF 		b	lv_obj_scroll_by_bounded
 770              	.LVL77:
 771              	.L54:
 772              		.cfi_restore_state
1113:Drivers/lvgl/src/widgets/lv_table.c ****     }
 773              		.loc 1 1113 9 is_stmt 1 view .LVU240
1113:Drivers/lvgl/src/widgets/lv_table.c ****     }
 774              		.loc 1 1113 39 is_stmt 0 view .LVU241
 775 007e 2046     		mov	r0, r4
 776 0080 FFF7FEFF 		bl	lv_obj_get_width
 777              	.LVL78:
1113:Drivers/lvgl/src/widgets/lv_table.c ****     }
 778              		.loc 1 1113 61 discriminator 1 view .LVU242
 779 0084 411B     		subs	r1, r0, r5
ARM GAS  /var/folders/lp/x54gwt890xv47sdkqj1k04q40000gn/T//ccn9ZgyV.s 			page 49


1113:Drivers/lvgl/src/widgets/lv_table.c ****     }
 780              		.loc 1 1113 9 discriminator 1 view .LVU243
 781 0086 0123     		movs	r3, #1
 782 0088 0022     		movs	r2, #0
 783 008a 09B2     		sxth	r1, r1
 784 008c 2046     		mov	r0, r4
 785 008e FFF7FEFF 		bl	lv_obj_scroll_by_bounded
 786              	.LVL79:
 787 0092 C8E7     		b	.L48
 788              		.cfi_endproc
 789              	.LFE189:
 791              		.section	.text.draw_main,"ax",%progbits
 792              		.align	1
 793              		.p2align 2,,3
 794              		.syntax unified
 795              		.thumb
 796              		.thumb_func
 798              	draw_main:
 799              	.LVL80:
 800              	.LFB181:
 671:Drivers/lvgl/src/widgets/lv_table.c ****     lv_obj_t * obj = lv_event_get_target(e);
 801              		.loc 1 671 1 is_stmt 1 view -0
 802              		.cfi_startproc
 803              		@ args = 0, pretend = 0, frame = 368
 804              		@ frame_needed = 0, uses_anonymous_args = 0
 672:Drivers/lvgl/src/widgets/lv_table.c ****     lv_table_t * table = (lv_table_t *)obj;
 805              		.loc 1 672 5 view .LVU245
 671:Drivers/lvgl/src/widgets/lv_table.c ****     lv_obj_t * obj = lv_event_get_target(e);
 806              		.loc 1 671 1 is_stmt 0 view .LVU246
 807 0000 2DE9F04F 		push	{r4, r5, r6, r7, r8, r9, r10, fp, lr}
 808              		.cfi_def_cfa_offset 36
 809              		.cfi_offset 4, -36
 810              		.cfi_offset 5, -32
 811              		.cfi_offset 6, -28
 812              		.cfi_offset 7, -24
 813              		.cfi_offset 8, -20
 814              		.cfi_offset 9, -16
 815              		.cfi_offset 10, -12
 816              		.cfi_offset 11, -8
 817              		.cfi_offset 14, -4
 818 0004 E1B0     		sub	sp, sp, #388
 819              		.cfi_def_cfa_offset 424
 671:Drivers/lvgl/src/widgets/lv_table.c ****     lv_obj_t * obj = lv_event_get_target(e);
 820              		.loc 1 671 1 view .LVU247
 821 0006 0446     		mov	r4, r0
 672:Drivers/lvgl/src/widgets/lv_table.c ****     lv_table_t * table = (lv_table_t *)obj;
 822              		.loc 1 672 22 view .LVU248
 823 0008 FFF7FEFF 		bl	lv_event_get_target
 824              	.LVL81:
 672:Drivers/lvgl/src/widgets/lv_table.c ****     lv_table_t * table = (lv_table_t *)obj;
 825              		.loc 1 672 22 view .LVU249
 826 000c 0746     		mov	r7, r0
 827              	.LVL82:
 673:Drivers/lvgl/src/widgets/lv_table.c ****     lv_draw_ctx_t * draw_ctx = lv_event_get_draw_ctx(e);
 828              		.loc 1 673 5 is_stmt 1 view .LVU250
 674:Drivers/lvgl/src/widgets/lv_table.c ****     lv_area_t clip_area;
 829              		.loc 1 674 5 view .LVU251
ARM GAS  /var/folders/lp/x54gwt890xv47sdkqj1k04q40000gn/T//ccn9ZgyV.s 			page 50


 674:Drivers/lvgl/src/widgets/lv_table.c ****     lv_area_t clip_area;
 830              		.loc 1 674 32 is_stmt 0 view .LVU252
 831 000e 2046     		mov	r0, r4
 832              	.LVL83:
 674:Drivers/lvgl/src/widgets/lv_table.c ****     lv_area_t clip_area;
 833              		.loc 1 674 32 view .LVU253
 834 0010 FFF7FEFF 		bl	lv_event_get_draw_ctx
 835              	.LVL84:
 675:Drivers/lvgl/src/widgets/lv_table.c ****     if(!_lv_area_intersect(&clip_area, &obj->coords, draw_ctx->clip_area)) return;
 836              		.loc 1 675 5 is_stmt 1 view .LVU254
 676:Drivers/lvgl/src/widgets/lv_table.c **** 
 837              		.loc 1 676 5 view .LVU255
 676:Drivers/lvgl/src/widgets/lv_table.c **** 
 838              		.loc 1 676 9 is_stmt 0 view .LVU256
 839 0014 07F11401 		add	r1, r7, #20
 840 0018 8268     		ldr	r2, [r0, #8]
 674:Drivers/lvgl/src/widgets/lv_table.c ****     lv_area_t clip_area;
 841              		.loc 1 674 32 view .LVU257
 842 001a 0446     		mov	r4, r0
 843              	.LVL85:
 676:Drivers/lvgl/src/widgets/lv_table.c **** 
 844              		.loc 1 676 9 view .LVU258
 845 001c 18A8     		add	r0, sp, #96
 846              	.LVL86:
 676:Drivers/lvgl/src/widgets/lv_table.c **** 
 847              		.loc 1 676 9 view .LVU259
 848 001e FFF7FEFF 		bl	_lv_area_intersect
 849              	.LVL87:
 676:Drivers/lvgl/src/widgets/lv_table.c **** 
 850              		.loc 1 676 7 discriminator 1 view .LVU260
 851 0022 10B9     		cbnz	r0, .L123
 863:Drivers/lvgl/src/widgets/lv_table.c **** 
 852              		.loc 1 863 1 view .LVU261
 853 0024 61B0     		add	sp, sp, #388
 854              		.cfi_remember_state
 855              		.cfi_def_cfa_offset 36
 856              		@ sp needed
 857 0026 BDE8F08F 		pop	{r4, r5, r6, r7, r8, r9, r10, fp, pc}
 858              	.LVL88:
 859              	.L123:
 860              		.cfi_restore_state
 678:Drivers/lvgl/src/widgets/lv_table.c ****     draw_ctx->clip_area = &clip_area;
 861              		.loc 1 678 5 is_stmt 1 view .LVU262
 678:Drivers/lvgl/src/widgets/lv_table.c ****     draw_ctx->clip_area = &clip_area;
 862              		.loc 1 678 23 is_stmt 0 view .LVU263
 863 002a A268     		ldr	r2, [r4, #8]
 864 002c 1592     		str	r2, [sp, #84]
 865              	.LVL89:
 679:Drivers/lvgl/src/widgets/lv_table.c **** 
 866              		.loc 1 679 5 is_stmt 1 view .LVU264
 679:Drivers/lvgl/src/widgets/lv_table.c **** 
 867              		.loc 1 679 25 is_stmt 0 view .LVU265
 868 002e 18A8     		add	r0, sp, #96
 869 0030 A060     		str	r0, [r4, #8]
 681:Drivers/lvgl/src/widgets/lv_table.c ****     lv_area_t cell_area;
 870              		.loc 1 681 5 is_stmt 1 view .LVU266
 682:Drivers/lvgl/src/widgets/lv_table.c **** 
ARM GAS  /var/folders/lp/x54gwt890xv47sdkqj1k04q40000gn/T//ccn9ZgyV.s 			page 51


 871              		.loc 1 682 5 view .LVU267
 684:Drivers/lvgl/src/widgets/lv_table.c ****     lv_coord_t bg_top = lv_obj_get_style_pad_top(obj, LV_PART_MAIN);
 872              		.loc 1 684 5 view .LVU268
 873              	.LVL90:
 874              	.LBB156:
 875              	.LBI156:
 253:Drivers/lvgl/src/widgets/../core/lv_obj_style_gen.h **** {
 876              		.loc 3 253 26 view .LVU269
 877              	.LBB157:
 255:Drivers/lvgl/src/widgets/../core/lv_obj_style_gen.h ****     return (lv_coord_t)v.num;
 878              		.loc 3 255 5 view .LVU270
 255:Drivers/lvgl/src/widgets/../core/lv_obj_style_gen.h ****     return (lv_coord_t)v.num;
 879              		.loc 3 255 26 is_stmt 0 view .LVU271
 880 0032 3222     		movs	r2, #50
 881              	.LVL91:
 255:Drivers/lvgl/src/widgets/../core/lv_obj_style_gen.h ****     return (lv_coord_t)v.num;
 882              		.loc 3 255 26 view .LVU272
 883 0034 0021     		movs	r1, #0
 884 0036 3846     		mov	r0, r7
 885              	.LBE157:
 886              	.LBE156:
 679:Drivers/lvgl/src/widgets/lv_table.c **** 
 887              		.loc 1 679 25 view .LVU273
 888 0038 0994     		str	r4, [sp, #36]
 889              	.LBB160:
 890              	.LBB158:
 255:Drivers/lvgl/src/widgets/../core/lv_obj_style_gen.h ****     return (lv_coord_t)v.num;
 891              		.loc 3 255 26 view .LVU274
 892 003a FFF7FEFF 		bl	lv_obj_get_style_prop
 893              	.LVL92:
 894              	.LBE158:
 895              	.LBE160:
 896              	.LBB161:
 897              	.LBB162:
 105:Drivers/lvgl/src/widgets/../core/lv_obj_style_gen.h ****     return (lv_coord_t)v.num;
 898              		.loc 3 105 26 view .LVU275
 899 003e 1022     		movs	r2, #16
 900              	.LBE162:
 901              	.LBE161:
 902              	.LBB166:
 903              	.LBB159:
 255:Drivers/lvgl/src/widgets/../core/lv_obj_style_gen.h ****     return (lv_coord_t)v.num;
 904              		.loc 3 255 26 view .LVU276
 905 0040 0546     		mov	r5, r0
 906              	.LVL93:
 256:Drivers/lvgl/src/widgets/../core/lv_obj_style_gen.h **** }
 907              		.loc 3 256 5 is_stmt 1 view .LVU277
 256:Drivers/lvgl/src/widgets/../core/lv_obj_style_gen.h **** }
 908              		.loc 3 256 5 is_stmt 0 view .LVU278
 909              	.LBE159:
 910              	.LBE166:
 685:Drivers/lvgl/src/widgets/lv_table.c ****     lv_coord_t bg_bottom = lv_obj_get_style_pad_bottom(obj, LV_PART_MAIN);
 911              		.loc 1 685 5 is_stmt 1 view .LVU279
 912              	.LBB167:
 913              	.LBI161:
 103:Drivers/lvgl/src/widgets/../core/lv_obj_style_gen.h **** {
 914              		.loc 3 103 26 view .LVU280
ARM GAS  /var/folders/lp/x54gwt890xv47sdkqj1k04q40000gn/T//ccn9ZgyV.s 			page 52


 915              	.LBB163:
 105:Drivers/lvgl/src/widgets/../core/lv_obj_style_gen.h ****     return (lv_coord_t)v.num;
 916              		.loc 3 105 5 view .LVU281
 105:Drivers/lvgl/src/widgets/../core/lv_obj_style_gen.h ****     return (lv_coord_t)v.num;
 917              		.loc 3 105 26 is_stmt 0 view .LVU282
 918 0042 0021     		movs	r1, #0
 919 0044 3846     		mov	r0, r7
 920 0046 FFF7FEFF 		bl	lv_obj_get_style_prop
 921              	.LVL94:
 922 004a 0446     		mov	r4, r0
 923              	.LVL95:
 106:Drivers/lvgl/src/widgets/../core/lv_obj_style_gen.h **** }
 924              		.loc 3 106 5 is_stmt 1 view .LVU283
 925              	.LBE163:
 926              	.LBE167:
 927              	.LBB168:
 928              	.LBB169:
 111:Drivers/lvgl/src/widgets/../core/lv_obj_style_gen.h ****     return (lv_coord_t)v.num;
 929              		.loc 3 111 26 is_stmt 0 view .LVU284
 930 004c 1122     		movs	r2, #17
 931 004e 0021     		movs	r1, #0
 111:Drivers/lvgl/src/widgets/../core/lv_obj_style_gen.h ****     return (lv_coord_t)v.num;
 932              		.loc 3 111 26 view .LVU285
 933              	.LBE169:
 934              	.LBE168:
 935              	.LBB172:
 936              	.LBB164:
 106:Drivers/lvgl/src/widgets/../core/lv_obj_style_gen.h **** }
 937              		.loc 3 106 12 view .LVU286
 938 0050 26B2     		sxth	r6, r4
 939              	.LBE164:
 940              	.LBE172:
 941              	.LBB173:
 942              	.LBB170:
 111:Drivers/lvgl/src/widgets/../core/lv_obj_style_gen.h ****     return (lv_coord_t)v.num;
 943              		.loc 3 111 26 view .LVU287
 944 0052 3846     		mov	r0, r7
 945              	.LBE170:
 946              	.LBE173:
 947              	.LBB174:
 948              	.LBB165:
 106:Drivers/lvgl/src/widgets/../core/lv_obj_style_gen.h **** }
 949              		.loc 3 106 12 view .LVU288
 950 0054 0E96     		str	r6, [sp, #56]
 951              	.LVL96:
 106:Drivers/lvgl/src/widgets/../core/lv_obj_style_gen.h **** }
 952              		.loc 3 106 12 view .LVU289
 953              	.LBE165:
 954              	.LBE174:
 686:Drivers/lvgl/src/widgets/lv_table.c ****     lv_coord_t bg_left = lv_obj_get_style_pad_left(obj, LV_PART_MAIN);
 955              		.loc 1 686 5 is_stmt 1 view .LVU290
 956              	.LBB175:
 957              	.LBI168:
 109:Drivers/lvgl/src/widgets/../core/lv_obj_style_gen.h **** {
 958              		.loc 3 109 26 view .LVU291
 959              	.LBB171:
 111:Drivers/lvgl/src/widgets/../core/lv_obj_style_gen.h ****     return (lv_coord_t)v.num;
ARM GAS  /var/folders/lp/x54gwt890xv47sdkqj1k04q40000gn/T//ccn9ZgyV.s 			page 53


 960              		.loc 3 111 5 view .LVU292
 111:Drivers/lvgl/src/widgets/../core/lv_obj_style_gen.h ****     return (lv_coord_t)v.num;
 961              		.loc 3 111 26 is_stmt 0 view .LVU293
 962 0056 FFF7FEFF 		bl	lv_obj_get_style_prop
 963              	.LVL97:
 112:Drivers/lvgl/src/widgets/../core/lv_obj_style_gen.h **** }
 964              		.loc 3 112 5 is_stmt 1 view .LVU294
 112:Drivers/lvgl/src/widgets/../core/lv_obj_style_gen.h **** }
 965              		.loc 3 112 12 is_stmt 0 view .LVU295
 966 005a 02B2     		sxth	r2, r0
 967 005c 0D92     		str	r2, [sp, #52]
 968              	.LVL98:
 112:Drivers/lvgl/src/widgets/../core/lv_obj_style_gen.h **** }
 969              		.loc 3 112 12 view .LVU296
 970              	.LBE171:
 971              	.LBE175:
 687:Drivers/lvgl/src/widgets/lv_table.c ****     lv_coord_t bg_right = lv_obj_get_style_pad_right(obj, LV_PART_MAIN);
 972              		.loc 1 687 5 is_stmt 1 view .LVU297
 973              	.LBB176:
 974              	.LBI176:
 115:Drivers/lvgl/src/widgets/../core/lv_obj_style_gen.h **** {
 975              		.loc 3 115 26 view .LVU298
 976              	.LBB177:
 117:Drivers/lvgl/src/widgets/../core/lv_obj_style_gen.h ****     return (lv_coord_t)v.num;
 977              		.loc 3 117 5 view .LVU299
 117:Drivers/lvgl/src/widgets/../core/lv_obj_style_gen.h ****     return (lv_coord_t)v.num;
 978              		.loc 3 117 26 is_stmt 0 view .LVU300
 979 005e 0021     		movs	r1, #0
 980 0060 1222     		movs	r2, #18
 981 0062 3846     		mov	r0, r7
 982 0064 FFF7FEFF 		bl	lv_obj_get_style_prop
 983              	.LVL99:
 984 0068 8246     		mov	r10, r0
 118:Drivers/lvgl/src/widgets/../core/lv_obj_style_gen.h **** }
 985              		.loc 3 118 5 is_stmt 1 view .LVU301
 986              	.LBE177:
 987              	.LBE176:
 988              	.LBB180:
 989              	.LBB181:
 123:Drivers/lvgl/src/widgets/../core/lv_obj_style_gen.h ****     return (lv_coord_t)v.num;
 990              		.loc 3 123 26 is_stmt 0 view .LVU302
 991 006a 0021     		movs	r1, #0
 992 006c 1322     		movs	r2, #19
 993              	.LBE181:
 994              	.LBE180:
 995              	.LBB188:
 996              	.LBB178:
 118:Drivers/lvgl/src/widgets/../core/lv_obj_style_gen.h **** }
 997              		.loc 3 118 12 view .LVU303
 998 006e 0FFA8AF6 		sxth	r6, r10
 999              	.LBE178:
 1000              	.LBE188:
 1001              	.LBB189:
 1002              	.LBB182:
 123:Drivers/lvgl/src/widgets/../core/lv_obj_style_gen.h ****     return (lv_coord_t)v.num;
 1003              		.loc 3 123 26 view .LVU304
 1004 0072 3846     		mov	r0, r7
ARM GAS  /var/folders/lp/x54gwt890xv47sdkqj1k04q40000gn/T//ccn9ZgyV.s 			page 54


 1005              	.LBE182:
 1006              	.LBE189:
 1007              	.LBB190:
 1008              	.LBB179:
 118:Drivers/lvgl/src/widgets/../core/lv_obj_style_gen.h **** }
 1009              		.loc 3 118 12 view .LVU305
 1010 0074 0C96     		str	r6, [sp, #48]
 1011              	.LVL100:
 118:Drivers/lvgl/src/widgets/../core/lv_obj_style_gen.h **** }
 1012              		.loc 3 118 12 view .LVU306
 1013              	.LBE179:
 1014              	.LBE190:
 688:Drivers/lvgl/src/widgets/lv_table.c **** 
 1015              		.loc 1 688 5 is_stmt 1 view .LVU307
 1016              	.LBB191:
 1017              	.LBI180:
 121:Drivers/lvgl/src/widgets/../core/lv_obj_style_gen.h **** {
 1018              		.loc 3 121 26 view .LVU308
 1019              	.LBB183:
 123:Drivers/lvgl/src/widgets/../core/lv_obj_style_gen.h ****     return (lv_coord_t)v.num;
 1020              		.loc 3 123 5 view .LVU309
 123:Drivers/lvgl/src/widgets/../core/lv_obj_style_gen.h ****     return (lv_coord_t)v.num;
 1021              		.loc 3 123 26 is_stmt 0 view .LVU310
 1022 0076 FFF7FEFF 		bl	lv_obj_get_style_prop
 1023              	.LVL101:
 1024              	.LBE183:
 1025              	.LBE191:
 691:Drivers/lvgl/src/widgets/lv_table.c ****     obj->skip_trans = 1;
 1026              		.loc 1 691 16 view .LVU311
 1027 007a 3A6A     		ldr	r2, [r7, #32]
 1028 007c 6D4B     		ldr	r3, .L131
 690:Drivers/lvgl/src/widgets/lv_table.c ****     obj->state = LV_STATE_DEFAULT;
 1029              		.loc 1 690 16 view .LVU312
 1030 007e 3E8C     		ldrh	r6, [r7, #32]
 1031              	.LBB192:
 1032              	.LBB184:
 123:Drivers/lvgl/src/widgets/../core/lv_obj_style_gen.h ****     return (lv_coord_t)v.num;
 1033              		.loc 3 123 26 view .LVU313
 1034 0080 1490     		str	r0, [sp, #80]
 124:Drivers/lvgl/src/widgets/../core/lv_obj_style_gen.h **** }
 1035              		.loc 3 124 5 is_stmt 1 view .LVU314
 1036              	.LBE184:
 1037              	.LBE192:
 691:Drivers/lvgl/src/widgets/lv_table.c ****     obj->skip_trans = 1;
 1038              		.loc 1 691 16 is_stmt 0 view .LVU315
 1039 0082 1340     		ands	r3, r3, r2
 1040              	.LBB193:
 1041              	.LBB185:
 123:Drivers/lvgl/src/widgets/../core/lv_obj_style_gen.h ****     return (lv_coord_t)v.num;
 1042              		.loc 3 123 26 view .LVU316
 1043 0084 8446     		mov	ip, r0
 1044              	.LBE185:
 1045              	.LBE193:
 691:Drivers/lvgl/src/widgets/lv_table.c ****     obj->skip_trans = 1;
 1046              		.loc 1 691 16 view .LVU317
 1047 0086 43F40023 		orr	r3, r3, #524288
 1048              	.LBB194:
ARM GAS  /var/folders/lp/x54gwt890xv47sdkqj1k04q40000gn/T//ccn9ZgyV.s 			page 55


 1049              	.LBB186:
 124:Drivers/lvgl/src/widgets/../core/lv_obj_style_gen.h **** }
 1050              		.loc 3 124 12 view .LVU318
 1051 008a 0FFA8CF2 		sxth	r2, ip
 1052              	.LBE186:
 1053              	.LBE194:
 691:Drivers/lvgl/src/widgets/lv_table.c ****     obj->skip_trans = 1;
 1054              		.loc 1 691 16 view .LVU319
 1055 008e 3B62     		str	r3, [r7, #32]
 695:Drivers/lvgl/src/widgets/lv_table.c ****     lv_obj_init_draw_rect_dsc(obj, LV_PART_ITEMS, &rect_dsc_def);
 1056              		.loc 1 695 5 view .LVU320
 1057 0090 32A8     		add	r0, sp, #200
 690:Drivers/lvgl/src/widgets/lv_table.c ****     obj->state = LV_STATE_DEFAULT;
 1058              		.loc 1 690 16 view .LVU321
 1059 0092 1196     		str	r6, [sp, #68]
 1060              	.LBB195:
 1061              	.LBB187:
 124:Drivers/lvgl/src/widgets/../core/lv_obj_style_gen.h **** }
 1062              		.loc 3 124 12 view .LVU322
 1063 0094 0B92     		str	r2, [sp, #44]
 1064              	.LVL102:
 124:Drivers/lvgl/src/widgets/../core/lv_obj_style_gen.h **** }
 1065              		.loc 3 124 12 view .LVU323
 1066              	.LBE187:
 1067              	.LBE195:
 690:Drivers/lvgl/src/widgets/lv_table.c ****     obj->state = LV_STATE_DEFAULT;
 1068              		.loc 1 690 5 is_stmt 1 view .LVU324
 691:Drivers/lvgl/src/widgets/lv_table.c ****     obj->skip_trans = 1;
 1069              		.loc 1 691 5 view .LVU325
 692:Drivers/lvgl/src/widgets/lv_table.c ****     lv_draw_rect_dsc_t rect_dsc_def;
 1070              		.loc 1 692 5 view .LVU326
 693:Drivers/lvgl/src/widgets/lv_table.c ****     lv_draw_rect_dsc_t rect_dsc_act; /*Passed to the event to modify it*/
 1071              		.loc 1 693 5 view .LVU327
 694:Drivers/lvgl/src/widgets/lv_table.c ****     lv_draw_rect_dsc_init(&rect_dsc_def);
 1072              		.loc 1 694 5 view .LVU328
 695:Drivers/lvgl/src/widgets/lv_table.c ****     lv_obj_init_draw_rect_dsc(obj, LV_PART_ITEMS, &rect_dsc_def);
 1073              		.loc 1 695 5 view .LVU329
 1074 0096 FFF7FEFF 		bl	lv_draw_rect_dsc_init
 1075              	.LVL103:
 696:Drivers/lvgl/src/widgets/lv_table.c **** 
 1076              		.loc 1 696 5 view .LVU330
 1077 009a 32AA     		add	r2, sp, #200
 1078 009c 4FF4A021 		mov	r1, #327680
 1079 00a0 3846     		mov	r0, r7
 1080 00a2 FFF7FEFF 		bl	lv_obj_init_draw_rect_dsc
 1081              	.LVL104:
 698:Drivers/lvgl/src/widgets/lv_table.c ****     lv_draw_label_dsc_t label_dsc_act;  /*Passed to the event to modify it*/
 1082              		.loc 1 698 5 view .LVU331
 699:Drivers/lvgl/src/widgets/lv_table.c ****     lv_draw_label_dsc_init(&label_dsc_def);
 1083              		.loc 1 699 5 view .LVU332
 700:Drivers/lvgl/src/widgets/lv_table.c ****     lv_obj_init_draw_label_dsc(obj, LV_PART_ITEMS, &label_dsc_def);
 1084              		.loc 1 700 5 view .LVU333
 1085 00a6 22A8     		add	r0, sp, #136
 1086 00a8 FFF7FEFF 		bl	lv_draw_label_dsc_init
 1087              	.LVL105:
 701:Drivers/lvgl/src/widgets/lv_table.c ****     obj->state = state_ori;
 1088              		.loc 1 701 5 view .LVU334
ARM GAS  /var/folders/lp/x54gwt890xv47sdkqj1k04q40000gn/T//ccn9ZgyV.s 			page 56


 1089 00ac 4FF4A021 		mov	r1, #327680
 1090 00b0 22AA     		add	r2, sp, #136
 1091 00b2 3846     		mov	r0, r7
 1092 00b4 FFF7FEFF 		bl	lv_obj_init_draw_label_dsc
 1093              	.LVL106:
 702:Drivers/lvgl/src/widgets/lv_table.c ****     obj->skip_trans = 0;
 1094              		.loc 1 702 5 view .LVU335
 703:Drivers/lvgl/src/widgets/lv_table.c **** 
 1095              		.loc 1 703 21 is_stmt 0 view .LVU336
 1096 00b8 97F82230 		ldrb	r3, [r7, #34]	@ zero_extendqisi2
 702:Drivers/lvgl/src/widgets/lv_table.c ****     obj->skip_trans = 0;
 1097              		.loc 1 702 16 view .LVU337
 1098 00bc 3E84     		strh	r6, [r7, #32]	@ movhi
 703:Drivers/lvgl/src/widgets/lv_table.c **** 
 1099              		.loc 1 703 5 is_stmt 1 view .LVU338
 703:Drivers/lvgl/src/widgets/lv_table.c **** 
 1100              		.loc 1 703 21 is_stmt 0 view .LVU339
 1101 00be 23F00803 		bic	r3, r3, #8
 1102 00c2 87F82230 		strb	r3, [r7, #34]
 705:Drivers/lvgl/src/widgets/lv_table.c ****     uint16_t row;
 1103              		.loc 1 705 5 is_stmt 1 view .LVU340
 706:Drivers/lvgl/src/widgets/lv_table.c ****     uint16_t cell = 0;
 1104              		.loc 1 706 5 view .LVU341
 707:Drivers/lvgl/src/widgets/lv_table.c **** 
 1105              		.loc 1 707 5 view .LVU342
 1106              	.LVL107:
 709:Drivers/lvgl/src/widgets/lv_table.c ****     lv_coord_t scroll_x = lv_obj_get_scroll_x(obj) ;
 1107              		.loc 1 709 5 view .LVU343
 709:Drivers/lvgl/src/widgets/lv_table.c ****     lv_coord_t scroll_x = lv_obj_get_scroll_x(obj) ;
 1108              		.loc 1 709 50 is_stmt 0 view .LVU344
 1109 00c6 3846     		mov	r0, r7
 709:Drivers/lvgl/src/widgets/lv_table.c ****     lv_coord_t scroll_x = lv_obj_get_scroll_x(obj) ;
 1110              		.loc 1 709 31 view .LVU345
 1111 00c8 B7F81680 		ldrh	r8, [r7, #22]
 709:Drivers/lvgl/src/widgets/lv_table.c ****     lv_coord_t scroll_x = lv_obj_get_scroll_x(obj) ;
 1112              		.loc 1 709 50 view .LVU346
 1113 00cc FFF7FEFF 		bl	lv_obj_get_scroll_y
 1114              	.LVL108:
 709:Drivers/lvgl/src/widgets/lv_table.c ****     lv_coord_t scroll_x = lv_obj_get_scroll_x(obj) ;
 1115              		.loc 1 709 75 discriminator 1 view .LVU347
 1116 00d0 AAB2     		uxth	r2, r5
 1117 00d2 1319     		adds	r3, r2, r4
 1118 00d4 013B     		subs	r3, r3, #1
 1119 00d6 9844     		add	r8, r8, r3
 1120 00d8 A8EB0008 		sub	r8, r8, r0
 710:Drivers/lvgl/src/widgets/lv_table.c ****     bool rtl = lv_obj_get_style_base_dir(obj, LV_PART_MAIN) == LV_BASE_DIR_RTL;
 1121              		.loc 1 710 27 view .LVU348
 1122 00dc 3846     		mov	r0, r7
 709:Drivers/lvgl/src/widgets/lv_table.c ****     lv_coord_t scroll_x = lv_obj_get_scroll_x(obj) ;
 1123              		.loc 1 709 75 discriminator 1 view .LVU349
 1124 00de 1392     		str	r2, [sp, #76]
 709:Drivers/lvgl/src/widgets/lv_table.c ****     lv_coord_t scroll_x = lv_obj_get_scroll_x(obj) ;
 1125              		.loc 1 709 18 discriminator 1 view .LVU350
 1126 00e0 ADF86E80 		strh	r8, [sp, #110]	@ movhi
 710:Drivers/lvgl/src/widgets/lv_table.c ****     bool rtl = lv_obj_get_style_base_dir(obj, LV_PART_MAIN) == LV_BASE_DIR_RTL;
 1127              		.loc 1 710 5 is_stmt 1 view .LVU351
 710:Drivers/lvgl/src/widgets/lv_table.c ****     bool rtl = lv_obj_get_style_base_dir(obj, LV_PART_MAIN) == LV_BASE_DIR_RTL;
ARM GAS  /var/folders/lp/x54gwt890xv47sdkqj1k04q40000gn/T//ccn9ZgyV.s 			page 57


 1128              		.loc 1 710 27 is_stmt 0 view .LVU352
 1129 00e4 FFF7FEFF 		bl	lv_obj_get_scroll_x
 1130              	.LVL109:
 1131              	.LBB196:
 1132              	.LBB197:
 567:Drivers/lvgl/src/widgets/../core/lv_obj_style_gen.h ****     return (lv_base_dir_t)v.num;
 1133              		.loc 3 567 26 view .LVU353
 1134 00e8 1622     		movs	r2, #22
 1135 00ea 0021     		movs	r1, #0
 1136              	.LBE197:
 1137              	.LBE196:
 710:Drivers/lvgl/src/widgets/lv_table.c ****     bool rtl = lv_obj_get_style_base_dir(obj, LV_PART_MAIN) == LV_BASE_DIR_RTL;
 1138              		.loc 1 710 27 view .LVU354
 1139 00ec 8146     		mov	r9, r0
 1140              	.LVL110:
 711:Drivers/lvgl/src/widgets/lv_table.c **** 
 1141              		.loc 1 711 5 is_stmt 1 view .LVU355
 1142              	.LBB200:
 1143              	.LBI196:
 565:Drivers/lvgl/src/widgets/../core/lv_obj_style_gen.h **** {
 1144              		.loc 3 565 29 view .LVU356
 1145              	.LBB198:
 567:Drivers/lvgl/src/widgets/../core/lv_obj_style_gen.h ****     return (lv_base_dir_t)v.num;
 1146              		.loc 3 567 5 view .LVU357
 567:Drivers/lvgl/src/widgets/../core/lv_obj_style_gen.h ****     return (lv_base_dir_t)v.num;
 1147              		.loc 3 567 26 is_stmt 0 view .LVU358
 1148 00ee 3846     		mov	r0, r7
 1149 00f0 FFF7FEFF 		bl	lv_obj_get_style_prop
 1150              	.LVL111:
 1151              		.loc 3 568 5 is_stmt 1 view .LVU359
 1152              	.LBE198:
 1153              	.LBE200:
 715:Drivers/lvgl/src/widgets/lv_table.c ****     part_draw_dsc.part = LV_PART_ITEMS;
 1154              		.loc 1 715 5 is_stmt 0 view .LVU360
 1155 00f4 0999     		ldr	r1, [sp, #36]
 1156              	.LBB201:
 1157              	.LBB199:
 1158              		.loc 3 568 12 view .LVU361
 1159 00f6 C6B2     		uxtb	r6, r0
 1160              	.LVL112:
 1161              		.loc 3 568 12 view .LVU362
 1162              	.LBE199:
 1163              	.LBE201:
 714:Drivers/lvgl/src/widgets/lv_table.c ****     lv_obj_draw_dsc_init(&part_draw_dsc, draw_ctx);
 1164              		.loc 1 714 5 is_stmt 1 view .LVU363
 715:Drivers/lvgl/src/widgets/lv_table.c ****     part_draw_dsc.part = LV_PART_ITEMS;
 1165              		.loc 1 715 5 view .LVU364
 1166 00f8 4EA8     		add	r0, sp, #312
 1167 00fa FFF7FEFF 		bl	lv_obj_draw_dsc_init
 1168              	.LVL113:
 716:Drivers/lvgl/src/widgets/lv_table.c ****     part_draw_dsc.class_p = MY_CLASS;
 1169              		.loc 1 716 5 view .LVU365
 717:Drivers/lvgl/src/widgets/lv_table.c ****     part_draw_dsc.type = LV_TABLE_DRAW_PART_CELL;
 1170              		.loc 1 717 27 is_stmt 0 view .LVU366
 1171 00fe 4E4B     		ldr	r3, .L131+4
 722:Drivers/lvgl/src/widgets/lv_table.c ****         lv_coord_t h_row = table->row_h[row];
 1172              		.loc 1 722 22 discriminator 1 view .LVU367
ARM GAS  /var/folders/lp/x54gwt890xv47sdkqj1k04q40000gn/T//ccn9ZgyV.s 			page 58


 1173 0100 FA8C     		ldrh	r2, [r7, #38]
 717:Drivers/lvgl/src/widgets/lv_table.c ****     part_draw_dsc.type = LV_TABLE_DRAW_PART_CELL;
 1174              		.loc 1 717 27 view .LVU368
 1175 0102 4F93     		str	r3, [sp, #316]
 719:Drivers/lvgl/src/widgets/lv_table.c ****     part_draw_dsc.label_dsc = &label_dsc_act;
 1176              		.loc 1 719 28 view .LVU369
 1177 0104 40A9     		add	r1, sp, #256
 716:Drivers/lvgl/src/widgets/lv_table.c ****     part_draw_dsc.class_p = MY_CLASS;
 1178              		.loc 1 716 24 view .LVU370
 1179 0106 4FF4A023 		mov	r3, #327680
 1180 010a 5B93     		str	r3, [sp, #364]
 717:Drivers/lvgl/src/widgets/lv_table.c ****     part_draw_dsc.type = LV_TABLE_DRAW_PART_CELL;
 1181              		.loc 1 717 5 is_stmt 1 view .LVU371
 718:Drivers/lvgl/src/widgets/lv_table.c ****     part_draw_dsc.rect_dsc = &rect_dsc_act;
 1182              		.loc 1 718 5 view .LVU372
 719:Drivers/lvgl/src/widgets/lv_table.c ****     part_draw_dsc.label_dsc = &label_dsc_act;
 1183              		.loc 1 719 28 is_stmt 0 view .LVU373
 1184 010c 5291     		str	r1, [sp, #328]
 718:Drivers/lvgl/src/widgets/lv_table.c ****     part_draw_dsc.rect_dsc = &rect_dsc_act;
 1185              		.loc 1 718 24 view .LVU374
 1186 010e 0023     		movs	r3, #0
 720:Drivers/lvgl/src/widgets/lv_table.c **** 
 1187              		.loc 1 720 29 view .LVU375
 1188 0110 2AA9     		add	r1, sp, #168
 718:Drivers/lvgl/src/widgets/lv_table.c ****     part_draw_dsc.rect_dsc = &rect_dsc_act;
 1189              		.loc 1 718 24 view .LVU376
 1190 0112 5093     		str	r3, [sp, #320]
 719:Drivers/lvgl/src/widgets/lv_table.c ****     part_draw_dsc.label_dsc = &label_dsc_act;
 1191              		.loc 1 719 5 is_stmt 1 view .LVU377
 720:Drivers/lvgl/src/widgets/lv_table.c **** 
 1192              		.loc 1 720 5 view .LVU378
 720:Drivers/lvgl/src/widgets/lv_table.c **** 
 1193              		.loc 1 720 29 is_stmt 0 view .LVU379
 1194 0114 5391     		str	r1, [sp, #332]
 722:Drivers/lvgl/src/widgets/lv_table.c ****         lv_coord_t h_row = table->row_h[row];
 1195              		.loc 1 722 5 is_stmt 1 view .LVU380
 1196              	.LVL114:
 722:Drivers/lvgl/src/widgets/lv_table.c ****         lv_coord_t h_row = table->row_h[row];
 1197              		.loc 1 722 22 discriminator 1 view .LVU381
 1198 0116 002A     		cmp	r2, #0
 1199 0118 00F0AD81 		beq	.L60
 1200              	.LBB202:
 731:Drivers/lvgl/src/widgets/lv_table.c **** 
 1201              		.loc 1 731 69 is_stmt 0 view .LVU382
 1202 011c 1399     		ldr	r1, [sp, #76]
 1203              	.LBE202:
 722:Drivers/lvgl/src/widgets/lv_table.c ****         lv_coord_t h_row = table->row_h[row];
 1204              		.loc 1 722 22 discriminator 1 view .LVU383
 1205 011e 0893     		str	r3, [sp, #32]
 1206 0120 1846     		mov	r0, r3
 1207              	.LBB255:
 731:Drivers/lvgl/src/widgets/lv_table.c **** 
 1208              		.loc 1 731 69 view .LVU384
 1209 0122 01EB0A03 		add	r3, r1, r10
 730:Drivers/lvgl/src/widgets/lv_table.c ****         else cell_area.x2 = obj->coords.x1 + bg_left - 1 - scroll_x + border_width;
 1210              		.loc 1 730 62 discriminator 1 view .LVU385
 1211 0126 1FFA89F9 		uxth	r9, r9
ARM GAS  /var/folders/lp/x54gwt890xv47sdkqj1k04q40000gn/T//ccn9ZgyV.s 			page 59


 731:Drivers/lvgl/src/widgets/lv_table.c **** 
 1212              		.loc 1 731 69 view .LVU386
 1213 012a 591E     		subs	r1, r3, #1
 1214 012c 1291     		str	r1, [sp, #72]
 1215              	.LBE255:
 707:Drivers/lvgl/src/widgets/lv_table.c **** 
 1216              		.loc 1 707 14 view .LVU387
 1217 012e 0446     		mov	r4, r0
 707:Drivers/lvgl/src/widgets/lv_table.c **** 
 1218              		.loc 1 707 14 view .LVU388
 1219 0130 CDF84090 		str	r9, [sp, #64]
 1220              	.LVL115:
 1221              	.L59:
 1222              	.LBB256:
 723:Drivers/lvgl/src/widgets/lv_table.c **** 
 1223              		.loc 1 723 9 is_stmt 1 view .LVU389
 723:Drivers/lvgl/src/widgets/lv_table.c **** 
 1224              		.loc 1 723 20 is_stmt 0 view .LVU390
 1225 0134 0899     		ldr	r1, [sp, #32]
 1226 0136 FB6A     		ldr	r3, [r7, #44]
 725:Drivers/lvgl/src/widgets/lv_table.c ****         cell_area.y2 = cell_area.y1 + h_row - 1;
 1227              		.loc 1 725 33 view .LVU391
 1228 0138 BDF86EA0 		ldrh	r10, [sp, #110]
 723:Drivers/lvgl/src/widgets/lv_table.c **** 
 1229              		.loc 1 723 20 view .LVU392
 1230 013c 33F91130 		ldrsh	r3, [r3, r1, lsl #1]
 1231              	.LVL116:
 725:Drivers/lvgl/src/widgets/lv_table.c ****         cell_area.y2 = cell_area.y1 + h_row - 1;
 1232              		.loc 1 725 9 is_stmt 1 view .LVU393
 728:Drivers/lvgl/src/widgets/lv_table.c **** 
 1233              		.loc 1 728 11 is_stmt 0 view .LVU394
 1234 0140 BDF96600 		ldrsh	r0, [sp, #102]
 725:Drivers/lvgl/src/widgets/lv_table.c ****         cell_area.y2 = cell_area.y1 + h_row - 1;
 1235              		.loc 1 725 37 view .LVU395
 1236 0144 0AF10101 		add	r1, r10, #1
 1237 0148 09B2     		sxth	r1, r1
 726:Drivers/lvgl/src/widgets/lv_table.c **** 
 1238              		.loc 1 726 45 view .LVU396
 1239 014a 9A44     		add	r10, r10, r3
 1240 014c 0FFA8AFA 		sxth	r10, r10
 728:Drivers/lvgl/src/widgets/lv_table.c **** 
 1241              		.loc 1 728 11 view .LVU397
 1242 0150 8842     		cmp	r0, r1
 725:Drivers/lvgl/src/widgets/lv_table.c ****         cell_area.y2 = cell_area.y1 + h_row - 1;
 1243              		.loc 1 725 22 view .LVU398
 1244 0152 ADF86A10 		strh	r1, [sp, #106]	@ movhi
 726:Drivers/lvgl/src/widgets/lv_table.c **** 
 1245              		.loc 1 726 9 is_stmt 1 view .LVU399
 726:Drivers/lvgl/src/widgets/lv_table.c **** 
 1246              		.loc 1 726 22 is_stmt 0 view .LVU400
 1247 0156 ADF86EA0 		strh	r10, [sp, #110]	@ movhi
 728:Drivers/lvgl/src/widgets/lv_table.c **** 
 1248              		.loc 1 728 9 is_stmt 1 view .LVU401
 728:Drivers/lvgl/src/widgets/lv_table.c **** 
 1249              		.loc 1 728 11 is_stmt 0 view .LVU402
 1250 015a C0F28C81 		blt	.L60
 730:Drivers/lvgl/src/widgets/lv_table.c ****         else cell_area.x2 = obj->coords.x1 + bg_left - 1 - scroll_x + border_width;
ARM GAS  /var/folders/lp/x54gwt890xv47sdkqj1k04q40000gn/T//ccn9ZgyV.s 			page 60


 1251              		.loc 1 730 9 is_stmt 1 view .LVU403
 730:Drivers/lvgl/src/widgets/lv_table.c ****         else cell_area.x2 = obj->coords.x1 + bg_left - 1 - scroll_x + border_width;
 1252              		.loc 1 730 11 is_stmt 0 view .LVU404
 1253 015e 012E     		cmp	r6, #1
 1254 0160 00F0E681 		beq	.L124
 731:Drivers/lvgl/src/widgets/lv_table.c **** 
 1255              		.loc 1 731 14 is_stmt 1 view .LVU405
 731:Drivers/lvgl/src/widgets/lv_table.c **** 
 1256              		.loc 1 731 69 is_stmt 0 view .LVU406
 1257 0164 1298     		ldr	r0, [sp, #72]
 1258 0166 B98A     		ldrh	r1, [r7, #20]
 1259 0168 0144     		add	r1, r1, r0
 1260 016a 1098     		ldr	r0, [sp, #64]
 1261 016c 091A     		subs	r1, r1, r0
 731:Drivers/lvgl/src/widgets/lv_table.c **** 
 1262              		.loc 1 731 27 view .LVU407
 1263 016e ADF86C10 		strh	r1, [sp, #108]	@ movhi
 1264              	.L62:
 1265              	.LVL117:
 733:Drivers/lvgl/src/widgets/lv_table.c ****             lv_table_cell_ctrl_t ctrl = 0;
 1266              		.loc 1 733 26 is_stmt 1 discriminator 1 view .LVU408
 733:Drivers/lvgl/src/widgets/lv_table.c ****             lv_table_cell_ctrl_t ctrl = 0;
 1267              		.loc 1 733 33 is_stmt 0 discriminator 1 view .LVU409
 1268 0172 B7F824B0 		ldrh	fp, [r7, #36]
 733:Drivers/lvgl/src/widgets/lv_table.c ****             lv_table_cell_ctrl_t ctrl = 0;
 1269              		.loc 1 733 26 discriminator 1 view .LVU410
 1270 0176 BBF1000F 		cmp	fp, #0
 1271 017a 00F07581 		beq	.L89
 1272              	.LBB203:
 1273              	.LBB204:
 841:Drivers/lvgl/src/widgets/lv_table.c ****                     txt_area.y2 = cell_area.y1 + h_row / 2 + txt_size.y / 2;
 1274              		.loc 1 841 48 view .LVU411
 1275 017e 03EBD373 		add	r3, r3, r3, lsr #31
 1276              	.LVL118:
 841:Drivers/lvgl/src/widgets/lv_table.c ****                     txt_area.y2 = cell_area.y1 + h_row / 2 + txt_size.y / 2;
 1277              		.loc 1 841 48 view .LVU412
 1278 0182 C3F34F03 		ubfx	r3, r3, #1, #16
 1279 0186 0F93     		str	r3, [sp, #60]
 1280              	.LBE204:
 788:Drivers/lvgl/src/widgets/lv_table.c ****                 if(!(obj->state & LV_STATE_SCROLLED) && (obj->state & LV_STATE_PRESSED)) cell_state
 1281              		.loc 1 788 15 view .LVU413
 1282 0188 BDF82030 		ldrh	r3, [sp, #32]
 1283 018c 0A93     		str	r3, [sp, #40]
 1284              	.LBB229:
 841:Drivers/lvgl/src/widgets/lv_table.c ****                     txt_area.y2 = cell_area.y1 + h_row / 2 + txt_size.y / 2;
 1285              		.loc 1 841 48 view .LVU414
 1286 018e 4FF00008 		mov	r8, #0
 1287              	.LBE229:
 1288              	.LBB230:
 1289              	.LBB231:
 1290              		.file 4 "Drivers/lvgl/src/widgets/../core/../misc/../font/../misc/lv_area.h"
   1:Drivers/lvgl/src/widgets/../core/../misc/../font/../misc/lv_area.h **** /**
   2:Drivers/lvgl/src/widgets/../core/../misc/../font/../misc/lv_area.h ****  * @file lv_area.h
   3:Drivers/lvgl/src/widgets/../core/../misc/../font/../misc/lv_area.h ****  *
   4:Drivers/lvgl/src/widgets/../core/../misc/../font/../misc/lv_area.h ****  */
   5:Drivers/lvgl/src/widgets/../core/../misc/../font/../misc/lv_area.h **** 
   6:Drivers/lvgl/src/widgets/../core/../misc/../font/../misc/lv_area.h **** #ifndef LV_AREA_H
ARM GAS  /var/folders/lp/x54gwt890xv47sdkqj1k04q40000gn/T//ccn9ZgyV.s 			page 61


   7:Drivers/lvgl/src/widgets/../core/../misc/../font/../misc/lv_area.h **** #define LV_AREA_H
   8:Drivers/lvgl/src/widgets/../core/../misc/../font/../misc/lv_area.h **** 
   9:Drivers/lvgl/src/widgets/../core/../misc/../font/../misc/lv_area.h **** #ifdef __cplusplus
  10:Drivers/lvgl/src/widgets/../core/../misc/../font/../misc/lv_area.h **** extern "C" {
  11:Drivers/lvgl/src/widgets/../core/../misc/../font/../misc/lv_area.h **** #endif
  12:Drivers/lvgl/src/widgets/../core/../misc/../font/../misc/lv_area.h **** 
  13:Drivers/lvgl/src/widgets/../core/../misc/../font/../misc/lv_area.h **** /*********************
  14:Drivers/lvgl/src/widgets/../core/../misc/../font/../misc/lv_area.h ****  *      INCLUDES
  15:Drivers/lvgl/src/widgets/../core/../misc/../font/../misc/lv_area.h ****  *********************/
  16:Drivers/lvgl/src/widgets/../core/../misc/../font/../misc/lv_area.h **** #include "../lv_conf_internal.h"
  17:Drivers/lvgl/src/widgets/../core/../misc/../font/../misc/lv_area.h **** #include <stdbool.h>
  18:Drivers/lvgl/src/widgets/../core/../misc/../font/../misc/lv_area.h **** #include <stdint.h>
  19:Drivers/lvgl/src/widgets/../core/../misc/../font/../misc/lv_area.h **** 
  20:Drivers/lvgl/src/widgets/../core/../misc/../font/../misc/lv_area.h **** /*********************
  21:Drivers/lvgl/src/widgets/../core/../misc/../font/../misc/lv_area.h ****  *      DEFINES
  22:Drivers/lvgl/src/widgets/../core/../misc/../font/../misc/lv_area.h ****  *********************/
  23:Drivers/lvgl/src/widgets/../core/../misc/../font/../misc/lv_area.h **** 
  24:Drivers/lvgl/src/widgets/../core/../misc/../font/../misc/lv_area.h **** #if LV_USE_LARGE_COORD
  25:Drivers/lvgl/src/widgets/../core/../misc/../font/../misc/lv_area.h **** typedef int32_t lv_coord_t;
  26:Drivers/lvgl/src/widgets/../core/../misc/../font/../misc/lv_area.h **** #else
  27:Drivers/lvgl/src/widgets/../core/../misc/../font/../misc/lv_area.h **** typedef int16_t lv_coord_t;
  28:Drivers/lvgl/src/widgets/../core/../misc/../font/../misc/lv_area.h **** #endif
  29:Drivers/lvgl/src/widgets/../core/../misc/../font/../misc/lv_area.h **** 
  30:Drivers/lvgl/src/widgets/../core/../misc/../font/../misc/lv_area.h **** /**********************
  31:Drivers/lvgl/src/widgets/../core/../misc/../font/../misc/lv_area.h ****  *      TYPEDEFS
  32:Drivers/lvgl/src/widgets/../core/../misc/../font/../misc/lv_area.h ****  **********************/
  33:Drivers/lvgl/src/widgets/../core/../misc/../font/../misc/lv_area.h **** 
  34:Drivers/lvgl/src/widgets/../core/../misc/../font/../misc/lv_area.h **** /**
  35:Drivers/lvgl/src/widgets/../core/../misc/../font/../misc/lv_area.h ****  * Represents a point on the screen.
  36:Drivers/lvgl/src/widgets/../core/../misc/../font/../misc/lv_area.h ****  */
  37:Drivers/lvgl/src/widgets/../core/../misc/../font/../misc/lv_area.h **** typedef struct {
  38:Drivers/lvgl/src/widgets/../core/../misc/../font/../misc/lv_area.h ****     lv_coord_t x;
  39:Drivers/lvgl/src/widgets/../core/../misc/../font/../misc/lv_area.h ****     lv_coord_t y;
  40:Drivers/lvgl/src/widgets/../core/../misc/../font/../misc/lv_area.h **** } lv_point_t;
  41:Drivers/lvgl/src/widgets/../core/../misc/../font/../misc/lv_area.h **** 
  42:Drivers/lvgl/src/widgets/../core/../misc/../font/../misc/lv_area.h **** /** Represents an area of the screen.*/
  43:Drivers/lvgl/src/widgets/../core/../misc/../font/../misc/lv_area.h **** typedef struct {
  44:Drivers/lvgl/src/widgets/../core/../misc/../font/../misc/lv_area.h ****     lv_coord_t x1;
  45:Drivers/lvgl/src/widgets/../core/../misc/../font/../misc/lv_area.h ****     lv_coord_t y1;
  46:Drivers/lvgl/src/widgets/../core/../misc/../font/../misc/lv_area.h ****     lv_coord_t x2;
  47:Drivers/lvgl/src/widgets/../core/../misc/../font/../misc/lv_area.h ****     lv_coord_t y2;
  48:Drivers/lvgl/src/widgets/../core/../misc/../font/../misc/lv_area.h **** } lv_area_t;
  49:Drivers/lvgl/src/widgets/../core/../misc/../font/../misc/lv_area.h **** 
  50:Drivers/lvgl/src/widgets/../core/../misc/../font/../misc/lv_area.h **** /** Alignments*/
  51:Drivers/lvgl/src/widgets/../core/../misc/../font/../misc/lv_area.h **** enum {
  52:Drivers/lvgl/src/widgets/../core/../misc/../font/../misc/lv_area.h ****     LV_ALIGN_DEFAULT = 0,
  53:Drivers/lvgl/src/widgets/../core/../misc/../font/../misc/lv_area.h ****     LV_ALIGN_TOP_LEFT,
  54:Drivers/lvgl/src/widgets/../core/../misc/../font/../misc/lv_area.h ****     LV_ALIGN_TOP_MID,
  55:Drivers/lvgl/src/widgets/../core/../misc/../font/../misc/lv_area.h ****     LV_ALIGN_TOP_RIGHT,
  56:Drivers/lvgl/src/widgets/../core/../misc/../font/../misc/lv_area.h ****     LV_ALIGN_BOTTOM_LEFT,
  57:Drivers/lvgl/src/widgets/../core/../misc/../font/../misc/lv_area.h ****     LV_ALIGN_BOTTOM_MID,
  58:Drivers/lvgl/src/widgets/../core/../misc/../font/../misc/lv_area.h ****     LV_ALIGN_BOTTOM_RIGHT,
  59:Drivers/lvgl/src/widgets/../core/../misc/../font/../misc/lv_area.h ****     LV_ALIGN_LEFT_MID,
  60:Drivers/lvgl/src/widgets/../core/../misc/../font/../misc/lv_area.h ****     LV_ALIGN_RIGHT_MID,
  61:Drivers/lvgl/src/widgets/../core/../misc/../font/../misc/lv_area.h ****     LV_ALIGN_CENTER,
  62:Drivers/lvgl/src/widgets/../core/../misc/../font/../misc/lv_area.h **** 
  63:Drivers/lvgl/src/widgets/../core/../misc/../font/../misc/lv_area.h ****     LV_ALIGN_OUT_TOP_LEFT,
ARM GAS  /var/folders/lp/x54gwt890xv47sdkqj1k04q40000gn/T//ccn9ZgyV.s 			page 62


  64:Drivers/lvgl/src/widgets/../core/../misc/../font/../misc/lv_area.h ****     LV_ALIGN_OUT_TOP_MID,
  65:Drivers/lvgl/src/widgets/../core/../misc/../font/../misc/lv_area.h ****     LV_ALIGN_OUT_TOP_RIGHT,
  66:Drivers/lvgl/src/widgets/../core/../misc/../font/../misc/lv_area.h ****     LV_ALIGN_OUT_BOTTOM_LEFT,
  67:Drivers/lvgl/src/widgets/../core/../misc/../font/../misc/lv_area.h ****     LV_ALIGN_OUT_BOTTOM_MID,
  68:Drivers/lvgl/src/widgets/../core/../misc/../font/../misc/lv_area.h ****     LV_ALIGN_OUT_BOTTOM_RIGHT,
  69:Drivers/lvgl/src/widgets/../core/../misc/../font/../misc/lv_area.h ****     LV_ALIGN_OUT_LEFT_TOP,
  70:Drivers/lvgl/src/widgets/../core/../misc/../font/../misc/lv_area.h ****     LV_ALIGN_OUT_LEFT_MID,
  71:Drivers/lvgl/src/widgets/../core/../misc/../font/../misc/lv_area.h ****     LV_ALIGN_OUT_LEFT_BOTTOM,
  72:Drivers/lvgl/src/widgets/../core/../misc/../font/../misc/lv_area.h ****     LV_ALIGN_OUT_RIGHT_TOP,
  73:Drivers/lvgl/src/widgets/../core/../misc/../font/../misc/lv_area.h ****     LV_ALIGN_OUT_RIGHT_MID,
  74:Drivers/lvgl/src/widgets/../core/../misc/../font/../misc/lv_area.h ****     LV_ALIGN_OUT_RIGHT_BOTTOM,
  75:Drivers/lvgl/src/widgets/../core/../misc/../font/../misc/lv_area.h **** };
  76:Drivers/lvgl/src/widgets/../core/../misc/../font/../misc/lv_area.h **** typedef uint8_t lv_align_t;
  77:Drivers/lvgl/src/widgets/../core/../misc/../font/../misc/lv_area.h **** 
  78:Drivers/lvgl/src/widgets/../core/../misc/../font/../misc/lv_area.h **** enum {
  79:Drivers/lvgl/src/widgets/../core/../misc/../font/../misc/lv_area.h ****     LV_DIR_NONE     = 0x00,
  80:Drivers/lvgl/src/widgets/../core/../misc/../font/../misc/lv_area.h ****     LV_DIR_LEFT     = (1 << 0),
  81:Drivers/lvgl/src/widgets/../core/../misc/../font/../misc/lv_area.h ****     LV_DIR_RIGHT    = (1 << 1),
  82:Drivers/lvgl/src/widgets/../core/../misc/../font/../misc/lv_area.h ****     LV_DIR_TOP      = (1 << 2),
  83:Drivers/lvgl/src/widgets/../core/../misc/../font/../misc/lv_area.h ****     LV_DIR_BOTTOM   = (1 << 3),
  84:Drivers/lvgl/src/widgets/../core/../misc/../font/../misc/lv_area.h ****     LV_DIR_HOR      = LV_DIR_LEFT | LV_DIR_RIGHT,
  85:Drivers/lvgl/src/widgets/../core/../misc/../font/../misc/lv_area.h ****     LV_DIR_VER      = LV_DIR_TOP | LV_DIR_BOTTOM,
  86:Drivers/lvgl/src/widgets/../core/../misc/../font/../misc/lv_area.h ****     LV_DIR_ALL      = LV_DIR_HOR | LV_DIR_VER,
  87:Drivers/lvgl/src/widgets/../core/../misc/../font/../misc/lv_area.h **** };
  88:Drivers/lvgl/src/widgets/../core/../misc/../font/../misc/lv_area.h **** 
  89:Drivers/lvgl/src/widgets/../core/../misc/../font/../misc/lv_area.h **** typedef uint8_t lv_dir_t;
  90:Drivers/lvgl/src/widgets/../core/../misc/../font/../misc/lv_area.h **** 
  91:Drivers/lvgl/src/widgets/../core/../misc/../font/../misc/lv_area.h **** /**********************
  92:Drivers/lvgl/src/widgets/../core/../misc/../font/../misc/lv_area.h ****  * GLOBAL PROTOTYPES
  93:Drivers/lvgl/src/widgets/../core/../misc/../font/../misc/lv_area.h ****  **********************/
  94:Drivers/lvgl/src/widgets/../core/../misc/../font/../misc/lv_area.h **** 
