ARM GAS  /var/folders/0z/tsy30v1j4xl4_7kw94k978ww0000gn/T//ccd8hcN4.s 			page 1


   1              		.cpu cortex-m4
   2              		.arch armv7e-m
   3              		.fpu fpv4-sp-d16
   4              		.eabi_attribute 27, 1
   5              		.eabi_attribute 28, 1
   6              		.eabi_attribute 23, 1
   7              		.eabi_attribute 24, 1
   8              		.eabi_attribute 25, 1
   9              		.eabi_attribute 26, 1
  10              		.eabi_attribute 30, 2
  11              		.eabi_attribute 34, 1
  12              		.eabi_attribute 18, 4
  13              		.file	"lv_txt.c"
  14              		.text
  15              	.Ltext0:
  16              		.cfi_sections	.debug_frame
  17              		.section	.text.lv_txt_utf8_size,"ax",%progbits
  18              		.align	1
  19              		.p2align 2,,3
  20              		.syntax unified
  21              		.thumb
  22              		.thumb_func
  24              	lv_txt_utf8_size:
  25              	.LVL0:
  26              	.LFB64:
  27              		.file 1 "Drivers/lvgl/src/misc/lv_txt.c"
   1:Drivers/lvgl/src/misc/lv_txt.c **** /**
   2:Drivers/lvgl/src/misc/lv_txt.c ****  * @file lv_txt.c
   3:Drivers/lvgl/src/misc/lv_txt.c ****  *
   4:Drivers/lvgl/src/misc/lv_txt.c ****  */
   5:Drivers/lvgl/src/misc/lv_txt.c **** 
   6:Drivers/lvgl/src/misc/lv_txt.c **** /*********************
   7:Drivers/lvgl/src/misc/lv_txt.c ****  *      INCLUDES
   8:Drivers/lvgl/src/misc/lv_txt.c ****  *********************/
   9:Drivers/lvgl/src/misc/lv_txt.c **** #include <stdarg.h>
  10:Drivers/lvgl/src/misc/lv_txt.c **** #include "lv_txt.h"
  11:Drivers/lvgl/src/misc/lv_txt.c **** #include "lv_txt_ap.h"
  12:Drivers/lvgl/src/misc/lv_txt.c **** #include "lv_math.h"
  13:Drivers/lvgl/src/misc/lv_txt.c **** #include "lv_log.h"
  14:Drivers/lvgl/src/misc/lv_txt.c **** #include "lv_mem.h"
  15:Drivers/lvgl/src/misc/lv_txt.c **** #include "lv_assert.h"
  16:Drivers/lvgl/src/misc/lv_txt.c **** 
  17:Drivers/lvgl/src/misc/lv_txt.c **** /*********************
  18:Drivers/lvgl/src/misc/lv_txt.c ****  *      DEFINES
  19:Drivers/lvgl/src/misc/lv_txt.c ****  *********************/
  20:Drivers/lvgl/src/misc/lv_txt.c **** #define NO_BREAK_FOUND UINT32_MAX
  21:Drivers/lvgl/src/misc/lv_txt.c **** 
  22:Drivers/lvgl/src/misc/lv_txt.c **** /**********************
  23:Drivers/lvgl/src/misc/lv_txt.c ****  *      TYPEDEFS
  24:Drivers/lvgl/src/misc/lv_txt.c ****  **********************/
  25:Drivers/lvgl/src/misc/lv_txt.c **** 
  26:Drivers/lvgl/src/misc/lv_txt.c **** /**********************
  27:Drivers/lvgl/src/misc/lv_txt.c ****  *  STATIC PROTOTYPES
  28:Drivers/lvgl/src/misc/lv_txt.c ****  **********************/
  29:Drivers/lvgl/src/misc/lv_txt.c **** 
  30:Drivers/lvgl/src/misc/lv_txt.c **** #if LV_TXT_ENC == LV_TXT_ENC_UTF8
  31:Drivers/lvgl/src/misc/lv_txt.c ****     static uint8_t lv_txt_utf8_size(const char * str);
ARM GAS  /var/folders/0z/tsy30v1j4xl4_7kw94k978ww0000gn/T//ccd8hcN4.s 			page 2


  32:Drivers/lvgl/src/misc/lv_txt.c ****     static uint32_t lv_txt_unicode_to_utf8(uint32_t letter_uni);
  33:Drivers/lvgl/src/misc/lv_txt.c ****     static uint32_t lv_txt_utf8_conv_wc(uint32_t c);
  34:Drivers/lvgl/src/misc/lv_txt.c ****     static uint32_t lv_txt_utf8_next(const char * txt, uint32_t * i);
  35:Drivers/lvgl/src/misc/lv_txt.c ****     static uint32_t lv_txt_utf8_prev(const char * txt, uint32_t * i_start);
  36:Drivers/lvgl/src/misc/lv_txt.c ****     static uint32_t lv_txt_utf8_get_byte_id(const char * txt, uint32_t utf8_id);
  37:Drivers/lvgl/src/misc/lv_txt.c ****     static uint32_t lv_txt_utf8_get_char_id(const char * txt, uint32_t byte_id);
  38:Drivers/lvgl/src/misc/lv_txt.c ****     static uint32_t lv_txt_utf8_get_length(const char * txt);
  39:Drivers/lvgl/src/misc/lv_txt.c **** #elif LV_TXT_ENC == LV_TXT_ENC_ASCII
  40:Drivers/lvgl/src/misc/lv_txt.c ****     static uint8_t lv_txt_iso8859_1_size(const char * str);
  41:Drivers/lvgl/src/misc/lv_txt.c ****     static uint32_t lv_txt_unicode_to_iso8859_1(uint32_t letter_uni);
  42:Drivers/lvgl/src/misc/lv_txt.c ****     static uint32_t lv_txt_iso8859_1_conv_wc(uint32_t c);
  43:Drivers/lvgl/src/misc/lv_txt.c ****     static uint32_t lv_txt_iso8859_1_next(const char * txt, uint32_t * i);
  44:Drivers/lvgl/src/misc/lv_txt.c ****     static uint32_t lv_txt_iso8859_1_prev(const char * txt, uint32_t * i_start);
  45:Drivers/lvgl/src/misc/lv_txt.c ****     static uint32_t lv_txt_iso8859_1_get_byte_id(const char * txt, uint32_t utf8_id);
  46:Drivers/lvgl/src/misc/lv_txt.c ****     static uint32_t lv_txt_iso8859_1_get_char_id(const char * txt, uint32_t byte_id);
  47:Drivers/lvgl/src/misc/lv_txt.c ****     static uint32_t lv_txt_iso8859_1_get_length(const char * txt);
  48:Drivers/lvgl/src/misc/lv_txt.c **** #endif
  49:Drivers/lvgl/src/misc/lv_txt.c **** /**********************
  50:Drivers/lvgl/src/misc/lv_txt.c ****  *  STATIC VARIABLES
  51:Drivers/lvgl/src/misc/lv_txt.c ****  **********************/
  52:Drivers/lvgl/src/misc/lv_txt.c **** 
  53:Drivers/lvgl/src/misc/lv_txt.c **** /**********************
  54:Drivers/lvgl/src/misc/lv_txt.c ****  *  GLOBAL VARIABLES
  55:Drivers/lvgl/src/misc/lv_txt.c ****  **********************/
  56:Drivers/lvgl/src/misc/lv_txt.c **** #if LV_TXT_ENC == LV_TXT_ENC_UTF8
  57:Drivers/lvgl/src/misc/lv_txt.c ****     uint8_t (*_lv_txt_encoded_size)(const char *)                   = lv_txt_utf8_size;
  58:Drivers/lvgl/src/misc/lv_txt.c ****     uint32_t (*_lv_txt_unicode_to_encoded)(uint32_t)                = lv_txt_unicode_to_utf8;
  59:Drivers/lvgl/src/misc/lv_txt.c ****     uint32_t (*_lv_txt_encoded_conv_wc)(uint32_t)                   = lv_txt_utf8_conv_wc;
  60:Drivers/lvgl/src/misc/lv_txt.c ****     uint32_t (*_lv_txt_encoded_next)(const char *, uint32_t *)      = lv_txt_utf8_next;
  61:Drivers/lvgl/src/misc/lv_txt.c ****     uint32_t (*_lv_txt_encoded_prev)(const char *, uint32_t *)      = lv_txt_utf8_prev;
  62:Drivers/lvgl/src/misc/lv_txt.c ****     uint32_t (*_lv_txt_encoded_get_byte_id)(const char *, uint32_t) = lv_txt_utf8_get_byte_id;
  63:Drivers/lvgl/src/misc/lv_txt.c ****     uint32_t (*_lv_txt_encoded_get_char_id)(const char *, uint32_t) = lv_txt_utf8_get_char_id;
  64:Drivers/lvgl/src/misc/lv_txt.c ****     uint32_t (*_lv_txt_get_encoded_length)(const char *)            = lv_txt_utf8_get_length;
  65:Drivers/lvgl/src/misc/lv_txt.c **** #elif LV_TXT_ENC == LV_TXT_ENC_ASCII
  66:Drivers/lvgl/src/misc/lv_txt.c ****     uint8_t (*_lv_txt_encoded_size)(const char *)                   = lv_txt_iso8859_1_size;
  67:Drivers/lvgl/src/misc/lv_txt.c ****     uint32_t (*_lv_txt_unicode_to_encoded)(uint32_t)                = lv_txt_unicode_to_iso8859_1;
  68:Drivers/lvgl/src/misc/lv_txt.c ****     uint32_t (*_lv_txt_encoded_conv_wc)(uint32_t)                   = lv_txt_iso8859_1_conv_wc;
  69:Drivers/lvgl/src/misc/lv_txt.c ****     uint32_t (*_lv_txt_encoded_next)(const char *, uint32_t *)      = lv_txt_iso8859_1_next;
  70:Drivers/lvgl/src/misc/lv_txt.c ****     uint32_t (*_lv_txt_encoded_prev)(const char *, uint32_t *)      = lv_txt_iso8859_1_prev;
  71:Drivers/lvgl/src/misc/lv_txt.c ****     uint32_t (*_lv_txt_encoded_get_byte_id)(const char *, uint32_t) = lv_txt_iso8859_1_get_byte_id;
  72:Drivers/lvgl/src/misc/lv_txt.c ****     uint32_t (*_lv_txt_encoded_get_char_id)(const char *, uint32_t)     = lv_txt_iso8859_1_get_char
  73:Drivers/lvgl/src/misc/lv_txt.c ****     uint32_t (*_lv_txt_get_encoded_length)(const char *)            = lv_txt_iso8859_1_get_length;
  74:Drivers/lvgl/src/misc/lv_txt.c **** 
  75:Drivers/lvgl/src/misc/lv_txt.c **** #endif
  76:Drivers/lvgl/src/misc/lv_txt.c **** 
  77:Drivers/lvgl/src/misc/lv_txt.c **** /**********************
  78:Drivers/lvgl/src/misc/lv_txt.c ****  *      MACROS
  79:Drivers/lvgl/src/misc/lv_txt.c ****  **********************/
  80:Drivers/lvgl/src/misc/lv_txt.c **** 
  81:Drivers/lvgl/src/misc/lv_txt.c **** #define LV_IS_ASCII(value)              ((value & 0x80U) == 0x00U)
  82:Drivers/lvgl/src/misc/lv_txt.c **** #define LV_IS_2BYTES_UTF8_CODE(value)   ((value & 0xE0U) == 0xC0U)
  83:Drivers/lvgl/src/misc/lv_txt.c **** #define LV_IS_3BYTES_UTF8_CODE(value)   ((value & 0xF0U) == 0xE0U)
  84:Drivers/lvgl/src/misc/lv_txt.c **** #define LV_IS_4BYTES_UTF8_CODE(value)   ((value & 0xF8U) == 0xF0U)
  85:Drivers/lvgl/src/misc/lv_txt.c **** #define LV_IS_INVALID_UTF8_CODE(value)  ((value & 0xC0U) != 0x80U)
  86:Drivers/lvgl/src/misc/lv_txt.c **** 
  87:Drivers/lvgl/src/misc/lv_txt.c **** /**********************
  88:Drivers/lvgl/src/misc/lv_txt.c ****  *   GLOBAL FUNCTIONS
ARM GAS  /var/folders/0z/tsy30v1j4xl4_7kw94k978ww0000gn/T//ccd8hcN4.s 			page 3


  89:Drivers/lvgl/src/misc/lv_txt.c ****  **********************/
  90:Drivers/lvgl/src/misc/lv_txt.c **** 
  91:Drivers/lvgl/src/misc/lv_txt.c **** void lv_txt_get_size(lv_point_t * size_res, const char * text, const lv_font_t * font, lv_coord_t l
  92:Drivers/lvgl/src/misc/lv_txt.c ****                      lv_coord_t line_space, lv_coord_t max_width, lv_text_flag_t flag)
  93:Drivers/lvgl/src/misc/lv_txt.c **** {
  94:Drivers/lvgl/src/misc/lv_txt.c ****     size_res->x = 0;
  95:Drivers/lvgl/src/misc/lv_txt.c ****     size_res->y = 0;
  96:Drivers/lvgl/src/misc/lv_txt.c **** 
  97:Drivers/lvgl/src/misc/lv_txt.c ****     if(text == NULL) return;
  98:Drivers/lvgl/src/misc/lv_txt.c ****     if(font == NULL) return;
  99:Drivers/lvgl/src/misc/lv_txt.c **** 
 100:Drivers/lvgl/src/misc/lv_txt.c ****     if(flag & LV_TEXT_FLAG_EXPAND) max_width = LV_COORD_MAX;
 101:Drivers/lvgl/src/misc/lv_txt.c **** 
 102:Drivers/lvgl/src/misc/lv_txt.c ****     uint32_t line_start     = 0;
 103:Drivers/lvgl/src/misc/lv_txt.c ****     uint32_t new_line_start = 0;
 104:Drivers/lvgl/src/misc/lv_txt.c ****     uint16_t letter_height = lv_font_get_line_height(font);
 105:Drivers/lvgl/src/misc/lv_txt.c **** 
 106:Drivers/lvgl/src/misc/lv_txt.c ****     /*Calc. the height and longest line*/
 107:Drivers/lvgl/src/misc/lv_txt.c ****     while(text[line_start] != '\0') {
 108:Drivers/lvgl/src/misc/lv_txt.c ****         new_line_start += _lv_txt_get_next_line(&text[line_start], font, letter_space, max_width, N
 109:Drivers/lvgl/src/misc/lv_txt.c **** 
 110:Drivers/lvgl/src/misc/lv_txt.c ****         if((unsigned long)size_res->y + (unsigned long)letter_height + (unsigned long)line_space > 
 111:Drivers/lvgl/src/misc/lv_txt.c ****             LV_LOG_WARN("lv_txt_get_size: integer overflow while calculating text height");
 112:Drivers/lvgl/src/misc/lv_txt.c ****             return;
 113:Drivers/lvgl/src/misc/lv_txt.c ****         }
 114:Drivers/lvgl/src/misc/lv_txt.c ****         else {
 115:Drivers/lvgl/src/misc/lv_txt.c ****             size_res->y += letter_height;
 116:Drivers/lvgl/src/misc/lv_txt.c ****             size_res->y += line_space;
 117:Drivers/lvgl/src/misc/lv_txt.c ****         }
 118:Drivers/lvgl/src/misc/lv_txt.c **** 
 119:Drivers/lvgl/src/misc/lv_txt.c ****         /*Calculate the longest line*/
 120:Drivers/lvgl/src/misc/lv_txt.c ****         lv_coord_t act_line_length = lv_txt_get_width(&text[line_start], new_line_start - line_star
 121:Drivers/lvgl/src/misc/lv_txt.c ****                                                       flag);
 122:Drivers/lvgl/src/misc/lv_txt.c **** 
 123:Drivers/lvgl/src/misc/lv_txt.c ****         size_res->x = LV_MAX(act_line_length, size_res->x);
 124:Drivers/lvgl/src/misc/lv_txt.c ****         line_start  = new_line_start;
 125:Drivers/lvgl/src/misc/lv_txt.c ****     }
 126:Drivers/lvgl/src/misc/lv_txt.c **** 
 127:Drivers/lvgl/src/misc/lv_txt.c ****     /*Make the text one line taller if the last character is '\n' or '\r'*/
 128:Drivers/lvgl/src/misc/lv_txt.c ****     if((line_start != 0) && (text[line_start - 1] == '\n' || text[line_start - 1] == '\r')) {
 129:Drivers/lvgl/src/misc/lv_txt.c ****         size_res->y += letter_height + line_space;
 130:Drivers/lvgl/src/misc/lv_txt.c ****     }
 131:Drivers/lvgl/src/misc/lv_txt.c **** 
 132:Drivers/lvgl/src/misc/lv_txt.c ****     /*Correction with the last line space or set the height manually if the text is empty*/
 133:Drivers/lvgl/src/misc/lv_txt.c ****     if(size_res->y == 0)
 134:Drivers/lvgl/src/misc/lv_txt.c ****         size_res->y = letter_height;
 135:Drivers/lvgl/src/misc/lv_txt.c ****     else
 136:Drivers/lvgl/src/misc/lv_txt.c ****         size_res->y -= line_space;
 137:Drivers/lvgl/src/misc/lv_txt.c **** }
 138:Drivers/lvgl/src/misc/lv_txt.c **** 
 139:Drivers/lvgl/src/misc/lv_txt.c **** /**
 140:Drivers/lvgl/src/misc/lv_txt.c ****  * Get the next word of text. A word is delimited by break characters.
 141:Drivers/lvgl/src/misc/lv_txt.c ****  *
 142:Drivers/lvgl/src/misc/lv_txt.c ****  * If the word cannot fit in the max_width space, obey LV_TXT_LINE_BREAK_LONG_* rules.
 143:Drivers/lvgl/src/misc/lv_txt.c ****  *
 144:Drivers/lvgl/src/misc/lv_txt.c ****  * If the next word cannot fit anything, return 0.
 145:Drivers/lvgl/src/misc/lv_txt.c ****  *
ARM GAS  /var/folders/0z/tsy30v1j4xl4_7kw94k978ww0000gn/T//ccd8hcN4.s 			page 4


 146:Drivers/lvgl/src/misc/lv_txt.c ****  * If the first character is a break character, returns the next index.
 147:Drivers/lvgl/src/misc/lv_txt.c ****  *
 148:Drivers/lvgl/src/misc/lv_txt.c ****  * Example calls from lv_txt_get_next_line() assuming sufficient max_width and
 149:Drivers/lvgl/src/misc/lv_txt.c ****  * txt = "Test text\n"
 150:Drivers/lvgl/src/misc/lv_txt.c ****  *        0123456789
 151:Drivers/lvgl/src/misc/lv_txt.c ****  *
 152:Drivers/lvgl/src/misc/lv_txt.c ****  * Calls would be as follows:
 153:Drivers/lvgl/src/misc/lv_txt.c ****  *     1. Return i=4, pointing at breakchar ' ', for the string "Test"
 154:Drivers/lvgl/src/misc/lv_txt.c ****  *     2. Return i=5, since i=4 was a breakchar.
 155:Drivers/lvgl/src/misc/lv_txt.c ****  *     3. Return i=9, pointing at breakchar '\n'
 156:Drivers/lvgl/src/misc/lv_txt.c ****  *     4. Parenting lv_txt_get_next_line() would detect subsequent '\0'
 157:Drivers/lvgl/src/misc/lv_txt.c ****  *
 158:Drivers/lvgl/src/misc/lv_txt.c ****  * TODO: Returned word_w_ptr may overestimate the returned word's width when
 159:Drivers/lvgl/src/misc/lv_txt.c ****  * max_width is reached. In current usage, this has no impact.
 160:Drivers/lvgl/src/misc/lv_txt.c ****  *
 161:Drivers/lvgl/src/misc/lv_txt.c ****  * @param txt a '\0' terminated string
 162:Drivers/lvgl/src/misc/lv_txt.c ****  * @param font pointer to a font
 163:Drivers/lvgl/src/misc/lv_txt.c ****  * @param letter_space letter space
 164:Drivers/lvgl/src/misc/lv_txt.c ****  * @param max_width max width of the text (break the lines to fit this size). Set COORD_MAX to avoi
 165:Drivers/lvgl/src/misc/lv_txt.c ****  * @param flags settings for the text from 'txt_flag_type' enum
 166:Drivers/lvgl/src/misc/lv_txt.c ****  * @param[out] word_w_ptr width (in pixels) of the parsed word. May be NULL.
 167:Drivers/lvgl/src/misc/lv_txt.c ****  * @param cmd_state pointer to a txt_cmd_state_t variable which stores the current state of command
 168:Drivers/lvgl/src/misc/lv_txt.c ****  * @param force Force return the fraction of the word that can fit in the provided space.
 169:Drivers/lvgl/src/misc/lv_txt.c ****  * @return the index of the first char of the next word (in byte index not letter index. With UTF-8
 170:Drivers/lvgl/src/misc/lv_txt.c ****  */
 171:Drivers/lvgl/src/misc/lv_txt.c **** static uint32_t lv_txt_get_next_word(const char * txt, const lv_font_t * font,
 172:Drivers/lvgl/src/misc/lv_txt.c ****                                      lv_coord_t letter_space, lv_coord_t max_width,
 173:Drivers/lvgl/src/misc/lv_txt.c ****                                      lv_text_flag_t flag, uint32_t * word_w_ptr, lv_text_cmd_state_
 174:Drivers/lvgl/src/misc/lv_txt.c **** {
 175:Drivers/lvgl/src/misc/lv_txt.c ****     if(txt == NULL || txt[0] == '\0') return 0;
 176:Drivers/lvgl/src/misc/lv_txt.c ****     if(font == NULL) return 0;
 177:Drivers/lvgl/src/misc/lv_txt.c **** 
 178:Drivers/lvgl/src/misc/lv_txt.c ****     if(flag & LV_TEXT_FLAG_EXPAND) max_width = LV_COORD_MAX;
 179:Drivers/lvgl/src/misc/lv_txt.c **** 
 180:Drivers/lvgl/src/misc/lv_txt.c ****     uint32_t i = 0, i_next = 0, i_next_next = 0;  /*Iterating index into txt*/
 181:Drivers/lvgl/src/misc/lv_txt.c ****     uint32_t letter = 0;      /*Letter at i*/
 182:Drivers/lvgl/src/misc/lv_txt.c ****     uint32_t letter_next = 0; /*Letter at i_next*/
 183:Drivers/lvgl/src/misc/lv_txt.c ****     lv_coord_t letter_w;
 184:Drivers/lvgl/src/misc/lv_txt.c ****     lv_coord_t cur_w = 0;  /*Pixel Width of transversed string*/
 185:Drivers/lvgl/src/misc/lv_txt.c ****     uint32_t word_len = 0;   /*Number of characters in the transversed word*/
 186:Drivers/lvgl/src/misc/lv_txt.c ****     uint32_t break_index = NO_BREAK_FOUND; /*only used for "long" words*/
 187:Drivers/lvgl/src/misc/lv_txt.c ****     uint32_t break_letter_count = 0; /*Number of characters up to the long word break point*/
 188:Drivers/lvgl/src/misc/lv_txt.c **** 
 189:Drivers/lvgl/src/misc/lv_txt.c ****     letter = _lv_txt_encoded_next(txt, &i_next);
 190:Drivers/lvgl/src/misc/lv_txt.c ****     i_next_next = i_next;
 191:Drivers/lvgl/src/misc/lv_txt.c **** 
 192:Drivers/lvgl/src/misc/lv_txt.c ****     /*Obtain the full word, regardless if it fits or not in max_width*/
 193:Drivers/lvgl/src/misc/lv_txt.c ****     while(txt[i] != '\0') {
 194:Drivers/lvgl/src/misc/lv_txt.c ****         letter_next = _lv_txt_encoded_next(txt, &i_next_next);
 195:Drivers/lvgl/src/misc/lv_txt.c ****         word_len++;
 196:Drivers/lvgl/src/misc/lv_txt.c **** 
 197:Drivers/lvgl/src/misc/lv_txt.c ****         /*Handle the recolor command*/
 198:Drivers/lvgl/src/misc/lv_txt.c ****         if((flag & LV_TEXT_FLAG_RECOLOR) != 0) {
 199:Drivers/lvgl/src/misc/lv_txt.c ****             if(_lv_txt_is_cmd(cmd_state, letter) != false) {
 200:Drivers/lvgl/src/misc/lv_txt.c ****                 i = i_next;
 201:Drivers/lvgl/src/misc/lv_txt.c ****                 i_next = i_next_next;
 202:Drivers/lvgl/src/misc/lv_txt.c ****                 letter = letter_next;
ARM GAS  /var/folders/0z/tsy30v1j4xl4_7kw94k978ww0000gn/T//ccd8hcN4.s 			page 5


 203:Drivers/lvgl/src/misc/lv_txt.c ****                 continue;   /*Skip the letter if it is part of a command*/
 204:Drivers/lvgl/src/misc/lv_txt.c ****             }
 205:Drivers/lvgl/src/misc/lv_txt.c ****         }
 206:Drivers/lvgl/src/misc/lv_txt.c **** 
 207:Drivers/lvgl/src/misc/lv_txt.c ****         letter_w = lv_font_get_glyph_width(font, letter, letter_next);
 208:Drivers/lvgl/src/misc/lv_txt.c ****         cur_w += letter_w;
 209:Drivers/lvgl/src/misc/lv_txt.c **** 
 210:Drivers/lvgl/src/misc/lv_txt.c ****         if(letter_w > 0) {
 211:Drivers/lvgl/src/misc/lv_txt.c ****             cur_w += letter_space;
 212:Drivers/lvgl/src/misc/lv_txt.c ****         }
 213:Drivers/lvgl/src/misc/lv_txt.c **** 
 214:Drivers/lvgl/src/misc/lv_txt.c ****         /*Test if this character fits within max_width*/
 215:Drivers/lvgl/src/misc/lv_txt.c ****         if(break_index == NO_BREAK_FOUND && (cur_w - letter_space) > max_width) {
 216:Drivers/lvgl/src/misc/lv_txt.c ****             break_index = i;
 217:Drivers/lvgl/src/misc/lv_txt.c ****             break_letter_count = word_len - 1;
 218:Drivers/lvgl/src/misc/lv_txt.c ****             /*break_index is now pointing at the character that doesn't fit*/
 219:Drivers/lvgl/src/misc/lv_txt.c ****         }
 220:Drivers/lvgl/src/misc/lv_txt.c **** 
 221:Drivers/lvgl/src/misc/lv_txt.c ****         /*Check for new line chars and breakchars*/
 222:Drivers/lvgl/src/misc/lv_txt.c ****         if(letter == '\n' || letter == '\r' || _lv_txt_is_break_char(letter)) {
 223:Drivers/lvgl/src/misc/lv_txt.c ****             /*Update the output width on the first character if it fits.
 224:Drivers/lvgl/src/misc/lv_txt.c ****              *Must do this here in case first letter is a break character.*/
 225:Drivers/lvgl/src/misc/lv_txt.c ****             if(i == 0 && break_index == NO_BREAK_FOUND && word_w_ptr != NULL) *word_w_ptr = cur_w;
 226:Drivers/lvgl/src/misc/lv_txt.c ****             word_len--;
 227:Drivers/lvgl/src/misc/lv_txt.c ****             break;
 228:Drivers/lvgl/src/misc/lv_txt.c ****         }
 229:Drivers/lvgl/src/misc/lv_txt.c **** 
 230:Drivers/lvgl/src/misc/lv_txt.c ****         /*Update the output width*/
 231:Drivers/lvgl/src/misc/lv_txt.c ****         if(word_w_ptr != NULL && break_index == NO_BREAK_FOUND) *word_w_ptr = cur_w;
 232:Drivers/lvgl/src/misc/lv_txt.c **** 
 233:Drivers/lvgl/src/misc/lv_txt.c ****         i = i_next;
 234:Drivers/lvgl/src/misc/lv_txt.c ****         i_next = i_next_next;
 235:Drivers/lvgl/src/misc/lv_txt.c ****         letter = letter_next;
 236:Drivers/lvgl/src/misc/lv_txt.c ****     }
 237:Drivers/lvgl/src/misc/lv_txt.c **** 
 238:Drivers/lvgl/src/misc/lv_txt.c ****     /*Entire Word fits in the provided space*/
 239:Drivers/lvgl/src/misc/lv_txt.c ****     if(break_index == NO_BREAK_FOUND) {
 240:Drivers/lvgl/src/misc/lv_txt.c ****         if(word_len == 0 || (letter == '\r' && letter_next == '\n')) i = i_next;
 241:Drivers/lvgl/src/misc/lv_txt.c ****         return i;
 242:Drivers/lvgl/src/misc/lv_txt.c ****     }
 243:Drivers/lvgl/src/misc/lv_txt.c **** 
 244:Drivers/lvgl/src/misc/lv_txt.c **** #if LV_TXT_LINE_BREAK_LONG_LEN > 0
 245:Drivers/lvgl/src/misc/lv_txt.c ****     /*Word doesn't fit in provided space, but isn't "long"*/
 246:Drivers/lvgl/src/misc/lv_txt.c ****     if(word_len < LV_TXT_LINE_BREAK_LONG_LEN) {
 247:Drivers/lvgl/src/misc/lv_txt.c ****         if(force) return break_index;
 248:Drivers/lvgl/src/misc/lv_txt.c ****         if(word_w_ptr != NULL) *word_w_ptr = 0; /*Return no word*/
 249:Drivers/lvgl/src/misc/lv_txt.c ****         return 0;
 250:Drivers/lvgl/src/misc/lv_txt.c ****     }
 251:Drivers/lvgl/src/misc/lv_txt.c **** 
 252:Drivers/lvgl/src/misc/lv_txt.c ****     /*Word is "long," but insufficient amounts can fit in provided space*/
 253:Drivers/lvgl/src/misc/lv_txt.c ****     if(break_letter_count < LV_TXT_LINE_BREAK_LONG_PRE_MIN_LEN) {
 254:Drivers/lvgl/src/misc/lv_txt.c ****         if(force) return break_index;
 255:Drivers/lvgl/src/misc/lv_txt.c ****         if(word_w_ptr != NULL) *word_w_ptr = 0;
 256:Drivers/lvgl/src/misc/lv_txt.c ****         return 0;
 257:Drivers/lvgl/src/misc/lv_txt.c ****     }
 258:Drivers/lvgl/src/misc/lv_txt.c **** 
 259:Drivers/lvgl/src/misc/lv_txt.c ****     /*Word is a "long", but letters may need to be better distributed*/
ARM GAS  /var/folders/0z/tsy30v1j4xl4_7kw94k978ww0000gn/T//ccd8hcN4.s 			page 6


 260:Drivers/lvgl/src/misc/lv_txt.c ****     {
 261:Drivers/lvgl/src/misc/lv_txt.c ****         i = break_index;
 262:Drivers/lvgl/src/misc/lv_txt.c ****         int32_t n_move = LV_TXT_LINE_BREAK_LONG_POST_MIN_LEN - (word_len - break_letter_count);
 263:Drivers/lvgl/src/misc/lv_txt.c ****         /*Move pointer "i" backwards*/
 264:Drivers/lvgl/src/misc/lv_txt.c ****         for(; n_move > 0; n_move--) {
 265:Drivers/lvgl/src/misc/lv_txt.c ****             _lv_txt_encoded_prev(txt, &i);
 266:Drivers/lvgl/src/misc/lv_txt.c ****             // TODO: it would be appropriate to update the returned word width here
 267:Drivers/lvgl/src/misc/lv_txt.c ****             // However, in current usage, this doesn't impact anything.
 268:Drivers/lvgl/src/misc/lv_txt.c ****         }
 269:Drivers/lvgl/src/misc/lv_txt.c ****     }
 270:Drivers/lvgl/src/misc/lv_txt.c ****     return i;
 271:Drivers/lvgl/src/misc/lv_txt.c **** #else
 272:Drivers/lvgl/src/misc/lv_txt.c ****     if(force) return break_index;
 273:Drivers/lvgl/src/misc/lv_txt.c ****     if(word_w_ptr != NULL) *word_w_ptr = 0; /*Return no word*/
 274:Drivers/lvgl/src/misc/lv_txt.c ****     (void) break_letter_count;
 275:Drivers/lvgl/src/misc/lv_txt.c ****     return 0;
 276:Drivers/lvgl/src/misc/lv_txt.c **** #endif
 277:Drivers/lvgl/src/misc/lv_txt.c **** }
 278:Drivers/lvgl/src/misc/lv_txt.c **** 
 279:Drivers/lvgl/src/misc/lv_txt.c **** uint32_t _lv_txt_get_next_line(const char * txt, const lv_font_t * font,
 280:Drivers/lvgl/src/misc/lv_txt.c ****                                lv_coord_t letter_space, lv_coord_t max_width,
 281:Drivers/lvgl/src/misc/lv_txt.c ****                                lv_coord_t * used_width, lv_text_flag_t flag)
 282:Drivers/lvgl/src/misc/lv_txt.c **** {
 283:Drivers/lvgl/src/misc/lv_txt.c ****     if(used_width) *used_width = 0;
 284:Drivers/lvgl/src/misc/lv_txt.c **** 
 285:Drivers/lvgl/src/misc/lv_txt.c ****     if(txt == NULL) return 0;
 286:Drivers/lvgl/src/misc/lv_txt.c ****     if(txt[0] == '\0') return 0;
 287:Drivers/lvgl/src/misc/lv_txt.c ****     if(font == NULL) return 0;
 288:Drivers/lvgl/src/misc/lv_txt.c **** 
 289:Drivers/lvgl/src/misc/lv_txt.c ****     lv_coord_t line_w = 0;
 290:Drivers/lvgl/src/misc/lv_txt.c **** 
 291:Drivers/lvgl/src/misc/lv_txt.c ****     /*If max_width doesn't mater simply find the new line character
 292:Drivers/lvgl/src/misc/lv_txt.c ****      *without thinking about word wrapping*/
 293:Drivers/lvgl/src/misc/lv_txt.c ****     if((flag & LV_TEXT_FLAG_EXPAND) || (flag & LV_TEXT_FLAG_FIT)) {
 294:Drivers/lvgl/src/misc/lv_txt.c ****         uint32_t i;
 295:Drivers/lvgl/src/misc/lv_txt.c ****         for(i = 0; txt[i] != '\n' && txt[i] != '\r' && txt[i] != '\0'; i++) {
 296:Drivers/lvgl/src/misc/lv_txt.c ****             /*Just find the new line chars or string ends by incrementing `i`*/
 297:Drivers/lvgl/src/misc/lv_txt.c ****         }
 298:Drivers/lvgl/src/misc/lv_txt.c ****         if(txt[i] != '\0') i++;    /*To go beyond `\n`*/
 299:Drivers/lvgl/src/misc/lv_txt.c ****         if(used_width) *used_width = -1;
 300:Drivers/lvgl/src/misc/lv_txt.c ****         return i;
 301:Drivers/lvgl/src/misc/lv_txt.c ****     }
 302:Drivers/lvgl/src/misc/lv_txt.c **** 
 303:Drivers/lvgl/src/misc/lv_txt.c ****     if(flag & LV_TEXT_FLAG_EXPAND) max_width = LV_COORD_MAX;
 304:Drivers/lvgl/src/misc/lv_txt.c ****     lv_text_cmd_state_t cmd_state = LV_TEXT_CMD_STATE_WAIT;
 305:Drivers/lvgl/src/misc/lv_txt.c ****     uint32_t i = 0;                                        /*Iterating index into txt*/
 306:Drivers/lvgl/src/misc/lv_txt.c **** 
 307:Drivers/lvgl/src/misc/lv_txt.c ****     while(txt[i] != '\0' && max_width > 0) {
 308:Drivers/lvgl/src/misc/lv_txt.c ****         uint32_t word_w = 0;
 309:Drivers/lvgl/src/misc/lv_txt.c ****         uint32_t advance = lv_txt_get_next_word(&txt[i], font, letter_space, max_width, flag, &word
 310:Drivers/lvgl/src/misc/lv_txt.c ****         max_width -= word_w;
 311:Drivers/lvgl/src/misc/lv_txt.c ****         line_w += word_w;
 312:Drivers/lvgl/src/misc/lv_txt.c **** 
 313:Drivers/lvgl/src/misc/lv_txt.c ****         if(advance == 0) {
 314:Drivers/lvgl/src/misc/lv_txt.c ****             break;
 315:Drivers/lvgl/src/misc/lv_txt.c ****         }
 316:Drivers/lvgl/src/misc/lv_txt.c **** 
ARM GAS  /var/folders/0z/tsy30v1j4xl4_7kw94k978ww0000gn/T//ccd8hcN4.s 			page 7


 317:Drivers/lvgl/src/misc/lv_txt.c ****         i += advance;
 318:Drivers/lvgl/src/misc/lv_txt.c **** 
 319:Drivers/lvgl/src/misc/lv_txt.c ****         if(txt[0] == '\n' || txt[0] == '\r') break;
 320:Drivers/lvgl/src/misc/lv_txt.c **** 
 321:Drivers/lvgl/src/misc/lv_txt.c ****         if(txt[i] == '\n' || txt[i] == '\r') {
 322:Drivers/lvgl/src/misc/lv_txt.c ****             i++;  /*Include the following newline in the current line*/
 323:Drivers/lvgl/src/misc/lv_txt.c ****             break;
 324:Drivers/lvgl/src/misc/lv_txt.c ****         }
 325:Drivers/lvgl/src/misc/lv_txt.c **** 
 326:Drivers/lvgl/src/misc/lv_txt.c ****     }
 327:Drivers/lvgl/src/misc/lv_txt.c **** 
 328:Drivers/lvgl/src/misc/lv_txt.c ****     /*Always step at least one to avoid infinite loops*/
 329:Drivers/lvgl/src/misc/lv_txt.c ****     if(i == 0) {
 330:Drivers/lvgl/src/misc/lv_txt.c ****         uint32_t letter = _lv_txt_encoded_next(txt, &i);
 331:Drivers/lvgl/src/misc/lv_txt.c ****         if(used_width != NULL) {
 332:Drivers/lvgl/src/misc/lv_txt.c ****             line_w = lv_font_get_glyph_width(font, letter, '\0');
 333:Drivers/lvgl/src/misc/lv_txt.c ****         }
 334:Drivers/lvgl/src/misc/lv_txt.c ****     }
 335:Drivers/lvgl/src/misc/lv_txt.c **** 
 336:Drivers/lvgl/src/misc/lv_txt.c ****     if(used_width != NULL) {
 337:Drivers/lvgl/src/misc/lv_txt.c ****         *used_width = line_w;
 338:Drivers/lvgl/src/misc/lv_txt.c ****     }
 339:Drivers/lvgl/src/misc/lv_txt.c **** 
 340:Drivers/lvgl/src/misc/lv_txt.c ****     return i;
 341:Drivers/lvgl/src/misc/lv_txt.c **** }
 342:Drivers/lvgl/src/misc/lv_txt.c **** 
 343:Drivers/lvgl/src/misc/lv_txt.c **** lv_coord_t lv_txt_get_width(const char * txt, uint32_t length, const lv_font_t * font, lv_coord_t l
 344:Drivers/lvgl/src/misc/lv_txt.c ****                             lv_text_flag_t flag)
 345:Drivers/lvgl/src/misc/lv_txt.c **** {
 346:Drivers/lvgl/src/misc/lv_txt.c ****     if(txt == NULL) return 0;
 347:Drivers/lvgl/src/misc/lv_txt.c ****     if(font == NULL) return 0;
 348:Drivers/lvgl/src/misc/lv_txt.c ****     if(txt[0] == '\0') return 0;
 349:Drivers/lvgl/src/misc/lv_txt.c **** 
 350:Drivers/lvgl/src/misc/lv_txt.c ****     uint32_t i                   = 0;
 351:Drivers/lvgl/src/misc/lv_txt.c ****     lv_coord_t width             = 0;
 352:Drivers/lvgl/src/misc/lv_txt.c ****     lv_text_cmd_state_t cmd_state = LV_TEXT_CMD_STATE_WAIT;
 353:Drivers/lvgl/src/misc/lv_txt.c **** 
 354:Drivers/lvgl/src/misc/lv_txt.c ****     if(length != 0) {
 355:Drivers/lvgl/src/misc/lv_txt.c ****         while(i < length) {
 356:Drivers/lvgl/src/misc/lv_txt.c ****             uint32_t letter;
 357:Drivers/lvgl/src/misc/lv_txt.c ****             uint32_t letter_next;
 358:Drivers/lvgl/src/misc/lv_txt.c ****             _lv_txt_encoded_letter_next_2(txt, &letter, &letter_next, &i);
 359:Drivers/lvgl/src/misc/lv_txt.c **** 
 360:Drivers/lvgl/src/misc/lv_txt.c ****             if((flag & LV_TEXT_FLAG_RECOLOR) != 0) {
 361:Drivers/lvgl/src/misc/lv_txt.c ****                 if(_lv_txt_is_cmd(&cmd_state, letter) != false) {
 362:Drivers/lvgl/src/misc/lv_txt.c ****                     continue;
 363:Drivers/lvgl/src/misc/lv_txt.c ****                 }
 364:Drivers/lvgl/src/misc/lv_txt.c ****             }
 365:Drivers/lvgl/src/misc/lv_txt.c **** 
 366:Drivers/lvgl/src/misc/lv_txt.c ****             lv_coord_t char_width = lv_font_get_glyph_width(font, letter, letter_next);
 367:Drivers/lvgl/src/misc/lv_txt.c ****             if(char_width > 0) {
 368:Drivers/lvgl/src/misc/lv_txt.c ****                 width += char_width;
 369:Drivers/lvgl/src/misc/lv_txt.c ****                 width += letter_space;
 370:Drivers/lvgl/src/misc/lv_txt.c ****             }
 371:Drivers/lvgl/src/misc/lv_txt.c ****         }
 372:Drivers/lvgl/src/misc/lv_txt.c **** 
 373:Drivers/lvgl/src/misc/lv_txt.c ****         if(width > 0) {
ARM GAS  /var/folders/0z/tsy30v1j4xl4_7kw94k978ww0000gn/T//ccd8hcN4.s 			page 8


 374:Drivers/lvgl/src/misc/lv_txt.c ****             width -= letter_space; /*Trim the last letter space. Important if the text is center
 375:Drivers/lvgl/src/misc/lv_txt.c ****                                       aligned*/
 376:Drivers/lvgl/src/misc/lv_txt.c ****         }
 377:Drivers/lvgl/src/misc/lv_txt.c ****     }
 378:Drivers/lvgl/src/misc/lv_txt.c **** 
 379:Drivers/lvgl/src/misc/lv_txt.c ****     return width;
 380:Drivers/lvgl/src/misc/lv_txt.c **** }
 381:Drivers/lvgl/src/misc/lv_txt.c **** 
 382:Drivers/lvgl/src/misc/lv_txt.c **** bool _lv_txt_is_cmd(lv_text_cmd_state_t * state, uint32_t c)
 383:Drivers/lvgl/src/misc/lv_txt.c **** {
 384:Drivers/lvgl/src/misc/lv_txt.c ****     bool ret = false;
 385:Drivers/lvgl/src/misc/lv_txt.c **** 
 386:Drivers/lvgl/src/misc/lv_txt.c ****     if(c == (uint32_t)LV_TXT_COLOR_CMD[0]) {
 387:Drivers/lvgl/src/misc/lv_txt.c ****         if(*state == LV_TEXT_CMD_STATE_WAIT) { /*Start char*/
 388:Drivers/lvgl/src/misc/lv_txt.c ****             *state = LV_TEXT_CMD_STATE_PAR;
 389:Drivers/lvgl/src/misc/lv_txt.c ****             ret    = true;
 390:Drivers/lvgl/src/misc/lv_txt.c ****         }
 391:Drivers/lvgl/src/misc/lv_txt.c ****         /*Other start char in parameter is escaped cmd. char*/
 392:Drivers/lvgl/src/misc/lv_txt.c ****         else if(*state == LV_TEXT_CMD_STATE_PAR) {
 393:Drivers/lvgl/src/misc/lv_txt.c ****             *state = LV_TEXT_CMD_STATE_WAIT;
 394:Drivers/lvgl/src/misc/lv_txt.c ****         }
 395:Drivers/lvgl/src/misc/lv_txt.c ****         /*Command end*/
 396:Drivers/lvgl/src/misc/lv_txt.c ****         else if(*state == LV_TEXT_CMD_STATE_IN) {
 397:Drivers/lvgl/src/misc/lv_txt.c ****             *state = LV_TEXT_CMD_STATE_WAIT;
 398:Drivers/lvgl/src/misc/lv_txt.c ****             ret    = true;
 399:Drivers/lvgl/src/misc/lv_txt.c ****         }
 400:Drivers/lvgl/src/misc/lv_txt.c ****     }
 401:Drivers/lvgl/src/misc/lv_txt.c **** 
 402:Drivers/lvgl/src/misc/lv_txt.c ****     /*Skip the color parameter and wait the space after it*/
 403:Drivers/lvgl/src/misc/lv_txt.c ****     if(*state == LV_TEXT_CMD_STATE_PAR) {
 404:Drivers/lvgl/src/misc/lv_txt.c ****         if(c == ' ') {
 405:Drivers/lvgl/src/misc/lv_txt.c ****             *state = LV_TEXT_CMD_STATE_IN; /*After the parameter the text is in the command*/
 406:Drivers/lvgl/src/misc/lv_txt.c ****         }
 407:Drivers/lvgl/src/misc/lv_txt.c ****         ret = true;
 408:Drivers/lvgl/src/misc/lv_txt.c ****     }
 409:Drivers/lvgl/src/misc/lv_txt.c **** 
 410:Drivers/lvgl/src/misc/lv_txt.c ****     return ret;
 411:Drivers/lvgl/src/misc/lv_txt.c **** }
 412:Drivers/lvgl/src/misc/lv_txt.c **** 
 413:Drivers/lvgl/src/misc/lv_txt.c **** void _lv_txt_ins(char * txt_buf, uint32_t pos, const char * ins_txt)
 414:Drivers/lvgl/src/misc/lv_txt.c **** {
 415:Drivers/lvgl/src/misc/lv_txt.c ****     if(txt_buf == NULL || ins_txt == NULL) return;
 416:Drivers/lvgl/src/misc/lv_txt.c **** 
 417:Drivers/lvgl/src/misc/lv_txt.c ****     size_t old_len = strlen(txt_buf);
 418:Drivers/lvgl/src/misc/lv_txt.c ****     size_t ins_len = strlen(ins_txt);
 419:Drivers/lvgl/src/misc/lv_txt.c ****     if(ins_len == 0) return;
 420:Drivers/lvgl/src/misc/lv_txt.c **** 
 421:Drivers/lvgl/src/misc/lv_txt.c ****     size_t new_len = ins_len + old_len;
 422:Drivers/lvgl/src/misc/lv_txt.c ****     pos              = _lv_txt_encoded_get_byte_id(txt_buf, pos); /*Convert to byte index instead o
 423:Drivers/lvgl/src/misc/lv_txt.c **** 
 424:Drivers/lvgl/src/misc/lv_txt.c ****     /*Copy the second part into the end to make place to text to insert*/
 425:Drivers/lvgl/src/misc/lv_txt.c ****     size_t i;
 426:Drivers/lvgl/src/misc/lv_txt.c ****     for(i = new_len; i >= pos + ins_len; i--) {
 427:Drivers/lvgl/src/misc/lv_txt.c ****         txt_buf[i] = txt_buf[i - ins_len];
 428:Drivers/lvgl/src/misc/lv_txt.c ****     }
 429:Drivers/lvgl/src/misc/lv_txt.c **** 
 430:Drivers/lvgl/src/misc/lv_txt.c ****     /*Copy the text into the new space*/
ARM GAS  /var/folders/0z/tsy30v1j4xl4_7kw94k978ww0000gn/T//ccd8hcN4.s 			page 9


 431:Drivers/lvgl/src/misc/lv_txt.c ****     lv_memcpy_small(txt_buf + pos, ins_txt, ins_len);
 432:Drivers/lvgl/src/misc/lv_txt.c **** }
 433:Drivers/lvgl/src/misc/lv_txt.c **** 
 434:Drivers/lvgl/src/misc/lv_txt.c **** void _lv_txt_cut(char * txt, uint32_t pos, uint32_t len)
 435:Drivers/lvgl/src/misc/lv_txt.c **** {
 436:Drivers/lvgl/src/misc/lv_txt.c ****     if(txt == NULL) return;
 437:Drivers/lvgl/src/misc/lv_txt.c **** 
 438:Drivers/lvgl/src/misc/lv_txt.c ****     size_t old_len = strlen(txt);
 439:Drivers/lvgl/src/misc/lv_txt.c **** 
 440:Drivers/lvgl/src/misc/lv_txt.c ****     pos = _lv_txt_encoded_get_byte_id(txt, pos); /*Convert to byte index instead of letter index*/
 441:Drivers/lvgl/src/misc/lv_txt.c ****     len = _lv_txt_encoded_get_byte_id(&txt[pos], len);
 442:Drivers/lvgl/src/misc/lv_txt.c **** 
 443:Drivers/lvgl/src/misc/lv_txt.c ****     /*Copy the second part into the end to make place to text to insert*/
 444:Drivers/lvgl/src/misc/lv_txt.c ****     uint32_t i;
 445:Drivers/lvgl/src/misc/lv_txt.c ****     for(i = pos; i <= old_len - len; i++) {
 446:Drivers/lvgl/src/misc/lv_txt.c ****         txt[i] = txt[i + len];
 447:Drivers/lvgl/src/misc/lv_txt.c ****     }
 448:Drivers/lvgl/src/misc/lv_txt.c **** }
 449:Drivers/lvgl/src/misc/lv_txt.c **** 
 450:Drivers/lvgl/src/misc/lv_txt.c **** char * _lv_txt_set_text_vfmt(const char * fmt, va_list ap)
 451:Drivers/lvgl/src/misc/lv_txt.c **** {
 452:Drivers/lvgl/src/misc/lv_txt.c ****     /*Allocate space for the new text by using trick from C99 standard section 7.19.6.12*/
 453:Drivers/lvgl/src/misc/lv_txt.c ****     va_list ap_copy;
 454:Drivers/lvgl/src/misc/lv_txt.c ****     va_copy(ap_copy, ap);
 455:Drivers/lvgl/src/misc/lv_txt.c ****     uint32_t len = lv_vsnprintf(NULL, 0, fmt, ap_copy);
 456:Drivers/lvgl/src/misc/lv_txt.c ****     va_end(ap_copy);
 457:Drivers/lvgl/src/misc/lv_txt.c **** 
 458:Drivers/lvgl/src/misc/lv_txt.c ****     char * text = 0;
 459:Drivers/lvgl/src/misc/lv_txt.c **** #if LV_USE_ARABIC_PERSIAN_CHARS
 460:Drivers/lvgl/src/misc/lv_txt.c ****     /*Put together the text according to the format string*/
 461:Drivers/lvgl/src/misc/lv_txt.c ****     char * raw_txt = lv_mem_buf_get(len + 1);
 462:Drivers/lvgl/src/misc/lv_txt.c ****     LV_ASSERT_MALLOC(raw_txt);
 463:Drivers/lvgl/src/misc/lv_txt.c ****     if(raw_txt == NULL) {
 464:Drivers/lvgl/src/misc/lv_txt.c ****         return NULL;
 465:Drivers/lvgl/src/misc/lv_txt.c ****     }
 466:Drivers/lvgl/src/misc/lv_txt.c **** 
 467:Drivers/lvgl/src/misc/lv_txt.c ****     lv_vsnprintf(raw_txt, len + 1, fmt, ap);
 468:Drivers/lvgl/src/misc/lv_txt.c **** 
 469:Drivers/lvgl/src/misc/lv_txt.c ****     /*Get the size of the Arabic text and process it*/
 470:Drivers/lvgl/src/misc/lv_txt.c ****     size_t len_ap = _lv_txt_ap_calc_bytes_cnt(raw_txt);
 471:Drivers/lvgl/src/misc/lv_txt.c ****     text = lv_mem_alloc(len_ap + 1);
 472:Drivers/lvgl/src/misc/lv_txt.c ****     LV_ASSERT_MALLOC(text);
 473:Drivers/lvgl/src/misc/lv_txt.c ****     if(text == NULL) {
 474:Drivers/lvgl/src/misc/lv_txt.c ****         return NULL;
 475:Drivers/lvgl/src/misc/lv_txt.c ****     }
 476:Drivers/lvgl/src/misc/lv_txt.c ****     _lv_txt_ap_proc(raw_txt, text);
 477:Drivers/lvgl/src/misc/lv_txt.c **** 
 478:Drivers/lvgl/src/misc/lv_txt.c ****     lv_mem_buf_release(raw_txt);
 479:Drivers/lvgl/src/misc/lv_txt.c **** #else
 480:Drivers/lvgl/src/misc/lv_txt.c ****     text = lv_mem_alloc(len + 1);
 481:Drivers/lvgl/src/misc/lv_txt.c ****     LV_ASSERT_MALLOC(text);
 482:Drivers/lvgl/src/misc/lv_txt.c ****     if(text == NULL) {
 483:Drivers/lvgl/src/misc/lv_txt.c ****         return NULL;
 484:Drivers/lvgl/src/misc/lv_txt.c ****     }
 485:Drivers/lvgl/src/misc/lv_txt.c ****     text[len] = 0; /*Ensure NULL termination*/
 486:Drivers/lvgl/src/misc/lv_txt.c **** 
 487:Drivers/lvgl/src/misc/lv_txt.c ****     lv_vsnprintf(text, len + 1, fmt, ap);
ARM GAS  /var/folders/0z/tsy30v1j4xl4_7kw94k978ww0000gn/T//ccd8hcN4.s 			page 10


 488:Drivers/lvgl/src/misc/lv_txt.c **** #endif
 489:Drivers/lvgl/src/misc/lv_txt.c **** 
 490:Drivers/lvgl/src/misc/lv_txt.c ****     return text;
 491:Drivers/lvgl/src/misc/lv_txt.c **** }
 492:Drivers/lvgl/src/misc/lv_txt.c **** 
 493:Drivers/lvgl/src/misc/lv_txt.c **** void _lv_txt_encoded_letter_next_2(const char * txt, uint32_t * letter, uint32_t * letter_next, uin
 494:Drivers/lvgl/src/misc/lv_txt.c **** {
 495:Drivers/lvgl/src/misc/lv_txt.c ****     *letter = _lv_txt_encoded_next(txt, ofs);
 496:Drivers/lvgl/src/misc/lv_txt.c ****     *letter_next = *letter != '\0' ? _lv_txt_encoded_next(&txt[*ofs], NULL) : 0;
 497:Drivers/lvgl/src/misc/lv_txt.c **** }
 498:Drivers/lvgl/src/misc/lv_txt.c **** 
 499:Drivers/lvgl/src/misc/lv_txt.c **** #if LV_TXT_ENC == LV_TXT_ENC_UTF8
 500:Drivers/lvgl/src/misc/lv_txt.c **** /*******************************
 501:Drivers/lvgl/src/misc/lv_txt.c ****  *   UTF-8 ENCODER/DECODER
 502:Drivers/lvgl/src/misc/lv_txt.c ****  ******************************/
 503:Drivers/lvgl/src/misc/lv_txt.c **** 
 504:Drivers/lvgl/src/misc/lv_txt.c **** /**
 505:Drivers/lvgl/src/misc/lv_txt.c ****  * Give the size of an UTF-8 coded character
 506:Drivers/lvgl/src/misc/lv_txt.c ****  * @param str pointer to a character in a string
 507:Drivers/lvgl/src/misc/lv_txt.c ****  * @return length of the UTF-8 character (1,2,3 or 4), 0 on invalid code.
 508:Drivers/lvgl/src/misc/lv_txt.c ****  */
 509:Drivers/lvgl/src/misc/lv_txt.c **** static uint8_t lv_txt_utf8_size(const char * str)
 510:Drivers/lvgl/src/misc/lv_txt.c **** {
  28              		.loc 1 510 1 view -0
  29              		.cfi_startproc
  30              		@ args = 0, pretend = 0, frame = 0
  31              		@ frame_needed = 0, uses_anonymous_args = 0
  32              		@ link register save eliminated.
 511:Drivers/lvgl/src/misc/lv_txt.c ****     if(LV_IS_ASCII(str[0]))
  33              		.loc 1 511 5 view .LVU1
  34              		.loc 1 511 7 is_stmt 0 view .LVU2
  35 0000 90F90030 		ldrsb	r3, [r0]
  36              		.loc 1 511 8 view .LVU3
  37 0004 0078     		ldrb	r0, [r0]	@ zero_extendqisi2
  38              	.LVL1:
  39              		.loc 1 511 7 view .LVU4
  40 0006 002B     		cmp	r3, #0
  41 0008 10DA     		bge	.L3
 512:Drivers/lvgl/src/misc/lv_txt.c ****         return 1;
 513:Drivers/lvgl/src/misc/lv_txt.c ****     else if(LV_IS_2BYTES_UTF8_CODE(str[0]))
  42              		.loc 1 513 10 is_stmt 1 view .LVU5
  43              		.loc 1 513 12 is_stmt 0 view .LVU6
  44 000a 00F0E003 		and	r3, r0, #224
  45 000e C02B     		cmp	r3, #192
  46 0010 10D0     		beq	.L4
 514:Drivers/lvgl/src/misc/lv_txt.c ****         return 2;
 515:Drivers/lvgl/src/misc/lv_txt.c ****     else if(LV_IS_3BYTES_UTF8_CODE(str[0]))
  47              		.loc 1 515 10 is_stmt 1 view .LVU7
  48              		.loc 1 515 12 is_stmt 0 view .LVU8
  49 0012 00F0F003 		and	r3, r0, #240
  50 0016 E02B     		cmp	r3, #224
  51 0018 0AD0     		beq	.L5
 516:Drivers/lvgl/src/misc/lv_txt.c ****         return 3;
 517:Drivers/lvgl/src/misc/lv_txt.c ****     else if(LV_IS_4BYTES_UTF8_CODE(str[0]))
  52              		.loc 1 517 10 is_stmt 1 view .LVU9
  53              		.loc 1 517 12 is_stmt 0 view .LVU10
  54 001a 00F0F800 		and	r0, r0, #248
ARM GAS  /var/folders/0z/tsy30v1j4xl4_7kw94k978ww0000gn/T//ccd8hcN4.s 			page 11


  55 001e A0F1F000 		sub	r0, #240
  56 0022 B0FA80F0 		clz	r0, r0
  57 0026 4009     		lsrs	r0, r0, #5
  58 0028 8000     		lsls	r0, r0, #2
  59 002a 7047     		bx	lr
  60              	.L3:
 512:Drivers/lvgl/src/misc/lv_txt.c ****     else if(LV_IS_2BYTES_UTF8_CODE(str[0]))
  61              		.loc 1 512 16 view .LVU11
  62 002c 0120     		movs	r0, #1
  63 002e 7047     		bx	lr
  64              	.L5:
 516:Drivers/lvgl/src/misc/lv_txt.c ****         return 3;
  65              		.loc 1 516 16 view .LVU12
  66 0030 0320     		movs	r0, #3
 518:Drivers/lvgl/src/misc/lv_txt.c ****         return 4;
 519:Drivers/lvgl/src/misc/lv_txt.c ****     return 0;
 520:Drivers/lvgl/src/misc/lv_txt.c **** }
  67              		.loc 1 520 1 view .LVU13
  68 0032 7047     		bx	lr
  69              	.L4:
 514:Drivers/lvgl/src/misc/lv_txt.c ****     else if(LV_IS_3BYTES_UTF8_CODE(str[0]))
  70              		.loc 1 514 16 view .LVU14
  71 0034 0220     		movs	r0, #2
  72 0036 7047     		bx	lr
  73              		.cfi_endproc
  74              	.LFE64:
  76              		.section	.text.lv_txt_utf8_conv_wc,"ax",%progbits
  77              		.align	1
  78              		.p2align 2,,3
  79              		.syntax unified
  80              		.thumb
  81              		.thumb_func
  83              	lv_txt_utf8_conv_wc:
  84              	.LVL2:
  85              	.LFB66:
 521:Drivers/lvgl/src/misc/lv_txt.c **** 
 522:Drivers/lvgl/src/misc/lv_txt.c **** /**
 523:Drivers/lvgl/src/misc/lv_txt.c ****  * Convert a Unicode letter to UTF-8.
 524:Drivers/lvgl/src/misc/lv_txt.c ****  * @param letter_uni a Unicode letter
 525:Drivers/lvgl/src/misc/lv_txt.c ****  * @return UTF-8 coded character in Little Endian to be compatible with C chars (e.g. 'Á', 'Ű')
 526:Drivers/lvgl/src/misc/lv_txt.c ****  */
 527:Drivers/lvgl/src/misc/lv_txt.c **** static uint32_t lv_txt_unicode_to_utf8(uint32_t letter_uni)
 528:Drivers/lvgl/src/misc/lv_txt.c **** {
 529:Drivers/lvgl/src/misc/lv_txt.c ****     if(letter_uni < 128) return letter_uni;
 530:Drivers/lvgl/src/misc/lv_txt.c ****     uint8_t bytes[4];
 531:Drivers/lvgl/src/misc/lv_txt.c **** 
 532:Drivers/lvgl/src/misc/lv_txt.c ****     if(letter_uni < 0x0800) {
 533:Drivers/lvgl/src/misc/lv_txt.c ****         bytes[0] = ((letter_uni >> 6) & 0x1F) | 0xC0;
 534:Drivers/lvgl/src/misc/lv_txt.c ****         bytes[1] = ((letter_uni >> 0) & 0x3F) | 0x80;
 535:Drivers/lvgl/src/misc/lv_txt.c ****         bytes[2] = 0;
 536:Drivers/lvgl/src/misc/lv_txt.c ****         bytes[3] = 0;
 537:Drivers/lvgl/src/misc/lv_txt.c ****     }
 538:Drivers/lvgl/src/misc/lv_txt.c ****     else if(letter_uni < 0x010000) {
 539:Drivers/lvgl/src/misc/lv_txt.c ****         bytes[0] = ((letter_uni >> 12) & 0x0F) | 0xE0;
 540:Drivers/lvgl/src/misc/lv_txt.c ****         bytes[1] = ((letter_uni >> 6) & 0x3F) | 0x80;
 541:Drivers/lvgl/src/misc/lv_txt.c ****         bytes[2] = ((letter_uni >> 0) & 0x3F) | 0x80;
 542:Drivers/lvgl/src/misc/lv_txt.c ****         bytes[3] = 0;
ARM GAS  /var/folders/0z/tsy30v1j4xl4_7kw94k978ww0000gn/T//ccd8hcN4.s 			page 12


 543:Drivers/lvgl/src/misc/lv_txt.c ****     }
 544:Drivers/lvgl/src/misc/lv_txt.c ****     else if(letter_uni < 0x110000) {
 545:Drivers/lvgl/src/misc/lv_txt.c ****         bytes[0] = ((letter_uni >> 18) & 0x07) | 0xF0;
 546:Drivers/lvgl/src/misc/lv_txt.c ****         bytes[1] = ((letter_uni >> 12) & 0x3F) | 0x80;
 547:Drivers/lvgl/src/misc/lv_txt.c ****         bytes[2] = ((letter_uni >> 6) & 0x3F) | 0x80;
 548:Drivers/lvgl/src/misc/lv_txt.c ****         bytes[3] = ((letter_uni >> 0) & 0x3F) | 0x80;
 549:Drivers/lvgl/src/misc/lv_txt.c ****     }
 550:Drivers/lvgl/src/misc/lv_txt.c ****     else {
 551:Drivers/lvgl/src/misc/lv_txt.c ****         return 0;
 552:Drivers/lvgl/src/misc/lv_txt.c ****     }
 553:Drivers/lvgl/src/misc/lv_txt.c **** 
 554:Drivers/lvgl/src/misc/lv_txt.c ****     uint32_t * res_p = (uint32_t *)bytes;
 555:Drivers/lvgl/src/misc/lv_txt.c ****     return *res_p;
 556:Drivers/lvgl/src/misc/lv_txt.c **** }
 557:Drivers/lvgl/src/misc/lv_txt.c **** 
 558:Drivers/lvgl/src/misc/lv_txt.c **** /**
 559:Drivers/lvgl/src/misc/lv_txt.c ****  * Convert a wide character, e.g. 'Á' little endian to be UTF-8 compatible
 560:Drivers/lvgl/src/misc/lv_txt.c ****  * @param c a wide character or a  Little endian number
 561:Drivers/lvgl/src/misc/lv_txt.c ****  * @return `c` in big endian
 562:Drivers/lvgl/src/misc/lv_txt.c ****  */
 563:Drivers/lvgl/src/misc/lv_txt.c **** static uint32_t lv_txt_utf8_conv_wc(uint32_t c)
 564:Drivers/lvgl/src/misc/lv_txt.c **** {
  86              		.loc 1 564 1 is_stmt 1 view -0
  87              		.cfi_startproc
  88              		@ args = 0, pretend = 0, frame = 0
  89              		@ frame_needed = 0, uses_anonymous_args = 0
  90              		@ link register save eliminated.
 565:Drivers/lvgl/src/misc/lv_txt.c **** #if LV_BIG_ENDIAN_SYSTEM == 0
 566:Drivers/lvgl/src/misc/lv_txt.c ****     /*Swap the bytes (UTF-8 is big endian, but the MCUs are little endian)*/
 567:Drivers/lvgl/src/misc/lv_txt.c ****     if((c & 0x80) != 0) {
  91              		.loc 1 567 5 view .LVU16
  92              		.loc 1 567 7 is_stmt 0 view .LVU17
  93 0000 0306     		lsls	r3, r0, #24
  94 0002 19D5     		bpl	.L8
  95              	.LBB29:
 568:Drivers/lvgl/src/misc/lv_txt.c ****         uint32_t swapped;
 569:Drivers/lvgl/src/misc/lv_txt.c ****         uint8_t c8[4];
 570:Drivers/lvgl/src/misc/lv_txt.c ****         lv_memcpy_small(c8, &c, 4);
 571:Drivers/lvgl/src/misc/lv_txt.c ****         swapped = (c8[0] << 24) + (c8[1] << 16) + (c8[2] << 8) + (c8[3]);
  96              		.loc 1 571 9 is_stmt 1 view .LVU18
  97              		.loc 1 571 38 is_stmt 0 view .LVU19
  98 0004 C0F30722 		ubfx	r2, r0, #8, #8
  99              		.loc 1 571 33 view .LVU20
 100 0008 0306     		lsls	r3, r0, #24
 101 000a 03EB0243 		add	r3, r3, r2, lsl #16
 102              		.loc 1 571 54 view .LVU21
 103 000e C0F30742 		ubfx	r2, r0, #16, #8
 104              		.loc 1 571 49 view .LVU22
 105 0012 03EB0223 		add	r3, r3, r2, lsl #8
 106              		.loc 1 571 64 view .LVU23
 107 0016 03EB1063 		add	r3, r3, r0, lsr #24
 108              	.LVL3:
 572:Drivers/lvgl/src/misc/lv_txt.c ****         uint8_t i;
 109              		.loc 1 572 9 is_stmt 1 view .LVU24
 573:Drivers/lvgl/src/misc/lv_txt.c ****         for(i = 0; i < 4; i++) {
 110              		.loc 1 573 9 view .LVU25
 111              		.loc 1 573 22 view .LVU26
ARM GAS  /var/folders/0z/tsy30v1j4xl4_7kw94k978ww0000gn/T//ccd8hcN4.s 			page 13


 574:Drivers/lvgl/src/misc/lv_txt.c ****             if((swapped & 0xFF) == 0)
 112              		.loc 1 574 13 view .LVU27
 113              		.loc 1 574 15 is_stmt 0 view .LVU28
 114 001a 000E     		lsrs	r0, r0, #24
 115              	.LVL4:
 116              		.loc 1 574 15 view .LVU29
 117 001c 0BD1     		bne	.L10
 575:Drivers/lvgl/src/misc/lv_txt.c ****                 swapped = (swapped >> 8); /*Ignore leading zeros (they were in the end originally)*
 118              		.loc 1 575 17 is_stmt 1 view .LVU30
 574:Drivers/lvgl/src/misc/lv_txt.c ****             if((swapped & 0xFF) == 0)
 119              		.loc 1 574 15 is_stmt 0 view .LVU31
 120 001e 13F47F4F 		tst	r3, #65280
 121              		.loc 1 575 25 view .LVU32
 122 0022 4FEA1320 		lsr	r0, r3, #8
 123              	.LVL5:
 573:Drivers/lvgl/src/misc/lv_txt.c ****         for(i = 0; i < 4; i++) {
 124              		.loc 1 573 28 is_stmt 1 view .LVU33
 573:Drivers/lvgl/src/misc/lv_txt.c ****         for(i = 0; i < 4; i++) {
 125              		.loc 1 573 22 view .LVU34
 574:Drivers/lvgl/src/misc/lv_txt.c ****             if((swapped & 0xFF) == 0)
 126              		.loc 1 574 13 view .LVU35
 574:Drivers/lvgl/src/misc/lv_txt.c ****             if((swapped & 0xFF) == 0)
 127              		.loc 1 574 15 is_stmt 0 view .LVU36
 128 0026 07D1     		bne	.L8
 129              		.loc 1 575 17 is_stmt 1 view .LVU37
 574:Drivers/lvgl/src/misc/lv_txt.c ****             if((swapped & 0xFF) == 0)
 130              		.loc 1 574 15 is_stmt 0 view .LVU38
 131 0028 13F47F0F 		tst	r3, #16711680
 132              		.loc 1 575 25 view .LVU39
 133 002c 4FEA1340 		lsr	r0, r3, #16
 134              	.LVL6:
 573:Drivers/lvgl/src/misc/lv_txt.c ****         for(i = 0; i < 4; i++) {
 135              		.loc 1 573 28 is_stmt 1 view .LVU40
 573:Drivers/lvgl/src/misc/lv_txt.c ****         for(i = 0; i < 4; i++) {
 136              		.loc 1 573 22 view .LVU41
 574:Drivers/lvgl/src/misc/lv_txt.c ****             if((swapped & 0xFF) == 0)
 137              		.loc 1 574 13 view .LVU42
 574:Drivers/lvgl/src/misc/lv_txt.c ****             if((swapped & 0xFF) == 0)
 138              		.loc 1 574 15 is_stmt 0 view .LVU43
 139 0030 02D1     		bne	.L8
 140              		.loc 1 575 17 is_stmt 1 view .LVU44
 141              		.loc 1 575 25 is_stmt 0 view .LVU45
 142 0032 180E     		lsrs	r0, r3, #24
 143              	.LVL7:
 573:Drivers/lvgl/src/misc/lv_txt.c ****         for(i = 0; i < 4; i++) {
 144              		.loc 1 573 28 is_stmt 1 view .LVU46
 573:Drivers/lvgl/src/misc/lv_txt.c ****         for(i = 0; i < 4; i++) {
 145              		.loc 1 573 22 view .LVU47
 574:Drivers/lvgl/src/misc/lv_txt.c ****             if((swapped & 0xFF) == 0)
 146              		.loc 1 574 13 view .LVU48
 573:Drivers/lvgl/src/misc/lv_txt.c ****         for(i = 0; i < 4; i++) {
 147              		.loc 1 573 28 view .LVU49
 573:Drivers/lvgl/src/misc/lv_txt.c ****         for(i = 0; i < 4; i++) {
 148              		.loc 1 573 22 view .LVU50
 149 0034 7047     		bx	lr
 150              	.LVL8:
 151              	.L10:
ARM GAS  /var/folders/0z/tsy30v1j4xl4_7kw94k978ww0000gn/T//ccd8hcN4.s 			page 14


 571:Drivers/lvgl/src/misc/lv_txt.c ****         uint8_t i;
 152              		.loc 1 571 17 is_stmt 0 view .LVU51
 153 0036 1846     		mov	r0, r3
 154              	.LVL9:
 576:Drivers/lvgl/src/misc/lv_txt.c ****         }
 577:Drivers/lvgl/src/misc/lv_txt.c ****         c = swapped;
 155              		.loc 1 577 9 is_stmt 1 view .LVU52
 156              	.L8:
 157              		.loc 1 577 9 is_stmt 0 view .LVU53
 158              	.LBE29:
 578:Drivers/lvgl/src/misc/lv_txt.c ****     }
 579:Drivers/lvgl/src/misc/lv_txt.c **** #endif
 580:Drivers/lvgl/src/misc/lv_txt.c ****     return c;
 159              		.loc 1 580 5 is_stmt 1 view .LVU54
 581:Drivers/lvgl/src/misc/lv_txt.c **** }
 160              		.loc 1 581 1 is_stmt 0 view .LVU55
 161 0038 7047     		bx	lr
 162              		.cfi_endproc
 163              	.LFE66:
 165 003a 00BF     		.section	.text.lv_txt_utf8_next,"ax",%progbits
 166              		.align	1
 167              		.p2align 2,,3
 168              		.syntax unified
 169              		.thumb
 170              		.thumb_func
 172              	lv_txt_utf8_next:
 173              	.LVL10:
 174              	.LFB67:
 582:Drivers/lvgl/src/misc/lv_txt.c **** 
 583:Drivers/lvgl/src/misc/lv_txt.c **** /**
 584:Drivers/lvgl/src/misc/lv_txt.c ****  * Decode an UTF-8 character from a string.
 585:Drivers/lvgl/src/misc/lv_txt.c ****  * @param txt pointer to '\0' terminated string
 586:Drivers/lvgl/src/misc/lv_txt.c ****  * @param i start byte index in 'txt' where to start.
 587:Drivers/lvgl/src/misc/lv_txt.c ****  *          After call it will point to the next UTF-8 char in 'txt'.
 588:Drivers/lvgl/src/misc/lv_txt.c ****  *          NULL to use txt[0] as index
 589:Drivers/lvgl/src/misc/lv_txt.c ****  * @return the decoded Unicode character or 0 on invalid UTF-8 code
 590:Drivers/lvgl/src/misc/lv_txt.c ****  */
 591:Drivers/lvgl/src/misc/lv_txt.c **** static uint32_t lv_txt_utf8_next(const char * txt, uint32_t * i)
 592:Drivers/lvgl/src/misc/lv_txt.c **** {
 175              		.loc 1 592 1 is_stmt 1 view -0
 176              		.cfi_startproc
 177              		@ args = 0, pretend = 0, frame = 8
 178              		@ frame_needed = 0, uses_anonymous_args = 0
 179              		@ link register save eliminated.
 593:Drivers/lvgl/src/misc/lv_txt.c ****     /**
 594:Drivers/lvgl/src/misc/lv_txt.c ****      * Unicode to UTF-8
 595:Drivers/lvgl/src/misc/lv_txt.c ****      * 00000000 00000000 00000000 0xxxxxxx -> 0xxxxxxx
 596:Drivers/lvgl/src/misc/lv_txt.c ****      * 00000000 00000000 00000yyy yyxxxxxx -> 110yyyyy 10xxxxxx
 597:Drivers/lvgl/src/misc/lv_txt.c ****      * 00000000 00000000 zzzzyyyy yyxxxxxx -> 1110zzzz 10yyyyyy 10xxxxxx
 598:Drivers/lvgl/src/misc/lv_txt.c ****      * 00000000 000wwwzz zzzzyyyy yyxxxxxx -> 11110www 10zzzzzz 10yyyyyy 10xxxxxx
 599:Drivers/lvgl/src/misc/lv_txt.c ****      */
 600:Drivers/lvgl/src/misc/lv_txt.c **** 
 601:Drivers/lvgl/src/misc/lv_txt.c ****     uint32_t result = 0;
 180              		.loc 1 601 5 view .LVU57
 602:Drivers/lvgl/src/misc/lv_txt.c **** 
 603:Drivers/lvgl/src/misc/lv_txt.c ****     /*Dummy 'i' pointer is required*/
 604:Drivers/lvgl/src/misc/lv_txt.c ****     uint32_t i_tmp = 0;
ARM GAS  /var/folders/0z/tsy30v1j4xl4_7kw94k978ww0000gn/T//ccd8hcN4.s 			page 15


 181              		.loc 1 604 5 view .LVU58
 592:Drivers/lvgl/src/misc/lv_txt.c ****     /**
 182              		.loc 1 592 1 is_stmt 0 view .LVU59
 183 0000 70B4     		push	{r4, r5, r6}
 184              		.cfi_def_cfa_offset 12
 185              		.cfi_offset 4, -12
 186              		.cfi_offset 5, -8
 187              		.cfi_offset 6, -4
 188 0002 83B0     		sub	sp, sp, #12
 189              		.cfi_def_cfa_offset 24
 190              		.loc 1 604 14 view .LVU60
 191 0004 0023     		movs	r3, #0
 192 0006 0193     		str	r3, [sp, #4]
 605:Drivers/lvgl/src/misc/lv_txt.c ****     if(i == NULL) i = &i_tmp;
 193              		.loc 1 605 5 is_stmt 1 view .LVU61
 194              		.loc 1 605 7 is_stmt 0 view .LVU62
 195 0008 09B3     		cbz	r1, .L23
 606:Drivers/lvgl/src/misc/lv_txt.c **** 
 607:Drivers/lvgl/src/misc/lv_txt.c ****     /*Normal ASCII*/
 608:Drivers/lvgl/src/misc/lv_txt.c ****     if(LV_IS_ASCII(txt[*i])) {
 196              		.loc 1 608 8 view .LVU63
 197 000a 0C68     		ldr	r4, [r1]
 198 000c 0319     		adds	r3, r0, r4
 609:Drivers/lvgl/src/misc/lv_txt.c ****         result = txt[*i];
 610:Drivers/lvgl/src/misc/lv_txt.c ****         (*i)++;
 199              		.loc 1 610 13 view .LVU64
 200 000e 621C     		adds	r2, r4, #1
 201              	.LVL11:
 202              	.L15:
 608:Drivers/lvgl/src/misc/lv_txt.c ****         result = txt[*i];
 203              		.loc 1 608 5 is_stmt 1 view .LVU65
 608:Drivers/lvgl/src/misc/lv_txt.c ****         result = txt[*i];
 204              		.loc 1 608 7 is_stmt 0 view .LVU66
 205 0010 93F900C0 		ldrsb	ip, [r3]
 608:Drivers/lvgl/src/misc/lv_txt.c ****         result = txt[*i];
 206              		.loc 1 608 8 view .LVU67
 207 0014 1B78     		ldrb	r3, [r3]	@ zero_extendqisi2
 608:Drivers/lvgl/src/misc/lv_txt.c ****         result = txt[*i];
 208              		.loc 1 608 7 view .LVU68
 209 0016 BCF1000F 		cmp	ip, #0
 210 001a 04DB     		blt	.L16
 609:Drivers/lvgl/src/misc/lv_txt.c ****         result = txt[*i];
 211              		.loc 1 609 9 is_stmt 1 view .LVU69
 609:Drivers/lvgl/src/misc/lv_txt.c ****         result = txt[*i];
 212              		.loc 1 609 16 is_stmt 0 view .LVU70
 213 001c 1846     		mov	r0, r3
 214              	.LVL12:
 215              		.loc 1 610 9 is_stmt 1 view .LVU71
 216              		.loc 1 610 13 is_stmt 0 view .LVU72
 217 001e 0A60     		str	r2, [r1]
 218              	.LVL13:
 219              	.L14:
 611:Drivers/lvgl/src/misc/lv_txt.c ****     }
 612:Drivers/lvgl/src/misc/lv_txt.c ****     /*Real UTF-8 decode*/
 613:Drivers/lvgl/src/misc/lv_txt.c ****     else {
 614:Drivers/lvgl/src/misc/lv_txt.c ****         /*2 bytes UTF-8 code*/
 615:Drivers/lvgl/src/misc/lv_txt.c ****         if(LV_IS_2BYTES_UTF8_CODE(txt[*i])) {
ARM GAS  /var/folders/0z/tsy30v1j4xl4_7kw94k978ww0000gn/T//ccd8hcN4.s 			page 16


 616:Drivers/lvgl/src/misc/lv_txt.c ****             result = (uint32_t)(txt[*i] & 0x1F) << 6;
 617:Drivers/lvgl/src/misc/lv_txt.c ****             (*i)++;
 618:Drivers/lvgl/src/misc/lv_txt.c ****             if(LV_IS_INVALID_UTF8_CODE(txt[*i])) return 0;
 619:Drivers/lvgl/src/misc/lv_txt.c ****             result += (txt[*i] & 0x3F);
 620:Drivers/lvgl/src/misc/lv_txt.c ****             (*i)++;
 621:Drivers/lvgl/src/misc/lv_txt.c ****         }
 622:Drivers/lvgl/src/misc/lv_txt.c ****         /*3 bytes UTF-8 code*/
 623:Drivers/lvgl/src/misc/lv_txt.c ****         else if(LV_IS_3BYTES_UTF8_CODE(txt[*i])) {
 624:Drivers/lvgl/src/misc/lv_txt.c ****             result = (uint32_t)(txt[*i] & 0x0F) << 12;
 625:Drivers/lvgl/src/misc/lv_txt.c ****             (*i)++;
 626:Drivers/lvgl/src/misc/lv_txt.c **** 
 627:Drivers/lvgl/src/misc/lv_txt.c ****             if(LV_IS_INVALID_UTF8_CODE(txt[*i])) return 0;
 628:Drivers/lvgl/src/misc/lv_txt.c ****             result += (uint32_t)(txt[*i] & 0x3F) << 6;
 629:Drivers/lvgl/src/misc/lv_txt.c ****             (*i)++;
 630:Drivers/lvgl/src/misc/lv_txt.c **** 
 631:Drivers/lvgl/src/misc/lv_txt.c ****             if(LV_IS_INVALID_UTF8_CODE(txt[*i])) return 0;
 632:Drivers/lvgl/src/misc/lv_txt.c ****             result += (txt[*i] & 0x3F);
 633:Drivers/lvgl/src/misc/lv_txt.c ****             (*i)++;
 634:Drivers/lvgl/src/misc/lv_txt.c ****         }
 635:Drivers/lvgl/src/misc/lv_txt.c ****         /*4 bytes UTF-8 code*/
 636:Drivers/lvgl/src/misc/lv_txt.c ****         else if(LV_IS_4BYTES_UTF8_CODE(txt[*i])) {
 637:Drivers/lvgl/src/misc/lv_txt.c ****             result = (uint32_t)(txt[*i] & 0x07) << 18;
 638:Drivers/lvgl/src/misc/lv_txt.c ****             (*i)++;
 639:Drivers/lvgl/src/misc/lv_txt.c **** 
 640:Drivers/lvgl/src/misc/lv_txt.c ****             if(LV_IS_INVALID_UTF8_CODE(txt[*i])) return 0;
 641:Drivers/lvgl/src/misc/lv_txt.c ****             result += (uint32_t)(txt[*i] & 0x3F) << 12;
 642:Drivers/lvgl/src/misc/lv_txt.c ****             (*i)++;
 643:Drivers/lvgl/src/misc/lv_txt.c **** 
 644:Drivers/lvgl/src/misc/lv_txt.c ****             if(LV_IS_INVALID_UTF8_CODE(txt[*i])) return 0;
 645:Drivers/lvgl/src/misc/lv_txt.c ****             result += (uint32_t)(txt[*i] & 0x3F) << 6;
 646:Drivers/lvgl/src/misc/lv_txt.c ****             (*i)++;
 647:Drivers/lvgl/src/misc/lv_txt.c **** 
 648:Drivers/lvgl/src/misc/lv_txt.c ****             if(LV_IS_INVALID_UTF8_CODE(txt[*i])) return 0;
 649:Drivers/lvgl/src/misc/lv_txt.c ****             result += txt[*i] & 0x3F;
 650:Drivers/lvgl/src/misc/lv_txt.c ****             (*i)++;
 651:Drivers/lvgl/src/misc/lv_txt.c ****         }
 652:Drivers/lvgl/src/misc/lv_txt.c ****         else {
 653:Drivers/lvgl/src/misc/lv_txt.c ****             (*i)++; /*Not UTF-8 char. Go the next.*/
 654:Drivers/lvgl/src/misc/lv_txt.c ****         }
 655:Drivers/lvgl/src/misc/lv_txt.c ****     }
 656:Drivers/lvgl/src/misc/lv_txt.c ****     return result;
 657:Drivers/lvgl/src/misc/lv_txt.c **** }
 220              		.loc 1 657 1 view .LVU73
 221 0020 03B0     		add	sp, sp, #12
 222              		.cfi_remember_state
 223              		.cfi_def_cfa_offset 12
 224              		@ sp needed
 225 0022 70BC     		pop	{r4, r5, r6}
 226              		.cfi_restore 6
 227              		.cfi_restore 5
 228              		.cfi_restore 4
 229              		.cfi_def_cfa_offset 0
 230 0024 7047     		bx	lr
 231              	.LVL14:
 232              	.L16:
 233              		.cfi_restore_state
 615:Drivers/lvgl/src/misc/lv_txt.c ****             result = (uint32_t)(txt[*i] & 0x1F) << 6;
ARM GAS  /var/folders/0z/tsy30v1j4xl4_7kw94k978ww0000gn/T//ccd8hcN4.s 			page 17


 234              		.loc 1 615 9 is_stmt 1 view .LVU74
 615:Drivers/lvgl/src/misc/lv_txt.c ****             result = (uint32_t)(txt[*i] & 0x1F) << 6;
 235              		.loc 1 615 11 is_stmt 0 view .LVU75
 236 0026 03F0E00C 		and	ip, r3, #224
 237 002a BCF1C00F 		cmp	ip, #192
 238 002e 2DD0     		beq	.L25
 623:Drivers/lvgl/src/misc/lv_txt.c ****             result = (uint32_t)(txt[*i] & 0x0F) << 12;
 239              		.loc 1 623 14 is_stmt 1 view .LVU76
 623:Drivers/lvgl/src/misc/lv_txt.c ****             result = (uint32_t)(txt[*i] & 0x0F) << 12;
 240              		.loc 1 623 16 is_stmt 0 view .LVU77
 241 0030 03F0F00C 		and	ip, r3, #240
 242 0034 BCF1E00F 		cmp	ip, #224
 243 0038 0ED0     		beq	.L26
 636:Drivers/lvgl/src/misc/lv_txt.c ****             result = (uint32_t)(txt[*i] & 0x07) << 18;
 244              		.loc 1 636 14 is_stmt 1 view .LVU78
 636:Drivers/lvgl/src/misc/lv_txt.c ****             result = (uint32_t)(txt[*i] & 0x07) << 18;
 245              		.loc 1 636 16 is_stmt 0 view .LVU79
 246 003a 03F0F80C 		and	ip, r3, #248
 247 003e BCF1F00F 		cmp	ip, #240
 638:Drivers/lvgl/src/misc/lv_txt.c **** 
 248              		.loc 1 638 17 view .LVU80
 249 0042 0A60     		str	r2, [r1]
 636:Drivers/lvgl/src/misc/lv_txt.c ****             result = (uint32_t)(txt[*i] & 0x07) << 18;
 250              		.loc 1 636 16 view .LVU81
 251 0044 31D0     		beq	.L27
 252              	.LVL15:
 253              	.L22:
 653:Drivers/lvgl/src/misc/lv_txt.c ****         }
 254              		.loc 1 653 13 is_stmt 1 view .LVU82
 601:Drivers/lvgl/src/misc/lv_txt.c **** 
 255              		.loc 1 601 14 is_stmt 0 view .LVU83
 256 0046 0020     		movs	r0, #0
 257              		.loc 1 657 1 view .LVU84
 258 0048 03B0     		add	sp, sp, #12
 259              		.cfi_remember_state
 260              		.cfi_def_cfa_offset 12
 261              		@ sp needed
 262 004a 70BC     		pop	{r4, r5, r6}
 263              		.cfi_restore 6
 264              		.cfi_restore 5
 265              		.cfi_restore 4
 266              		.cfi_def_cfa_offset 0
 267 004c 7047     		bx	lr
 268              	.LVL16:
 269              	.L23:
 270              		.cfi_restore_state
 271              		.loc 1 657 1 view .LVU85
 272 004e 0C46     		mov	r4, r1
 273 0050 0346     		mov	r3, r0
 274 0052 0122     		movs	r2, #1
 605:Drivers/lvgl/src/misc/lv_txt.c **** 
 275              		.loc 1 605 21 view .LVU86
 276 0054 01A9     		add	r1, sp, #4
 277              	.LVL17:
 605:Drivers/lvgl/src/misc/lv_txt.c **** 
 278              		.loc 1 605 21 view .LVU87
 279 0056 DBE7     		b	.L15
ARM GAS  /var/folders/0z/tsy30v1j4xl4_7kw94k978ww0000gn/T//ccd8hcN4.s 			page 18


 280              	.LVL18:
 281              	.L26:
 624:Drivers/lvgl/src/misc/lv_txt.c ****             (*i)++;
 282              		.loc 1 624 13 is_stmt 1 view .LVU88
 625:Drivers/lvgl/src/misc/lv_txt.c **** 
 283              		.loc 1 625 13 view .LVU89
 625:Drivers/lvgl/src/misc/lv_txt.c **** 
 284              		.loc 1 625 17 is_stmt 0 view .LVU90
 285 0058 0A60     		str	r2, [r1]
 627:Drivers/lvgl/src/misc/lv_txt.c ****             result += (uint32_t)(txt[*i] & 0x3F) << 6;
 286              		.loc 1 627 13 is_stmt 1 view .LVU91
 627:Drivers/lvgl/src/misc/lv_txt.c ****             result += (uint32_t)(txt[*i] & 0x3F) << 6;
 287              		.loc 1 627 16 is_stmt 0 view .LVU92
 288 005a 825C     		ldrb	r2, [r0, r2]	@ zero_extendqisi2
 627:Drivers/lvgl/src/misc/lv_txt.c ****             result += (uint32_t)(txt[*i] & 0x3F) << 6;
 289              		.loc 1 627 15 view .LVU93
 290 005c 02F0C00C 		and	ip, r2, #192
 291 0060 BCF1800F 		cmp	ip, #128
 292 0064 EFD1     		bne	.L22
 628:Drivers/lvgl/src/misc/lv_txt.c ****             (*i)++;
 293              		.loc 1 628 13 is_stmt 1 view .LVU94
 294              	.LVL19:
 629:Drivers/lvgl/src/misc/lv_txt.c **** 
 295              		.loc 1 629 13 view .LVU95
 629:Drivers/lvgl/src/misc/lv_txt.c **** 
 296              		.loc 1 629 17 is_stmt 0 view .LVU96
 297 0066 A51C     		adds	r5, r4, #2
 298 0068 0D60     		str	r5, [r1]
 631:Drivers/lvgl/src/misc/lv_txt.c ****             result += (txt[*i] & 0x3F);
 299              		.loc 1 631 13 is_stmt 1 view .LVU97
 631:Drivers/lvgl/src/misc/lv_txt.c ****             result += (txt[*i] & 0x3F);
 300              		.loc 1 631 16 is_stmt 0 view .LVU98
 301 006a 405D     		ldrb	r0, [r0, r5]	@ zero_extendqisi2
 302              	.LVL20:
 631:Drivers/lvgl/src/misc/lv_txt.c ****             result += (txt[*i] & 0x3F);
 303              		.loc 1 631 15 view .LVU99
 304 006c 00F0C005 		and	r5, r0, #192
 305 0070 802D     		cmp	r5, #128
 306 0072 E8D1     		bne	.L22
 632:Drivers/lvgl/src/misc/lv_txt.c ****             (*i)++;
 307              		.loc 1 632 13 is_stmt 1 view .LVU100
 628:Drivers/lvgl/src/misc/lv_txt.c ****             (*i)++;
 308              		.loc 1 628 50 is_stmt 0 view .LVU101
 309 0074 9201     		lsls	r2, r2, #6
 310              	.LVL21:
 632:Drivers/lvgl/src/misc/lv_txt.c ****             (*i)++;
 311              		.loc 1 632 32 view .LVU102
 312 0076 00F03F00 		and	r0, r0, #63
 624:Drivers/lvgl/src/misc/lv_txt.c ****             (*i)++;
 313              		.loc 1 624 49 view .LVU103
 314 007a 1B03     		lsls	r3, r3, #12
 628:Drivers/lvgl/src/misc/lv_txt.c ****             (*i)++;
 315              		.loc 1 628 50 view .LVU104
 316 007c 02F47C62 		and	r2, r2, #4032
 624:Drivers/lvgl/src/misc/lv_txt.c ****             (*i)++;
 317              		.loc 1 624 20 view .LVU105
 318 0080 9BB2     		uxth	r3, r3
ARM GAS  /var/folders/0z/tsy30v1j4xl4_7kw94k978ww0000gn/T//ccd8hcN4.s 			page 19


 632:Drivers/lvgl/src/misc/lv_txt.c ****             (*i)++;
 319              		.loc 1 632 20 view .LVU106
 320 0082 0244     		add	r2, r2, r0
 633:Drivers/lvgl/src/misc/lv_txt.c ****         }
 321              		.loc 1 633 17 view .LVU107
 322 0084 0334     		adds	r4, r4, #3
 632:Drivers/lvgl/src/misc/lv_txt.c ****             (*i)++;
 323              		.loc 1 632 20 view .LVU108
 324 0086 D018     		adds	r0, r2, r3
 325              	.LVL22:
 633:Drivers/lvgl/src/misc/lv_txt.c ****         }
 326              		.loc 1 633 13 is_stmt 1 view .LVU109
 633:Drivers/lvgl/src/misc/lv_txt.c ****         }
 327              		.loc 1 633 17 is_stmt 0 view .LVU110
 328 0088 0C60     		str	r4, [r1]
 329 008a C9E7     		b	.L14
 330              	.LVL23:
 331              	.L25:
 616:Drivers/lvgl/src/misc/lv_txt.c ****             (*i)++;
 332              		.loc 1 616 13 is_stmt 1 view .LVU111
 617:Drivers/lvgl/src/misc/lv_txt.c ****             if(LV_IS_INVALID_UTF8_CODE(txt[*i])) return 0;
 333              		.loc 1 617 13 view .LVU112
 617:Drivers/lvgl/src/misc/lv_txt.c ****             if(LV_IS_INVALID_UTF8_CODE(txt[*i])) return 0;
 334              		.loc 1 617 17 is_stmt 0 view .LVU113
 335 008c 0A60     		str	r2, [r1]
 618:Drivers/lvgl/src/misc/lv_txt.c ****             result += (txt[*i] & 0x3F);
 336              		.loc 1 618 13 is_stmt 1 view .LVU114
 618:Drivers/lvgl/src/misc/lv_txt.c ****             result += (txt[*i] & 0x3F);
 337              		.loc 1 618 16 is_stmt 0 view .LVU115
 338 008e 825C     		ldrb	r2, [r0, r2]	@ zero_extendqisi2
 618:Drivers/lvgl/src/misc/lv_txt.c ****             result += (txt[*i] & 0x3F);
 339              		.loc 1 618 15 view .LVU116
 340 0090 02F0C000 		and	r0, r2, #192
 341              	.LVL24:
 618:Drivers/lvgl/src/misc/lv_txt.c ****             result += (txt[*i] & 0x3F);
 342              		.loc 1 618 15 view .LVU117
 343 0094 8028     		cmp	r0, #128
 344 0096 D6D1     		bne	.L22
 619:Drivers/lvgl/src/misc/lv_txt.c ****             (*i)++;
 345              		.loc 1 619 13 is_stmt 1 view .LVU118
 616:Drivers/lvgl/src/misc/lv_txt.c ****             (*i)++;
 346              		.loc 1 616 49 is_stmt 0 view .LVU119
 347 0098 9B01     		lsls	r3, r3, #6
 348              	.LVL25:
 616:Drivers/lvgl/src/misc/lv_txt.c ****             (*i)++;
 349              		.loc 1 616 20 view .LVU120
 350 009a 03F4F863 		and	r3, r3, #1984
 619:Drivers/lvgl/src/misc/lv_txt.c ****             (*i)++;
 351              		.loc 1 619 32 view .LVU121
 352 009e 02F03F02 		and	r2, r2, #63
 620:Drivers/lvgl/src/misc/lv_txt.c ****         }
 353              		.loc 1 620 17 view .LVU122
 354 00a2 0234     		adds	r4, r4, #2
 619:Drivers/lvgl/src/misc/lv_txt.c ****             (*i)++;
 355              		.loc 1 619 20 view .LVU123
 356 00a4 D018     		adds	r0, r2, r3
 357              	.LVL26:
ARM GAS  /var/folders/0z/tsy30v1j4xl4_7kw94k978ww0000gn/T//ccd8hcN4.s 			page 20


 620:Drivers/lvgl/src/misc/lv_txt.c ****         }
 358              		.loc 1 620 13 is_stmt 1 view .LVU124
 620:Drivers/lvgl/src/misc/lv_txt.c ****         }
 359              		.loc 1 620 17 is_stmt 0 view .LVU125
 360 00a6 0C60     		str	r4, [r1]
 361 00a8 BAE7     		b	.L14
 362              	.LVL27:
 363              	.L27:
 637:Drivers/lvgl/src/misc/lv_txt.c ****             (*i)++;
 364              		.loc 1 637 13 is_stmt 1 view .LVU126
 638:Drivers/lvgl/src/misc/lv_txt.c **** 
 365              		.loc 1 638 13 view .LVU127
 640:Drivers/lvgl/src/misc/lv_txt.c ****             result += (uint32_t)(txt[*i] & 0x3F) << 12;
 366              		.loc 1 640 13 view .LVU128
 640:Drivers/lvgl/src/misc/lv_txt.c ****             result += (uint32_t)(txt[*i] & 0x3F) << 12;
 367              		.loc 1 640 16 is_stmt 0 view .LVU129
 368 00aa 825C     		ldrb	r2, [r0, r2]	@ zero_extendqisi2
 640:Drivers/lvgl/src/misc/lv_txt.c ****             result += (uint32_t)(txt[*i] & 0x3F) << 12;
 369              		.loc 1 640 15 view .LVU130
 370 00ac 02F0C005 		and	r5, r2, #192
 371 00b0 802D     		cmp	r5, #128
 372 00b2 C8D1     		bne	.L22
 641:Drivers/lvgl/src/misc/lv_txt.c ****             (*i)++;
 373              		.loc 1 641 13 is_stmt 1 view .LVU131
 374              	.LVL28:
 642:Drivers/lvgl/src/misc/lv_txt.c **** 
 375              		.loc 1 642 13 view .LVU132
 642:Drivers/lvgl/src/misc/lv_txt.c **** 
 376              		.loc 1 642 17 is_stmt 0 view .LVU133
 377 00b4 A51C     		adds	r5, r4, #2
 378 00b6 0D60     		str	r5, [r1]
 644:Drivers/lvgl/src/misc/lv_txt.c ****             result += (uint32_t)(txt[*i] & 0x3F) << 6;
 379              		.loc 1 644 13 is_stmt 1 view .LVU134
 644:Drivers/lvgl/src/misc/lv_txt.c ****             result += (uint32_t)(txt[*i] & 0x3F) << 6;
 380              		.loc 1 644 16 is_stmt 0 view .LVU135
 381 00b8 455D     		ldrb	r5, [r0, r5]	@ zero_extendqisi2
 644:Drivers/lvgl/src/misc/lv_txt.c ****             result += (uint32_t)(txt[*i] & 0x3F) << 6;
 382              		.loc 1 644 15 view .LVU136
 383 00ba 05F0C00C 		and	ip, r5, #192
 384 00be BCF1800F 		cmp	ip, #128
 385 00c2 C0D1     		bne	.L22
 645:Drivers/lvgl/src/misc/lv_txt.c ****             (*i)++;
 386              		.loc 1 645 13 is_stmt 1 view .LVU137
 387              	.LVL29:
 646:Drivers/lvgl/src/misc/lv_txt.c **** 
 388              		.loc 1 646 13 view .LVU138
 646:Drivers/lvgl/src/misc/lv_txt.c **** 
 389              		.loc 1 646 17 is_stmt 0 view .LVU139
 390 00c4 E61C     		adds	r6, r4, #3
 391 00c6 0E60     		str	r6, [r1]
 648:Drivers/lvgl/src/misc/lv_txt.c ****             result += txt[*i] & 0x3F;
 392              		.loc 1 648 13 is_stmt 1 view .LVU140
 648:Drivers/lvgl/src/misc/lv_txt.c ****             result += txt[*i] & 0x3F;
 393              		.loc 1 648 16 is_stmt 0 view .LVU141
 394 00c8 805D     		ldrb	r0, [r0, r6]	@ zero_extendqisi2
 395              	.LVL30:
 648:Drivers/lvgl/src/misc/lv_txt.c ****             result += txt[*i] & 0x3F;
ARM GAS  /var/folders/0z/tsy30v1j4xl4_7kw94k978ww0000gn/T//ccd8hcN4.s 			page 21


 396              		.loc 1 648 15 view .LVU142
 397 00ca 00F0C006 		and	r6, r0, #192
 398 00ce 802E     		cmp	r6, #128
 399 00d0 B9D1     		bne	.L22
 649:Drivers/lvgl/src/misc/lv_txt.c ****             (*i)++;
 400              		.loc 1 649 13 is_stmt 1 view .LVU143
 637:Drivers/lvgl/src/misc/lv_txt.c ****             (*i)++;
 401              		.loc 1 637 49 is_stmt 0 view .LVU144
 402 00d2 9B04     		lsls	r3, r3, #18
 403              	.LVL31:
 641:Drivers/lvgl/src/misc/lv_txt.c ****             (*i)++;
 404              		.loc 1 641 50 view .LVU145
 405 00d4 1203     		lsls	r2, r2, #12
 637:Drivers/lvgl/src/misc/lv_txt.c ****             (*i)++;
 406              		.loc 1 637 20 view .LVU146
 407 00d6 03F4E013 		and	r3, r3, #1835008
 641:Drivers/lvgl/src/misc/lv_txt.c ****             (*i)++;
 408              		.loc 1 641 50 view .LVU147
 409 00da 02F47C32 		and	r2, r2, #258048
 641:Drivers/lvgl/src/misc/lv_txt.c ****             (*i)++;
 410              		.loc 1 641 20 view .LVU148
 411 00de 1A43     		orrs	r2, r2, r3
 645:Drivers/lvgl/src/misc/lv_txt.c ****             (*i)++;
 412              		.loc 1 645 50 view .LVU149
 413 00e0 AB01     		lsls	r3, r5, #6
 414 00e2 03F47C63 		and	r3, r3, #4032
 415 00e6 1A44     		add	r2, r2, r3
 649:Drivers/lvgl/src/misc/lv_txt.c ****             (*i)++;
 416              		.loc 1 649 31 view .LVU150
 417 00e8 00F03F00 		and	r0, r0, #63
 650:Drivers/lvgl/src/misc/lv_txt.c ****         }
 418              		.loc 1 650 17 view .LVU151
 419 00ec 0434     		adds	r4, r4, #4
 649:Drivers/lvgl/src/misc/lv_txt.c ****             (*i)++;
 420              		.loc 1 649 20 view .LVU152
 421 00ee 1044     		add	r0, r0, r2
 422              	.LVL32:
 650:Drivers/lvgl/src/misc/lv_txt.c ****         }
 423              		.loc 1 650 13 is_stmt 1 view .LVU153
 650:Drivers/lvgl/src/misc/lv_txt.c ****         }
 424              		.loc 1 650 17 is_stmt 0 view .LVU154
 425 00f0 0C60     		str	r4, [r1]
 426 00f2 95E7     		b	.L14
 427              		.cfi_endproc
 428              	.LFE67:
 430              		.section	.text.lv_txt_utf8_get_byte_id,"ax",%progbits
 431              		.align	1
 432              		.p2align 2,,3
 433              		.syntax unified
 434              		.thumb
 435              		.thumb_func
 437              	lv_txt_utf8_get_byte_id:
 438              	.LVL33:
 439              	.LFB69:
 658:Drivers/lvgl/src/misc/lv_txt.c **** 
 659:Drivers/lvgl/src/misc/lv_txt.c **** /**
 660:Drivers/lvgl/src/misc/lv_txt.c ****  * Get previous UTF-8 character form a string.
ARM GAS  /var/folders/0z/tsy30v1j4xl4_7kw94k978ww0000gn/T//ccd8hcN4.s 			page 22


 661:Drivers/lvgl/src/misc/lv_txt.c ****  * @param txt pointer to '\0' terminated string
 662:Drivers/lvgl/src/misc/lv_txt.c ****  * @param i start byte index in 'txt' where to start. After the call it will point to the previous
 663:Drivers/lvgl/src/misc/lv_txt.c ****  * UTF-8 char in 'txt'.
 664:Drivers/lvgl/src/misc/lv_txt.c ****  * @return the decoded Unicode character or 0 on invalid UTF-8 code
 665:Drivers/lvgl/src/misc/lv_txt.c ****  */
 666:Drivers/lvgl/src/misc/lv_txt.c **** static uint32_t lv_txt_utf8_prev(const char * txt, uint32_t * i)
 667:Drivers/lvgl/src/misc/lv_txt.c **** {
 668:Drivers/lvgl/src/misc/lv_txt.c ****     uint8_t c_size;
 669:Drivers/lvgl/src/misc/lv_txt.c ****     uint8_t cnt = 0;
 670:Drivers/lvgl/src/misc/lv_txt.c **** 
 671:Drivers/lvgl/src/misc/lv_txt.c ****     /*Try to find a !0 long UTF-8 char by stepping one character back*/
 672:Drivers/lvgl/src/misc/lv_txt.c ****     (*i)--;
 673:Drivers/lvgl/src/misc/lv_txt.c ****     do {
 674:Drivers/lvgl/src/misc/lv_txt.c ****         if(cnt >= 4) return 0; /*No UTF-8 char found before the initial*/
 675:Drivers/lvgl/src/misc/lv_txt.c **** 
 676:Drivers/lvgl/src/misc/lv_txt.c ****         c_size = _lv_txt_encoded_size(&txt[*i]);
 677:Drivers/lvgl/src/misc/lv_txt.c ****         if(c_size == 0) {
 678:Drivers/lvgl/src/misc/lv_txt.c ****             if(*i != 0)
 679:Drivers/lvgl/src/misc/lv_txt.c ****                 (*i)--;
 680:Drivers/lvgl/src/misc/lv_txt.c ****             else
 681:Drivers/lvgl/src/misc/lv_txt.c ****                 return 0;
 682:Drivers/lvgl/src/misc/lv_txt.c ****         }
 683:Drivers/lvgl/src/misc/lv_txt.c ****         cnt++;
 684:Drivers/lvgl/src/misc/lv_txt.c ****     } while(c_size == 0);
 685:Drivers/lvgl/src/misc/lv_txt.c **** 
 686:Drivers/lvgl/src/misc/lv_txt.c ****     uint32_t i_tmp  = *i;
 687:Drivers/lvgl/src/misc/lv_txt.c ****     uint32_t letter = _lv_txt_encoded_next(txt, &i_tmp); /*Character found, get it*/
 688:Drivers/lvgl/src/misc/lv_txt.c **** 
 689:Drivers/lvgl/src/misc/lv_txt.c ****     return letter;
 690:Drivers/lvgl/src/misc/lv_txt.c **** }
 691:Drivers/lvgl/src/misc/lv_txt.c **** 
 692:Drivers/lvgl/src/misc/lv_txt.c **** /**
 693:Drivers/lvgl/src/misc/lv_txt.c ****  * Convert a character index (in an UTF-8 text) to byte index.
 694:Drivers/lvgl/src/misc/lv_txt.c ****  * E.g. in "AÁRT" index of 'R' is 2th char but start at byte 3 because 'Á' is 2 bytes long
 695:Drivers/lvgl/src/misc/lv_txt.c ****  * @param txt a '\0' terminated UTF-8 string
 696:Drivers/lvgl/src/misc/lv_txt.c ****  * @param utf8_id character index
 697:Drivers/lvgl/src/misc/lv_txt.c ****  * @return byte index of the 'utf8_id'th letter
 698:Drivers/lvgl/src/misc/lv_txt.c ****  */
 699:Drivers/lvgl/src/misc/lv_txt.c **** static uint32_t lv_txt_utf8_get_byte_id(const char * txt, uint32_t utf8_id)
 700:Drivers/lvgl/src/misc/lv_txt.c **** {
 440              		.loc 1 700 1 is_stmt 1 view -0
 441              		.cfi_startproc
 442              		@ args = 0, pretend = 0, frame = 0
 443              		@ frame_needed = 0, uses_anonymous_args = 0
 701:Drivers/lvgl/src/misc/lv_txt.c ****     uint32_t i;
 444              		.loc 1 701 5 view .LVU156
 702:Drivers/lvgl/src/misc/lv_txt.c ****     uint32_t byte_cnt = 0;
 445              		.loc 1 702 5 view .LVU157
 703:Drivers/lvgl/src/misc/lv_txt.c ****     for(i = 0; i < utf8_id && txt[byte_cnt] != '\0'; i++) {
 446              		.loc 1 703 5 view .LVU158
 447              		.loc 1 703 28 view .LVU159
 700:Drivers/lvgl/src/misc/lv_txt.c ****     uint32_t i;
 448              		.loc 1 700 1 is_stmt 0 view .LVU160
 449 0000 2DE9F041 		push	{r4, r5, r6, r7, r8, lr}
 450              		.cfi_def_cfa_offset 24
 451              		.cfi_offset 4, -24
 452              		.cfi_offset 5, -20
ARM GAS  /var/folders/0z/tsy30v1j4xl4_7kw94k978ww0000gn/T//ccd8hcN4.s 			page 23


 453              		.cfi_offset 6, -16
 454              		.cfi_offset 7, -12
 455              		.cfi_offset 8, -8
 456              		.cfi_offset 14, -4
 457              		.loc 1 703 28 view .LVU161
 458 0004 0F46     		mov	r7, r1
 702:Drivers/lvgl/src/misc/lv_txt.c ****     uint32_t byte_cnt = 0;
 459              		.loc 1 702 14 view .LVU162
 460 0006 0C46     		mov	r4, r1
 461              		.loc 1 703 28 view .LVU163
 462 0008 A1B1     		cbz	r1, .L28
 702:Drivers/lvgl/src/misc/lv_txt.c ****     uint32_t byte_cnt = 0;
 463              		.loc 1 702 14 view .LVU164
 464 000a 0024     		movs	r4, #0
 465              	.LBB30:
 704:Drivers/lvgl/src/misc/lv_txt.c ****         uint8_t c_size = _lv_txt_encoded_size(&txt[byte_cnt]);
 466              		.loc 1 704 26 view .LVU165
 467 000c DFF82C80 		ldr	r8, .L34
 468 0010 0646     		mov	r6, r0
 469              	.LBE30:
 703:Drivers/lvgl/src/misc/lv_txt.c ****     for(i = 0; i < utf8_id && txt[byte_cnt] != '\0'; i++) {
 470              		.loc 1 703 11 view .LVU166
 471 0012 2546     		mov	r5, r4
 472 0014 09E0     		b	.L29
 473              	.LVL34:
 474              	.L31:
 475              	.LBB31:
 476              		.loc 1 704 26 view .LVU167
 477 0016 D8F80030 		ldr	r3, [r8]
 478 001a 9847     		blx	r3
 479              	.LVL35:
 705:Drivers/lvgl/src/misc/lv_txt.c ****         /* If the char was invalid tell it's 1 byte long*/
 706:Drivers/lvgl/src/misc/lv_txt.c ****         byte_cnt += c_size ? c_size : 1;
 480              		.loc 1 706 9 is_stmt 1 view .LVU168
 481              		.loc 1 706 18 is_stmt 0 view .LVU169
 482 001c 0128     		cmp	r0, #1
 483 001e 38BF     		it	cc
 484 0020 0120     		movcc	r0, #1
 485              	.LVL36:
 486              		.loc 1 706 18 view .LVU170
 487              	.LBE31:
 703:Drivers/lvgl/src/misc/lv_txt.c ****         uint8_t c_size = _lv_txt_encoded_size(&txt[byte_cnt]);
 488              		.loc 1 703 28 view .LVU171
 489 0022 AF42     		cmp	r7, r5
 490              	.LBB32:
 491              		.loc 1 706 18 view .LVU172
 492 0024 54FA80F4 		uxtab	r4, r4, r0
 493              	.LVL37:
 494              		.loc 1 706 18 view .LVU173
 495              	.LBE32:
 703:Drivers/lvgl/src/misc/lv_txt.c ****         uint8_t c_size = _lv_txt_encoded_size(&txt[byte_cnt]);
 496              		.loc 1 703 55 is_stmt 1 view .LVU174
 703:Drivers/lvgl/src/misc/lv_txt.c ****         uint8_t c_size = _lv_txt_encoded_size(&txt[byte_cnt]);
 497              		.loc 1 703 28 view .LVU175
 498 0028 04D0     		beq	.L28
 499              	.LVL38:
 500              	.L29:
ARM GAS  /var/folders/0z/tsy30v1j4xl4_7kw94k978ww0000gn/T//ccd8hcN4.s 			page 24


 501              	.LBB33:
 704:Drivers/lvgl/src/misc/lv_txt.c ****         uint8_t c_size = _lv_txt_encoded_size(&txt[byte_cnt]);
 502              		.loc 1 704 9 discriminator 3 view .LVU176
 704:Drivers/lvgl/src/misc/lv_txt.c ****         uint8_t c_size = _lv_txt_encoded_size(&txt[byte_cnt]);
 503              		.loc 1 704 9 is_stmt 0 discriminator 3 view .LVU177
 504              	.LBE33:
 703:Drivers/lvgl/src/misc/lv_txt.c ****         uint8_t c_size = _lv_txt_encoded_size(&txt[byte_cnt]);
 505              		.loc 1 703 28 discriminator 3 view .LVU178
 506 002a 335D     		ldrb	r3, [r6, r4]	@ zero_extendqisi2
 703:Drivers/lvgl/src/misc/lv_txt.c ****         uint8_t c_size = _lv_txt_encoded_size(&txt[byte_cnt]);
 507              		.loc 1 703 55 discriminator 3 view .LVU179
 508 002c 0135     		adds	r5, r5, #1
 509              	.LVL39:
 703:Drivers/lvgl/src/misc/lv_txt.c ****         uint8_t c_size = _lv_txt_encoded_size(&txt[byte_cnt]);
 510              		.loc 1 703 34 discriminator 3 view .LVU180
 511 002e 3019     		adds	r0, r6, r4
 703:Drivers/lvgl/src/misc/lv_txt.c ****         uint8_t c_size = _lv_txt_encoded_size(&txt[byte_cnt]);
 512              		.loc 1 703 28 discriminator 3 view .LVU181
 513 0030 002B     		cmp	r3, #0
 514 0032 F0D1     		bne	.L31
 515              	.LVL40:
 516              	.L28:
 707:Drivers/lvgl/src/misc/lv_txt.c ****     }
 708:Drivers/lvgl/src/misc/lv_txt.c **** 
 709:Drivers/lvgl/src/misc/lv_txt.c ****     return byte_cnt;
 710:Drivers/lvgl/src/misc/lv_txt.c **** }
 517              		.loc 1 710 1 view .LVU182
 518 0034 2046     		mov	r0, r4
 519 0036 BDE8F081 		pop	{r4, r5, r6, r7, r8, pc}
 520              	.LVL41:
 521              	.L35:
 522              		.loc 1 710 1 view .LVU183
 523 003a 00BF     		.align	2
 524              	.L34:
 525 003c 00000000 		.word	.LANCHOR0
 526              		.cfi_endproc
 527              	.LFE69:
 529              		.section	.text.lv_txt_utf8_get_char_id,"ax",%progbits
 530              		.align	1
 531              		.p2align 2,,3
 532              		.syntax unified
 533              		.thumb
 534              		.thumb_func
 536              	lv_txt_utf8_get_char_id:
 537              	.LVL42:
 538              	.LFB70:
 711:Drivers/lvgl/src/misc/lv_txt.c **** 
 712:Drivers/lvgl/src/misc/lv_txt.c **** /**
 713:Drivers/lvgl/src/misc/lv_txt.c ****  * Convert a byte index (in an UTF-8 text) to character index.
 714:Drivers/lvgl/src/misc/lv_txt.c ****  * E.g. in "AÁRT" index of 'R' is 2th char but start at byte 3 because 'Á' is 2 bytes long
 715:Drivers/lvgl/src/misc/lv_txt.c ****  * @param txt a '\0' terminated UTF-8 string
 716:Drivers/lvgl/src/misc/lv_txt.c ****  * @param byte_id byte index
 717:Drivers/lvgl/src/misc/lv_txt.c ****  * @return character index of the letter at 'byte_id'th position
 718:Drivers/lvgl/src/misc/lv_txt.c ****  */
 719:Drivers/lvgl/src/misc/lv_txt.c **** static uint32_t lv_txt_utf8_get_char_id(const char * txt, uint32_t byte_id)
 720:Drivers/lvgl/src/misc/lv_txt.c **** {
 539              		.loc 1 720 1 is_stmt 1 view -0
ARM GAS  /var/folders/0z/tsy30v1j4xl4_7kw94k978ww0000gn/T//ccd8hcN4.s 			page 25


 540              		.cfi_startproc
 541              		@ args = 0, pretend = 0, frame = 8
 542              		@ frame_needed = 0, uses_anonymous_args = 0
 721:Drivers/lvgl/src/misc/lv_txt.c ****     uint32_t i        = 0;
 543              		.loc 1 721 5 view .LVU185
 720:Drivers/lvgl/src/misc/lv_txt.c ****     uint32_t i        = 0;
 544              		.loc 1 720 1 is_stmt 0 view .LVU186
 545 0000 F0B5     		push	{r4, r5, r6, r7, lr}
 546              		.cfi_def_cfa_offset 20
 547              		.cfi_offset 4, -20
 548              		.cfi_offset 5, -16
 549              		.cfi_offset 6, -12
 550              		.cfi_offset 7, -8
 551              		.cfi_offset 14, -4
 552 0002 83B0     		sub	sp, sp, #12
 553              		.cfi_def_cfa_offset 32
 554              		.loc 1 721 14 view .LVU187
 555 0004 0024     		movs	r4, #0
 556 0006 0194     		str	r4, [sp, #4]
 722:Drivers/lvgl/src/misc/lv_txt.c ****     uint32_t char_cnt = 0;
 557              		.loc 1 722 5 is_stmt 1 view .LVU188
 558              	.LVL43:
 723:Drivers/lvgl/src/misc/lv_txt.c **** 
 724:Drivers/lvgl/src/misc/lv_txt.c ****     while(i < byte_id) {
 559              		.loc 1 724 5 view .LVU189
 560              		.loc 1 724 13 view .LVU190
 561 0008 0D46     		mov	r5, r1
 562 000a 69B1     		cbz	r1, .L39
 563 000c 084F     		ldr	r7, .L42
 564 000e 0646     		mov	r6, r0
 565              	.LVL44:
 566              	.L38:
 725:Drivers/lvgl/src/misc/lv_txt.c ****         _lv_txt_encoded_next(txt, &i); /*'i' points to the next letter so use the prev. value*/
 567              		.loc 1 725 9 view .LVU191
 568 0010 3B68     		ldr	r3, [r7]
 569 0012 01A9     		add	r1, sp, #4
 570 0014 3046     		mov	r0, r6
 571 0016 9847     		blx	r3
 572              	.LVL45:
 726:Drivers/lvgl/src/misc/lv_txt.c ****         char_cnt++;
 573              		.loc 1 726 9 view .LVU192
 724:Drivers/lvgl/src/misc/lv_txt.c ****         _lv_txt_encoded_next(txt, &i); /*'i' points to the next letter so use the prev. value*/
 574              		.loc 1 724 13 is_stmt 0 view .LVU193
 575 0018 019B     		ldr	r3, [sp, #4]
 576 001a AB42     		cmp	r3, r5
 577              		.loc 1 726 17 view .LVU194
 578 001c 04F10104 		add	r4, r4, #1
 579              	.LVL46:
 724:Drivers/lvgl/src/misc/lv_txt.c ****         _lv_txt_encoded_next(txt, &i); /*'i' points to the next letter so use the prev. value*/
 580              		.loc 1 724 13 is_stmt 1 view .LVU195
 581 0020 F6D3     		bcc	.L38
 727:Drivers/lvgl/src/misc/lv_txt.c ****     }
 728:Drivers/lvgl/src/misc/lv_txt.c **** 
 729:Drivers/lvgl/src/misc/lv_txt.c ****     return char_cnt;
 730:Drivers/lvgl/src/misc/lv_txt.c **** }
 582              		.loc 1 730 1 is_stmt 0 view .LVU196
 583 0022 2046     		mov	r0, r4
ARM GAS  /var/folders/0z/tsy30v1j4xl4_7kw94k978ww0000gn/T//ccd8hcN4.s 			page 26


 584 0024 03B0     		add	sp, sp, #12
 585              		.cfi_remember_state
 586              		.cfi_def_cfa_offset 20
 587              		@ sp needed
 588 0026 F0BD     		pop	{r4, r5, r6, r7, pc}
 589              	.LVL47:
 590              	.L39:
 591              		.cfi_restore_state
 722:Drivers/lvgl/src/misc/lv_txt.c **** 
 592              		.loc 1 722 14 view .LVU197
 593 0028 0C46     		mov	r4, r1
 729:Drivers/lvgl/src/misc/lv_txt.c **** }
 594              		.loc 1 729 5 is_stmt 1 view .LVU198
 595              		.loc 1 730 1 is_stmt 0 view .LVU199
 596 002a 2046     		mov	r0, r4
 597              	.LVL48:
 598              		.loc 1 730 1 view .LVU200
 599 002c 03B0     		add	sp, sp, #12
 600              		.cfi_def_cfa_offset 20
 601              		@ sp needed
 602 002e F0BD     		pop	{r4, r5, r6, r7, pc}
 603              	.L43:
 604              		.align	2
 605              	.L42:
 606 0030 00000000 		.word	.LANCHOR1
 607              		.cfi_endproc
 608              	.LFE70:
 610              		.section	.text.lv_txt_utf8_get_length,"ax",%progbits
 611              		.align	1
 612              		.p2align 2,,3
 613              		.syntax unified
 614              		.thumb
 615              		.thumb_func
 617              	lv_txt_utf8_get_length:
 618              	.LVL49:
 619              	.LFB71:
 731:Drivers/lvgl/src/misc/lv_txt.c **** 
 732:Drivers/lvgl/src/misc/lv_txt.c **** /**
 733:Drivers/lvgl/src/misc/lv_txt.c ****  * Get the number of characters (and NOT bytes) in a string. Decode it with UTF-8 if enabled.
 734:Drivers/lvgl/src/misc/lv_txt.c ****  * E.g.: "ÁBC" is 3 characters (but 4 bytes)
 735:Drivers/lvgl/src/misc/lv_txt.c ****  * @param txt a '\0' terminated char string
 736:Drivers/lvgl/src/misc/lv_txt.c ****  * @return number of characters
 737:Drivers/lvgl/src/misc/lv_txt.c ****  */
 738:Drivers/lvgl/src/misc/lv_txt.c **** static uint32_t lv_txt_utf8_get_length(const char * txt)
 739:Drivers/lvgl/src/misc/lv_txt.c **** {
 620              		.loc 1 739 1 is_stmt 1 view -0
 621              		.cfi_startproc
 622              		@ args = 0, pretend = 0, frame = 8
 623              		@ frame_needed = 0, uses_anonymous_args = 0
 740:Drivers/lvgl/src/misc/lv_txt.c ****     uint32_t len = 0;
 624              		.loc 1 740 5 view .LVU202
 741:Drivers/lvgl/src/misc/lv_txt.c ****     uint32_t i   = 0;
 625              		.loc 1 741 5 view .LVU203
 739:Drivers/lvgl/src/misc/lv_txt.c ****     uint32_t len = 0;
 626              		.loc 1 739 1 is_stmt 0 view .LVU204
 627 0000 70B5     		push	{r4, r5, r6, lr}
 628              		.cfi_def_cfa_offset 16
ARM GAS  /var/folders/0z/tsy30v1j4xl4_7kw94k978ww0000gn/T//ccd8hcN4.s 			page 27


 629              		.cfi_offset 4, -16
 630              		.cfi_offset 5, -12
 631              		.cfi_offset 6, -8
 632              		.cfi_offset 14, -4
 633 0002 82B0     		sub	sp, sp, #8
 634              		.cfi_def_cfa_offset 24
 742:Drivers/lvgl/src/misc/lv_txt.c **** 
 743:Drivers/lvgl/src/misc/lv_txt.c ****     while(txt[i] != '\0') {
 635              		.loc 1 743 18 view .LVU205
 636 0004 0378     		ldrb	r3, [r0]	@ zero_extendqisi2
 741:Drivers/lvgl/src/misc/lv_txt.c **** 
 637              		.loc 1 741 14 view .LVU206
 638 0006 0024     		movs	r4, #0
 639 0008 0194     		str	r4, [sp, #4]
 640              		.loc 1 743 5 is_stmt 1 view .LVU207
 641              		.loc 1 743 18 view .LVU208
 642 000a 6BB1     		cbz	r3, .L47
 643 000c 084E     		ldr	r6, .L50
 644 000e 0546     		mov	r5, r0
 645              	.LVL50:
 646              	.L46:
 744:Drivers/lvgl/src/misc/lv_txt.c ****         _lv_txt_encoded_next(txt, &i);
 647              		.loc 1 744 9 view .LVU209
 648 0010 3368     		ldr	r3, [r6]
 649 0012 01A9     		add	r1, sp, #4
 650 0014 2846     		mov	r0, r5
 651 0016 9847     		blx	r3
 652              	.LVL51:
 745:Drivers/lvgl/src/misc/lv_txt.c ****         len++;
 653              		.loc 1 745 9 view .LVU210
 743:Drivers/lvgl/src/misc/lv_txt.c ****         _lv_txt_encoded_next(txt, &i);
 654              		.loc 1 743 14 is_stmt 0 view .LVU211
 655 0018 019B     		ldr	r3, [sp, #4]
 743:Drivers/lvgl/src/misc/lv_txt.c ****         _lv_txt_encoded_next(txt, &i);
 656              		.loc 1 743 18 view .LVU212
 657 001a EB5C     		ldrb	r3, [r5, r3]	@ zero_extendqisi2
 658              		.loc 1 745 12 view .LVU213
 659 001c 0134     		adds	r4, r4, #1
 660              	.LVL52:
 743:Drivers/lvgl/src/misc/lv_txt.c ****         _lv_txt_encoded_next(txt, &i);
 661              		.loc 1 743 18 is_stmt 1 view .LVU214
 662 001e 002B     		cmp	r3, #0
 663 0020 F6D1     		bne	.L46
 746:Drivers/lvgl/src/misc/lv_txt.c ****     }
 747:Drivers/lvgl/src/misc/lv_txt.c **** 
 748:Drivers/lvgl/src/misc/lv_txt.c ****     return len;
 749:Drivers/lvgl/src/misc/lv_txt.c **** }
 664              		.loc 1 749 1 is_stmt 0 view .LVU215
 665 0022 2046     		mov	r0, r4
 666 0024 02B0     		add	sp, sp, #8
 667              		.cfi_remember_state
 668              		.cfi_def_cfa_offset 16
 669              		@ sp needed
 670 0026 70BD     		pop	{r4, r5, r6, pc}
 671              	.LVL53:
 672              	.L47:
 673              		.cfi_restore_state
ARM GAS  /var/folders/0z/tsy30v1j4xl4_7kw94k978ww0000gn/T//ccd8hcN4.s 			page 28


 740:Drivers/lvgl/src/misc/lv_txt.c ****     uint32_t i   = 0;
 674              		.loc 1 740 14 view .LVU216
 675 0028 1C46     		mov	r4, r3
 748:Drivers/lvgl/src/misc/lv_txt.c **** }
 676              		.loc 1 748 5 is_stmt 1 view .LVU217
 677              		.loc 1 749 1 is_stmt 0 view .LVU218
 678 002a 2046     		mov	r0, r4
 679              	.LVL54:
 680              		.loc 1 749 1 view .LVU219
 681 002c 02B0     		add	sp, sp, #8
 682              		.cfi_def_cfa_offset 16
 683              		@ sp needed
 684 002e 70BD     		pop	{r4, r5, r6, pc}
 685              	.L51:
 686              		.align	2
 687              	.L50:
 688 0030 00000000 		.word	.LANCHOR1
 689              		.cfi_endproc
 690              	.LFE71:
 692              		.section	.text.lv_txt_unicode_to_utf8,"ax",%progbits
 693              		.align	1
 694              		.p2align 2,,3
 695              		.syntax unified
 696              		.thumb
 697              		.thumb_func
 699              	lv_txt_unicode_to_utf8:
 700              	.LVL55:
 701              	.LFB65:
 528:Drivers/lvgl/src/misc/lv_txt.c ****     if(letter_uni < 128) return letter_uni;
 702              		.loc 1 528 1 is_stmt 1 view -0
 703              		.cfi_startproc
 704              		@ args = 0, pretend = 0, frame = 0
 705              		@ frame_needed = 0, uses_anonymous_args = 0
 706              		@ link register save eliminated.
 529:Drivers/lvgl/src/misc/lv_txt.c ****     uint8_t bytes[4];
 707              		.loc 1 529 5 view .LVU221
 529:Drivers/lvgl/src/misc/lv_txt.c ****     uint8_t bytes[4];
 708              		.loc 1 529 7 is_stmt 0 view .LVU222
 709 0000 7F28     		cmp	r0, #127
 710 0002 17D9     		bls	.L52
 711              	.LVL56:
 712              	.LBB36:
 713              	.LBI36:
 527:Drivers/lvgl/src/misc/lv_txt.c **** {
 714              		.loc 1 527 17 is_stmt 1 view .LVU223
 715              	.LBB37:
 530:Drivers/lvgl/src/misc/lv_txt.c **** 
 716              		.loc 1 530 5 view .LVU224
 532:Drivers/lvgl/src/misc/lv_txt.c ****         bytes[0] = ((letter_uni >> 6) & 0x1F) | 0xC0;
 717              		.loc 1 532 5 view .LVU225
 532:Drivers/lvgl/src/misc/lv_txt.c ****         bytes[0] = ((letter_uni >> 6) & 0x1F) | 0xC0;
 718              		.loc 1 532 7 is_stmt 0 view .LVU226
 719 0004 B0F5006F 		cmp	r0, #2048
 720 0008 15D2     		bcs	.L54
 533:Drivers/lvgl/src/misc/lv_txt.c ****         bytes[1] = ((letter_uni >> 0) & 0x3F) | 0x80;
 721              		.loc 1 533 9 is_stmt 1 view .LVU227
 533:Drivers/lvgl/src/misc/lv_txt.c ****         bytes[1] = ((letter_uni >> 0) & 0x3F) | 0x80;
ARM GAS  /var/folders/0z/tsy30v1j4xl4_7kw94k978ww0000gn/T//ccd8hcN4.s 			page 29


 722              		.loc 1 533 47 is_stmt 0 view .LVU228
 723 000a C0F38713 		ubfx	r3, r0, #6, #8
 724 000e 0022     		movs	r2, #0
 534:Drivers/lvgl/src/misc/lv_txt.c ****         bytes[2] = 0;
 725              		.loc 1 534 39 view .LVU229
 726 0010 00F03F00 		and	r0, r0, #63
 727              	.LVL57:
 533:Drivers/lvgl/src/misc/lv_txt.c ****         bytes[1] = ((letter_uni >> 0) & 0x3F) | 0x80;
 728              		.loc 1 533 47 view .LVU230
 729 0014 43F0C003 		orr	r3, r3, #192
 534:Drivers/lvgl/src/misc/lv_txt.c ****         bytes[2] = 0;
 730              		.loc 1 534 9 is_stmt 1 view .LVU231
 534:Drivers/lvgl/src/misc/lv_txt.c ****         bytes[2] = 0;
 731              		.loc 1 534 47 is_stmt 0 view .LVU232
 732 0018 40F08001 		orr	r1, r0, #128
 535:Drivers/lvgl/src/misc/lv_txt.c ****         bytes[3] = 0;
 733              		.loc 1 535 9 is_stmt 1 view .LVU233
 536:Drivers/lvgl/src/misc/lv_txt.c ****     }
 734              		.loc 1 536 9 view .LVU234
 735 001c 9446     		mov	ip, r2
 736              	.L55:
 554:Drivers/lvgl/src/misc/lv_txt.c ****     return *res_p;
 737              		.loc 1 554 5 view .LVU235
 738              	.LVL58:
 555:Drivers/lvgl/src/misc/lv_txt.c **** }
 739              		.loc 1 555 5 view .LVU236
 740 001e 0020     		movs	r0, #0
 741 0020 63F30700 		bfi	r0, r3, #0, #8
 742 0024 61F30F20 		bfi	r0, r1, #8, #8
 743 0028 62F31740 		bfi	r0, r2, #16, #8
 744 002c 6CF31F60 		bfi	r0, ip, #24, #8
 555:Drivers/lvgl/src/misc/lv_txt.c **** }
 745              		.loc 1 555 12 is_stmt 0 view .LVU237
 746 0030 7047     		bx	lr
 747              	.LVL59:
 748              	.L59:
 551:Drivers/lvgl/src/misc/lv_txt.c ****     }
 749              		.loc 1 551 16 view .LVU238
 750 0032 0020     		movs	r0, #0
 751              	.LVL60:
 752              	.L52:
 551:Drivers/lvgl/src/misc/lv_txt.c ****     }
 753              		.loc 1 551 16 view .LVU239
 754              	.LBE37:
 755              	.LBE36:
 556:Drivers/lvgl/src/misc/lv_txt.c **** 
 756              		.loc 1 556 1 view .LVU240
 757 0034 7047     		bx	lr
 758              	.LVL61:
 759              	.L54:
 760              	.LBB39:
 761              	.LBB38:
 538:Drivers/lvgl/src/misc/lv_txt.c ****         bytes[0] = ((letter_uni >> 12) & 0x0F) | 0xE0;
 762              		.loc 1 538 10 is_stmt 1 view .LVU241
 538:Drivers/lvgl/src/misc/lv_txt.c ****         bytes[0] = ((letter_uni >> 12) & 0x0F) | 0xE0;
 763              		.loc 1 538 12 is_stmt 0 view .LVU242
 764 0036 B0F5803F 		cmp	r0, #65536
ARM GAS  /var/folders/0z/tsy30v1j4xl4_7kw94k978ww0000gn/T//ccd8hcN4.s 			page 30


 765 003a 13D3     		bcc	.L60
 544:Drivers/lvgl/src/misc/lv_txt.c ****         bytes[0] = ((letter_uni >> 18) & 0x07) | 0xF0;
 766              		.loc 1 544 10 is_stmt 1 view .LVU243
 544:Drivers/lvgl/src/misc/lv_txt.c ****         bytes[0] = ((letter_uni >> 18) & 0x07) | 0xF0;
 767              		.loc 1 544 12 is_stmt 0 view .LVU244
 768 003c B0F5881F 		cmp	r0, #1114112
 769 0040 F7D2     		bcs	.L59
 545:Drivers/lvgl/src/misc/lv_txt.c ****         bytes[1] = ((letter_uni >> 12) & 0x3F) | 0x80;
 770              		.loc 1 545 9 is_stmt 1 view .LVU245
 545:Drivers/lvgl/src/misc/lv_txt.c ****         bytes[1] = ((letter_uni >> 12) & 0x3F) | 0x80;
 771              		.loc 1 545 48 is_stmt 0 view .LVU246
 772 0042 C0F38743 		ubfx	r3, r0, #18, #8
 546:Drivers/lvgl/src/misc/lv_txt.c ****         bytes[2] = ((letter_uni >> 6) & 0x3F) | 0x80;
 773              		.loc 1 546 40 view .LVU247
 774 0046 C0F30531 		ubfx	r1, r0, #12, #6
 547:Drivers/lvgl/src/misc/lv_txt.c ****         bytes[3] = ((letter_uni >> 0) & 0x3F) | 0x80;
 775              		.loc 1 547 39 view .LVU248
 776 004a C0F38512 		ubfx	r2, r0, #6, #6
 548:Drivers/lvgl/src/misc/lv_txt.c ****     }
 777              		.loc 1 548 39 view .LVU249
 778 004e 00F03F00 		and	r0, r0, #63
 779              	.LVL62:
 545:Drivers/lvgl/src/misc/lv_txt.c ****         bytes[1] = ((letter_uni >> 12) & 0x3F) | 0x80;
 780              		.loc 1 545 48 view .LVU250
 781 0052 43F0F003 		orr	r3, r3, #240
 546:Drivers/lvgl/src/misc/lv_txt.c ****         bytes[2] = ((letter_uni >> 6) & 0x3F) | 0x80;
 782              		.loc 1 546 9 is_stmt 1 view .LVU251
 546:Drivers/lvgl/src/misc/lv_txt.c ****         bytes[2] = ((letter_uni >> 6) & 0x3F) | 0x80;
 783              		.loc 1 546 48 is_stmt 0 view .LVU252
 784 0056 41F08001 		orr	r1, r1, #128
 547:Drivers/lvgl/src/misc/lv_txt.c ****         bytes[3] = ((letter_uni >> 0) & 0x3F) | 0x80;
 785              		.loc 1 547 9 is_stmt 1 view .LVU253
 547:Drivers/lvgl/src/misc/lv_txt.c ****         bytes[3] = ((letter_uni >> 0) & 0x3F) | 0x80;
 786              		.loc 1 547 47 is_stmt 0 view .LVU254
 787 005a 42F08002 		orr	r2, r2, #128
 548:Drivers/lvgl/src/misc/lv_txt.c ****     }
 788              		.loc 1 548 9 is_stmt 1 view .LVU255
 548:Drivers/lvgl/src/misc/lv_txt.c ****     }
 789              		.loc 1 548 47 is_stmt 0 view .LVU256
 790 005e 40F0800C 		orr	ip, r0, #128
 791 0062 DCE7     		b	.L55
 792              	.LVL63:
 793              	.L60:
 539:Drivers/lvgl/src/misc/lv_txt.c ****         bytes[1] = ((letter_uni >> 6) & 0x3F) | 0x80;
 794              		.loc 1 539 9 is_stmt 1 view .LVU257
 539:Drivers/lvgl/src/misc/lv_txt.c ****         bytes[1] = ((letter_uni >> 6) & 0x3F) | 0x80;
 795              		.loc 1 539 48 is_stmt 0 view .LVU258
 796 0064 C0F30733 		ubfx	r3, r0, #12, #8
 540:Drivers/lvgl/src/misc/lv_txt.c ****         bytes[2] = ((letter_uni >> 0) & 0x3F) | 0x80;
 797              		.loc 1 540 39 view .LVU259
 798 0068 C0F38511 		ubfx	r1, r0, #6, #6
 541:Drivers/lvgl/src/misc/lv_txt.c ****         bytes[3] = 0;
 799              		.loc 1 541 39 view .LVU260
 800 006c 00F03F00 		and	r0, r0, #63
 801              	.LVL64:
 539:Drivers/lvgl/src/misc/lv_txt.c ****         bytes[1] = ((letter_uni >> 6) & 0x3F) | 0x80;
 802              		.loc 1 539 48 view .LVU261
ARM GAS  /var/folders/0z/tsy30v1j4xl4_7kw94k978ww0000gn/T//ccd8hcN4.s 			page 31


 803 0070 43F0E003 		orr	r3, r3, #224
 540:Drivers/lvgl/src/misc/lv_txt.c ****         bytes[2] = ((letter_uni >> 0) & 0x3F) | 0x80;
 804              		.loc 1 540 9 is_stmt 1 view .LVU262
 540:Drivers/lvgl/src/misc/lv_txt.c ****         bytes[2] = ((letter_uni >> 0) & 0x3F) | 0x80;
 805              		.loc 1 540 47 is_stmt 0 view .LVU263
 806 0074 41F08001 		orr	r1, r1, #128
 541:Drivers/lvgl/src/misc/lv_txt.c ****         bytes[3] = 0;
 807              		.loc 1 541 9 is_stmt 1 view .LVU264
 541:Drivers/lvgl/src/misc/lv_txt.c ****         bytes[3] = 0;
 808              		.loc 1 541 47 is_stmt 0 view .LVU265
 809 0078 40F08002 		orr	r2, r0, #128
 542:Drivers/lvgl/src/misc/lv_txt.c ****     }
 810              		.loc 1 542 9 is_stmt 1 view .LVU266
 811 007c 4FF0000C 		mov	ip, #0
 812 0080 CDE7     		b	.L55
 813              	.LBE38:
 814              	.LBE39:
 815              		.cfi_endproc
 816              	.LFE65:
 818 0082 00BF     		.section	.text.lv_txt_get_width.part.0,"ax",%progbits
 819              		.align	1
 820              		.p2align 2,,3
 821              		.syntax unified
 822              		.thumb
 823              		.thumb_func
 825              	lv_txt_get_width.part.0:
 826              	.LVL65:
 827              	.LFB75:
 343:Drivers/lvgl/src/misc/lv_txt.c ****                             lv_text_flag_t flag)
 828              		.loc 1 343 12 view -0
 829              		.cfi_startproc
 830              		@ args = 4, pretend = 0, frame = 16
 831              		@ frame_needed = 0, uses_anonymous_args = 0
 350:Drivers/lvgl/src/misc/lv_txt.c ****     lv_coord_t width             = 0;
 832              		.loc 1 350 5 view .LVU268
 343:Drivers/lvgl/src/misc/lv_txt.c ****                             lv_text_flag_t flag)
 833              		.loc 1 343 12 is_stmt 0 view .LVU269
 834 0000 2DE9F04F 		push	{r4, r5, r6, r7, r8, r9, r10, fp, lr}
 835              		.cfi_def_cfa_offset 36
 836              		.cfi_offset 4, -36
 837              		.cfi_offset 5, -32
 838              		.cfi_offset 6, -28
 839              		.cfi_offset 7, -24
 840              		.cfi_offset 8, -20
 841              		.cfi_offset 9, -16
 842              		.cfi_offset 10, -12
 843              		.cfi_offset 11, -8
 844              		.cfi_offset 14, -4
 845 0004 85B0     		sub	sp, sp, #20
 846              		.cfi_def_cfa_offset 56
 350:Drivers/lvgl/src/misc/lv_txt.c ****     lv_coord_t width             = 0;
 847              		.loc 1 350 14 view .LVU270
 848 0006 0024     		movs	r4, #0
 343:Drivers/lvgl/src/misc/lv_txt.c ****                             lv_text_flag_t flag)
 849              		.loc 1 343 12 view .LVU271
 850 0008 9DF83870 		ldrb	r7, [sp, #56]	@ zero_extendqisi2
 350:Drivers/lvgl/src/misc/lv_txt.c ****     lv_coord_t width             = 0;
ARM GAS  /var/folders/0z/tsy30v1j4xl4_7kw94k978ww0000gn/T//ccd8hcN4.s 			page 32


 851              		.loc 1 350 14 view .LVU272
 852 000c 0394     		str	r4, [sp, #12]
 351:Drivers/lvgl/src/misc/lv_txt.c ****     lv_text_cmd_state_t cmd_state = LV_TEXT_CMD_STATE_WAIT;
 853              		.loc 1 351 5 is_stmt 1 view .LVU273
 854              	.LVL66:
 352:Drivers/lvgl/src/misc/lv_txt.c **** 
 855              		.loc 1 352 5 view .LVU274
 354:Drivers/lvgl/src/misc/lv_txt.c ****         while(i < length) {
 856              		.loc 1 354 5 view .LVU275
 354:Drivers/lvgl/src/misc/lv_txt.c ****         while(i < length) {
 857              		.loc 1 354 7 is_stmt 0 view .LVU276
 858 000e 0E46     		mov	r6, r1
 859 0010 0029     		cmp	r1, #0
 860 0012 46D0     		beq	.L73
 861 0014 9846     		mov	r8, r3
 862 0016 17F00103 		ands	r3, r7, #1
 863              	.LVL67:
 354:Drivers/lvgl/src/misc/lv_txt.c ****         while(i < length) {
 864              		.loc 1 354 7 view .LVU277
 865 001a 0546     		mov	r5, r0
 866 001c 9146     		mov	r9, r2
 867 001e 0193     		str	r3, [sp, #4]
 868 0020 47D0     		beq	.L84
 869 0022 394F     		ldr	r7, .L88
 870 0024 CDF80080 		str	r8, [sp]
 352:Drivers/lvgl/src/misc/lv_txt.c **** 
 871              		.loc 1 352 25 view .LVU278
 872 0028 A346     		mov	fp, r4
 873 002a 0DF10C0A 		add	r10, sp, #12
 874 002e 13E0     		b	.L63
 875              	.LVL68:
 876              	.L86:
 877              	.LBB40:
 878              	.LBB41:
 879              	.LBB42:
 496:Drivers/lvgl/src/misc/lv_txt.c **** }
 880              		.loc 1 496 38 view .LVU279
 881 0030 0398     		ldr	r0, [sp, #12]
 882              	.LVL69:
 496:Drivers/lvgl/src/misc/lv_txt.c **** }
 883              		.loc 1 496 38 view .LVU280
 884 0032 3A68     		ldr	r2, [r7]
 885 0034 2844     		add	r0, r0, r5
 886 0036 0021     		movs	r1, #0
 887 0038 9047     		blx	r2
 888              	.LVL70:
 889              	.LBE42:
 890              	.LBE41:
 891              	.LBB48:
 892              	.LBB49:
 386:Drivers/lvgl/src/misc/lv_txt.c ****         if(*state == LV_TEXT_CMD_STATE_WAIT) { /*Start char*/
 893              		.loc 1 386 7 view .LVU281
 894 003a B8F1230F 		cmp	r8, #35
 895              	.LBE49:
 896              	.LBE48:
 897              	.LBB54:
 898              	.LBB43:
ARM GAS  /var/folders/0z/tsy30v1j4xl4_7kw94k978ww0000gn/T//ccd8hcN4.s 			page 33


 496:Drivers/lvgl/src/misc/lv_txt.c **** }
 899              		.loc 1 496 38 view .LVU282
 900 003e 0246     		mov	r2, r0
 901              	.LVL71:
 496:Drivers/lvgl/src/misc/lv_txt.c **** }
 902              		.loc 1 496 38 view .LVU283
 903              	.LBE43:
 904              	.LBE54:
 360:Drivers/lvgl/src/misc/lv_txt.c ****                 if(_lv_txt_is_cmd(&cmd_state, letter) != false) {
 905              		.loc 1 360 13 is_stmt 1 view .LVU284
 361:Drivers/lvgl/src/misc/lv_txt.c ****                     continue;
 906              		.loc 1 361 17 view .LVU285
 907              	.LBB55:
 908              	.LBI48:
 382:Drivers/lvgl/src/misc/lv_txt.c **** {
 909              		.loc 1 382 6 view .LVU286
 910              	.LBB50:
 384:Drivers/lvgl/src/misc/lv_txt.c **** 
 911              		.loc 1 384 5 view .LVU287
 386:Drivers/lvgl/src/misc/lv_txt.c ****         if(*state == LV_TEXT_CMD_STATE_WAIT) { /*Start char*/
 912              		.loc 1 386 5 view .LVU288
 386:Drivers/lvgl/src/misc/lv_txt.c ****         if(*state == LV_TEXT_CMD_STATE_WAIT) { /*Start char*/
 913              		.loc 1 386 7 is_stmt 0 view .LVU289
 914 0040 59D1     		bne	.L70
 387:Drivers/lvgl/src/misc/lv_txt.c ****             *state = LV_TEXT_CMD_STATE_PAR;
 915              		.loc 1 387 9 is_stmt 1 view .LVU290
 387:Drivers/lvgl/src/misc/lv_txt.c ****             *state = LV_TEXT_CMD_STATE_PAR;
 916              		.loc 1 387 11 is_stmt 0 view .LVU291
 917 0042 BBF1000F 		cmp	fp, #0
 918 0046 31D0     		beq	.L75
 392:Drivers/lvgl/src/misc/lv_txt.c ****             *state = LV_TEXT_CMD_STATE_WAIT;
 919              		.loc 1 392 14 is_stmt 1 view .LVU292
 392:Drivers/lvgl/src/misc/lv_txt.c ****             *state = LV_TEXT_CMD_STATE_WAIT;
 920              		.loc 1 392 16 is_stmt 0 view .LVU293
 921 0048 BBF1010F 		cmp	fp, #1
 393:Drivers/lvgl/src/misc/lv_txt.c ****         }
 922              		.loc 1 393 20 view .LVU294
 923 004c 4FF0000B 		mov	fp, #0
 924              	.LVL72:
 392:Drivers/lvgl/src/misc/lv_txt.c ****             *state = LV_TEXT_CMD_STATE_WAIT;
 925              		.loc 1 392 16 view .LVU295
 926 0050 0DD0     		beq	.L72
 927              	.LVL73:
 928              	.L71:
 392:Drivers/lvgl/src/misc/lv_txt.c ****             *state = LV_TEXT_CMD_STATE_WAIT;
 929              		.loc 1 392 16 view .LVU296
 930              	.LBE50:
 931              	.LBE55:
 932              	.LBE40:
 355:Drivers/lvgl/src/misc/lv_txt.c ****             uint32_t letter;
 933              		.loc 1 355 17 is_stmt 1 view .LVU297
 934 0052 039B     		ldr	r3, [sp, #12]
 935 0054 9E42     		cmp	r6, r3
 936 0056 18D9     		bls	.L85
 937              	.LVL74:
 938              	.L63:
 939              	.LBB63:
ARM GAS  /var/folders/0z/tsy30v1j4xl4_7kw94k978ww0000gn/T//ccd8hcN4.s 			page 34


 356:Drivers/lvgl/src/misc/lv_txt.c ****             uint32_t letter_next;
 940              		.loc 1 356 13 view .LVU298
 357:Drivers/lvgl/src/misc/lv_txt.c ****             _lv_txt_encoded_letter_next_2(txt, &letter, &letter_next, &i);
 941              		.loc 1 357 13 view .LVU299
 358:Drivers/lvgl/src/misc/lv_txt.c **** 
 942              		.loc 1 358 13 view .LVU300
 943              	.LBB56:
 944              	.LBI41:
 493:Drivers/lvgl/src/misc/lv_txt.c **** {
 945              		.loc 1 493 6 view .LVU301
 946              	.LBB44:
 495:Drivers/lvgl/src/misc/lv_txt.c ****     *letter_next = *letter != '\0' ? _lv_txt_encoded_next(&txt[*ofs], NULL) : 0;
 947              		.loc 1 495 5 view .LVU302
 495:Drivers/lvgl/src/misc/lv_txt.c ****     *letter_next = *letter != '\0' ? _lv_txt_encoded_next(&txt[*ofs], NULL) : 0;
 948              		.loc 1 495 15 is_stmt 0 view .LVU303
 949 0058 3B68     		ldr	r3, [r7]
 950 005a 5146     		mov	r1, r10
 951 005c 2846     		mov	r0, r5
 952 005e 9847     		blx	r3
 953              	.LVL75:
 496:Drivers/lvgl/src/misc/lv_txt.c **** }
 954              		.loc 1 496 5 is_stmt 1 view .LVU304
 496:Drivers/lvgl/src/misc/lv_txt.c **** }
 955              		.loc 1 496 77 is_stmt 0 view .LVU305
 956 0060 8046     		mov	r8, r0
 957 0062 0028     		cmp	r0, #0
 958 0064 E4D1     		bne	.L86
 959              	.LVL76:
 496:Drivers/lvgl/src/misc/lv_txt.c **** }
 960              		.loc 1 496 77 view .LVU306
 961              	.LBE44:
 962              	.LBE56:
 963              	.LBB57:
 964              	.LBB51:
 403:Drivers/lvgl/src/misc/lv_txt.c ****         if(c == ' ') {
 965              		.loc 1 403 5 is_stmt 1 view .LVU307
 403:Drivers/lvgl/src/misc/lv_txt.c ****         if(c == ' ') {
 966              		.loc 1 403 7 is_stmt 0 view .LVU308
 967 0066 BBF1010F 		cmp	fp, #1
 968 006a F2D0     		beq	.L71
 969              	.LBE51:
 970              	.LBE57:
 971              	.LBB58:
 972              	.LBB45:
 496:Drivers/lvgl/src/misc/lv_txt.c **** }
 973              		.loc 1 496 77 view .LVU309
 974 006c 0246     		mov	r2, r0
 975              	.LVL77:
 976              	.L72:
 496:Drivers/lvgl/src/misc/lv_txt.c **** }
 977              		.loc 1 496 77 view .LVU310
 978              	.LBE45:
 979              	.LBE58:
 366:Drivers/lvgl/src/misc/lv_txt.c ****             if(char_width > 0) {
 980              		.loc 1 366 13 is_stmt 1 view .LVU311
 366:Drivers/lvgl/src/misc/lv_txt.c ****             if(char_width > 0) {
 981              		.loc 1 366 37 is_stmt 0 view .LVU312
ARM GAS  /var/folders/0z/tsy30v1j4xl4_7kw94k978ww0000gn/T//ccd8hcN4.s 			page 35


 982 006e 4146     		mov	r1, r8
 983 0070 4846     		mov	r0, r9
 984 0072 FFF7FEFF 		bl	lv_font_get_glyph_width
 985              	.LVL78:
 367:Drivers/lvgl/src/misc/lv_txt.c ****                 width += char_width;
 986              		.loc 1 367 13 is_stmt 1 view .LVU313
 367:Drivers/lvgl/src/misc/lv_txt.c ****                 width += char_width;
 987              		.loc 1 367 15 is_stmt 0 view .LVU314
 988 0076 03B2     		sxth	r3, r0
 989 0078 002B     		cmp	r3, #0
 990 007a EADD     		ble	.L71
 368:Drivers/lvgl/src/misc/lv_txt.c ****                 width += letter_space;
 991              		.loc 1 368 17 is_stmt 1 view .LVU315
 992              	.LVL79:
 369:Drivers/lvgl/src/misc/lv_txt.c ****             }
 993              		.loc 1 369 17 view .LVU316
 369:Drivers/lvgl/src/misc/lv_txt.c ****             }
 994              		.loc 1 369 23 is_stmt 0 view .LVU317
 995 007c 009B     		ldr	r3, [sp]
 996 007e 1C44     		add	r4, r4, r3
 997              	.LVL80:
 369:Drivers/lvgl/src/misc/lv_txt.c ****             }
 998              		.loc 1 369 23 view .LVU318
 999              	.LBE63:
 355:Drivers/lvgl/src/misc/lv_txt.c ****             uint32_t letter;
 1000              		.loc 1 355 17 view .LVU319
 1001 0080 039B     		ldr	r3, [sp, #12]
 1002              	.LBB64:
 369:Drivers/lvgl/src/misc/lv_txt.c ****             }
 1003              		.loc 1 369 23 view .LVU320
 1004 0082 2044     		add	r0, r0, r4
 1005              	.LVL81:
 369:Drivers/lvgl/src/misc/lv_txt.c ****             }
 1006              		.loc 1 369 23 view .LVU321
 1007              	.LBE64:
 355:Drivers/lvgl/src/misc/lv_txt.c ****             uint32_t letter;
 1008              		.loc 1 355 17 view .LVU322
 1009 0084 9E42     		cmp	r6, r3
 1010              	.LBB65:
 369:Drivers/lvgl/src/misc/lv_txt.c ****             }
 1011              		.loc 1 369 23 view .LVU323
 1012 0086 04B2     		sxth	r4, r0
 1013              	.LVL82:
 369:Drivers/lvgl/src/misc/lv_txt.c ****             }
 1014              		.loc 1 369 23 view .LVU324
 1015              	.LBE65:
 355:Drivers/lvgl/src/misc/lv_txt.c ****             uint32_t letter;
 1016              		.loc 1 355 17 is_stmt 1 view .LVU325
 1017 0088 E6D8     		bhi	.L63
 1018              	.L85:
 355:Drivers/lvgl/src/misc/lv_txt.c ****             uint32_t letter;
 1019              		.loc 1 355 17 is_stmt 0 view .LVU326
 1020 008a DDF80080 		ldr	r8, [sp]
 1021              	.LVL83:
 1022              	.L68:
 373:Drivers/lvgl/src/misc/lv_txt.c ****             width -= letter_space; /*Trim the last letter space. Important if the text is center
 1023              		.loc 1 373 9 is_stmt 1 view .LVU327
ARM GAS  /var/folders/0z/tsy30v1j4xl4_7kw94k978ww0000gn/T//ccd8hcN4.s 			page 36


 373:Drivers/lvgl/src/misc/lv_txt.c ****             width -= letter_space; /*Trim the last letter space. Important if the text is center
 1024              		.loc 1 373 11 is_stmt 0 view .LVU328
 1025 008e 002C     		cmp	r4, #0
 1026 0090 08DD     		ble	.L77
 374:Drivers/lvgl/src/misc/lv_txt.c ****                                       aligned*/
 1027              		.loc 1 374 13 is_stmt 1 view .LVU329
 374:Drivers/lvgl/src/misc/lv_txt.c ****                                       aligned*/
 1028              		.loc 1 374 19 is_stmt 0 view .LVU330
 1029 0092 A4EB0808 		sub	r8, r4, r8
 1030 0096 0FFA88F4 		sxth	r4, r8
 1031              	.LVL84:
 380:Drivers/lvgl/src/misc/lv_txt.c **** 
 1032              		.loc 1 380 1 view .LVU331
 1033 009a 2046     		mov	r0, r4
 1034 009c 05B0     		add	sp, sp, #20
 1035              		.cfi_remember_state
 1036              		.cfi_def_cfa_offset 36
 1037              		@ sp needed
 1038 009e BDE8F08F 		pop	{r4, r5, r6, r7, r8, r9, r10, fp, pc}
 1039              	.LVL85:
 1040              	.L73:
 1041              		.cfi_restore_state
 351:Drivers/lvgl/src/misc/lv_txt.c ****     lv_text_cmd_state_t cmd_state = LV_TEXT_CMD_STATE_WAIT;
 1042              		.loc 1 351 16 view .LVU332
 1043 00a2 0C46     		mov	r4, r1
 1044              	.LVL86:
 1045              	.L77:
 380:Drivers/lvgl/src/misc/lv_txt.c **** 
 1046              		.loc 1 380 1 view .LVU333
 1047 00a4 2046     		mov	r0, r4
 1048 00a6 05B0     		add	sp, sp, #20
 1049              		.cfi_remember_state
 1050              		.cfi_def_cfa_offset 36
 1051              		@ sp needed
 1052 00a8 BDE8F08F 		pop	{r4, r5, r6, r7, r8, r9, r10, fp, pc}
 1053              	.LVL87:
 1054              	.L75:
 1055              		.cfi_restore_state
 1056              	.LBB66:
 1057              	.LBB59:
 1058              	.LBB52:
 380:Drivers/lvgl/src/misc/lv_txt.c **** 
 1059              		.loc 1 380 1 view .LVU334
 1060 00ac DDF804B0 		ldr	fp, [sp, #4]
 1061              	.LVL88:
 380:Drivers/lvgl/src/misc/lv_txt.c **** 
 1062              		.loc 1 380 1 view .LVU335
 1063 00b0 CFE7     		b	.L71
 1064              	.LVL89:
 1065              	.L84:
 380:Drivers/lvgl/src/misc/lv_txt.c **** 
 1066              		.loc 1 380 1 view .LVU336
 1067 00b2 154F     		ldr	r7, .L88
 1068              	.LBE52:
 1069              	.LBE59:
 1070              	.LBE66:
 351:Drivers/lvgl/src/misc/lv_txt.c ****     lv_text_cmd_state_t cmd_state = LV_TEXT_CMD_STATE_WAIT;
ARM GAS  /var/folders/0z/tsy30v1j4xl4_7kw94k978ww0000gn/T//ccd8hcN4.s 			page 37


 1071              		.loc 1 351 16 view .LVU337
 1072 00b4 1C46     		mov	r4, r3
 1073 00b6 0DF10C0A 		add	r10, sp, #12
 1074 00ba 0EE0     		b	.L67
 1075              	.LVL90:
 1076              	.L87:
 1077              	.LBB67:
 1078              	.LBB60:
 1079              	.LBB46:
 496:Drivers/lvgl/src/misc/lv_txt.c **** }
 1080              		.loc 1 496 77 view .LVU338
 1081 00bc 0246     		mov	r2, r0
 1082              	.LVL91:
 1083              	.L66:
 496:Drivers/lvgl/src/misc/lv_txt.c **** }
 1084              		.loc 1 496 77 view .LVU339
 1085              	.LBE46:
 1086              	.LBE60:
 366:Drivers/lvgl/src/misc/lv_txt.c ****             if(char_width > 0) {
 1087              		.loc 1 366 13 is_stmt 1 view .LVU340
 366:Drivers/lvgl/src/misc/lv_txt.c ****             if(char_width > 0) {
 1088              		.loc 1 366 37 is_stmt 0 view .LVU341
 1089 00be 5946     		mov	r1, fp
 1090 00c0 4846     		mov	r0, r9
 1091 00c2 FFF7FEFF 		bl	lv_font_get_glyph_width
 1092              	.LVL92:
 368:Drivers/lvgl/src/misc/lv_txt.c ****                 width += letter_space;
 1093              		.loc 1 368 17 is_stmt 1 view .LVU342
 367:Drivers/lvgl/src/misc/lv_txt.c ****                 width += char_width;
 1094              		.loc 1 367 13 view .LVU343
 369:Drivers/lvgl/src/misc/lv_txt.c ****             }
 1095              		.loc 1 369 17 view .LVU344
 369:Drivers/lvgl/src/misc/lv_txt.c ****             }
 1096              		.loc 1 369 23 is_stmt 0 view .LVU345
 1097 00c6 04EB0803 		add	r3, r4, r8
 1098 00ca 0344     		add	r3, r3, r0
 367:Drivers/lvgl/src/misc/lv_txt.c ****                 width += char_width;
 1099              		.loc 1 367 15 view .LVU346
 1100 00cc 00B2     		sxth	r0, r0
 367:Drivers/lvgl/src/misc/lv_txt.c ****                 width += char_width;
 1101              		.loc 1 367 15 view .LVU347
 1102 00ce 0028     		cmp	r0, #0
 1103 00d0 00DD     		ble	.L65
 369:Drivers/lvgl/src/misc/lv_txt.c ****             }
 1104              		.loc 1 369 23 view .LVU348
 1105 00d2 1CB2     		sxth	r4, r3
 1106              	.LVL93:
 1107              	.L65:
 369:Drivers/lvgl/src/misc/lv_txt.c ****             }
 1108              		.loc 1 369 23 view .LVU349
 1109              	.LBE67:
 355:Drivers/lvgl/src/misc/lv_txt.c ****             uint32_t letter;
 1110              		.loc 1 355 17 is_stmt 1 view .LVU350
 1111 00d4 039B     		ldr	r3, [sp, #12]
 1112 00d6 9E42     		cmp	r6, r3
 1113 00d8 D9D9     		bls	.L68
 1114              	.LVL94:
ARM GAS  /var/folders/0z/tsy30v1j4xl4_7kw94k978ww0000gn/T//ccd8hcN4.s 			page 38


 1115              	.L67:
 1116              	.LBB68:
 356:Drivers/lvgl/src/misc/lv_txt.c ****             uint32_t letter_next;
 1117              		.loc 1 356 13 view .LVU351
 357:Drivers/lvgl/src/misc/lv_txt.c ****             _lv_txt_encoded_letter_next_2(txt, &letter, &letter_next, &i);
 1118              		.loc 1 357 13 view .LVU352
 358:Drivers/lvgl/src/misc/lv_txt.c **** 
 1119              		.loc 1 358 13 view .LVU353
 1120              	.LBB61:
 493:Drivers/lvgl/src/misc/lv_txt.c **** {
 1121              		.loc 1 493 6 view .LVU354
 1122              	.LBB47:
 495:Drivers/lvgl/src/misc/lv_txt.c ****     *letter_next = *letter != '\0' ? _lv_txt_encoded_next(&txt[*ofs], NULL) : 0;
 1123              		.loc 1 495 5 view .LVU355
 495:Drivers/lvgl/src/misc/lv_txt.c ****     *letter_next = *letter != '\0' ? _lv_txt_encoded_next(&txt[*ofs], NULL) : 0;
 1124              		.loc 1 495 15 is_stmt 0 view .LVU356
 1125 00da 5146     		mov	r1, r10
 1126 00dc 3B68     		ldr	r3, [r7]
 1127 00de 2846     		mov	r0, r5
 1128 00e0 9847     		blx	r3
 1129              	.LVL95:
 496:Drivers/lvgl/src/misc/lv_txt.c **** }
 1130              		.loc 1 496 5 is_stmt 1 view .LVU357
 496:Drivers/lvgl/src/misc/lv_txt.c **** }
 1131              		.loc 1 496 38 is_stmt 0 view .LVU358
 1132 00e2 0021     		movs	r1, #0
 496:Drivers/lvgl/src/misc/lv_txt.c **** }
 1133              		.loc 1 496 77 view .LVU359
 1134 00e4 8346     		mov	fp, r0
 1135 00e6 0028     		cmp	r0, #0
 1136 00e8 E8D0     		beq	.L87
 496:Drivers/lvgl/src/misc/lv_txt.c **** }
 1137              		.loc 1 496 38 view .LVU360
 1138 00ea 0398     		ldr	r0, [sp, #12]
 1139              	.LVL96:
 496:Drivers/lvgl/src/misc/lv_txt.c **** }
 1140              		.loc 1 496 38 view .LVU361
 1141 00ec 3B68     		ldr	r3, [r7]
 1142 00ee 2844     		add	r0, r0, r5
 1143 00f0 9847     		blx	r3
 1144              	.LVL97:
 1145 00f2 0246     		mov	r2, r0
 1146              	.LVL98:
 496:Drivers/lvgl/src/misc/lv_txt.c **** }
 1147              		.loc 1 496 38 view .LVU362
 1148              	.LBE47:
 1149              	.LBE61:
 360:Drivers/lvgl/src/misc/lv_txt.c ****                 if(_lv_txt_is_cmd(&cmd_state, letter) != false) {
 1150              		.loc 1 360 13 is_stmt 1 view .LVU363
 1151 00f4 E3E7     		b	.L66
 1152              	.LVL99:
 1153              	.L70:
 1154              	.LBB62:
 1155              	.LBB53:
 403:Drivers/lvgl/src/misc/lv_txt.c ****         if(c == ' ') {
 1156              		.loc 1 403 5 view .LVU364
 403:Drivers/lvgl/src/misc/lv_txt.c ****         if(c == ' ') {
ARM GAS  /var/folders/0z/tsy30v1j4xl4_7kw94k978ww0000gn/T//ccd8hcN4.s 			page 39


 1157              		.loc 1 403 7 is_stmt 0 view .LVU365
 1158 00f6 BBF1010F 		cmp	fp, #1
 1159 00fa B8D1     		bne	.L72
 1160              	.LVL100:
 404:Drivers/lvgl/src/misc/lv_txt.c ****             *state = LV_TEXT_CMD_STATE_IN; /*After the parameter the text is in the command*/
 1161              		.loc 1 404 9 is_stmt 1 view .LVU366
 405:Drivers/lvgl/src/misc/lv_txt.c ****         }
 1162              		.loc 1 405 20 is_stmt 0 view .LVU367
 1163 00fc B8F1200F 		cmp	r8, #32
 1164 0100 08BF     		it	eq
 1165 0102 4FF0020B 		moveq	fp, #2
 1166 0106 A4E7     		b	.L71
 1167              	.L89:
 1168              		.align	2
 1169              	.L88:
 1170 0108 00000000 		.word	.LANCHOR1
 1171              	.LBE53:
 1172              	.LBE62:
 1173              	.LBE68:
 1174              		.cfi_endproc
 1175              	.LFE75:
 1177              		.section	.rodata._lv_txt_get_next_line.part.0.str1.4,"aMS",%progbits,1
 1178              		.align	2
 1179              	.LC0:
 1180 0000 202C2E3B 		.ascii	" ,.;:-_\000"
 1180      3A2D5F00 
 1181              		.section	.text._lv_txt_get_next_line.part.0,"ax",%progbits
 1182              		.align	1
 1183              		.p2align 2,,3
 1184              		.syntax unified
 1185              		.thumb
 1186              		.thumb_func
 1188              	_lv_txt_get_next_line.part.0:
 1189              	.LVL101:
 1190              	.LFB74:
 279:Drivers/lvgl/src/misc/lv_txt.c ****                                lv_coord_t letter_space, lv_coord_t max_width,
 1191              		.loc 1 279 10 is_stmt 1 view -0
 1192              		.cfi_startproc
 1193              		@ args = 8, pretend = 0, frame = 64
 1194              		@ frame_needed = 0, uses_anonymous_args = 0
 279:Drivers/lvgl/src/misc/lv_txt.c ****                                lv_coord_t letter_space, lv_coord_t max_width,
 1195              		.loc 1 279 10 is_stmt 0 view .LVU369
 1196 0000 2DE9F04F 		push	{r4, r5, r6, r7, r8, r9, r10, fp, lr}
 1197              		.cfi_def_cfa_offset 36
 1198              		.cfi_offset 4, -36
 1199              		.cfi_offset 5, -32
 1200              		.cfi_offset 6, -28
 1201              		.cfi_offset 7, -24
 1202              		.cfi_offset 8, -20
 1203              		.cfi_offset 9, -16
 1204              		.cfi_offset 10, -12
 1205              		.cfi_offset 11, -8
 1206              		.cfi_offset 14, -4
 1207 0004 2DED028B 		vpush.64	{d8}
 1208              		.cfi_def_cfa_offset 44
 1209              		.cfi_offset 80, -44
 1210              		.cfi_offset 81, -40
ARM GAS  /var/folders/0z/tsy30v1j4xl4_7kw94k978ww0000gn/T//ccd8hcN4.s 			page 40


 1211 0008 91B0     		sub	sp, sp, #68
 1212              		.cfi_def_cfa_offset 112
 279:Drivers/lvgl/src/misc/lv_txt.c ****                                lv_coord_t letter_space, lv_coord_t max_width,
 1213              		.loc 1 279 10 view .LVU370
 1214 000a 08EE101A 		vmov	s16, r1	@ int
 1215 000e 0992     		str	r2, [sp, #36]
 303:Drivers/lvgl/src/misc/lv_txt.c ****     lv_text_cmd_state_t cmd_state = LV_TEXT_CMD_STATE_WAIT;
 1216              		.loc 1 303 5 is_stmt 1 view .LVU371
 279:Drivers/lvgl/src/misc/lv_txt.c ****                                lv_coord_t letter_space, lv_coord_t max_width,
 1217              		.loc 1 279 10 is_stmt 0 view .LVU372
 1218 0010 9DF87420 		ldrb	r2, [sp, #116]	@ zero_extendqisi2
 1219              	.LVL102:
 1220              	.LBB82:
 1221              	.LBB83:
 1222              	.LBB84:
 1223              	.LBB85:
 1224              	.LBB86:
 1225              		.file 2 "Drivers/lvgl/src/misc/lv_txt.h"
   1:Drivers/lvgl/src/misc/lv_txt.h **** /**
   2:Drivers/lvgl/src/misc/lv_txt.h ****  * @file lv_txt.h
   3:Drivers/lvgl/src/misc/lv_txt.h ****  *
   4:Drivers/lvgl/src/misc/lv_txt.h ****  */
   5:Drivers/lvgl/src/misc/lv_txt.h **** 
   6:Drivers/lvgl/src/misc/lv_txt.h **** #ifndef LV_TXT_H
   7:Drivers/lvgl/src/misc/lv_txt.h **** #define LV_TXT_H
   8:Drivers/lvgl/src/misc/lv_txt.h **** 
   9:Drivers/lvgl/src/misc/lv_txt.h **** #ifdef __cplusplus
  10:Drivers/lvgl/src/misc/lv_txt.h **** extern "C" {
  11:Drivers/lvgl/src/misc/lv_txt.h **** #endif
  12:Drivers/lvgl/src/misc/lv_txt.h **** 
  13:Drivers/lvgl/src/misc/lv_txt.h **** /*********************
  14:Drivers/lvgl/src/misc/lv_txt.h ****  *      INCLUDES
  15:Drivers/lvgl/src/misc/lv_txt.h ****  *********************/
  16:Drivers/lvgl/src/misc/lv_txt.h **** #include "../lv_conf_internal.h"
  17:Drivers/lvgl/src/misc/lv_txt.h **** 
  18:Drivers/lvgl/src/misc/lv_txt.h **** #include <stdbool.h>
  19:Drivers/lvgl/src/misc/lv_txt.h **** #include <stdarg.h>
  20:Drivers/lvgl/src/misc/lv_txt.h **** #include "lv_area.h"
  21:Drivers/lvgl/src/misc/lv_txt.h **** #include "../font/lv_font.h"
  22:Drivers/lvgl/src/misc/lv_txt.h **** #include "lv_printf.h"
  23:Drivers/lvgl/src/misc/lv_txt.h **** #include "lv_types.h"
  24:Drivers/lvgl/src/misc/lv_txt.h **** 
  25:Drivers/lvgl/src/misc/lv_txt.h **** /*********************
  26:Drivers/lvgl/src/misc/lv_txt.h ****  *      DEFINES
  27:Drivers/lvgl/src/misc/lv_txt.h ****  *********************/
  28:Drivers/lvgl/src/misc/lv_txt.h **** #ifndef LV_TXT_COLOR_CMD
  29:Drivers/lvgl/src/misc/lv_txt.h **** #define LV_TXT_COLOR_CMD "#"
  30:Drivers/lvgl/src/misc/lv_txt.h **** #endif
  31:Drivers/lvgl/src/misc/lv_txt.h **** 
  32:Drivers/lvgl/src/misc/lv_txt.h **** #define LV_TXT_ENC_UTF8 1
  33:Drivers/lvgl/src/misc/lv_txt.h **** #define LV_TXT_ENC_ASCII 2
  34:Drivers/lvgl/src/misc/lv_txt.h **** 
  35:Drivers/lvgl/src/misc/lv_txt.h **** /**********************
  36:Drivers/lvgl/src/misc/lv_txt.h ****  *      TYPEDEFS
  37:Drivers/lvgl/src/misc/lv_txt.h ****  **********************/
  38:Drivers/lvgl/src/misc/lv_txt.h **** 
  39:Drivers/lvgl/src/misc/lv_txt.h **** /**
ARM GAS  /var/folders/0z/tsy30v1j4xl4_7kw94k978ww0000gn/T//ccd8hcN4.s 			page 41


  40:Drivers/lvgl/src/misc/lv_txt.h ****  * Options for text rendering.
  41:Drivers/lvgl/src/misc/lv_txt.h ****  */
  42:Drivers/lvgl/src/misc/lv_txt.h **** enum {
  43:Drivers/lvgl/src/misc/lv_txt.h ****     LV_TEXT_FLAG_NONE    = 0x00,
  44:Drivers/lvgl/src/misc/lv_txt.h ****     LV_TEXT_FLAG_RECOLOR = 0x01, /**< Enable parsing of recolor command*/
  45:Drivers/lvgl/src/misc/lv_txt.h ****     LV_TEXT_FLAG_EXPAND  = 0x02, /**< Ignore max-width to avoid automatic word wrapping*/
  46:Drivers/lvgl/src/misc/lv_txt.h ****     LV_TEXT_FLAG_FIT     = 0x04, /**< Max-width is already equal to the longest line. (Used to skip
  47:Drivers/lvgl/src/misc/lv_txt.h **** };
  48:Drivers/lvgl/src/misc/lv_txt.h **** typedef uint8_t lv_text_flag_t;
  49:Drivers/lvgl/src/misc/lv_txt.h **** 
  50:Drivers/lvgl/src/misc/lv_txt.h **** /**
  51:Drivers/lvgl/src/misc/lv_txt.h ****  * State machine for text renderer.*/
  52:Drivers/lvgl/src/misc/lv_txt.h **** enum {
  53:Drivers/lvgl/src/misc/lv_txt.h ****     LV_TEXT_CMD_STATE_WAIT, /**< Waiting for command*/
  54:Drivers/lvgl/src/misc/lv_txt.h ****     LV_TEXT_CMD_STATE_PAR,  /**< Processing the parameter*/
  55:Drivers/lvgl/src/misc/lv_txt.h ****     LV_TEXT_CMD_STATE_IN,   /**< Processing the command*/
  56:Drivers/lvgl/src/misc/lv_txt.h **** };
  57:Drivers/lvgl/src/misc/lv_txt.h **** typedef uint8_t lv_text_cmd_state_t;
  58:Drivers/lvgl/src/misc/lv_txt.h **** 
  59:Drivers/lvgl/src/misc/lv_txt.h **** /** Label align policy*/
  60:Drivers/lvgl/src/misc/lv_txt.h **** enum {
  61:Drivers/lvgl/src/misc/lv_txt.h ****     LV_TEXT_ALIGN_AUTO, /**< Align text auto*/
  62:Drivers/lvgl/src/misc/lv_txt.h ****     LV_TEXT_ALIGN_LEFT, /**< Align text to left*/
  63:Drivers/lvgl/src/misc/lv_txt.h ****     LV_TEXT_ALIGN_CENTER, /**< Align text to center*/
  64:Drivers/lvgl/src/misc/lv_txt.h ****     LV_TEXT_ALIGN_RIGHT, /**< Align text to right*/
  65:Drivers/lvgl/src/misc/lv_txt.h **** };
  66:Drivers/lvgl/src/misc/lv_txt.h **** typedef uint8_t lv_text_align_t;
  67:Drivers/lvgl/src/misc/lv_txt.h **** 
  68:Drivers/lvgl/src/misc/lv_txt.h **** /**********************
  69:Drivers/lvgl/src/misc/lv_txt.h ****  * GLOBAL PROTOTYPES
  70:Drivers/lvgl/src/misc/lv_txt.h ****  **********************/
  71:Drivers/lvgl/src/misc/lv_txt.h **** 
  72:Drivers/lvgl/src/misc/lv_txt.h **** /**
  73:Drivers/lvgl/src/misc/lv_txt.h ****  * Get size of a text
  74:Drivers/lvgl/src/misc/lv_txt.h ****  * @param size_res pointer to a 'point_t' variable to store the result
  75:Drivers/lvgl/src/misc/lv_txt.h ****  * @param text pointer to a text
  76:Drivers/lvgl/src/misc/lv_txt.h ****  * @param font pointer to font of the text
  77:Drivers/lvgl/src/misc/lv_txt.h ****  * @param letter_space letter space of the text
  78:Drivers/lvgl/src/misc/lv_txt.h ****  * @param line_space line space of the text
  79:Drivers/lvgl/src/misc/lv_txt.h ****  * @param flags settings for the text from ::lv_text_flag_t
  80:Drivers/lvgl/src/misc/lv_txt.h ****  * @param max_width max width of the text (break the lines to fit this size). Set COORD_MAX to avoi
  81:Drivers/lvgl/src/misc/lv_txt.h ****  * line breaks
  82:Drivers/lvgl/src/misc/lv_txt.h ****  */
  83:Drivers/lvgl/src/misc/lv_txt.h **** void lv_txt_get_size(lv_point_t * size_res, const char * text, const lv_font_t * font, lv_coord_t l
  84:Drivers/lvgl/src/misc/lv_txt.h ****                      lv_coord_t line_space, lv_coord_t max_width, lv_text_flag_t flag);
  85:Drivers/lvgl/src/misc/lv_txt.h **** 
  86:Drivers/lvgl/src/misc/lv_txt.h **** /**
  87:Drivers/lvgl/src/misc/lv_txt.h ****  * Get the next line of text. Check line length and break chars too.
  88:Drivers/lvgl/src/misc/lv_txt.h ****  * @param txt a '\0' terminated string
  89:Drivers/lvgl/src/misc/lv_txt.h ****  * @param font pointer to a font
  90:Drivers/lvgl/src/misc/lv_txt.h ****  * @param letter_space letter space
  91:Drivers/lvgl/src/misc/lv_txt.h ****  * @param max_width max width of the text (break the lines to fit this size). Set COORD_MAX to avoi
  92:Drivers/lvgl/src/misc/lv_txt.h ****  * line breaks
  93:Drivers/lvgl/src/misc/lv_txt.h ****  * @param used_width When used_width != NULL, save the width of this line if
  94:Drivers/lvgl/src/misc/lv_txt.h ****  * flag == LV_TEXT_FLAG_NONE, otherwise save -1.
  95:Drivers/lvgl/src/misc/lv_txt.h ****  * @param flags settings for the text from 'txt_flag_type' enum
  96:Drivers/lvgl/src/misc/lv_txt.h ****  * @return the index of the first char of the new line (in byte index not letter index. With UTF-8
ARM GAS  /var/folders/0z/tsy30v1j4xl4_7kw94k978ww0000gn/T//ccd8hcN4.s 			page 42


  97:Drivers/lvgl/src/misc/lv_txt.h ****  * they are different)
  98:Drivers/lvgl/src/misc/lv_txt.h ****  */
  99:Drivers/lvgl/src/misc/lv_txt.h **** uint32_t _lv_txt_get_next_line(const char * txt, const lv_font_t * font, lv_coord_t letter_space,
 100:Drivers/lvgl/src/misc/lv_txt.h ****                                lv_coord_t max_width, lv_coord_t * used_width, lv_text_flag_t flag);
 101:Drivers/lvgl/src/misc/lv_txt.h **** 
 102:Drivers/lvgl/src/misc/lv_txt.h **** /**
 103:Drivers/lvgl/src/misc/lv_txt.h ****  * Give the length of a text with a given font
 104:Drivers/lvgl/src/misc/lv_txt.h ****  * @param txt a '\0' terminate string
 105:Drivers/lvgl/src/misc/lv_txt.h ****  * @param length length of 'txt' in byte count and not characters (Á is 1 character but 2 bytes in
 106:Drivers/lvgl/src/misc/lv_txt.h ****  * UTF-8)
 107:Drivers/lvgl/src/misc/lv_txt.h ****  * @param font pointer to a font
 108:Drivers/lvgl/src/misc/lv_txt.h ****  * @param letter_space letter space
 109:Drivers/lvgl/src/misc/lv_txt.h ****  * @param flags settings for the text from 'txt_flag_t' enum
 110:Drivers/lvgl/src/misc/lv_txt.h ****  * @return length of a char_num long text
 111:Drivers/lvgl/src/misc/lv_txt.h ****  */
 112:Drivers/lvgl/src/misc/lv_txt.h **** lv_coord_t lv_txt_get_width(const char * txt, uint32_t length, const lv_font_t * font, lv_coord_t l
 113:Drivers/lvgl/src/misc/lv_txt.h ****                             lv_text_flag_t flag);
 114:Drivers/lvgl/src/misc/lv_txt.h **** 
 115:Drivers/lvgl/src/misc/lv_txt.h **** /**
 116:Drivers/lvgl/src/misc/lv_txt.h ****  * Check next character in a string and decide if the character is part of the command or not
 117:Drivers/lvgl/src/misc/lv_txt.h ****  * @param state pointer to a txt_cmd_state_t variable which stores the current state of command
 118:Drivers/lvgl/src/misc/lv_txt.h ****  * processing
 119:Drivers/lvgl/src/misc/lv_txt.h ****  * @param c the current character
 120:Drivers/lvgl/src/misc/lv_txt.h ****  * @return true: the character is part of a command and should not be written,
 121:Drivers/lvgl/src/misc/lv_txt.h ****  *         false: the character should be written
 122:Drivers/lvgl/src/misc/lv_txt.h ****  */
 123:Drivers/lvgl/src/misc/lv_txt.h **** bool _lv_txt_is_cmd(lv_text_cmd_state_t * state, uint32_t c);
 124:Drivers/lvgl/src/misc/lv_txt.h **** 
 125:Drivers/lvgl/src/misc/lv_txt.h **** /**
 126:Drivers/lvgl/src/misc/lv_txt.h ****  * Insert a string into an other
 127:Drivers/lvgl/src/misc/lv_txt.h ****  * @param txt_buf the original text (must be big enough for the result text and NULL terminated)
 128:Drivers/lvgl/src/misc/lv_txt.h ****  * @param pos position to insert (0: before the original text, 1: after the first char etc.)
 129:Drivers/lvgl/src/misc/lv_txt.h ****  * @param ins_txt text to insert, must be '\0' terminated
 130:Drivers/lvgl/src/misc/lv_txt.h ****  */
 131:Drivers/lvgl/src/misc/lv_txt.h **** void _lv_txt_ins(char * txt_buf, uint32_t pos, const char * ins_txt);
 132:Drivers/lvgl/src/misc/lv_txt.h **** 
 133:Drivers/lvgl/src/misc/lv_txt.h **** /**
 134:Drivers/lvgl/src/misc/lv_txt.h ****  * Delete a part of a string
 135:Drivers/lvgl/src/misc/lv_txt.h ****  * @param txt string to modify, must be '\0' terminated and should point to a heap or stack frame, 
 136:Drivers/lvgl/src/misc/lv_txt.h ****  * @param pos position where to start the deleting (0: before the first char, 1: after the first
 137:Drivers/lvgl/src/misc/lv_txt.h ****  * char etc.)
 138:Drivers/lvgl/src/misc/lv_txt.h ****  * @param len number of characters to delete
 139:Drivers/lvgl/src/misc/lv_txt.h ****  */
 140:Drivers/lvgl/src/misc/lv_txt.h **** void _lv_txt_cut(char * txt, uint32_t pos, uint32_t len);
 141:Drivers/lvgl/src/misc/lv_txt.h **** 
 142:Drivers/lvgl/src/misc/lv_txt.h **** /**
 143:Drivers/lvgl/src/misc/lv_txt.h ****  * return a new formatted text. Memory will be allocated to store the text.
 144:Drivers/lvgl/src/misc/lv_txt.h ****  * @param fmt `printf`-like format
 145:Drivers/lvgl/src/misc/lv_txt.h ****  * @return pointer to the allocated text string.
 146:Drivers/lvgl/src/misc/lv_txt.h ****  */
 147:Drivers/lvgl/src/misc/lv_txt.h **** char * _lv_txt_set_text_vfmt(const char * fmt, va_list ap) LV_FORMAT_ATTRIBUTE(1, 0);
 148:Drivers/lvgl/src/misc/lv_txt.h **** 
 149:Drivers/lvgl/src/misc/lv_txt.h **** /**
 150:Drivers/lvgl/src/misc/lv_txt.h ****  * Decode two encoded character from a string.
 151:Drivers/lvgl/src/misc/lv_txt.h ****  * @param txt pointer to '\0' terminated string
 152:Drivers/lvgl/src/misc/lv_txt.h ****  * @param letter the first decoded Unicode character or 0 on invalid data code
 153:Drivers/lvgl/src/misc/lv_txt.h ****  * @param letter_next the second decoded Unicode character or 0 on invalid data code
ARM GAS  /var/folders/0z/tsy30v1j4xl4_7kw94k978ww0000gn/T//ccd8hcN4.s 			page 43


 154:Drivers/lvgl/src/misc/lv_txt.h ****  * @param ofs start index in 'txt' where to start.
 155:Drivers/lvgl/src/misc/lv_txt.h ****  *                After the call it will point to the next encoded char in 'txt'.
 156:Drivers/lvgl/src/misc/lv_txt.h ****  *                NULL to use txt[0] as index
 157:Drivers/lvgl/src/misc/lv_txt.h ****  */
 158:Drivers/lvgl/src/misc/lv_txt.h **** void _lv_txt_encoded_letter_next_2(const char * txt, uint32_t * letter, uint32_t * letter_next, uin
 159:Drivers/lvgl/src/misc/lv_txt.h **** 
 160:Drivers/lvgl/src/misc/lv_txt.h **** /**
 161:Drivers/lvgl/src/misc/lv_txt.h ****  * Test if char is break char or not (a text can broken here or not)
 162:Drivers/lvgl/src/misc/lv_txt.h ****  * @param letter a letter
 163:Drivers/lvgl/src/misc/lv_txt.h ****  * @return false: 'letter' is not break char
 164:Drivers/lvgl/src/misc/lv_txt.h ****  */
 165:Drivers/lvgl/src/misc/lv_txt.h **** static inline bool _lv_txt_is_break_char(uint32_t letter)
 166:Drivers/lvgl/src/misc/lv_txt.h **** {
 167:Drivers/lvgl/src/misc/lv_txt.h ****     uint8_t i;
 168:Drivers/lvgl/src/misc/lv_txt.h ****     bool ret = false;
 169:Drivers/lvgl/src/misc/lv_txt.h **** 
 170:Drivers/lvgl/src/misc/lv_txt.h ****     /* each chinese character can be break */
 171:Drivers/lvgl/src/misc/lv_txt.h ****     if(letter >= 0x4E00 && letter <= 0x9FA5) {
 172:Drivers/lvgl/src/misc/lv_txt.h ****         return true;
 173:Drivers/lvgl/src/misc/lv_txt.h ****     }
 174:Drivers/lvgl/src/misc/lv_txt.h **** 
 175:Drivers/lvgl/src/misc/lv_txt.h ****     /*Compare the letter to TXT_BREAK_CHARS*/
 176:Drivers/lvgl/src/misc/lv_txt.h ****     for(i = 0; LV_TXT_BREAK_CHARS[i] != '\0'; i++) {
 1226              		.loc 2 176 34 view .LVU373
 1227 0014 DFF838A2 		ldr	r10, .L183+4
 1228              	.LBE86:
 1229              	.LBE85:
 1230              	.LBE84:
 1231              	.LBE83:
 1232              	.LBE82:
 279:Drivers/lvgl/src/misc/lv_txt.c ****                                lv_coord_t letter_space, lv_coord_t max_width,
 1233              		.loc 1 279 10 view .LVU374
 1234 0018 0790     		str	r0, [sp, #28]
 303:Drivers/lvgl/src/misc/lv_txt.c ****     lv_text_cmd_state_t cmd_state = LV_TEXT_CMD_STATE_WAIT;
 1235              		.loc 1 303 46 view .LVU375
 1236 001a 12F00204 		ands	r4, r2, #2
 1237 001e 41F6FF71 		movw	r1, #8191
 1238              	.LVL103:
 303:Drivers/lvgl/src/misc/lv_txt.c ****     lv_text_cmd_state_t cmd_state = LV_TEXT_CMD_STATE_WAIT;
 1239              		.loc 1 303 46 view .LVU376
 1240 0022 18BF     		it	ne
 1241 0024 0B46     		movne	r3, r1
 1242              	.LVL104:
 303:Drivers/lvgl/src/misc/lv_txt.c ****     lv_text_cmd_state_t cmd_state = LV_TEXT_CMD_STATE_WAIT;
 1243              		.loc 1 303 46 view .LVU377
 1244 0026 0293     		str	r3, [sp, #8]
 1245              	.LVL105:
 304:Drivers/lvgl/src/misc/lv_txt.c ****     uint32_t i = 0;                                        /*Iterating index into txt*/
 1246              		.loc 1 304 5 is_stmt 1 view .LVU378
 305:Drivers/lvgl/src/misc/lv_txt.c **** 
 1247              		.loc 1 305 5 view .LVU379
 307:Drivers/lvgl/src/misc/lv_txt.c ****         uint32_t word_w = 0;
 1248              		.loc 1 307 5 view .LVU380
 1249 0028 02F00103 		and	r3, r2, #1
 305:Drivers/lvgl/src/misc/lv_txt.c **** 
 1250              		.loc 1 305 14 is_stmt 0 view .LVU381
 1251 002c 0027     		movs	r7, #0
ARM GAS  /var/folders/0z/tsy30v1j4xl4_7kw94k978ww0000gn/T//ccd8hcN4.s 			page 44


 1252 002e 0193     		str	r3, [sp, #4]
 307:Drivers/lvgl/src/misc/lv_txt.c ****         uint32_t word_w = 0;
 1253              		.loc 1 307 14 view .LVU382
 1254 0030 0378     		ldrb	r3, [r0]	@ zero_extendqisi2
 305:Drivers/lvgl/src/misc/lv_txt.c **** 
 1255              		.loc 1 305 14 view .LVU383
 1256 0032 0D97     		str	r7, [sp, #52]
 303:Drivers/lvgl/src/misc/lv_txt.c ****     lv_text_cmd_state_t cmd_state = LV_TEXT_CMD_STATE_WAIT;
 1257              		.loc 1 303 46 view .LVU384
 1258 0034 0B94     		str	r4, [sp, #44]
 304:Drivers/lvgl/src/misc/lv_txt.c ****     uint32_t i = 0;                                        /*Iterating index into txt*/
 1259              		.loc 1 304 25 view .LVU385
 1260 0036 0097     		str	r7, [sp]
 289:Drivers/lvgl/src/misc/lv_txt.c **** 
 1261              		.loc 1 289 16 view .LVU386
 1262 0038 0897     		str	r7, [sp, #32]
 1263 003a 0397     		str	r7, [sp, #12]
 1264              	.LVL106:
 1265              	.L92:
 307:Drivers/lvgl/src/misc/lv_txt.c ****         uint32_t word_w = 0;
 1266              		.loc 1 307 26 is_stmt 1 view .LVU387
 1267 003c 002B     		cmp	r3, #0
 1268 003e 00F0BF80 		beq	.L169
 1269 0042 029B     		ldr	r3, [sp, #8]
 1270 0044 002B     		cmp	r3, #0
 1271 0046 40F3BB80 		ble	.L169
 1272              	.LBB117:
 308:Drivers/lvgl/src/misc/lv_txt.c ****         uint32_t advance = lv_txt_get_next_word(&txt[i], font, letter_space, max_width, flag, &word
 1273              		.loc 1 308 9 view .LVU388
 1274              	.LVL107:
 309:Drivers/lvgl/src/misc/lv_txt.c ****         max_width -= word_w;
 1275              		.loc 1 309 9 view .LVU389
 1276              	.LBB107:
 1277              	.LBI83:
 171:Drivers/lvgl/src/misc/lv_txt.c ****                                      lv_coord_t letter_space, lv_coord_t max_width,
 1278              		.loc 1 171 17 view .LVU390
 1279              	.LBB97:
 175:Drivers/lvgl/src/misc/lv_txt.c ****     if(font == NULL) return 0;
 1280              		.loc 1 175 5 view .LVU391
 176:Drivers/lvgl/src/misc/lv_txt.c **** 
 1281              		.loc 1 176 5 view .LVU392
 176:Drivers/lvgl/src/misc/lv_txt.c **** 
 1282              		.loc 1 176 7 is_stmt 0 view .LVU393
 1283 004a 18EE103A 		vmov	r3, s16	@ int
 1284 004e 002B     		cmp	r3, #0
 1285 0050 00F0B680 		beq	.L169
 1286              	.LVL108:
 178:Drivers/lvgl/src/misc/lv_txt.c **** 
 1287              		.loc 1 178 5 is_stmt 1 view .LVU394
 1288              	.LBE97:
 1289              	.LBE107:
 1290              	.LBE117:
 307:Drivers/lvgl/src/misc/lv_txt.c ****         uint32_t word_w = 0;
 1291              		.loc 1 307 14 is_stmt 0 view .LVU395
 1292 0054 079D     		ldr	r5, [sp, #28]
 1293 0056 039E     		ldr	r6, [sp, #12]
 1294              	.LBB118:
ARM GAS  /var/folders/0z/tsy30v1j4xl4_7kw94k978ww0000gn/T//ccd8hcN4.s 			page 45


 1295              	.LBB108:
 1296              	.LBB98:
 178:Drivers/lvgl/src/misc/lv_txt.c **** 
 1297              		.loc 1 178 7 view .LVU396
 1298 0058 0B98     		ldr	r0, [sp, #44]
 1299 005a 029B     		ldr	r3, [sp, #8]
 1300              	.LVL109:
 189:Drivers/lvgl/src/misc/lv_txt.c ****     i_next_next = i_next;
 1301              		.loc 1 189 14 view .LVU397
 1302 005c DFF8ECB1 		ldr	fp, .L183
 180:Drivers/lvgl/src/misc/lv_txt.c ****     uint32_t letter = 0;      /*Letter at i*/
 1303              		.loc 1 180 21 view .LVU398
 1304 0060 0024     		movs	r4, #0
 178:Drivers/lvgl/src/misc/lv_txt.c **** 
 1305              		.loc 1 178 7 view .LVU399
 1306 0062 41F6FF71 		movw	r1, #8191
 1307 0066 A042     		cmp	r0, r4
 1308 0068 08BF     		it	eq
 1309 006a 1946     		moveq	r1, r3
 1310              	.LBE98:
 1311              	.LBE108:
 1312              	.LBE118:
 307:Drivers/lvgl/src/misc/lv_txt.c ****         uint32_t word_w = 0;
 1313              		.loc 1 307 14 view .LVU400
 1314 006c AF19     		adds	r7, r5, r6
 1315              	.LBB119:
 1316              	.LBB109:
 1317              	.LBB99:
 189:Drivers/lvgl/src/misc/lv_txt.c ****     i_next_next = i_next;
 1318              		.loc 1 189 14 view .LVU401
 1319 006e DBF80020 		ldr	r2, [fp]
 178:Drivers/lvgl/src/misc/lv_txt.c **** 
 1320              		.loc 1 178 7 view .LVU402
 1321 0072 0A91     		str	r1, [sp, #40]
 1322              	.LVL110:
 180:Drivers/lvgl/src/misc/lv_txt.c ****     uint32_t letter = 0;      /*Letter at i*/
 1323              		.loc 1 180 5 is_stmt 1 view .LVU403
 181:Drivers/lvgl/src/misc/lv_txt.c ****     uint32_t letter_next = 0; /*Letter at i_next*/
 1324              		.loc 1 181 5 view .LVU404
 182:Drivers/lvgl/src/misc/lv_txt.c ****     lv_coord_t letter_w;
 1325              		.loc 1 182 5 view .LVU405
 183:Drivers/lvgl/src/misc/lv_txt.c ****     lv_coord_t cur_w = 0;  /*Pixel Width of transversed string*/
 1326              		.loc 1 183 5 view .LVU406
 184:Drivers/lvgl/src/misc/lv_txt.c ****     uint32_t word_len = 0;   /*Number of characters in the transversed word*/
 1327              		.loc 1 184 5 view .LVU407
 185:Drivers/lvgl/src/misc/lv_txt.c ****     uint32_t break_index = NO_BREAK_FOUND; /*only used for "long" words*/
 1328              		.loc 1 185 5 view .LVU408
 186:Drivers/lvgl/src/misc/lv_txt.c ****     uint32_t break_letter_count = 0; /*Number of characters up to the long word break point*/
 1329              		.loc 1 186 5 view .LVU409
 187:Drivers/lvgl/src/misc/lv_txt.c **** 
 1330              		.loc 1 187 5 view .LVU410
 189:Drivers/lvgl/src/misc/lv_txt.c ****     i_next_next = i_next;
 1331              		.loc 1 189 5 view .LVU411
 180:Drivers/lvgl/src/misc/lv_txt.c ****     uint32_t letter = 0;      /*Letter at i*/
 1332              		.loc 1 180 33 is_stmt 0 view .LVU412
 1333 0074 CDE90E44 		strd	r4, r4, [sp, #56]
 189:Drivers/lvgl/src/misc/lv_txt.c ****     i_next_next = i_next;
ARM GAS  /var/folders/0z/tsy30v1j4xl4_7kw94k978ww0000gn/T//ccd8hcN4.s 			page 46


 1334              		.loc 1 189 14 view .LVU413
 1335 0078 0EA9     		add	r1, sp, #56
 1336 007a 3846     		mov	r0, r7
 1337 007c 9047     		blx	r2
 1338              	.LVL111:
 193:Drivers/lvgl/src/misc/lv_txt.c ****         letter_next = _lv_txt_encoded_next(txt, &i_next_next);
 1339              		.loc 1 193 18 view .LVU414
 1340 007e A95D     		ldrb	r1, [r5, r6]	@ zero_extendqisi2
 190:Drivers/lvgl/src/misc/lv_txt.c **** 
 1341              		.loc 1 190 17 view .LVU415
 1342 0080 DDF83880 		ldr	r8, [sp, #56]
 1343 0084 CDF83C80 		str	r8, [sp, #60]
 189:Drivers/lvgl/src/misc/lv_txt.c ****     i_next_next = i_next;
 1344              		.loc 1 189 14 view .LVU416
 1345 0088 0246     		mov	r2, r0
 1346              	.LVL112:
 190:Drivers/lvgl/src/misc/lv_txt.c **** 
 1347              		.loc 1 190 5 is_stmt 1 view .LVU417
 193:Drivers/lvgl/src/misc/lv_txt.c ****         letter_next = _lv_txt_encoded_next(txt, &i_next_next);
 1348              		.loc 1 193 5 view .LVU418
 193:Drivers/lvgl/src/misc/lv_txt.c ****         letter_next = _lv_txt_encoded_next(txt, &i_next_next);
 1349              		.loc 1 193 18 view .LVU419
 1350 008a 0029     		cmp	r1, #0
 1351 008c 00F0DB80 		beq	.L125
 1352              	.LBE99:
 1353              	.LBE109:
 308:Drivers/lvgl/src/misc/lv_txt.c ****         uint32_t advance = lv_txt_get_next_word(&txt[i], font, letter_space, max_width, flag, &word
 1354              		.loc 1 308 18 is_stmt 0 view .LVU420
 1355 0090 2646     		mov	r6, r4
 1356 0092 0694     		str	r4, [sp, #24]
 1357              	.LBB110:
 1358              	.LBB100:
 180:Drivers/lvgl/src/misc/lv_txt.c ****     uint32_t letter = 0;      /*Letter at i*/
 1359              		.loc 1 180 14 view .LVU421
 1360 0094 A146     		mov	r9, r4
 186:Drivers/lvgl/src/misc/lv_txt.c ****     uint32_t break_letter_count = 0; /*Number of characters up to the long word break point*/
 1361              		.loc 1 186 14 view .LVU422
 1362 0096 4FF0FF38 		mov	r8, #-1
 184:Drivers/lvgl/src/misc/lv_txt.c ****     uint32_t word_len = 0;   /*Number of characters in the transversed word*/
 1363              		.loc 1 184 16 view .LVU423
 1364 009a 2546     		mov	r5, r4
 1365              	.LVL113:
 1366              	.L108:
 194:Drivers/lvgl/src/misc/lv_txt.c ****         word_len++;
 1367              		.loc 1 194 9 is_stmt 1 view .LVU424
 194:Drivers/lvgl/src/misc/lv_txt.c ****         word_len++;
 1368              		.loc 1 194 23 is_stmt 0 view .LVU425
 1369 009c DBF80030 		ldr	r3, [fp]
 1370 00a0 0FA9     		add	r1, sp, #60
 1371 00a2 3846     		mov	r0, r7
 1372 00a4 1446     		mov	r4, r2
 1373 00a6 9847     		blx	r3
 1374              	.LVL114:
 198:Drivers/lvgl/src/misc/lv_txt.c ****             if(_lv_txt_is_cmd(cmd_state, letter) != false) {
 1375              		.loc 1 198 11 view .LVU426
 1376 00a8 0199     		ldr	r1, [sp, #4]
 1377 00aa 3346     		mov	r3, r6
ARM GAS  /var/folders/0z/tsy30v1j4xl4_7kw94k978ww0000gn/T//ccd8hcN4.s 			page 47


 194:Drivers/lvgl/src/misc/lv_txt.c ****         word_len++;
 1378              		.loc 1 194 23 view .LVU427
 1379 00ac 0246     		mov	r2, r0
 1380              	.LVL115:
 195:Drivers/lvgl/src/misc/lv_txt.c **** 
 1381              		.loc 1 195 9 is_stmt 1 view .LVU428
 195:Drivers/lvgl/src/misc/lv_txt.c **** 
 1382              		.loc 1 195 17 is_stmt 0 view .LVU429
 1383 00ae 0136     		adds	r6, r6, #1
 1384              	.LVL116:
 198:Drivers/lvgl/src/misc/lv_txt.c ****             if(_lv_txt_is_cmd(cmd_state, letter) != false) {
 1385              		.loc 1 198 9 is_stmt 1 view .LVU430
 198:Drivers/lvgl/src/misc/lv_txt.c ****             if(_lv_txt_is_cmd(cmd_state, letter) != false) {
 1386              		.loc 1 198 11 is_stmt 0 view .LVU431
 1387 00b0 21B1     		cbz	r1, .L96
 199:Drivers/lvgl/src/misc/lv_txt.c ****                 i = i_next;
 1388              		.loc 1 199 13 is_stmt 1 view .LVU432
 1389              	.LVL117:
 1390              	.LBB88:
 1391              	.LBI88:
 382:Drivers/lvgl/src/misc/lv_txt.c **** {
 1392              		.loc 1 382 6 view .LVU433
 1393              	.LBB89:
 384:Drivers/lvgl/src/misc/lv_txt.c **** 
 1394              		.loc 1 384 5 view .LVU434
 386:Drivers/lvgl/src/misc/lv_txt.c ****         if(*state == LV_TEXT_CMD_STATE_WAIT) { /*Start char*/
 1395              		.loc 1 386 5 view .LVU435
 386:Drivers/lvgl/src/misc/lv_txt.c ****         if(*state == LV_TEXT_CMD_STATE_WAIT) { /*Start char*/
 1396              		.loc 1 386 7 is_stmt 0 view .LVU436
 1397 00b2 232C     		cmp	r4, #35
 387:Drivers/lvgl/src/misc/lv_txt.c ****             *state = LV_TEXT_CMD_STATE_PAR;
 1398              		.loc 1 387 11 view .LVU437
 1399 00b4 0099     		ldr	r1, [sp]
 386:Drivers/lvgl/src/misc/lv_txt.c ****         if(*state == LV_TEXT_CMD_STATE_WAIT) { /*Start char*/
 1400              		.loc 1 386 7 view .LVU438
 1401 00b6 58D0     		beq	.L173
 403:Drivers/lvgl/src/misc/lv_txt.c ****         if(c == ' ') {
 1402              		.loc 1 403 5 is_stmt 1 view .LVU439
 403:Drivers/lvgl/src/misc/lv_txt.c ****         if(c == ' ') {
 1403              		.loc 1 403 7 is_stmt 0 view .LVU440
 1404 00b8 0129     		cmp	r1, #1
 1405 00ba 7BD0     		beq	.L174
 1406              	.LVL118:
 1407              	.L96:
 403:Drivers/lvgl/src/misc/lv_txt.c ****         if(c == ' ') {
 1408              		.loc 1 403 7 view .LVU441
 1409              	.LBE89:
 1410              	.LBE88:
 207:Drivers/lvgl/src/misc/lv_txt.c ****         cur_w += letter_w;
 1411              		.loc 1 207 20 view .LVU442
 1412 00bc 18EE100A 		vmov	r0, s16	@ int
 1413              	.LVL119:
 207:Drivers/lvgl/src/misc/lv_txt.c ****         cur_w += letter_w;
 1414              		.loc 1 207 20 view .LVU443
 1415 00c0 2146     		mov	r1, r4
 1416 00c2 CDE90423 		strd	r2, r3, [sp, #16]
 1417 00c6 FFF7FEFF 		bl	lv_font_get_glyph_width
ARM GAS  /var/folders/0z/tsy30v1j4xl4_7kw94k978ww0000gn/T//ccd8hcN4.s 			page 48


 1418              	.LVL120:
 208:Drivers/lvgl/src/misc/lv_txt.c **** 
 1419              		.loc 1 208 9 is_stmt 1 view .LVU444
 208:Drivers/lvgl/src/misc/lv_txt.c **** 
 1420              		.loc 1 208 15 is_stmt 0 view .LVU445
 1421 00ca 0544     		add	r5, r5, r0
 210:Drivers/lvgl/src/misc/lv_txt.c ****             cur_w += letter_space;
 1422              		.loc 1 210 11 view .LVU446
 1423 00cc 00B2     		sxth	r0, r0
 210:Drivers/lvgl/src/misc/lv_txt.c ****             cur_w += letter_space;
 1424              		.loc 1 210 11 view .LVU447
 1425 00ce 0028     		cmp	r0, #0
 1426 00d0 DDE90423 		ldrd	r2, r3, [sp, #16]
 208:Drivers/lvgl/src/misc/lv_txt.c **** 
 1427              		.loc 1 208 15 view .LVU448
 1428 00d4 ADB2     		uxth	r5, r5
 1429              	.LVL121:
 210:Drivers/lvgl/src/misc/lv_txt.c ****             cur_w += letter_space;
 1430              		.loc 1 210 9 is_stmt 1 view .LVU449
 210:Drivers/lvgl/src/misc/lv_txt.c ****             cur_w += letter_space;
 1431              		.loc 1 210 11 is_stmt 0 view .LVU450
 1432 00d6 02DD     		ble	.L100
 211:Drivers/lvgl/src/misc/lv_txt.c ****         }
 1433              		.loc 1 211 13 is_stmt 1 view .LVU451
 211:Drivers/lvgl/src/misc/lv_txt.c ****         }
 1434              		.loc 1 211 19 is_stmt 0 view .LVU452
 1435 00d8 0999     		ldr	r1, [sp, #36]
 1436 00da 0D44     		add	r5, r5, r1
 1437              	.LVL122:
 211:Drivers/lvgl/src/misc/lv_txt.c ****         }
 1438              		.loc 1 211 19 view .LVU453
 1439 00dc ADB2     		uxth	r5, r5
 1440              	.LVL123:
 1441              	.L100:
 215:Drivers/lvgl/src/misc/lv_txt.c ****             break_index = i;
 1442              		.loc 1 215 11 view .LVU454
 1443 00de B8F1FF3F 		cmp	r8, #-1
 1444 00e2 2DB2     		sxth	r5, r5
 215:Drivers/lvgl/src/misc/lv_txt.c ****             break_index = i;
 1445              		.loc 1 215 9 is_stmt 1 view .LVU455
 215:Drivers/lvgl/src/misc/lv_txt.c ****             break_index = i;
 1446              		.loc 1 215 11 is_stmt 0 view .LVU456
 1447 00e4 05D1     		bne	.L101
 215:Drivers/lvgl/src/misc/lv_txt.c ****             break_index = i;
 1448              		.loc 1 215 52 view .LVU457
 1449 00e6 0999     		ldr	r1, [sp, #36]
 215:Drivers/lvgl/src/misc/lv_txt.c ****             break_index = i;
 1450              		.loc 1 215 42 view .LVU458
 1451 00e8 0A98     		ldr	r0, [sp, #40]
 1452              	.LVL124:
 215:Drivers/lvgl/src/misc/lv_txt.c ****             break_index = i;
 1453              		.loc 1 215 52 view .LVU459
 1454 00ea 691A     		subs	r1, r5, r1
 215:Drivers/lvgl/src/misc/lv_txt.c ****             break_index = i;
 1455              		.loc 1 215 42 view .LVU460
 1456 00ec 8142     		cmp	r1, r0
 1457 00ee C8BF     		it	gt
ARM GAS  /var/folders/0z/tsy30v1j4xl4_7kw94k978ww0000gn/T//ccd8hcN4.s 			page 49


 1458 00f0 C846     		movgt	r8, r9
 1459              	.LVL125:
 1460              	.L101:
 222:Drivers/lvgl/src/misc/lv_txt.c ****             /*Update the output width on the first character if it fits.
 1461              		.loc 1 222 9 is_stmt 1 view .LVU461
 222:Drivers/lvgl/src/misc/lv_txt.c ****             /*Update the output width on the first character if it fits.
 1462              		.loc 1 222 11 is_stmt 0 view .LVU462
 1463 00f2 0A2C     		cmp	r4, #10
 1464 00f4 12D0     		beq	.L102
 222:Drivers/lvgl/src/misc/lv_txt.c ****             /*Update the output width on the first character if it fits.
 1465              		.loc 1 222 27 view .LVU463
 1466 00f6 0D2C     		cmp	r4, #13
 1467 00f8 10D0     		beq	.L102
 1468              	.LVL126:
 1469              	.LBB93:
 1470              	.LBI85:
 165:Drivers/lvgl/src/misc/lv_txt.h **** {
 1471              		.loc 2 165 20 is_stmt 1 view .LVU464
 1472              	.LBB87:
 167:Drivers/lvgl/src/misc/lv_txt.h ****     bool ret = false;
 1473              		.loc 2 167 5 view .LVU465
 168:Drivers/lvgl/src/misc/lv_txt.h **** 
 1474              		.loc 2 168 5 view .LVU466
 171:Drivers/lvgl/src/misc/lv_txt.h ****         return true;
 1475              		.loc 2 171 5 view .LVU467
 171:Drivers/lvgl/src/misc/lv_txt.h ****         return true;
 1476              		.loc 2 171 25 is_stmt 0 view .LVU468
 1477 00fa A4F59C41 		sub	r1, r4, #19968
 171:Drivers/lvgl/src/misc/lv_txt.h ****         return true;
 1478              		.loc 2 171 7 view .LVU469
 1479 00fe 45F2A510 		movw	r0, #20901
 1480 0102 8142     		cmp	r1, r0
 1481 0104 0AD9     		bls	.L102
 1482              		.loc 2 176 11 view .LVU470
 1483 0106 0021     		movs	r1, #0
 1484              		.loc 2 176 34 view .LVU471
 1485 0108 2020     		movs	r0, #32
 1486 010a 03E0     		b	.L103
 1487              	.LVL127:
 1488              	.L176:
 1489              		.loc 2 176 34 view .LVU472
 1490 010c 1AF80100 		ldrb	r0, [r10, r1]	@ zero_extendqisi2
 1491              		.loc 2 176 38 view .LVU473
 1492 0110 0028     		cmp	r0, #0
 1493 0112 45D0     		beq	.L175
 1494              	.LVL128:
 1495              	.L103:
 177:Drivers/lvgl/src/misc/lv_txt.h ****         if(letter == (uint32_t)LV_TXT_BREAK_CHARS[i]) {
 1496              		.loc 2 177 9 is_stmt 1 view .LVU474
 176:Drivers/lvgl/src/misc/lv_txt.h ****         if(letter == (uint32_t)LV_TXT_BREAK_CHARS[i]) {
 1497              		.loc 2 176 48 view .LVU475
 1498 0114 0131     		adds	r1, r1, #1
 1499              	.LVL129:
 1500              		.loc 2 177 11 is_stmt 0 view .LVU476
 1501 0116 A042     		cmp	r0, r4
 176:Drivers/lvgl/src/misc/lv_txt.h ****         if(letter == (uint32_t)LV_TXT_BREAK_CHARS[i]) {
 1502              		.loc 2 176 48 view .LVU477
ARM GAS  /var/folders/0z/tsy30v1j4xl4_7kw94k978ww0000gn/T//ccd8hcN4.s 			page 50


 1503 0118 C9B2     		uxtb	r1, r1
 1504              	.LVL130:
 176:Drivers/lvgl/src/misc/lv_txt.h ****         if(letter == (uint32_t)LV_TXT_BREAK_CHARS[i]) {
 1505              		.loc 2 176 38 is_stmt 1 view .LVU478
 1506              		.loc 2 177 11 is_stmt 0 view .LVU479
 1507 011a F7D1     		bne	.L176
 1508              	.LVL131:
 1509              	.L102:
 1510              		.loc 2 177 11 view .LVU480
 1511              	.LBE87:
 1512              	.LBE93:
 225:Drivers/lvgl/src/misc/lv_txt.c ****             word_len--;
 1513              		.loc 1 225 13 is_stmt 1 view .LVU481
 225:Drivers/lvgl/src/misc/lv_txt.c ****             word_len--;
 1514              		.loc 1 225 15 is_stmt 0 view .LVU482
 1515 011c B9F1000F 		cmp	r9, #0
 1516 0120 33D1     		bne	.L105
 225:Drivers/lvgl/src/misc/lv_txt.c ****             word_len--;
 1517              		.loc 1 225 23 view .LVU483
 1518 0122 B8F1FF3F 		cmp	r8, #-1
 1519 0126 00F08380 		beq	.L177
 1520              	.LVL132:
 1521              	.L106:
 272:Drivers/lvgl/src/misc/lv_txt.c ****     if(word_w_ptr != NULL) *word_w_ptr = 0; /*Return no word*/
 1522              		.loc 1 272 5 is_stmt 1 view .LVU484
 272:Drivers/lvgl/src/misc/lv_txt.c ****     if(word_w_ptr != NULL) *word_w_ptr = 0; /*Return no word*/
 1523              		.loc 1 272 7 is_stmt 0 view .LVU485
 1524 012a 039B     		ldr	r3, [sp, #12]
 1525 012c 002B     		cmp	r3, #0
 1526 012e 51D0     		beq	.L178
 273:Drivers/lvgl/src/misc/lv_txt.c ****     (void) break_letter_count;
 1527              		.loc 1 273 5 is_stmt 1 view .LVU486
 273:Drivers/lvgl/src/misc/lv_txt.c ****     (void) break_letter_count;
 1528              		.loc 1 273 28 view .LVU487
 1529              	.LVL133:
 273:Drivers/lvgl/src/misc/lv_txt.c ****     (void) break_letter_count;
 1530              		.loc 1 273 28 is_stmt 0 view .LVU488
 1531              	.LBE100:
 1532              	.LBE110:
 310:Drivers/lvgl/src/misc/lv_txt.c ****         line_w += word_w;
 1533              		.loc 1 310 9 is_stmt 1 view .LVU489
 311:Drivers/lvgl/src/misc/lv_txt.c **** 
 1534              		.loc 1 311 9 view .LVU490
 313:Drivers/lvgl/src/misc/lv_txt.c ****             break;
 1535              		.loc 1 313 9 view .LVU491
 1536              	.LBE119:
 329:Drivers/lvgl/src/misc/lv_txt.c ****         uint32_t letter = _lv_txt_encoded_next(txt, &i);
 1537              		.loc 1 329 10 is_stmt 0 view .LVU492
 1538 0130 0D9F     		ldr	r7, [sp, #52]
 1539              	.LVL134:
 1540              	.L114:
 329:Drivers/lvgl/src/misc/lv_txt.c ****         uint32_t letter = _lv_txt_encoded_next(txt, &i);
 1541              		.loc 1 329 5 is_stmt 1 view .LVU493
 329:Drivers/lvgl/src/misc/lv_txt.c ****         uint32_t letter = _lv_txt_encoded_next(txt, &i);
 1542              		.loc 1 329 7 is_stmt 0 view .LVU494
 1543 0132 002F     		cmp	r7, #0
 1544 0134 47D1     		bne	.L118
ARM GAS  /var/folders/0z/tsy30v1j4xl4_7kw94k978ww0000gn/T//ccd8hcN4.s 			page 51


 1545              	.L182:
 1546              	.LBB120:
 330:Drivers/lvgl/src/misc/lv_txt.c ****         if(used_width != NULL) {
 1547              		.loc 1 330 9 is_stmt 1 view .LVU495
 330:Drivers/lvgl/src/misc/lv_txt.c ****         if(used_width != NULL) {
 1548              		.loc 1 330 27 is_stmt 0 view .LVU496
 1549 0136 454B     		ldr	r3, .L183
 1550 0138 0798     		ldr	r0, [sp, #28]
 1551 013a 1B68     		ldr	r3, [r3]
 1552 013c 0DA9     		add	r1, sp, #52
 1553 013e 9847     		blx	r3
 1554              	.LVL135:
 331:Drivers/lvgl/src/misc/lv_txt.c ****             line_w = lv_font_get_glyph_width(font, letter, '\0');
 1555              		.loc 1 331 11 view .LVU497
 1556 0140 1C9B     		ldr	r3, [sp, #112]
 330:Drivers/lvgl/src/misc/lv_txt.c ****         if(used_width != NULL) {
 1557              		.loc 1 330 27 view .LVU498
 1558 0142 0146     		mov	r1, r0
 1559              	.LVL136:
 331:Drivers/lvgl/src/misc/lv_txt.c ****             line_w = lv_font_get_glyph_width(font, letter, '\0');
 1560              		.loc 1 331 9 is_stmt 1 view .LVU499
 331:Drivers/lvgl/src/misc/lv_txt.c ****             line_w = lv_font_get_glyph_width(font, letter, '\0');
 1561              		.loc 1 331 11 is_stmt 0 view .LVU500
 1562 0144 002B     		cmp	r3, #0
 1563 0146 6CD0     		beq	.L179
 332:Drivers/lvgl/src/misc/lv_txt.c ****         }
 1564              		.loc 1 332 13 is_stmt 1 view .LVU501
 332:Drivers/lvgl/src/misc/lv_txt.c ****         }
 1565              		.loc 1 332 22 is_stmt 0 view .LVU502
 1566 0148 3A46     		mov	r2, r7
 1567 014a 18EE100A 		vmov	r0, s16	@ int
 1568              	.LVL137:
 332:Drivers/lvgl/src/misc/lv_txt.c ****         }
 1569              		.loc 1 332 22 view .LVU503
 1570 014e FFF7FEFF 		bl	lv_font_get_glyph_width
 1571              	.LVL138:
 332:Drivers/lvgl/src/misc/lv_txt.c ****         }
 1572              		.loc 1 332 22 view .LVU504
 1573              	.LBE120:
 340:Drivers/lvgl/src/misc/lv_txt.c **** }
 1574              		.loc 1 340 12 view .LVU505
 1575 0152 0D9F     		ldr	r7, [sp, #52]
 1576              	.LBB121:
 332:Drivers/lvgl/src/misc/lv_txt.c ****         }
 1577              		.loc 1 332 20 view .LVU506
 1578 0154 03B2     		sxth	r3, r0
 1579              	.LVL139:
 332:Drivers/lvgl/src/misc/lv_txt.c ****         }
 1580              		.loc 1 332 20 view .LVU507
 1581 0156 0893     		str	r3, [sp, #32]
 332:Drivers/lvgl/src/misc/lv_txt.c ****         }
 1582              		.loc 1 332 20 view .LVU508
 1583              	.LBE121:
 336:Drivers/lvgl/src/misc/lv_txt.c ****         *used_width = line_w;
 1584              		.loc 1 336 5 is_stmt 1 view .LVU509
 1585              	.LVL140:
 1586              	.L121:
ARM GAS  /var/folders/0z/tsy30v1j4xl4_7kw94k978ww0000gn/T//ccd8hcN4.s 			page 52


 337:Drivers/lvgl/src/misc/lv_txt.c ****     }
 1587              		.loc 1 337 9 view .LVU510
 337:Drivers/lvgl/src/misc/lv_txt.c ****     }
 1588              		.loc 1 337 21 is_stmt 0 view .LVU511
 1589 0158 1C9B     		ldr	r3, [sp, #112]
 1590 015a 089A     		ldr	r2, [sp, #32]
 1591 015c 1A80     		strh	r2, [r3]	@ movhi
 340:Drivers/lvgl/src/misc/lv_txt.c **** }
 1592              		.loc 1 340 5 is_stmt 1 view .LVU512
 1593              	.L90:
 341:Drivers/lvgl/src/misc/lv_txt.c **** 
 1594              		.loc 1 341 1 is_stmt 0 view .LVU513
 1595 015e 3846     		mov	r0, r7
 1596 0160 11B0     		add	sp, sp, #68
 1597              		.cfi_remember_state
 1598              		.cfi_def_cfa_offset 44
 1599              		@ sp needed
 1600 0162 BDEC028B 		vldm	sp!, {d8}
 1601              		.cfi_restore 80
 1602              		.cfi_restore 81
 1603              		.cfi_def_cfa_offset 36
 1604              	.LVL141:
 341:Drivers/lvgl/src/misc/lv_txt.c **** 
 1605              		.loc 1 341 1 view .LVU514
 1606 0166 BDE8F08F 		pop	{r4, r5, r6, r7, r8, r9, r10, fp, pc}
 1607              	.LVL142:
 1608              	.L173:
 1609              		.cfi_restore_state
 1610              	.LBB122:
 1611              	.LBB111:
 1612              	.LBB101:
 1613              	.LBB94:
 1614              	.LBB90:
 387:Drivers/lvgl/src/misc/lv_txt.c ****             *state = LV_TEXT_CMD_STATE_PAR;
 1615              		.loc 1 387 9 is_stmt 1 view .LVU515
 387:Drivers/lvgl/src/misc/lv_txt.c ****             *state = LV_TEXT_CMD_STATE_PAR;
 1616              		.loc 1 387 11 is_stmt 0 view .LVU516
 1617 016a 01B3     		cbz	r1, .L126
 392:Drivers/lvgl/src/misc/lv_txt.c ****             *state = LV_TEXT_CMD_STATE_WAIT;
 1618              		.loc 1 392 14 is_stmt 1 view .LVU517
 392:Drivers/lvgl/src/misc/lv_txt.c ****             *state = LV_TEXT_CMD_STATE_WAIT;
 1619              		.loc 1 392 16 is_stmt 0 view .LVU518
 1620 016c 0129     		cmp	r1, #1
 1621 016e 2ED0     		beq	.L127
 396:Drivers/lvgl/src/misc/lv_txt.c ****             *state = LV_TEXT_CMD_STATE_WAIT;
 1622              		.loc 1 396 14 is_stmt 1 view .LVU519
 396:Drivers/lvgl/src/misc/lv_txt.c ****             *state = LV_TEXT_CMD_STATE_WAIT;
 1623              		.loc 1 396 16 is_stmt 0 view .LVU520
 1624 0170 0229     		cmp	r1, #2
 1625 0172 A3D1     		bne	.L96
 1626              	.LVL143:
 396:Drivers/lvgl/src/misc/lv_txt.c ****             *state = LV_TEXT_CMD_STATE_WAIT;
 1627              		.loc 1 396 16 view .LVU521
 1628 0174 0023     		movs	r3, #0
 1629 0176 0093     		str	r3, [sp]
 1630              	.LVL144:
 396:Drivers/lvgl/src/misc/lv_txt.c ****             *state = LV_TEXT_CMD_STATE_WAIT;
ARM GAS  /var/folders/0z/tsy30v1j4xl4_7kw94k978ww0000gn/T//ccd8hcN4.s 			page 53


 1631              		.loc 1 396 16 view .LVU522
 1632              	.LBE90:
 1633              	.LBE94:
 200:Drivers/lvgl/src/misc/lv_txt.c ****                 i_next = i_next_next;
 1634              		.loc 1 200 17 is_stmt 1 view .LVU523
 1635              	.L171:
 233:Drivers/lvgl/src/misc/lv_txt.c ****         i_next = i_next_next;
 1636              		.loc 1 233 9 view .LVU524
 234:Drivers/lvgl/src/misc/lv_txt.c ****         letter = letter_next;
 1637              		.loc 1 234 16 is_stmt 0 view .LVU525
 1638 0178 DDE90E93 		ldrd	r9, r3, [sp, #56]
 1639              	.LVL145:
 235:Drivers/lvgl/src/misc/lv_txt.c ****     }
 1640              		.loc 1 235 9 is_stmt 1 view .LVU526
 234:Drivers/lvgl/src/misc/lv_txt.c ****         letter = letter_next;
 1641              		.loc 1 234 16 is_stmt 0 view .LVU527
 1642 017c 0E93     		str	r3, [sp, #56]
 1643              	.LVL146:
 193:Drivers/lvgl/src/misc/lv_txt.c ****         letter_next = _lv_txt_encoded_next(txt, &i_next_next);
 1644              		.loc 1 193 18 is_stmt 1 view .LVU528
 1645 017e 17F80930 		ldrb	r3, [r7, r9]	@ zero_extendqisi2
 1646 0182 002B     		cmp	r3, #0
 1647 0184 8AD1     		bne	.L108
 193:Drivers/lvgl/src/misc/lv_txt.c ****         letter_next = _lv_txt_encoded_next(txt, &i_next_next);
 1648              		.loc 1 193 18 is_stmt 0 view .LVU529
 1649 0186 3346     		mov	r3, r6
 194:Drivers/lvgl/src/misc/lv_txt.c ****         word_len++;
 1650              		.loc 1 194 23 view .LVU530
 1651 0188 1446     		mov	r4, r2
 1652              	.LVL147:
 1653              	.L105:
 239:Drivers/lvgl/src/misc/lv_txt.c ****         if(word_len == 0 || (letter == '\r' && letter_next == '\n')) i = i_next;
 1654              		.loc 1 239 5 is_stmt 1 view .LVU531
 239:Drivers/lvgl/src/misc/lv_txt.c ****         if(word_len == 0 || (letter == '\r' && letter_next == '\n')) i = i_next;
 1655              		.loc 1 239 7 is_stmt 0 view .LVU532
 1656 018a B8F1FF3F 		cmp	r8, #-1
 1657 018e CCD1     		bne	.L106
 1658              	.LVL148:
 240:Drivers/lvgl/src/misc/lv_txt.c ****         return i;
 1659              		.loc 1 240 9 is_stmt 1 view .LVU533
 240:Drivers/lvgl/src/misc/lv_txt.c ****         return i;
 1660              		.loc 1 240 11 is_stmt 0 view .LVU534
 1661 0190 002B     		cmp	r3, #0
 1662 0192 41D0     		beq	.L180
 1663              	.L109:
 240:Drivers/lvgl/src/misc/lv_txt.c ****         return i;
 1664              		.loc 1 240 26 view .LVU535
 1665 0194 0D2C     		cmp	r4, #13
 1666              	.LBE101:
 1667              	.LBE111:
 310:Drivers/lvgl/src/misc/lv_txt.c ****         line_w += word_w;
 1668              		.loc 1 310 19 view .LVU536
 1669 0196 BDF81830 		ldrh	r3, [sp, #24]
 1670              	.LVL149:
 1671              	.LBB112:
 1672              	.LBB102:
 240:Drivers/lvgl/src/misc/lv_txt.c ****         return i;
ARM GAS  /var/folders/0z/tsy30v1j4xl4_7kw94k978ww0000gn/T//ccd8hcN4.s 			page 54


 1673              		.loc 1 240 26 view .LVU537
 1674 019a 4FD0     		beq	.L181
 1675              	.L172:
 240:Drivers/lvgl/src/misc/lv_txt.c ****         return i;
 1676              		.loc 1 240 26 view .LVU538
 1677              	.LBE102:
 1678              	.LBE112:
 310:Drivers/lvgl/src/misc/lv_txt.c ****         line_w += word_w;
 1679              		.loc 1 310 19 view .LVU539
 1680 019c C846     		mov	r8, r9
 1681 019e 1BE0     		b	.L112
 1682              	.LVL150:
 1683              	.L175:
 1684              	.LBB113:
 1685              	.LBB103:
 231:Drivers/lvgl/src/misc/lv_txt.c **** 
 1686              		.loc 1 231 9 is_stmt 1 view .LVU540
 231:Drivers/lvgl/src/misc/lv_txt.c **** 
 1687              		.loc 1 231 77 is_stmt 0 view .LVU541
 1688 01a0 069B     		ldr	r3, [sp, #24]
 1689 01a2 B8F1FF3F 		cmp	r8, #-1
 1690 01a6 08BF     		it	eq
 1691 01a8 2B46     		moveq	r3, r5
 1692 01aa 0693     		str	r3, [sp, #24]
 1693              	.LVL151:
 231:Drivers/lvgl/src/misc/lv_txt.c **** 
 1694              		.loc 1 231 77 view .LVU542
 1695 01ac E4E7     		b	.L171
 1696              	.LVL152:
 1697              	.L126:
 1698              	.LBB95:
 1699              	.LBB91:
 231:Drivers/lvgl/src/misc/lv_txt.c **** 
 1700              		.loc 1 231 77 view .LVU543
 1701 01ae 019B     		ldr	r3, [sp, #4]
 1702 01b0 0093     		str	r3, [sp]
 1703 01b2 E1E7     		b	.L171
 1704              	.LVL153:
 1705              	.L174:
 404:Drivers/lvgl/src/misc/lv_txt.c ****             *state = LV_TEXT_CMD_STATE_IN; /*After the parameter the text is in the command*/
 1706              		.loc 1 404 9 is_stmt 1 view .LVU544
 405:Drivers/lvgl/src/misc/lv_txt.c ****         }
 1707              		.loc 1 405 20 is_stmt 0 view .LVU545
 1708 01b4 202C     		cmp	r4, #32
 1709 01b6 0B46     		mov	r3, r1
 1710 01b8 08BF     		it	eq
 1711 01ba 0223     		moveq	r3, #2
 1712 01bc 0093     		str	r3, [sp]
 1713 01be DBE7     		b	.L171
 1714              	.LVL154:
 1715              	.L169:
 405:Drivers/lvgl/src/misc/lv_txt.c ****         }
 1716              		.loc 1 405 20 view .LVU546
 1717 01c0 039F     		ldr	r7, [sp, #12]
 405:Drivers/lvgl/src/misc/lv_txt.c ****         }
 1718              		.loc 1 405 20 view .LVU547
 1719              	.LBE91:
ARM GAS  /var/folders/0z/tsy30v1j4xl4_7kw94k978ww0000gn/T//ccd8hcN4.s 			page 55


 1720              	.LBE95:
 1721              	.LBE103:
 1722              	.LBE113:
 1723              	.LBE122:
 329:Drivers/lvgl/src/misc/lv_txt.c ****         uint32_t letter = _lv_txt_encoded_next(txt, &i);
 1724              		.loc 1 329 5 is_stmt 1 view .LVU548
 329:Drivers/lvgl/src/misc/lv_txt.c ****         uint32_t letter = _lv_txt_encoded_next(txt, &i);
 1725              		.loc 1 329 7 is_stmt 0 view .LVU549
 1726 01c2 002F     		cmp	r7, #0
 1727 01c4 B7D0     		beq	.L182
 1728              	.L118:
 336:Drivers/lvgl/src/misc/lv_txt.c ****         *used_width = line_w;
 1729              		.loc 1 336 5 is_stmt 1 view .LVU550
 336:Drivers/lvgl/src/misc/lv_txt.c ****         *used_width = line_w;
 1730              		.loc 1 336 7 is_stmt 0 view .LVU551
 1731 01c6 1C9B     		ldr	r3, [sp, #112]
 1732 01c8 002B     		cmp	r3, #0
 1733 01ca C5D1     		bne	.L121
 1734 01cc C7E7     		b	.L90
 1735              	.LVL155:
 1736              	.L127:
 1737              	.LBB123:
 1738              	.LBB114:
 1739              	.LBB104:
 1740              	.LBB96:
 1741              	.LBB92:
 336:Drivers/lvgl/src/misc/lv_txt.c ****         *used_width = line_w;
 1742              		.loc 1 336 7 view .LVU552
 1743 01ce 0021     		movs	r1, #0
 1744 01d0 0091     		str	r1, [sp]
 1745 01d2 73E7     		b	.L96
 1746              	.LVL156:
 1747              	.L178:
 336:Drivers/lvgl/src/misc/lv_txt.c ****         *used_width = line_w;
 1748              		.loc 1 336 7 view .LVU553
 1749              	.LBE92:
 1750              	.LBE96:
 1751              	.LBE104:
 1752              	.LBE114:
 310:Drivers/lvgl/src/misc/lv_txt.c ****         line_w += word_w;
 1753              		.loc 1 310 19 view .LVU554
 1754 01d4 BDF81830 		ldrh	r3, [sp, #24]
 1755              	.LVL157:
 1756              	.L112:
 310:Drivers/lvgl/src/misc/lv_txt.c ****         line_w += word_w;
 1757              		.loc 1 310 9 is_stmt 1 view .LVU555
 310:Drivers/lvgl/src/misc/lv_txt.c ****         line_w += word_w;
 1758              		.loc 1 310 19 is_stmt 0 view .LVU556
 1759 01d8 029A     		ldr	r2, [sp, #8]
 311:Drivers/lvgl/src/misc/lv_txt.c **** 
 1760              		.loc 1 311 16 view .LVU557
 1761 01da 0899     		ldr	r1, [sp, #32]
 317:Drivers/lvgl/src/misc/lv_txt.c **** 
 1762              		.loc 1 317 11 view .LVU558
 1763 01dc 0D9F     		ldr	r7, [sp, #52]
 310:Drivers/lvgl/src/misc/lv_txt.c ****         line_w += word_w;
 1764              		.loc 1 310 19 view .LVU559
ARM GAS  /var/folders/0z/tsy30v1j4xl4_7kw94k978ww0000gn/T//ccd8hcN4.s 			page 56


 1765 01de D21A     		subs	r2, r2, r3
 1766              	.LVL158:
 311:Drivers/lvgl/src/misc/lv_txt.c **** 
 1767              		.loc 1 311 16 view .LVU560
 1768 01e0 0B44     		add	r3, r3, r1
 310:Drivers/lvgl/src/misc/lv_txt.c ****         line_w += word_w;
 1769              		.loc 1 310 19 view .LVU561
 1770 01e2 12B2     		sxth	r2, r2
 311:Drivers/lvgl/src/misc/lv_txt.c **** 
 1771              		.loc 1 311 16 view .LVU562
 1772 01e4 1BB2     		sxth	r3, r3
 310:Drivers/lvgl/src/misc/lv_txt.c ****         line_w += word_w;
 1773              		.loc 1 310 19 view .LVU563
 1774 01e6 0292     		str	r2, [sp, #8]
 311:Drivers/lvgl/src/misc/lv_txt.c **** 
 1775              		.loc 1 311 9 is_stmt 1 view .LVU564
 311:Drivers/lvgl/src/misc/lv_txt.c **** 
 1776              		.loc 1 311 16 is_stmt 0 view .LVU565
 1777 01e8 0893     		str	r3, [sp, #32]
 313:Drivers/lvgl/src/misc/lv_txt.c ****             break;
 1778              		.loc 1 313 9 is_stmt 1 view .LVU566
 313:Drivers/lvgl/src/misc/lv_txt.c ****             break;
 1779              		.loc 1 313 11 is_stmt 0 view .LVU567
 1780 01ea B8F1000F 		cmp	r8, #0
 1781 01ee A0D0     		beq	.L114
 317:Drivers/lvgl/src/misc/lv_txt.c **** 
 1782              		.loc 1 317 9 is_stmt 1 view .LVU568
 319:Drivers/lvgl/src/misc/lv_txt.c **** 
 1783              		.loc 1 319 15 is_stmt 0 view .LVU569
 1784 01f0 0799     		ldr	r1, [sp, #28]
 1785 01f2 0B78     		ldrb	r3, [r1]	@ zero_extendqisi2
 317:Drivers/lvgl/src/misc/lv_txt.c **** 
 1786              		.loc 1 317 11 view .LVU570
 1787 01f4 08EB0702 		add	r2, r8, r7
 1788              	.LVL159:
 319:Drivers/lvgl/src/misc/lv_txt.c **** 
 1789              		.loc 1 319 11 view .LVU571
 1790 01f8 0A2B     		cmp	r3, #10
 317:Drivers/lvgl/src/misc/lv_txt.c **** 
 1791              		.loc 1 317 11 view .LVU572
 1792 01fa 0392     		str	r2, [sp, #12]
 1793 01fc 0D92     		str	r2, [sp, #52]
 319:Drivers/lvgl/src/misc/lv_txt.c **** 
 1794              		.loc 1 319 9 is_stmt 1 view .LVU573
 319:Drivers/lvgl/src/misc/lv_txt.c **** 
 1795              		.loc 1 319 11 is_stmt 0 view .LVU574
 1796 01fe 1BD0     		beq	.L168
 319:Drivers/lvgl/src/misc/lv_txt.c **** 
 1797              		.loc 1 319 27 view .LVU575
 1798 0200 0D2B     		cmp	r3, #13
 1799 0202 19D0     		beq	.L168
 321:Drivers/lvgl/src/misc/lv_txt.c ****             i++;  /*Include the following newline in the current line*/
 1800              		.loc 1 321 9 is_stmt 1 view .LVU576
 321:Drivers/lvgl/src/misc/lv_txt.c ****             i++;  /*Include the following newline in the current line*/
 1801              		.loc 1 321 15 is_stmt 0 view .LVU577
 1802 0204 8B5C     		ldrb	r3, [r1, r2]	@ zero_extendqisi2
 321:Drivers/lvgl/src/misc/lv_txt.c ****             i++;  /*Include the following newline in the current line*/
ARM GAS  /var/folders/0z/tsy30v1j4xl4_7kw94k978ww0000gn/T//ccd8hcN4.s 			page 57


 1803              		.loc 1 321 11 view .LVU578
 1804 0206 0A2B     		cmp	r3, #10
 1805 0208 02D0     		beq	.L116
 321:Drivers/lvgl/src/misc/lv_txt.c ****             i++;  /*Include the following newline in the current line*/
 1806              		.loc 1 321 27 view .LVU579
 1807 020a 0D2B     		cmp	r3, #13
 1808 020c 7FF416AF 		bne	.L92
 1809              	.L116:
 322:Drivers/lvgl/src/misc/lv_txt.c ****             break;
 1810              		.loc 1 322 14 view .LVU580
 1811 0210 039F     		ldr	r7, [sp, #12]
 322:Drivers/lvgl/src/misc/lv_txt.c ****             break;
 1812              		.loc 1 322 13 is_stmt 1 view .LVU581
 322:Drivers/lvgl/src/misc/lv_txt.c ****             break;
 1813              		.loc 1 322 14 is_stmt 0 view .LVU582
 1814 0212 0137     		adds	r7, r7, #1
 1815 0214 0D97     		str	r7, [sp, #52]
 323:Drivers/lvgl/src/misc/lv_txt.c ****         }
 1816              		.loc 1 323 13 is_stmt 1 view .LVU583
 1817 0216 8CE7     		b	.L114
 1818              	.LVL160:
 1819              	.L180:
 310:Drivers/lvgl/src/misc/lv_txt.c ****         line_w += word_w;
 1820              		.loc 1 310 19 is_stmt 0 view .LVU584
 1821 0218 BDF81830 		ldrh	r3, [sp, #24]
 1822              	.LVL161:
 1823              	.LBB115:
 1824              	.LBB105:
 240:Drivers/lvgl/src/misc/lv_txt.c ****         return i;
 1825              		.loc 1 240 72 view .LVU585
 1826 021c DDF83880 		ldr	r8, [sp, #56]
 1827 0220 DAE7     		b	.L112
 1828              	.LVL162:
 1829              	.L179:
 240:Drivers/lvgl/src/misc/lv_txt.c ****         return i;
 1830              		.loc 1 240 72 view .LVU586
 1831              	.LBE105:
 1832              	.LBE115:
 1833              	.LBE123:
 340:Drivers/lvgl/src/misc/lv_txt.c **** }
 1834              		.loc 1 340 12 view .LVU587
 1835 0222 0D9F     		ldr	r7, [sp, #52]
 341:Drivers/lvgl/src/misc/lv_txt.c **** 
 1836              		.loc 1 341 1 view .LVU588
 1837 0224 3846     		mov	r0, r7
 1838              	.LVL163:
 341:Drivers/lvgl/src/misc/lv_txt.c **** 
 1839              		.loc 1 341 1 view .LVU589
 1840 0226 11B0     		add	sp, sp, #68
 1841              		.cfi_remember_state
 1842              		.cfi_def_cfa_offset 44
 1843              		@ sp needed
 1844 0228 BDEC028B 		vldm	sp!, {d8}
 1845              		.cfi_restore 80
 1846              		.cfi_restore 81
 1847              		.cfi_def_cfa_offset 36
 1848              	.LVL164:
ARM GAS  /var/folders/0z/tsy30v1j4xl4_7kw94k978ww0000gn/T//ccd8hcN4.s 			page 58


 341:Drivers/lvgl/src/misc/lv_txt.c **** 
 1849              		.loc 1 341 1 view .LVU590
 1850 022c BDE8F08F 		pop	{r4, r5, r6, r7, r8, r9, r10, fp, pc}
 1851              	.LVL165:
 1852              	.L177:
 1853              		.cfi_restore_state
 1854              	.LBB124:
 1855              	.LBB116:
 1856              	.LBB106:
 225:Drivers/lvgl/src/misc/lv_txt.c ****             word_len--;
 1857              		.loc 1 225 79 is_stmt 1 view .LVU591
 225:Drivers/lvgl/src/misc/lv_txt.c ****             word_len--;
 1858              		.loc 1 225 91 is_stmt 0 view .LVU592
 1859 0230 0695     		str	r5, [sp, #24]
 1860              	.LVL166:
 239:Drivers/lvgl/src/misc/lv_txt.c ****         if(word_len == 0 || (letter == '\r' && letter_next == '\n')) i = i_next;
 1861              		.loc 1 239 5 is_stmt 1 view .LVU593
 240:Drivers/lvgl/src/misc/lv_txt.c ****         return i;
 1862              		.loc 1 240 9 view .LVU594
 240:Drivers/lvgl/src/misc/lv_txt.c ****         return i;
 1863              		.loc 1 240 11 is_stmt 0 view .LVU595
 1864 0232 002B     		cmp	r3, #0
 1865 0234 AED1     		bne	.L109
 1866              	.LVL167:
 240:Drivers/lvgl/src/misc/lv_txt.c ****         return i;
 1867              		.loc 1 240 11 view .LVU596
 1868 0236 EFE7     		b	.L180
 1869              	.LVL168:
 1870              	.L168:
 240:Drivers/lvgl/src/misc/lv_txt.c ****         return i;
 1871              		.loc 1 240 11 view .LVU597
 1872 0238 1746     		mov	r7, r2
 1873 023a 7AE7     		b	.L114
 1874              	.LVL169:
 1875              	.L181:
 240:Drivers/lvgl/src/misc/lv_txt.c ****         return i;
 1876              		.loc 1 240 45 view .LVU598
 1877 023c 0A2A     		cmp	r2, #10
 1878 023e ADD1     		bne	.L172
 240:Drivers/lvgl/src/misc/lv_txt.c ****         return i;
 1879              		.loc 1 240 72 view .LVU599
 1880 0240 DDF83880 		ldr	r8, [sp, #56]
 1881 0244 C8E7     		b	.L112
 1882              	.LVL170:
 1883              	.L125:
 193:Drivers/lvgl/src/misc/lv_txt.c ****         letter_next = _lv_txt_encoded_next(txt, &i_next_next);
 1884              		.loc 1 193 18 view .LVU600
 1885 0246 0B46     		mov	r3, r1
 1886              	.LVL171:
 240:Drivers/lvgl/src/misc/lv_txt.c ****         return i;
 1887              		.loc 1 240 70 is_stmt 1 view .LVU601
 240:Drivers/lvgl/src/misc/lv_txt.c ****         return i;
 1888              		.loc 1 240 70 is_stmt 0 view .LVU602
 1889 0248 C6E7     		b	.L112
 1890              	.L184:
 1891 024a 00BF     		.align	2
 1892              	.L183:
ARM GAS  /var/folders/0z/tsy30v1j4xl4_7kw94k978ww0000gn/T//ccd8hcN4.s 			page 59


 1893 024c 00000000 		.word	.LANCHOR1
 1894 0250 00000000 		.word	.LC0
 1895              	.LBE106:
 1896              	.LBE116:
 1897              	.LBE124:
 1898              		.cfi_endproc
 1899              	.LFE74:
 1901              		.section	.text.lv_txt_utf8_prev,"ax",%progbits
 1902              		.align	1
 1903              		.p2align 2,,3
 1904              		.syntax unified
 1905              		.thumb
 1906              		.thumb_func
 1908              	lv_txt_utf8_prev:
 1909              	.LVL172:
 1910              	.LFB68:
 667:Drivers/lvgl/src/misc/lv_txt.c ****     uint8_t c_size;
 1911              		.loc 1 667 1 is_stmt 1 view -0
 1912              		.cfi_startproc
 1913              		@ args = 0, pretend = 0, frame = 8
 1914              		@ frame_needed = 0, uses_anonymous_args = 0
 668:Drivers/lvgl/src/misc/lv_txt.c ****     uint8_t cnt = 0;
 1915              		.loc 1 668 5 view .LVU604
 669:Drivers/lvgl/src/misc/lv_txt.c **** 
 1916              		.loc 1 669 5 view .LVU605
 672:Drivers/lvgl/src/misc/lv_txt.c ****     do {
 1917              		.loc 1 672 5 view .LVU606
 667:Drivers/lvgl/src/misc/lv_txt.c ****     uint8_t c_size;
 1918              		.loc 1 667 1 is_stmt 0 view .LVU607
 1919 0000 F0B5     		push	{r4, r5, r6, r7, lr}
 1920              		.cfi_def_cfa_offset 20
 1921              		.cfi_offset 4, -20
 1922              		.cfi_offset 5, -16
 1923              		.cfi_offset 6, -12
 1924              		.cfi_offset 7, -8
 1925              		.cfi_offset 14, -4
 672:Drivers/lvgl/src/misc/lv_txt.c ****     do {
 1926              		.loc 1 672 9 view .LVU608
 1927 0002 0A68     		ldr	r2, [r1]
 1928 0004 0F4F     		ldr	r7, .L196
 1929 0006 013A     		subs	r2, r2, #1
 667:Drivers/lvgl/src/misc/lv_txt.c ****     uint8_t c_size;
 1930              		.loc 1 667 1 view .LVU609
 1931 0008 83B0     		sub	sp, sp, #12
 1932              		.cfi_def_cfa_offset 32
 667:Drivers/lvgl/src/misc/lv_txt.c ****     uint8_t c_size;
 1933              		.loc 1 667 1 view .LVU610
 1934 000a 0D46     		mov	r5, r1
 1935 000c 0646     		mov	r6, r0
 672:Drivers/lvgl/src/misc/lv_txt.c ****     do {
 1936              		.loc 1 672 9 view .LVU611
 1937 000e 0A60     		str	r2, [r1]
 673:Drivers/lvgl/src/misc/lv_txt.c ****         if(cnt >= 4) return 0; /*No UTF-8 char found before the initial*/
 1938              		.loc 1 673 5 is_stmt 1 view .LVU612
 674:Drivers/lvgl/src/misc/lv_txt.c **** 
 1939              		.loc 1 674 9 view .LVU613
 672:Drivers/lvgl/src/misc/lv_txt.c ****     do {
ARM GAS  /var/folders/0z/tsy30v1j4xl4_7kw94k978ww0000gn/T//ccd8hcN4.s 			page 60


 1940              		.loc 1 672 9 is_stmt 0 view .LVU614
 1941 0010 0424     		movs	r4, #4
 1942              	.LVL173:
 1943              	.L190:
 676:Drivers/lvgl/src/misc/lv_txt.c ****         if(c_size == 0) {
 1944              		.loc 1 676 9 is_stmt 1 view .LVU615
 676:Drivers/lvgl/src/misc/lv_txt.c ****         if(c_size == 0) {
 1945              		.loc 1 676 18 is_stmt 0 view .LVU616
 1946 0012 3B68     		ldr	r3, [r7]
 1947 0014 B018     		adds	r0, r6, r2
 1948 0016 9847     		blx	r3
 1949              	.LVL174:
 678:Drivers/lvgl/src/misc/lv_txt.c ****                 (*i)--;
 1950              		.loc 1 678 13 is_stmt 1 view .LVU617
 679:Drivers/lvgl/src/misc/lv_txt.c ****             else
 1951              		.loc 1 679 17 view .LVU618
 677:Drivers/lvgl/src/misc/lv_txt.c ****             if(*i != 0)
 1952              		.loc 1 677 9 view .LVU619
 674:Drivers/lvgl/src/misc/lv_txt.c **** 
 1953              		.loc 1 674 11 is_stmt 0 view .LVU620
 1954 0018 631E     		subs	r3, r4, #1
 677:Drivers/lvgl/src/misc/lv_txt.c ****             if(*i != 0)
 1955              		.loc 1 677 11 view .LVU621
 1956 001a 40B1     		cbz	r0, .L195
 683:Drivers/lvgl/src/misc/lv_txt.c ****     } while(c_size == 0);
 1957              		.loc 1 683 9 is_stmt 1 view .LVU622
 684:Drivers/lvgl/src/misc/lv_txt.c **** 
 1958              		.loc 1 684 20 view .LVU623
 1959              	.LVL175:
 1960              	.LBB127:
 1961              	.LBI127:
 666:Drivers/lvgl/src/misc/lv_txt.c **** {
 1962              		.loc 1 666 17 view .LVU624
 1963              	.LBB128:
 686:Drivers/lvgl/src/misc/lv_txt.c ****     uint32_t letter = _lv_txt_encoded_next(txt, &i_tmp); /*Character found, get it*/
 1964              		.loc 1 686 5 view .LVU625
 687:Drivers/lvgl/src/misc/lv_txt.c **** 
 1965              		.loc 1 687 23 is_stmt 0 view .LVU626
 1966 001c 0A4B     		ldr	r3, .L196+4
 686:Drivers/lvgl/src/misc/lv_txt.c ****     uint32_t letter = _lv_txt_encoded_next(txt, &i_tmp); /*Character found, get it*/
 1967              		.loc 1 686 14 view .LVU627
 1968 001e 2A68     		ldr	r2, [r5]
 687:Drivers/lvgl/src/misc/lv_txt.c **** 
 1969              		.loc 1 687 23 view .LVU628
 1970 0020 1B68     		ldr	r3, [r3]
 686:Drivers/lvgl/src/misc/lv_txt.c ****     uint32_t letter = _lv_txt_encoded_next(txt, &i_tmp); /*Character found, get it*/
 1971              		.loc 1 686 14 view .LVU629
 1972 0022 0192     		str	r2, [sp, #4]
 687:Drivers/lvgl/src/misc/lv_txt.c **** 
 1973              		.loc 1 687 5 is_stmt 1 view .LVU630
 687:Drivers/lvgl/src/misc/lv_txt.c **** 
 1974              		.loc 1 687 23 is_stmt 0 view .LVU631
 1975 0024 01A9     		add	r1, sp, #4
 1976 0026 3046     		mov	r0, r6
 1977              	.LVL176:
 687:Drivers/lvgl/src/misc/lv_txt.c **** 
 1978              		.loc 1 687 23 view .LVU632
ARM GAS  /var/folders/0z/tsy30v1j4xl4_7kw94k978ww0000gn/T//ccd8hcN4.s 			page 61


 1979 0028 9847     		blx	r3
 1980              	.LVL177:
 689:Drivers/lvgl/src/misc/lv_txt.c **** }
 1981              		.loc 1 689 5 is_stmt 1 view .LVU633
 689:Drivers/lvgl/src/misc/lv_txt.c **** }
 1982              		.loc 1 689 5 is_stmt 0 view .LVU634
 1983              	.LBE128:
 1984              	.LBE127:
 690:Drivers/lvgl/src/misc/lv_txt.c **** 
 1985              		.loc 1 690 1 view .LVU635
 1986 002a 03B0     		add	sp, sp, #12
 1987              		.cfi_remember_state
 1988              		.cfi_def_cfa_offset 20
 1989              		@ sp needed
 1990 002c F0BD     		pop	{r4, r5, r6, r7, pc}
 1991              	.LVL178:
 1992              	.L195:
 1993              		.cfi_restore_state
 678:Drivers/lvgl/src/misc/lv_txt.c ****                 (*i)--;
 1994              		.loc 1 678 16 view .LVU636
 1995 002e 2968     		ldr	r1, [r5]
 679:Drivers/lvgl/src/misc/lv_txt.c ****             else
 1996              		.loc 1 679 21 view .LVU637
 1997 0030 4A1E     		subs	r2, r1, #1
 678:Drivers/lvgl/src/misc/lv_txt.c ****                 (*i)--;
 1998              		.loc 1 678 15 view .LVU638
 1999 0032 19B1     		cbz	r1, .L189
 674:Drivers/lvgl/src/misc/lv_txt.c **** 
 2000              		.loc 1 674 11 view .LVU639
 2001 0034 13F0FF04 		ands	r4, r3, #255
 679:Drivers/lvgl/src/misc/lv_txt.c ****             else
 2002              		.loc 1 679 21 view .LVU640
 2003 0038 2A60     		str	r2, [r5]
 683:Drivers/lvgl/src/misc/lv_txt.c ****     } while(c_size == 0);
 2004              		.loc 1 683 9 is_stmt 1 view .LVU641
 684:Drivers/lvgl/src/misc/lv_txt.c **** 
 2005              		.loc 1 684 20 view .LVU642
 673:Drivers/lvgl/src/misc/lv_txt.c ****         if(cnt >= 4) return 0; /*No UTF-8 char found before the initial*/
 2006              		.loc 1 673 5 view .LVU643
 674:Drivers/lvgl/src/misc/lv_txt.c **** 
 2007              		.loc 1 674 9 view .LVU644
 674:Drivers/lvgl/src/misc/lv_txt.c **** 
 2008              		.loc 1 674 11 is_stmt 0 view .LVU645
 2009 003a EAD1     		bne	.L190
 2010              	.L189:
 681:Drivers/lvgl/src/misc/lv_txt.c ****         }
 2011              		.loc 1 681 24 view .LVU646
 2012 003c 0020     		movs	r0, #0
 2013              	.LVL179:
 690:Drivers/lvgl/src/misc/lv_txt.c **** 
 2014              		.loc 1 690 1 view .LVU647
 2015 003e 03B0     		add	sp, sp, #12
 2016              		.cfi_def_cfa_offset 20
 2017              		@ sp needed
 2018 0040 F0BD     		pop	{r4, r5, r6, r7, pc}
 2019              	.LVL180:
 2020              	.L197:
ARM GAS  /var/folders/0z/tsy30v1j4xl4_7kw94k978ww0000gn/T//ccd8hcN4.s 			page 62


 690:Drivers/lvgl/src/misc/lv_txt.c **** 
 2021              		.loc 1 690 1 view .LVU648
 2022 0042 00BF     		.align	2
 2023              	.L196:
 2024 0044 00000000 		.word	.LANCHOR0
 2025 0048 00000000 		.word	.LANCHOR1
 2026              		.cfi_endproc
 2027              	.LFE68:
 2029              		.section	.text.lv_txt_get_size,"ax",%progbits
 2030              		.align	1
 2031              		.p2align 2,,3
 2032              		.global	lv_txt_get_size
 2033              		.syntax unified
 2034              		.thumb
 2035              		.thumb_func
 2037              	lv_txt_get_size:
 2038              	.LVL181:
 2039              	.LFB55:
  93:Drivers/lvgl/src/misc/lv_txt.c ****     size_res->x = 0;
 2040              		.loc 1 93 1 is_stmt 1 view -0
 2041              		.cfi_startproc
 2042              		@ args = 12, pretend = 0, frame = 24
 2043              		@ frame_needed = 0, uses_anonymous_args = 0
  94:Drivers/lvgl/src/misc/lv_txt.c ****     size_res->y = 0;
 2044              		.loc 1 94 5 view .LVU650
  95:Drivers/lvgl/src/misc/lv_txt.c **** 
 2045              		.loc 1 95 5 view .LVU651
  93:Drivers/lvgl/src/misc/lv_txt.c ****     size_res->x = 0;
 2046              		.loc 1 93 1 is_stmt 0 view .LVU652
 2047 0000 2DE9F04F 		push	{r4, r5, r6, r7, r8, r9, r10, fp, lr}
 2048              		.cfi_def_cfa_offset 36
 2049              		.cfi_offset 4, -36
 2050              		.cfi_offset 5, -32
 2051              		.cfi_offset 6, -28
 2052              		.cfi_offset 7, -24
 2053              		.cfi_offset 8, -20
 2054              		.cfi_offset 9, -16
 2055              		.cfi_offset 10, -12
 2056              		.cfi_offset 11, -8
 2057              		.cfi_offset 14, -4
 2058 0004 89B0     		sub	sp, sp, #36
 2059              		.cfi_def_cfa_offset 72
  94:Drivers/lvgl/src/misc/lv_txt.c ****     size_res->y = 0;
 2060              		.loc 1 94 17 view .LVU653
 2061 0006 0025     		movs	r5, #0
  93:Drivers/lvgl/src/misc/lv_txt.c ****     size_res->x = 0;
 2062              		.loc 1 93 1 view .LVU654
 2063 0008 0446     		mov	r4, r0
  94:Drivers/lvgl/src/misc/lv_txt.c ****     size_res->y = 0;
 2064              		.loc 1 94 17 view .LVU655
 2065 000a 0560     		str	r5, [r0]	@ unaligned
  97:Drivers/lvgl/src/misc/lv_txt.c ****     if(font == NULL) return;
 2066              		.loc 1 97 5 is_stmt 1 view .LVU656
  93:Drivers/lvgl/src/misc/lv_txt.c ****     size_res->x = 0;
 2067              		.loc 1 93 1 is_stmt 0 view .LVU657
 2068 000c BDF94890 		ldrsh	r9, [sp, #72]
 2069 0010 BDF94C00 		ldrsh	r0, [sp, #76]
ARM GAS  /var/folders/0z/tsy30v1j4xl4_7kw94k978ww0000gn/T//ccd8hcN4.s 			page 63


 2070              	.LVL182:
  93:Drivers/lvgl/src/misc/lv_txt.c ****     size_res->x = 0;
 2071              		.loc 1 93 1 view .LVU658
 2072 0014 9DF850B0 		ldrb	fp, [sp, #80]	@ zero_extendqisi2
  97:Drivers/lvgl/src/misc/lv_txt.c ****     if(font == NULL) return;
 2073              		.loc 1 97 7 view .LVU659
 2074 0018 0029     		cmp	r1, #0
 2075 001a 55D0     		beq	.L198
  98:Drivers/lvgl/src/misc/lv_txt.c **** 
 2076              		.loc 1 98 5 is_stmt 1 view .LVU660
 2077 001c 9046     		mov	r8, r2
  98:Drivers/lvgl/src/misc/lv_txt.c **** 
 2078              		.loc 1 98 7 is_stmt 0 view .LVU661
 2079 001e 002A     		cmp	r2, #0
 2080 0020 52D0     		beq	.L198
 100:Drivers/lvgl/src/misc/lv_txt.c **** 
 2081              		.loc 1 100 5 is_stmt 1 view .LVU662
 2082 0022 0F46     		mov	r7, r1
 2083 0024 9A46     		mov	r10, r3
 2084              	.LBB138:
 2085              	.LBB139:
 2086              		.file 3 "Drivers/lvgl/src/misc/../font/lv_font.h"
   1:Drivers/lvgl/src/misc/../font/lv_font.h **** /**
   2:Drivers/lvgl/src/misc/../font/lv_font.h ****  * @file lv_font.h
   3:Drivers/lvgl/src/misc/../font/lv_font.h ****  *
   4:Drivers/lvgl/src/misc/../font/lv_font.h ****  */
   5:Drivers/lvgl/src/misc/../font/lv_font.h **** 
   6:Drivers/lvgl/src/misc/../font/lv_font.h **** #ifndef LV_FONT_H
   7:Drivers/lvgl/src/misc/../font/lv_font.h **** #define LV_FONT_H
   8:Drivers/lvgl/src/misc/../font/lv_font.h **** 
   9:Drivers/lvgl/src/misc/../font/lv_font.h **** #ifdef __cplusplus
  10:Drivers/lvgl/src/misc/../font/lv_font.h **** extern "C" {
  11:Drivers/lvgl/src/misc/../font/lv_font.h **** #endif
  12:Drivers/lvgl/src/misc/../font/lv_font.h **** 
  13:Drivers/lvgl/src/misc/../font/lv_font.h **** /*********************
  14:Drivers/lvgl/src/misc/../font/lv_font.h ****  *      INCLUDES
  15:Drivers/lvgl/src/misc/../font/lv_font.h ****  *********************/
  16:Drivers/lvgl/src/misc/../font/lv_font.h **** #include "../lv_conf_internal.h"
  17:Drivers/lvgl/src/misc/../font/lv_font.h **** #include <stdint.h>
  18:Drivers/lvgl/src/misc/../font/lv_font.h **** #include <stddef.h>
  19:Drivers/lvgl/src/misc/../font/lv_font.h **** #include <stdbool.h>
  20:Drivers/lvgl/src/misc/../font/lv_font.h **** 
  21:Drivers/lvgl/src/misc/../font/lv_font.h **** #include "lv_symbol_def.h"
  22:Drivers/lvgl/src/misc/../font/lv_font.h **** #include "../misc/lv_area.h"
  23:Drivers/lvgl/src/misc/../font/lv_font.h **** 
  24:Drivers/lvgl/src/misc/../font/lv_font.h **** /*********************
  25:Drivers/lvgl/src/misc/../font/lv_font.h ****  *      DEFINES
  26:Drivers/lvgl/src/misc/../font/lv_font.h ****  *********************/
  27:Drivers/lvgl/src/misc/../font/lv_font.h **** 
  28:Drivers/lvgl/src/misc/../font/lv_font.h **** /* imgfont identifier */
  29:Drivers/lvgl/src/misc/../font/lv_font.h **** #define LV_IMGFONT_BPP 9
  30:Drivers/lvgl/src/misc/../font/lv_font.h **** 
  31:Drivers/lvgl/src/misc/../font/lv_font.h **** /**********************
  32:Drivers/lvgl/src/misc/../font/lv_font.h ****  *      TYPEDEFS
  33:Drivers/lvgl/src/misc/../font/lv_font.h ****  **********************/
  34:Drivers/lvgl/src/misc/../font/lv_font.h **** 
  35:Drivers/lvgl/src/misc/../font/lv_font.h **** /*------------------
ARM GAS  /var/folders/0z/tsy30v1j4xl4_7kw94k978ww0000gn/T//ccd8hcN4.s 			page 64


  36:Drivers/lvgl/src/misc/../font/lv_font.h ****  * General types
  37:Drivers/lvgl/src/misc/../font/lv_font.h ****  *-----------------*/
  38:Drivers/lvgl/src/misc/../font/lv_font.h **** 
  39:Drivers/lvgl/src/misc/../font/lv_font.h **** struct _lv_font_t;
  40:Drivers/lvgl/src/misc/../font/lv_font.h **** /** Describes the properties of a glyph.*/
  41:Drivers/lvgl/src/misc/../font/lv_font.h **** typedef struct {
  42:Drivers/lvgl/src/misc/../font/lv_font.h ****     const struct _lv_font_t *
  43:Drivers/lvgl/src/misc/../font/lv_font.h ****         resolved_font; /**< Pointer to a font where the glyph was actually found after handling fal
  44:Drivers/lvgl/src/misc/../font/lv_font.h ****     uint16_t adv_w; /**< The glyph needs this space. Draw the next glyph after this width.*/
  45:Drivers/lvgl/src/misc/../font/lv_font.h ****     uint16_t box_w; /**< Width of the glyph's bounding box*/
  46:Drivers/lvgl/src/misc/../font/lv_font.h ****     uint16_t box_h; /**< Height of the glyph's bounding box*/
  47:Drivers/lvgl/src/misc/../font/lv_font.h ****     int16_t ofs_x;  /**< x offset of the bounding box*/
  48:Drivers/lvgl/src/misc/../font/lv_font.h ****     int16_t ofs_y;  /**< y offset of the bounding box*/
  49:Drivers/lvgl/src/misc/../font/lv_font.h ****     uint8_t bpp: 4;  /**< Bit-per-pixel: 1, 2, 4, 8*/
  50:Drivers/lvgl/src/misc/../font/lv_font.h ****     uint8_t is_placeholder: 1; /** Glyph is missing. But placeholder will still be displayed */
  51:Drivers/lvgl/src/misc/../font/lv_font.h **** } lv_font_glyph_dsc_t;
  52:Drivers/lvgl/src/misc/../font/lv_font.h **** 
  53:Drivers/lvgl/src/misc/../font/lv_font.h **** /** The bitmaps might be upscaled by 3 to achieve subpixel rendering.*/
  54:Drivers/lvgl/src/misc/../font/lv_font.h **** enum {
  55:Drivers/lvgl/src/misc/../font/lv_font.h ****     LV_FONT_SUBPX_NONE,
  56:Drivers/lvgl/src/misc/../font/lv_font.h ****     LV_FONT_SUBPX_HOR,
  57:Drivers/lvgl/src/misc/../font/lv_font.h ****     LV_FONT_SUBPX_VER,
  58:Drivers/lvgl/src/misc/../font/lv_font.h ****     LV_FONT_SUBPX_BOTH,
  59:Drivers/lvgl/src/misc/../font/lv_font.h **** };
  60:Drivers/lvgl/src/misc/../font/lv_font.h **** 
  61:Drivers/lvgl/src/misc/../font/lv_font.h **** typedef uint8_t lv_font_subpx_t;
  62:Drivers/lvgl/src/misc/../font/lv_font.h **** 
  63:Drivers/lvgl/src/misc/../font/lv_font.h **** /** Describe the properties of a font*/
  64:Drivers/lvgl/src/misc/../font/lv_font.h **** typedef struct _lv_font_t {
  65:Drivers/lvgl/src/misc/../font/lv_font.h ****     /** Get a glyph's descriptor from a font*/
  66:Drivers/lvgl/src/misc/../font/lv_font.h ****     bool (*get_glyph_dsc)(const struct _lv_font_t *, lv_font_glyph_dsc_t *, uint32_t letter, uint32
  67:Drivers/lvgl/src/misc/../font/lv_font.h **** 
  68:Drivers/lvgl/src/misc/../font/lv_font.h ****     /** Get a glyph's bitmap from a font*/
  69:Drivers/lvgl/src/misc/../font/lv_font.h ****     const uint8_t * (*get_glyph_bitmap)(const struct _lv_font_t *, uint32_t);
  70:Drivers/lvgl/src/misc/../font/lv_font.h **** 
  71:Drivers/lvgl/src/misc/../font/lv_font.h ****     /*Pointer to the font in a font pack (must have the same line height)*/
  72:Drivers/lvgl/src/misc/../font/lv_font.h ****     lv_coord_t line_height;         /**< The real line height where any text fits*/
  73:Drivers/lvgl/src/misc/../font/lv_font.h ****     lv_coord_t base_line;           /**< Base line measured from the top of the line_height*/
  74:Drivers/lvgl/src/misc/../font/lv_font.h ****     uint8_t subpx  : 2;             /**< An element of `lv_font_subpx_t`*/
  75:Drivers/lvgl/src/misc/../font/lv_font.h **** 
  76:Drivers/lvgl/src/misc/../font/lv_font.h ****     int8_t underline_position;      /**< Distance between the top of the underline and base line (<
  77:Drivers/lvgl/src/misc/../font/lv_font.h ****     int8_t underline_thickness;     /**< Thickness of the underline*/
  78:Drivers/lvgl/src/misc/../font/lv_font.h **** 
  79:Drivers/lvgl/src/misc/../font/lv_font.h ****     const void * dsc;               /**< Store implementation specific or run_time data or caching 
  80:Drivers/lvgl/src/misc/../font/lv_font.h ****     const struct _lv_font_t * fallback;   /**< Fallback font for missing glyph. Resolved recursivel
  81:Drivers/lvgl/src/misc/../font/lv_font.h **** #if LV_USE_USER_DATA
  82:Drivers/lvgl/src/misc/../font/lv_font.h ****     void * user_data;               /**< Custom user data for font.*/
  83:Drivers/lvgl/src/misc/../font/lv_font.h **** #endif
  84:Drivers/lvgl/src/misc/../font/lv_font.h **** } lv_font_t;
  85:Drivers/lvgl/src/misc/../font/lv_font.h **** 
  86:Drivers/lvgl/src/misc/../font/lv_font.h **** /**********************
  87:Drivers/lvgl/src/misc/../font/lv_font.h ****  * GLOBAL PROTOTYPES
  88:Drivers/lvgl/src/misc/../font/lv_font.h ****  **********************/
  89:Drivers/lvgl/src/misc/../font/lv_font.h **** 
  90:Drivers/lvgl/src/misc/../font/lv_font.h **** /**
  91:Drivers/lvgl/src/misc/../font/lv_font.h ****  * Return with the bitmap of a font.
  92:Drivers/lvgl/src/misc/../font/lv_font.h ****  * @param font_p pointer to a font
ARM GAS  /var/folders/0z/tsy30v1j4xl4_7kw94k978ww0000gn/T//ccd8hcN4.s 			page 65


  93:Drivers/lvgl/src/misc/../font/lv_font.h ****  * @param letter a UNICODE character code
  94:Drivers/lvgl/src/misc/../font/lv_font.h ****  * @return pointer to the bitmap of the letter
  95:Drivers/lvgl/src/misc/../font/lv_font.h ****  */
  96:Drivers/lvgl/src/misc/../font/lv_font.h **** const uint8_t * lv_font_get_glyph_bitmap(const lv_font_t * font_p, uint32_t letter);
  97:Drivers/lvgl/src/misc/../font/lv_font.h **** 
  98:Drivers/lvgl/src/misc/../font/lv_font.h **** /**
  99:Drivers/lvgl/src/misc/../font/lv_font.h ****  * Get the descriptor of a glyph
 100:Drivers/lvgl/src/misc/../font/lv_font.h ****  * @param font_p pointer to font
 101:Drivers/lvgl/src/misc/../font/lv_font.h ****  * @param dsc_out store the result descriptor here
 102:Drivers/lvgl/src/misc/../font/lv_font.h ****  * @param letter a UNICODE letter code
 103:Drivers/lvgl/src/misc/../font/lv_font.h ****  * @param letter_next the next letter after `letter`. Used for kerning
 104:Drivers/lvgl/src/misc/../font/lv_font.h ****  * @return true: descriptor is successfully loaded into `dsc_out`.
 105:Drivers/lvgl/src/misc/../font/lv_font.h ****  *         false: the letter was not found, no data is loaded to `dsc_out`
 106:Drivers/lvgl/src/misc/../font/lv_font.h ****  */
 107:Drivers/lvgl/src/misc/../font/lv_font.h **** bool lv_font_get_glyph_dsc(const lv_font_t * font_p, lv_font_glyph_dsc_t * dsc_out, uint32_t letter
 108:Drivers/lvgl/src/misc/../font/lv_font.h ****                            uint32_t letter_next);
 109:Drivers/lvgl/src/misc/../font/lv_font.h **** 
 110:Drivers/lvgl/src/misc/../font/lv_font.h **** /**
 111:Drivers/lvgl/src/misc/../font/lv_font.h ****  * Get the width of a glyph with kerning
 112:Drivers/lvgl/src/misc/../font/lv_font.h ****  * @param font pointer to a font
 113:Drivers/lvgl/src/misc/../font/lv_font.h ****  * @param letter a UNICODE letter
 114:Drivers/lvgl/src/misc/../font/lv_font.h ****  * @param letter_next the next letter after `letter`. Used for kerning
 115:Drivers/lvgl/src/misc/../font/lv_font.h ****  * @return the width of the glyph
 116:Drivers/lvgl/src/misc/../font/lv_font.h ****  */
 117:Drivers/lvgl/src/misc/../font/lv_font.h **** uint16_t lv_font_get_glyph_width(const lv_font_t * font, uint32_t letter, uint32_t letter_next);
 118:Drivers/lvgl/src/misc/../font/lv_font.h **** 
 119:Drivers/lvgl/src/misc/../font/lv_font.h **** /**
 120:Drivers/lvgl/src/misc/../font/lv_font.h ****  * Get the line height of a font. All characters fit into this height
 121:Drivers/lvgl/src/misc/../font/lv_font.h ****  * @param font_p pointer to a font
 122:Drivers/lvgl/src/misc/../font/lv_font.h ****  * @return the height of a font
 123:Drivers/lvgl/src/misc/../font/lv_font.h ****  */
 124:Drivers/lvgl/src/misc/../font/lv_font.h **** static inline lv_coord_t lv_font_get_line_height(const lv_font_t * font_p)
 125:Drivers/lvgl/src/misc/../font/lv_font.h **** {
 126:Drivers/lvgl/src/misc/../font/lv_font.h ****     return font_p->line_height;
 2087              		.loc 3 126 18 is_stmt 0 view .LVU663
 2088 0026 B2F90810 		ldrsh	r1, [r2, #8]
 2089              	.LVL183:
 2090              		.loc 3 126 18 view .LVU664
 2091              	.LBE139:
 2092              	.LBE138:
 107:Drivers/lvgl/src/misc/lv_txt.c ****         new_line_start += _lv_txt_get_next_line(&text[line_start], font, letter_space, max_width, N
 2093              		.loc 1 107 15 view .LVU665
 2094 002a 3B78     		ldrb	r3, [r7]	@ zero_extendqisi2
 2095              	.LVL184:
 2096              	.LBB142:
 2097              	.LBB140:
 2098              		.loc 3 126 18 view .LVU666
 2099 002c 0691     		str	r1, [sp, #24]
 2100              	.LBE140:
 2101              	.LBE142:
 100:Drivers/lvgl/src/misc/lv_txt.c **** 
 2102              		.loc 1 100 46 view .LVU667
 2103 002e 41F6FF72 		movw	r2, #8191
 2104              	.LVL185:
 100:Drivers/lvgl/src/misc/lv_txt.c **** 
 2105              		.loc 1 100 46 view .LVU668
 2106 0032 1BF0020F 		tst	fp, #2
ARM GAS  /var/folders/0z/tsy30v1j4xl4_7kw94k978ww0000gn/T//ccd8hcN4.s 			page 66


 2107 0036 18BF     		it	ne
 2108 0038 1046     		movne	r0, r2
 2109 003a 0590     		str	r0, [sp, #20]
 2110              	.LVL186:
 102:Drivers/lvgl/src/misc/lv_txt.c ****     uint32_t new_line_start = 0;
 2111              		.loc 1 102 5 is_stmt 1 view .LVU669
 103:Drivers/lvgl/src/misc/lv_txt.c ****     uint16_t letter_height = lv_font_get_line_height(font);
 2112              		.loc 1 103 5 view .LVU670
 104:Drivers/lvgl/src/misc/lv_txt.c **** 
 2113              		.loc 1 104 5 view .LVU671
 2114              	.LBB143:
 2115              	.LBI138:
 124:Drivers/lvgl/src/misc/../font/lv_font.h **** {
 2116              		.loc 3 124 26 view .LVU672
 2117              	.LBB141:
 2118              		.loc 3 126 5 view .LVU673
 2119              		.loc 3 126 5 is_stmt 0 view .LVU674
 2120              	.LBE141:
 2121              	.LBE143:
 104:Drivers/lvgl/src/misc/lv_txt.c **** 
 2122              		.loc 1 104 14 view .LVU675
 2123 003c 8AB2     		uxth	r2, r1
 2124              	.LVL187:
 107:Drivers/lvgl/src/misc/lv_txt.c ****         new_line_start += _lv_txt_get_next_line(&text[line_start], font, letter_space, max_width, N
 2125              		.loc 1 107 5 is_stmt 1 view .LVU676
 107:Drivers/lvgl/src/misc/lv_txt.c ****         new_line_start += _lv_txt_get_next_line(&text[line_start], font, letter_space, max_width, N
 2126              		.loc 1 107 28 view .LVU677
 2127 003e 002B     		cmp	r3, #0
 2128 0040 67D0     		beq	.L219
 2129              	.LBB144:
 116:Drivers/lvgl/src/misc/lv_txt.c ****         }
 2130              		.loc 1 116 25 is_stmt 0 view .LVU678
 2131 0042 1FFA89F1 		uxth	r1, r9
 2132 0046 9144     		add	r9, r9, r2
 2133 0048 0A44     		add	r2, r2, r1
 2134              	.LVL188:
 116:Drivers/lvgl/src/misc/lv_txt.c ****         }
 2135              		.loc 1 116 25 view .LVU679
 2136 004a 92B2     		uxth	r2, r2
 2137 004c 0392     		str	r2, [sp, #12]
 2138 004e 0BF00602 		and	r2, fp, #6
 2139 0052 0791     		str	r1, [sp, #28]
 2140 0054 0492     		str	r2, [sp, #16]
 110:Drivers/lvgl/src/misc/lv_txt.c ****             LV_LOG_WARN("lv_txt_get_size: integer overflow while calculating text height");
 2141              		.loc 1 110 72 view .LVU680
 2142 0056 3E46     		mov	r6, r7
 2143              	.LVL189:
 2144              	.L214:
 108:Drivers/lvgl/src/misc/lv_txt.c **** 
 2145              		.loc 1 108 9 is_stmt 1 view .LVU681
 2146              	.LBB145:
 2147              	.LBI145:
 279:Drivers/lvgl/src/misc/lv_txt.c ****                                lv_coord_t letter_space, lv_coord_t max_width,
 2148              		.loc 1 279 10 view .LVU682
 2149              	.LBB146:
 283:Drivers/lvgl/src/misc/lv_txt.c **** 
 2150              		.loc 1 283 5 view .LVU683
ARM GAS  /var/folders/0z/tsy30v1j4xl4_7kw94k978ww0000gn/T//ccd8hcN4.s 			page 67


 285:Drivers/lvgl/src/misc/lv_txt.c ****     if(txt[0] == '\0') return 0;
 2151              		.loc 1 285 5 view .LVU684
 286:Drivers/lvgl/src/misc/lv_txt.c ****     if(font == NULL) return 0;
 2152              		.loc 1 286 5 view .LVU685
 287:Drivers/lvgl/src/misc/lv_txt.c **** 
 2153              		.loc 1 287 5 view .LVU686
 289:Drivers/lvgl/src/misc/lv_txt.c **** 
 2154              		.loc 1 289 5 view .LVU687
 293:Drivers/lvgl/src/misc/lv_txt.c ****         uint32_t i;
 2155              		.loc 1 293 5 view .LVU688
 293:Drivers/lvgl/src/misc/lv_txt.c ****         uint32_t i;
 2156              		.loc 1 293 7 is_stmt 0 view .LVU689
 2157 0058 049A     		ldr	r2, [sp, #16]
 2158 005a 002A     		cmp	r2, #0
 2159 005c 44D1     		bne	.L238
 2160              	.L204:
 293:Drivers/lvgl/src/misc/lv_txt.c ****         uint32_t i;
 2161              		.loc 1 293 7 view .LVU690
 2162 005e CDE9002B 		strd	r2, fp, [sp]
 2163 0062 059B     		ldr	r3, [sp, #20]
 2164 0064 5246     		mov	r2, r10
 2165 0066 4146     		mov	r1, r8
 2166 0068 3046     		mov	r0, r6
 2167 006a FFF7FEFF 		bl	_lv_txt_get_next_line.part.0
 2168              	.LVL190:
 2169              	.L236:
 293:Drivers/lvgl/src/misc/lv_txt.c ****         uint32_t i;
 2170              		.loc 1 293 7 view .LVU691
 2171 006e 0146     		mov	r1, r0
 2172              	.L210:
 2173              	.LVL191:
 293:Drivers/lvgl/src/misc/lv_txt.c ****         uint32_t i;
 2174              		.loc 1 293 7 view .LVU692
 2175              	.LBE146:
 2176              	.LBE145:
 110:Drivers/lvgl/src/misc/lv_txt.c ****             LV_LOG_WARN("lv_txt_get_size: integer overflow while calculating text height");
 2177              		.loc 1 110 35 view .LVU693
 2178 0070 B4F90230 		ldrsh	r3, [r4, #2]
 110:Drivers/lvgl/src/misc/lv_txt.c ****             LV_LOG_WARN("lv_txt_get_size: integer overflow while calculating text height");
 2179              		.loc 1 110 70 view .LVU694
 2180 0074 03EB0902 		add	r2, r3, r9
 110:Drivers/lvgl/src/misc/lv_txt.c ****             LV_LOG_WARN("lv_txt_get_size: integer overflow while calculating text height");
 2181              		.loc 1 110 11 view .LVU695
 2182 0078 B2F5004F 		cmp	r2, #32768
 108:Drivers/lvgl/src/misc/lv_txt.c **** 
 2183              		.loc 1 108 24 view .LVU696
 2184 007c 0D44     		add	r5, r5, r1
 2185              	.LVL192:
 110:Drivers/lvgl/src/misc/lv_txt.c ****             LV_LOG_WARN("lv_txt_get_size: integer overflow while calculating text height");
 2186              		.loc 1 110 9 is_stmt 1 view .LVU697
 110:Drivers/lvgl/src/misc/lv_txt.c ****             LV_LOG_WARN("lv_txt_get_size: integer overflow while calculating text height");
 2187              		.loc 1 110 11 is_stmt 0 view .LVU698
 2188 007e 23D2     		bcs	.L198
 115:Drivers/lvgl/src/misc/lv_txt.c ****             size_res->y += line_space;
 2189              		.loc 1 115 13 is_stmt 1 view .LVU699
 116:Drivers/lvgl/src/misc/lv_txt.c ****         }
 2190              		.loc 1 116 13 view .LVU700
ARM GAS  /var/folders/0z/tsy30v1j4xl4_7kw94k978ww0000gn/T//ccd8hcN4.s 			page 68


 116:Drivers/lvgl/src/misc/lv_txt.c ****         }
 2191              		.loc 1 116 25 is_stmt 0 view .LVU701
 2192 0080 039A     		ldr	r2, [sp, #12]
 2193 0082 1344     		add	r3, r3, r2
 2194 0084 6380     		strh	r3, [r4, #2]	@ movhi
 120:Drivers/lvgl/src/misc/lv_txt.c ****                                                       flag);
 2195              		.loc 1 120 9 is_stmt 1 view .LVU702
 2196              	.LVL193:
 2197              	.LBB149:
 2198              	.LBI149:
 343:Drivers/lvgl/src/misc/lv_txt.c ****                             lv_text_flag_t flag)
 2199              		.loc 1 343 12 view .LVU703
 2200              	.LBB150:
 346:Drivers/lvgl/src/misc/lv_txt.c ****     if(font == NULL) return 0;
 2201              		.loc 1 346 5 view .LVU704
 347:Drivers/lvgl/src/misc/lv_txt.c ****     if(txt[0] == '\0') return 0;
 2202              		.loc 1 347 5 view .LVU705
 348:Drivers/lvgl/src/misc/lv_txt.c **** 
 2203              		.loc 1 348 5 view .LVU706
 348:Drivers/lvgl/src/misc/lv_txt.c **** 
 2204              		.loc 1 348 7 is_stmt 0 view .LVU707
 2205 0086 3378     		ldrb	r3, [r6]	@ zero_extendqisi2
 2206 0088 0BB3     		cbz	r3, .L211
 348:Drivers/lvgl/src/misc/lv_txt.c **** 
 2207              		.loc 1 348 7 view .LVU708
 2208 008a 3046     		mov	r0, r6
 2209 008c 5346     		mov	r3, r10
 2210 008e 4246     		mov	r2, r8
 2211 0090 CDF800B0 		str	fp, [sp]
 2212 0094 FFF7FEFF 		bl	lv_txt_get_width.part.0
 2213              	.LVL194:
 348:Drivers/lvgl/src/misc/lv_txt.c **** 
 2214              		.loc 1 348 7 view .LVU709
 2215              	.LBE150:
 2216              	.LBE149:
 123:Drivers/lvgl/src/misc/lv_txt.c ****         line_start  = new_line_start;
 2217              		.loc 1 123 9 is_stmt 1 view .LVU710
 123:Drivers/lvgl/src/misc/lv_txt.c ****         line_start  = new_line_start;
 2218              		.loc 1 123 23 is_stmt 0 view .LVU711
 2219 0098 B4F90030 		ldrsh	r3, [r4]
 2220 009c 9842     		cmp	r0, r3
 2221 009e B8BF     		it	lt
 2222 00a0 1846     		movlt	r0, r3
 2223              	.LVL195:
 123:Drivers/lvgl/src/misc/lv_txt.c ****         line_start  = new_line_start;
 2224              		.loc 1 123 21 view .LVU712
 2225 00a2 2080     		strh	r0, [r4]	@ movhi
 124:Drivers/lvgl/src/misc/lv_txt.c ****     }
 2226              		.loc 1 124 9 is_stmt 1 view .LVU713
 2227              	.LVL196:
 124:Drivers/lvgl/src/misc/lv_txt.c ****     }
 2228              		.loc 1 124 9 is_stmt 0 view .LVU714
 2229              	.LBE144:
 107:Drivers/lvgl/src/misc/lv_txt.c ****         new_line_start += _lv_txt_get_next_line(&text[line_start], font, letter_space, max_width, N
 2230              		.loc 1 107 28 is_stmt 1 view .LVU715
 107:Drivers/lvgl/src/misc/lv_txt.c ****         new_line_start += _lv_txt_get_next_line(&text[line_start], font, letter_space, max_width, N
 2231              		.loc 1 107 15 is_stmt 0 view .LVU716
ARM GAS  /var/folders/0z/tsy30v1j4xl4_7kw94k978ww0000gn/T//ccd8hcN4.s 			page 69


 2232 00a4 7B5D     		ldrb	r3, [r7, r5]	@ zero_extendqisi2
 2233 00a6 7E19     		adds	r6, r7, r5
 2234 00a8 3246     		mov	r2, r6
 107:Drivers/lvgl/src/misc/lv_txt.c ****         new_line_start += _lv_txt_get_next_line(&text[line_start], font, letter_space, max_width, N
 2235              		.loc 1 107 28 view .LVU717
 2236 00aa 002B     		cmp	r3, #0
 2237 00ac D4D1     		bne	.L214
 2238              	.L213:
 128:Drivers/lvgl/src/misc/lv_txt.c ****         size_res->y += letter_height + line_space;
 2239              		.loc 1 128 5 is_stmt 1 view .LVU718
 128:Drivers/lvgl/src/misc/lv_txt.c ****         size_res->y += letter_height + line_space;
 2240              		.loc 1 128 7 is_stmt 0 view .LVU719
 2241 00ae 2DB1     		cbz	r5, .L218
 128:Drivers/lvgl/src/misc/lv_txt.c ****         size_res->y += letter_height + line_space;
 2242              		.loc 1 128 34 discriminator 1 view .LVU720
 2243 00b0 12F8013C 		ldrb	r3, [r2, #-1]	@ zero_extendqisi2
 128:Drivers/lvgl/src/misc/lv_txt.c ****         size_res->y += letter_height + line_space;
 2244              		.loc 1 128 26 discriminator 1 view .LVU721
 2245 00b4 0A2B     		cmp	r3, #10
 2246 00b6 31D0     		beq	.L217
 128:Drivers/lvgl/src/misc/lv_txt.c ****         size_res->y += letter_height + line_space;
 2247              		.loc 1 128 59 discriminator 2 view .LVU722
 2248 00b8 0D2B     		cmp	r3, #13
 2249 00ba 2FD0     		beq	.L217
 2250              	.L218:
 133:Drivers/lvgl/src/misc/lv_txt.c ****         size_res->y = letter_height;
 2251              		.loc 1 133 5 is_stmt 1 view .LVU723
 129:Drivers/lvgl/src/misc/lv_txt.c ****     }
 2252              		.loc 1 129 21 is_stmt 0 view .LVU724
 2253 00bc B4F90230 		ldrsh	r3, [r4, #2]
 133:Drivers/lvgl/src/misc/lv_txt.c ****         size_res->y = letter_height;
 2254              		.loc 1 133 7 view .LVU725
 2255 00c0 3BB3     		cbz	r3, .L219
 2256              	.L240:
 136:Drivers/lvgl/src/misc/lv_txt.c **** }
 2257              		.loc 1 136 9 is_stmt 1 view .LVU726
 136:Drivers/lvgl/src/misc/lv_txt.c **** }
 2258              		.loc 1 136 21 is_stmt 0 view .LVU727
 2259 00c2 079A     		ldr	r2, [sp, #28]
 2260 00c4 9B1A     		subs	r3, r3, r2
 2261 00c6 6380     		strh	r3, [r4, #2]	@ movhi
 2262              	.LVL197:
 2263              	.L198:
 137:Drivers/lvgl/src/misc/lv_txt.c **** 
 2264              		.loc 1 137 1 view .LVU728
 2265 00c8 09B0     		add	sp, sp, #36
 2266              		.cfi_remember_state
 2267              		.cfi_def_cfa_offset 36
 2268              		@ sp needed
 2269 00ca BDE8F08F 		pop	{r4, r5, r6, r7, r8, r9, r10, fp, pc}
 2270              	.LVL198:
 2271              	.L211:
 2272              		.cfi_restore_state
 2273              	.LBB152:
 123:Drivers/lvgl/src/misc/lv_txt.c ****         line_start  = new_line_start;
 2274              		.loc 1 123 9 is_stmt 1 view .LVU729
 123:Drivers/lvgl/src/misc/lv_txt.c ****         line_start  = new_line_start;
ARM GAS  /var/folders/0z/tsy30v1j4xl4_7kw94k978ww0000gn/T//ccd8hcN4.s 			page 70


 2275              		.loc 1 123 23 is_stmt 0 view .LVU730
 2276 00ce B4F90030 		ldrsh	r3, [r4]
 2277 00d2 23EAE373 		bic	r3, r3, r3, asr #31
 123:Drivers/lvgl/src/misc/lv_txt.c ****         line_start  = new_line_start;
 2278              		.loc 1 123 21 view .LVU731
 2279 00d6 2380     		strh	r3, [r4]	@ movhi
 124:Drivers/lvgl/src/misc/lv_txt.c ****     }
 2280              		.loc 1 124 9 is_stmt 1 view .LVU732
 2281              	.LVL199:
 124:Drivers/lvgl/src/misc/lv_txt.c ****     }
 2282              		.loc 1 124 9 is_stmt 0 view .LVU733
 2283              	.LBE152:
 107:Drivers/lvgl/src/misc/lv_txt.c ****         new_line_start += _lv_txt_get_next_line(&text[line_start], font, letter_space, max_width, N
 2284              		.loc 1 107 28 is_stmt 1 view .LVU734
 107:Drivers/lvgl/src/misc/lv_txt.c ****         new_line_start += _lv_txt_get_next_line(&text[line_start], font, letter_space, max_width, N
 2285              		.loc 1 107 15 is_stmt 0 view .LVU735
 2286 00d8 7B5D     		ldrb	r3, [r7, r5]	@ zero_extendqisi2
 2287 00da 7E19     		adds	r6, r7, r5
 2288 00dc 3246     		mov	r2, r6
 107:Drivers/lvgl/src/misc/lv_txt.c ****         new_line_start += _lv_txt_get_next_line(&text[line_start], font, letter_space, max_width, N
 2289              		.loc 1 107 28 view .LVU736
 2290 00de 002B     		cmp	r3, #0
 2291 00e0 E5D0     		beq	.L213
 2292              	.LBB153:
 108:Drivers/lvgl/src/misc/lv_txt.c **** 
 2293              		.loc 1 108 9 is_stmt 1 view .LVU737
 2294              	.LVL200:
 2295              	.LBB151:
 279:Drivers/lvgl/src/misc/lv_txt.c ****                                lv_coord_t letter_space, lv_coord_t max_width,
 2296              		.loc 1 279 10 view .LVU738
 2297              	.LBB148:
 283:Drivers/lvgl/src/misc/lv_txt.c **** 
 2298              		.loc 1 283 5 view .LVU739
 285:Drivers/lvgl/src/misc/lv_txt.c ****     if(txt[0] == '\0') return 0;
 2299              		.loc 1 285 5 view .LVU740
 286:Drivers/lvgl/src/misc/lv_txt.c ****     if(font == NULL) return 0;
 2300              		.loc 1 286 5 view .LVU741
 287:Drivers/lvgl/src/misc/lv_txt.c **** 
 2301              		.loc 1 287 5 view .LVU742
 289:Drivers/lvgl/src/misc/lv_txt.c **** 
 2302              		.loc 1 289 5 view .LVU743
 293:Drivers/lvgl/src/misc/lv_txt.c ****         uint32_t i;
 2303              		.loc 1 293 5 view .LVU744
 293:Drivers/lvgl/src/misc/lv_txt.c ****         uint32_t i;
 2304              		.loc 1 293 7 is_stmt 0 view .LVU745
 2305 00e2 049A     		ldr	r2, [sp, #16]
 2306              	.LVL201:
 293:Drivers/lvgl/src/misc/lv_txt.c ****         uint32_t i;
 2307              		.loc 1 293 7 view .LVU746
 2308 00e4 002A     		cmp	r2, #0
 2309 00e6 BAD0     		beq	.L204
 2310              	.LVL202:
 2311              	.L238:
 2312              	.LBB147:
 295:Drivers/lvgl/src/misc/lv_txt.c ****             /*Just find the new line chars or string ends by incrementing `i`*/
 2313              		.loc 1 295 53 is_stmt 1 view .LVU747
 2314 00e8 0A2B     		cmp	r3, #10
ARM GAS  /var/folders/0z/tsy30v1j4xl4_7kw94k978ww0000gn/T//ccd8hcN4.s 			page 71


 2315 00ea 08BF     		it	eq
 2316 00ec 0121     		moveq	r1, #1
 2317 00ee BFD0     		beq	.L210
 2318 00f0 3246     		mov	r2, r6
 295:Drivers/lvgl/src/misc/lv_txt.c ****             /*Just find the new line chars or string ends by incrementing `i`*/
 2319              		.loc 1 295 15 is_stmt 0 view .LVU748
 2320 00f2 0021     		movs	r1, #0
 2321 00f4 06E0     		b	.L207
 2322              	.LVL203:
 2323              	.L208:
 295:Drivers/lvgl/src/misc/lv_txt.c ****             /*Just find the new line chars or string ends by incrementing `i`*/
 2324              		.loc 1 295 53 view .LVU749
 2325 00f6 002B     		cmp	r3, #0
 2326 00f8 BAD0     		beq	.L210
 295:Drivers/lvgl/src/misc/lv_txt.c ****             /*Just find the new line chars or string ends by incrementing `i`*/
 2327              		.loc 1 295 23 view .LVU750
 2328 00fa 12F8013F 		ldrb	r3, [r2, #1]!	@ zero_extendqisi2
 295:Drivers/lvgl/src/misc/lv_txt.c ****             /*Just find the new line chars or string ends by incrementing `i`*/
 2329              		.loc 1 295 53 view .LVU751
 2330 00fe 0A2B     		cmp	r3, #10
 2331 0100 05D0     		beq	.L239
 295:Drivers/lvgl/src/misc/lv_txt.c ****             /*Just find the new line chars or string ends by incrementing `i`*/
 2332              		.loc 1 295 73 view .LVU752
 2333 0102 0146     		mov	r1, r0
 2334              	.LVL204:
 2335              	.L207:
 297:Drivers/lvgl/src/misc/lv_txt.c ****         if(txt[i] != '\0') i++;    /*To go beyond `\n`*/
 2336              		.loc 1 297 9 is_stmt 1 view .LVU753
 295:Drivers/lvgl/src/misc/lv_txt.c ****             /*Just find the new line chars or string ends by incrementing `i`*/
 2337              		.loc 1 295 73 view .LVU754
 295:Drivers/lvgl/src/misc/lv_txt.c ****             /*Just find the new line chars or string ends by incrementing `i`*/
 2338              		.loc 1 295 35 is_stmt 0 view .LVU755
 2339 0104 0D2B     		cmp	r3, #13
 295:Drivers/lvgl/src/misc/lv_txt.c ****             /*Just find the new line chars or string ends by incrementing `i`*/
 2340              		.loc 1 295 73 view .LVU756
 2341 0106 01F10100 		add	r0, r1, #1
 2342              	.LVL205:
 295:Drivers/lvgl/src/misc/lv_txt.c ****             /*Just find the new line chars or string ends by incrementing `i`*/
 2343              		.loc 1 295 53 is_stmt 1 view .LVU757
 295:Drivers/lvgl/src/misc/lv_txt.c ****             /*Just find the new line chars or string ends by incrementing `i`*/
 2344              		.loc 1 295 35 is_stmt 0 view .LVU758
 2345 010a F4D1     		bne	.L208
 2346 010c AFE7     		b	.L236
 2347              	.L239:
 298:Drivers/lvgl/src/misc/lv_txt.c ****         if(used_width) *used_width = -1;
 2348              		.loc 1 298 29 view .LVU759
 2349 010e 0231     		adds	r1, r1, #2
 2350 0110 AEE7     		b	.L210
 2351              	.LVL206:
 2352              	.L219:
 298:Drivers/lvgl/src/misc/lv_txt.c ****         if(used_width) *used_width = -1;
 2353              		.loc 1 298 29 view .LVU760
 2354              	.LBE147:
 2355              	.LBE148:
 2356              	.LBE151:
 2357              	.LBE153:
 134:Drivers/lvgl/src/misc/lv_txt.c ****     else
ARM GAS  /var/folders/0z/tsy30v1j4xl4_7kw94k978ww0000gn/T//ccd8hcN4.s 			page 72


 2358              		.loc 1 134 9 is_stmt 1 view .LVU761
 134:Drivers/lvgl/src/misc/lv_txt.c ****     else
 2359              		.loc 1 134 21 is_stmt 0 view .LVU762
 2360 0112 069B     		ldr	r3, [sp, #24]
 2361 0114 6380     		strh	r3, [r4, #2]	@ movhi
 137:Drivers/lvgl/src/misc/lv_txt.c **** 
 2362              		.loc 1 137 1 view .LVU763
 2363 0116 09B0     		add	sp, sp, #36
 2364              		.cfi_remember_state
 2365              		.cfi_def_cfa_offset 36
 2366              		@ sp needed
 2367 0118 BDE8F08F 		pop	{r4, r5, r6, r7, r8, r9, r10, fp, pc}
 2368              	.LVL207:
 2369              	.L217:
 2370              		.cfi_restore_state
 129:Drivers/lvgl/src/misc/lv_txt.c ****     }
 2371              		.loc 1 129 9 is_stmt 1 view .LVU764
 129:Drivers/lvgl/src/misc/lv_txt.c ****     }
 2372              		.loc 1 129 21 is_stmt 0 view .LVU765
 2373 011c 6388     		ldrh	r3, [r4, #2]
 2374 011e 039A     		ldr	r2, [sp, #12]
 2375 0120 1A44     		add	r2, r2, r3
 2376 0122 13B2     		sxth	r3, r2
 133:Drivers/lvgl/src/misc/lv_txt.c ****         size_res->y = letter_height;
 2377              		.loc 1 133 5 is_stmt 1 view .LVU766
 133:Drivers/lvgl/src/misc/lv_txt.c ****         size_res->y = letter_height;
 2378              		.loc 1 133 7 is_stmt 0 view .LVU767
 2379 0124 002B     		cmp	r3, #0
 2380 0126 CCD1     		bne	.L240
 2381 0128 F3E7     		b	.L219
 2382              		.cfi_endproc
 2383              	.LFE55:
 2385 012a 00BF     		.section	.text._lv_txt_get_next_line,"ax",%progbits
 2386              		.align	1
 2387              		.p2align 2,,3
 2388              		.global	_lv_txt_get_next_line
 2389              		.syntax unified
 2390              		.thumb
 2391              		.thumb_func
 2393              	_lv_txt_get_next_line:
 2394              	.LVL208:
 2395              	.LFB57:
 282:Drivers/lvgl/src/misc/lv_txt.c ****     if(used_width) *used_width = 0;
 2396              		.loc 1 282 1 is_stmt 1 view -0
 2397              		.cfi_startproc
 2398              		@ args = 8, pretend = 0, frame = 0
 2399              		@ frame_needed = 0, uses_anonymous_args = 0
 2400              		@ link register save eliminated.
 283:Drivers/lvgl/src/misc/lv_txt.c **** 
 2401              		.loc 1 283 5 view .LVU769
 282:Drivers/lvgl/src/misc/lv_txt.c ****     if(used_width) *used_width = 0;
 2402              		.loc 1 282 1 is_stmt 0 view .LVU770
 2403 0000 70B4     		push	{r4, r5, r6}
 2404              		.cfi_def_cfa_offset 12
 2405              		.cfi_offset 4, -12
 2406              		.cfi_offset 5, -8
 2407              		.cfi_offset 6, -4
ARM GAS  /var/folders/0z/tsy30v1j4xl4_7kw94k978ww0000gn/T//ccd8hcN4.s 			page 73


 282:Drivers/lvgl/src/misc/lv_txt.c ****     if(used_width) *used_width = 0;
 2408              		.loc 1 282 1 view .LVU771
 2409 0002 039D     		ldr	r5, [sp, #12]
 2410 0004 9DF81060 		ldrb	r6, [sp, #16]	@ zero_extendqisi2
 283:Drivers/lvgl/src/misc/lv_txt.c **** 
 2411              		.loc 1 283 7 view .LVU772
 2412 0008 0DB1     		cbz	r5, .L242
 283:Drivers/lvgl/src/misc/lv_txt.c **** 
 2413              		.loc 1 283 20 is_stmt 1 discriminator 1 view .LVU773
 283:Drivers/lvgl/src/misc/lv_txt.c **** 
 2414              		.loc 1 283 32 is_stmt 0 discriminator 1 view .LVU774
 2415 000a 0024     		movs	r4, #0
 2416 000c 2C80     		strh	r4, [r5]	@ movhi
 2417              	.L242:
 285:Drivers/lvgl/src/misc/lv_txt.c ****     if(txt[0] == '\0') return 0;
 2418              		.loc 1 285 5 is_stmt 1 view .LVU775
 285:Drivers/lvgl/src/misc/lv_txt.c ****     if(txt[0] == '\0') return 0;
 2419              		.loc 1 285 7 is_stmt 0 view .LVU776
 2420 000e 58B1     		cbz	r0, .L241
 286:Drivers/lvgl/src/misc/lv_txt.c ****     if(font == NULL) return 0;
 2421              		.loc 1 286 5 is_stmt 1 view .LVU777
 286:Drivers/lvgl/src/misc/lv_txt.c ****     if(font == NULL) return 0;
 2422              		.loc 1 286 11 is_stmt 0 view .LVU778
 2423 0010 0478     		ldrb	r4, [r0]	@ zero_extendqisi2
 286:Drivers/lvgl/src/misc/lv_txt.c ****     if(font == NULL) return 0;
 2424              		.loc 1 286 7 view .LVU779
 2425 0012 44B1     		cbz	r4, .L252
 287:Drivers/lvgl/src/misc/lv_txt.c **** 
 2426              		.loc 1 287 5 is_stmt 1 view .LVU780
 287:Drivers/lvgl/src/misc/lv_txt.c **** 
 2427              		.loc 1 287 7 is_stmt 0 view .LVU781
 2428 0014 51B1     		cbz	r1, .L253
 289:Drivers/lvgl/src/misc/lv_txt.c **** 
 2429              		.loc 1 289 5 is_stmt 1 view .LVU782
 2430              	.LVL209:
 293:Drivers/lvgl/src/misc/lv_txt.c ****         uint32_t i;
 2431              		.loc 1 293 5 view .LVU783
 293:Drivers/lvgl/src/misc/lv_txt.c ****         uint32_t i;
 2432              		.loc 1 293 7 is_stmt 0 view .LVU784
 2433 0016 16F0060F 		tst	r6, #6
 2434 001a 09D1     		bne	.L262
 2435 001c CDE90356 		strd	r5, r6, [sp, #12]
 2436              	.LVL210:
 341:Drivers/lvgl/src/misc/lv_txt.c **** 
 2437              		.loc 1 341 1 view .LVU785
 2438 0020 70BC     		pop	{r4, r5, r6}
 2439              		.cfi_remember_state
 2440              		.cfi_restore 6
 2441              		.cfi_restore 5
 2442              		.cfi_restore 4
 2443              		.cfi_def_cfa_offset 0
 2444 0022 FFF7FEBF 		b	_lv_txt_get_next_line.part.0
 2445              	.LVL211:
 2446              	.L252:
 2447              		.cfi_restore_state
 285:Drivers/lvgl/src/misc/lv_txt.c ****     if(txt[0] == '\0') return 0;
 2448              		.loc 1 285 28 view .LVU786
ARM GAS  /var/folders/0z/tsy30v1j4xl4_7kw94k978ww0000gn/T//ccd8hcN4.s 			page 74


 2449 0026 2046     		mov	r0, r4
 2450              	.LVL212:
 2451              	.L241:
 341:Drivers/lvgl/src/misc/lv_txt.c **** 
 2452              		.loc 1 341 1 view .LVU787
 2453 0028 70BC     		pop	{r4, r5, r6}
 2454              		.cfi_remember_state
 2455              		.cfi_restore 6
 2456              		.cfi_restore 5
 2457              		.cfi_restore 4
 2458              		.cfi_def_cfa_offset 0
 2459              	.LVL213:
 341:Drivers/lvgl/src/misc/lv_txt.c **** 
 2460              		.loc 1 341 1 view .LVU788
 2461 002a 7047     		bx	lr
 2462              	.LVL214:
 2463              	.L253:
 2464              		.cfi_restore_state
 285:Drivers/lvgl/src/misc/lv_txt.c ****     if(txt[0] == '\0') return 0;
 2465              		.loc 1 285 28 view .LVU789
 2466 002c 0846     		mov	r0, r1
 2467              	.LVL215:
 285:Drivers/lvgl/src/misc/lv_txt.c ****     if(txt[0] == '\0') return 0;
 2468              		.loc 1 285 28 view .LVU790
 2469 002e FBE7     		b	.L241
 2470              	.LVL216:
 2471              	.L262:
 2472              	.LBB154:
 295:Drivers/lvgl/src/misc/lv_txt.c ****             /*Just find the new line chars or string ends by incrementing `i`*/
 2473              		.loc 1 295 53 is_stmt 1 view .LVU791
 2474 0030 0A2C     		cmp	r4, #10
 2475 0032 08BF     		it	eq
 2476 0034 0120     		moveq	r0, #1
 2477              	.LVL217:
 295:Drivers/lvgl/src/misc/lv_txt.c ****             /*Just find the new line chars or string ends by incrementing `i`*/
 2478              		.loc 1 295 53 is_stmt 0 view .LVU792
 2479 0036 0DD0     		beq	.L250
 2480 0038 0346     		mov	r3, r0
 2481              	.LVL218:
 295:Drivers/lvgl/src/misc/lv_txt.c ****             /*Just find the new line chars or string ends by incrementing `i`*/
 2482              		.loc 1 295 15 view .LVU793
 2483 003a 0020     		movs	r0, #0
 2484 003c 05E0     		b	.L247
 2485              	.LVL219:
 2486              	.L248:
 295:Drivers/lvgl/src/misc/lv_txt.c ****             /*Just find the new line chars or string ends by incrementing `i`*/
 2487              		.loc 1 295 53 discriminator 4 view .LVU794
 2488 003e 4CB1     		cbz	r4, .L250
 295:Drivers/lvgl/src/misc/lv_txt.c ****             /*Just find the new line chars or string ends by incrementing `i`*/
 2489              		.loc 1 295 23 discriminator 5 view .LVU795
 2490 0040 13F8014F 		ldrb	r4, [r3, #1]!	@ zero_extendqisi2
 295:Drivers/lvgl/src/misc/lv_txt.c ****             /*Just find the new line chars or string ends by incrementing `i`*/
 2491              		.loc 1 295 53 discriminator 5 view .LVU796
 2492 0044 0A2C     		cmp	r4, #10
 2493 0046 0CD0     		beq	.L263
 295:Drivers/lvgl/src/misc/lv_txt.c ****             /*Just find the new line chars or string ends by incrementing `i`*/
 2494              		.loc 1 295 73 view .LVU797
ARM GAS  /var/folders/0z/tsy30v1j4xl4_7kw94k978ww0000gn/T//ccd8hcN4.s 			page 75


 2495 0048 1046     		mov	r0, r2
 2496              	.LVL220:
 2497              	.L247:
 297:Drivers/lvgl/src/misc/lv_txt.c ****         if(txt[i] != '\0') i++;    /*To go beyond `\n`*/
 2498              		.loc 1 297 9 is_stmt 1 discriminator 3 view .LVU798
 295:Drivers/lvgl/src/misc/lv_txt.c ****             /*Just find the new line chars or string ends by incrementing `i`*/
 2499              		.loc 1 295 73 discriminator 3 view .LVU799
 295:Drivers/lvgl/src/misc/lv_txt.c ****             /*Just find the new line chars or string ends by incrementing `i`*/
 2500              		.loc 1 295 35 is_stmt 0 discriminator 3 view .LVU800
 2501 004a 0D2C     		cmp	r4, #13
 295:Drivers/lvgl/src/misc/lv_txt.c ****             /*Just find the new line chars or string ends by incrementing `i`*/
 2502              		.loc 1 295 73 discriminator 3 view .LVU801
 2503 004c 00F10102 		add	r2, r0, #1
 2504              	.LVL221:
 295:Drivers/lvgl/src/misc/lv_txt.c ****             /*Just find the new line chars or string ends by incrementing `i`*/
 2505              		.loc 1 295 53 is_stmt 1 discriminator 3 view .LVU802
 295:Drivers/lvgl/src/misc/lv_txt.c ****             /*Just find the new line chars or string ends by incrementing `i`*/
 2506              		.loc 1 295 35 is_stmt 0 discriminator 3 view .LVU803
 2507 0050 F5D1     		bne	.L248
 295:Drivers/lvgl/src/misc/lv_txt.c ****             /*Just find the new line chars or string ends by incrementing `i`*/
 2508              		.loc 1 295 73 view .LVU804
 2509 0052 1046     		mov	r0, r2
 2510              	.LVL222:
 2511              	.L250:
 299:Drivers/lvgl/src/misc/lv_txt.c ****         return i;
 2512              		.loc 1 299 9 is_stmt 1 view .LVU805
 299:Drivers/lvgl/src/misc/lv_txt.c ****         return i;
 2513              		.loc 1 299 11 is_stmt 0 view .LVU806
 2514 0054 002D     		cmp	r5, #0
 2515 0056 E7D0     		beq	.L241
 299:Drivers/lvgl/src/misc/lv_txt.c ****         return i;
 2516              		.loc 1 299 24 is_stmt 1 discriminator 1 view .LVU807
 299:Drivers/lvgl/src/misc/lv_txt.c ****         return i;
 2517              		.loc 1 299 36 is_stmt 0 discriminator 1 view .LVU808
 2518 0058 4FF6FF73 		movw	r3, #65535
 2519 005c 2B80     		strh	r3, [r5]	@ movhi
 2520              	.LBE154:
 341:Drivers/lvgl/src/misc/lv_txt.c **** 
 2521              		.loc 1 341 1 discriminator 1 view .LVU809
 2522 005e 70BC     		pop	{r4, r5, r6}
 2523              		.cfi_remember_state
 2524              		.cfi_restore 6
 2525              		.cfi_restore 5
 2526              		.cfi_restore 4
 2527              		.cfi_def_cfa_offset 0
 2528              	.LVL223:
 341:Drivers/lvgl/src/misc/lv_txt.c **** 
 2529              		.loc 1 341 1 discriminator 1 view .LVU810
 2530 0060 7047     		bx	lr
 2531              	.LVL224:
 2532              	.L263:
 2533              		.cfi_restore_state
 2534              	.LBB155:
 298:Drivers/lvgl/src/misc/lv_txt.c ****         if(used_width) *used_width = -1;
 2535              		.loc 1 298 29 view .LVU811
 2536 0062 0230     		adds	r0, r0, #2
 2537 0064 F6E7     		b	.L250
ARM GAS  /var/folders/0z/tsy30v1j4xl4_7kw94k978ww0000gn/T//ccd8hcN4.s 			page 76


 2538              	.LBE155:
 2539              		.cfi_endproc
 2540              	.LFE57:
 2542 0066 00BF     		.section	.text.lv_txt_get_width,"ax",%progbits
 2543              		.align	1
 2544              		.p2align 2,,3
 2545              		.global	lv_txt_get_width
 2546              		.syntax unified
 2547              		.thumb
 2548              		.thumb_func
 2550              	lv_txt_get_width:
 2551              	.LVL225:
 2552              	.LFB58:
 345:Drivers/lvgl/src/misc/lv_txt.c ****     if(txt == NULL) return 0;
 2553              		.loc 1 345 1 is_stmt 1 view -0
 2554              		.cfi_startproc
 2555              		@ args = 4, pretend = 0, frame = 0
 2556              		@ frame_needed = 0, uses_anonymous_args = 0
 2557              		@ link register save eliminated.
 346:Drivers/lvgl/src/misc/lv_txt.c ****     if(font == NULL) return 0;
 2558              		.loc 1 346 5 view .LVU813
 345:Drivers/lvgl/src/misc/lv_txt.c ****     if(txt == NULL) return 0;
 2559              		.loc 1 345 1 is_stmt 0 view .LVU814
 2560 0000 30B4     		push	{r4, r5}
 2561              		.cfi_def_cfa_offset 8
 2562              		.cfi_offset 4, -8
 2563              		.cfi_offset 5, -4
 345:Drivers/lvgl/src/misc/lv_txt.c ****     if(txt == NULL) return 0;
 2564              		.loc 1 345 1 view .LVU815
 2565 0002 9DF80850 		ldrb	r5, [sp, #8]	@ zero_extendqisi2
 346:Drivers/lvgl/src/misc/lv_txt.c ****     if(font == NULL) return 0;
 2566              		.loc 1 346 7 view .LVU816
 2567 0006 30B1     		cbz	r0, .L265
 347:Drivers/lvgl/src/misc/lv_txt.c ****     if(txt[0] == '\0') return 0;
 2568              		.loc 1 347 5 is_stmt 1 view .LVU817
 347:Drivers/lvgl/src/misc/lv_txt.c ****     if(txt[0] == '\0') return 0;
 2569              		.loc 1 347 7 is_stmt 0 view .LVU818
 2570 0008 2AB1     		cbz	r2, .L265
 348:Drivers/lvgl/src/misc/lv_txt.c **** 
 2571              		.loc 1 348 5 is_stmt 1 view .LVU819
 348:Drivers/lvgl/src/misc/lv_txt.c **** 
 2572              		.loc 1 348 7 is_stmt 0 view .LVU820
 2573 000a 0478     		ldrb	r4, [r0]	@ zero_extendqisi2
 2574 000c 1CB1     		cbz	r4, .L265
 2575 000e 0295     		str	r5, [sp, #8]
 2576              	.LVL226:
 380:Drivers/lvgl/src/misc/lv_txt.c **** 
 2577              		.loc 1 380 1 view .LVU821
 2578 0010 30BC     		pop	{r4, r5}
 2579              		.cfi_remember_state
 2580              		.cfi_restore 5
 2581              		.cfi_restore 4
 2582              		.cfi_def_cfa_offset 0
 2583 0012 FFF7FEBF 		b	lv_txt_get_width.part.0
 2584              	.LVL227:
 2585              	.L265:
 2586              		.cfi_restore_state
ARM GAS  /var/folders/0z/tsy30v1j4xl4_7kw94k978ww0000gn/T//ccd8hcN4.s 			page 77


 380:Drivers/lvgl/src/misc/lv_txt.c **** 
 2587              		.loc 1 380 1 view .LVU822
 2588 0016 0020     		movs	r0, #0
 2589              	.LVL228:
 380:Drivers/lvgl/src/misc/lv_txt.c **** 
 2590              		.loc 1 380 1 view .LVU823
 2591 0018 30BC     		pop	{r4, r5}
 2592              		.cfi_restore 5
 2593              		.cfi_restore 4
 2594              		.cfi_def_cfa_offset 0
 2595              	.LVL229:
 380:Drivers/lvgl/src/misc/lv_txt.c **** 
 2596              		.loc 1 380 1 view .LVU824
 2597 001a 7047     		bx	lr
 2598              		.cfi_endproc
 2599              	.LFE58:
 2601              		.section	.text._lv_txt_is_cmd,"ax",%progbits
 2602              		.align	1
 2603              		.p2align 2,,3
 2604              		.global	_lv_txt_is_cmd
 2605              		.syntax unified
 2606              		.thumb
 2607              		.thumb_func
 2609              	_lv_txt_is_cmd:
 2610              	.LVL230:
 2611              	.LFB59:
 383:Drivers/lvgl/src/misc/lv_txt.c ****     bool ret = false;
 2612              		.loc 1 383 1 is_stmt 1 view -0
 2613              		.cfi_startproc
 2614              		@ args = 0, pretend = 0, frame = 0
 2615              		@ frame_needed = 0, uses_anonymous_args = 0
 2616              		@ link register save eliminated.
 384:Drivers/lvgl/src/misc/lv_txt.c **** 
 2617              		.loc 1 384 5 view .LVU826
 386:Drivers/lvgl/src/misc/lv_txt.c ****         if(*state == LV_TEXT_CMD_STATE_WAIT) { /*Start char*/
 2618              		.loc 1 386 5 view .LVU827
 386:Drivers/lvgl/src/misc/lv_txt.c ****         if(*state == LV_TEXT_CMD_STATE_WAIT) { /*Start char*/
 2619              		.loc 1 386 7 is_stmt 0 view .LVU828
 2620 0000 2329     		cmp	r1, #35
 387:Drivers/lvgl/src/misc/lv_txt.c ****             *state = LV_TEXT_CMD_STATE_PAR;
 2621              		.loc 1 387 12 view .LVU829
 2622 0002 0378     		ldrb	r3, [r0]	@ zero_extendqisi2
 386:Drivers/lvgl/src/misc/lv_txt.c ****         if(*state == LV_TEXT_CMD_STATE_WAIT) { /*Start char*/
 2623              		.loc 1 386 7 view .LVU830
 2624 0004 03D0     		beq	.L283
 403:Drivers/lvgl/src/misc/lv_txt.c ****         if(c == ' ') {
 2625              		.loc 1 403 5 is_stmt 1 view .LVU831
 403:Drivers/lvgl/src/misc/lv_txt.c ****         if(c == ' ') {
 2626              		.loc 1 403 7 is_stmt 0 view .LVU832
 2627 0006 012B     		cmp	r3, #1
 2628 0008 0ED0     		beq	.L284
 2629              	.L279:
 384:Drivers/lvgl/src/misc/lv_txt.c **** 
 2630              		.loc 1 384 10 view .LVU833
 2631 000a 0020     		movs	r0, #0
 2632              	.LVL231:
 403:Drivers/lvgl/src/misc/lv_txt.c ****         if(c == ' ') {
ARM GAS  /var/folders/0z/tsy30v1j4xl4_7kw94k978ww0000gn/T//ccd8hcN4.s 			page 78


 2633              		.loc 1 403 5 is_stmt 1 view .LVU834
 410:Drivers/lvgl/src/misc/lv_txt.c **** }
 2634              		.loc 1 410 5 view .LVU835
 411:Drivers/lvgl/src/misc/lv_txt.c **** 
 2635              		.loc 1 411 1 is_stmt 0 view .LVU836
 2636 000c 7047     		bx	lr
 2637              	.LVL232:
 2638              	.L283:
 387:Drivers/lvgl/src/misc/lv_txt.c ****             *state = LV_TEXT_CMD_STATE_PAR;
 2639              		.loc 1 387 9 is_stmt 1 view .LVU837
 387:Drivers/lvgl/src/misc/lv_txt.c ****             *state = LV_TEXT_CMD_STATE_PAR;
 2640              		.loc 1 387 11 is_stmt 0 view .LVU838
 2641 000e 3BB1     		cbz	r3, .L285
 392:Drivers/lvgl/src/misc/lv_txt.c ****             *state = LV_TEXT_CMD_STATE_WAIT;
 2642              		.loc 1 392 14 is_stmt 1 view .LVU839
 392:Drivers/lvgl/src/misc/lv_txt.c ****             *state = LV_TEXT_CMD_STATE_WAIT;
 2643              		.loc 1 392 16 is_stmt 0 view .LVU840
 2644 0010 012B     		cmp	r3, #1
 2645 0012 0FD0     		beq	.L286
 396:Drivers/lvgl/src/misc/lv_txt.c ****             *state = LV_TEXT_CMD_STATE_WAIT;
 2646              		.loc 1 396 14 is_stmt 1 view .LVU841
 396:Drivers/lvgl/src/misc/lv_txt.c ****             *state = LV_TEXT_CMD_STATE_WAIT;
 2647              		.loc 1 396 16 is_stmt 0 view .LVU842
 2648 0014 022B     		cmp	r3, #2
 2649 0016 F8D1     		bne	.L279
 397:Drivers/lvgl/src/misc/lv_txt.c ****             ret    = true;
 2650              		.loc 1 397 13 is_stmt 1 view .LVU843
 397:Drivers/lvgl/src/misc/lv_txt.c ****             ret    = true;
 2651              		.loc 1 397 20 is_stmt 0 view .LVU844
 2652 0018 0023     		movs	r3, #0
 2653 001a 0370     		strb	r3, [r0]
 398:Drivers/lvgl/src/misc/lv_txt.c ****         }
 2654              		.loc 1 398 13 is_stmt 1 view .LVU845
 2655              	.LVL233:
 398:Drivers/lvgl/src/misc/lv_txt.c ****         }
 2656              		.loc 1 398 20 is_stmt 0 view .LVU846
 2657 001c 0120     		movs	r0, #1
 2658              	.LVL234:
 398:Drivers/lvgl/src/misc/lv_txt.c ****         }
 2659              		.loc 1 398 20 view .LVU847
 2660 001e 7047     		bx	lr
 2661              	.LVL235:
 2662              	.L285:
 388:Drivers/lvgl/src/misc/lv_txt.c ****             ret    = true;
 2663              		.loc 1 388 13 is_stmt 1 view .LVU848
 388:Drivers/lvgl/src/misc/lv_txt.c ****             ret    = true;
 2664              		.loc 1 388 20 is_stmt 0 view .LVU849
 2665 0020 0123     		movs	r3, #1
 2666 0022 0370     		strb	r3, [r0]
 389:Drivers/lvgl/src/misc/lv_txt.c ****         }
 2667              		.loc 1 389 13 is_stmt 1 view .LVU850
 2668              	.LVL236:
 403:Drivers/lvgl/src/misc/lv_txt.c ****         if(c == ' ') {
 2669              		.loc 1 403 5 view .LVU851
 404:Drivers/lvgl/src/misc/lv_txt.c ****             *state = LV_TEXT_CMD_STATE_IN; /*After the parameter the text is in the command*/
 2670              		.loc 1 404 9 view .LVU852
 407:Drivers/lvgl/src/misc/lv_txt.c ****     }
ARM GAS  /var/folders/0z/tsy30v1j4xl4_7kw94k978ww0000gn/T//ccd8hcN4.s 			page 79


 2671              		.loc 1 407 13 is_stmt 0 view .LVU853
 2672 0024 1846     		mov	r0, r3
 2673              	.LVL237:
 407:Drivers/lvgl/src/misc/lv_txt.c ****     }
 2674              		.loc 1 407 13 view .LVU854
 2675 0026 7047     		bx	lr
 2676              	.LVL238:
 2677              	.L284:
 404:Drivers/lvgl/src/misc/lv_txt.c ****             *state = LV_TEXT_CMD_STATE_IN; /*After the parameter the text is in the command*/
 2678              		.loc 1 404 9 is_stmt 1 view .LVU855
 404:Drivers/lvgl/src/misc/lv_txt.c ****             *state = LV_TEXT_CMD_STATE_IN; /*After the parameter the text is in the command*/
 2679              		.loc 1 404 11 is_stmt 0 view .LVU856
 2680 0028 2029     		cmp	r1, #32
 405:Drivers/lvgl/src/misc/lv_txt.c ****         }
 2681              		.loc 1 405 13 is_stmt 1 view .LVU857
 405:Drivers/lvgl/src/misc/lv_txt.c ****         }
 2682              		.loc 1 405 20 is_stmt 0 view .LVU858
 2683 002a 04BF     		itt	eq
 2684 002c 0222     		moveq	r2, #2
 2685 002e 0270     		strbeq	r2, [r0]
 407:Drivers/lvgl/src/misc/lv_txt.c ****     }
 2686              		.loc 1 407 13 view .LVU859
 2687 0030 1846     		mov	r0, r3
 2688              	.LVL239:
 407:Drivers/lvgl/src/misc/lv_txt.c ****     }
 2689              		.loc 1 407 13 view .LVU860
 2690 0032 7047     		bx	lr
 2691              	.LVL240:
 2692              	.L286:
 393:Drivers/lvgl/src/misc/lv_txt.c ****         }
 2693              		.loc 1 393 13 is_stmt 1 view .LVU861
 393:Drivers/lvgl/src/misc/lv_txt.c ****         }
 2694              		.loc 1 393 20 is_stmt 0 view .LVU862
 2695 0034 0023     		movs	r3, #0
 2696 0036 0370     		strb	r3, [r0]
 384:Drivers/lvgl/src/misc/lv_txt.c **** 
 2697              		.loc 1 384 10 view .LVU863
 2698 0038 1846     		mov	r0, r3
 2699              	.LVL241:
 384:Drivers/lvgl/src/misc/lv_txt.c **** 
 2700              		.loc 1 384 10 view .LVU864
 2701 003a 7047     		bx	lr
 2702              		.cfi_endproc
 2703              	.LFE59:
 2705              		.section	.text._lv_txt_ins,"ax",%progbits
 2706              		.align	1
 2707              		.p2align 2,,3
 2708              		.global	_lv_txt_ins
 2709              		.syntax unified
 2710              		.thumb
 2711              		.thumb_func
 2713              	_lv_txt_ins:
 2714              	.LVL242:
 2715              	.LFB60:
 414:Drivers/lvgl/src/misc/lv_txt.c ****     if(txt_buf == NULL || ins_txt == NULL) return;
 2716              		.loc 1 414 1 is_stmt 1 view -0
 2717              		.cfi_startproc
ARM GAS  /var/folders/0z/tsy30v1j4xl4_7kw94k978ww0000gn/T//ccd8hcN4.s 			page 80


 2718              		@ args = 0, pretend = 0, frame = 0
 2719              		@ frame_needed = 0, uses_anonymous_args = 0
 415:Drivers/lvgl/src/misc/lv_txt.c **** 
 2720              		.loc 1 415 5 view .LVU866
 415:Drivers/lvgl/src/misc/lv_txt.c **** 
 2721              		.loc 1 415 7 is_stmt 0 view .LVU867
 2722 0000 0028     		cmp	r0, #0
 2723 0002 4DD0     		beq	.L321
 414:Drivers/lvgl/src/misc/lv_txt.c ****     if(txt_buf == NULL || ins_txt == NULL) return;
 2724              		.loc 1 414 1 discriminator 2 view .LVU868
 2725 0004 2DE9F041 		push	{r4, r5, r6, r7, r8, lr}
 2726              		.cfi_def_cfa_offset 24
 2727              		.cfi_offset 4, -24
 2728              		.cfi_offset 5, -20
 2729              		.cfi_offset 6, -16
 2730              		.cfi_offset 7, -12
 2731              		.cfi_offset 8, -8
 2732              		.cfi_offset 14, -4
 2733 0008 1546     		mov	r5, r2
 415:Drivers/lvgl/src/misc/lv_txt.c **** 
 2734              		.loc 1 415 24 discriminator 2 view .LVU869
 2735 000a 002A     		cmp	r2, #0
 2736 000c 46D0     		beq	.L287
 417:Drivers/lvgl/src/misc/lv_txt.c ****     size_t ins_len = strlen(ins_txt);
 2737              		.loc 1 417 5 is_stmt 1 view .LVU870
