ARM GAS  /var/folders/lp/x54gwt890xv47sdkqj1k04q40000gn/T//ccX4OGqJ.s 			page 1


   1              		.cpu cortex-m4
   2              		.arch armv7e-m
   3              		.fpu fpv4-sp-d16
   4              		.eabi_attribute 27, 1
   5              		.eabi_attribute 28, 1
   6              		.eabi_attribute 20, 1
   7              		.eabi_attribute 21, 1
   8              		.eabi_attribute 23, 3
   9              		.eabi_attribute 24, 1
  10              		.eabi_attribute 25, 1
  11              		.eabi_attribute 26, 1
  12              		.eabi_attribute 30, 2
  13              		.eabi_attribute 34, 1
  14              		.eabi_attribute 18, 4
  15              		.file	"lv_timer.c"
  16              		.text
  17              	.Ltext0:
  18              		.cfi_sections	.debug_frame
  19              		.file 1 "Drivers/lvgl/src/misc/lv_timer.c"
  20              		.section	.text._lv_timer_core_init,"ax",%progbits
  21              		.align	1
  22              		.p2align 2,,3
  23              		.global	_lv_timer_core_init
  24              		.syntax unified
  25              		.thumb
  26              		.thumb_func
  28              	_lv_timer_core_init:
  29              	.LFB24:
   1:Drivers/lvgl/src/misc/lv_timer.c **** /**
   2:Drivers/lvgl/src/misc/lv_timer.c ****  * @file lv_timer.c
   3:Drivers/lvgl/src/misc/lv_timer.c ****  */
   4:Drivers/lvgl/src/misc/lv_timer.c **** 
   5:Drivers/lvgl/src/misc/lv_timer.c **** /*********************
   6:Drivers/lvgl/src/misc/lv_timer.c ****  *      INCLUDES
   7:Drivers/lvgl/src/misc/lv_timer.c ****  *********************/
   8:Drivers/lvgl/src/misc/lv_timer.c **** #include "lv_timer.h"
   9:Drivers/lvgl/src/misc/lv_timer.c **** #include "../hal/lv_hal_tick.h"
  10:Drivers/lvgl/src/misc/lv_timer.c **** #include "lv_assert.h"
  11:Drivers/lvgl/src/misc/lv_timer.c **** #include "lv_mem.h"
  12:Drivers/lvgl/src/misc/lv_timer.c **** #include "lv_ll.h"
  13:Drivers/lvgl/src/misc/lv_timer.c **** #include "lv_gc.h"
  14:Drivers/lvgl/src/misc/lv_timer.c **** 
  15:Drivers/lvgl/src/misc/lv_timer.c **** /*********************
  16:Drivers/lvgl/src/misc/lv_timer.c ****  *      DEFINES
  17:Drivers/lvgl/src/misc/lv_timer.c ****  *********************/
  18:Drivers/lvgl/src/misc/lv_timer.c **** #define IDLE_MEAS_PERIOD 500 /*[ms]*/
  19:Drivers/lvgl/src/misc/lv_timer.c **** #define DEF_PERIOD 500
  20:Drivers/lvgl/src/misc/lv_timer.c **** 
  21:Drivers/lvgl/src/misc/lv_timer.c **** /**********************
  22:Drivers/lvgl/src/misc/lv_timer.c ****  *      TYPEDEFS
  23:Drivers/lvgl/src/misc/lv_timer.c ****  **********************/
  24:Drivers/lvgl/src/misc/lv_timer.c **** 
  25:Drivers/lvgl/src/misc/lv_timer.c **** /**********************
  26:Drivers/lvgl/src/misc/lv_timer.c ****  *  STATIC PROTOTYPES
  27:Drivers/lvgl/src/misc/lv_timer.c ****  **********************/
  28:Drivers/lvgl/src/misc/lv_timer.c **** static bool lv_timer_exec(lv_timer_t * timer);
  29:Drivers/lvgl/src/misc/lv_timer.c **** static uint32_t lv_timer_time_remaining(lv_timer_t * timer);
ARM GAS  /var/folders/lp/x54gwt890xv47sdkqj1k04q40000gn/T//ccX4OGqJ.s 			page 2


  30:Drivers/lvgl/src/misc/lv_timer.c **** 
  31:Drivers/lvgl/src/misc/lv_timer.c **** /**********************
  32:Drivers/lvgl/src/misc/lv_timer.c ****  *  STATIC VARIABLES
  33:Drivers/lvgl/src/misc/lv_timer.c ****  **********************/
  34:Drivers/lvgl/src/misc/lv_timer.c **** static bool lv_timer_run = false;
  35:Drivers/lvgl/src/misc/lv_timer.c **** static uint8_t idle_last = 0;
  36:Drivers/lvgl/src/misc/lv_timer.c **** static bool timer_deleted;
  37:Drivers/lvgl/src/misc/lv_timer.c **** static bool timer_created;
  38:Drivers/lvgl/src/misc/lv_timer.c **** 
  39:Drivers/lvgl/src/misc/lv_timer.c **** /**********************
  40:Drivers/lvgl/src/misc/lv_timer.c ****  *      MACROS
  41:Drivers/lvgl/src/misc/lv_timer.c ****  **********************/
  42:Drivers/lvgl/src/misc/lv_timer.c **** #if LV_LOG_TRACE_TIMER
  43:Drivers/lvgl/src/misc/lv_timer.c ****     #define TIMER_TRACE(...) LV_LOG_TRACE(__VA_ARGS__)
  44:Drivers/lvgl/src/misc/lv_timer.c **** #else
  45:Drivers/lvgl/src/misc/lv_timer.c ****     #define TIMER_TRACE(...)
  46:Drivers/lvgl/src/misc/lv_timer.c **** #endif
  47:Drivers/lvgl/src/misc/lv_timer.c **** 
  48:Drivers/lvgl/src/misc/lv_timer.c **** /**********************
  49:Drivers/lvgl/src/misc/lv_timer.c ****  *   GLOBAL FUNCTIONS
  50:Drivers/lvgl/src/misc/lv_timer.c ****  **********************/
  51:Drivers/lvgl/src/misc/lv_timer.c **** 
  52:Drivers/lvgl/src/misc/lv_timer.c **** /**
  53:Drivers/lvgl/src/misc/lv_timer.c ****  * Init the lv_timer module
  54:Drivers/lvgl/src/misc/lv_timer.c ****  */
  55:Drivers/lvgl/src/misc/lv_timer.c **** void _lv_timer_core_init(void)
  56:Drivers/lvgl/src/misc/lv_timer.c **** {
  30              		.loc 1 56 1 view -0
  31              		.cfi_startproc
  32              		@ args = 0, pretend = 0, frame = 0
  33              		@ frame_needed = 0, uses_anonymous_args = 0
  57:Drivers/lvgl/src/misc/lv_timer.c ****     _lv_ll_init(&LV_GC_ROOT(_lv_timer_ll), sizeof(lv_timer_t));
  34              		.loc 1 57 5 view .LVU1
  56:Drivers/lvgl/src/misc/lv_timer.c ****     _lv_ll_init(&LV_GC_ROOT(_lv_timer_ll), sizeof(lv_timer_t));
  35              		.loc 1 56 1 is_stmt 0 view .LVU2
  36 0000 08B5     		push	{r3, lr}
  37              		.cfi_def_cfa_offset 8
  38              		.cfi_offset 3, -8
  39              		.cfi_offset 14, -4
  40              		.loc 1 57 5 view .LVU3
  41 0002 0448     		ldr	r0, .L4
  42 0004 1821     		movs	r1, #24
  43 0006 FFF7FEFF 		bl	_lv_ll_init
  44              	.LVL0:
  58:Drivers/lvgl/src/misc/lv_timer.c **** 
  59:Drivers/lvgl/src/misc/lv_timer.c ****     /*Initially enable the lv_timer handling*/
  60:Drivers/lvgl/src/misc/lv_timer.c ****     lv_timer_enable(true);
  45              		.loc 1 60 5 is_stmt 1 view .LVU4
  46              	.LBB4:
  47              	.LBI4:
  61:Drivers/lvgl/src/misc/lv_timer.c **** }
  62:Drivers/lvgl/src/misc/lv_timer.c **** 
  63:Drivers/lvgl/src/misc/lv_timer.c **** /**
  64:Drivers/lvgl/src/misc/lv_timer.c ****  * Call it periodically to handle lv_timers.
  65:Drivers/lvgl/src/misc/lv_timer.c ****  * @return the time after which it must be called again
  66:Drivers/lvgl/src/misc/lv_timer.c ****  */
  67:Drivers/lvgl/src/misc/lv_timer.c **** uint32_t LV_ATTRIBUTE_TIMER_HANDLER lv_timer_handler(void)
ARM GAS  /var/folders/lp/x54gwt890xv47sdkqj1k04q40000gn/T//ccX4OGqJ.s 			page 3


  68:Drivers/lvgl/src/misc/lv_timer.c **** {
  69:Drivers/lvgl/src/misc/lv_timer.c ****     TIMER_TRACE("begin");
  70:Drivers/lvgl/src/misc/lv_timer.c **** 
  71:Drivers/lvgl/src/misc/lv_timer.c ****     /*Avoid concurrent running of the timer handler*/
  72:Drivers/lvgl/src/misc/lv_timer.c ****     static bool already_running = false;
  73:Drivers/lvgl/src/misc/lv_timer.c ****     if(already_running) {
  74:Drivers/lvgl/src/misc/lv_timer.c ****         TIMER_TRACE("already running, concurrent calls are not allow, returning");
  75:Drivers/lvgl/src/misc/lv_timer.c ****         return 1;
  76:Drivers/lvgl/src/misc/lv_timer.c ****     }
  77:Drivers/lvgl/src/misc/lv_timer.c ****     already_running = true;
  78:Drivers/lvgl/src/misc/lv_timer.c **** 
  79:Drivers/lvgl/src/misc/lv_timer.c ****     if(lv_timer_run == false) {
  80:Drivers/lvgl/src/misc/lv_timer.c ****         already_running = false; /*Release mutex*/
  81:Drivers/lvgl/src/misc/lv_timer.c ****         return 1;
  82:Drivers/lvgl/src/misc/lv_timer.c ****     }
  83:Drivers/lvgl/src/misc/lv_timer.c **** 
  84:Drivers/lvgl/src/misc/lv_timer.c ****     static uint32_t idle_period_start = 0;
  85:Drivers/lvgl/src/misc/lv_timer.c ****     static uint32_t busy_time         = 0;
  86:Drivers/lvgl/src/misc/lv_timer.c **** 
  87:Drivers/lvgl/src/misc/lv_timer.c ****     uint32_t handler_start = lv_tick_get();
  88:Drivers/lvgl/src/misc/lv_timer.c **** 
  89:Drivers/lvgl/src/misc/lv_timer.c ****     if(handler_start == 0) {
  90:Drivers/lvgl/src/misc/lv_timer.c ****         static uint32_t run_cnt = 0;
  91:Drivers/lvgl/src/misc/lv_timer.c ****         run_cnt++;
  92:Drivers/lvgl/src/misc/lv_timer.c ****         if(run_cnt > 100) {
  93:Drivers/lvgl/src/misc/lv_timer.c ****             run_cnt = 0;
  94:Drivers/lvgl/src/misc/lv_timer.c ****             LV_LOG_WARN("It seems lv_tick_inc() is not called.");
  95:Drivers/lvgl/src/misc/lv_timer.c ****         }
  96:Drivers/lvgl/src/misc/lv_timer.c ****     }
  97:Drivers/lvgl/src/misc/lv_timer.c **** 
  98:Drivers/lvgl/src/misc/lv_timer.c ****     /*Run all timer from the list*/
  99:Drivers/lvgl/src/misc/lv_timer.c ****     lv_timer_t * next;
 100:Drivers/lvgl/src/misc/lv_timer.c ****     do {
 101:Drivers/lvgl/src/misc/lv_timer.c ****         timer_deleted             = false;
 102:Drivers/lvgl/src/misc/lv_timer.c ****         timer_created             = false;
 103:Drivers/lvgl/src/misc/lv_timer.c ****         LV_GC_ROOT(_lv_timer_act) = _lv_ll_get_head(&LV_GC_ROOT(_lv_timer_ll));
 104:Drivers/lvgl/src/misc/lv_timer.c ****         while(LV_GC_ROOT(_lv_timer_act)) {
 105:Drivers/lvgl/src/misc/lv_timer.c ****             /*The timer might be deleted if it runs only once ('repeat_count = 1')
 106:Drivers/lvgl/src/misc/lv_timer.c ****              *So get next element until the current is surely valid*/
 107:Drivers/lvgl/src/misc/lv_timer.c ****             next = _lv_ll_get_next(&LV_GC_ROOT(_lv_timer_ll), LV_GC_ROOT(_lv_timer_act));
 108:Drivers/lvgl/src/misc/lv_timer.c **** 
 109:Drivers/lvgl/src/misc/lv_timer.c ****             if(lv_timer_exec(LV_GC_ROOT(_lv_timer_act))) {
 110:Drivers/lvgl/src/misc/lv_timer.c ****                 /*If a timer was created or deleted then this or the next item might be corrupted*/
 111:Drivers/lvgl/src/misc/lv_timer.c ****                 if(timer_created || timer_deleted) {
 112:Drivers/lvgl/src/misc/lv_timer.c ****                     TIMER_TRACE("Start from the first timer again because a timer was created or de
 113:Drivers/lvgl/src/misc/lv_timer.c ****                     break;
 114:Drivers/lvgl/src/misc/lv_timer.c ****                 }
 115:Drivers/lvgl/src/misc/lv_timer.c ****             }
 116:Drivers/lvgl/src/misc/lv_timer.c **** 
 117:Drivers/lvgl/src/misc/lv_timer.c ****             LV_GC_ROOT(_lv_timer_act) = next; /*Load the next timer*/
 118:Drivers/lvgl/src/misc/lv_timer.c ****         }
 119:Drivers/lvgl/src/misc/lv_timer.c ****     } while(LV_GC_ROOT(_lv_timer_act));
 120:Drivers/lvgl/src/misc/lv_timer.c **** 
 121:Drivers/lvgl/src/misc/lv_timer.c ****     uint32_t time_till_next = LV_NO_TIMER_READY;
 122:Drivers/lvgl/src/misc/lv_timer.c ****     next = _lv_ll_get_head(&LV_GC_ROOT(_lv_timer_ll));
 123:Drivers/lvgl/src/misc/lv_timer.c ****     while(next) {
 124:Drivers/lvgl/src/misc/lv_timer.c ****         if(!next->paused) {
ARM GAS  /var/folders/lp/x54gwt890xv47sdkqj1k04q40000gn/T//ccX4OGqJ.s 			page 4


 125:Drivers/lvgl/src/misc/lv_timer.c ****             uint32_t delay = lv_timer_time_remaining(next);
 126:Drivers/lvgl/src/misc/lv_timer.c ****             if(delay < time_till_next)
 127:Drivers/lvgl/src/misc/lv_timer.c ****                 time_till_next = delay;
 128:Drivers/lvgl/src/misc/lv_timer.c ****         }
 129:Drivers/lvgl/src/misc/lv_timer.c **** 
 130:Drivers/lvgl/src/misc/lv_timer.c ****         next = _lv_ll_get_next(&LV_GC_ROOT(_lv_timer_ll), next); /*Find the next timer*/
 131:Drivers/lvgl/src/misc/lv_timer.c ****     }
 132:Drivers/lvgl/src/misc/lv_timer.c **** 
 133:Drivers/lvgl/src/misc/lv_timer.c ****     busy_time += lv_tick_elaps(handler_start);
 134:Drivers/lvgl/src/misc/lv_timer.c ****     uint32_t idle_period_time = lv_tick_elaps(idle_period_start);
 135:Drivers/lvgl/src/misc/lv_timer.c ****     if(idle_period_time >= IDLE_MEAS_PERIOD) {
 136:Drivers/lvgl/src/misc/lv_timer.c ****         idle_last         = (busy_time * 100) / idle_period_time;  /*Calculate the busy percentage*
 137:Drivers/lvgl/src/misc/lv_timer.c ****         idle_last         = idle_last > 100 ? 0 : 100 - idle_last; /*But we need idle time*/
 138:Drivers/lvgl/src/misc/lv_timer.c ****         busy_time         = 0;
 139:Drivers/lvgl/src/misc/lv_timer.c ****         idle_period_start = lv_tick_get();
 140:Drivers/lvgl/src/misc/lv_timer.c ****     }
 141:Drivers/lvgl/src/misc/lv_timer.c **** 
 142:Drivers/lvgl/src/misc/lv_timer.c ****     already_running = false; /*Release the mutex*/
 143:Drivers/lvgl/src/misc/lv_timer.c **** 
 144:Drivers/lvgl/src/misc/lv_timer.c ****     TIMER_TRACE("finished (%d ms until the next timer call)", time_till_next);
 145:Drivers/lvgl/src/misc/lv_timer.c ****     return time_till_next;
 146:Drivers/lvgl/src/misc/lv_timer.c **** }
 147:Drivers/lvgl/src/misc/lv_timer.c **** 
 148:Drivers/lvgl/src/misc/lv_timer.c **** /**
 149:Drivers/lvgl/src/misc/lv_timer.c ****  * Create an "empty" timer. It needs to initialized with at least
 150:Drivers/lvgl/src/misc/lv_timer.c ****  * `lv_timer_set_cb` and `lv_timer_set_period`
 151:Drivers/lvgl/src/misc/lv_timer.c ****  * @return pointer to the created timer
 152:Drivers/lvgl/src/misc/lv_timer.c ****  */
 153:Drivers/lvgl/src/misc/lv_timer.c **** lv_timer_t * lv_timer_create_basic(void)
 154:Drivers/lvgl/src/misc/lv_timer.c **** {
 155:Drivers/lvgl/src/misc/lv_timer.c ****     return lv_timer_create(NULL, DEF_PERIOD, NULL);
 156:Drivers/lvgl/src/misc/lv_timer.c **** }
 157:Drivers/lvgl/src/misc/lv_timer.c **** 
 158:Drivers/lvgl/src/misc/lv_timer.c **** /**
 159:Drivers/lvgl/src/misc/lv_timer.c ****  * Create a new lv_timer
 160:Drivers/lvgl/src/misc/lv_timer.c ****  * @param timer_xcb a callback which is the timer itself. It will be called periodically.
 161:Drivers/lvgl/src/misc/lv_timer.c ****  *                 (the 'x' in the argument name indicates that it's not a fully generic function b
 162:Drivers/lvgl/src/misc/lv_timer.c ****  *                  the `func_name(object, callback, ...)` convention)
 163:Drivers/lvgl/src/misc/lv_timer.c ****  * @param period call period in ms unit
 164:Drivers/lvgl/src/misc/lv_timer.c ****  * @param user_data custom parameter
 165:Drivers/lvgl/src/misc/lv_timer.c ****  * @return pointer to the new timer
 166:Drivers/lvgl/src/misc/lv_timer.c ****  */
 167:Drivers/lvgl/src/misc/lv_timer.c **** lv_timer_t * lv_timer_create(lv_timer_cb_t timer_xcb, uint32_t period, void * user_data)
 168:Drivers/lvgl/src/misc/lv_timer.c **** {
 169:Drivers/lvgl/src/misc/lv_timer.c ****     lv_timer_t * new_timer = NULL;
 170:Drivers/lvgl/src/misc/lv_timer.c **** 
 171:Drivers/lvgl/src/misc/lv_timer.c ****     new_timer = _lv_ll_ins_head(&LV_GC_ROOT(_lv_timer_ll));
 172:Drivers/lvgl/src/misc/lv_timer.c ****     LV_ASSERT_MALLOC(new_timer);
 173:Drivers/lvgl/src/misc/lv_timer.c ****     if(new_timer == NULL) return NULL;
 174:Drivers/lvgl/src/misc/lv_timer.c **** 
 175:Drivers/lvgl/src/misc/lv_timer.c ****     new_timer->period = period;
 176:Drivers/lvgl/src/misc/lv_timer.c ****     new_timer->timer_cb = timer_xcb;
 177:Drivers/lvgl/src/misc/lv_timer.c ****     new_timer->repeat_count = -1;
 178:Drivers/lvgl/src/misc/lv_timer.c ****     new_timer->paused = 0;
 179:Drivers/lvgl/src/misc/lv_timer.c ****     new_timer->last_run = lv_tick_get();
 180:Drivers/lvgl/src/misc/lv_timer.c ****     new_timer->user_data = user_data;
 181:Drivers/lvgl/src/misc/lv_timer.c **** 
ARM GAS  /var/folders/lp/x54gwt890xv47sdkqj1k04q40000gn/T//ccX4OGqJ.s 			page 5


 182:Drivers/lvgl/src/misc/lv_timer.c ****     timer_created = true;
 183:Drivers/lvgl/src/misc/lv_timer.c **** 
 184:Drivers/lvgl/src/misc/lv_timer.c ****     return new_timer;
 185:Drivers/lvgl/src/misc/lv_timer.c **** }
 186:Drivers/lvgl/src/misc/lv_timer.c **** 
 187:Drivers/lvgl/src/misc/lv_timer.c **** /**
 188:Drivers/lvgl/src/misc/lv_timer.c ****  * Set the callback the timer (the function to call periodically)
 189:Drivers/lvgl/src/misc/lv_timer.c ****  * @param timer pointer to a timer
 190:Drivers/lvgl/src/misc/lv_timer.c ****  * @param timer_cb the function to call periodically
 191:Drivers/lvgl/src/misc/lv_timer.c ****  */
 192:Drivers/lvgl/src/misc/lv_timer.c **** void lv_timer_set_cb(lv_timer_t * timer, lv_timer_cb_t timer_cb)
 193:Drivers/lvgl/src/misc/lv_timer.c **** {
 194:Drivers/lvgl/src/misc/lv_timer.c ****     timer->timer_cb = timer_cb;
 195:Drivers/lvgl/src/misc/lv_timer.c **** }
 196:Drivers/lvgl/src/misc/lv_timer.c **** 
 197:Drivers/lvgl/src/misc/lv_timer.c **** /**
 198:Drivers/lvgl/src/misc/lv_timer.c ****  * Delete a lv_timer
 199:Drivers/lvgl/src/misc/lv_timer.c ****  * @param timer pointer to timer created by timer
 200:Drivers/lvgl/src/misc/lv_timer.c ****  */
 201:Drivers/lvgl/src/misc/lv_timer.c **** void lv_timer_del(lv_timer_t * timer)
 202:Drivers/lvgl/src/misc/lv_timer.c **** {
 203:Drivers/lvgl/src/misc/lv_timer.c ****     _lv_ll_remove(&LV_GC_ROOT(_lv_timer_ll), timer);
 204:Drivers/lvgl/src/misc/lv_timer.c ****     timer_deleted = true;
 205:Drivers/lvgl/src/misc/lv_timer.c **** 
 206:Drivers/lvgl/src/misc/lv_timer.c ****     lv_mem_free(timer);
 207:Drivers/lvgl/src/misc/lv_timer.c **** }
 208:Drivers/lvgl/src/misc/lv_timer.c **** 
 209:Drivers/lvgl/src/misc/lv_timer.c **** /**
 210:Drivers/lvgl/src/misc/lv_timer.c ****  * Pause/resume a timer.
 211:Drivers/lvgl/src/misc/lv_timer.c ****  * @param timer pointer to an lv_timer
 212:Drivers/lvgl/src/misc/lv_timer.c ****  */
 213:Drivers/lvgl/src/misc/lv_timer.c **** void lv_timer_pause(lv_timer_t * timer)
 214:Drivers/lvgl/src/misc/lv_timer.c **** {
 215:Drivers/lvgl/src/misc/lv_timer.c ****     timer->paused = true;
 216:Drivers/lvgl/src/misc/lv_timer.c **** }
 217:Drivers/lvgl/src/misc/lv_timer.c **** 
 218:Drivers/lvgl/src/misc/lv_timer.c **** void lv_timer_resume(lv_timer_t * timer)
 219:Drivers/lvgl/src/misc/lv_timer.c **** {
 220:Drivers/lvgl/src/misc/lv_timer.c ****     timer->paused = false;
 221:Drivers/lvgl/src/misc/lv_timer.c **** }
 222:Drivers/lvgl/src/misc/lv_timer.c **** 
 223:Drivers/lvgl/src/misc/lv_timer.c **** /**
 224:Drivers/lvgl/src/misc/lv_timer.c ****  * Set new period for a lv_timer
 225:Drivers/lvgl/src/misc/lv_timer.c ****  * @param timer pointer to a lv_timer
 226:Drivers/lvgl/src/misc/lv_timer.c ****  * @param period the new period
 227:Drivers/lvgl/src/misc/lv_timer.c ****  */
 228:Drivers/lvgl/src/misc/lv_timer.c **** void lv_timer_set_period(lv_timer_t * timer, uint32_t period)
 229:Drivers/lvgl/src/misc/lv_timer.c **** {
 230:Drivers/lvgl/src/misc/lv_timer.c ****     timer->period = period;
 231:Drivers/lvgl/src/misc/lv_timer.c **** }
 232:Drivers/lvgl/src/misc/lv_timer.c **** 
 233:Drivers/lvgl/src/misc/lv_timer.c **** /**
 234:Drivers/lvgl/src/misc/lv_timer.c ****  * Make a lv_timer ready. It will not wait its period.
 235:Drivers/lvgl/src/misc/lv_timer.c ****  * @param timer pointer to a lv_timer.
 236:Drivers/lvgl/src/misc/lv_timer.c ****  */
 237:Drivers/lvgl/src/misc/lv_timer.c **** void lv_timer_ready(lv_timer_t * timer)
 238:Drivers/lvgl/src/misc/lv_timer.c **** {
ARM GAS  /var/folders/lp/x54gwt890xv47sdkqj1k04q40000gn/T//ccX4OGqJ.s 			page 6


 239:Drivers/lvgl/src/misc/lv_timer.c ****     timer->last_run = lv_tick_get() - timer->period - 1;
 240:Drivers/lvgl/src/misc/lv_timer.c **** }
 241:Drivers/lvgl/src/misc/lv_timer.c **** 
 242:Drivers/lvgl/src/misc/lv_timer.c **** /**
 243:Drivers/lvgl/src/misc/lv_timer.c ****  * Set the number of times a timer will repeat.
 244:Drivers/lvgl/src/misc/lv_timer.c ****  * @param timer pointer to a lv_timer.
 245:Drivers/lvgl/src/misc/lv_timer.c ****  * @param repeat_count -1 : infinity;  0 : stop ;  n >0: residual times
 246:Drivers/lvgl/src/misc/lv_timer.c ****  */
 247:Drivers/lvgl/src/misc/lv_timer.c **** void lv_timer_set_repeat_count(lv_timer_t * timer, int32_t repeat_count)
 248:Drivers/lvgl/src/misc/lv_timer.c **** {
 249:Drivers/lvgl/src/misc/lv_timer.c ****     timer->repeat_count = repeat_count;
 250:Drivers/lvgl/src/misc/lv_timer.c **** }
 251:Drivers/lvgl/src/misc/lv_timer.c **** 
 252:Drivers/lvgl/src/misc/lv_timer.c **** /**
 253:Drivers/lvgl/src/misc/lv_timer.c ****  * Reset a lv_timer.
 254:Drivers/lvgl/src/misc/lv_timer.c ****  * It will be called the previously set period milliseconds later.
 255:Drivers/lvgl/src/misc/lv_timer.c ****  * @param timer pointer to a lv_timer.
 256:Drivers/lvgl/src/misc/lv_timer.c ****  */
 257:Drivers/lvgl/src/misc/lv_timer.c **** void lv_timer_reset(lv_timer_t * timer)
 258:Drivers/lvgl/src/misc/lv_timer.c **** {
 259:Drivers/lvgl/src/misc/lv_timer.c ****     timer->last_run = lv_tick_get();
 260:Drivers/lvgl/src/misc/lv_timer.c **** }
 261:Drivers/lvgl/src/misc/lv_timer.c **** 
 262:Drivers/lvgl/src/misc/lv_timer.c **** /**
 263:Drivers/lvgl/src/misc/lv_timer.c ****  * Enable or disable the whole lv_timer handling
 264:Drivers/lvgl/src/misc/lv_timer.c ****  * @param en true: lv_timer handling is running, false: lv_timer handling is suspended
 265:Drivers/lvgl/src/misc/lv_timer.c ****  */
 266:Drivers/lvgl/src/misc/lv_timer.c **** void lv_timer_enable(bool en)
  48              		.loc 1 266 6 view .LVU5
  49              	.LBB5:
 267:Drivers/lvgl/src/misc/lv_timer.c **** {
 268:Drivers/lvgl/src/misc/lv_timer.c ****     lv_timer_run = en;
  50              		.loc 1 268 5 view .LVU6
  51              		.loc 1 268 18 is_stmt 0 view .LVU7
  52 000a 034B     		ldr	r3, .L4+4
  53 000c 0122     		movs	r2, #1
  54 000e 1A70     		strb	r2, [r3]
  55              	.LVL1:
  56              		.loc 1 268 18 view .LVU8
  57              	.LBE5:
  58              	.LBE4:
  61:Drivers/lvgl/src/misc/lv_timer.c **** }
  59              		.loc 1 61 1 view .LVU9
  60 0010 08BD     		pop	{r3, pc}
  61              	.L5:
  62 0012 00BF     		.align	2
  63              	.L4:
  64 0014 00000000 		.word	_lv_timer_ll
  65 0018 00000000 		.word	lv_timer_run
  66              		.cfi_endproc
  67              	.LFE24:
  69              		.section	.text.lv_timer_handler,"ax",%progbits
  70              		.align	1
  71              		.p2align 2,,3
  72              		.global	lv_timer_handler
  73              		.syntax unified
  74              		.thumb
ARM GAS  /var/folders/lp/x54gwt890xv47sdkqj1k04q40000gn/T//ccX4OGqJ.s 			page 7


  75              		.thumb_func
  77              	lv_timer_handler:
  78              	.LFB25:
  68:Drivers/lvgl/src/misc/lv_timer.c ****     TIMER_TRACE("begin");
  79              		.loc 1 68 1 is_stmt 1 view -0
  80              		.cfi_startproc
  81              		@ args = 0, pretend = 0, frame = 8
  82              		@ frame_needed = 0, uses_anonymous_args = 0
  69:Drivers/lvgl/src/misc/lv_timer.c **** 
  83              		.loc 1 69 25 view .LVU11
  72:Drivers/lvgl/src/misc/lv_timer.c ****     if(already_running) {
  84              		.loc 1 72 5 view .LVU12
  73:Drivers/lvgl/src/misc/lv_timer.c ****         TIMER_TRACE("already running, concurrent calls are not allow, returning");
  85              		.loc 1 73 5 view .LVU13
  68:Drivers/lvgl/src/misc/lv_timer.c ****     TIMER_TRACE("begin");
  86              		.loc 1 68 1 is_stmt 0 view .LVU14
  87 0000 2DE9F04F 		push	{r4, r5, r6, r7, r8, r9, r10, fp, lr}
  88              		.cfi_def_cfa_offset 36
  89              		.cfi_offset 4, -36
  90              		.cfi_offset 5, -32
  91              		.cfi_offset 6, -28
  92              		.cfi_offset 7, -24
  93              		.cfi_offset 8, -20
  94              		.cfi_offset 9, -16
  95              		.cfi_offset 10, -12
  96              		.cfi_offset 11, -8
  97              		.cfi_offset 14, -4
  73:Drivers/lvgl/src/misc/lv_timer.c ****         TIMER_TRACE("already running, concurrent calls are not allow, returning");
  98              		.loc 1 73 7 view .LVU15
  99 0004 7449     		ldr	r1, .L67
 100 0006 0B78     		ldrb	r3, [r1]	@ zero_extendqisi2
  68:Drivers/lvgl/src/misc/lv_timer.c ****     TIMER_TRACE("begin");
 101              		.loc 1 68 1 view .LVU16
 102 0008 83B0     		sub	sp, sp, #12
 103              		.cfi_def_cfa_offset 48
  73:Drivers/lvgl/src/misc/lv_timer.c ****         TIMER_TRACE("already running, concurrent calls are not allow, returning");
 104              		.loc 1 73 7 view .LVU17
 105 000a 2BB9     		cbnz	r3, .L7
  77:Drivers/lvgl/src/misc/lv_timer.c **** 
 106              		.loc 1 77 5 is_stmt 1 view .LVU18
  79:Drivers/lvgl/src/misc/lv_timer.c ****         already_running = false; /*Release mutex*/
 107              		.loc 1 79 21 is_stmt 0 view .LVU19
 108 000c 734B     		ldr	r3, .L67+4
  79:Drivers/lvgl/src/misc/lv_timer.c ****         already_running = false; /*Release mutex*/
 109              		.loc 1 79 7 view .LVU20
 110 000e 1B78     		ldrb	r3, [r3]	@ zero_extendqisi2
  77:Drivers/lvgl/src/misc/lv_timer.c **** 
 111              		.loc 1 77 21 view .LVU21
 112 0010 0122     		movs	r2, #1
 113 0012 0A70     		strb	r2, [r1]
  79:Drivers/lvgl/src/misc/lv_timer.c ****         already_running = false; /*Release mutex*/
 114              		.loc 1 79 5 is_stmt 1 view .LVU22
  79:Drivers/lvgl/src/misc/lv_timer.c ****         already_running = false; /*Release mutex*/
 115              		.loc 1 79 7 is_stmt 0 view .LVU23
 116 0014 2BB9     		cbnz	r3, .L8
  80:Drivers/lvgl/src/misc/lv_timer.c ****         return 1;
 117              		.loc 1 80 9 is_stmt 1 view .LVU24
ARM GAS  /var/folders/lp/x54gwt890xv47sdkqj1k04q40000gn/T//ccX4OGqJ.s 			page 8


  80:Drivers/lvgl/src/misc/lv_timer.c ****         return 1;
 118              		.loc 1 80 25 is_stmt 0 view .LVU25
 119 0016 0B70     		strb	r3, [r1]
  81:Drivers/lvgl/src/misc/lv_timer.c ****     }
 120              		.loc 1 81 9 is_stmt 1 view .LVU26
 121              	.L7:
  75:Drivers/lvgl/src/misc/lv_timer.c ****     }
 122              		.loc 1 75 16 is_stmt 0 view .LVU27
 123 0018 0126     		movs	r6, #1
 146:Drivers/lvgl/src/misc/lv_timer.c **** 
 124              		.loc 1 146 1 view .LVU28
 125 001a 3046     		mov	r0, r6
 126 001c 03B0     		add	sp, sp, #12
 127              		.cfi_remember_state
 128              		.cfi_def_cfa_offset 36
 129              		@ sp needed
 130 001e BDE8F08F 		pop	{r4, r5, r6, r7, r8, r9, r10, fp, pc}
 131              	.L8:
 132              		.cfi_restore_state
  84:Drivers/lvgl/src/misc/lv_timer.c ****     static uint32_t busy_time         = 0;
 133              		.loc 1 84 5 is_stmt 1 view .LVU29
  85:Drivers/lvgl/src/misc/lv_timer.c **** 
 134              		.loc 1 85 5 view .LVU30
  87:Drivers/lvgl/src/misc/lv_timer.c **** 
 135              		.loc 1 87 5 view .LVU31
  87:Drivers/lvgl/src/misc/lv_timer.c **** 
 136              		.loc 1 87 30 is_stmt 0 view .LVU32
 137 0022 FFF7FEFF 		bl	lv_tick_get
 138              	.LVL2:
  89:Drivers/lvgl/src/misc/lv_timer.c ****         static uint32_t run_cnt = 0;
 139              		.loc 1 89 5 is_stmt 1 view .LVU33
  89:Drivers/lvgl/src/misc/lv_timer.c ****         static uint32_t run_cnt = 0;
 140              		.loc 1 89 7 is_stmt 0 view .LVU34
 141 0026 0146     		mov	r1, r0
 142 0028 0190     		str	r0, [sp, #4]
 143 002a 0028     		cmp	r0, #0
 144 002c 00F0CC80 		beq	.L62
 145              	.L11:
  89:Drivers/lvgl/src/misc/lv_timer.c ****         static uint32_t run_cnt = 0;
 146              		.loc 1 89 7 view .LVU35
 147 0030 6B4F     		ldr	r7, .L67+8
 148 0032 DFF8C881 		ldr	r8, .L67+36
 149 0036 6B4D     		ldr	r5, .L67+12
 103:Drivers/lvgl/src/misc/lv_timer.c ****         while(LV_GC_ROOT(_lv_timer_act)) {
 150              		.loc 1 103 37 view .LVU36
 151 0038 6B4E     		ldr	r6, .L67+16
 101:Drivers/lvgl/src/misc/lv_timer.c ****         timer_created             = false;
 152              		.loc 1 101 35 view .LVU37
 153 003a 4FF00009 		mov	r9, #0
 154              	.LVL3:
 155              	.L33:
 156              	.LBB17:
  94:Drivers/lvgl/src/misc/lv_timer.c ****         }
 157              		.loc 1 94 13 is_stmt 1 view .LVU38
  94:Drivers/lvgl/src/misc/lv_timer.c ****         }
 158              		.loc 1 94 13 view .LVU39
  94:Drivers/lvgl/src/misc/lv_timer.c ****         }
ARM GAS  /var/folders/lp/x54gwt890xv47sdkqj1k04q40000gn/T//ccX4OGqJ.s 			page 9


 159              		.loc 1 94 13 view .LVU40
 160              	.LBE17:
  99:Drivers/lvgl/src/misc/lv_timer.c ****     do {
 161              		.loc 1 99 5 view .LVU41
 100:Drivers/lvgl/src/misc/lv_timer.c ****         timer_deleted             = false;
 162              		.loc 1 100 5 view .LVU42
 101:Drivers/lvgl/src/misc/lv_timer.c ****         timer_created             = false;
 163              		.loc 1 101 9 view .LVU43
 103:Drivers/lvgl/src/misc/lv_timer.c ****         while(LV_GC_ROOT(_lv_timer_act)) {
 164              		.loc 1 103 37 is_stmt 0 view .LVU44
 165 003e 3046     		mov	r0, r6
 101:Drivers/lvgl/src/misc/lv_timer.c ****         timer_created             = false;
 166              		.loc 1 101 35 view .LVU45
 167 0040 87F80090 		strb	r9, [r7]
 102:Drivers/lvgl/src/misc/lv_timer.c ****         LV_GC_ROOT(_lv_timer_act) = _lv_ll_get_head(&LV_GC_ROOT(_lv_timer_ll));
 168              		.loc 1 102 9 is_stmt 1 view .LVU46
 102:Drivers/lvgl/src/misc/lv_timer.c ****         LV_GC_ROOT(_lv_timer_act) = _lv_ll_get_head(&LV_GC_ROOT(_lv_timer_ll));
 169              		.loc 1 102 35 is_stmt 0 view .LVU47
 170 0044 88F80090 		strb	r9, [r8]
 103:Drivers/lvgl/src/misc/lv_timer.c ****         while(LV_GC_ROOT(_lv_timer_act)) {
 171              		.loc 1 103 9 is_stmt 1 view .LVU48
 103:Drivers/lvgl/src/misc/lv_timer.c ****         while(LV_GC_ROOT(_lv_timer_act)) {
 172              		.loc 1 103 37 is_stmt 0 view .LVU49
 173 0048 FFF7FEFF 		bl	_lv_ll_get_head
 174              	.LVL4:
 175 004c 0446     		mov	r4, r0
 176              	.L57:
 103:Drivers/lvgl/src/misc/lv_timer.c ****         while(LV_GC_ROOT(_lv_timer_act)) {
 177              		.loc 1 103 35 discriminator 1 view .LVU50
 178 004e 2C60     		str	r4, [r5]
 104:Drivers/lvgl/src/misc/lv_timer.c ****             /*The timer might be deleted if it runs only once ('repeat_count = 1')
 179              		.loc 1 104 9 is_stmt 1 view .LVU51
 104:Drivers/lvgl/src/misc/lv_timer.c ****             /*The timer might be deleted if it runs only once ('repeat_count = 1')
 180              		.loc 1 104 15 view .LVU52
 181 0050 34B3     		cbz	r4, .L34
 182              	.L64:
 107:Drivers/lvgl/src/misc/lv_timer.c **** 
 183              		.loc 1 107 13 view .LVU53
 107:Drivers/lvgl/src/misc/lv_timer.c **** 
 184              		.loc 1 107 20 is_stmt 0 view .LVU54
 185 0052 2146     		mov	r1, r4
 186 0054 3046     		mov	r0, r6
 187 0056 FFF7FEFF 		bl	_lv_ll_get_next
 188              	.LVL5:
 109:Drivers/lvgl/src/misc/lv_timer.c ****                 /*If a timer was created or deleted then this or the next item might be corrupted*/
 189              		.loc 1 109 16 view .LVU55
 190 005a D5F800B0 		ldr	fp, [r5]
 191              	.LBB18:
 192              	.LBB19:
 269:Drivers/lvgl/src/misc/lv_timer.c **** }
 270:Drivers/lvgl/src/misc/lv_timer.c **** 
 271:Drivers/lvgl/src/misc/lv_timer.c **** /**
 272:Drivers/lvgl/src/misc/lv_timer.c ****  * Get idle percentage
 273:Drivers/lvgl/src/misc/lv_timer.c ****  * @return the lv_timer idle in percentage
 274:Drivers/lvgl/src/misc/lv_timer.c ****  */
 275:Drivers/lvgl/src/misc/lv_timer.c **** uint8_t lv_timer_get_idle(void)
 276:Drivers/lvgl/src/misc/lv_timer.c **** {
ARM GAS  /var/folders/lp/x54gwt890xv47sdkqj1k04q40000gn/T//ccX4OGqJ.s 			page 10


 277:Drivers/lvgl/src/misc/lv_timer.c ****     return idle_last;
 278:Drivers/lvgl/src/misc/lv_timer.c **** }
 279:Drivers/lvgl/src/misc/lv_timer.c **** 
 280:Drivers/lvgl/src/misc/lv_timer.c **** /**
 281:Drivers/lvgl/src/misc/lv_timer.c ****  * Iterate through the timers
 282:Drivers/lvgl/src/misc/lv_timer.c ****  * @param timer NULL to start iteration or the previous return value to get the next timer
 283:Drivers/lvgl/src/misc/lv_timer.c ****  * @return the next timer or NULL if there is no more timer
 284:Drivers/lvgl/src/misc/lv_timer.c ****  */
 285:Drivers/lvgl/src/misc/lv_timer.c **** lv_timer_t * lv_timer_get_next(lv_timer_t * timer)
 286:Drivers/lvgl/src/misc/lv_timer.c **** {
 287:Drivers/lvgl/src/misc/lv_timer.c ****     if(timer == NULL) return _lv_ll_get_head(&LV_GC_ROOT(_lv_timer_ll));
 288:Drivers/lvgl/src/misc/lv_timer.c ****     else return _lv_ll_get_next(&LV_GC_ROOT(_lv_timer_ll), timer);
 289:Drivers/lvgl/src/misc/lv_timer.c **** }
 290:Drivers/lvgl/src/misc/lv_timer.c **** 
 291:Drivers/lvgl/src/misc/lv_timer.c **** /**********************
 292:Drivers/lvgl/src/misc/lv_timer.c ****  *   STATIC FUNCTIONS
 293:Drivers/lvgl/src/misc/lv_timer.c ****  **********************/
 294:Drivers/lvgl/src/misc/lv_timer.c **** 
 295:Drivers/lvgl/src/misc/lv_timer.c **** /**
 296:Drivers/lvgl/src/misc/lv_timer.c ****  * Execute timer if its remaining time is zero
 297:Drivers/lvgl/src/misc/lv_timer.c ****  * @param timer pointer to lv_timer
 298:Drivers/lvgl/src/misc/lv_timer.c ****  * @return true: execute, false: not executed
 299:Drivers/lvgl/src/misc/lv_timer.c ****  */
 300:Drivers/lvgl/src/misc/lv_timer.c **** static bool lv_timer_exec(lv_timer_t * timer)
 301:Drivers/lvgl/src/misc/lv_timer.c **** {
 302:Drivers/lvgl/src/misc/lv_timer.c ****     if(timer->paused) return false;
 193              		.loc 1 302 8 view .LVU56
 194 005e 9BF81430 		ldrb	r3, [fp, #20]	@ zero_extendqisi2
 195              		.loc 1 302 7 view .LVU57
 196 0062 DB07     		lsls	r3, r3, #31
 197              	.LBE19:
 198              	.LBE18:
 107:Drivers/lvgl/src/misc/lv_timer.c **** 
 199              		.loc 1 107 20 view .LVU58
 200 0064 0446     		mov	r4, r0
 201              	.LVL6:
 109:Drivers/lvgl/src/misc/lv_timer.c ****                 /*If a timer was created or deleted then this or the next item might be corrupted*/
 202              		.loc 1 109 13 is_stmt 1 view .LVU59
 203              	.LBB32:
 204              	.LBI18:
 300:Drivers/lvgl/src/misc/lv_timer.c **** {
 205              		.loc 1 300 13 view .LVU60
 206              	.LBB28:
 207              		.loc 1 302 5 view .LVU61
 208              		.loc 1 302 7 is_stmt 0 view .LVU62
 209 0066 F2D4     		bmi	.L57
 303:Drivers/lvgl/src/misc/lv_timer.c **** 
 304:Drivers/lvgl/src/misc/lv_timer.c ****     bool exec = false;
 210              		.loc 1 304 5 is_stmt 1 view .LVU63
 211              	.LVL7:
 305:Drivers/lvgl/src/misc/lv_timer.c ****     if(lv_timer_time_remaining(timer) == 0) {
 212              		.loc 1 305 5 view .LVU64
 213              	.LBB20:
 214              	.LBI20:
 306:Drivers/lvgl/src/misc/lv_timer.c ****         /* Decrement the repeat count before executing the timer_cb.
 307:Drivers/lvgl/src/misc/lv_timer.c ****          * If any timer is deleted `if(timer->repeat_count == 0)` is not executed below
 308:Drivers/lvgl/src/misc/lv_timer.c ****          * but at least the repeat count is zero and the timer can be deleted in the next round*/
ARM GAS  /var/folders/lp/x54gwt890xv47sdkqj1k04q40000gn/T//ccX4OGqJ.s 			page 11


 309:Drivers/lvgl/src/misc/lv_timer.c ****         int32_t original_repeat_count = timer->repeat_count;
 310:Drivers/lvgl/src/misc/lv_timer.c ****         if(timer->repeat_count > 0) timer->repeat_count--;
 311:Drivers/lvgl/src/misc/lv_timer.c ****         timer->last_run = lv_tick_get();
 312:Drivers/lvgl/src/misc/lv_timer.c ****         TIMER_TRACE("calling timer callback: %p", *((void **)&timer->timer_cb));
 313:Drivers/lvgl/src/misc/lv_timer.c ****         if(timer->timer_cb && original_repeat_count != 0) timer->timer_cb(timer);
 314:Drivers/lvgl/src/misc/lv_timer.c ****         TIMER_TRACE("timer callback %p finished", *((void **)&timer->timer_cb));
 315:Drivers/lvgl/src/misc/lv_timer.c ****         LV_ASSERT_MEM_INTEGRITY();
 316:Drivers/lvgl/src/misc/lv_timer.c ****         exec = true;
 317:Drivers/lvgl/src/misc/lv_timer.c ****     }
 318:Drivers/lvgl/src/misc/lv_timer.c **** 
 319:Drivers/lvgl/src/misc/lv_timer.c ****     if(timer_deleted == false) { /*The timer might be deleted by itself as well*/
 320:Drivers/lvgl/src/misc/lv_timer.c ****         if(timer->repeat_count == 0) { /*The repeat count is over, delete the timer*/
 321:Drivers/lvgl/src/misc/lv_timer.c ****             TIMER_TRACE("deleting timer with %p callback because the repeat count is over", *((void
 322:Drivers/lvgl/src/misc/lv_timer.c ****             lv_timer_del(timer);
 323:Drivers/lvgl/src/misc/lv_timer.c ****         }
 324:Drivers/lvgl/src/misc/lv_timer.c ****     }
 325:Drivers/lvgl/src/misc/lv_timer.c **** 
 326:Drivers/lvgl/src/misc/lv_timer.c ****     return exec;
 327:Drivers/lvgl/src/misc/lv_timer.c **** }
 328:Drivers/lvgl/src/misc/lv_timer.c **** 
 329:Drivers/lvgl/src/misc/lv_timer.c **** /**
 330:Drivers/lvgl/src/misc/lv_timer.c ****  * Find out how much time remains before a timer must be run.
 331:Drivers/lvgl/src/misc/lv_timer.c ****  * @param timer pointer to lv_timer
 332:Drivers/lvgl/src/misc/lv_timer.c ****  * @return the time remaining, or 0 if it needs to be run again
 333:Drivers/lvgl/src/misc/lv_timer.c ****  */
 334:Drivers/lvgl/src/misc/lv_timer.c **** static uint32_t lv_timer_time_remaining(lv_timer_t * timer)
 215              		.loc 1 334 17 view .LVU65
 216              	.LBB21:
 335:Drivers/lvgl/src/misc/lv_timer.c **** {
 336:Drivers/lvgl/src/misc/lv_timer.c ****     /*Check if at least 'period' time elapsed*/
 337:Drivers/lvgl/src/misc/lv_timer.c ****     uint32_t elp = lv_tick_elaps(timer->last_run);
 217              		.loc 1 337 5 view .LVU66
 218              		.loc 1 337 20 is_stmt 0 view .LVU67
 219 0068 DBF80400 		ldr	r0, [fp, #4]
 220              	.LVL8:
 221              		.loc 1 337 20 view .LVU68
 222 006c FFF7FEFF 		bl	lv_tick_elaps
 223              	.LVL9:
 338:Drivers/lvgl/src/misc/lv_timer.c ****     if(elp >= timer->period)
 224              		.loc 1 338 5 is_stmt 1 view .LVU69
 225              		.loc 1 338 7 is_stmt 0 view .LVU70
 226 0070 DBF80030 		ldr	r3, [fp]
 227 0074 9842     		cmp	r0, r3
 228 0076 63D2     		bcs	.L63
 339:Drivers/lvgl/src/misc/lv_timer.c ****         return 0;
 340:Drivers/lvgl/src/misc/lv_timer.c ****     return timer->period - elp;
 229              		.loc 1 340 5 is_stmt 1 view .LVU71
 230              	.LVL10:
 231              		.loc 1 340 5 is_stmt 0 view .LVU72
 232              	.LBE21:
 233              	.LBE20:
 319:Drivers/lvgl/src/misc/lv_timer.c ****         if(timer->repeat_count == 0) { /*The repeat count is over, delete the timer*/
 234              		.loc 1 319 5 is_stmt 1 view .LVU73
 319:Drivers/lvgl/src/misc/lv_timer.c ****         if(timer->repeat_count == 0) { /*The repeat count is over, delete the timer*/
 235              		.loc 1 319 7 is_stmt 0 view .LVU74
 236 0078 3B78     		ldrb	r3, [r7]	@ zero_extendqisi2
 237 007a 002B     		cmp	r3, #0
ARM GAS  /var/folders/lp/x54gwt890xv47sdkqj1k04q40000gn/T//ccX4OGqJ.s 			page 12


 238 007c E7D1     		bne	.L57
 320:Drivers/lvgl/src/misc/lv_timer.c ****             TIMER_TRACE("deleting timer with %p callback because the repeat count is over", *((void
 239              		.loc 1 320 9 is_stmt 1 view .LVU75
 320:Drivers/lvgl/src/misc/lv_timer.c ****             TIMER_TRACE("deleting timer with %p callback because the repeat count is over", *((void
 240              		.loc 1 320 11 is_stmt 0 view .LVU76
 241 007e DBF81030 		ldr	r3, [fp, #16]
 242 0082 002B     		cmp	r3, #0
 243 0084 E3D1     		bne	.L57
 321:Drivers/lvgl/src/misc/lv_timer.c ****             lv_timer_del(timer);
 244              		.loc 1 321 122 is_stmt 1 view .LVU77
 322:Drivers/lvgl/src/misc/lv_timer.c ****         }
 245              		.loc 1 322 13 view .LVU78
 246              	.LVL11:
 247              	.LBB22:
 248              	.LBI22:
 201:Drivers/lvgl/src/misc/lv_timer.c **** {
 249              		.loc 1 201 6 view .LVU79
 250              	.LBB23:
 203:Drivers/lvgl/src/misc/lv_timer.c ****     timer_deleted = true;
 251              		.loc 1 203 5 view .LVU80
 252 0086 5946     		mov	r1, fp
 253 0088 3046     		mov	r0, r6
 254 008a FFF7FEFF 		bl	_lv_ll_remove
 255              	.LVL12:
 204:Drivers/lvgl/src/misc/lv_timer.c **** 
 256              		.loc 1 204 5 view .LVU81
 204:Drivers/lvgl/src/misc/lv_timer.c **** 
 257              		.loc 1 204 19 is_stmt 0 view .LVU82
 258 008e 4FF00103 		mov	r3, #1
 206:Drivers/lvgl/src/misc/lv_timer.c **** }
 259              		.loc 1 206 5 view .LVU83
 260 0092 5846     		mov	r0, fp
 204:Drivers/lvgl/src/misc/lv_timer.c **** 
 261              		.loc 1 204 19 view .LVU84
 262 0094 3B70     		strb	r3, [r7]
 206:Drivers/lvgl/src/misc/lv_timer.c **** }
 263              		.loc 1 206 5 is_stmt 1 view .LVU85
 264 0096 FFF7FEFF 		bl	lv_mem_free
 265              	.LVL13:
 206:Drivers/lvgl/src/misc/lv_timer.c **** }
 266              		.loc 1 206 5 is_stmt 0 view .LVU86
 267              	.LBE23:
 268              	.LBE22:
 269              	.LBE28:
 270              	.LBE32:
 103:Drivers/lvgl/src/misc/lv_timer.c ****         while(LV_GC_ROOT(_lv_timer_act)) {
 271              		.loc 1 103 35 discriminator 1 view .LVU87
 272 009a 2C60     		str	r4, [r5]
 104:Drivers/lvgl/src/misc/lv_timer.c ****             /*The timer might be deleted if it runs only once ('repeat_count = 1')
 273              		.loc 1 104 9 is_stmt 1 view .LVU88
 104:Drivers/lvgl/src/misc/lv_timer.c ****             /*The timer might be deleted if it runs only once ('repeat_count = 1')
 274              		.loc 1 104 15 view .LVU89
 275 009c 002C     		cmp	r4, #0
 276 009e D8D1     		bne	.L64
 277              	.LVL14:
 278              	.L34:
 119:Drivers/lvgl/src/misc/lv_timer.c **** 
ARM GAS  /var/folders/lp/x54gwt890xv47sdkqj1k04q40000gn/T//ccX4OGqJ.s 			page 13


 279              		.loc 1 119 13 view .LVU90
 121:Drivers/lvgl/src/misc/lv_timer.c ****     next = _lv_ll_get_head(&LV_GC_ROOT(_lv_timer_ll));
 280              		.loc 1 121 5 view .LVU91
 122:Drivers/lvgl/src/misc/lv_timer.c ****     while(next) {
 281              		.loc 1 122 5 view .LVU92
 122:Drivers/lvgl/src/misc/lv_timer.c ****     while(next) {
 282              		.loc 1 122 12 is_stmt 0 view .LVU93
 283 00a0 5148     		ldr	r0, .L67+16
 284 00a2 FFF7FEFF 		bl	_lv_ll_get_head
 285              	.LVL15:
 123:Drivers/lvgl/src/misc/lv_timer.c ****         if(!next->paused) {
 286              		.loc 1 123 5 is_stmt 1 view .LVU94
 123:Drivers/lvgl/src/misc/lv_timer.c ****         if(!next->paused) {
 287              		.loc 1 123 11 view .LVU95
 121:Drivers/lvgl/src/misc/lv_timer.c ****     next = _lv_ll_get_head(&LV_GC_ROOT(_lv_timer_ll));
 288              		.loc 1 121 14 is_stmt 0 view .LVU96
 289 00a6 4FF0FF36 		mov	r6, #-1
 123:Drivers/lvgl/src/misc/lv_timer.c ****         if(!next->paused) {
 290              		.loc 1 123 11 view .LVU97
 291 00aa 0446     		mov	r4, r0
 292 00ac F8B1     		cbz	r0, .L40
 130:Drivers/lvgl/src/misc/lv_timer.c ****     }
 293              		.loc 1 130 16 view .LVU98
 294 00ae 4E4F     		ldr	r7, .L67+16
 121:Drivers/lvgl/src/misc/lv_timer.c ****     next = _lv_ll_get_head(&LV_GC_ROOT(_lv_timer_ll));
 295              		.loc 1 121 14 view .LVU99
 296 00b0 4FF0FF36 		mov	r6, #-1
 297 00b4 05E0     		b	.L37
 298              	.LVL16:
 299              	.L35:
 130:Drivers/lvgl/src/misc/lv_timer.c ****     }
 300              		.loc 1 130 9 is_stmt 1 view .LVU100
 130:Drivers/lvgl/src/misc/lv_timer.c ****     }
 301              		.loc 1 130 16 is_stmt 0 view .LVU101
 302 00b6 2146     		mov	r1, r4
 303 00b8 3846     		mov	r0, r7
 304 00ba FFF7FEFF 		bl	_lv_ll_get_next
 305              	.LVL17:
 123:Drivers/lvgl/src/misc/lv_timer.c ****         if(!next->paused) {
 306              		.loc 1 123 11 is_stmt 1 view .LVU102
 307 00be 0446     		mov	r4, r0
 308 00c0 A8B1     		cbz	r0, .L40
 309              	.LVL18:
 310              	.L37:
 124:Drivers/lvgl/src/misc/lv_timer.c ****             uint32_t delay = lv_timer_time_remaining(next);
 311              		.loc 1 124 9 view .LVU103
 124:Drivers/lvgl/src/misc/lv_timer.c ****             uint32_t delay = lv_timer_time_remaining(next);
 312              		.loc 1 124 12 is_stmt 0 view .LVU104
 313 00c2 237D     		ldrb	r3, [r4, #20]	@ zero_extendqisi2
 124:Drivers/lvgl/src/misc/lv_timer.c ****             uint32_t delay = lv_timer_time_remaining(next);
 314              		.loc 1 124 11 view .LVU105
 315 00c4 13F00105 		ands	r5, r3, #1
 316 00c8 F5D1     		bne	.L35
 317              	.LBB33:
 125:Drivers/lvgl/src/misc/lv_timer.c ****             if(delay < time_till_next)
 318              		.loc 1 125 13 is_stmt 1 view .LVU106
 319              	.LVL19:
ARM GAS  /var/folders/lp/x54gwt890xv47sdkqj1k04q40000gn/T//ccX4OGqJ.s 			page 14


 320              	.LBB34:
 321              	.LBI34:
 334:Drivers/lvgl/src/misc/lv_timer.c **** {
 322              		.loc 1 334 17 view .LVU107
 323              	.LBB35:
 337:Drivers/lvgl/src/misc/lv_timer.c ****     if(elp >= timer->period)
 324              		.loc 1 337 5 view .LVU108
 337:Drivers/lvgl/src/misc/lv_timer.c ****     if(elp >= timer->period)
 325              		.loc 1 337 20 is_stmt 0 view .LVU109
 326 00ca 6068     		ldr	r0, [r4, #4]
 327              	.LVL20:
 337:Drivers/lvgl/src/misc/lv_timer.c ****     if(elp >= timer->period)
 328              		.loc 1 337 20 view .LVU110
 329 00cc FFF7FEFF 		bl	lv_tick_elaps
 330              	.LVL21:
 331              		.loc 1 340 5 is_stmt 1 view .LVU111
 338:Drivers/lvgl/src/misc/lv_timer.c ****         return 0;
 332              		.loc 1 338 5 view .LVU112
 338:Drivers/lvgl/src/misc/lv_timer.c ****         return 0;
 333              		.loc 1 338 20 is_stmt 0 view .LVU113
 334 00d0 2368     		ldr	r3, [r4]
 338:Drivers/lvgl/src/misc/lv_timer.c ****         return 0;
 335              		.loc 1 338 7 view .LVU114
 336 00d2 9842     		cmp	r0, r3
 337              		.loc 1 340 26 view .LVU115
 338 00d4 A3EB0003 		sub	r3, r3, r0
 338:Drivers/lvgl/src/misc/lv_timer.c ****         return 0;
 339              		.loc 1 338 7 view .LVU116
 340 00d8 74D2     		bcs	.L42
 341              	.LBE35:
 342              	.LBE34:
 126:Drivers/lvgl/src/misc/lv_timer.c ****                 time_till_next = delay;
 343              		.loc 1 126 15 view .LVU117
 344 00da 9E42     		cmp	r6, r3
 345              	.LBE33:
 130:Drivers/lvgl/src/misc/lv_timer.c ****     }
 346              		.loc 1 130 16 view .LVU118
 347 00dc 2146     		mov	r1, r4
 348 00de 3846     		mov	r0, r7
 349              	.LVL22:
 350              	.LBB38:
 126:Drivers/lvgl/src/misc/lv_timer.c ****                 time_till_next = delay;
 351              		.loc 1 126 15 view .LVU119
 352 00e0 28BF     		it	cs
 353 00e2 1E46     		movcs	r6, r3
 354              	.LVL23:
 126:Drivers/lvgl/src/misc/lv_timer.c ****                 time_till_next = delay;
 355              		.loc 1 126 15 view .LVU120
 356              	.LBE38:
 130:Drivers/lvgl/src/misc/lv_timer.c ****     }
 357              		.loc 1 130 9 is_stmt 1 view .LVU121
 130:Drivers/lvgl/src/misc/lv_timer.c ****     }
 358              		.loc 1 130 16 is_stmt 0 view .LVU122
 359 00e4 FFF7FEFF 		bl	_lv_ll_get_next
 360              	.LVL24:
 123:Drivers/lvgl/src/misc/lv_timer.c ****         if(!next->paused) {
 361              		.loc 1 123 11 is_stmt 1 view .LVU123
ARM GAS  /var/folders/lp/x54gwt890xv47sdkqj1k04q40000gn/T//ccX4OGqJ.s 			page 15


 362 00e8 0446     		mov	r4, r0
 363              	.LVL25:
 123:Drivers/lvgl/src/misc/lv_timer.c ****         if(!next->paused) {
 364              		.loc 1 123 11 is_stmt 0 view .LVU124
 365 00ea 0028     		cmp	r0, #0
 366 00ec E9D1     		bne	.L37
 367              	.LVL26:
 368              	.L40:
 133:Drivers/lvgl/src/misc/lv_timer.c ****     uint32_t idle_period_time = lv_tick_elaps(idle_period_start);
 369              		.loc 1 133 5 is_stmt 1 view .LVU125
 133:Drivers/lvgl/src/misc/lv_timer.c ****     uint32_t idle_period_time = lv_tick_elaps(idle_period_start);
 370              		.loc 1 133 15 is_stmt 0 discriminator 1 view .LVU126
 371 00ee 3F4D     		ldr	r5, .L67+20
 133:Drivers/lvgl/src/misc/lv_timer.c ****     uint32_t idle_period_time = lv_tick_elaps(idle_period_start);
 372              		.loc 1 133 18 view .LVU127
 373 00f0 0198     		ldr	r0, [sp, #4]
 374              	.LVL27:
 134:Drivers/lvgl/src/misc/lv_timer.c ****     if(idle_period_time >= IDLE_MEAS_PERIOD) {
 375              		.loc 1 134 33 view .LVU128
 376 00f2 3F4C     		ldr	r4, .L67+24
 377              	.LVL28:
 133:Drivers/lvgl/src/misc/lv_timer.c ****     uint32_t idle_period_time = lv_tick_elaps(idle_period_start);
 378              		.loc 1 133 18 view .LVU129
 379 00f4 FFF7FEFF 		bl	lv_tick_elaps
 380              	.LVL29:
 133:Drivers/lvgl/src/misc/lv_timer.c ****     uint32_t idle_period_time = lv_tick_elaps(idle_period_start);
 381              		.loc 1 133 15 discriminator 1 view .LVU130
 382 00f8 2B68     		ldr	r3, [r5]
 383 00fa 0344     		add	r3, r3, r0
 134:Drivers/lvgl/src/misc/lv_timer.c ****     if(idle_period_time >= IDLE_MEAS_PERIOD) {
 384              		.loc 1 134 33 view .LVU131
 385 00fc 2068     		ldr	r0, [r4]
 133:Drivers/lvgl/src/misc/lv_timer.c ****     uint32_t idle_period_time = lv_tick_elaps(idle_period_start);
 386              		.loc 1 133 15 discriminator 1 view .LVU132
 387 00fe 2B60     		str	r3, [r5]
 134:Drivers/lvgl/src/misc/lv_timer.c ****     if(idle_period_time >= IDLE_MEAS_PERIOD) {
 388              		.loc 1 134 5 is_stmt 1 view .LVU133
 134:Drivers/lvgl/src/misc/lv_timer.c ****     if(idle_period_time >= IDLE_MEAS_PERIOD) {
 389              		.loc 1 134 33 is_stmt 0 view .LVU134
 390 0100 FFF7FEFF 		bl	lv_tick_elaps
 391              	.LVL30:
 135:Drivers/lvgl/src/misc/lv_timer.c ****         idle_last         = (busy_time * 100) / idle_period_time;  /*Calculate the busy percentage*
 392              		.loc 1 135 5 is_stmt 1 view .LVU135
 135:Drivers/lvgl/src/misc/lv_timer.c ****         idle_last         = (busy_time * 100) / idle_period_time;  /*Calculate the busy percentage*
 393              		.loc 1 135 7 is_stmt 0 view .LVU136
 394 0104 B0F5FA7F 		cmp	r0, #500
 395 0108 13D3     		bcc	.L38
 136:Drivers/lvgl/src/misc/lv_timer.c ****         idle_last         = idle_last > 100 ? 0 : 100 - idle_last; /*But we need idle time*/
 396              		.loc 1 136 9 is_stmt 1 view .LVU137
 136:Drivers/lvgl/src/misc/lv_timer.c ****         idle_last         = idle_last > 100 ? 0 : 100 - idle_last; /*But we need idle time*/
 397              		.loc 1 136 40 is_stmt 0 view .LVU138
 398 010a 2B68     		ldr	r3, [r5]
 399 010c 6422     		movs	r2, #100
 400 010e 02FB03F3 		mul	r3, r2, r3
 136:Drivers/lvgl/src/misc/lv_timer.c ****         idle_last         = idle_last > 100 ? 0 : 100 - idle_last; /*But we need idle time*/
 401              		.loc 1 136 47 view .LVU139
 402 0112 B3FBF0F3 		udiv	r3, r3, r0
ARM GAS  /var/folders/lp/x54gwt890xv47sdkqj1k04q40000gn/T//ccX4OGqJ.s 			page 16


 136:Drivers/lvgl/src/misc/lv_timer.c ****         idle_last         = idle_last > 100 ? 0 : 100 - idle_last; /*But we need idle time*/
 403              		.loc 1 136 27 view .LVU140
 404 0116 DBB2     		uxtb	r3, r3
 137:Drivers/lvgl/src/misc/lv_timer.c ****         busy_time         = 0;
 405              		.loc 1 137 9 is_stmt 1 view .LVU141
 137:Drivers/lvgl/src/misc/lv_timer.c ****         busy_time         = 0;
 406              		.loc 1 137 27 is_stmt 0 view .LVU142
 407 0118 9342     		cmp	r3, r2
 137:Drivers/lvgl/src/misc/lv_timer.c ****         busy_time         = 0;
 408              		.loc 1 137 27 discriminator 1 view .LVU143
 409 011a 98BF     		it	ls
 410 011c D31A     		subls	r3, r2, r3
 137:Drivers/lvgl/src/misc/lv_timer.c ****         busy_time         = 0;
 411              		.loc 1 137 27 discriminator 4 view .LVU144
 412 011e 354A     		ldr	r2, .L67+28
 137:Drivers/lvgl/src/misc/lv_timer.c ****         busy_time         = 0;
 413              		.loc 1 137 27 discriminator 1 view .LVU145
 414 0120 94BF     		ite	ls
 415 0122 DBB2     		uxtbls	r3, r3
 137:Drivers/lvgl/src/misc/lv_timer.c ****         busy_time         = 0;
 416              		.loc 1 137 27 discriminator 2 view .LVU146
 417 0124 0023     		movhi	r3, #0
 137:Drivers/lvgl/src/misc/lv_timer.c ****         busy_time         = 0;
 418              		.loc 1 137 27 discriminator 4 view .LVU147
 419 0126 1370     		strb	r3, [r2]
 138:Drivers/lvgl/src/misc/lv_timer.c ****         idle_period_start = lv_tick_get();
 420              		.loc 1 138 9 is_stmt 1 view .LVU148
 138:Drivers/lvgl/src/misc/lv_timer.c ****         idle_period_start = lv_tick_get();
 421              		.loc 1 138 27 is_stmt 0 view .LVU149
 422 0128 0023     		movs	r3, #0
 423 012a 2B60     		str	r3, [r5]
 139:Drivers/lvgl/src/misc/lv_timer.c ****     }
 424              		.loc 1 139 9 is_stmt 1 view .LVU150
 139:Drivers/lvgl/src/misc/lv_timer.c ****     }
 425              		.loc 1 139 29 is_stmt 0 view .LVU151
 426 012c FFF7FEFF 		bl	lv_tick_get
 427              	.LVL31:
 139:Drivers/lvgl/src/misc/lv_timer.c ****     }
 428              		.loc 1 139 27 discriminator 1 view .LVU152
 429 0130 2060     		str	r0, [r4]
 430              	.L38:
 142:Drivers/lvgl/src/misc/lv_timer.c **** 
 431              		.loc 1 142 5 is_stmt 1 view .LVU153
 142:Drivers/lvgl/src/misc/lv_timer.c **** 
 432              		.loc 1 142 21 is_stmt 0 view .LVU154
 433 0132 294A     		ldr	r2, .L67
 434 0134 0023     		movs	r3, #0
 146:Drivers/lvgl/src/misc/lv_timer.c **** 
 435              		.loc 1 146 1 view .LVU155
 436 0136 3046     		mov	r0, r6
 142:Drivers/lvgl/src/misc/lv_timer.c **** 
 437              		.loc 1 142 21 view .LVU156
 438 0138 1370     		strb	r3, [r2]
 144:Drivers/lvgl/src/misc/lv_timer.c ****     return time_till_next;
 439              		.loc 1 144 78 is_stmt 1 view .LVU157
 145:Drivers/lvgl/src/misc/lv_timer.c **** }
 440              		.loc 1 145 5 view .LVU158
ARM GAS  /var/folders/lp/x54gwt890xv47sdkqj1k04q40000gn/T//ccX4OGqJ.s 			page 17


 146:Drivers/lvgl/src/misc/lv_timer.c **** 
 441              		.loc 1 146 1 is_stmt 0 view .LVU159
 442 013a 03B0     		add	sp, sp, #12
 443              		.cfi_remember_state
 444              		.cfi_def_cfa_offset 36
 445              		@ sp needed
 446 013c BDE8F08F 		pop	{r4, r5, r6, r7, r8, r9, r10, fp, pc}
 447              	.LVL32:
 448              	.L63:
 449              		.cfi_restore_state
 450              	.LBB39:
 451              	.LBB29:
 452              	.LBB25:
 309:Drivers/lvgl/src/misc/lv_timer.c ****         if(timer->repeat_count > 0) timer->repeat_count--;
 453              		.loc 1 309 9 is_stmt 1 view .LVU160
 309:Drivers/lvgl/src/misc/lv_timer.c ****         if(timer->repeat_count > 0) timer->repeat_count--;
 454              		.loc 1 309 17 is_stmt 0 view .LVU161
 455 0140 DBF810A0 		ldr	r10, [fp, #16]
 456              	.LVL33:
 310:Drivers/lvgl/src/misc/lv_timer.c ****         timer->last_run = lv_tick_get();
 457              		.loc 1 310 9 is_stmt 1 view .LVU162
 310:Drivers/lvgl/src/misc/lv_timer.c ****         timer->last_run = lv_tick_get();
 458              		.loc 1 310 11 is_stmt 0 view .LVU163
 459 0144 BAF1000F 		cmp	r10, #0
 460 0148 13DD     		ble	.L65
 310:Drivers/lvgl/src/misc/lv_timer.c ****         timer->last_run = lv_tick_get();
 461              		.loc 1 310 37 is_stmt 1 discriminator 1 view .LVU164
 310:Drivers/lvgl/src/misc/lv_timer.c ****         timer->last_run = lv_tick_get();
 462              		.loc 1 310 56 is_stmt 0 discriminator 1 view .LVU165
 463 014a 0AF1FF33 		add	r3, r10, #-1
 464 014e CBF81030 		str	r3, [fp, #16]
 311:Drivers/lvgl/src/misc/lv_timer.c ****         TIMER_TRACE("calling timer callback: %p", *((void **)&timer->timer_cb));
 465              		.loc 1 311 9 is_stmt 1 view .LVU166
 311:Drivers/lvgl/src/misc/lv_timer.c ****         TIMER_TRACE("calling timer callback: %p", *((void **)&timer->timer_cb));
 466              		.loc 1 311 27 is_stmt 0 view .LVU167
 467 0152 FFF7FEFF 		bl	lv_tick_get
 468              	.LVL34:
 313:Drivers/lvgl/src/misc/lv_timer.c ****         TIMER_TRACE("timer callback %p finished", *((void **)&timer->timer_cb));
 469              		.loc 1 313 17 view .LVU168
 470 0156 DBF80820 		ldr	r2, [fp, #8]
 311:Drivers/lvgl/src/misc/lv_timer.c ****         TIMER_TRACE("calling timer callback: %p", *((void **)&timer->timer_cb));
 471              		.loc 1 311 25 discriminator 1 view .LVU169
 472 015a CBF80400 		str	r0, [fp, #4]
 312:Drivers/lvgl/src/misc/lv_timer.c ****         if(timer->timer_cb && original_repeat_count != 0) timer->timer_cb(timer);
 473              		.loc 1 312 80 is_stmt 1 view .LVU170
 313:Drivers/lvgl/src/misc/lv_timer.c ****         TIMER_TRACE("timer callback %p finished", *((void **)&timer->timer_cb));
 474              		.loc 1 313 9 view .LVU171
 313:Drivers/lvgl/src/misc/lv_timer.c ****         TIMER_TRACE("timer callback %p finished", *((void **)&timer->timer_cb));
 475              		.loc 1 313 11 is_stmt 0 view .LVU172
 476 015e 92B1     		cbz	r2, .L24
 477              	.L22:
 313:Drivers/lvgl/src/misc/lv_timer.c ****         TIMER_TRACE("timer callback %p finished", *((void **)&timer->timer_cb));
 478              		.loc 1 313 59 is_stmt 1 discriminator 2 view .LVU173
 479 0160 5846     		mov	r0, fp
 480 0162 9047     		blx	r2
 481              	.LVL35:
 313:Drivers/lvgl/src/misc/lv_timer.c ****         TIMER_TRACE("timer callback %p finished", *((void **)&timer->timer_cb));
ARM GAS  /var/folders/lp/x54gwt890xv47sdkqj1k04q40000gn/T//ccX4OGqJ.s 			page 18


 482              		.loc 1 313 59 is_stmt 0 discriminator 2 view .LVU174
 483              	.LBE25:
 319:Drivers/lvgl/src/misc/lv_timer.c ****         if(timer->repeat_count == 0) { /*The repeat count is over, delete the timer*/
 484              		.loc 1 319 5 is_stmt 1 view .LVU175
 319:Drivers/lvgl/src/misc/lv_timer.c ****         if(timer->repeat_count == 0) { /*The repeat count is over, delete the timer*/
 485              		.loc 1 319 7 is_stmt 0 view .LVU176
 486 0164 3B78     		ldrb	r3, [r7]	@ zero_extendqisi2
 487 0166 8BB1     		cbz	r3, .L59
 488              	.LVL36:
 489              	.L41:
 319:Drivers/lvgl/src/misc/lv_timer.c ****         if(timer->repeat_count == 0) { /*The repeat count is over, delete the timer*/
 490              		.loc 1 319 7 view .LVU177
 491              	.LBE29:
 492              	.LBE39:
 119:Drivers/lvgl/src/misc/lv_timer.c **** 
 493              		.loc 1 119 13 is_stmt 1 view .LVU178
 494 0168 2B68     		ldr	r3, [r5]
 495 016a 002B     		cmp	r3, #0
 496 016c 7FF467AF 		bne	.L33
 497 0170 96E7     		b	.L34
 498              	.LVL37:
 499              	.L65:
 500              	.LBB40:
 501              	.LBB30:
 502              	.LBB26:
 311:Drivers/lvgl/src/misc/lv_timer.c ****         TIMER_TRACE("calling timer callback: %p", *((void **)&timer->timer_cb));
 503              		.loc 1 311 9 view .LVU179
 311:Drivers/lvgl/src/misc/lv_timer.c ****         TIMER_TRACE("calling timer callback: %p", *((void **)&timer->timer_cb));
 504              		.loc 1 311 27 is_stmt 0 view .LVU180
 505 0172 FFF7FEFF 		bl	lv_tick_get
 506              	.LVL38:
 313:Drivers/lvgl/src/misc/lv_timer.c ****         TIMER_TRACE("timer callback %p finished", *((void **)&timer->timer_cb));
 507              		.loc 1 313 17 view .LVU181
 508 0176 DBF80820 		ldr	r2, [fp, #8]
 311:Drivers/lvgl/src/misc/lv_timer.c ****         TIMER_TRACE("calling timer callback: %p", *((void **)&timer->timer_cb));
 509              		.loc 1 311 25 discriminator 1 view .LVU182
 510 017a CBF80400 		str	r0, [fp, #4]
 312:Drivers/lvgl/src/misc/lv_timer.c ****         if(timer->timer_cb && original_repeat_count != 0) timer->timer_cb(timer);
 511              		.loc 1 312 80 is_stmt 1 view .LVU183
 313:Drivers/lvgl/src/misc/lv_timer.c ****         TIMER_TRACE("timer callback %p finished", *((void **)&timer->timer_cb));
 512              		.loc 1 313 9 view .LVU184
 313:Drivers/lvgl/src/misc/lv_timer.c ****         TIMER_TRACE("timer callback %p finished", *((void **)&timer->timer_cb));
 513              		.loc 1 313 11 is_stmt 0 view .LVU185
 514 017e 12B1     		cbz	r2, .L24
 313:Drivers/lvgl/src/misc/lv_timer.c ****         TIMER_TRACE("timer callback %p finished", *((void **)&timer->timer_cb));
 515              		.loc 1 313 28 discriminator 1 view .LVU186
 516 0180 BAF1000F 		cmp	r10, #0
 517 0184 ECD1     		bne	.L22
 518              	.L24:
 519              	.LVL39:
 313:Drivers/lvgl/src/misc/lv_timer.c ****         TIMER_TRACE("timer callback %p finished", *((void **)&timer->timer_cb));
 520              		.loc 1 313 28 discriminator 1 view .LVU187
 521              	.LBE26:
 319:Drivers/lvgl/src/misc/lv_timer.c ****         if(timer->repeat_count == 0) { /*The repeat count is over, delete the timer*/
 522              		.loc 1 319 5 is_stmt 1 view .LVU188
 319:Drivers/lvgl/src/misc/lv_timer.c ****         if(timer->repeat_count == 0) { /*The repeat count is over, delete the timer*/
 523              		.loc 1 319 7 is_stmt 0 view .LVU189
ARM GAS  /var/folders/lp/x54gwt890xv47sdkqj1k04q40000gn/T//ccX4OGqJ.s 			page 19


 524 0186 3B78     		ldrb	r3, [r7]	@ zero_extendqisi2
 525 0188 002B     		cmp	r3, #0
 526 018a EDD1     		bne	.L41
 527              	.L59:
 320:Drivers/lvgl/src/misc/lv_timer.c ****             TIMER_TRACE("deleting timer with %p callback because the repeat count is over", *((void
 528              		.loc 1 320 9 is_stmt 1 view .LVU190
 320:Drivers/lvgl/src/misc/lv_timer.c ****             TIMER_TRACE("deleting timer with %p callback because the repeat count is over", *((void
 529              		.loc 1 320 11 is_stmt 0 view .LVU191
 530 018c DBF81030 		ldr	r3, [fp, #16]
 531 0190 2BB1     		cbz	r3, .L66
 532              	.LVL40:
 320:Drivers/lvgl/src/misc/lv_timer.c ****             TIMER_TRACE("deleting timer with %p callback because the repeat count is over", *((void
 533              		.loc 1 320 11 view .LVU192
 534              	.LBE30:
 535              	.LBE40:
 111:Drivers/lvgl/src/misc/lv_timer.c ****                     TIMER_TRACE("Start from the first timer again because a timer was created or de
 536              		.loc 1 111 17 is_stmt 1 view .LVU193
 111:Drivers/lvgl/src/misc/lv_timer.c ****                     TIMER_TRACE("Start from the first timer again because a timer was created or de
 537              		.loc 1 111 19 is_stmt 0 view .LVU194
 538 0192 98F80030 		ldrb	r3, [r8]	@ zero_extendqisi2
 539 0196 002B     		cmp	r3, #0
 540 0198 3FF459AF 		beq	.L57
 541 019c E4E7     		b	.L41
 542              	.LVL41:
 543              	.L66:
 544              	.LBB41:
 545              	.LBB31:
 321:Drivers/lvgl/src/misc/lv_timer.c ****             lv_timer_del(timer);
 546              		.loc 1 321 122 is_stmt 1 view .LVU195
 322:Drivers/lvgl/src/misc/lv_timer.c ****         }
 547              		.loc 1 322 13 view .LVU196
 548              	.LBB27:
 201:Drivers/lvgl/src/misc/lv_timer.c **** {
 549              		.loc 1 201 6 view .LVU197
 550              	.LBB24:
 203:Drivers/lvgl/src/misc/lv_timer.c ****     timer_deleted = true;
 551              		.loc 1 203 5 view .LVU198
 552 019e 5946     		mov	r1, fp
 553 01a0 3046     		mov	r0, r6
 554 01a2 FFF7FEFF 		bl	_lv_ll_remove
 555              	.LVL42:
 204:Drivers/lvgl/src/misc/lv_timer.c **** 
 556              		.loc 1 204 5 view .LVU199
 204:Drivers/lvgl/src/misc/lv_timer.c **** 
 557              		.loc 1 204 19 is_stmt 0 view .LVU200
 558 01a6 4FF00103 		mov	r3, #1
 206:Drivers/lvgl/src/misc/lv_timer.c **** }
 559              		.loc 1 206 5 view .LVU201
 560 01aa 5846     		mov	r0, fp
 204:Drivers/lvgl/src/misc/lv_timer.c **** 
 561              		.loc 1 204 19 view .LVU202
 562 01ac 3B70     		strb	r3, [r7]
 206:Drivers/lvgl/src/misc/lv_timer.c **** }
 563              		.loc 1 206 5 is_stmt 1 view .LVU203
 564 01ae FFF7FEFF 		bl	lv_mem_free
 565              	.LVL43:
 206:Drivers/lvgl/src/misc/lv_timer.c **** }
ARM GAS  /var/folders/lp/x54gwt890xv47sdkqj1k04q40000gn/T//ccX4OGqJ.s 			page 20


 566              		.loc 1 206 5 is_stmt 0 view .LVU204
 567              	.LBE24:
 568              	.LBE27:
 569              	.LBE31:
 570              	.LBE41:
 111:Drivers/lvgl/src/misc/lv_timer.c ****                     TIMER_TRACE("Start from the first timer again because a timer was created or de
 571              		.loc 1 111 17 is_stmt 1 view .LVU205
 111:Drivers/lvgl/src/misc/lv_timer.c ****                     TIMER_TRACE("Start from the first timer again because a timer was created or de
 572              		.loc 1 111 19 is_stmt 0 view .LVU206
 573 01b2 98F80030 		ldrb	r3, [r8]	@ zero_extendqisi2
 574 01b6 002B     		cmp	r3, #0
 575 01b8 D6D1     		bne	.L41
 111:Drivers/lvgl/src/misc/lv_timer.c ****                     TIMER_TRACE("Start from the first timer again because a timer was created or de
 576              		.loc 1 111 34 discriminator 1 view .LVU207
 577 01ba 3B78     		ldrb	r3, [r7]	@ zero_extendqisi2
 578 01bc 002B     		cmp	r3, #0
 579 01be 3FF446AF 		beq	.L57
 580 01c2 D1E7     		b	.L41
 581              	.LVL44:
 582              	.L42:
 583              	.LBB42:
 584              	.LBB37:
 585              	.LBB36:
 111:Drivers/lvgl/src/misc/lv_timer.c ****                     TIMER_TRACE("Start from the first timer again because a timer was created or de
 586              		.loc 1 111 34 discriminator 1 view .LVU208
 587 01c4 2E46     		mov	r6, r5
 588              	.LVL45:
 111:Drivers/lvgl/src/misc/lv_timer.c ****                     TIMER_TRACE("Start from the first timer again because a timer was created or de
 589              		.loc 1 111 34 discriminator 1 view .LVU209
 590              	.LBE36:
 591              	.LBE37:
 126:Drivers/lvgl/src/misc/lv_timer.c ****                 time_till_next = delay;
 592              		.loc 1 126 13 is_stmt 1 view .LVU210
 593 01c6 76E7     		b	.L35
 594              	.LVL46:
 595              	.L62:
 126:Drivers/lvgl/src/misc/lv_timer.c ****                 time_till_next = delay;
 596              		.loc 1 126 13 is_stmt 0 view .LVU211
 597              	.LBE42:
 598              	.LBB43:
  90:Drivers/lvgl/src/misc/lv_timer.c ****         run_cnt++;
 599              		.loc 1 90 9 is_stmt 1 view .LVU212
  91:Drivers/lvgl/src/misc/lv_timer.c ****         if(run_cnt > 100) {
 600              		.loc 1 91 9 view .LVU213
  91:Drivers/lvgl/src/misc/lv_timer.c ****         if(run_cnt > 100) {
 601              		.loc 1 91 16 is_stmt 0 view .LVU214
 602 01c8 0B4A     		ldr	r2, .L67+32
 603 01ca 1368     		ldr	r3, [r2]
 604 01cc 0133     		adds	r3, r3, #1
  92:Drivers/lvgl/src/misc/lv_timer.c ****             run_cnt = 0;
 605              		.loc 1 92 9 is_stmt 1 view .LVU215
  91:Drivers/lvgl/src/misc/lv_timer.c ****         if(run_cnt > 100) {
 606              		.loc 1 91 16 is_stmt 0 view .LVU216
 607 01ce 642B     		cmp	r3, #100
 608 01d0 98BF     		it	ls
 609 01d2 1946     		movls	r1, r3
 610 01d4 1160     		str	r1, [r2]
ARM GAS  /var/folders/lp/x54gwt890xv47sdkqj1k04q40000gn/T//ccX4OGqJ.s 			page 21


 611 01d6 2BE7     		b	.L11
 612              	.L68:
 613              		.align	2
 614              	.L67:
 615 01d8 00000000 		.word	already_running.3
 616 01dc 00000000 		.word	lv_timer_run
 617 01e0 00000000 		.word	timer_deleted
 618 01e4 00000000 		.word	_lv_timer_act
 619 01e8 00000000 		.word	_lv_timer_ll
 620 01ec 00000000 		.word	busy_time.1
 621 01f0 00000000 		.word	idle_period_start.0
 622 01f4 00000000 		.word	idle_last
 623 01f8 00000000 		.word	run_cnt.2
 624 01fc 00000000 		.word	timer_created
 625              	.LBE43:
 626              		.cfi_endproc
 627              	.LFE25:
 629              		.section	.text.lv_timer_create_basic,"ax",%progbits
 630              		.align	1
 631              		.p2align 2,,3
 632              		.global	lv_timer_create_basic
 633              		.syntax unified
 634              		.thumb
 635              		.thumb_func
 637              	lv_timer_create_basic:
 638              	.LFB26:
 154:Drivers/lvgl/src/misc/lv_timer.c ****     return lv_timer_create(NULL, DEF_PERIOD, NULL);
 639              		.loc 1 154 1 is_stmt 1 view -0
 640              		.cfi_startproc
 641              		@ args = 0, pretend = 0, frame = 0
 642              		@ frame_needed = 0, uses_anonymous_args = 0
 155:Drivers/lvgl/src/misc/lv_timer.c **** }
 643              		.loc 1 155 5 view .LVU218
 644              	.LVL47:
 645              	.LBB46:
 646              	.LBI46:
 167:Drivers/lvgl/src/misc/lv_timer.c **** {
 647              		.loc 1 167 14 view .LVU219
 648              	.LBB47:
 169:Drivers/lvgl/src/misc/lv_timer.c **** 
 649              		.loc 1 169 5 view .LVU220
 171:Drivers/lvgl/src/misc/lv_timer.c ****     LV_ASSERT_MALLOC(new_timer);
 650              		.loc 1 171 5 view .LVU221
 651              	.LBE47:
 652              	.LBE46:
 154:Drivers/lvgl/src/misc/lv_timer.c ****     return lv_timer_create(NULL, DEF_PERIOD, NULL);
 653              		.loc 1 154 1 is_stmt 0 view .LVU222
 654 0000 38B5     		push	{r3, r4, r5, lr}
 655              		.cfi_def_cfa_offset 16
 656              		.cfi_offset 3, -16
 657              		.cfi_offset 4, -12
 658              		.cfi_offset 5, -8
 659              		.cfi_offset 14, -4
 660              	.LBB50:
 661              	.LBB48:
 171:Drivers/lvgl/src/misc/lv_timer.c ****     LV_ASSERT_MALLOC(new_timer);
 662              		.loc 1 171 17 view .LVU223
ARM GAS  /var/folders/lp/x54gwt890xv47sdkqj1k04q40000gn/T//ccX4OGqJ.s 			page 22


 663 0002 0D48     		ldr	r0, .L73
 664 0004 FFF7FEFF 		bl	_lv_ll_ins_head
 665              	.LVL48:
 172:Drivers/lvgl/src/misc/lv_timer.c ****     if(new_timer == NULL) return NULL;
 666              		.loc 1 172 5 is_stmt 1 view .LVU224
 172:Drivers/lvgl/src/misc/lv_timer.c ****     if(new_timer == NULL) return NULL;
 667              		.loc 1 172 5 view .LVU225
 668 0008 A8B1     		cbz	r0, .L71
 172:Drivers/lvgl/src/misc/lv_timer.c ****     if(new_timer == NULL) return NULL;
 669              		.loc 1 172 5 discriminator 2 view .LVU226
 172:Drivers/lvgl/src/misc/lv_timer.c ****     if(new_timer == NULL) return NULL;
 670              		.loc 1 172 32 discriminator 2 view .LVU227
 173:Drivers/lvgl/src/misc/lv_timer.c **** 
 671              		.loc 1 173 5 view .LVU228
 175:Drivers/lvgl/src/misc/lv_timer.c ****     new_timer->timer_cb = timer_xcb;
 672              		.loc 1 175 5 view .LVU229
 178:Drivers/lvgl/src/misc/lv_timer.c ****     new_timer->last_run = lv_tick_get();
 673              		.loc 1 178 23 is_stmt 0 view .LVU230
 674 000a 037D     		ldrb	r3, [r0, #20]	@ zero_extendqisi2
 176:Drivers/lvgl/src/misc/lv_timer.c ****     new_timer->repeat_count = -1;
 675              		.loc 1 176 25 view .LVU231
 676 000c 0025     		movs	r5, #0
 178:Drivers/lvgl/src/misc/lv_timer.c ****     new_timer->last_run = lv_tick_get();
 677              		.loc 1 178 23 view .LVU232
 678 000e 65F30003 		bfi	r3, r5, #0, #1
 175:Drivers/lvgl/src/misc/lv_timer.c ****     new_timer->timer_cb = timer_xcb;
 679              		.loc 1 175 23 view .LVU233
 680 0012 4FF4FA71 		mov	r1, #500
 177:Drivers/lvgl/src/misc/lv_timer.c ****     new_timer->paused = 0;
 681              		.loc 1 177 29 view .LVU234
 682 0016 4FF0FF32 		mov	r2, #-1
 175:Drivers/lvgl/src/misc/lv_timer.c ****     new_timer->timer_cb = timer_xcb;
 683              		.loc 1 175 23 view .LVU235
 684 001a 0160     		str	r1, [r0]
 176:Drivers/lvgl/src/misc/lv_timer.c ****     new_timer->repeat_count = -1;
 685              		.loc 1 176 5 is_stmt 1 view .LVU236
 176:Drivers/lvgl/src/misc/lv_timer.c ****     new_timer->repeat_count = -1;
 686              		.loc 1 176 25 is_stmt 0 view .LVU237
 687 001c 8560     		str	r5, [r0, #8]
 177:Drivers/lvgl/src/misc/lv_timer.c ****     new_timer->paused = 0;
 688              		.loc 1 177 5 is_stmt 1 view .LVU238
 177:Drivers/lvgl/src/misc/lv_timer.c ****     new_timer->paused = 0;
 689              		.loc 1 177 29 is_stmt 0 view .LVU239
 690 001e 0261     		str	r2, [r0, #16]
 178:Drivers/lvgl/src/misc/lv_timer.c ****     new_timer->last_run = lv_tick_get();
 691              		.loc 1 178 5 is_stmt 1 view .LVU240
 178:Drivers/lvgl/src/misc/lv_timer.c ****     new_timer->last_run = lv_tick_get();
 692              		.loc 1 178 23 is_stmt 0 view .LVU241
 693 0020 0375     		strb	r3, [r0, #20]
 179:Drivers/lvgl/src/misc/lv_timer.c ****     new_timer->user_data = user_data;
 694              		.loc 1 179 5 is_stmt 1 view .LVU242
 695 0022 0446     		mov	r4, r0
 179:Drivers/lvgl/src/misc/lv_timer.c ****     new_timer->user_data = user_data;
 696              		.loc 1 179 27 is_stmt 0 view .LVU243
 697 0024 FFF7FEFF 		bl	lv_tick_get
 698              	.LVL49:
 182:Drivers/lvgl/src/misc/lv_timer.c **** 
ARM GAS  /var/folders/lp/x54gwt890xv47sdkqj1k04q40000gn/T//ccX4OGqJ.s 			page 23


 699              		.loc 1 182 19 view .LVU244
 700 0028 044B     		ldr	r3, .L73+4
 179:Drivers/lvgl/src/misc/lv_timer.c ****     new_timer->user_data = user_data;
 701              		.loc 1 179 25 discriminator 1 view .LVU245
 702 002a 6060     		str	r0, [r4, #4]
 180:Drivers/lvgl/src/misc/lv_timer.c **** 
 703              		.loc 1 180 5 is_stmt 1 view .LVU246
 182:Drivers/lvgl/src/misc/lv_timer.c **** 
 704              		.loc 1 182 19 is_stmt 0 view .LVU247
 705 002c 0122     		movs	r2, #1
 180:Drivers/lvgl/src/misc/lv_timer.c **** 
 706              		.loc 1 180 26 view .LVU248
 707 002e E560     		str	r5, [r4, #12]
 182:Drivers/lvgl/src/misc/lv_timer.c **** 
 708              		.loc 1 182 5 is_stmt 1 view .LVU249
 182:Drivers/lvgl/src/misc/lv_timer.c **** 
 709              		.loc 1 182 19 is_stmt 0 view .LVU250
 710 0030 1A70     		strb	r2, [r3]
 184:Drivers/lvgl/src/misc/lv_timer.c **** }
 711              		.loc 1 184 5 is_stmt 1 view .LVU251
 712              	.LVL50:
 184:Drivers/lvgl/src/misc/lv_timer.c **** }
 713              		.loc 1 184 5 is_stmt 0 view .LVU252
 714              	.LBE48:
 715              	.LBE50:
 156:Drivers/lvgl/src/misc/lv_timer.c **** 
 716              		.loc 1 156 1 view .LVU253
 717 0032 2046     		mov	r0, r4
 718 0034 38BD     		pop	{r3, r4, r5, pc}
 719              	.LVL51:
 720              	.L71:
 721              	.LBB51:
 722              	.LBB49:
 172:Drivers/lvgl/src/misc/lv_timer.c ****     if(new_timer == NULL) return NULL;
 723              		.loc 1 172 5 is_stmt 1 discriminator 1 view .LVU254
 172:Drivers/lvgl/src/misc/lv_timer.c ****     if(new_timer == NULL) return NULL;
 724              		.loc 1 172 5 discriminator 1 view .LVU255
 172:Drivers/lvgl/src/misc/lv_timer.c ****     if(new_timer == NULL) return NULL;
 725              		.loc 1 172 5 discriminator 1 view .LVU256
 172:Drivers/lvgl/src/misc/lv_timer.c ****     if(new_timer == NULL) return NULL;
 726              		.loc 1 172 5 discriminator 1 view .LVU257
 172:Drivers/lvgl/src/misc/lv_timer.c ****     if(new_timer == NULL) return NULL;
 727              		.loc 1 172 5 discriminator 1 view .LVU258
 172:Drivers/lvgl/src/misc/lv_timer.c ****     if(new_timer == NULL) return NULL;
 728              		.loc 1 172 5 discriminator 1 view .LVU259
 172:Drivers/lvgl/src/misc/lv_timer.c ****     if(new_timer == NULL) return NULL;
 729              		.loc 1 172 5 discriminator 1 view .LVU260
 172:Drivers/lvgl/src/misc/lv_timer.c ****     if(new_timer == NULL) return NULL;
 730              		.loc 1 172 5 discriminator 1 view .LVU261
 172:Drivers/lvgl/src/misc/lv_timer.c ****     if(new_timer == NULL) return NULL;
 731              		.loc 1 172 5 discriminator 1 view .LVU262
 172:Drivers/lvgl/src/misc/lv_timer.c ****     if(new_timer == NULL) return NULL;
 732              		.loc 1 172 5 discriminator 1 view .LVU263
 733 0036 FEE7     		b	.L71
 734              	.L74:
 735              		.align	2
 736              	.L73:
ARM GAS  /var/folders/lp/x54gwt890xv47sdkqj1k04q40000gn/T//ccX4OGqJ.s 			page 24


 737 0038 00000000 		.word	_lv_timer_ll
 738 003c 00000000 		.word	timer_created
 739              	.LBE49:
 740              	.LBE51:
 741              		.cfi_endproc
 742              	.LFE26:
 744              		.section	.text.lv_timer_create,"ax",%progbits
 745              		.align	1
 746              		.p2align 2,,3
 747              		.global	lv_timer_create
 748              		.syntax unified
 749              		.thumb
 750              		.thumb_func
 752              	lv_timer_create:
 753              	.LVL52:
 754              	.LFB27:
 168:Drivers/lvgl/src/misc/lv_timer.c ****     lv_timer_t * new_timer = NULL;
 755              		.loc 1 168 1 view -0
 756              		.cfi_startproc
 757              		@ args = 0, pretend = 0, frame = 0
 758              		@ frame_needed = 0, uses_anonymous_args = 0
 169:Drivers/lvgl/src/misc/lv_timer.c **** 
 759              		.loc 1 169 5 view .LVU265
 171:Drivers/lvgl/src/misc/lv_timer.c ****     LV_ASSERT_MALLOC(new_timer);
 760              		.loc 1 171 5 view .LVU266
 168:Drivers/lvgl/src/misc/lv_timer.c ****     lv_timer_t * new_timer = NULL;
 761              		.loc 1 168 1 is_stmt 0 view .LVU267
 762 0000 F8B5     		push	{r3, r4, r5, r6, r7, lr}
 763              		.cfi_def_cfa_offset 24
 764              		.cfi_offset 3, -24
 765              		.cfi_offset 4, -20
 766              		.cfi_offset 5, -16
 767              		.cfi_offset 6, -12
 768              		.cfi_offset 7, -8
 769              		.cfi_offset 14, -4
 168:Drivers/lvgl/src/misc/lv_timer.c ****     lv_timer_t * new_timer = NULL;
 770              		.loc 1 168 1 view .LVU268
 771 0002 0746     		mov	r7, r0
 171:Drivers/lvgl/src/misc/lv_timer.c ****     LV_ASSERT_MALLOC(new_timer);
 772              		.loc 1 171 17 view .LVU269
 773 0004 0C48     		ldr	r0, .L79
 774              	.LVL53:
 168:Drivers/lvgl/src/misc/lv_timer.c ****     lv_timer_t * new_timer = NULL;
 775              		.loc 1 168 1 view .LVU270
 776 0006 0D46     		mov	r5, r1
 777 0008 1646     		mov	r6, r2
 171:Drivers/lvgl/src/misc/lv_timer.c ****     LV_ASSERT_MALLOC(new_timer);
 778              		.loc 1 171 17 view .LVU271
 779 000a FFF7FEFF 		bl	_lv_ll_ins_head
 780              	.LVL54:
 172:Drivers/lvgl/src/misc/lv_timer.c ****     if(new_timer == NULL) return NULL;
 781              		.loc 1 172 5 is_stmt 1 view .LVU272
 172:Drivers/lvgl/src/misc/lv_timer.c ****     if(new_timer == NULL) return NULL;
 782              		.loc 1 172 5 view .LVU273
 783 000e 90B1     		cbz	r0, .L77
 172:Drivers/lvgl/src/misc/lv_timer.c ****     if(new_timer == NULL) return NULL;
 784              		.loc 1 172 5 discriminator 2 view .LVU274
ARM GAS  /var/folders/lp/x54gwt890xv47sdkqj1k04q40000gn/T//ccX4OGqJ.s 			page 25


 172:Drivers/lvgl/src/misc/lv_timer.c ****     if(new_timer == NULL) return NULL;
 785              		.loc 1 172 32 discriminator 2 view .LVU275
 173:Drivers/lvgl/src/misc/lv_timer.c **** 
 786              		.loc 1 173 5 view .LVU276
 175:Drivers/lvgl/src/misc/lv_timer.c ****     new_timer->timer_cb = timer_xcb;
 787              		.loc 1 175 5 view .LVU277
 178:Drivers/lvgl/src/misc/lv_timer.c ****     new_timer->last_run = lv_tick_get();
 788              		.loc 1 178 23 is_stmt 0 view .LVU278
 789 0010 037D     		ldrb	r3, [r0, #20]	@ zero_extendqisi2
 175:Drivers/lvgl/src/misc/lv_timer.c ****     new_timer->timer_cb = timer_xcb;
 790              		.loc 1 175 23 view .LVU279
 791 0012 0560     		str	r5, [r0]
 176:Drivers/lvgl/src/misc/lv_timer.c ****     new_timer->repeat_count = -1;
 792              		.loc 1 176 5 is_stmt 1 view .LVU280
 177:Drivers/lvgl/src/misc/lv_timer.c ****     new_timer->paused = 0;
 793              		.loc 1 177 29 is_stmt 0 view .LVU281
 794 0014 4FF0FF32 		mov	r2, #-1
 178:Drivers/lvgl/src/misc/lv_timer.c ****     new_timer->last_run = lv_tick_get();
 795              		.loc 1 178 23 view .LVU282
 796 0018 23F00103 		bic	r3, r3, #1
 177:Drivers/lvgl/src/misc/lv_timer.c ****     new_timer->paused = 0;
 797              		.loc 1 177 29 view .LVU283
 798 001c 0261     		str	r2, [r0, #16]
 176:Drivers/lvgl/src/misc/lv_timer.c ****     new_timer->repeat_count = -1;
 799              		.loc 1 176 25 view .LVU284
 800 001e 8760     		str	r7, [r0, #8]
 177:Drivers/lvgl/src/misc/lv_timer.c ****     new_timer->paused = 0;
 801              		.loc 1 177 5 is_stmt 1 view .LVU285
 178:Drivers/lvgl/src/misc/lv_timer.c ****     new_timer->last_run = lv_tick_get();
 802              		.loc 1 178 5 view .LVU286
 178:Drivers/lvgl/src/misc/lv_timer.c ****     new_timer->last_run = lv_tick_get();
 803              		.loc 1 178 23 is_stmt 0 view .LVU287
 804 0020 0375     		strb	r3, [r0, #20]
 179:Drivers/lvgl/src/misc/lv_timer.c ****     new_timer->user_data = user_data;
 805              		.loc 1 179 5 is_stmt 1 view .LVU288
 806 0022 0446     		mov	r4, r0
 179:Drivers/lvgl/src/misc/lv_timer.c ****     new_timer->user_data = user_data;
 807              		.loc 1 179 27 is_stmt 0 view .LVU289
 808 0024 FFF7FEFF 		bl	lv_tick_get
 809              	.LVL55:
 182:Drivers/lvgl/src/misc/lv_timer.c **** 
 810              		.loc 1 182 19 view .LVU290
 811 0028 044B     		ldr	r3, .L79+4
 179:Drivers/lvgl/src/misc/lv_timer.c ****     new_timer->user_data = user_data;
 812              		.loc 1 179 25 discriminator 1 view .LVU291
 813 002a 6060     		str	r0, [r4, #4]
 180:Drivers/lvgl/src/misc/lv_timer.c **** 
 814              		.loc 1 180 5 is_stmt 1 view .LVU292
 182:Drivers/lvgl/src/misc/lv_timer.c **** 
 815              		.loc 1 182 19 is_stmt 0 view .LVU293
 816 002c 0122     		movs	r2, #1
 180:Drivers/lvgl/src/misc/lv_timer.c **** 
 817              		.loc 1 180 26 view .LVU294
 818 002e E660     		str	r6, [r4, #12]
 182:Drivers/lvgl/src/misc/lv_timer.c **** 
 819              		.loc 1 182 5 is_stmt 1 view .LVU295
 182:Drivers/lvgl/src/misc/lv_timer.c **** 
ARM GAS  /var/folders/lp/x54gwt890xv47sdkqj1k04q40000gn/T//ccX4OGqJ.s 			page 26


 820              		.loc 1 182 19 is_stmt 0 view .LVU296
 821 0030 1A70     		strb	r2, [r3]
 184:Drivers/lvgl/src/misc/lv_timer.c **** }
 822              		.loc 1 184 5 is_stmt 1 view .LVU297
 185:Drivers/lvgl/src/misc/lv_timer.c **** 
 823              		.loc 1 185 1 is_stmt 0 view .LVU298
 824 0032 2046     		mov	r0, r4
 825 0034 F8BD     		pop	{r3, r4, r5, r6, r7, pc}
 826              	.LVL56:
 827              	.L77:
 172:Drivers/lvgl/src/misc/lv_timer.c ****     if(new_timer == NULL) return NULL;
 828              		.loc 1 172 5 is_stmt 1 discriminator 1 view .LVU299
 172:Drivers/lvgl/src/misc/lv_timer.c ****     if(new_timer == NULL) return NULL;
 829              		.loc 1 172 5 discriminator 1 view .LVU300
 172:Drivers/lvgl/src/misc/lv_timer.c ****     if(new_timer == NULL) return NULL;
 830              		.loc 1 172 5 discriminator 1 view .LVU301
 172:Drivers/lvgl/src/misc/lv_timer.c ****     if(new_timer == NULL) return NULL;
 831              		.loc 1 172 5 discriminator 1 view .LVU302
 172:Drivers/lvgl/src/misc/lv_timer.c ****     if(new_timer == NULL) return NULL;
 832              		.loc 1 172 5 discriminator 1 view .LVU303
 172:Drivers/lvgl/src/misc/lv_timer.c ****     if(new_timer == NULL) return NULL;
 833              		.loc 1 172 5 discriminator 1 view .LVU304
 172:Drivers/lvgl/src/misc/lv_timer.c ****     if(new_timer == NULL) return NULL;
 834              		.loc 1 172 5 discriminator 1 view .LVU305
 172:Drivers/lvgl/src/misc/lv_timer.c ****     if(new_timer == NULL) return NULL;
 835              		.loc 1 172 5 discriminator 1 view .LVU306
 172:Drivers/lvgl/src/misc/lv_timer.c ****     if(new_timer == NULL) return NULL;
 836              		.loc 1 172 5 discriminator 1 view .LVU307
 172:Drivers/lvgl/src/misc/lv_timer.c ****     if(new_timer == NULL) return NULL;
 837              		.loc 1 172 5 discriminator 1 view .LVU308
 838 0036 FEE7     		b	.L77
 839              	.L80:
 840              		.align	2
 841              	.L79:
 842 0038 00000000 		.word	_lv_timer_ll
 843 003c 00000000 		.word	timer_created
 844              		.cfi_endproc
 845              	.LFE27:
 847              		.section	.text.lv_timer_set_cb,"ax",%progbits
 848              		.align	1
 849              		.p2align 2,,3
 850              		.global	lv_timer_set_cb
 851              		.syntax unified
 852              		.thumb
 853              		.thumb_func
 855              	lv_timer_set_cb:
 856              	.LVL57:
 857              	.LFB28:
 193:Drivers/lvgl/src/misc/lv_timer.c ****     timer->timer_cb = timer_cb;
 858              		.loc 1 193 1 view -0
 859              		.cfi_startproc
 860              		@ args = 0, pretend = 0, frame = 0
 861              		@ frame_needed = 0, uses_anonymous_args = 0
 862              		@ link register save eliminated.
 194:Drivers/lvgl/src/misc/lv_timer.c **** }
 863              		.loc 1 194 5 view .LVU310
 194:Drivers/lvgl/src/misc/lv_timer.c **** }
ARM GAS  /var/folders/lp/x54gwt890xv47sdkqj1k04q40000gn/T//ccX4OGqJ.s 			page 27


 864              		.loc 1 194 21 is_stmt 0 view .LVU311
 865 0000 8160     		str	r1, [r0, #8]
 195:Drivers/lvgl/src/misc/lv_timer.c **** 
 866              		.loc 1 195 1 view .LVU312
 867 0002 7047     		bx	lr
 868              		.cfi_endproc
 869              	.LFE28:
 871              		.section	.text.lv_timer_del,"ax",%progbits
 872              		.align	1
 873              		.p2align 2,,3
 874              		.global	lv_timer_del
 875              		.syntax unified
 876              		.thumb
 877              		.thumb_func
 879              	lv_timer_del:
 880              	.LVL58:
 881              	.LFB29:
 202:Drivers/lvgl/src/misc/lv_timer.c ****     _lv_ll_remove(&LV_GC_ROOT(_lv_timer_ll), timer);
 882              		.loc 1 202 1 is_stmt 1 view -0
 883              		.cfi_startproc
 884              		@ args = 0, pretend = 0, frame = 0
 885              		@ frame_needed = 0, uses_anonymous_args = 0
 203:Drivers/lvgl/src/misc/lv_timer.c ****     timer_deleted = true;
 886              		.loc 1 203 5 view .LVU314
 202:Drivers/lvgl/src/misc/lv_timer.c ****     _lv_ll_remove(&LV_GC_ROOT(_lv_timer_ll), timer);
 887              		.loc 1 202 1 is_stmt 0 view .LVU315
 888 0000 10B5     		push	{r4, lr}
 889              		.cfi_def_cfa_offset 8
 890              		.cfi_offset 4, -8
 891              		.cfi_offset 14, -4
 202:Drivers/lvgl/src/misc/lv_timer.c ****     _lv_ll_remove(&LV_GC_ROOT(_lv_timer_ll), timer);
 892              		.loc 1 202 1 view .LVU316
 893 0002 0446     		mov	r4, r0
 203:Drivers/lvgl/src/misc/lv_timer.c ****     timer_deleted = true;
 894              		.loc 1 203 5 view .LVU317
 895 0004 2146     		mov	r1, r4
 896 0006 0548     		ldr	r0, .L84
 897              	.LVL59:
 203:Drivers/lvgl/src/misc/lv_timer.c ****     timer_deleted = true;
 898              		.loc 1 203 5 view .LVU318
 899 0008 FFF7FEFF 		bl	_lv_ll_remove
 900              	.LVL60:
 204:Drivers/lvgl/src/misc/lv_timer.c **** 
 901              		.loc 1 204 5 is_stmt 1 view .LVU319
 204:Drivers/lvgl/src/misc/lv_timer.c **** 
 902              		.loc 1 204 19 is_stmt 0 view .LVU320
 903 000c 044B     		ldr	r3, .L84+4
 904 000e 0122     		movs	r2, #1
 206:Drivers/lvgl/src/misc/lv_timer.c **** }
 905              		.loc 1 206 5 view .LVU321
 906 0010 2046     		mov	r0, r4
 207:Drivers/lvgl/src/misc/lv_timer.c **** 
 907              		.loc 1 207 1 view .LVU322
 908 0012 BDE81040 		pop	{r4, lr}
 909              		.cfi_restore 14
 910              		.cfi_restore 4
 911              		.cfi_def_cfa_offset 0
ARM GAS  /var/folders/lp/x54gwt890xv47sdkqj1k04q40000gn/T//ccX4OGqJ.s 			page 28


 912              	.LVL61:
 204:Drivers/lvgl/src/misc/lv_timer.c **** 
 913              		.loc 1 204 19 view .LVU323
 914 0016 1A70     		strb	r2, [r3]
 206:Drivers/lvgl/src/misc/lv_timer.c **** }
 915              		.loc 1 206 5 is_stmt 1 view .LVU324
 916 0018 FFF7FEBF 		b	lv_mem_free
 917              	.LVL62:
 918              	.L85:
 206:Drivers/lvgl/src/misc/lv_timer.c **** }
 919              		.loc 1 206 5 is_stmt 0 view .LVU325
 920              		.align	2
 921              	.L84:
 922 001c 00000000 		.word	_lv_timer_ll
 923 0020 00000000 		.word	timer_deleted
 924              		.cfi_endproc
 925              	.LFE29:
 927              		.section	.text.lv_timer_pause,"ax",%progbits
 928              		.align	1
 929              		.p2align 2,,3
 930              		.global	lv_timer_pause
 931              		.syntax unified
 932              		.thumb
 933              		.thumb_func
 935              	lv_timer_pause:
 936              	.LVL63:
 937              	.LFB30:
 214:Drivers/lvgl/src/misc/lv_timer.c ****     timer->paused = true;
 938              		.loc 1 214 1 is_stmt 1 view -0
 939              		.cfi_startproc
 940              		@ args = 0, pretend = 0, frame = 0
 941              		@ frame_needed = 0, uses_anonymous_args = 0
 942              		@ link register save eliminated.
 215:Drivers/lvgl/src/misc/lv_timer.c **** }
 943              		.loc 1 215 5 view .LVU327
 215:Drivers/lvgl/src/misc/lv_timer.c **** }
 944              		.loc 1 215 19 is_stmt 0 view .LVU328
 945 0000 037D     		ldrb	r3, [r0, #20]	@ zero_extendqisi2
 946 0002 43F00103 		orr	r3, r3, #1
 947 0006 0375     		strb	r3, [r0, #20]
 216:Drivers/lvgl/src/misc/lv_timer.c **** 
 948              		.loc 1 216 1 view .LVU329
 949 0008 7047     		bx	lr
 950              		.cfi_endproc
 951              	.LFE30:
 953 000a 00BF     		.section	.text.lv_timer_resume,"ax",%progbits
 954              		.align	1
 955              		.p2align 2,,3
 956              		.global	lv_timer_resume
 957              		.syntax unified
 958              		.thumb
 959              		.thumb_func
 961              	lv_timer_resume:
 962              	.LVL64:
 963              	.LFB31:
 219:Drivers/lvgl/src/misc/lv_timer.c ****     timer->paused = false;
 964              		.loc 1 219 1 is_stmt 1 view -0
ARM GAS  /var/folders/lp/x54gwt890xv47sdkqj1k04q40000gn/T//ccX4OGqJ.s 			page 29


 965              		.cfi_startproc
 966              		@ args = 0, pretend = 0, frame = 0
 967              		@ frame_needed = 0, uses_anonymous_args = 0
 968              		@ link register save eliminated.
 220:Drivers/lvgl/src/misc/lv_timer.c **** }
 969              		.loc 1 220 5 view .LVU331
 220:Drivers/lvgl/src/misc/lv_timer.c **** }
 970              		.loc 1 220 19 is_stmt 0 view .LVU332
 971 0000 037D     		ldrb	r3, [r0, #20]	@ zero_extendqisi2
 972 0002 23F00103 		bic	r3, r3, #1
 973 0006 0375     		strb	r3, [r0, #20]
 221:Drivers/lvgl/src/misc/lv_timer.c **** 
 974              		.loc 1 221 1 view .LVU333
 975 0008 7047     		bx	lr
 976              		.cfi_endproc
 977              	.LFE31:
 979 000a 00BF     		.section	.text.lv_timer_set_period,"ax",%progbits
 980              		.align	1
 981              		.p2align 2,,3
 982              		.global	lv_timer_set_period
 983              		.syntax unified
 984              		.thumb
 985              		.thumb_func
 987              	lv_timer_set_period:
 988              	.LVL65:
 989              	.LFB32:
 229:Drivers/lvgl/src/misc/lv_timer.c ****     timer->period = period;
 990              		.loc 1 229 1 is_stmt 1 view -0
 991              		.cfi_startproc
 992              		@ args = 0, pretend = 0, frame = 0
 993              		@ frame_needed = 0, uses_anonymous_args = 0
 994              		@ link register save eliminated.
 230:Drivers/lvgl/src/misc/lv_timer.c **** }
 995              		.loc 1 230 5 view .LVU335
 230:Drivers/lvgl/src/misc/lv_timer.c **** }
 996              		.loc 1 230 19 is_stmt 0 view .LVU336
 997 0000 0160     		str	r1, [r0]
 231:Drivers/lvgl/src/misc/lv_timer.c **** 
 998              		.loc 1 231 1 view .LVU337
 999 0002 7047     		bx	lr
 1000              		.cfi_endproc
 1001              	.LFE32:
 1003              		.section	.text.lv_timer_ready,"ax",%progbits
 1004              		.align	1
 1005              		.p2align 2,,3
 1006              		.global	lv_timer_ready
 1007              		.syntax unified
 1008              		.thumb
 1009              		.thumb_func
 1011              	lv_timer_ready:
 1012              	.LVL66:
 1013              	.LFB33:
 238:Drivers/lvgl/src/misc/lv_timer.c ****     timer->last_run = lv_tick_get() - timer->period - 1;
 1014              		.loc 1 238 1 is_stmt 1 view -0
 1015              		.cfi_startproc
 1016              		@ args = 0, pretend = 0, frame = 0
 1017              		@ frame_needed = 0, uses_anonymous_args = 0
ARM GAS  /var/folders/lp/x54gwt890xv47sdkqj1k04q40000gn/T//ccX4OGqJ.s 			page 30


 239:Drivers/lvgl/src/misc/lv_timer.c **** }
 1018              		.loc 1 239 5 view .LVU339
 238:Drivers/lvgl/src/misc/lv_timer.c ****     timer->last_run = lv_tick_get() - timer->period - 1;
 1019              		.loc 1 238 1 is_stmt 0 view .LVU340
 1020 0000 10B5     		push	{r4, lr}
 1021              		.cfi_def_cfa_offset 8
 1022              		.cfi_offset 4, -8
 1023              		.cfi_offset 14, -4
 238:Drivers/lvgl/src/misc/lv_timer.c ****     timer->last_run = lv_tick_get() - timer->period - 1;
 1024              		.loc 1 238 1 view .LVU341
 1025 0002 0446     		mov	r4, r0
 239:Drivers/lvgl/src/misc/lv_timer.c **** }
 1026              		.loc 1 239 23 view .LVU342
 1027 0004 FFF7FEFF 		bl	lv_tick_get
 1028              	.LVL67:
 239:Drivers/lvgl/src/misc/lv_timer.c **** }
 1029              		.loc 1 239 53 discriminator 1 view .LVU343
 1030 0008 2368     		ldr	r3, [r4]
 1031 000a C31A     		subs	r3, r0, r3
 1032 000c 013B     		subs	r3, r3, #1
 239:Drivers/lvgl/src/misc/lv_timer.c **** }
 1033              		.loc 1 239 21 discriminator 1 view .LVU344
 1034 000e 6360     		str	r3, [r4, #4]
 240:Drivers/lvgl/src/misc/lv_timer.c **** 
 1035              		.loc 1 240 1 view .LVU345
 1036 0010 10BD     		pop	{r4, pc}
 240:Drivers/lvgl/src/misc/lv_timer.c **** 
 1037              		.loc 1 240 1 view .LVU346
 1038              		.cfi_endproc
 1039              	.LFE33:
 1041 0012 00BF     		.section	.text.lv_timer_set_repeat_count,"ax",%progbits
 1042              		.align	1
 1043              		.p2align 2,,3
 1044              		.global	lv_timer_set_repeat_count
 1045              		.syntax unified
 1046              		.thumb
 1047              		.thumb_func
 1049              	lv_timer_set_repeat_count:
 1050              	.LVL68:
 1051              	.LFB34:
 248:Drivers/lvgl/src/misc/lv_timer.c ****     timer->repeat_count = repeat_count;
 1052              		.loc 1 248 1 is_stmt 1 view -0
 1053              		.cfi_startproc
 1054              		@ args = 0, pretend = 0, frame = 0
 1055              		@ frame_needed = 0, uses_anonymous_args = 0
 1056              		@ link register save eliminated.
 249:Drivers/lvgl/src/misc/lv_timer.c **** }
 1057              		.loc 1 249 5 view .LVU348
 249:Drivers/lvgl/src/misc/lv_timer.c **** }
 1058              		.loc 1 249 25 is_stmt 0 view .LVU349
 1059 0000 0161     		str	r1, [r0, #16]
 250:Drivers/lvgl/src/misc/lv_timer.c **** 
 1060              		.loc 1 250 1 view .LVU350
 1061 0002 7047     		bx	lr
 1062              		.cfi_endproc
 1063              	.LFE34:
 1065              		.section	.text.lv_timer_reset,"ax",%progbits
ARM GAS  /var/folders/lp/x54gwt890xv47sdkqj1k04q40000gn/T//ccX4OGqJ.s 			page 31


 1066              		.align	1
 1067              		.p2align 2,,3
 1068              		.global	lv_timer_reset
 1069              		.syntax unified
 1070              		.thumb
 1071              		.thumb_func
 1073              	lv_timer_reset:
 1074              	.LVL69:
 1075              	.LFB35:
 258:Drivers/lvgl/src/misc/lv_timer.c ****     timer->last_run = lv_tick_get();
 1076              		.loc 1 258 1 is_stmt 1 view -0
 1077              		.cfi_startproc
 1078              		@ args = 0, pretend = 0, frame = 0
 1079              		@ frame_needed = 0, uses_anonymous_args = 0
 259:Drivers/lvgl/src/misc/lv_timer.c **** }
 1080              		.loc 1 259 5 view .LVU352
 258:Drivers/lvgl/src/misc/lv_timer.c ****     timer->last_run = lv_tick_get();
 1081              		.loc 1 258 1 is_stmt 0 view .LVU353
 1082 0000 10B5     		push	{r4, lr}
 1083              		.cfi_def_cfa_offset 8
 1084              		.cfi_offset 4, -8
 1085              		.cfi_offset 14, -4
 258:Drivers/lvgl/src/misc/lv_timer.c ****     timer->last_run = lv_tick_get();
 1086              		.loc 1 258 1 view .LVU354
 1087 0002 0446     		mov	r4, r0
 259:Drivers/lvgl/src/misc/lv_timer.c **** }
 1088              		.loc 1 259 23 view .LVU355
 1089 0004 FFF7FEFF 		bl	lv_tick_get
 1090              	.LVL70:
 259:Drivers/lvgl/src/misc/lv_timer.c **** }
 1091              		.loc 1 259 21 discriminator 1 view .LVU356
 1092 0008 6060     		str	r0, [r4, #4]
 260:Drivers/lvgl/src/misc/lv_timer.c **** 
 1093              		.loc 1 260 1 view .LVU357
 1094 000a 10BD     		pop	{r4, pc}
 260:Drivers/lvgl/src/misc/lv_timer.c **** 
 1095              		.loc 1 260 1 view .LVU358
 1096              		.cfi_endproc
 1097              	.LFE35:
 1099              		.section	.text.lv_timer_enable,"ax",%progbits
 1100              		.align	1
 1101              		.p2align 2,,3
 1102              		.global	lv_timer_enable
 1103              		.syntax unified
 1104              		.thumb
 1105              		.thumb_func
 1107              	lv_timer_enable:
 1108              	.LVL71:
 1109              	.LFB36:
 267:Drivers/lvgl/src/misc/lv_timer.c ****     lv_timer_run = en;
 1110              		.loc 1 267 1 is_stmt 1 view -0
 1111              		.cfi_startproc
 1112              		@ args = 0, pretend = 0, frame = 0
 1113              		@ frame_needed = 0, uses_anonymous_args = 0
 1114              		@ link register save eliminated.
 268:Drivers/lvgl/src/misc/lv_timer.c **** }
 1115              		.loc 1 268 5 view .LVU360
ARM GAS  /var/folders/lp/x54gwt890xv47sdkqj1k04q40000gn/T//ccX4OGqJ.s 			page 32


 268:Drivers/lvgl/src/misc/lv_timer.c **** }
 1116              		.loc 1 268 18 is_stmt 0 view .LVU361
 1117 0000 014B     		ldr	r3, .L95
 1118 0002 1870     		strb	r0, [r3]
 269:Drivers/lvgl/src/misc/lv_timer.c **** 
 1119              		.loc 1 269 1 view .LVU362
 1120 0004 7047     		bx	lr
 1121              	.L96:
 1122 0006 00BF     		.align	2
 1123              	.L95:
 1124 0008 00000000 		.word	lv_timer_run
 1125              		.cfi_endproc
 1126              	.LFE36:
 1128              		.section	.text.lv_timer_get_idle,"ax",%progbits
 1129              		.align	1
 1130              		.p2align 2,,3
 1131              		.global	lv_timer_get_idle
 1132              		.syntax unified
 1133              		.thumb
 1134              		.thumb_func
 1136              	lv_timer_get_idle:
 1137              	.LFB37:
 276:Drivers/lvgl/src/misc/lv_timer.c ****     return idle_last;
 1138              		.loc 1 276 1 is_stmt 1 view -0
 1139              		.cfi_startproc
 1140              		@ args = 0, pretend = 0, frame = 0
 1141              		@ frame_needed = 0, uses_anonymous_args = 0
 1142              		@ link register save eliminated.
 277:Drivers/lvgl/src/misc/lv_timer.c **** }
 1143              		.loc 1 277 5 view .LVU364
 277:Drivers/lvgl/src/misc/lv_timer.c **** }
 1144              		.loc 1 277 12 is_stmt 0 view .LVU365
 1145 0000 014B     		ldr	r3, .L98
 278:Drivers/lvgl/src/misc/lv_timer.c **** 
 1146              		.loc 1 278 1 view .LVU366
 1147 0002 1878     		ldrb	r0, [r3]	@ zero_extendqisi2
 1148 0004 7047     		bx	lr
 1149              	.L99:
 1150 0006 00BF     		.align	2
 1151              	.L98:
 1152 0008 00000000 		.word	idle_last
 1153              		.cfi_endproc
 1154              	.LFE37:
 1156              		.section	.text.lv_timer_get_next,"ax",%progbits
 1157              		.align	1
 1158              		.p2align 2,,3
 1159              		.global	lv_timer_get_next
 1160              		.syntax unified
 1161              		.thumb
 1162              		.thumb_func
 1164              	lv_timer_get_next:
 1165              	.LVL72:
 1166              	.LFB38:
 286:Drivers/lvgl/src/misc/lv_timer.c ****     if(timer == NULL) return _lv_ll_get_head(&LV_GC_ROOT(_lv_timer_ll));
 1167              		.loc 1 286 1 is_stmt 1 view -0
 1168              		.cfi_startproc
 1169              		@ args = 0, pretend = 0, frame = 0
ARM GAS  /var/folders/lp/x54gwt890xv47sdkqj1k04q40000gn/T//ccX4OGqJ.s 			page 33


 1170              		@ frame_needed = 0, uses_anonymous_args = 0
 1171              		@ link register save eliminated.
 287:Drivers/lvgl/src/misc/lv_timer.c ****     else return _lv_ll_get_next(&LV_GC_ROOT(_lv_timer_ll), timer);
 1172              		.loc 1 287 5 view .LVU368
 287:Drivers/lvgl/src/misc/lv_timer.c ****     else return _lv_ll_get_next(&LV_GC_ROOT(_lv_timer_ll), timer);
 1173              		.loc 1 287 7 is_stmt 0 view .LVU369
 1174 0000 0146     		mov	r1, r0
 287:Drivers/lvgl/src/misc/lv_timer.c ****     else return _lv_ll_get_next(&LV_GC_ROOT(_lv_timer_ll), timer);
 1175              		.loc 1 287 30 discriminator 1 view .LVU370
 1176 0002 0348     		ldr	r0, .L103
 1177              	.LVL73:
 287:Drivers/lvgl/src/misc/lv_timer.c ****     else return _lv_ll_get_next(&LV_GC_ROOT(_lv_timer_ll), timer);
 1178              		.loc 1 287 7 view .LVU371
 1179 0004 09B1     		cbz	r1, .L102
 288:Drivers/lvgl/src/misc/lv_timer.c **** }
 1180              		.loc 1 288 10 is_stmt 1 view .LVU372
 288:Drivers/lvgl/src/misc/lv_timer.c **** }
 1181              		.loc 1 288 17 is_stmt 0 view .LVU373
 1182 0006 FFF7FEBF 		b	_lv_ll_get_next
 1183              	.LVL74:
 1184              	.L102:
 287:Drivers/lvgl/src/misc/lv_timer.c ****     else return _lv_ll_get_next(&LV_GC_ROOT(_lv_timer_ll), timer);
 1185              		.loc 1 287 23 is_stmt 1 discriminator 1 view .LVU374
 287:Drivers/lvgl/src/misc/lv_timer.c ****     else return _lv_ll_get_next(&LV_GC_ROOT(_lv_timer_ll), timer);
 1186              		.loc 1 287 30 is_stmt 0 discriminator 1 view .LVU375
 1187 000a FFF7FEBF 		b	_lv_ll_get_head
 1188              	.LVL75:
 1189              	.L104:
 287:Drivers/lvgl/src/misc/lv_timer.c ****     else return _lv_ll_get_next(&LV_GC_ROOT(_lv_timer_ll), timer);
 1190              		.loc 1 287 30 discriminator 1 view .LVU376
 1191 000e 00BF     		.align	2
 1192              	.L103:
 1193 0010 00000000 		.word	_lv_timer_ll
 1194              		.cfi_endproc
 1195              	.LFE38:
 1197              		.section	.bss.idle_period_start.0,"aw",%nobits
 1198              		.align	2
 1201              	idle_period_start.0:
 1202 0000 00000000 		.space	4
 1203              		.section	.bss.busy_time.1,"aw",%nobits
 1204              		.align	2
 1207              	busy_time.1:
 1208 0000 00000000 		.space	4
 1209              		.section	.bss.run_cnt.2,"aw",%nobits
 1210              		.align	2
 1213              	run_cnt.2:
 1214 0000 00000000 		.space	4
 1215              		.section	.bss.already_running.3,"aw",%nobits
 1218              	already_running.3:
 1219 0000 00       		.space	1
 1220              		.section	.bss.timer_created,"aw",%nobits
 1223              	timer_created:
 1224 0000 00       		.space	1
 1225              		.section	.bss.timer_deleted,"aw",%nobits
 1228              	timer_deleted:
 1229 0000 00       		.space	1
 1230              		.section	.bss.idle_last,"aw",%nobits
ARM GAS  /var/folders/lp/x54gwt890xv47sdkqj1k04q40000gn/T//ccX4OGqJ.s 			page 34


 1233              	idle_last:
 1234 0000 00       		.space	1
 1235              		.section	.bss.lv_timer_run,"aw",%nobits
 1238              	lv_timer_run:
 1239 0000 00       		.space	1
 1240              		.text
 1241              	.Letext0:
 1242              		.file 2 "/Users/jr/Library/Application Support/Code/User/globalStorage/bmd.stm32-for-vscode/@xpack
 1243              		.file 3 "/Users/jr/Library/Application Support/Code/User/globalStorage/bmd.stm32-for-vscode/@xpack
 1244              		.file 4 "Drivers/lvgl/src/misc/lv_timer.h"
 1245              		.file 5 "Drivers/lvgl/src/misc/lv_ll.h"
 1246              		.file 6 "Drivers/lvgl/src/misc/lv_gc.h"
 1247              		.file 7 "Drivers/lvgl/src/misc/lv_mem.h"
 1248              		.file 8 "Drivers/lvgl/src/misc/../hal/lv_hal_tick.h"
ARM GAS  /var/folders/lp/x54gwt890xv47sdkqj1k04q40000gn/T//ccX4OGqJ.s 			page 35

