ARM GAS  /var/folders/lp/x54gwt890xv47sdkqj1k04q40000gn/T//cc6ygGfE.s 			page 1


   1              		.cpu cortex-m4
   2              		.arch armv7e-m
   3              		.fpu fpv4-sp-d16
   4              		.eabi_attribute 27, 1
   5              		.eabi_attribute 28, 1
   6              		.eabi_attribute 20, 1
   7              		.eabi_attribute 21, 1
   8              		.eabi_attribute 23, 3
   9              		.eabi_attribute 24, 1
  10              		.eabi_attribute 25, 1
  11              		.eabi_attribute 26, 1
  12              		.eabi_attribute 30, 2
  13              		.eabi_attribute 34, 1
  14              		.eabi_attribute 18, 4
  15              		.file	"lv_theme_mono.c"
  16              		.text
  17              	.Ltext0:
  18              		.cfi_sections	.debug_frame
  19              		.file 1 "Drivers/lvgl/src/extra/themes/mono/lv_theme_mono.c"
  20              		.section	.text.theme_apply,"ax",%progbits
  21              		.align	1
  22              		.p2align 2,,3
  23              		.syntax unified
  24              		.thumb
  25              		.thumb_func
  27              	theme_apply:
  28              	.LVL0:
  29              	.LFB207:
   1:Drivers/lvgl/src/extra/themes/mono/lv_theme_mono.c **** /**
   2:Drivers/lvgl/src/extra/themes/mono/lv_theme_mono.c ****  * @file lv_theme_mono.c
   3:Drivers/lvgl/src/extra/themes/mono/lv_theme_mono.c ****  *
   4:Drivers/lvgl/src/extra/themes/mono/lv_theme_mono.c ****  */
   5:Drivers/lvgl/src/extra/themes/mono/lv_theme_mono.c **** 
   6:Drivers/lvgl/src/extra/themes/mono/lv_theme_mono.c **** /*********************
   7:Drivers/lvgl/src/extra/themes/mono/lv_theme_mono.c ****  *      INCLUDES
   8:Drivers/lvgl/src/extra/themes/mono/lv_theme_mono.c ****  *********************/
   9:Drivers/lvgl/src/extra/themes/mono/lv_theme_mono.c **** #include "../../../lvgl.h"
  10:Drivers/lvgl/src/extra/themes/mono/lv_theme_mono.c **** 
  11:Drivers/lvgl/src/extra/themes/mono/lv_theme_mono.c **** #if LV_USE_THEME_MONO
  12:Drivers/lvgl/src/extra/themes/mono/lv_theme_mono.c **** 
  13:Drivers/lvgl/src/extra/themes/mono/lv_theme_mono.c **** #include "lv_theme_mono.h"
  14:Drivers/lvgl/src/extra/themes/mono/lv_theme_mono.c **** #include "../../../misc/lv_gc.h"
  15:Drivers/lvgl/src/extra/themes/mono/lv_theme_mono.c **** 
  16:Drivers/lvgl/src/extra/themes/mono/lv_theme_mono.c **** /*********************
  17:Drivers/lvgl/src/extra/themes/mono/lv_theme_mono.c ****  *      DEFINES
  18:Drivers/lvgl/src/extra/themes/mono/lv_theme_mono.c ****  *********************/
  19:Drivers/lvgl/src/extra/themes/mono/lv_theme_mono.c **** 
  20:Drivers/lvgl/src/extra/themes/mono/lv_theme_mono.c **** #define COLOR_FG      dark_bg ? lv_color_white() : lv_color_black()
  21:Drivers/lvgl/src/extra/themes/mono/lv_theme_mono.c **** #define COLOR_BG      dark_bg ? lv_color_black() : lv_color_white()
  22:Drivers/lvgl/src/extra/themes/mono/lv_theme_mono.c **** 
  23:Drivers/lvgl/src/extra/themes/mono/lv_theme_mono.c **** #define BORDER_W_NORMAL  1
  24:Drivers/lvgl/src/extra/themes/mono/lv_theme_mono.c **** #define BORDER_W_PR      3
  25:Drivers/lvgl/src/extra/themes/mono/lv_theme_mono.c **** #define BORDER_W_DIS     0
  26:Drivers/lvgl/src/extra/themes/mono/lv_theme_mono.c **** #define BORDER_W_FOCUS   1
  27:Drivers/lvgl/src/extra/themes/mono/lv_theme_mono.c **** #define BORDER_W_EDIT    2
  28:Drivers/lvgl/src/extra/themes/mono/lv_theme_mono.c **** #define PAD_DEF          4
  29:Drivers/lvgl/src/extra/themes/mono/lv_theme_mono.c **** 
ARM GAS  /var/folders/lp/x54gwt890xv47sdkqj1k04q40000gn/T//cc6ygGfE.s 			page 2


  30:Drivers/lvgl/src/extra/themes/mono/lv_theme_mono.c **** /**********************
  31:Drivers/lvgl/src/extra/themes/mono/lv_theme_mono.c ****  *      TYPEDEFS
  32:Drivers/lvgl/src/extra/themes/mono/lv_theme_mono.c ****  **********************/
  33:Drivers/lvgl/src/extra/themes/mono/lv_theme_mono.c **** typedef struct {
  34:Drivers/lvgl/src/extra/themes/mono/lv_theme_mono.c ****     lv_style_t scr;
  35:Drivers/lvgl/src/extra/themes/mono/lv_theme_mono.c ****     lv_style_t card;
  36:Drivers/lvgl/src/extra/themes/mono/lv_theme_mono.c ****     lv_style_t scrollbar;
  37:Drivers/lvgl/src/extra/themes/mono/lv_theme_mono.c ****     lv_style_t btn;
  38:Drivers/lvgl/src/extra/themes/mono/lv_theme_mono.c ****     lv_style_t pr;
  39:Drivers/lvgl/src/extra/themes/mono/lv_theme_mono.c ****     lv_style_t inv;
  40:Drivers/lvgl/src/extra/themes/mono/lv_theme_mono.c ****     lv_style_t disabled;
  41:Drivers/lvgl/src/extra/themes/mono/lv_theme_mono.c ****     lv_style_t focus;
  42:Drivers/lvgl/src/extra/themes/mono/lv_theme_mono.c ****     lv_style_t edit;
  43:Drivers/lvgl/src/extra/themes/mono/lv_theme_mono.c ****     lv_style_t pad_gap;
  44:Drivers/lvgl/src/extra/themes/mono/lv_theme_mono.c ****     lv_style_t pad_zero;
  45:Drivers/lvgl/src/extra/themes/mono/lv_theme_mono.c ****     lv_style_t no_radius;
  46:Drivers/lvgl/src/extra/themes/mono/lv_theme_mono.c ****     lv_style_t radius_circle;
  47:Drivers/lvgl/src/extra/themes/mono/lv_theme_mono.c ****     lv_style_t large_border;
  48:Drivers/lvgl/src/extra/themes/mono/lv_theme_mono.c ****     lv_style_t large_line_space;
  49:Drivers/lvgl/src/extra/themes/mono/lv_theme_mono.c ****     lv_style_t underline;
  50:Drivers/lvgl/src/extra/themes/mono/lv_theme_mono.c **** #if LV_USE_TEXTAREA
  51:Drivers/lvgl/src/extra/themes/mono/lv_theme_mono.c ****     lv_style_t ta_cursor;
  52:Drivers/lvgl/src/extra/themes/mono/lv_theme_mono.c **** #endif
  53:Drivers/lvgl/src/extra/themes/mono/lv_theme_mono.c **** } my_theme_styles_t;
  54:Drivers/lvgl/src/extra/themes/mono/lv_theme_mono.c **** 
  55:Drivers/lvgl/src/extra/themes/mono/lv_theme_mono.c **** 
  56:Drivers/lvgl/src/extra/themes/mono/lv_theme_mono.c **** /**********************
  57:Drivers/lvgl/src/extra/themes/mono/lv_theme_mono.c ****  *  STATIC PROTOTYPES
  58:Drivers/lvgl/src/extra/themes/mono/lv_theme_mono.c ****  **********************/
  59:Drivers/lvgl/src/extra/themes/mono/lv_theme_mono.c **** static void style_init_reset(lv_style_t * style);
  60:Drivers/lvgl/src/extra/themes/mono/lv_theme_mono.c **** static void theme_apply(lv_theme_t * th, lv_obj_t * obj);
  61:Drivers/lvgl/src/extra/themes/mono/lv_theme_mono.c **** 
  62:Drivers/lvgl/src/extra/themes/mono/lv_theme_mono.c **** /**********************
  63:Drivers/lvgl/src/extra/themes/mono/lv_theme_mono.c ****  *  STATIC VARIABLES
  64:Drivers/lvgl/src/extra/themes/mono/lv_theme_mono.c ****  **********************/
  65:Drivers/lvgl/src/extra/themes/mono/lv_theme_mono.c **** static my_theme_styles_t * styles;
  66:Drivers/lvgl/src/extra/themes/mono/lv_theme_mono.c **** static lv_theme_t theme;
  67:Drivers/lvgl/src/extra/themes/mono/lv_theme_mono.c **** static bool inited;
  68:Drivers/lvgl/src/extra/themes/mono/lv_theme_mono.c **** 
  69:Drivers/lvgl/src/extra/themes/mono/lv_theme_mono.c **** /**********************
  70:Drivers/lvgl/src/extra/themes/mono/lv_theme_mono.c ****  *      MACROS
  71:Drivers/lvgl/src/extra/themes/mono/lv_theme_mono.c ****  **********************/
  72:Drivers/lvgl/src/extra/themes/mono/lv_theme_mono.c **** 
  73:Drivers/lvgl/src/extra/themes/mono/lv_theme_mono.c **** /**********************
  74:Drivers/lvgl/src/extra/themes/mono/lv_theme_mono.c ****  *   STATIC FUNCTIONS
  75:Drivers/lvgl/src/extra/themes/mono/lv_theme_mono.c ****  **********************/
  76:Drivers/lvgl/src/extra/themes/mono/lv_theme_mono.c **** 
  77:Drivers/lvgl/src/extra/themes/mono/lv_theme_mono.c **** static void style_init(bool dark_bg, const lv_font_t * font)
  78:Drivers/lvgl/src/extra/themes/mono/lv_theme_mono.c **** {
  79:Drivers/lvgl/src/extra/themes/mono/lv_theme_mono.c ****     style_init_reset(&styles->scrollbar);
  80:Drivers/lvgl/src/extra/themes/mono/lv_theme_mono.c ****     lv_style_set_bg_opa(&styles->scrollbar, LV_OPA_COVER);
  81:Drivers/lvgl/src/extra/themes/mono/lv_theme_mono.c ****     lv_style_set_bg_color(&styles->scrollbar, COLOR_FG);
  82:Drivers/lvgl/src/extra/themes/mono/lv_theme_mono.c ****     lv_style_set_width(&styles->scrollbar,  PAD_DEF);
  83:Drivers/lvgl/src/extra/themes/mono/lv_theme_mono.c **** 
  84:Drivers/lvgl/src/extra/themes/mono/lv_theme_mono.c ****     style_init_reset(&styles->scr);
  85:Drivers/lvgl/src/extra/themes/mono/lv_theme_mono.c ****     lv_style_set_bg_opa(&styles->scr, LV_OPA_COVER);
  86:Drivers/lvgl/src/extra/themes/mono/lv_theme_mono.c ****     lv_style_set_bg_color(&styles->scr, COLOR_BG);
ARM GAS  /var/folders/lp/x54gwt890xv47sdkqj1k04q40000gn/T//cc6ygGfE.s 			page 3


  87:Drivers/lvgl/src/extra/themes/mono/lv_theme_mono.c ****     lv_style_set_text_color(&styles->scr, COLOR_FG);
  88:Drivers/lvgl/src/extra/themes/mono/lv_theme_mono.c ****     lv_style_set_pad_row(&styles->scr, PAD_DEF);
  89:Drivers/lvgl/src/extra/themes/mono/lv_theme_mono.c ****     lv_style_set_pad_column(&styles->scr, PAD_DEF);
  90:Drivers/lvgl/src/extra/themes/mono/lv_theme_mono.c ****     lv_style_set_text_font(&styles->scr, font);
  91:Drivers/lvgl/src/extra/themes/mono/lv_theme_mono.c **** 
  92:Drivers/lvgl/src/extra/themes/mono/lv_theme_mono.c ****     style_init_reset(&styles->card);
  93:Drivers/lvgl/src/extra/themes/mono/lv_theme_mono.c ****     lv_style_set_bg_opa(&styles->card, LV_OPA_COVER);
  94:Drivers/lvgl/src/extra/themes/mono/lv_theme_mono.c ****     lv_style_set_bg_color(&styles->card, COLOR_BG);
  95:Drivers/lvgl/src/extra/themes/mono/lv_theme_mono.c ****     lv_style_set_border_color(&styles->card, COLOR_FG);
  96:Drivers/lvgl/src/extra/themes/mono/lv_theme_mono.c ****     lv_style_set_radius(&styles->card, 2);
  97:Drivers/lvgl/src/extra/themes/mono/lv_theme_mono.c ****     lv_style_set_border_width(&styles->card, BORDER_W_NORMAL);
  98:Drivers/lvgl/src/extra/themes/mono/lv_theme_mono.c ****     lv_style_set_pad_all(&styles->card, PAD_DEF);
  99:Drivers/lvgl/src/extra/themes/mono/lv_theme_mono.c ****     lv_style_set_pad_gap(&styles->card, PAD_DEF);
 100:Drivers/lvgl/src/extra/themes/mono/lv_theme_mono.c ****     lv_style_set_text_color(&styles->card, COLOR_FG);
 101:Drivers/lvgl/src/extra/themes/mono/lv_theme_mono.c ****     lv_style_set_line_width(&styles->card, 2);
 102:Drivers/lvgl/src/extra/themes/mono/lv_theme_mono.c ****     lv_style_set_line_color(&styles->card, COLOR_FG);
 103:Drivers/lvgl/src/extra/themes/mono/lv_theme_mono.c ****     lv_style_set_arc_width(&styles->card, 2);
 104:Drivers/lvgl/src/extra/themes/mono/lv_theme_mono.c ****     lv_style_set_arc_color(&styles->card, COLOR_FG);
 105:Drivers/lvgl/src/extra/themes/mono/lv_theme_mono.c ****     lv_style_set_outline_color(&styles->card, COLOR_FG);
 106:Drivers/lvgl/src/extra/themes/mono/lv_theme_mono.c ****     lv_style_set_anim_time(&styles->card, 300);
 107:Drivers/lvgl/src/extra/themes/mono/lv_theme_mono.c **** 
 108:Drivers/lvgl/src/extra/themes/mono/lv_theme_mono.c ****     style_init_reset(&styles->pr);
 109:Drivers/lvgl/src/extra/themes/mono/lv_theme_mono.c ****     lv_style_set_border_width(&styles->pr, BORDER_W_PR);
 110:Drivers/lvgl/src/extra/themes/mono/lv_theme_mono.c **** 
 111:Drivers/lvgl/src/extra/themes/mono/lv_theme_mono.c ****     style_init_reset(&styles->inv);
 112:Drivers/lvgl/src/extra/themes/mono/lv_theme_mono.c ****     lv_style_set_bg_opa(&styles->inv, LV_OPA_COVER);
 113:Drivers/lvgl/src/extra/themes/mono/lv_theme_mono.c ****     lv_style_set_bg_color(&styles->inv, COLOR_FG);
 114:Drivers/lvgl/src/extra/themes/mono/lv_theme_mono.c ****     lv_style_set_border_color(&styles->inv, COLOR_BG);
 115:Drivers/lvgl/src/extra/themes/mono/lv_theme_mono.c ****     lv_style_set_line_color(&styles->inv, COLOR_BG);
 116:Drivers/lvgl/src/extra/themes/mono/lv_theme_mono.c ****     lv_style_set_arc_color(&styles->inv, COLOR_BG);
 117:Drivers/lvgl/src/extra/themes/mono/lv_theme_mono.c ****     lv_style_set_text_color(&styles->inv, COLOR_BG);
 118:Drivers/lvgl/src/extra/themes/mono/lv_theme_mono.c ****     lv_style_set_outline_color(&styles->inv, COLOR_BG);
 119:Drivers/lvgl/src/extra/themes/mono/lv_theme_mono.c **** 
 120:Drivers/lvgl/src/extra/themes/mono/lv_theme_mono.c ****     style_init_reset(&styles->disabled);
 121:Drivers/lvgl/src/extra/themes/mono/lv_theme_mono.c ****     lv_style_set_border_width(&styles->disabled, BORDER_W_DIS);
 122:Drivers/lvgl/src/extra/themes/mono/lv_theme_mono.c **** 
 123:Drivers/lvgl/src/extra/themes/mono/lv_theme_mono.c ****     style_init_reset(&styles->focus);
 124:Drivers/lvgl/src/extra/themes/mono/lv_theme_mono.c ****     lv_style_set_outline_width(&styles->focus, 1);
 125:Drivers/lvgl/src/extra/themes/mono/lv_theme_mono.c ****     lv_style_set_outline_pad(&styles->focus, BORDER_W_FOCUS);
 126:Drivers/lvgl/src/extra/themes/mono/lv_theme_mono.c **** 
 127:Drivers/lvgl/src/extra/themes/mono/lv_theme_mono.c ****     style_init_reset(&styles->edit);
 128:Drivers/lvgl/src/extra/themes/mono/lv_theme_mono.c ****     lv_style_set_outline_width(&styles->edit, BORDER_W_EDIT);
 129:Drivers/lvgl/src/extra/themes/mono/lv_theme_mono.c **** 
 130:Drivers/lvgl/src/extra/themes/mono/lv_theme_mono.c ****     style_init_reset(&styles->large_border);
 131:Drivers/lvgl/src/extra/themes/mono/lv_theme_mono.c ****     lv_style_set_border_width(&styles->large_border, BORDER_W_EDIT);
 132:Drivers/lvgl/src/extra/themes/mono/lv_theme_mono.c **** 
 133:Drivers/lvgl/src/extra/themes/mono/lv_theme_mono.c ****     style_init_reset(&styles->pad_gap);
 134:Drivers/lvgl/src/extra/themes/mono/lv_theme_mono.c ****     lv_style_set_pad_gap(&styles->pad_gap, PAD_DEF);
 135:Drivers/lvgl/src/extra/themes/mono/lv_theme_mono.c **** 
 136:Drivers/lvgl/src/extra/themes/mono/lv_theme_mono.c ****     style_init_reset(&styles->pad_zero);
 137:Drivers/lvgl/src/extra/themes/mono/lv_theme_mono.c ****     lv_style_set_pad_all(&styles->pad_zero, 0);
 138:Drivers/lvgl/src/extra/themes/mono/lv_theme_mono.c ****     lv_style_set_pad_gap(&styles->pad_zero, 0);
 139:Drivers/lvgl/src/extra/themes/mono/lv_theme_mono.c **** 
 140:Drivers/lvgl/src/extra/themes/mono/lv_theme_mono.c ****     style_init_reset(&styles->no_radius);
 141:Drivers/lvgl/src/extra/themes/mono/lv_theme_mono.c ****     lv_style_set_radius(&styles->no_radius, 0);
 142:Drivers/lvgl/src/extra/themes/mono/lv_theme_mono.c **** 
 143:Drivers/lvgl/src/extra/themes/mono/lv_theme_mono.c ****     style_init_reset(&styles->radius_circle);
ARM GAS  /var/folders/lp/x54gwt890xv47sdkqj1k04q40000gn/T//cc6ygGfE.s 			page 4


 144:Drivers/lvgl/src/extra/themes/mono/lv_theme_mono.c ****     lv_style_set_radius(&styles->radius_circle, LV_RADIUS_CIRCLE);
 145:Drivers/lvgl/src/extra/themes/mono/lv_theme_mono.c **** 
 146:Drivers/lvgl/src/extra/themes/mono/lv_theme_mono.c ****     style_init_reset(&styles->large_line_space);
 147:Drivers/lvgl/src/extra/themes/mono/lv_theme_mono.c ****     lv_style_set_text_line_space(&styles->large_line_space, 6);
 148:Drivers/lvgl/src/extra/themes/mono/lv_theme_mono.c **** 
 149:Drivers/lvgl/src/extra/themes/mono/lv_theme_mono.c ****     style_init_reset(&styles->underline);
 150:Drivers/lvgl/src/extra/themes/mono/lv_theme_mono.c ****     lv_style_set_text_decor(&styles->underline, LV_TEXT_DECOR_UNDERLINE);
 151:Drivers/lvgl/src/extra/themes/mono/lv_theme_mono.c **** 
 152:Drivers/lvgl/src/extra/themes/mono/lv_theme_mono.c **** #if LV_USE_TEXTAREA
 153:Drivers/lvgl/src/extra/themes/mono/lv_theme_mono.c ****     style_init_reset(&styles->ta_cursor);
 154:Drivers/lvgl/src/extra/themes/mono/lv_theme_mono.c ****     lv_style_set_border_side(&styles->ta_cursor, LV_BORDER_SIDE_LEFT);
 155:Drivers/lvgl/src/extra/themes/mono/lv_theme_mono.c ****     lv_style_set_border_color(&styles->ta_cursor, COLOR_FG);
 156:Drivers/lvgl/src/extra/themes/mono/lv_theme_mono.c ****     lv_style_set_border_width(&styles->ta_cursor, 2);
 157:Drivers/lvgl/src/extra/themes/mono/lv_theme_mono.c ****     lv_style_set_bg_opa(&styles->ta_cursor, LV_OPA_TRANSP);
 158:Drivers/lvgl/src/extra/themes/mono/lv_theme_mono.c ****     lv_style_set_anim_time(&styles->ta_cursor, 500);
 159:Drivers/lvgl/src/extra/themes/mono/lv_theme_mono.c **** #endif
 160:Drivers/lvgl/src/extra/themes/mono/lv_theme_mono.c **** }
 161:Drivers/lvgl/src/extra/themes/mono/lv_theme_mono.c **** 
 162:Drivers/lvgl/src/extra/themes/mono/lv_theme_mono.c **** 
 163:Drivers/lvgl/src/extra/themes/mono/lv_theme_mono.c **** /**********************
 164:Drivers/lvgl/src/extra/themes/mono/lv_theme_mono.c ****  *   GLOBAL FUNCTIONS
 165:Drivers/lvgl/src/extra/themes/mono/lv_theme_mono.c ****  **********************/
 166:Drivers/lvgl/src/extra/themes/mono/lv_theme_mono.c **** 
 167:Drivers/lvgl/src/extra/themes/mono/lv_theme_mono.c **** bool lv_theme_mono_is_inited(void)
 168:Drivers/lvgl/src/extra/themes/mono/lv_theme_mono.c **** {
 169:Drivers/lvgl/src/extra/themes/mono/lv_theme_mono.c ****     return  LV_GC_ROOT(_lv_theme_default_styles) == NULL ? false : true;
 170:Drivers/lvgl/src/extra/themes/mono/lv_theme_mono.c **** }
 171:Drivers/lvgl/src/extra/themes/mono/lv_theme_mono.c **** 
 172:Drivers/lvgl/src/extra/themes/mono/lv_theme_mono.c **** lv_theme_t * lv_theme_mono_init(lv_disp_t * disp, bool dark_bg, const lv_font_t * font)
 173:Drivers/lvgl/src/extra/themes/mono/lv_theme_mono.c **** {
 174:Drivers/lvgl/src/extra/themes/mono/lv_theme_mono.c **** 
 175:Drivers/lvgl/src/extra/themes/mono/lv_theme_mono.c ****     /*This trick is required only to avoid the garbage collection of
 176:Drivers/lvgl/src/extra/themes/mono/lv_theme_mono.c ****      *styles' data if LVGL is used in a binding (e.g. Micropython)
 177:Drivers/lvgl/src/extra/themes/mono/lv_theme_mono.c ****      *In a general case styles could be in simple `static lv_style_t my_style...` variables*/
 178:Drivers/lvgl/src/extra/themes/mono/lv_theme_mono.c ****     if(!inited) {
 179:Drivers/lvgl/src/extra/themes/mono/lv_theme_mono.c ****         inited = false;
 180:Drivers/lvgl/src/extra/themes/mono/lv_theme_mono.c ****         LV_GC_ROOT(_lv_theme_default_styles) = lv_mem_alloc(sizeof(my_theme_styles_t));
 181:Drivers/lvgl/src/extra/themes/mono/lv_theme_mono.c ****         styles = (my_theme_styles_t *)LV_GC_ROOT(_lv_theme_default_styles);
 182:Drivers/lvgl/src/extra/themes/mono/lv_theme_mono.c ****     }
 183:Drivers/lvgl/src/extra/themes/mono/lv_theme_mono.c **** 
 184:Drivers/lvgl/src/extra/themes/mono/lv_theme_mono.c ****     theme.disp = disp;
 185:Drivers/lvgl/src/extra/themes/mono/lv_theme_mono.c ****     theme.font_small = LV_FONT_DEFAULT;
 186:Drivers/lvgl/src/extra/themes/mono/lv_theme_mono.c ****     theme.font_normal = LV_FONT_DEFAULT;
 187:Drivers/lvgl/src/extra/themes/mono/lv_theme_mono.c ****     theme.font_large = LV_FONT_DEFAULT;
 188:Drivers/lvgl/src/extra/themes/mono/lv_theme_mono.c ****     theme.apply_cb = theme_apply;
 189:Drivers/lvgl/src/extra/themes/mono/lv_theme_mono.c **** 
 190:Drivers/lvgl/src/extra/themes/mono/lv_theme_mono.c ****     style_init(dark_bg, font);
 191:Drivers/lvgl/src/extra/themes/mono/lv_theme_mono.c **** 
 192:Drivers/lvgl/src/extra/themes/mono/lv_theme_mono.c ****     if(disp == NULL || lv_disp_get_theme(disp) == &theme) lv_obj_report_style_change(NULL);
 193:Drivers/lvgl/src/extra/themes/mono/lv_theme_mono.c **** 
 194:Drivers/lvgl/src/extra/themes/mono/lv_theme_mono.c ****     inited = true;
 195:Drivers/lvgl/src/extra/themes/mono/lv_theme_mono.c **** 
 196:Drivers/lvgl/src/extra/themes/mono/lv_theme_mono.c ****     return (lv_theme_t *)&theme;
 197:Drivers/lvgl/src/extra/themes/mono/lv_theme_mono.c **** }
 198:Drivers/lvgl/src/extra/themes/mono/lv_theme_mono.c **** 
 199:Drivers/lvgl/src/extra/themes/mono/lv_theme_mono.c **** 
 200:Drivers/lvgl/src/extra/themes/mono/lv_theme_mono.c **** static void theme_apply(lv_theme_t * th, lv_obj_t * obj)
ARM GAS  /var/folders/lp/x54gwt890xv47sdkqj1k04q40000gn/T//cc6ygGfE.s 			page 5


 201:Drivers/lvgl/src/extra/themes/mono/lv_theme_mono.c **** {
  30              		.loc 1 201 1 view -0
  31              		.cfi_startproc
  32              		@ args = 0, pretend = 0, frame = 0
  33              		@ frame_needed = 0, uses_anonymous_args = 0
 202:Drivers/lvgl/src/extra/themes/mono/lv_theme_mono.c ****     LV_UNUSED(th);
  34              		.loc 1 202 5 view .LVU1
 203:Drivers/lvgl/src/extra/themes/mono/lv_theme_mono.c **** 
 204:Drivers/lvgl/src/extra/themes/mono/lv_theme_mono.c ****     if(lv_obj_get_parent(obj) == NULL) {
  35              		.loc 1 204 5 view .LVU2
 201:Drivers/lvgl/src/extra/themes/mono/lv_theme_mono.c ****     LV_UNUSED(th);
  36              		.loc 1 201 1 is_stmt 0 view .LVU3
  37 0000 F8B5     		push	{r3, r4, r5, r6, r7, lr}
  38              		.cfi_def_cfa_offset 24
  39              		.cfi_offset 3, -24
  40              		.cfi_offset 4, -20
  41              		.cfi_offset 5, -16
  42              		.cfi_offset 6, -12
  43              		.cfi_offset 7, -8
  44              		.cfi_offset 14, -4
  45              		.loc 1 204 8 view .LVU4
  46 0002 0846     		mov	r0, r1
  47              	.LVL1:
 201:Drivers/lvgl/src/extra/themes/mono/lv_theme_mono.c ****     LV_UNUSED(th);
  48              		.loc 1 201 1 view .LVU5
  49 0004 0C46     		mov	r4, r1
  50              		.loc 1 204 8 view .LVU6
  51 0006 FFF7FEFF 		bl	lv_obj_get_parent
  52              	.LVL2:
  53              		.loc 1 204 7 discriminator 1 view .LVU7
  54 000a 0028     		cmp	r0, #0
  55 000c 00F0F980 		beq	.L56
 205:Drivers/lvgl/src/extra/themes/mono/lv_theme_mono.c ****         lv_obj_add_style(obj, &styles->scr, 0);
 206:Drivers/lvgl/src/extra/themes/mono/lv_theme_mono.c ****         lv_obj_add_style(obj, &styles->scrollbar, LV_PART_SCROLLBAR);
 207:Drivers/lvgl/src/extra/themes/mono/lv_theme_mono.c ****         return;
 208:Drivers/lvgl/src/extra/themes/mono/lv_theme_mono.c ****     }
 209:Drivers/lvgl/src/extra/themes/mono/lv_theme_mono.c **** 
 210:Drivers/lvgl/src/extra/themes/mono/lv_theme_mono.c ****     if(lv_obj_check_type(obj, &lv_obj_class)) {
  56              		.loc 1 210 5 is_stmt 1 view .LVU8
  57              		.loc 1 210 8 is_stmt 0 view .LVU9
  58 0010 B049     		ldr	r1, .L64
  59 0012 2046     		mov	r0, r4
  60 0014 FFF7FEFF 		bl	lv_obj_check_type
  61              	.LVL3:
  62              		.loc 1 210 7 discriminator 1 view .LVU10
  63 0018 0546     		mov	r5, r0
  64 001a 68BB     		cbnz	r0, .L57
 211:Drivers/lvgl/src/extra/themes/mono/lv_theme_mono.c **** #if LV_USE_TABVIEW
 212:Drivers/lvgl/src/extra/themes/mono/lv_theme_mono.c ****         lv_obj_t * parent = lv_obj_get_parent(obj);
 213:Drivers/lvgl/src/extra/themes/mono/lv_theme_mono.c ****         /*Tabview content area*/
 214:Drivers/lvgl/src/extra/themes/mono/lv_theme_mono.c ****         if(lv_obj_check_type(parent, &lv_tabview_class)) {
 215:Drivers/lvgl/src/extra/themes/mono/lv_theme_mono.c ****             return;
 216:Drivers/lvgl/src/extra/themes/mono/lv_theme_mono.c ****         }
 217:Drivers/lvgl/src/extra/themes/mono/lv_theme_mono.c ****         /*Tabview pages*/
 218:Drivers/lvgl/src/extra/themes/mono/lv_theme_mono.c ****         else if(lv_obj_check_type(lv_obj_get_parent(parent), &lv_tabview_class)) {
 219:Drivers/lvgl/src/extra/themes/mono/lv_theme_mono.c ****             lv_obj_add_style(obj, &styles->card, 0);
 220:Drivers/lvgl/src/extra/themes/mono/lv_theme_mono.c ****             lv_obj_add_style(obj, &styles->no_radius, 0);
ARM GAS  /var/folders/lp/x54gwt890xv47sdkqj1k04q40000gn/T//cc6ygGfE.s 			page 6


 221:Drivers/lvgl/src/extra/themes/mono/lv_theme_mono.c ****             lv_obj_add_style(obj, &styles->scrollbar, LV_PART_SCROLLBAR);
 222:Drivers/lvgl/src/extra/themes/mono/lv_theme_mono.c ****             return;
 223:Drivers/lvgl/src/extra/themes/mono/lv_theme_mono.c ****         }
 224:Drivers/lvgl/src/extra/themes/mono/lv_theme_mono.c **** #endif
 225:Drivers/lvgl/src/extra/themes/mono/lv_theme_mono.c **** 
 226:Drivers/lvgl/src/extra/themes/mono/lv_theme_mono.c **** #if LV_USE_WIN
 227:Drivers/lvgl/src/extra/themes/mono/lv_theme_mono.c ****         /*Header*/
 228:Drivers/lvgl/src/extra/themes/mono/lv_theme_mono.c ****         if(lv_obj_get_index(obj) == 0 && lv_obj_check_type(lv_obj_get_parent(obj), &lv_win_class)) 
 229:Drivers/lvgl/src/extra/themes/mono/lv_theme_mono.c ****             lv_obj_add_style(obj, &styles->card, 0);
 230:Drivers/lvgl/src/extra/themes/mono/lv_theme_mono.c ****             lv_obj_add_style(obj, &styles->no_radius, 0);
 231:Drivers/lvgl/src/extra/themes/mono/lv_theme_mono.c ****             return;
 232:Drivers/lvgl/src/extra/themes/mono/lv_theme_mono.c ****         }
 233:Drivers/lvgl/src/extra/themes/mono/lv_theme_mono.c ****         /*Content*/
 234:Drivers/lvgl/src/extra/themes/mono/lv_theme_mono.c ****         else if(lv_obj_get_index(obj) == 1 && lv_obj_check_type(lv_obj_get_parent(obj), &lv_win_cla
 235:Drivers/lvgl/src/extra/themes/mono/lv_theme_mono.c ****             lv_obj_add_style(obj, &styles->card, 0);
 236:Drivers/lvgl/src/extra/themes/mono/lv_theme_mono.c ****             lv_obj_add_style(obj, &styles->no_radius, 0);
 237:Drivers/lvgl/src/extra/themes/mono/lv_theme_mono.c ****             lv_obj_add_style(obj, &styles->scrollbar, LV_PART_SCROLLBAR);
 238:Drivers/lvgl/src/extra/themes/mono/lv_theme_mono.c ****             return;
 239:Drivers/lvgl/src/extra/themes/mono/lv_theme_mono.c ****         }
 240:Drivers/lvgl/src/extra/themes/mono/lv_theme_mono.c **** #endif
 241:Drivers/lvgl/src/extra/themes/mono/lv_theme_mono.c ****         lv_obj_add_style(obj, &styles->card, 0);
 242:Drivers/lvgl/src/extra/themes/mono/lv_theme_mono.c ****         lv_obj_add_style(obj, &styles->scrollbar, LV_PART_SCROLLBAR);
 243:Drivers/lvgl/src/extra/themes/mono/lv_theme_mono.c ****     }
 244:Drivers/lvgl/src/extra/themes/mono/lv_theme_mono.c **** #if LV_USE_BTN
 245:Drivers/lvgl/src/extra/themes/mono/lv_theme_mono.c ****     else if(lv_obj_check_type(obj, &lv_btn_class)) {
  65              		.loc 1 245 10 is_stmt 1 view .LVU11
  66              		.loc 1 245 13 is_stmt 0 view .LVU12
  67 001c AE49     		ldr	r1, .L64+4
  68 001e 2046     		mov	r0, r4
  69 0020 FFF7FEFF 		bl	lv_obj_check_type
  70              	.LVL4:
  71              		.loc 1 245 12 discriminator 1 view .LVU13
  72 0024 0646     		mov	r6, r0
  73 0026 0028     		cmp	r0, #0
  74 0028 64D0     		beq	.L9
 246:Drivers/lvgl/src/extra/themes/mono/lv_theme_mono.c ****         lv_obj_add_style(obj, &styles->card, 0);
  75              		.loc 1 246 9 is_stmt 1 view .LVU14
  76              		.loc 1 246 38 is_stmt 0 view .LVU15
  77 002a AC4E     		ldr	r6, .L64+8
  78              		.loc 1 246 9 view .LVU16
  79 002c 3168     		ldr	r1, [r6]
  80 002e 2A46     		mov	r2, r5
  81 0030 2046     		mov	r0, r4
  82 0032 0831     		adds	r1, r1, #8
  83 0034 FFF7FEFF 		bl	lv_obj_add_style
  84              	.LVL5:
 247:Drivers/lvgl/src/extra/themes/mono/lv_theme_mono.c ****         lv_obj_add_style(obj, &styles->pr, LV_STATE_PRESSED);
  85              		.loc 1 247 9 is_stmt 1 view .LVU17
  86 0038 3168     		ldr	r1, [r6]
  87 003a 2022     		movs	r2, #32
  88 003c 1144     		add	r1, r1, r2
  89 003e 2046     		mov	r0, r4
  90 0040 FFF7FEFF 		bl	lv_obj_add_style
  91              	.LVL6:
 248:Drivers/lvgl/src/extra/themes/mono/lv_theme_mono.c ****         lv_obj_add_style(obj, &styles->inv, LV_STATE_CHECKED);
  92              		.loc 1 248 9 view .LVU18
  93 0044 3168     		ldr	r1, [r6]
ARM GAS  /var/folders/lp/x54gwt890xv47sdkqj1k04q40000gn/T//cc6ygGfE.s 			page 7


  94 0046 0122     		movs	r2, #1
  95 0048 2046     		mov	r0, r4
  96 004a 2831     		adds	r1, r1, #40
  97 004c FFF7FEFF 		bl	lv_obj_add_style
  98              	.LVL7:
 249:Drivers/lvgl/src/extra/themes/mono/lv_theme_mono.c ****         lv_obj_add_style(obj, &styles->disabled, LV_STATE_DISABLED);
  99              		.loc 1 249 9 view .LVU19
 100 0050 3168     		ldr	r1, [r6]
 101 0052 8022     		movs	r2, #128
 102 0054 2046     		mov	r0, r4
 103 0056 3031     		adds	r1, r1, #48
 104              	.L46:
 250:Drivers/lvgl/src/extra/themes/mono/lv_theme_mono.c ****         lv_obj_add_style(obj, &styles->focus, LV_STATE_FOCUS_KEY);
 251:Drivers/lvgl/src/extra/themes/mono/lv_theme_mono.c ****         lv_obj_add_style(obj, &styles->edit, LV_STATE_EDITED);
 252:Drivers/lvgl/src/extra/themes/mono/lv_theme_mono.c ****     }
 253:Drivers/lvgl/src/extra/themes/mono/lv_theme_mono.c **** #endif
 254:Drivers/lvgl/src/extra/themes/mono/lv_theme_mono.c **** 
 255:Drivers/lvgl/src/extra/themes/mono/lv_theme_mono.c **** #if LV_USE_BTNMATRIX
 256:Drivers/lvgl/src/extra/themes/mono/lv_theme_mono.c ****     else if(lv_obj_check_type(obj, &lv_btnmatrix_class)) {
 257:Drivers/lvgl/src/extra/themes/mono/lv_theme_mono.c **** #if LV_USE_MSGBOX
 258:Drivers/lvgl/src/extra/themes/mono/lv_theme_mono.c ****         if(lv_obj_check_type(lv_obj_get_parent(obj), &lv_msgbox_class)) {
 259:Drivers/lvgl/src/extra/themes/mono/lv_theme_mono.c ****             lv_obj_add_style(obj, &styles->pad_gap, 0);
 260:Drivers/lvgl/src/extra/themes/mono/lv_theme_mono.c ****             lv_obj_add_style(obj, &styles->card, LV_PART_ITEMS);
 261:Drivers/lvgl/src/extra/themes/mono/lv_theme_mono.c ****             lv_obj_add_style(obj, &styles->pr, LV_PART_ITEMS | LV_STATE_PRESSED);
 262:Drivers/lvgl/src/extra/themes/mono/lv_theme_mono.c ****             lv_obj_add_style(obj, &styles->disabled, LV_PART_ITEMS | LV_STATE_DISABLED);
 263:Drivers/lvgl/src/extra/themes/mono/lv_theme_mono.c ****             lv_obj_add_style(obj, &styles->underline, LV_PART_ITEMS | LV_STATE_FOCUS_KEY);
 264:Drivers/lvgl/src/extra/themes/mono/lv_theme_mono.c ****             lv_obj_add_style(obj, &styles->large_border, LV_PART_ITEMS | LV_STATE_FOCUS_KEY);
 265:Drivers/lvgl/src/extra/themes/mono/lv_theme_mono.c ****             return;
 266:Drivers/lvgl/src/extra/themes/mono/lv_theme_mono.c ****         }
 267:Drivers/lvgl/src/extra/themes/mono/lv_theme_mono.c **** #endif
 268:Drivers/lvgl/src/extra/themes/mono/lv_theme_mono.c **** #if LV_USE_TABVIEW
 269:Drivers/lvgl/src/extra/themes/mono/lv_theme_mono.c ****         if(lv_obj_check_type(lv_obj_get_parent(obj), &lv_tabview_class)) {
 270:Drivers/lvgl/src/extra/themes/mono/lv_theme_mono.c ****             lv_obj_add_style(obj, &styles->pad_gap, 0);
 271:Drivers/lvgl/src/extra/themes/mono/lv_theme_mono.c ****             lv_obj_add_style(obj, &styles->card, LV_PART_ITEMS);
 272:Drivers/lvgl/src/extra/themes/mono/lv_theme_mono.c ****             lv_obj_add_style(obj, &styles->pr, LV_PART_ITEMS | LV_STATE_PRESSED);
 273:Drivers/lvgl/src/extra/themes/mono/lv_theme_mono.c ****             lv_obj_add_style(obj, &styles->inv, LV_PART_ITEMS | LV_STATE_CHECKED);
 274:Drivers/lvgl/src/extra/themes/mono/lv_theme_mono.c ****             lv_obj_add_style(obj, &styles->disabled, LV_PART_ITEMS | LV_STATE_DISABLED);
 275:Drivers/lvgl/src/extra/themes/mono/lv_theme_mono.c ****             lv_obj_add_style(obj, &styles->focus, LV_STATE_FOCUS_KEY);
 276:Drivers/lvgl/src/extra/themes/mono/lv_theme_mono.c ****             lv_obj_add_style(obj, &styles->underline, LV_PART_ITEMS | LV_STATE_FOCUS_KEY);
 277:Drivers/lvgl/src/extra/themes/mono/lv_theme_mono.c ****             lv_obj_add_style(obj, &styles->large_border, LV_PART_ITEMS | LV_STATE_FOCUS_KEY);
 278:Drivers/lvgl/src/extra/themes/mono/lv_theme_mono.c ****             return;
 279:Drivers/lvgl/src/extra/themes/mono/lv_theme_mono.c ****         }
 280:Drivers/lvgl/src/extra/themes/mono/lv_theme_mono.c **** #endif
 281:Drivers/lvgl/src/extra/themes/mono/lv_theme_mono.c ****         lv_obj_add_style(obj, &styles->card, 0);
 282:Drivers/lvgl/src/extra/themes/mono/lv_theme_mono.c ****         lv_obj_add_style(obj, &styles->focus, LV_STATE_FOCUS_KEY);
 283:Drivers/lvgl/src/extra/themes/mono/lv_theme_mono.c ****         lv_obj_add_style(obj, &styles->card, LV_PART_ITEMS);
 284:Drivers/lvgl/src/extra/themes/mono/lv_theme_mono.c ****         lv_obj_add_style(obj, &styles->pr, LV_PART_ITEMS | LV_STATE_PRESSED);
 285:Drivers/lvgl/src/extra/themes/mono/lv_theme_mono.c ****         lv_obj_add_style(obj, &styles->inv, LV_PART_ITEMS | LV_STATE_CHECKED);
 286:Drivers/lvgl/src/extra/themes/mono/lv_theme_mono.c ****         lv_obj_add_style(obj, &styles->disabled, LV_PART_ITEMS | LV_STATE_DISABLED);
 287:Drivers/lvgl/src/extra/themes/mono/lv_theme_mono.c ****         lv_obj_add_style(obj, &styles->underline, LV_PART_ITEMS | LV_STATE_FOCUS_KEY);
 288:Drivers/lvgl/src/extra/themes/mono/lv_theme_mono.c ****         lv_obj_add_style(obj, &styles->large_border, LV_PART_ITEMS | LV_STATE_FOCUS_KEY);
 289:Drivers/lvgl/src/extra/themes/mono/lv_theme_mono.c ****     }
 290:Drivers/lvgl/src/extra/themes/mono/lv_theme_mono.c **** #endif
 291:Drivers/lvgl/src/extra/themes/mono/lv_theme_mono.c **** 
 292:Drivers/lvgl/src/extra/themes/mono/lv_theme_mono.c **** #if LV_USE_BAR
 293:Drivers/lvgl/src/extra/themes/mono/lv_theme_mono.c ****     else if(lv_obj_check_type(obj, &lv_bar_class)) {
 294:Drivers/lvgl/src/extra/themes/mono/lv_theme_mono.c ****         lv_obj_add_style(obj, &styles->card, 0);
ARM GAS  /var/folders/lp/x54gwt890xv47sdkqj1k04q40000gn/T//cc6ygGfE.s 			page 8


 295:Drivers/lvgl/src/extra/themes/mono/lv_theme_mono.c ****         lv_obj_add_style(obj, &styles->pad_zero, 0);
 296:Drivers/lvgl/src/extra/themes/mono/lv_theme_mono.c ****         lv_obj_add_style(obj, &styles->inv, LV_PART_INDICATOR);
 297:Drivers/lvgl/src/extra/themes/mono/lv_theme_mono.c ****         lv_obj_add_style(obj, &styles->focus, LV_STATE_FOCUS_KEY);
 298:Drivers/lvgl/src/extra/themes/mono/lv_theme_mono.c ****     }
 299:Drivers/lvgl/src/extra/themes/mono/lv_theme_mono.c **** #endif
 300:Drivers/lvgl/src/extra/themes/mono/lv_theme_mono.c **** 
 301:Drivers/lvgl/src/extra/themes/mono/lv_theme_mono.c **** #if LV_USE_SLIDER
 302:Drivers/lvgl/src/extra/themes/mono/lv_theme_mono.c ****     else if(lv_obj_check_type(obj, &lv_slider_class)) {
 303:Drivers/lvgl/src/extra/themes/mono/lv_theme_mono.c ****         lv_obj_add_style(obj, &styles->card, 0);
 304:Drivers/lvgl/src/extra/themes/mono/lv_theme_mono.c ****         lv_obj_add_style(obj, &styles->pad_zero, 0);
 305:Drivers/lvgl/src/extra/themes/mono/lv_theme_mono.c ****         lv_obj_add_style(obj, &styles->inv, LV_PART_INDICATOR);
 306:Drivers/lvgl/src/extra/themes/mono/lv_theme_mono.c ****         lv_obj_add_style(obj, &styles->card, LV_PART_KNOB);
 307:Drivers/lvgl/src/extra/themes/mono/lv_theme_mono.c ****         lv_obj_add_style(obj, &styles->radius_circle, LV_PART_KNOB);
 308:Drivers/lvgl/src/extra/themes/mono/lv_theme_mono.c ****         lv_obj_add_style(obj, &styles->focus, LV_STATE_FOCUS_KEY);
 309:Drivers/lvgl/src/extra/themes/mono/lv_theme_mono.c ****         lv_obj_add_style(obj, &styles->edit, LV_STATE_EDITED);
 310:Drivers/lvgl/src/extra/themes/mono/lv_theme_mono.c ****     }
 311:Drivers/lvgl/src/extra/themes/mono/lv_theme_mono.c **** #endif
 312:Drivers/lvgl/src/extra/themes/mono/lv_theme_mono.c **** 
 313:Drivers/lvgl/src/extra/themes/mono/lv_theme_mono.c **** #if LV_USE_TABLE
 314:Drivers/lvgl/src/extra/themes/mono/lv_theme_mono.c ****     else if(lv_obj_check_type(obj, &lv_table_class)) {
 315:Drivers/lvgl/src/extra/themes/mono/lv_theme_mono.c ****         lv_obj_add_style(obj, &styles->scrollbar, LV_PART_SCROLLBAR);
 316:Drivers/lvgl/src/extra/themes/mono/lv_theme_mono.c ****         lv_obj_add_style(obj, &styles->card, LV_PART_ITEMS);
 317:Drivers/lvgl/src/extra/themes/mono/lv_theme_mono.c ****         lv_obj_add_style(obj, &styles->no_radius, LV_PART_ITEMS);
 318:Drivers/lvgl/src/extra/themes/mono/lv_theme_mono.c ****         lv_obj_add_style(obj, &styles->pr, LV_PART_ITEMS | LV_STATE_PRESSED);
 319:Drivers/lvgl/src/extra/themes/mono/lv_theme_mono.c ****         lv_obj_add_style(obj, &styles->focus, LV_STATE_FOCUS_KEY);
 320:Drivers/lvgl/src/extra/themes/mono/lv_theme_mono.c ****         lv_obj_add_style(obj, &styles->inv, LV_PART_ITEMS | LV_STATE_FOCUS_KEY);
 321:Drivers/lvgl/src/extra/themes/mono/lv_theme_mono.c ****         lv_obj_add_style(obj, &styles->edit, LV_STATE_EDITED);
 322:Drivers/lvgl/src/extra/themes/mono/lv_theme_mono.c ****     }
 323:Drivers/lvgl/src/extra/themes/mono/lv_theme_mono.c **** #endif
 324:Drivers/lvgl/src/extra/themes/mono/lv_theme_mono.c **** 
 325:Drivers/lvgl/src/extra/themes/mono/lv_theme_mono.c **** #if LV_USE_CHECKBOX
 326:Drivers/lvgl/src/extra/themes/mono/lv_theme_mono.c ****     else if(lv_obj_check_type(obj, &lv_checkbox_class)) {
 327:Drivers/lvgl/src/extra/themes/mono/lv_theme_mono.c ****         lv_obj_add_style(obj, &styles->pad_gap, LV_PART_MAIN);
 328:Drivers/lvgl/src/extra/themes/mono/lv_theme_mono.c ****         lv_obj_add_style(obj, &styles->card, LV_PART_INDICATOR);
 329:Drivers/lvgl/src/extra/themes/mono/lv_theme_mono.c ****         lv_obj_add_style(obj, &styles->disabled, LV_PART_INDICATOR | LV_STATE_DISABLED);
 330:Drivers/lvgl/src/extra/themes/mono/lv_theme_mono.c ****         lv_obj_add_style(obj, &styles->inv, LV_PART_INDICATOR | LV_STATE_CHECKED);
 331:Drivers/lvgl/src/extra/themes/mono/lv_theme_mono.c ****         lv_obj_add_style(obj, &styles->pr, LV_PART_INDICATOR | LV_STATE_PRESSED);
 105              		.loc 1 331 9 is_stmt 0 view .LVU20
 106 0058 FFF7FEFF 		bl	lv_obj_add_style
 107              	.LVL8:
 332:Drivers/lvgl/src/extra/themes/mono/lv_theme_mono.c ****         lv_obj_add_style(obj, &styles->focus, LV_STATE_FOCUS_KEY);
 108              		.loc 1 332 9 is_stmt 1 view .LVU21
 109 005c 3168     		ldr	r1, [r6]
 110 005e 2046     		mov	r0, r4
 111 0060 0422     		movs	r2, #4
 112 0062 3831     		adds	r1, r1, #56
 113 0064 FFF7FEFF 		bl	lv_obj_add_style
 114              	.LVL9:
 333:Drivers/lvgl/src/extra/themes/mono/lv_theme_mono.c ****         lv_obj_add_style(obj, &styles->edit, LV_STATE_EDITED);
 115              		.loc 1 333 9 view .LVU22
 116 0068 3168     		ldr	r1, [r6]
 117 006a 2046     		mov	r0, r4
 118 006c 0822     		movs	r2, #8
 334:Drivers/lvgl/src/extra/themes/mono/lv_theme_mono.c ****     }
 335:Drivers/lvgl/src/extra/themes/mono/lv_theme_mono.c **** #endif
 336:Drivers/lvgl/src/extra/themes/mono/lv_theme_mono.c **** 
 337:Drivers/lvgl/src/extra/themes/mono/lv_theme_mono.c **** #if LV_USE_SWITCH
ARM GAS  /var/folders/lp/x54gwt890xv47sdkqj1k04q40000gn/T//cc6ygGfE.s 			page 9


 338:Drivers/lvgl/src/extra/themes/mono/lv_theme_mono.c ****     else if(lv_obj_check_type(obj, &lv_switch_class)) {
 339:Drivers/lvgl/src/extra/themes/mono/lv_theme_mono.c ****         lv_obj_add_style(obj, &styles->card, 0);
 340:Drivers/lvgl/src/extra/themes/mono/lv_theme_mono.c ****         lv_obj_add_style(obj, &styles->radius_circle, 0);
 341:Drivers/lvgl/src/extra/themes/mono/lv_theme_mono.c ****         lv_obj_add_style(obj, &styles->pad_zero, 0);
 342:Drivers/lvgl/src/extra/themes/mono/lv_theme_mono.c ****         lv_obj_add_style(obj, &styles->inv, LV_PART_INDICATOR);
 343:Drivers/lvgl/src/extra/themes/mono/lv_theme_mono.c ****         lv_obj_add_style(obj, &styles->radius_circle, LV_PART_INDICATOR);
 344:Drivers/lvgl/src/extra/themes/mono/lv_theme_mono.c ****         lv_obj_add_style(obj, &styles->card, LV_PART_KNOB);
 345:Drivers/lvgl/src/extra/themes/mono/lv_theme_mono.c ****         lv_obj_add_style(obj, &styles->radius_circle, LV_PART_KNOB);
 346:Drivers/lvgl/src/extra/themes/mono/lv_theme_mono.c ****         lv_obj_add_style(obj, &styles->pad_zero, LV_PART_KNOB);
 347:Drivers/lvgl/src/extra/themes/mono/lv_theme_mono.c ****         lv_obj_add_style(obj, &styles->focus, LV_STATE_FOCUS_KEY);
 348:Drivers/lvgl/src/extra/themes/mono/lv_theme_mono.c ****         lv_obj_add_style(obj, &styles->edit, LV_STATE_EDITED);
 349:Drivers/lvgl/src/extra/themes/mono/lv_theme_mono.c ****     }
 350:Drivers/lvgl/src/extra/themes/mono/lv_theme_mono.c **** #endif
 351:Drivers/lvgl/src/extra/themes/mono/lv_theme_mono.c **** 
 352:Drivers/lvgl/src/extra/themes/mono/lv_theme_mono.c **** #if LV_USE_CHART
 353:Drivers/lvgl/src/extra/themes/mono/lv_theme_mono.c ****     else if(lv_obj_check_type(obj, &lv_chart_class)) {
 354:Drivers/lvgl/src/extra/themes/mono/lv_theme_mono.c ****         lv_obj_add_style(obj, &styles->card, 0);
 355:Drivers/lvgl/src/extra/themes/mono/lv_theme_mono.c ****         lv_obj_add_style(obj, &styles->scrollbar, LV_PART_SCROLLBAR);
 356:Drivers/lvgl/src/extra/themes/mono/lv_theme_mono.c ****         lv_obj_add_style(obj, &styles->card, LV_PART_ITEMS);
 357:Drivers/lvgl/src/extra/themes/mono/lv_theme_mono.c ****         lv_obj_add_style(obj, &styles->card, LV_PART_TICKS);
 358:Drivers/lvgl/src/extra/themes/mono/lv_theme_mono.c ****         lv_obj_add_style(obj, &styles->card, LV_PART_CURSOR);
 359:Drivers/lvgl/src/extra/themes/mono/lv_theme_mono.c ****         lv_obj_add_style(obj, &styles->focus, LV_STATE_FOCUS_KEY);
 360:Drivers/lvgl/src/extra/themes/mono/lv_theme_mono.c ****     }
 361:Drivers/lvgl/src/extra/themes/mono/lv_theme_mono.c **** #endif
 362:Drivers/lvgl/src/extra/themes/mono/lv_theme_mono.c **** 
 363:Drivers/lvgl/src/extra/themes/mono/lv_theme_mono.c **** #if LV_USE_ROLLER
 364:Drivers/lvgl/src/extra/themes/mono/lv_theme_mono.c ****     else if(lv_obj_check_type(obj, &lv_roller_class)) {
 365:Drivers/lvgl/src/extra/themes/mono/lv_theme_mono.c ****         lv_obj_add_style(obj, &styles->card, 0);
 366:Drivers/lvgl/src/extra/themes/mono/lv_theme_mono.c ****         lv_obj_add_style(obj, &styles->large_line_space, 0);
 367:Drivers/lvgl/src/extra/themes/mono/lv_theme_mono.c ****         lv_obj_add_style(obj, &styles->inv, LV_PART_SELECTED);
 368:Drivers/lvgl/src/extra/themes/mono/lv_theme_mono.c ****         lv_obj_add_style(obj, &styles->focus, LV_STATE_FOCUS_KEY);
 369:Drivers/lvgl/src/extra/themes/mono/lv_theme_mono.c ****         lv_obj_add_style(obj, &styles->edit, LV_STATE_EDITED);
 370:Drivers/lvgl/src/extra/themes/mono/lv_theme_mono.c ****     }
 371:Drivers/lvgl/src/extra/themes/mono/lv_theme_mono.c **** #endif
 372:Drivers/lvgl/src/extra/themes/mono/lv_theme_mono.c **** 
 373:Drivers/lvgl/src/extra/themes/mono/lv_theme_mono.c **** #if LV_USE_DROPDOWN
 374:Drivers/lvgl/src/extra/themes/mono/lv_theme_mono.c ****     else if(lv_obj_check_type(obj, &lv_dropdown_class)) {
 375:Drivers/lvgl/src/extra/themes/mono/lv_theme_mono.c ****         lv_obj_add_style(obj, &styles->card, 0);
 376:Drivers/lvgl/src/extra/themes/mono/lv_theme_mono.c ****         lv_obj_add_style(obj, &styles->pr, LV_STATE_PRESSED);
 377:Drivers/lvgl/src/extra/themes/mono/lv_theme_mono.c ****         lv_obj_add_style(obj, &styles->focus, LV_STATE_FOCUS_KEY);
 378:Drivers/lvgl/src/extra/themes/mono/lv_theme_mono.c ****         lv_obj_add_style(obj, &styles->edit, LV_STATE_EDITED);
 379:Drivers/lvgl/src/extra/themes/mono/lv_theme_mono.c ****     }
 380:Drivers/lvgl/src/extra/themes/mono/lv_theme_mono.c ****     else if(lv_obj_check_type(obj, &lv_dropdownlist_class)) {
 381:Drivers/lvgl/src/extra/themes/mono/lv_theme_mono.c ****         lv_obj_add_style(obj, &styles->card, 0);
 382:Drivers/lvgl/src/extra/themes/mono/lv_theme_mono.c ****         lv_obj_add_style(obj, &styles->large_line_space, 0);
 383:Drivers/lvgl/src/extra/themes/mono/lv_theme_mono.c ****         lv_obj_add_style(obj, &styles->scrollbar, LV_PART_SCROLLBAR);
 384:Drivers/lvgl/src/extra/themes/mono/lv_theme_mono.c ****         lv_obj_add_style(obj, &styles->inv, LV_PART_SELECTED | LV_STATE_CHECKED);
 385:Drivers/lvgl/src/extra/themes/mono/lv_theme_mono.c ****         lv_obj_add_style(obj, &styles->pr, LV_PART_SELECTED | LV_STATE_PRESSED);
 386:Drivers/lvgl/src/extra/themes/mono/lv_theme_mono.c ****         lv_obj_add_style(obj, &styles->focus, LV_STATE_FOCUS_KEY);
 387:Drivers/lvgl/src/extra/themes/mono/lv_theme_mono.c ****         lv_obj_add_style(obj, &styles->edit, LV_STATE_EDITED);
 388:Drivers/lvgl/src/extra/themes/mono/lv_theme_mono.c ****     }
 389:Drivers/lvgl/src/extra/themes/mono/lv_theme_mono.c **** #endif
 390:Drivers/lvgl/src/extra/themes/mono/lv_theme_mono.c **** 
 391:Drivers/lvgl/src/extra/themes/mono/lv_theme_mono.c **** #if LV_USE_ARC
 392:Drivers/lvgl/src/extra/themes/mono/lv_theme_mono.c ****     else if(lv_obj_check_type(obj, &lv_arc_class)) {
 393:Drivers/lvgl/src/extra/themes/mono/lv_theme_mono.c ****         lv_obj_add_style(obj, &styles->card, 0);
 394:Drivers/lvgl/src/extra/themes/mono/lv_theme_mono.c ****         lv_obj_add_style(obj, &styles->inv, LV_PART_INDICATOR);
ARM GAS  /var/folders/lp/x54gwt890xv47sdkqj1k04q40000gn/T//cc6ygGfE.s 			page 10


 395:Drivers/lvgl/src/extra/themes/mono/lv_theme_mono.c ****         lv_obj_add_style(obj, &styles->pad_zero, LV_PART_INDICATOR);
 396:Drivers/lvgl/src/extra/themes/mono/lv_theme_mono.c ****         lv_obj_add_style(obj, &styles->card, LV_PART_KNOB);
 397:Drivers/lvgl/src/extra/themes/mono/lv_theme_mono.c ****         lv_obj_add_style(obj, &styles->radius_circle, LV_PART_KNOB);
 398:Drivers/lvgl/src/extra/themes/mono/lv_theme_mono.c ****         lv_obj_add_style(obj, &styles->focus, LV_STATE_FOCUS_KEY);
 399:Drivers/lvgl/src/extra/themes/mono/lv_theme_mono.c ****         lv_obj_add_style(obj, &styles->edit, LV_STATE_EDITED);
 400:Drivers/lvgl/src/extra/themes/mono/lv_theme_mono.c ****     }
 401:Drivers/lvgl/src/extra/themes/mono/lv_theme_mono.c **** #endif
 402:Drivers/lvgl/src/extra/themes/mono/lv_theme_mono.c **** 
 403:Drivers/lvgl/src/extra/themes/mono/lv_theme_mono.c **** #if LV_USE_METER
 404:Drivers/lvgl/src/extra/themes/mono/lv_theme_mono.c ****     else if(lv_obj_check_type(obj, &lv_meter_class)) {
 405:Drivers/lvgl/src/extra/themes/mono/lv_theme_mono.c ****         lv_obj_add_style(obj, &styles->card, 0);
 406:Drivers/lvgl/src/extra/themes/mono/lv_theme_mono.c ****     }
 407:Drivers/lvgl/src/extra/themes/mono/lv_theme_mono.c **** #endif
 408:Drivers/lvgl/src/extra/themes/mono/lv_theme_mono.c **** 
 409:Drivers/lvgl/src/extra/themes/mono/lv_theme_mono.c **** #if LV_USE_TEXTAREA
 410:Drivers/lvgl/src/extra/themes/mono/lv_theme_mono.c ****     else if(lv_obj_check_type(obj, &lv_textarea_class)) {
 411:Drivers/lvgl/src/extra/themes/mono/lv_theme_mono.c ****         lv_obj_add_style(obj, &styles->card, 0);
 412:Drivers/lvgl/src/extra/themes/mono/lv_theme_mono.c ****         lv_obj_add_style(obj, &styles->scrollbar, LV_PART_SCROLLBAR);
 413:Drivers/lvgl/src/extra/themes/mono/lv_theme_mono.c ****         lv_obj_add_style(obj, &styles->ta_cursor, LV_PART_CURSOR | LV_STATE_FOCUSED);
 414:Drivers/lvgl/src/extra/themes/mono/lv_theme_mono.c ****         lv_obj_add_style(obj, &styles->focus, LV_STATE_FOCUSED);
 415:Drivers/lvgl/src/extra/themes/mono/lv_theme_mono.c ****         lv_obj_add_style(obj, &styles->edit, LV_STATE_EDITED);
 416:Drivers/lvgl/src/extra/themes/mono/lv_theme_mono.c ****     }
 417:Drivers/lvgl/src/extra/themes/mono/lv_theme_mono.c **** #endif
 418:Drivers/lvgl/src/extra/themes/mono/lv_theme_mono.c **** 
 419:Drivers/lvgl/src/extra/themes/mono/lv_theme_mono.c **** #if LV_USE_CALENDAR
 420:Drivers/lvgl/src/extra/themes/mono/lv_theme_mono.c ****     else if(lv_obj_check_type(obj, &lv_calendar_class)) {
 421:Drivers/lvgl/src/extra/themes/mono/lv_theme_mono.c ****         lv_obj_add_style(obj, &styles->card, 0);
 422:Drivers/lvgl/src/extra/themes/mono/lv_theme_mono.c ****         lv_obj_add_style(obj, &styles->no_radius, 0);
 423:Drivers/lvgl/src/extra/themes/mono/lv_theme_mono.c ****         lv_obj_add_style(obj, &styles->pr, LV_PART_ITEMS | LV_STATE_PRESSED);
 424:Drivers/lvgl/src/extra/themes/mono/lv_theme_mono.c ****         lv_obj_add_style(obj, &styles->disabled, LV_PART_ITEMS | LV_STATE_DISABLED);
 425:Drivers/lvgl/src/extra/themes/mono/lv_theme_mono.c ****         lv_obj_add_style(obj, &styles->focus, LV_STATE_FOCUS_KEY);
 426:Drivers/lvgl/src/extra/themes/mono/lv_theme_mono.c ****         lv_obj_add_style(obj, &styles->edit, LV_STATE_EDITED);
 427:Drivers/lvgl/src/extra/themes/mono/lv_theme_mono.c ****         lv_obj_add_style(obj, &styles->large_border, LV_PART_ITEMS | LV_STATE_FOCUS_KEY);
 428:Drivers/lvgl/src/extra/themes/mono/lv_theme_mono.c ****     }
 429:Drivers/lvgl/src/extra/themes/mono/lv_theme_mono.c **** #endif
 430:Drivers/lvgl/src/extra/themes/mono/lv_theme_mono.c **** 
 431:Drivers/lvgl/src/extra/themes/mono/lv_theme_mono.c **** #if LV_USE_KEYBOARD
 432:Drivers/lvgl/src/extra/themes/mono/lv_theme_mono.c ****     else if(lv_obj_check_type(obj, &lv_keyboard_class)) {
 433:Drivers/lvgl/src/extra/themes/mono/lv_theme_mono.c ****         lv_obj_add_style(obj, &styles->card, 0);
 434:Drivers/lvgl/src/extra/themes/mono/lv_theme_mono.c ****         lv_obj_add_style(obj, &styles->card, LV_PART_ITEMS);
 435:Drivers/lvgl/src/extra/themes/mono/lv_theme_mono.c ****         lv_obj_add_style(obj, &styles->pr, LV_PART_ITEMS | LV_STATE_PRESSED);
 436:Drivers/lvgl/src/extra/themes/mono/lv_theme_mono.c ****         lv_obj_add_style(obj, &styles->inv, LV_PART_ITEMS | LV_STATE_CHECKED);
 437:Drivers/lvgl/src/extra/themes/mono/lv_theme_mono.c ****         lv_obj_add_style(obj, &styles->focus, LV_STATE_FOCUS_KEY);
 438:Drivers/lvgl/src/extra/themes/mono/lv_theme_mono.c ****         lv_obj_add_style(obj, &styles->edit, LV_STATE_EDITED);
 439:Drivers/lvgl/src/extra/themes/mono/lv_theme_mono.c ****         lv_obj_add_style(obj, &styles->large_border, LV_PART_ITEMS | LV_STATE_EDITED);
 440:Drivers/lvgl/src/extra/themes/mono/lv_theme_mono.c ****     }
 441:Drivers/lvgl/src/extra/themes/mono/lv_theme_mono.c **** #endif
 442:Drivers/lvgl/src/extra/themes/mono/lv_theme_mono.c **** #if LV_USE_LIST
 443:Drivers/lvgl/src/extra/themes/mono/lv_theme_mono.c ****     else if(lv_obj_check_type(obj, &lv_list_class)) {
 444:Drivers/lvgl/src/extra/themes/mono/lv_theme_mono.c ****         lv_obj_add_style(obj, &styles->card, 0);
 445:Drivers/lvgl/src/extra/themes/mono/lv_theme_mono.c ****         lv_obj_add_style(obj, &styles->scrollbar, LV_PART_SCROLLBAR);
 446:Drivers/lvgl/src/extra/themes/mono/lv_theme_mono.c ****         return;
 447:Drivers/lvgl/src/extra/themes/mono/lv_theme_mono.c ****     }
 448:Drivers/lvgl/src/extra/themes/mono/lv_theme_mono.c ****     else if(lv_obj_check_type(obj, &lv_list_text_class)) {
 449:Drivers/lvgl/src/extra/themes/mono/lv_theme_mono.c **** 
 450:Drivers/lvgl/src/extra/themes/mono/lv_theme_mono.c ****     }
 451:Drivers/lvgl/src/extra/themes/mono/lv_theme_mono.c ****     else if(lv_obj_check_type(obj, &lv_list_btn_class)) {
ARM GAS  /var/folders/lp/x54gwt890xv47sdkqj1k04q40000gn/T//cc6ygGfE.s 			page 11


 452:Drivers/lvgl/src/extra/themes/mono/lv_theme_mono.c ****         lv_obj_add_style(obj, &styles->card, 0);
 453:Drivers/lvgl/src/extra/themes/mono/lv_theme_mono.c ****         lv_obj_add_style(obj, &styles->pr, LV_STATE_PRESSED);
 454:Drivers/lvgl/src/extra/themes/mono/lv_theme_mono.c ****         lv_obj_add_style(obj, &styles->focus, LV_STATE_FOCUS_KEY);
 455:Drivers/lvgl/src/extra/themes/mono/lv_theme_mono.c ****         lv_obj_add_style(obj, &styles->large_border, LV_STATE_EDITED);
 456:Drivers/lvgl/src/extra/themes/mono/lv_theme_mono.c **** 
 457:Drivers/lvgl/src/extra/themes/mono/lv_theme_mono.c ****     }
 458:Drivers/lvgl/src/extra/themes/mono/lv_theme_mono.c **** #endif
 459:Drivers/lvgl/src/extra/themes/mono/lv_theme_mono.c **** #if LV_USE_MSGBOX
 460:Drivers/lvgl/src/extra/themes/mono/lv_theme_mono.c ****     else if(lv_obj_check_type(obj, &lv_msgbox_class)) {
 461:Drivers/lvgl/src/extra/themes/mono/lv_theme_mono.c ****         lv_obj_add_style(obj, &styles->card, 0);
 462:Drivers/lvgl/src/extra/themes/mono/lv_theme_mono.c ****         return;
 463:Drivers/lvgl/src/extra/themes/mono/lv_theme_mono.c ****     }
 464:Drivers/lvgl/src/extra/themes/mono/lv_theme_mono.c **** #endif
 465:Drivers/lvgl/src/extra/themes/mono/lv_theme_mono.c **** #if LV_USE_SPINBOX
 466:Drivers/lvgl/src/extra/themes/mono/lv_theme_mono.c ****     else if(lv_obj_check_type(obj, &lv_spinbox_class)) {
 467:Drivers/lvgl/src/extra/themes/mono/lv_theme_mono.c ****         lv_obj_add_style(obj, &styles->card, 0);
 468:Drivers/lvgl/src/extra/themes/mono/lv_theme_mono.c ****         lv_obj_add_style(obj, &styles->inv, LV_PART_CURSOR);
 469:Drivers/lvgl/src/extra/themes/mono/lv_theme_mono.c ****         lv_obj_add_style(obj, &styles->focus, LV_STATE_FOCUS_KEY);
 470:Drivers/lvgl/src/extra/themes/mono/lv_theme_mono.c ****         lv_obj_add_style(obj, &styles->edit, LV_STATE_EDITED);
 471:Drivers/lvgl/src/extra/themes/mono/lv_theme_mono.c ****     }
 472:Drivers/lvgl/src/extra/themes/mono/lv_theme_mono.c **** #endif
 473:Drivers/lvgl/src/extra/themes/mono/lv_theme_mono.c **** #if LV_USE_TILEVIEW
 474:Drivers/lvgl/src/extra/themes/mono/lv_theme_mono.c ****     else if(lv_obj_check_type(obj, &lv_tileview_class)) {
 475:Drivers/lvgl/src/extra/themes/mono/lv_theme_mono.c ****         lv_obj_add_style(obj, &styles->scr, 0);
 476:Drivers/lvgl/src/extra/themes/mono/lv_theme_mono.c ****         lv_obj_add_style(obj, &styles->scrollbar, LV_PART_SCROLLBAR);
 477:Drivers/lvgl/src/extra/themes/mono/lv_theme_mono.c ****     }
 478:Drivers/lvgl/src/extra/themes/mono/lv_theme_mono.c ****     else if(lv_obj_check_type(obj, &lv_tileview_tile_class)) {
 479:Drivers/lvgl/src/extra/themes/mono/lv_theme_mono.c ****         lv_obj_add_style(obj, &styles->scrollbar, LV_PART_SCROLLBAR);
 480:Drivers/lvgl/src/extra/themes/mono/lv_theme_mono.c ****     }
 481:Drivers/lvgl/src/extra/themes/mono/lv_theme_mono.c **** #endif
 482:Drivers/lvgl/src/extra/themes/mono/lv_theme_mono.c **** 
 483:Drivers/lvgl/src/extra/themes/mono/lv_theme_mono.c **** #if LV_USE_LED
 484:Drivers/lvgl/src/extra/themes/mono/lv_theme_mono.c ****     else if(lv_obj_check_type(obj, &lv_led_class)) {
 485:Drivers/lvgl/src/extra/themes/mono/lv_theme_mono.c ****         lv_obj_add_style(obj, &styles->card, 0);
 486:Drivers/lvgl/src/extra/themes/mono/lv_theme_mono.c ****     }
 487:Drivers/lvgl/src/extra/themes/mono/lv_theme_mono.c **** #endif
 488:Drivers/lvgl/src/extra/themes/mono/lv_theme_mono.c **** }
 119              		.loc 1 488 1 is_stmt 0 view .LVU23
 120 006e BDE8F840 		pop	{r3, r4, r5, r6, r7, lr}
 121              		.cfi_remember_state
 122              		.cfi_restore 14
 123              		.cfi_restore 7
 124              		.cfi_restore 6
 125              		.cfi_restore 5
 126              		.cfi_restore 4
 127              		.cfi_restore 3
 128              		.cfi_def_cfa_offset 0
 129              	.LVL10:
 333:Drivers/lvgl/src/extra/themes/mono/lv_theme_mono.c ****         lv_obj_add_style(obj, &styles->edit, LV_STATE_EDITED);
 130              		.loc 1 333 9 view .LVU24
 131 0072 4031     		adds	r1, r1, #64
 132 0074 FFF7FEBF 		b	lv_obj_add_style
 133              	.LVL11:
 134              	.L57:
 135              		.cfi_restore_state
 136              	.LBB70:
 212:Drivers/lvgl/src/extra/themes/mono/lv_theme_mono.c ****         /*Tabview content area*/
ARM GAS  /var/folders/lp/x54gwt890xv47sdkqj1k04q40000gn/T//cc6ygGfE.s 			page 12


 137              		.loc 1 212 9 is_stmt 1 view .LVU25
 212:Drivers/lvgl/src/extra/themes/mono/lv_theme_mono.c ****         /*Tabview content area*/
 138              		.loc 1 212 29 is_stmt 0 view .LVU26
 139 0078 2046     		mov	r0, r4
 140 007a FFF7FEFF 		bl	lv_obj_get_parent
 141              	.LVL12:
 214:Drivers/lvgl/src/extra/themes/mono/lv_theme_mono.c ****             return;
 142              		.loc 1 214 12 view .LVU27
 143 007e 9849     		ldr	r1, .L64+12
 212:Drivers/lvgl/src/extra/themes/mono/lv_theme_mono.c ****         /*Tabview content area*/
 144              		.loc 1 212 29 view .LVU28
 145 0080 0646     		mov	r6, r0
 146              	.LVL13:
 214:Drivers/lvgl/src/extra/themes/mono/lv_theme_mono.c ****             return;
 147              		.loc 1 214 9 is_stmt 1 view .LVU29
 214:Drivers/lvgl/src/extra/themes/mono/lv_theme_mono.c ****             return;
 148              		.loc 1 214 12 is_stmt 0 view .LVU30
 149 0082 FFF7FEFF 		bl	lv_obj_check_type
 150              	.LVL14:
 214:Drivers/lvgl/src/extra/themes/mono/lv_theme_mono.c ****             return;
 151              		.loc 1 214 11 discriminator 1 view .LVU31
 152 0086 0546     		mov	r5, r0
 153 0088 98BB     		cbnz	r0, .L1
 218:Drivers/lvgl/src/extra/themes/mono/lv_theme_mono.c ****             lv_obj_add_style(obj, &styles->card, 0);
 154              		.loc 1 218 14 is_stmt 1 view .LVU32
 218:Drivers/lvgl/src/extra/themes/mono/lv_theme_mono.c ****             lv_obj_add_style(obj, &styles->card, 0);
 155              		.loc 1 218 35 is_stmt 0 view .LVU33
 156 008a 3046     		mov	r0, r6
 157 008c FFF7FEFF 		bl	lv_obj_get_parent
 158              	.LVL15:
 218:Drivers/lvgl/src/extra/themes/mono/lv_theme_mono.c ****             lv_obj_add_style(obj, &styles->card, 0);
 159              		.loc 1 218 17 discriminator 1 view .LVU34
 160 0090 9349     		ldr	r1, .L64+12
 161 0092 FFF7FEFF 		bl	lv_obj_check_type
 162              	.LVL16:
 218:Drivers/lvgl/src/extra/themes/mono/lv_theme_mono.c ****             lv_obj_add_style(obj, &styles->card, 0);
 163              		.loc 1 218 16 discriminator 2 view .LVU35
 164 0096 0028     		cmp	r0, #0
 165 0098 40F09D80 		bne	.L58
 228:Drivers/lvgl/src/extra/themes/mono/lv_theme_mono.c ****             lv_obj_add_style(obj, &styles->card, 0);
 166              		.loc 1 228 9 is_stmt 1 view .LVU36
 228:Drivers/lvgl/src/extra/themes/mono/lv_theme_mono.c ****             lv_obj_add_style(obj, &styles->card, 0);
 167              		.loc 1 228 12 is_stmt 0 view .LVU37
 168 009c 2046     		mov	r0, r4
 169 009e FFF7FEFF 		bl	lv_obj_get_index
 170              	.LVL17:
 228:Drivers/lvgl/src/extra/themes/mono/lv_theme_mono.c ****             lv_obj_add_style(obj, &styles->card, 0);
 171              		.loc 1 228 11 discriminator 1 view .LVU38
 172 00a2 0546     		mov	r5, r0
 173 00a4 40B9     		cbnz	r0, .L7
 228:Drivers/lvgl/src/extra/themes/mono/lv_theme_mono.c ****             lv_obj_add_style(obj, &styles->card, 0);
 174              		.loc 1 228 60 discriminator 1 view .LVU39
 175 00a6 2046     		mov	r0, r4
 176 00a8 FFF7FEFF 		bl	lv_obj_get_parent
 177              	.LVL18:
 228:Drivers/lvgl/src/extra/themes/mono/lv_theme_mono.c ****             lv_obj_add_style(obj, &styles->card, 0);
 178              		.loc 1 228 42 discriminator 1 view .LVU40
ARM GAS  /var/folders/lp/x54gwt890xv47sdkqj1k04q40000gn/T//cc6ygGfE.s 			page 13


 179 00ac 8D49     		ldr	r1, .L64+16
 180 00ae FFF7FEFF 		bl	lv_obj_check_type
 181              	.LVL19:
 228:Drivers/lvgl/src/extra/themes/mono/lv_theme_mono.c ****             lv_obj_add_style(obj, &styles->card, 0);
 182              		.loc 1 228 39 discriminator 2 view .LVU41
 183 00b2 0028     		cmp	r0, #0
 184 00b4 40F08781 		bne	.L59
 185              	.L7:
 234:Drivers/lvgl/src/extra/themes/mono/lv_theme_mono.c ****             lv_obj_add_style(obj, &styles->card, 0);
 186              		.loc 1 234 14 is_stmt 1 view .LVU42
 234:Drivers/lvgl/src/extra/themes/mono/lv_theme_mono.c ****             lv_obj_add_style(obj, &styles->card, 0);
 187              		.loc 1 234 17 is_stmt 0 view .LVU43
 188 00b8 2046     		mov	r0, r4
 189 00ba FFF7FEFF 		bl	lv_obj_get_index
 190              	.LVL20:
 234:Drivers/lvgl/src/extra/themes/mono/lv_theme_mono.c ****             lv_obj_add_style(obj, &styles->card, 0);
 191              		.loc 1 234 16 discriminator 1 view .LVU44
 192 00be 0128     		cmp	r0, #1
 235:Drivers/lvgl/src/extra/themes/mono/lv_theme_mono.c ****             lv_obj_add_style(obj, &styles->no_radius, 0);
 193              		.loc 1 235 42 view .LVU45
 194 00c0 864D     		ldr	r5, .L64+8
 234:Drivers/lvgl/src/extra/themes/mono/lv_theme_mono.c ****             lv_obj_add_style(obj, &styles->card, 0);
 195              		.loc 1 234 16 discriminator 1 view .LVU46
 196 00c2 00F05981 		beq	.L60
 197              	.L8:
 241:Drivers/lvgl/src/extra/themes/mono/lv_theme_mono.c ****         lv_obj_add_style(obj, &styles->scrollbar, LV_PART_SCROLLBAR);
 198              		.loc 1 241 9 is_stmt 1 view .LVU47
 199 00c6 2968     		ldr	r1, [r5]
 200 00c8 0022     		movs	r2, #0
 201 00ca 2046     		mov	r0, r4
 202 00cc 0831     		adds	r1, r1, #8
 203              	.LVL21:
 204              	.L44:
 236:Drivers/lvgl/src/extra/themes/mono/lv_theme_mono.c ****             lv_obj_add_style(obj, &styles->scrollbar, LV_PART_SCROLLBAR);
 205              		.loc 1 236 13 is_stmt 0 view .LVU48
 206 00ce FFF7FEFF 		bl	lv_obj_add_style
 207              	.LVL22:
 237:Drivers/lvgl/src/extra/themes/mono/lv_theme_mono.c ****             return;
 208              		.loc 1 237 13 is_stmt 1 view .LVU49
 209 00d2 2968     		ldr	r1, [r5]
 210 00d4 2046     		mov	r0, r4
 211 00d6 4FF48032 		mov	r2, #65536
 212              	.LBE70:
 213              		.loc 1 488 1 is_stmt 0 view .LVU50
 214 00da BDE8F840 		pop	{r3, r4, r5, r6, r7, lr}
 215              		.cfi_remember_state
 216              		.cfi_restore 14
 217              		.cfi_restore 7
 218              		.cfi_restore 6
 219              		.cfi_restore 5
 220              		.cfi_restore 4
 221              		.cfi_restore 3
 222              		.cfi_def_cfa_offset 0
 223              	.LVL23:
 224              	.LBB71:
 237:Drivers/lvgl/src/extra/themes/mono/lv_theme_mono.c ****             return;
 225              		.loc 1 237 13 view .LVU51
ARM GAS  /var/folders/lp/x54gwt890xv47sdkqj1k04q40000gn/T//cc6ygGfE.s 			page 14


 226 00de 1031     		adds	r1, r1, #16
 227 00e0 FFF7FEBF 		b	lv_obj_add_style
 228              	.LVL24:
 229              	.L33:
 230              		.cfi_restore_state
 237:Drivers/lvgl/src/extra/themes/mono/lv_theme_mono.c ****             return;
 231              		.loc 1 237 13 view .LVU52
 232              	.LBE71:
 484:Drivers/lvgl/src/extra/themes/mono/lv_theme_mono.c ****         lv_obj_add_style(obj, &styles->card, 0);
 233              		.loc 1 484 10 is_stmt 1 view .LVU53
 484:Drivers/lvgl/src/extra/themes/mono/lv_theme_mono.c ****         lv_obj_add_style(obj, &styles->card, 0);
 234              		.loc 1 484 13 is_stmt 0 view .LVU54
 235 00e4 8049     		ldr	r1, .L64+20
 236 00e6 2046     		mov	r0, r4
 237 00e8 FFF7FEFF 		bl	lv_obj_check_type
 238              	.LVL25:
 484:Drivers/lvgl/src/extra/themes/mono/lv_theme_mono.c ****         lv_obj_add_style(obj, &styles->card, 0);
 239              		.loc 1 484 12 discriminator 1 view .LVU55
 240 00ec 0028     		cmp	r0, #0
 241 00ee 40F0B982 		bne	.L47
 242              	.L1:
 243              		.loc 1 488 1 view .LVU56
 244 00f2 F8BD     		pop	{r3, r4, r5, r6, r7, pc}
 245              	.LVL26:
 246              	.L9:
 256:Drivers/lvgl/src/extra/themes/mono/lv_theme_mono.c **** #if LV_USE_MSGBOX
 247              		.loc 1 256 10 is_stmt 1 view .LVU57
 256:Drivers/lvgl/src/extra/themes/mono/lv_theme_mono.c **** #if LV_USE_MSGBOX
 248              		.loc 1 256 13 is_stmt 0 view .LVU58
 249 00f4 7D49     		ldr	r1, .L64+24
 250 00f6 2046     		mov	r0, r4
 251 00f8 FFF7FEFF 		bl	lv_obj_check_type
 252              	.LVL27:
 256:Drivers/lvgl/src/extra/themes/mono/lv_theme_mono.c **** #if LV_USE_MSGBOX
 253              		.loc 1 256 12 discriminator 1 view .LVU59
 254 00fc 0546     		mov	r5, r0
 255 00fe 0028     		cmp	r0, #0
 256 0100 46D0     		beq	.L10
 258:Drivers/lvgl/src/extra/themes/mono/lv_theme_mono.c ****             lv_obj_add_style(obj, &styles->pad_gap, 0);
 257              		.loc 1 258 9 is_stmt 1 view .LVU60
 258:Drivers/lvgl/src/extra/themes/mono/lv_theme_mono.c ****             lv_obj_add_style(obj, &styles->pad_gap, 0);
 258              		.loc 1 258 30 is_stmt 0 view .LVU61
 259 0102 2046     		mov	r0, r4
 260 0104 FFF7FEFF 		bl	lv_obj_get_parent
 261              	.LVL28:
 258:Drivers/lvgl/src/extra/themes/mono/lv_theme_mono.c ****             lv_obj_add_style(obj, &styles->pad_gap, 0);
 262              		.loc 1 258 12 discriminator 1 view .LVU62
 263 0108 7949     		ldr	r1, .L64+28
 264 010a FFF7FEFF 		bl	lv_obj_check_type
 265              	.LVL29:
 258:Drivers/lvgl/src/extra/themes/mono/lv_theme_mono.c ****             lv_obj_add_style(obj, &styles->pad_gap, 0);
 266              		.loc 1 258 11 discriminator 2 view .LVU63
 267 010e 0546     		mov	r5, r0
 268 0110 0028     		cmp	r0, #0
 269 0112 40F04581 		bne	.L61
 269:Drivers/lvgl/src/extra/themes/mono/lv_theme_mono.c ****             lv_obj_add_style(obj, &styles->pad_gap, 0);
 270              		.loc 1 269 9 is_stmt 1 view .LVU64
ARM GAS  /var/folders/lp/x54gwt890xv47sdkqj1k04q40000gn/T//cc6ygGfE.s 			page 15


 269:Drivers/lvgl/src/extra/themes/mono/lv_theme_mono.c ****             lv_obj_add_style(obj, &styles->pad_gap, 0);
 271              		.loc 1 269 30 is_stmt 0 view .LVU65
 272 0116 2046     		mov	r0, r4
 273 0118 FFF7FEFF 		bl	lv_obj_get_parent
 274              	.LVL30:
 269:Drivers/lvgl/src/extra/themes/mono/lv_theme_mono.c ****             lv_obj_add_style(obj, &styles->pad_gap, 0);
 275              		.loc 1 269 12 discriminator 1 view .LVU66
 276 011c 7049     		ldr	r1, .L64+12
 277 011e FFF7FEFF 		bl	lv_obj_check_type
 278              	.LVL31:
 269:Drivers/lvgl/src/extra/themes/mono/lv_theme_mono.c ****             lv_obj_add_style(obj, &styles->pad_gap, 0);
 279              		.loc 1 269 11 discriminator 2 view .LVU67
 280 0122 0246     		mov	r2, r0
 281 0124 0028     		cmp	r0, #0
 282 0126 40F0F380 		bne	.L62
 281:Drivers/lvgl/src/extra/themes/mono/lv_theme_mono.c ****         lv_obj_add_style(obj, &styles->focus, LV_STATE_FOCUS_KEY);
 283              		.loc 1 281 9 is_stmt 1 view .LVU68
 281:Drivers/lvgl/src/extra/themes/mono/lv_theme_mono.c ****         lv_obj_add_style(obj, &styles->focus, LV_STATE_FOCUS_KEY);
 284              		.loc 1 281 38 is_stmt 0 view .LVU69
 285 012a 6C4D     		ldr	r5, .L64+8
 281:Drivers/lvgl/src/extra/themes/mono/lv_theme_mono.c ****         lv_obj_add_style(obj, &styles->focus, LV_STATE_FOCUS_KEY);
 286              		.loc 1 281 9 view .LVU70
 287 012c 2968     		ldr	r1, [r5]
 288 012e 2046     		mov	r0, r4
 289 0130 0831     		adds	r1, r1, #8
 290 0132 FFF7FEFF 		bl	lv_obj_add_style
 291              	.LVL32:
 282:Drivers/lvgl/src/extra/themes/mono/lv_theme_mono.c ****         lv_obj_add_style(obj, &styles->card, LV_PART_ITEMS);
 292              		.loc 1 282 9 is_stmt 1 view .LVU71
 293 0136 2968     		ldr	r1, [r5]
 294 0138 0422     		movs	r2, #4
 295 013a 2046     		mov	r0, r4
 296 013c 3831     		adds	r1, r1, #56
 297 013e FFF7FEFF 		bl	lv_obj_add_style
 298              	.LVL33:
 283:Drivers/lvgl/src/extra/themes/mono/lv_theme_mono.c ****         lv_obj_add_style(obj, &styles->pr, LV_PART_ITEMS | LV_STATE_PRESSED);
 299              		.loc 1 283 9 view .LVU72
 300 0142 2968     		ldr	r1, [r5]
 301 0144 4FF4A022 		mov	r2, #327680
 302 0148 2046     		mov	r0, r4
 303 014a 0831     		adds	r1, r1, #8
 304 014c FFF7FEFF 		bl	lv_obj_add_style
 305              	.LVL34:
 284:Drivers/lvgl/src/extra/themes/mono/lv_theme_mono.c ****         lv_obj_add_style(obj, &styles->inv, LV_PART_ITEMS | LV_STATE_CHECKED);
 306              		.loc 1 284 9 view .LVU73
 307 0150 2968     		ldr	r1, [r5]
 308 0152 684A     		ldr	r2, .L64+32
 309 0154 2046     		mov	r0, r4
 310 0156 2031     		adds	r1, r1, #32
 311 0158 FFF7FEFF 		bl	lv_obj_add_style
 312              	.LVL35:
 285:Drivers/lvgl/src/extra/themes/mono/lv_theme_mono.c ****         lv_obj_add_style(obj, &styles->disabled, LV_PART_ITEMS | LV_STATE_DISABLED);
 313              		.loc 1 285 9 view .LVU74
 314 015c 2968     		ldr	r1, [r5]
 315 015e 664A     		ldr	r2, .L64+36
 316 0160 2046     		mov	r0, r4
 317 0162 2831     		adds	r1, r1, #40
ARM GAS  /var/folders/lp/x54gwt890xv47sdkqj1k04q40000gn/T//cc6ygGfE.s 			page 16


 318              	.LVL36:
 319              	.L53:
 285:Drivers/lvgl/src/extra/themes/mono/lv_theme_mono.c ****         lv_obj_add_style(obj, &styles->disabled, LV_PART_ITEMS | LV_STATE_DISABLED);
 320              		.loc 1 285 9 is_stmt 0 view .LVU75
 321 0164 FFF7FEFF 		bl	lv_obj_add_style
 322              	.LVL37:
 286:Drivers/lvgl/src/extra/themes/mono/lv_theme_mono.c ****         lv_obj_add_style(obj, &styles->underline, LV_PART_ITEMS | LV_STATE_FOCUS_KEY);
 323              		.loc 1 286 9 is_stmt 1 view .LVU76
 324 0168 2968     		ldr	r1, [r5]
 325 016a 644A     		ldr	r2, .L64+40
 326 016c 2046     		mov	r0, r4
 327 016e 3031     		adds	r1, r1, #48
 328 0170 FFF7FEFF 		bl	lv_obj_add_style
 329              	.LVL38:
 287:Drivers/lvgl/src/extra/themes/mono/lv_theme_mono.c ****         lv_obj_add_style(obj, &styles->large_border, LV_PART_ITEMS | LV_STATE_FOCUS_KEY);
 330              		.loc 1 287 9 view .LVU77
 331 0174 2968     		ldr	r1, [r5]
 332 0176 624A     		ldr	r2, .L64+44
 333 0178 2046     		mov	r0, r4
 334 017a 7831     		adds	r1, r1, #120
 335 017c FFF7FEFF 		bl	lv_obj_add_style
 336              	.LVL39:
 288:Drivers/lvgl/src/extra/themes/mono/lv_theme_mono.c ****     }
 337              		.loc 1 288 9 view .LVU78
 338 0180 5F4A     		ldr	r2, .L64+44
 339              	.L48:
 455:Drivers/lvgl/src/extra/themes/mono/lv_theme_mono.c **** 
 340              		.loc 1 455 9 is_stmt 0 view .LVU79
 341 0182 2968     		ldr	r1, [r5]
 342 0184 2046     		mov	r0, r4
 343 0186 6831     		adds	r1, r1, #104
 344              		.loc 1 488 1 view .LVU80
 345 0188 BDE8F840 		pop	{r3, r4, r5, r6, r7, lr}
 346              		.cfi_remember_state
 347              		.cfi_restore 14
 348              		.cfi_restore 7
 349              		.cfi_restore 6
 350              		.cfi_restore 5
 351              		.cfi_restore 4
 352              		.cfi_restore 3
 353              		.cfi_def_cfa_offset 0
 354              	.LVL40:
 455:Drivers/lvgl/src/extra/themes/mono/lv_theme_mono.c **** 
 355              		.loc 1 455 9 view .LVU81
 356 018c FFF7FEBF 		b	lv_obj_add_style
 357              	.LVL41:
 358              	.L10:
 359              		.cfi_restore_state
 293:Drivers/lvgl/src/extra/themes/mono/lv_theme_mono.c ****         lv_obj_add_style(obj, &styles->card, 0);
 360              		.loc 1 293 10 is_stmt 1 view .LVU82
 293:Drivers/lvgl/src/extra/themes/mono/lv_theme_mono.c ****         lv_obj_add_style(obj, &styles->card, 0);
 361              		.loc 1 293 13 is_stmt 0 view .LVU83
 362 0190 5C49     		ldr	r1, .L64+48
 363 0192 2046     		mov	r0, r4
 364 0194 FFF7FEFF 		bl	lv_obj_check_type
 365              	.LVL42:
 293:Drivers/lvgl/src/extra/themes/mono/lv_theme_mono.c ****         lv_obj_add_style(obj, &styles->card, 0);
ARM GAS  /var/folders/lp/x54gwt890xv47sdkqj1k04q40000gn/T//cc6ygGfE.s 			page 17


 366              		.loc 1 293 12 discriminator 1 view .LVU84
 367 0198 0646     		mov	r6, r0
 368 019a 0028     		cmp	r0, #0
 369 019c 36D0     		beq	.L13
 294:Drivers/lvgl/src/extra/themes/mono/lv_theme_mono.c ****         lv_obj_add_style(obj, &styles->pad_zero, 0);
 370              		.loc 1 294 9 is_stmt 1 view .LVU85
 294:Drivers/lvgl/src/extra/themes/mono/lv_theme_mono.c ****         lv_obj_add_style(obj, &styles->pad_zero, 0);
 371              		.loc 1 294 38 is_stmt 0 view .LVU86
 372 019e 4F4E     		ldr	r6, .L64+8
 294:Drivers/lvgl/src/extra/themes/mono/lv_theme_mono.c ****         lv_obj_add_style(obj, &styles->pad_zero, 0);
 373              		.loc 1 294 9 view .LVU87
 374 01a0 3168     		ldr	r1, [r6]
 375 01a2 2A46     		mov	r2, r5
 376 01a4 2046     		mov	r0, r4
 377 01a6 0831     		adds	r1, r1, #8
 378 01a8 FFF7FEFF 		bl	lv_obj_add_style
 379              	.LVL43:
 295:Drivers/lvgl/src/extra/themes/mono/lv_theme_mono.c ****         lv_obj_add_style(obj, &styles->inv, LV_PART_INDICATOR);
 380              		.loc 1 295 9 is_stmt 1 view .LVU88
 381 01ac 3168     		ldr	r1, [r6]
 382 01ae 2A46     		mov	r2, r5
 383 01b0 2046     		mov	r0, r4
 384 01b2 5031     		adds	r1, r1, #80
 385 01b4 FFF7FEFF 		bl	lv_obj_add_style
 386              	.LVL44:
 296:Drivers/lvgl/src/extra/themes/mono/lv_theme_mono.c ****         lv_obj_add_style(obj, &styles->focus, LV_STATE_FOCUS_KEY);
 387              		.loc 1 296 9 view .LVU89
 388 01b8 3168     		ldr	r1, [r6]
 389 01ba 2046     		mov	r0, r4
 390 01bc 4FF40032 		mov	r2, #131072
 391 01c0 2831     		adds	r1, r1, #40
 392 01c2 FFF7FEFF 		bl	lv_obj_add_style
 393              	.LVL45:
 297:Drivers/lvgl/src/extra/themes/mono/lv_theme_mono.c ****     }
 394              		.loc 1 297 9 view .LVU90
 395 01c6 3168     		ldr	r1, [r6]
 396 01c8 2046     		mov	r0, r4
 397 01ca 0422     		movs	r2, #4
 398              		.loc 1 488 1 is_stmt 0 view .LVU91
 399 01cc BDE8F840 		pop	{r3, r4, r5, r6, r7, lr}
 400              		.cfi_remember_state
 401              		.cfi_restore 14
 402              		.cfi_restore 7
 403              		.cfi_restore 6
 404              		.cfi_restore 5
 405              		.cfi_restore 4
 406              		.cfi_restore 3
 407              		.cfi_def_cfa_offset 0
 408              	.LVL46:
 297:Drivers/lvgl/src/extra/themes/mono/lv_theme_mono.c ****     }
 409              		.loc 1 297 9 view .LVU92
 410 01d0 3831     		adds	r1, r1, #56
 411 01d2 FFF7FEBF 		b	lv_obj_add_style
 412              	.LVL47:
 413              	.L58:
 414              		.cfi_restore_state
 415              	.LBB72:
ARM GAS  /var/folders/lp/x54gwt890xv47sdkqj1k04q40000gn/T//cc6ygGfE.s 			page 18


 219:Drivers/lvgl/src/extra/themes/mono/lv_theme_mono.c ****             lv_obj_add_style(obj, &styles->no_radius, 0);
 416              		.loc 1 219 13 is_stmt 1 view .LVU93
 219:Drivers/lvgl/src/extra/themes/mono/lv_theme_mono.c ****             lv_obj_add_style(obj, &styles->no_radius, 0);
 417              		.loc 1 219 42 is_stmt 0 view .LVU94
 418 01d6 414E     		ldr	r6, .L64+8
 419              	.LVL48:
 219:Drivers/lvgl/src/extra/themes/mono/lv_theme_mono.c ****             lv_obj_add_style(obj, &styles->no_radius, 0);
 420              		.loc 1 219 13 view .LVU95
 421 01d8 3168     		ldr	r1, [r6]
 422 01da 2A46     		mov	r2, r5
 423 01dc 0831     		adds	r1, r1, #8
 424 01de 2046     		mov	r0, r4
 425 01e0 FFF7FEFF 		bl	lv_obj_add_style
 426              	.LVL49:
 220:Drivers/lvgl/src/extra/themes/mono/lv_theme_mono.c ****             lv_obj_add_style(obj, &styles->scrollbar, LV_PART_SCROLLBAR);
 427              		.loc 1 220 13 is_stmt 1 view .LVU96
 428 01e4 3168     		ldr	r1, [r6]
 429 01e6 2A46     		mov	r2, r5
 430 01e8 5831     		adds	r1, r1, #88
 431 01ea 2046     		mov	r0, r4
 432              	.LVL50:
 433              	.L45:
 220:Drivers/lvgl/src/extra/themes/mono/lv_theme_mono.c ****             lv_obj_add_style(obj, &styles->scrollbar, LV_PART_SCROLLBAR);
 434              		.loc 1 220 13 is_stmt 0 view .LVU97
 435              	.LBE72:
 444:Drivers/lvgl/src/extra/themes/mono/lv_theme_mono.c ****         lv_obj_add_style(obj, &styles->scrollbar, LV_PART_SCROLLBAR);
 436              		.loc 1 444 9 view .LVU98
 437 01ec FFF7FEFF 		bl	lv_obj_add_style
 438              	.LVL51:
 445:Drivers/lvgl/src/extra/themes/mono/lv_theme_mono.c ****         return;
 439              		.loc 1 445 9 is_stmt 1 view .LVU99
 440 01f0 3168     		ldr	r1, [r6]
 441 01f2 2046     		mov	r0, r4
 442 01f4 4FF48032 		mov	r2, #65536
 443              		.loc 1 488 1 is_stmt 0 view .LVU100
 444 01f8 BDE8F840 		pop	{r3, r4, r5, r6, r7, lr}
 445              		.cfi_remember_state
 446              		.cfi_restore 14
 447              		.cfi_restore 7
 448              		.cfi_restore 6
 449              		.cfi_restore 5
 450              		.cfi_restore 4
 451              		.cfi_restore 3
 452              		.cfi_def_cfa_offset 0
 453              	.LVL52:
 445:Drivers/lvgl/src/extra/themes/mono/lv_theme_mono.c ****         return;
 454              		.loc 1 445 9 view .LVU101
 455 01fc 1031     		adds	r1, r1, #16
 456 01fe FFF7FEBF 		b	lv_obj_add_style
 457              	.LVL53:
 458              	.L56:
 459              		.cfi_restore_state
 205:Drivers/lvgl/src/extra/themes/mono/lv_theme_mono.c ****         lv_obj_add_style(obj, &styles->scrollbar, LV_PART_SCROLLBAR);
 460              		.loc 1 205 9 is_stmt 1 view .LVU102
 205:Drivers/lvgl/src/extra/themes/mono/lv_theme_mono.c ****         lv_obj_add_style(obj, &styles->scrollbar, LV_PART_SCROLLBAR);
 461              		.loc 1 205 38 is_stmt 0 view .LVU103
 462 0202 364D     		ldr	r5, .L64+8
ARM GAS  /var/folders/lp/x54gwt890xv47sdkqj1k04q40000gn/T//cc6ygGfE.s 			page 19


 205:Drivers/lvgl/src/extra/themes/mono/lv_theme_mono.c ****         lv_obj_add_style(obj, &styles->scrollbar, LV_PART_SCROLLBAR);
 463              		.loc 1 205 9 view .LVU104
 464 0204 0246     		mov	r2, r0
 465 0206 2968     		ldr	r1, [r5]
 466 0208 2046     		mov	r0, r4
 467 020a 60E7     		b	.L44
 468              	.L13:
 302:Drivers/lvgl/src/extra/themes/mono/lv_theme_mono.c ****         lv_obj_add_style(obj, &styles->card, 0);
 469              		.loc 1 302 10 is_stmt 1 view .LVU105
 302:Drivers/lvgl/src/extra/themes/mono/lv_theme_mono.c ****         lv_obj_add_style(obj, &styles->card, 0);
 470              		.loc 1 302 13 is_stmt 0 view .LVU106
 471 020c 3E49     		ldr	r1, .L64+52
 472 020e 2046     		mov	r0, r4
 473 0210 FFF7FEFF 		bl	lv_obj_check_type
 474              	.LVL54:
 302:Drivers/lvgl/src/extra/themes/mono/lv_theme_mono.c ****         lv_obj_add_style(obj, &styles->card, 0);
 475              		.loc 1 302 12 discriminator 1 view .LVU107
 476 0214 30B3     		cbz	r0, .L14
 303:Drivers/lvgl/src/extra/themes/mono/lv_theme_mono.c ****         lv_obj_add_style(obj, &styles->pad_zero, 0);
 477              		.loc 1 303 9 is_stmt 1 view .LVU108
 303:Drivers/lvgl/src/extra/themes/mono/lv_theme_mono.c ****         lv_obj_add_style(obj, &styles->pad_zero, 0);
 478              		.loc 1 303 38 is_stmt 0 view .LVU109
 479 0216 314D     		ldr	r5, .L64+8
 303:Drivers/lvgl/src/extra/themes/mono/lv_theme_mono.c ****         lv_obj_add_style(obj, &styles->pad_zero, 0);
 480              		.loc 1 303 9 view .LVU110
 481 0218 2968     		ldr	r1, [r5]
 482 021a 3246     		mov	r2, r6
 483 021c 0831     		adds	r1, r1, #8
 484 021e 2046     		mov	r0, r4
 485 0220 FFF7FEFF 		bl	lv_obj_add_style
 486              	.LVL55:
 304:Drivers/lvgl/src/extra/themes/mono/lv_theme_mono.c ****         lv_obj_add_style(obj, &styles->inv, LV_PART_INDICATOR);
 487              		.loc 1 304 9 is_stmt 1 view .LVU111
 488 0224 2968     		ldr	r1, [r5]
 489 0226 3246     		mov	r2, r6
 490 0228 5031     		adds	r1, r1, #80
 491 022a 2046     		mov	r0, r4
 492 022c FFF7FEFF 		bl	lv_obj_add_style
 493              	.LVL56:
 305:Drivers/lvgl/src/extra/themes/mono/lv_theme_mono.c ****         lv_obj_add_style(obj, &styles->card, LV_PART_KNOB);
 494              		.loc 1 305 9 view .LVU112
 495 0230 2968     		ldr	r1, [r5]
 496 0232 4FF40032 		mov	r2, #131072
 497 0236 2046     		mov	r0, r4
 498 0238 2831     		adds	r1, r1, #40
 499              	.LVL57:
 500              	.L54:
 395:Drivers/lvgl/src/extra/themes/mono/lv_theme_mono.c ****         lv_obj_add_style(obj, &styles->card, LV_PART_KNOB);
 501              		.loc 1 395 9 is_stmt 0 view .LVU113
 502 023a FFF7FEFF 		bl	lv_obj_add_style
 503              	.LVL58:
 396:Drivers/lvgl/src/extra/themes/mono/lv_theme_mono.c ****         lv_obj_add_style(obj, &styles->radius_circle, LV_PART_KNOB);
 504              		.loc 1 396 9 is_stmt 1 view .LVU114
 505 023e 2968     		ldr	r1, [r5]
 506 0240 4FF44032 		mov	r2, #196608
 507 0244 2046     		mov	r0, r4
 508 0246 0831     		adds	r1, r1, #8
ARM GAS  /var/folders/lp/x54gwt890xv47sdkqj1k04q40000gn/T//cc6ygGfE.s 			page 20


 509 0248 FFF7FEFF 		bl	lv_obj_add_style
 510              	.LVL59:
 397:Drivers/lvgl/src/extra/themes/mono/lv_theme_mono.c ****         lv_obj_add_style(obj, &styles->focus, LV_STATE_FOCUS_KEY);
 511              		.loc 1 397 9 view .LVU115
 512 024c 2968     		ldr	r1, [r5]
 513 024e 4FF44032 		mov	r2, #196608
 514 0252 2046     		mov	r0, r4
 515 0254 6031     		adds	r1, r1, #96
 516              	.LVL60:
 517              	.L50:
 468:Drivers/lvgl/src/extra/themes/mono/lv_theme_mono.c ****         lv_obj_add_style(obj, &styles->focus, LV_STATE_FOCUS_KEY);
 518              		.loc 1 468 9 is_stmt 0 view .LVU116
 519 0256 FFF7FEFF 		bl	lv_obj_add_style
 520              	.LVL61:
 469:Drivers/lvgl/src/extra/themes/mono/lv_theme_mono.c ****         lv_obj_add_style(obj, &styles->edit, LV_STATE_EDITED);
 521              		.loc 1 469 9 is_stmt 1 view .LVU117
 522 025a 0422     		movs	r2, #4
 523              	.L49:
 524 025c 2968     		ldr	r1, [r5]
 525 025e 2046     		mov	r0, r4
 526 0260 3831     		adds	r1, r1, #56
 527 0262 2DE0     		b	.L52
 528              	.L14:
 314:Drivers/lvgl/src/extra/themes/mono/lv_theme_mono.c ****         lv_obj_add_style(obj, &styles->scrollbar, LV_PART_SCROLLBAR);
 529              		.loc 1 314 10 view .LVU118
 314:Drivers/lvgl/src/extra/themes/mono/lv_theme_mono.c ****         lv_obj_add_style(obj, &styles->scrollbar, LV_PART_SCROLLBAR);
 530              		.loc 1 314 13 is_stmt 0 view .LVU119
 531 0264 2949     		ldr	r1, .L64+56
 532 0266 2046     		mov	r0, r4
 533 0268 FFF7FEFF 		bl	lv_obj_check_type
 534              	.LVL62:
 314:Drivers/lvgl/src/extra/themes/mono/lv_theme_mono.c ****         lv_obj_add_style(obj, &styles->scrollbar, LV_PART_SCROLLBAR);
 535              		.loc 1 314 12 discriminator 1 view .LVU120
 536 026c 0546     		mov	r5, r0
 537 026e 0028     		cmp	r0, #0
 538 0270 00F0B880 		beq	.L15
 315:Drivers/lvgl/src/extra/themes/mono/lv_theme_mono.c ****         lv_obj_add_style(obj, &styles->card, LV_PART_ITEMS);
 539              		.loc 1 315 9 is_stmt 1 view .LVU121
 315:Drivers/lvgl/src/extra/themes/mono/lv_theme_mono.c ****         lv_obj_add_style(obj, &styles->card, LV_PART_ITEMS);
 540              		.loc 1 315 38 is_stmt 0 view .LVU122
 541 0274 194D     		ldr	r5, .L64+8
 315:Drivers/lvgl/src/extra/themes/mono/lv_theme_mono.c ****         lv_obj_add_style(obj, &styles->card, LV_PART_ITEMS);
 542              		.loc 1 315 9 view .LVU123
 543 0276 2968     		ldr	r1, [r5]
 544 0278 4FF48032 		mov	r2, #65536
 545 027c 2046     		mov	r0, r4
 546 027e 1031     		adds	r1, r1, #16
 547 0280 FFF7FEFF 		bl	lv_obj_add_style
 548              	.LVL63:
 316:Drivers/lvgl/src/extra/themes/mono/lv_theme_mono.c ****         lv_obj_add_style(obj, &styles->no_radius, LV_PART_ITEMS);
 549              		.loc 1 316 9 is_stmt 1 view .LVU124
 550 0284 2968     		ldr	r1, [r5]
 551 0286 4FF4A022 		mov	r2, #327680
 552 028a 2046     		mov	r0, r4
 553 028c 0831     		adds	r1, r1, #8
 554 028e FFF7FEFF 		bl	lv_obj_add_style
 555              	.LVL64:
ARM GAS  /var/folders/lp/x54gwt890xv47sdkqj1k04q40000gn/T//cc6ygGfE.s 			page 21


 317:Drivers/lvgl/src/extra/themes/mono/lv_theme_mono.c ****         lv_obj_add_style(obj, &styles->pr, LV_PART_ITEMS | LV_STATE_PRESSED);
 556              		.loc 1 317 9 view .LVU125
 557 0292 2968     		ldr	r1, [r5]
 558 0294 4FF4A022 		mov	r2, #327680
 559 0298 2046     		mov	r0, r4
 560 029a 5831     		adds	r1, r1, #88
 561 029c FFF7FEFF 		bl	lv_obj_add_style
 562              	.LVL65:
 318:Drivers/lvgl/src/extra/themes/mono/lv_theme_mono.c ****         lv_obj_add_style(obj, &styles->focus, LV_STATE_FOCUS_KEY);
 563              		.loc 1 318 9 view .LVU126
 564 02a0 2968     		ldr	r1, [r5]
 565 02a2 144A     		ldr	r2, .L64+32
 566 02a4 2046     		mov	r0, r4
 567 02a6 2031     		adds	r1, r1, #32
 568 02a8 FFF7FEFF 		bl	lv_obj_add_style
 569              	.LVL66:
 319:Drivers/lvgl/src/extra/themes/mono/lv_theme_mono.c ****         lv_obj_add_style(obj, &styles->inv, LV_PART_ITEMS | LV_STATE_FOCUS_KEY);
 570              		.loc 1 319 9 view .LVU127
 571 02ac 2968     		ldr	r1, [r5]
 572 02ae 0422     		movs	r2, #4
 573 02b0 2046     		mov	r0, r4
 574 02b2 3831     		adds	r1, r1, #56
 575 02b4 FFF7FEFF 		bl	lv_obj_add_style
 576              	.LVL67:
 320:Drivers/lvgl/src/extra/themes/mono/lv_theme_mono.c ****         lv_obj_add_style(obj, &styles->edit, LV_STATE_EDITED);
 577              		.loc 1 320 9 view .LVU128
 578 02b8 2968     		ldr	r1, [r5]
 579 02ba 114A     		ldr	r2, .L64+44
 580 02bc 2046     		mov	r0, r4
 581 02be 2831     		adds	r1, r1, #40
 582              	.LVL68:
 583              	.L52:
 469:Drivers/lvgl/src/extra/themes/mono/lv_theme_mono.c ****         lv_obj_add_style(obj, &styles->edit, LV_STATE_EDITED);
 584              		.loc 1 469 9 is_stmt 0 view .LVU129
 585 02c0 FFF7FEFF 		bl	lv_obj_add_style
 586              	.LVL69:
 470:Drivers/lvgl/src/extra/themes/mono/lv_theme_mono.c ****     }
 587              		.loc 1 470 9 is_stmt 1 view .LVU130
 588 02c4 2968     		ldr	r1, [r5]
 589 02c6 2046     		mov	r0, r4
 590 02c8 0822     		movs	r2, #8
 591              		.loc 1 488 1 is_stmt 0 view .LVU131
 592 02ca BDE8F840 		pop	{r3, r4, r5, r6, r7, lr}
 593              		.cfi_remember_state
 594              		.cfi_restore 14
 595              		.cfi_restore 7
 596              		.cfi_restore 6
 597              		.cfi_restore 5
 598              		.cfi_restore 4
 599              		.cfi_restore 3
 600              		.cfi_def_cfa_offset 0
 601              	.LVL70:
 470:Drivers/lvgl/src/extra/themes/mono/lv_theme_mono.c ****     }
 602              		.loc 1 470 9 view .LVU132
 603 02ce 4031     		adds	r1, r1, #64
 604 02d0 FFF7FEBF 		b	lv_obj_add_style
 605              	.LVL71:
ARM GAS  /var/folders/lp/x54gwt890xv47sdkqj1k04q40000gn/T//cc6ygGfE.s 			page 22


 606              	.L65:
 470:Drivers/lvgl/src/extra/themes/mono/lv_theme_mono.c ****     }
 607              		.loc 1 470 9 view .LVU133
 608              		.align	2
 609              	.L64:
 610 02d4 00000000 		.word	lv_obj_class
 611 02d8 00000000 		.word	lv_btn_class
 612 02dc 00000000 		.word	styles
 613 02e0 00000000 		.word	lv_tabview_class
 614 02e4 00000000 		.word	lv_win_class
 615 02e8 00000000 		.word	lv_led_class
 616 02ec 00000000 		.word	lv_btnmatrix_class
 617 02f0 00000000 		.word	lv_msgbox_class
 618 02f4 20000500 		.word	327712
 619 02f8 01000500 		.word	327681
 620 02fc 80000500 		.word	327808
 621 0300 04000500 		.word	327684
 622 0304 00000000 		.word	lv_bar_class
 623 0308 00000000 		.word	lv_slider_class
 624 030c 00000000 		.word	lv_table_class
 625              	.LVL72:
 626              	.L62:
 627              		.cfi_restore_state
 270:Drivers/lvgl/src/extra/themes/mono/lv_theme_mono.c ****             lv_obj_add_style(obj, &styles->card, LV_PART_ITEMS);
 628              		.loc 1 270 13 is_stmt 1 view .LVU134
 270:Drivers/lvgl/src/extra/themes/mono/lv_theme_mono.c ****             lv_obj_add_style(obj, &styles->card, LV_PART_ITEMS);
 629              		.loc 1 270 42 is_stmt 0 view .LVU135
 630 0310 B14E     		ldr	r6, .L66
 270:Drivers/lvgl/src/extra/themes/mono/lv_theme_mono.c ****             lv_obj_add_style(obj, &styles->card, LV_PART_ITEMS);
 631              		.loc 1 270 13 view .LVU136
 632 0312 3168     		ldr	r1, [r6]
 633 0314 2A46     		mov	r2, r5
 634 0316 2046     		mov	r0, r4
 635 0318 4831     		adds	r1, r1, #72
 636 031a FFF7FEFF 		bl	lv_obj_add_style
 637              	.LVL73:
 271:Drivers/lvgl/src/extra/themes/mono/lv_theme_mono.c ****             lv_obj_add_style(obj, &styles->pr, LV_PART_ITEMS | LV_STATE_PRESSED);
 638              		.loc 1 271 13 is_stmt 1 view .LVU137
 639 031e 3168     		ldr	r1, [r6]
 640 0320 2046     		mov	r0, r4
 641 0322 4FF4A022 		mov	r2, #327680
 642 0326 0831     		adds	r1, r1, #8
 643 0328 FFF7FEFF 		bl	lv_obj_add_style
 644              	.LVL74:
 272:Drivers/lvgl/src/extra/themes/mono/lv_theme_mono.c ****             lv_obj_add_style(obj, &styles->inv, LV_PART_ITEMS | LV_STATE_CHECKED);
 645              		.loc 1 272 13 view .LVU138
 646 032c 3168     		ldr	r1, [r6]
 647 032e AB4A     		ldr	r2, .L66+4
 648 0330 2046     		mov	r0, r4
 649 0332 2031     		adds	r1, r1, #32
 650 0334 FFF7FEFF 		bl	lv_obj_add_style
 651              	.LVL75:
 273:Drivers/lvgl/src/extra/themes/mono/lv_theme_mono.c ****             lv_obj_add_style(obj, &styles->disabled, LV_PART_ITEMS | LV_STATE_DISABLED);
 652              		.loc 1 273 13 view .LVU139
 653 0338 3168     		ldr	r1, [r6]
 654 033a A94A     		ldr	r2, .L66+8
 655 033c 2046     		mov	r0, r4
ARM GAS  /var/folders/lp/x54gwt890xv47sdkqj1k04q40000gn/T//cc6ygGfE.s 			page 23


 656 033e 2831     		adds	r1, r1, #40
 657 0340 FFF7FEFF 		bl	lv_obj_add_style
 658              	.LVL76:
 274:Drivers/lvgl/src/extra/themes/mono/lv_theme_mono.c ****             lv_obj_add_style(obj, &styles->focus, LV_STATE_FOCUS_KEY);
 659              		.loc 1 274 13 view .LVU140
 660 0344 3168     		ldr	r1, [r6]
 661 0346 A74A     		ldr	r2, .L66+12
 662 0348 2046     		mov	r0, r4
 663 034a 3031     		adds	r1, r1, #48
 664 034c FFF7FEFF 		bl	lv_obj_add_style
 665              	.LVL77:
 275:Drivers/lvgl/src/extra/themes/mono/lv_theme_mono.c ****             lv_obj_add_style(obj, &styles->underline, LV_PART_ITEMS | LV_STATE_FOCUS_KEY);
 666              		.loc 1 275 13 view .LVU141
 667 0350 3168     		ldr	r1, [r6]
 668 0352 2046     		mov	r0, r4
 669 0354 0422     		movs	r2, #4
 670 0356 3831     		adds	r1, r1, #56
 671 0358 FFF7FEFF 		bl	lv_obj_add_style
 672              	.LVL78:
 276:Drivers/lvgl/src/extra/themes/mono/lv_theme_mono.c ****             lv_obj_add_style(obj, &styles->large_border, LV_PART_ITEMS | LV_STATE_FOCUS_KEY);
 673              		.loc 1 276 13 view .LVU142
 674 035c 3168     		ldr	r1, [r6]
 675 035e A24A     		ldr	r2, .L66+16
 676 0360 2046     		mov	r0, r4
 677 0362 7831     		adds	r1, r1, #120
 678 0364 FFF7FEFF 		bl	lv_obj_add_style
 679              	.LVL79:
 277:Drivers/lvgl/src/extra/themes/mono/lv_theme_mono.c ****             return;
 680              		.loc 1 277 13 view .LVU143
 681 0368 3168     		ldr	r1, [r6]
 682 036a 9F4A     		ldr	r2, .L66+16
 683 036c 2046     		mov	r0, r4
 684 036e 6831     		adds	r1, r1, #104
 685              		.loc 1 488 1 is_stmt 0 view .LVU144
 686 0370 BDE8F840 		pop	{r3, r4, r5, r6, r7, lr}
 687              		.cfi_remember_state
 688              		.cfi_restore 14
 689              		.cfi_restore 7
 690              		.cfi_restore 6
 691              		.cfi_restore 5
 692              		.cfi_restore 4
 693              		.cfi_restore 3
 694              		.cfi_def_cfa_offset 0
 695              	.LVL80:
 277:Drivers/lvgl/src/extra/themes/mono/lv_theme_mono.c ****             return;
 696              		.loc 1 277 13 view .LVU145
 697 0374 FFF7FEBF 		b	lv_obj_add_style
 698              	.LVL81:
 699              	.L60:
 700              		.cfi_restore_state
 701              	.LBB73:
 234:Drivers/lvgl/src/extra/themes/mono/lv_theme_mono.c ****             lv_obj_add_style(obj, &styles->card, 0);
 702              		.loc 1 234 65 discriminator 1 view .LVU146
 703 0378 2046     		mov	r0, r4
 704 037a FFF7FEFF 		bl	lv_obj_get_parent
 705              	.LVL82:
 234:Drivers/lvgl/src/extra/themes/mono/lv_theme_mono.c ****             lv_obj_add_style(obj, &styles->card, 0);
ARM GAS  /var/folders/lp/x54gwt890xv47sdkqj1k04q40000gn/T//cc6ygGfE.s 			page 24


 706              		.loc 1 234 47 discriminator 1 view .LVU147
 707 037e 9B49     		ldr	r1, .L66+20
 708 0380 FFF7FEFF 		bl	lv_obj_check_type
 709              	.LVL83:
 234:Drivers/lvgl/src/extra/themes/mono/lv_theme_mono.c ****             lv_obj_add_style(obj, &styles->card, 0);
 710              		.loc 1 234 44 discriminator 2 view .LVU148
 711 0384 0028     		cmp	r0, #0
 712 0386 3FF49EAE 		beq	.L8
 235:Drivers/lvgl/src/extra/themes/mono/lv_theme_mono.c ****             lv_obj_add_style(obj, &styles->no_radius, 0);
 713              		.loc 1 235 13 is_stmt 1 view .LVU149
 714 038a 2968     		ldr	r1, [r5]
 715 038c 0022     		movs	r2, #0
 716 038e 2046     		mov	r0, r4
 717 0390 0831     		adds	r1, r1, #8
 718 0392 FFF7FEFF 		bl	lv_obj_add_style
 719              	.LVL84:
 236:Drivers/lvgl/src/extra/themes/mono/lv_theme_mono.c ****             lv_obj_add_style(obj, &styles->scrollbar, LV_PART_SCROLLBAR);
 720              		.loc 1 236 13 view .LVU150
 721 0396 2968     		ldr	r1, [r5]
 722 0398 0022     		movs	r2, #0
 723 039a 2046     		mov	r0, r4
 724 039c 5831     		adds	r1, r1, #88
 725 039e 96E6     		b	.L44
 726              	.LVL85:
 727              	.L61:
 236:Drivers/lvgl/src/extra/themes/mono/lv_theme_mono.c ****             lv_obj_add_style(obj, &styles->scrollbar, LV_PART_SCROLLBAR);
 728              		.loc 1 236 13 is_stmt 0 view .LVU151
 729              	.LBE73:
 259:Drivers/lvgl/src/extra/themes/mono/lv_theme_mono.c ****             lv_obj_add_style(obj, &styles->card, LV_PART_ITEMS);
 730              		.loc 1 259 13 is_stmt 1 view .LVU152
 259:Drivers/lvgl/src/extra/themes/mono/lv_theme_mono.c ****             lv_obj_add_style(obj, &styles->card, LV_PART_ITEMS);
 731              		.loc 1 259 42 is_stmt 0 view .LVU153
 732 03a0 8D4D     		ldr	r5, .L66
 259:Drivers/lvgl/src/extra/themes/mono/lv_theme_mono.c ****             lv_obj_add_style(obj, &styles->card, LV_PART_ITEMS);
 733              		.loc 1 259 13 view .LVU154
 734 03a2 2968     		ldr	r1, [r5]
 735 03a4 3246     		mov	r2, r6
 736 03a6 2046     		mov	r0, r4
 737 03a8 4831     		adds	r1, r1, #72
 738 03aa FFF7FEFF 		bl	lv_obj_add_style
 739              	.LVL86:
 260:Drivers/lvgl/src/extra/themes/mono/lv_theme_mono.c ****             lv_obj_add_style(obj, &styles->pr, LV_PART_ITEMS | LV_STATE_PRESSED);
 740              		.loc 1 260 13 is_stmt 1 view .LVU155
 741 03ae 2968     		ldr	r1, [r5]
 742 03b0 4FF4A022 		mov	r2, #327680
 743 03b4 2046     		mov	r0, r4
 744 03b6 0831     		adds	r1, r1, #8
 745 03b8 FFF7FEFF 		bl	lv_obj_add_style
 746              	.LVL87:
 261:Drivers/lvgl/src/extra/themes/mono/lv_theme_mono.c ****             lv_obj_add_style(obj, &styles->disabled, LV_PART_ITEMS | LV_STATE_DISABLED);
 747              		.loc 1 261 13 view .LVU156
 748 03bc 2968     		ldr	r1, [r5]
 749 03be 874A     		ldr	r2, .L66+4
 750 03c0 2046     		mov	r0, r4
 751 03c2 2031     		adds	r1, r1, #32
 752 03c4 CEE6     		b	.L53
 753              	.LVL88:
ARM GAS  /var/folders/lp/x54gwt890xv47sdkqj1k04q40000gn/T//cc6ygGfE.s 			page 25


 754              	.L59:
 755              	.LBB74:
 229:Drivers/lvgl/src/extra/themes/mono/lv_theme_mono.c ****             lv_obj_add_style(obj, &styles->no_radius, 0);
 756              		.loc 1 229 13 view .LVU157
 229:Drivers/lvgl/src/extra/themes/mono/lv_theme_mono.c ****             lv_obj_add_style(obj, &styles->no_radius, 0);
 757              		.loc 1 229 42 is_stmt 0 view .LVU158
 758 03c6 844E     		ldr	r6, .L66
 759              	.LVL89:
 229:Drivers/lvgl/src/extra/themes/mono/lv_theme_mono.c ****             lv_obj_add_style(obj, &styles->no_radius, 0);
 760              		.loc 1 229 13 view .LVU159
 761 03c8 3168     		ldr	r1, [r6]
 762 03ca 2A46     		mov	r2, r5
 763 03cc 2046     		mov	r0, r4
 764 03ce 0831     		adds	r1, r1, #8
 765 03d0 FFF7FEFF 		bl	lv_obj_add_style
 766              	.LVL90:
 230:Drivers/lvgl/src/extra/themes/mono/lv_theme_mono.c ****             return;
 767              		.loc 1 230 13 is_stmt 1 view .LVU160
 768 03d4 3168     		ldr	r1, [r6]
 769 03d6 2A46     		mov	r2, r5
 770 03d8 2046     		mov	r0, r4
 771 03da 5831     		adds	r1, r1, #88
 772              	.LBE74:
 773              		.loc 1 488 1 is_stmt 0 view .LVU161
 774 03dc BDE8F840 		pop	{r3, r4, r5, r6, r7, lr}
 775              		.cfi_remember_state
 776              		.cfi_restore 14
 777              		.cfi_restore 7
 778              		.cfi_restore 6
 779              		.cfi_restore 5
 780              		.cfi_restore 4
 781              		.cfi_restore 3
 782              		.cfi_def_cfa_offset 0
 783              	.LVL91:
 784              	.LBB75:
 230:Drivers/lvgl/src/extra/themes/mono/lv_theme_mono.c ****             return;
 785              		.loc 1 230 13 view .LVU162
 786 03e0 FFF7FEBF 		b	lv_obj_add_style
 787              	.LVL92:
 788              	.L15:
 789              		.cfi_restore_state
 230:Drivers/lvgl/src/extra/themes/mono/lv_theme_mono.c ****             return;
 790              		.loc 1 230 13 view .LVU163
 791              	.LBE75:
 326:Drivers/lvgl/src/extra/themes/mono/lv_theme_mono.c ****         lv_obj_add_style(obj, &styles->pad_gap, LV_PART_MAIN);
 792              		.loc 1 326 10 is_stmt 1 view .LVU164
 326:Drivers/lvgl/src/extra/themes/mono/lv_theme_mono.c ****         lv_obj_add_style(obj, &styles->pad_gap, LV_PART_MAIN);
 793              		.loc 1 326 13 is_stmt 0 view .LVU165
 794 03e4 8249     		ldr	r1, .L66+24
 795 03e6 2046     		mov	r0, r4
 796 03e8 FFF7FEFF 		bl	lv_obj_check_type
 797              	.LVL93:
 326:Drivers/lvgl/src/extra/themes/mono/lv_theme_mono.c ****         lv_obj_add_style(obj, &styles->pad_gap, LV_PART_MAIN);
 798              		.loc 1 326 12 discriminator 1 view .LVU166
 799 03ec 0646     		mov	r6, r0
 800 03ee F0B1     		cbz	r0, .L16
 327:Drivers/lvgl/src/extra/themes/mono/lv_theme_mono.c ****         lv_obj_add_style(obj, &styles->card, LV_PART_INDICATOR);
ARM GAS  /var/folders/lp/x54gwt890xv47sdkqj1k04q40000gn/T//cc6ygGfE.s 			page 26


 801              		.loc 1 327 9 is_stmt 1 view .LVU167
 327:Drivers/lvgl/src/extra/themes/mono/lv_theme_mono.c ****         lv_obj_add_style(obj, &styles->card, LV_PART_INDICATOR);
 802              		.loc 1 327 38 is_stmt 0 view .LVU168
 803 03f0 794E     		ldr	r6, .L66
 327:Drivers/lvgl/src/extra/themes/mono/lv_theme_mono.c ****         lv_obj_add_style(obj, &styles->card, LV_PART_INDICATOR);
 804              		.loc 1 327 9 view .LVU169
 805 03f2 3168     		ldr	r1, [r6]
 806 03f4 2A46     		mov	r2, r5
 807 03f6 2046     		mov	r0, r4
 808 03f8 4831     		adds	r1, r1, #72
 809 03fa FFF7FEFF 		bl	lv_obj_add_style
 810              	.LVL94:
 328:Drivers/lvgl/src/extra/themes/mono/lv_theme_mono.c ****         lv_obj_add_style(obj, &styles->disabled, LV_PART_INDICATOR | LV_STATE_DISABLED);
 811              		.loc 1 328 9 is_stmt 1 view .LVU170
 812 03fe 3168     		ldr	r1, [r6]
 813 0400 4FF40032 		mov	r2, #131072
 814 0404 2046     		mov	r0, r4
 815 0406 0831     		adds	r1, r1, #8
 816 0408 FFF7FEFF 		bl	lv_obj_add_style
 817              	.LVL95:
 329:Drivers/lvgl/src/extra/themes/mono/lv_theme_mono.c ****         lv_obj_add_style(obj, &styles->inv, LV_PART_INDICATOR | LV_STATE_CHECKED);
 818              		.loc 1 329 9 view .LVU171
 819 040c 3168     		ldr	r1, [r6]
 820 040e 794A     		ldr	r2, .L66+28
 821 0410 2046     		mov	r0, r4
 822 0412 3031     		adds	r1, r1, #48
 823 0414 FFF7FEFF 		bl	lv_obj_add_style
 824              	.LVL96:
 330:Drivers/lvgl/src/extra/themes/mono/lv_theme_mono.c ****         lv_obj_add_style(obj, &styles->pr, LV_PART_INDICATOR | LV_STATE_PRESSED);
 825              		.loc 1 330 9 view .LVU172
 826 0418 3168     		ldr	r1, [r6]
 827 041a 774A     		ldr	r2, .L66+32
 828 041c 2046     		mov	r0, r4
 829 041e 2831     		adds	r1, r1, #40
 830 0420 FFF7FEFF 		bl	lv_obj_add_style
 831              	.LVL97:
 331:Drivers/lvgl/src/extra/themes/mono/lv_theme_mono.c ****         lv_obj_add_style(obj, &styles->focus, LV_STATE_FOCUS_KEY);
 832              		.loc 1 331 9 view .LVU173
 833 0424 3168     		ldr	r1, [r6]
 834 0426 754A     		ldr	r2, .L66+36
 835 0428 2046     		mov	r0, r4
 836 042a 2031     		adds	r1, r1, #32
 837 042c 14E6     		b	.L46
 838              	.L16:
 338:Drivers/lvgl/src/extra/themes/mono/lv_theme_mono.c ****         lv_obj_add_style(obj, &styles->card, 0);
 839              		.loc 1 338 10 view .LVU174
 338:Drivers/lvgl/src/extra/themes/mono/lv_theme_mono.c ****         lv_obj_add_style(obj, &styles->card, 0);
 840              		.loc 1 338 13 is_stmt 0 view .LVU175
 841 042e 7449     		ldr	r1, .L66+40
 842 0430 2046     		mov	r0, r4
 843 0432 FFF7FEFF 		bl	lv_obj_check_type
 844              	.LVL98:
 338:Drivers/lvgl/src/extra/themes/mono/lv_theme_mono.c ****         lv_obj_add_style(obj, &styles->card, 0);
 845              		.loc 1 338 12 discriminator 1 view .LVU176
 846 0436 A0B3     		cbz	r0, .L17
 339:Drivers/lvgl/src/extra/themes/mono/lv_theme_mono.c ****         lv_obj_add_style(obj, &styles->radius_circle, 0);
 847              		.loc 1 339 9 is_stmt 1 view .LVU177
ARM GAS  /var/folders/lp/x54gwt890xv47sdkqj1k04q40000gn/T//cc6ygGfE.s 			page 27


 339:Drivers/lvgl/src/extra/themes/mono/lv_theme_mono.c ****         lv_obj_add_style(obj, &styles->radius_circle, 0);
 848              		.loc 1 339 38 is_stmt 0 view .LVU178
 849 0438 674D     		ldr	r5, .L66
 339:Drivers/lvgl/src/extra/themes/mono/lv_theme_mono.c ****         lv_obj_add_style(obj, &styles->radius_circle, 0);
 850              		.loc 1 339 9 view .LVU179
 851 043a 2968     		ldr	r1, [r5]
 852 043c 3246     		mov	r2, r6
 853 043e 0831     		adds	r1, r1, #8
 854 0440 2046     		mov	r0, r4
 855 0442 FFF7FEFF 		bl	lv_obj_add_style
 856              	.LVL99:
 340:Drivers/lvgl/src/extra/themes/mono/lv_theme_mono.c ****         lv_obj_add_style(obj, &styles->pad_zero, 0);
 857              		.loc 1 340 9 is_stmt 1 view .LVU180
 858 0446 2968     		ldr	r1, [r5]
 859 0448 3246     		mov	r2, r6
 860 044a 6031     		adds	r1, r1, #96
 861 044c 2046     		mov	r0, r4
 862 044e FFF7FEFF 		bl	lv_obj_add_style
 863              	.LVL100:
 341:Drivers/lvgl/src/extra/themes/mono/lv_theme_mono.c ****         lv_obj_add_style(obj, &styles->inv, LV_PART_INDICATOR);
 864              		.loc 1 341 9 view .LVU181
 865 0452 2968     		ldr	r1, [r5]
 866 0454 3246     		mov	r2, r6
 867 0456 5031     		adds	r1, r1, #80
 868 0458 2046     		mov	r0, r4
 869 045a FFF7FEFF 		bl	lv_obj_add_style
 870              	.LVL101:
 342:Drivers/lvgl/src/extra/themes/mono/lv_theme_mono.c ****         lv_obj_add_style(obj, &styles->radius_circle, LV_PART_INDICATOR);
 871              		.loc 1 342 9 view .LVU182
 872 045e 2968     		ldr	r1, [r5]
 873 0460 4FF40032 		mov	r2, #131072
 874 0464 2046     		mov	r0, r4
 875 0466 2831     		adds	r1, r1, #40
 876 0468 FFF7FEFF 		bl	lv_obj_add_style
 877              	.LVL102:
 343:Drivers/lvgl/src/extra/themes/mono/lv_theme_mono.c ****         lv_obj_add_style(obj, &styles->card, LV_PART_KNOB);
 878              		.loc 1 343 9 view .LVU183
 879 046c 2968     		ldr	r1, [r5]
 880 046e 4FF40032 		mov	r2, #131072
 881 0472 2046     		mov	r0, r4
 882 0474 6031     		adds	r1, r1, #96
 883 0476 FFF7FEFF 		bl	lv_obj_add_style
 884              	.LVL103:
 344:Drivers/lvgl/src/extra/themes/mono/lv_theme_mono.c ****         lv_obj_add_style(obj, &styles->radius_circle, LV_PART_KNOB);
 885              		.loc 1 344 9 view .LVU184
 886 047a 2968     		ldr	r1, [r5]
 887 047c 4FF44032 		mov	r2, #196608
 888 0480 2046     		mov	r0, r4
 889 0482 0831     		adds	r1, r1, #8
 890 0484 FFF7FEFF 		bl	lv_obj_add_style
 891              	.LVL104:
 345:Drivers/lvgl/src/extra/themes/mono/lv_theme_mono.c ****         lv_obj_add_style(obj, &styles->pad_zero, LV_PART_KNOB);
 892              		.loc 1 345 9 view .LVU185
 893 0488 2968     		ldr	r1, [r5]
 894 048a 4FF44032 		mov	r2, #196608
 895 048e 2046     		mov	r0, r4
 896 0490 6031     		adds	r1, r1, #96
ARM GAS  /var/folders/lp/x54gwt890xv47sdkqj1k04q40000gn/T//cc6ygGfE.s 			page 28


 897 0492 FFF7FEFF 		bl	lv_obj_add_style
 898              	.LVL105:
 346:Drivers/lvgl/src/extra/themes/mono/lv_theme_mono.c ****         lv_obj_add_style(obj, &styles->focus, LV_STATE_FOCUS_KEY);
 899              		.loc 1 346 9 view .LVU186
 900 0496 2968     		ldr	r1, [r5]
 901 0498 4FF44032 		mov	r2, #196608
 902 049c 2046     		mov	r0, r4
 903 049e 5031     		adds	r1, r1, #80
 904 04a0 D9E6     		b	.L50
 905              	.L17:
 353:Drivers/lvgl/src/extra/themes/mono/lv_theme_mono.c ****         lv_obj_add_style(obj, &styles->card, 0);
 906              		.loc 1 353 10 view .LVU187
 353:Drivers/lvgl/src/extra/themes/mono/lv_theme_mono.c ****         lv_obj_add_style(obj, &styles->card, 0);
 907              		.loc 1 353 13 is_stmt 0 view .LVU188
 908 04a2 5849     		ldr	r1, .L66+44
 909 04a4 2046     		mov	r0, r4
 910 04a6 FFF7FEFF 		bl	lv_obj_check_type
 911              	.LVL106:
 353:Drivers/lvgl/src/extra/themes/mono/lv_theme_mono.c ****         lv_obj_add_style(obj, &styles->card, 0);
 912              		.loc 1 353 12 discriminator 1 view .LVU189
 913 04aa 50B3     		cbz	r0, .L18
 354:Drivers/lvgl/src/extra/themes/mono/lv_theme_mono.c ****         lv_obj_add_style(obj, &styles->scrollbar, LV_PART_SCROLLBAR);
 914              		.loc 1 354 9 is_stmt 1 view .LVU190
 354:Drivers/lvgl/src/extra/themes/mono/lv_theme_mono.c ****         lv_obj_add_style(obj, &styles->scrollbar, LV_PART_SCROLLBAR);
 915              		.loc 1 354 38 is_stmt 0 view .LVU191
 916 04ac 4A4D     		ldr	r5, .L66
 354:Drivers/lvgl/src/extra/themes/mono/lv_theme_mono.c ****         lv_obj_add_style(obj, &styles->scrollbar, LV_PART_SCROLLBAR);
 917              		.loc 1 354 9 view .LVU192
 918 04ae 2968     		ldr	r1, [r5]
 919 04b0 2046     		mov	r0, r4
 920 04b2 0022     		movs	r2, #0
 921 04b4 0831     		adds	r1, r1, #8
 922 04b6 FFF7FEFF 		bl	lv_obj_add_style
 923              	.LVL107:
 355:Drivers/lvgl/src/extra/themes/mono/lv_theme_mono.c ****         lv_obj_add_style(obj, &styles->card, LV_PART_ITEMS);
 924              		.loc 1 355 9 is_stmt 1 view .LVU193
 925 04ba 2968     		ldr	r1, [r5]
 926 04bc 2046     		mov	r0, r4
 927 04be 4FF48032 		mov	r2, #65536
 928 04c2 1031     		adds	r1, r1, #16
 929 04c4 FFF7FEFF 		bl	lv_obj_add_style
 930              	.LVL108:
 356:Drivers/lvgl/src/extra/themes/mono/lv_theme_mono.c ****         lv_obj_add_style(obj, &styles->card, LV_PART_TICKS);
 931              		.loc 1 356 9 view .LVU194
 932 04c8 2968     		ldr	r1, [r5]
 933 04ca 2046     		mov	r0, r4
 934 04cc 4FF4A022 		mov	r2, #327680
 935 04d0 0831     		adds	r1, r1, #8
 936 04d2 FFF7FEFF 		bl	lv_obj_add_style
 937              	.LVL109:
 357:Drivers/lvgl/src/extra/themes/mono/lv_theme_mono.c ****         lv_obj_add_style(obj, &styles->card, LV_PART_CURSOR);
 938              		.loc 1 357 9 view .LVU195
 939 04d6 2968     		ldr	r1, [r5]
 940 04d8 2046     		mov	r0, r4
 941 04da 4FF4C022 		mov	r2, #393216
 942 04de 0831     		adds	r1, r1, #8
 943 04e0 FFF7FEFF 		bl	lv_obj_add_style
ARM GAS  /var/folders/lp/x54gwt890xv47sdkqj1k04q40000gn/T//cc6ygGfE.s 			page 29


 944              	.LVL110:
 358:Drivers/lvgl/src/extra/themes/mono/lv_theme_mono.c ****         lv_obj_add_style(obj, &styles->focus, LV_STATE_FOCUS_KEY);
 945              		.loc 1 358 9 view .LVU196
 946 04e4 2968     		ldr	r1, [r5]
 947 04e6 2046     		mov	r0, r4
 948 04e8 4FF4E022 		mov	r2, #458752
 949 04ec 0831     		adds	r1, r1, #8
 950 04ee FFF7FEFF 		bl	lv_obj_add_style
 951              	.LVL111:
 359:Drivers/lvgl/src/extra/themes/mono/lv_theme_mono.c ****     }
 952              		.loc 1 359 9 view .LVU197
 953 04f2 2968     		ldr	r1, [r5]
 954 04f4 2046     		mov	r0, r4
 955 04f6 0422     		movs	r2, #4
 956              		.loc 1 488 1 is_stmt 0 view .LVU198
 957 04f8 BDE8F840 		pop	{r3, r4, r5, r6, r7, lr}
 958              		.cfi_remember_state
 959              		.cfi_restore 14
 960              		.cfi_restore 7
 961              		.cfi_restore 6
 962              		.cfi_restore 5
 963              		.cfi_restore 4
 964              		.cfi_restore 3
 965              		.cfi_def_cfa_offset 0
 966              	.LVL112:
 359:Drivers/lvgl/src/extra/themes/mono/lv_theme_mono.c ****     }
 967              		.loc 1 359 9 view .LVU199
 968 04fc 3831     		adds	r1, r1, #56
 969 04fe FFF7FEBF 		b	lv_obj_add_style
 970              	.LVL113:
 971              	.L18:
 972              		.cfi_restore_state
 364:Drivers/lvgl/src/extra/themes/mono/lv_theme_mono.c ****         lv_obj_add_style(obj, &styles->card, 0);
 973              		.loc 1 364 10 is_stmt 1 view .LVU200
 364:Drivers/lvgl/src/extra/themes/mono/lv_theme_mono.c ****         lv_obj_add_style(obj, &styles->card, 0);
 974              		.loc 1 364 13 is_stmt 0 view .LVU201
 975 0502 4149     		ldr	r1, .L66+48
 976 0504 2046     		mov	r0, r4
 977 0506 FFF7FEFF 		bl	lv_obj_check_type
 978              	.LVL114:
 364:Drivers/lvgl/src/extra/themes/mono/lv_theme_mono.c ****         lv_obj_add_style(obj, &styles->card, 0);
 979              		.loc 1 364 12 discriminator 1 view .LVU202
 980 050a 0746     		mov	r7, r0
 981 050c 90B1     		cbz	r0, .L19
 365:Drivers/lvgl/src/extra/themes/mono/lv_theme_mono.c ****         lv_obj_add_style(obj, &styles->large_line_space, 0);
 982              		.loc 1 365 9 is_stmt 1 view .LVU203
 365:Drivers/lvgl/src/extra/themes/mono/lv_theme_mono.c ****         lv_obj_add_style(obj, &styles->large_line_space, 0);
 983              		.loc 1 365 38 is_stmt 0 view .LVU204
 984 050e 324D     		ldr	r5, .L66
 365:Drivers/lvgl/src/extra/themes/mono/lv_theme_mono.c ****         lv_obj_add_style(obj, &styles->large_line_space, 0);
 985              		.loc 1 365 9 view .LVU205
 986 0510 2968     		ldr	r1, [r5]
 987 0512 0022     		movs	r2, #0
 988 0514 2046     		mov	r0, r4
 989 0516 0831     		adds	r1, r1, #8
 990 0518 FFF7FEFF 		bl	lv_obj_add_style
 991              	.LVL115:
ARM GAS  /var/folders/lp/x54gwt890xv47sdkqj1k04q40000gn/T//cc6ygGfE.s 			page 30


 366:Drivers/lvgl/src/extra/themes/mono/lv_theme_mono.c ****         lv_obj_add_style(obj, &styles->inv, LV_PART_SELECTED);
 992              		.loc 1 366 9 is_stmt 1 view .LVU206
 993 051c 2968     		ldr	r1, [r5]
 994 051e 0022     		movs	r2, #0
 995 0520 2046     		mov	r0, r4
 996 0522 7031     		adds	r1, r1, #112
 997 0524 FFF7FEFF 		bl	lv_obj_add_style
 998              	.LVL116:
 367:Drivers/lvgl/src/extra/themes/mono/lv_theme_mono.c ****         lv_obj_add_style(obj, &styles->focus, LV_STATE_FOCUS_KEY);
 999              		.loc 1 367 9 view .LVU207
 1000 0528 4FF48022 		mov	r2, #262144
 1001              	.L51:
 468:Drivers/lvgl/src/extra/themes/mono/lv_theme_mono.c ****         lv_obj_add_style(obj, &styles->focus, LV_STATE_FOCUS_KEY);
 1002              		.loc 1 468 9 is_stmt 0 view .LVU208
 1003 052c 2968     		ldr	r1, [r5]
 1004 052e 2046     		mov	r0, r4
 1005 0530 2831     		adds	r1, r1, #40
 1006 0532 90E6     		b	.L50
 1007              	.L19:
 374:Drivers/lvgl/src/extra/themes/mono/lv_theme_mono.c ****         lv_obj_add_style(obj, &styles->card, 0);
 1008              		.loc 1 374 10 is_stmt 1 view .LVU209
 374:Drivers/lvgl/src/extra/themes/mono/lv_theme_mono.c ****         lv_obj_add_style(obj, &styles->card, 0);
 1009              		.loc 1 374 13 is_stmt 0 view .LVU210
 1010 0534 3549     		ldr	r1, .L66+52
 1011 0536 2046     		mov	r0, r4
 1012 0538 FFF7FEFF 		bl	lv_obj_check_type
 1013              	.LVL117:
 374:Drivers/lvgl/src/extra/themes/mono/lv_theme_mono.c ****         lv_obj_add_style(obj, &styles->card, 0);
 1014              		.loc 1 374 12 discriminator 1 view .LVU211
 1015 053c 0646     		mov	r6, r0
 1016 053e 58B1     		cbz	r0, .L20
 375:Drivers/lvgl/src/extra/themes/mono/lv_theme_mono.c ****         lv_obj_add_style(obj, &styles->pr, LV_STATE_PRESSED);
 1017              		.loc 1 375 9 is_stmt 1 view .LVU212
 375:Drivers/lvgl/src/extra/themes/mono/lv_theme_mono.c ****         lv_obj_add_style(obj, &styles->pr, LV_STATE_PRESSED);
 1018              		.loc 1 375 38 is_stmt 0 view .LVU213
 1019 0540 254D     		ldr	r5, .L66
 375:Drivers/lvgl/src/extra/themes/mono/lv_theme_mono.c ****         lv_obj_add_style(obj, &styles->pr, LV_STATE_PRESSED);
 1020              		.loc 1 375 9 view .LVU214
 1021 0542 2968     		ldr	r1, [r5]
 1022 0544 3A46     		mov	r2, r7
 1023 0546 2046     		mov	r0, r4
 1024 0548 0831     		adds	r1, r1, #8
 1025 054a FFF7FEFF 		bl	lv_obj_add_style
 1026              	.LVL118:
 376:Drivers/lvgl/src/extra/themes/mono/lv_theme_mono.c ****         lv_obj_add_style(obj, &styles->focus, LV_STATE_FOCUS_KEY);
 1027              		.loc 1 376 9 is_stmt 1 view .LVU215
 1028 054e 2968     		ldr	r1, [r5]
 1029 0550 2022     		movs	r2, #32
 1030 0552 2046     		mov	r0, r4
 1031 0554 1144     		add	r1, r1, r2
 1032 0556 7EE6     		b	.L50
 1033              	.L20:
 380:Drivers/lvgl/src/extra/themes/mono/lv_theme_mono.c ****         lv_obj_add_style(obj, &styles->card, 0);
 1034              		.loc 1 380 10 view .LVU216
 380:Drivers/lvgl/src/extra/themes/mono/lv_theme_mono.c ****         lv_obj_add_style(obj, &styles->card, 0);
 1035              		.loc 1 380 13 is_stmt 0 view .LVU217
 1036 0558 2D49     		ldr	r1, .L66+56
ARM GAS  /var/folders/lp/x54gwt890xv47sdkqj1k04q40000gn/T//cc6ygGfE.s 			page 31


 1037 055a 2046     		mov	r0, r4
 1038 055c FFF7FEFF 		bl	lv_obj_check_type
 1039              	.LVL119:
 380:Drivers/lvgl/src/extra/themes/mono/lv_theme_mono.c ****         lv_obj_add_style(obj, &styles->card, 0);
 1040              		.loc 1 380 12 discriminator 1 view .LVU218
 1041 0560 0746     		mov	r7, r0
 1042 0562 F0B1     		cbz	r0, .L21
 381:Drivers/lvgl/src/extra/themes/mono/lv_theme_mono.c ****         lv_obj_add_style(obj, &styles->large_line_space, 0);
 1043              		.loc 1 381 9 is_stmt 1 view .LVU219
 381:Drivers/lvgl/src/extra/themes/mono/lv_theme_mono.c ****         lv_obj_add_style(obj, &styles->large_line_space, 0);
 1044              		.loc 1 381 38 is_stmt 0 view .LVU220
 1045 0564 1C4D     		ldr	r5, .L66
 381:Drivers/lvgl/src/extra/themes/mono/lv_theme_mono.c ****         lv_obj_add_style(obj, &styles->large_line_space, 0);
 1046              		.loc 1 381 9 view .LVU221
 1047 0566 2968     		ldr	r1, [r5]
 1048 0568 3246     		mov	r2, r6
 1049 056a 0831     		adds	r1, r1, #8
 1050 056c 2046     		mov	r0, r4
 1051 056e FFF7FEFF 		bl	lv_obj_add_style
 1052              	.LVL120:
 382:Drivers/lvgl/src/extra/themes/mono/lv_theme_mono.c ****         lv_obj_add_style(obj, &styles->scrollbar, LV_PART_SCROLLBAR);
 1053              		.loc 1 382 9 is_stmt 1 view .LVU222
 1054 0572 2968     		ldr	r1, [r5]
 1055 0574 3246     		mov	r2, r6
 1056 0576 7031     		adds	r1, r1, #112
 1057 0578 2046     		mov	r0, r4
 1058 057a FFF7FEFF 		bl	lv_obj_add_style
 1059              	.LVL121:
 383:Drivers/lvgl/src/extra/themes/mono/lv_theme_mono.c ****         lv_obj_add_style(obj, &styles->inv, LV_PART_SELECTED | LV_STATE_CHECKED);
 1060              		.loc 1 383 9 view .LVU223
 1061 057e 2968     		ldr	r1, [r5]
 1062 0580 4FF48032 		mov	r2, #65536
 1063 0584 2046     		mov	r0, r4
 1064 0586 1031     		adds	r1, r1, #16
 1065 0588 FFF7FEFF 		bl	lv_obj_add_style
 1066              	.LVL122:
 384:Drivers/lvgl/src/extra/themes/mono/lv_theme_mono.c ****         lv_obj_add_style(obj, &styles->pr, LV_PART_SELECTED | LV_STATE_PRESSED);
 1067              		.loc 1 384 9 view .LVU224
 1068 058c 2968     		ldr	r1, [r5]
 1069 058e 214A     		ldr	r2, .L66+60
 1070 0590 2046     		mov	r0, r4
 1071 0592 2831     		adds	r1, r1, #40
 1072 0594 FFF7FEFF 		bl	lv_obj_add_style
 1073              	.LVL123:
 385:Drivers/lvgl/src/extra/themes/mono/lv_theme_mono.c ****         lv_obj_add_style(obj, &styles->focus, LV_STATE_FOCUS_KEY);
 1074              		.loc 1 385 9 view .LVU225
 1075 0598 2968     		ldr	r1, [r5]
 1076 059a 1F4A     		ldr	r2, .L66+64
 1077 059c 2046     		mov	r0, r4
 1078 059e 2031     		adds	r1, r1, #32
 1079 05a0 59E6     		b	.L50
 1080              	.L21:
 392:Drivers/lvgl/src/extra/themes/mono/lv_theme_mono.c ****         lv_obj_add_style(obj, &styles->card, 0);
 1081              		.loc 1 392 10 view .LVU226
 392:Drivers/lvgl/src/extra/themes/mono/lv_theme_mono.c ****         lv_obj_add_style(obj, &styles->card, 0);
 1082              		.loc 1 392 13 is_stmt 0 view .LVU227
 1083 05a2 1E49     		ldr	r1, .L66+68
ARM GAS  /var/folders/lp/x54gwt890xv47sdkqj1k04q40000gn/T//cc6ygGfE.s 			page 32


 1084 05a4 2046     		mov	r0, r4
 1085 05a6 FFF7FEFF 		bl	lv_obj_check_type
 1086              	.LVL124:
 392:Drivers/lvgl/src/extra/themes/mono/lv_theme_mono.c ****         lv_obj_add_style(obj, &styles->card, 0);
 1087              		.loc 1 392 12 discriminator 1 view .LVU228
 1088 05aa 0546     		mov	r5, r0
 1089 05ac C0B3     		cbz	r0, .L22
 393:Drivers/lvgl/src/extra/themes/mono/lv_theme_mono.c ****         lv_obj_add_style(obj, &styles->inv, LV_PART_INDICATOR);
 1090              		.loc 1 393 9 is_stmt 1 view .LVU229
 393:Drivers/lvgl/src/extra/themes/mono/lv_theme_mono.c ****         lv_obj_add_style(obj, &styles->inv, LV_PART_INDICATOR);
 1091              		.loc 1 393 38 is_stmt 0 view .LVU230
 1092 05ae 0A4D     		ldr	r5, .L66
 393:Drivers/lvgl/src/extra/themes/mono/lv_theme_mono.c ****         lv_obj_add_style(obj, &styles->inv, LV_PART_INDICATOR);
 1093              		.loc 1 393 9 view .LVU231
 1094 05b0 2968     		ldr	r1, [r5]
 1095 05b2 3A46     		mov	r2, r7
 1096 05b4 2046     		mov	r0, r4
 1097 05b6 0831     		adds	r1, r1, #8
 1098 05b8 FFF7FEFF 		bl	lv_obj_add_style
 1099              	.LVL125:
 394:Drivers/lvgl/src/extra/themes/mono/lv_theme_mono.c ****         lv_obj_add_style(obj, &styles->pad_zero, LV_PART_INDICATOR);
 1100              		.loc 1 394 9 is_stmt 1 view .LVU232
 1101 05bc 2968     		ldr	r1, [r5]
 1102 05be 4FF40032 		mov	r2, #131072
 1103 05c2 2046     		mov	r0, r4
 1104 05c4 2831     		adds	r1, r1, #40
 1105 05c6 FFF7FEFF 		bl	lv_obj_add_style
 1106              	.LVL126:
 395:Drivers/lvgl/src/extra/themes/mono/lv_theme_mono.c ****         lv_obj_add_style(obj, &styles->card, LV_PART_KNOB);
 1107              		.loc 1 395 9 view .LVU233
 1108 05ca 2968     		ldr	r1, [r5]
 1109 05cc 4FF40032 		mov	r2, #131072
 1110 05d0 2046     		mov	r0, r4
 1111 05d2 5031     		adds	r1, r1, #80
 1112 05d4 31E6     		b	.L54
 1113              	.L67:
 1114 05d6 00BF     		.align	2
 1115              	.L66:
 1116 05d8 00000000 		.word	styles
 1117 05dc 20000500 		.word	327712
 1118 05e0 01000500 		.word	327681
 1119 05e4 80000500 		.word	327808
 1120 05e8 04000500 		.word	327684
 1121 05ec 00000000 		.word	lv_win_class
 1122 05f0 00000000 		.word	lv_checkbox_class
 1123 05f4 80000200 		.word	131200
 1124 05f8 01000200 		.word	131073
 1125 05fc 20000200 		.word	131104
 1126 0600 00000000 		.word	lv_switch_class
 1127 0604 00000000 		.word	lv_chart_class
 1128 0608 00000000 		.word	lv_roller_class
 1129 060c 00000000 		.word	lv_dropdown_class
 1130 0610 00000000 		.word	lv_dropdownlist_class
 1131 0614 01000400 		.word	262145
 1132 0618 20000400 		.word	262176
 1133 061c 00000000 		.word	lv_arc_class
 1134              	.L22:
ARM GAS  /var/folders/lp/x54gwt890xv47sdkqj1k04q40000gn/T//cc6ygGfE.s 			page 33


 404:Drivers/lvgl/src/extra/themes/mono/lv_theme_mono.c ****         lv_obj_add_style(obj, &styles->card, 0);
 1135              		.loc 1 404 10 view .LVU234
 404:Drivers/lvgl/src/extra/themes/mono/lv_theme_mono.c ****         lv_obj_add_style(obj, &styles->card, 0);
 1136              		.loc 1 404 13 is_stmt 0 view .LVU235
 1137 0620 7349     		ldr	r1, .L68
 1138 0622 2046     		mov	r0, r4
 1139 0624 FFF7FEFF 		bl	lv_obj_check_type
 1140              	.LVL127:
 404:Drivers/lvgl/src/extra/themes/mono/lv_theme_mono.c ****         lv_obj_add_style(obj, &styles->card, 0);
 1141              		.loc 1 404 12 discriminator 1 view .LVU236
 1142 0628 0746     		mov	r7, r0
 1143 062a D8B9     		cbnz	r0, .L47
 410:Drivers/lvgl/src/extra/themes/mono/lv_theme_mono.c ****         lv_obj_add_style(obj, &styles->card, 0);
 1144              		.loc 1 410 10 is_stmt 1 view .LVU237
 410:Drivers/lvgl/src/extra/themes/mono/lv_theme_mono.c ****         lv_obj_add_style(obj, &styles->card, 0);
 1145              		.loc 1 410 13 is_stmt 0 view .LVU238
 1146 062c 7149     		ldr	r1, .L68+4
 1147 062e 2046     		mov	r0, r4
 1148 0630 FFF7FEFF 		bl	lv_obj_check_type
 1149              	.LVL128:
 410:Drivers/lvgl/src/extra/themes/mono/lv_theme_mono.c ****         lv_obj_add_style(obj, &styles->card, 0);
 1150              		.loc 1 410 12 discriminator 1 view .LVU239
 1151 0634 0646     		mov	r6, r0
 1152 0636 F0B1     		cbz	r0, .L24
 411:Drivers/lvgl/src/extra/themes/mono/lv_theme_mono.c ****         lv_obj_add_style(obj, &styles->scrollbar, LV_PART_SCROLLBAR);
 1153              		.loc 1 411 9 is_stmt 1 view .LVU240
 411:Drivers/lvgl/src/extra/themes/mono/lv_theme_mono.c ****         lv_obj_add_style(obj, &styles->scrollbar, LV_PART_SCROLLBAR);
 1154              		.loc 1 411 38 is_stmt 0 view .LVU241
 1155 0638 6F4D     		ldr	r5, .L68+8
 411:Drivers/lvgl/src/extra/themes/mono/lv_theme_mono.c ****         lv_obj_add_style(obj, &styles->scrollbar, LV_PART_SCROLLBAR);
 1156              		.loc 1 411 9 view .LVU242
 1157 063a 2968     		ldr	r1, [r5]
 1158 063c 3A46     		mov	r2, r7
 1159 063e 2046     		mov	r0, r4
 1160 0640 0831     		adds	r1, r1, #8
 1161 0642 FFF7FEFF 		bl	lv_obj_add_style
 1162              	.LVL129:
 412:Drivers/lvgl/src/extra/themes/mono/lv_theme_mono.c ****         lv_obj_add_style(obj, &styles->ta_cursor, LV_PART_CURSOR | LV_STATE_FOCUSED);
 1163              		.loc 1 412 9 is_stmt 1 view .LVU243
 1164 0646 2968     		ldr	r1, [r5]
 1165 0648 4FF48032 		mov	r2, #65536
 1166 064c 2046     		mov	r0, r4
 1167 064e 1031     		adds	r1, r1, #16
 1168 0650 FFF7FEFF 		bl	lv_obj_add_style
 1169              	.LVL130:
 413:Drivers/lvgl/src/extra/themes/mono/lv_theme_mono.c ****         lv_obj_add_style(obj, &styles->focus, LV_STATE_FOCUSED);
 1170              		.loc 1 413 9 view .LVU244
 1171 0654 2968     		ldr	r1, [r5]
 1172 0656 694A     		ldr	r2, .L68+12
 1173 0658 2046     		mov	r0, r4
 1174 065a 8031     		adds	r1, r1, #128
 1175 065c FFF7FEFF 		bl	lv_obj_add_style
 1176              	.LVL131:
 414:Drivers/lvgl/src/extra/themes/mono/lv_theme_mono.c ****         lv_obj_add_style(obj, &styles->edit, LV_STATE_EDITED);
 1177              		.loc 1 414 9 view .LVU245
 1178 0660 0222     		movs	r2, #2
 1179 0662 FBE5     		b	.L49
ARM GAS  /var/folders/lp/x54gwt890xv47sdkqj1k04q40000gn/T//cc6ygGfE.s 			page 34


 1180              	.L47:
 485:Drivers/lvgl/src/extra/themes/mono/lv_theme_mono.c ****     }
 1181              		.loc 1 485 9 view .LVU246
 485:Drivers/lvgl/src/extra/themes/mono/lv_theme_mono.c ****     }
 1182              		.loc 1 485 38 is_stmt 0 view .LVU247
 1183 0664 644B     		ldr	r3, .L68+8
 485:Drivers/lvgl/src/extra/themes/mono/lv_theme_mono.c ****     }
 1184              		.loc 1 485 9 view .LVU248
 1185 0666 1968     		ldr	r1, [r3]
 1186 0668 2A46     		mov	r2, r5
 1187 066a 2046     		mov	r0, r4
 1188 066c 0831     		adds	r1, r1, #8
 1189              		.loc 1 488 1 view .LVU249
 1190 066e BDE8F840 		pop	{r3, r4, r5, r6, r7, lr}
 1191              		.cfi_remember_state
 1192              		.cfi_restore 14
 1193              		.cfi_restore 7
 1194              		.cfi_restore 6
 1195              		.cfi_restore 5
 1196              		.cfi_restore 4
 1197              		.cfi_restore 3
 1198              		.cfi_def_cfa_offset 0
 1199              	.LVL132:
 485:Drivers/lvgl/src/extra/themes/mono/lv_theme_mono.c ****     }
 1200              		.loc 1 485 9 view .LVU250
 1201 0672 FFF7FEBF 		b	lv_obj_add_style
 1202              	.LVL133:
 1203              	.L24:
 1204              		.cfi_restore_state
 420:Drivers/lvgl/src/extra/themes/mono/lv_theme_mono.c ****         lv_obj_add_style(obj, &styles->card, 0);
 1205              		.loc 1 420 10 is_stmt 1 view .LVU251
 420:Drivers/lvgl/src/extra/themes/mono/lv_theme_mono.c ****         lv_obj_add_style(obj, &styles->card, 0);
 1206              		.loc 1 420 13 is_stmt 0 view .LVU252
 1207 0676 6249     		ldr	r1, .L68+16
 1208 0678 2046     		mov	r0, r4
 1209 067a FFF7FEFF 		bl	lv_obj_check_type
 1210              	.LVL134:
 420:Drivers/lvgl/src/extra/themes/mono/lv_theme_mono.c ****         lv_obj_add_style(obj, &styles->card, 0);
 1211              		.loc 1 420 12 discriminator 1 view .LVU253
 1212 067e 0746     		mov	r7, r0
 1213 0680 30B3     		cbz	r0, .L25
 421:Drivers/lvgl/src/extra/themes/mono/lv_theme_mono.c ****         lv_obj_add_style(obj, &styles->no_radius, 0);
 1214              		.loc 1 421 9 is_stmt 1 view .LVU254
 421:Drivers/lvgl/src/extra/themes/mono/lv_theme_mono.c ****         lv_obj_add_style(obj, &styles->no_radius, 0);
 1215              		.loc 1 421 38 is_stmt 0 view .LVU255
 1216 0682 5D4D     		ldr	r5, .L68+8
 421:Drivers/lvgl/src/extra/themes/mono/lv_theme_mono.c ****         lv_obj_add_style(obj, &styles->no_radius, 0);
 1217              		.loc 1 421 9 view .LVU256
 1218 0684 2968     		ldr	r1, [r5]
 1219 0686 3246     		mov	r2, r6
 1220 0688 0831     		adds	r1, r1, #8
 1221 068a 2046     		mov	r0, r4
 1222 068c FFF7FEFF 		bl	lv_obj_add_style
 1223              	.LVL135:
 422:Drivers/lvgl/src/extra/themes/mono/lv_theme_mono.c ****         lv_obj_add_style(obj, &styles->pr, LV_PART_ITEMS | LV_STATE_PRESSED);
 1224              		.loc 1 422 9 is_stmt 1 view .LVU257
 1225 0690 2968     		ldr	r1, [r5]
ARM GAS  /var/folders/lp/x54gwt890xv47sdkqj1k04q40000gn/T//cc6ygGfE.s 			page 35


 1226 0692 3246     		mov	r2, r6
 1227 0694 5831     		adds	r1, r1, #88
 1228 0696 2046     		mov	r0, r4
 1229 0698 FFF7FEFF 		bl	lv_obj_add_style
 1230              	.LVL136:
 423:Drivers/lvgl/src/extra/themes/mono/lv_theme_mono.c ****         lv_obj_add_style(obj, &styles->disabled, LV_PART_ITEMS | LV_STATE_DISABLED);
 1231              		.loc 1 423 9 view .LVU258
 1232 069c 2968     		ldr	r1, [r5]
 1233 069e 594A     		ldr	r2, .L68+20
 1234 06a0 2046     		mov	r0, r4
 1235 06a2 2031     		adds	r1, r1, #32
 1236 06a4 FFF7FEFF 		bl	lv_obj_add_style
 1237              	.LVL137:
 424:Drivers/lvgl/src/extra/themes/mono/lv_theme_mono.c ****         lv_obj_add_style(obj, &styles->focus, LV_STATE_FOCUS_KEY);
 1238              		.loc 1 424 9 view .LVU259
 1239 06a8 2968     		ldr	r1, [r5]
 1240 06aa 574A     		ldr	r2, .L68+24
 1241 06ac 2046     		mov	r0, r4
 1242 06ae 3031     		adds	r1, r1, #48
 1243 06b0 FFF7FEFF 		bl	lv_obj_add_style
 1244              	.LVL138:
 425:Drivers/lvgl/src/extra/themes/mono/lv_theme_mono.c ****         lv_obj_add_style(obj, &styles->edit, LV_STATE_EDITED);
 1245              		.loc 1 425 9 view .LVU260
 1246 06b4 2968     		ldr	r1, [r5]
 1247 06b6 0422     		movs	r2, #4
 1248 06b8 2046     		mov	r0, r4
 1249 06ba 3831     		adds	r1, r1, #56
 1250 06bc FFF7FEFF 		bl	lv_obj_add_style
 1251              	.LVL139:
 426:Drivers/lvgl/src/extra/themes/mono/lv_theme_mono.c ****         lv_obj_add_style(obj, &styles->large_border, LV_PART_ITEMS | LV_STATE_FOCUS_KEY);
 1252              		.loc 1 426 9 view .LVU261
 1253 06c0 2968     		ldr	r1, [r5]
 1254 06c2 0822     		movs	r2, #8
 1255 06c4 2046     		mov	r0, r4
 1256 06c6 4031     		adds	r1, r1, #64
 1257 06c8 FFF7FEFF 		bl	lv_obj_add_style
 1258              	.LVL140:
 427:Drivers/lvgl/src/extra/themes/mono/lv_theme_mono.c ****     }
 1259              		.loc 1 427 9 view .LVU262
 1260 06cc 4F4A     		ldr	r2, .L68+28
 1261 06ce 58E5     		b	.L48
 1262              	.L25:
 432:Drivers/lvgl/src/extra/themes/mono/lv_theme_mono.c ****         lv_obj_add_style(obj, &styles->card, 0);
 1263              		.loc 1 432 10 view .LVU263
 432:Drivers/lvgl/src/extra/themes/mono/lv_theme_mono.c ****         lv_obj_add_style(obj, &styles->card, 0);
 1264              		.loc 1 432 13 is_stmt 0 view .LVU264
 1265 06d0 4F49     		ldr	r1, .L68+32
 1266 06d2 2046     		mov	r0, r4
 1267 06d4 FFF7FEFF 		bl	lv_obj_check_type
 1268              	.LVL141:
 432:Drivers/lvgl/src/extra/themes/mono/lv_theme_mono.c ****         lv_obj_add_style(obj, &styles->card, 0);
 1269              		.loc 1 432 12 discriminator 1 view .LVU265
 1270 06d8 0546     		mov	r5, r0
 1271 06da 38B3     		cbz	r0, .L26
 433:Drivers/lvgl/src/extra/themes/mono/lv_theme_mono.c ****         lv_obj_add_style(obj, &styles->card, LV_PART_ITEMS);
 1272              		.loc 1 433 9 is_stmt 1 view .LVU266
 433:Drivers/lvgl/src/extra/themes/mono/lv_theme_mono.c ****         lv_obj_add_style(obj, &styles->card, LV_PART_ITEMS);
ARM GAS  /var/folders/lp/x54gwt890xv47sdkqj1k04q40000gn/T//cc6ygGfE.s 			page 36


 1273              		.loc 1 433 38 is_stmt 0 view .LVU267
 1274 06dc 464D     		ldr	r5, .L68+8
 433:Drivers/lvgl/src/extra/themes/mono/lv_theme_mono.c ****         lv_obj_add_style(obj, &styles->card, LV_PART_ITEMS);
 1275              		.loc 1 433 9 view .LVU268
 1276 06de 2968     		ldr	r1, [r5]
 1277 06e0 3A46     		mov	r2, r7
 1278 06e2 2046     		mov	r0, r4
 1279 06e4 0831     		adds	r1, r1, #8
 1280 06e6 FFF7FEFF 		bl	lv_obj_add_style
 1281              	.LVL142:
 434:Drivers/lvgl/src/extra/themes/mono/lv_theme_mono.c ****         lv_obj_add_style(obj, &styles->pr, LV_PART_ITEMS | LV_STATE_PRESSED);
 1282              		.loc 1 434 9 is_stmt 1 view .LVU269
 1283 06ea 2968     		ldr	r1, [r5]
 1284 06ec 4FF4A022 		mov	r2, #327680
 1285 06f0 2046     		mov	r0, r4
 1286 06f2 0831     		adds	r1, r1, #8
 1287 06f4 FFF7FEFF 		bl	lv_obj_add_style
 1288              	.LVL143:
 435:Drivers/lvgl/src/extra/themes/mono/lv_theme_mono.c ****         lv_obj_add_style(obj, &styles->inv, LV_PART_ITEMS | LV_STATE_CHECKED);
 1289              		.loc 1 435 9 view .LVU270
 1290 06f8 2968     		ldr	r1, [r5]
 1291 06fa 424A     		ldr	r2, .L68+20
 1292 06fc 2046     		mov	r0, r4
 1293 06fe 2031     		adds	r1, r1, #32
 1294 0700 FFF7FEFF 		bl	lv_obj_add_style
 1295              	.LVL144:
 436:Drivers/lvgl/src/extra/themes/mono/lv_theme_mono.c ****         lv_obj_add_style(obj, &styles->focus, LV_STATE_FOCUS_KEY);
 1296              		.loc 1 436 9 view .LVU271
 1297 0704 2968     		ldr	r1, [r5]
 1298 0706 434A     		ldr	r2, .L68+36
 1299 0708 2046     		mov	r0, r4
 1300 070a 2831     		adds	r1, r1, #40
 1301 070c FFF7FEFF 		bl	lv_obj_add_style
 1302              	.LVL145:
 437:Drivers/lvgl/src/extra/themes/mono/lv_theme_mono.c ****         lv_obj_add_style(obj, &styles->edit, LV_STATE_EDITED);
 1303              		.loc 1 437 9 view .LVU272
 1304 0710 2968     		ldr	r1, [r5]
 1305 0712 0422     		movs	r2, #4
 1306 0714 2046     		mov	r0, r4
 1307 0716 3831     		adds	r1, r1, #56
 1308 0718 FFF7FEFF 		bl	lv_obj_add_style
 1309              	.LVL146:
 438:Drivers/lvgl/src/extra/themes/mono/lv_theme_mono.c ****         lv_obj_add_style(obj, &styles->large_border, LV_PART_ITEMS | LV_STATE_EDITED);
 1310              		.loc 1 438 9 view .LVU273
 1311 071c 2968     		ldr	r1, [r5]
 1312 071e 0822     		movs	r2, #8
 1313 0720 2046     		mov	r0, r4
 1314 0722 4031     		adds	r1, r1, #64
 1315 0724 FFF7FEFF 		bl	lv_obj_add_style
 1316              	.LVL147:
 439:Drivers/lvgl/src/extra/themes/mono/lv_theme_mono.c ****     }
 1317              		.loc 1 439 9 view .LVU274
 1318 0728 3B4A     		ldr	r2, .L68+40
 1319 072a 2AE5     		b	.L48
 1320              	.L26:
 443:Drivers/lvgl/src/extra/themes/mono/lv_theme_mono.c ****         lv_obj_add_style(obj, &styles->card, 0);
 1321              		.loc 1 443 10 view .LVU275
ARM GAS  /var/folders/lp/x54gwt890xv47sdkqj1k04q40000gn/T//cc6ygGfE.s 			page 37


 443:Drivers/lvgl/src/extra/themes/mono/lv_theme_mono.c ****         lv_obj_add_style(obj, &styles->card, 0);
 1322              		.loc 1 443 13 is_stmt 0 view .LVU276
 1323 072c 3B49     		ldr	r1, .L68+44
 1324 072e 2046     		mov	r0, r4
 1325 0730 FFF7FEFF 		bl	lv_obj_check_type
 1326              	.LVL148:
 443:Drivers/lvgl/src/extra/themes/mono/lv_theme_mono.c ****         lv_obj_add_style(obj, &styles->card, 0);
 1327              		.loc 1 443 12 discriminator 1 view .LVU277
 1328 0734 08BB     		cbnz	r0, .L63
 448:Drivers/lvgl/src/extra/themes/mono/lv_theme_mono.c **** 
 1329              		.loc 1 448 10 is_stmt 1 view .LVU278
 448:Drivers/lvgl/src/extra/themes/mono/lv_theme_mono.c **** 
 1330              		.loc 1 448 13 is_stmt 0 view .LVU279
 1331 0736 3A49     		ldr	r1, .L68+48
 1332 0738 2046     		mov	r0, r4
 1333 073a FFF7FEFF 		bl	lv_obj_check_type
 1334              	.LVL149:
 448:Drivers/lvgl/src/extra/themes/mono/lv_theme_mono.c **** 
 1335              		.loc 1 448 12 discriminator 1 view .LVU280
 1336 073e 0028     		cmp	r0, #0
 1337 0740 7FF4D7AC 		bne	.L1
 451:Drivers/lvgl/src/extra/themes/mono/lv_theme_mono.c ****         lv_obj_add_style(obj, &styles->card, 0);
 1338              		.loc 1 451 10 is_stmt 1 view .LVU281
 451:Drivers/lvgl/src/extra/themes/mono/lv_theme_mono.c ****         lv_obj_add_style(obj, &styles->card, 0);
 1339              		.loc 1 451 13 is_stmt 0 view .LVU282
 1340 0744 3749     		ldr	r1, .L68+52
 1341 0746 2046     		mov	r0, r4
 1342 0748 FFF7FEFF 		bl	lv_obj_check_type
 1343              	.LVL150:
 451:Drivers/lvgl/src/extra/themes/mono/lv_theme_mono.c ****         lv_obj_add_style(obj, &styles->card, 0);
 1344              		.loc 1 451 12 discriminator 1 view .LVU283
 1345 074c 0546     		mov	r5, r0
 1346 074e D0B1     		cbz	r0, .L29
 452:Drivers/lvgl/src/extra/themes/mono/lv_theme_mono.c ****         lv_obj_add_style(obj, &styles->pr, LV_STATE_PRESSED);
 1347              		.loc 1 452 9 is_stmt 1 view .LVU284
 452:Drivers/lvgl/src/extra/themes/mono/lv_theme_mono.c ****         lv_obj_add_style(obj, &styles->pr, LV_STATE_PRESSED);
 1348              		.loc 1 452 38 is_stmt 0 view .LVU285
 1349 0750 294D     		ldr	r5, .L68+8
 452:Drivers/lvgl/src/extra/themes/mono/lv_theme_mono.c ****         lv_obj_add_style(obj, &styles->pr, LV_STATE_PRESSED);
 1350              		.loc 1 452 9 view .LVU286
 1351 0752 2968     		ldr	r1, [r5]
 1352 0754 0022     		movs	r2, #0
 1353 0756 2046     		mov	r0, r4
 1354 0758 0831     		adds	r1, r1, #8
 1355 075a FFF7FEFF 		bl	lv_obj_add_style
 1356              	.LVL151:
 453:Drivers/lvgl/src/extra/themes/mono/lv_theme_mono.c ****         lv_obj_add_style(obj, &styles->focus, LV_STATE_FOCUS_KEY);
 1357              		.loc 1 453 9 is_stmt 1 view .LVU287
 1358 075e 2968     		ldr	r1, [r5]
 1359 0760 2022     		movs	r2, #32
 1360 0762 1144     		add	r1, r1, r2
 1361 0764 2046     		mov	r0, r4
 1362 0766 FFF7FEFF 		bl	lv_obj_add_style
 1363              	.LVL152:
 454:Drivers/lvgl/src/extra/themes/mono/lv_theme_mono.c ****         lv_obj_add_style(obj, &styles->large_border, LV_STATE_EDITED);
 1364              		.loc 1 454 9 view .LVU288
 1365 076a 2968     		ldr	r1, [r5]
ARM GAS  /var/folders/lp/x54gwt890xv47sdkqj1k04q40000gn/T//cc6ygGfE.s 			page 38


 1366 076c 0422     		movs	r2, #4
 1367 076e 2046     		mov	r0, r4
 1368 0770 3831     		adds	r1, r1, #56
 1369 0772 FFF7FEFF 		bl	lv_obj_add_style
 1370              	.LVL153:
 455:Drivers/lvgl/src/extra/themes/mono/lv_theme_mono.c **** 
 1371              		.loc 1 455 9 view .LVU289
 1372 0776 0822     		movs	r2, #8
 1373 0778 03E5     		b	.L48
 1374              	.L63:
 444:Drivers/lvgl/src/extra/themes/mono/lv_theme_mono.c ****         lv_obj_add_style(obj, &styles->scrollbar, LV_PART_SCROLLBAR);
 1375              		.loc 1 444 9 view .LVU290
 444:Drivers/lvgl/src/extra/themes/mono/lv_theme_mono.c ****         lv_obj_add_style(obj, &styles->scrollbar, LV_PART_SCROLLBAR);
 1376              		.loc 1 444 38 is_stmt 0 view .LVU291
 1377 077a 1F4E     		ldr	r6, .L68+8
 444:Drivers/lvgl/src/extra/themes/mono/lv_theme_mono.c ****         lv_obj_add_style(obj, &styles->scrollbar, LV_PART_SCROLLBAR);
 1378              		.loc 1 444 9 view .LVU292
 1379 077c 3168     		ldr	r1, [r6]
 1380 077e 2A46     		mov	r2, r5
 1381 0780 2046     		mov	r0, r4
 1382 0782 0831     		adds	r1, r1, #8
 1383 0784 32E5     		b	.L45
 1384              	.L29:
 460:Drivers/lvgl/src/extra/themes/mono/lv_theme_mono.c ****         lv_obj_add_style(obj, &styles->card, 0);
 1385              		.loc 1 460 10 is_stmt 1 view .LVU293
 460:Drivers/lvgl/src/extra/themes/mono/lv_theme_mono.c ****         lv_obj_add_style(obj, &styles->card, 0);
 1386              		.loc 1 460 13 is_stmt 0 view .LVU294
 1387 0786 2849     		ldr	r1, .L68+56
 1388 0788 2046     		mov	r0, r4
 1389 078a FFF7FEFF 		bl	lv_obj_check_type
 1390              	.LVL154:
 460:Drivers/lvgl/src/extra/themes/mono/lv_theme_mono.c ****         lv_obj_add_style(obj, &styles->card, 0);
 1391              		.loc 1 460 12 discriminator 1 view .LVU295
 1392 078e 0646     		mov	r6, r0
 1393 0790 0028     		cmp	r0, #0
 1394 0792 7FF467AF 		bne	.L47
 466:Drivers/lvgl/src/extra/themes/mono/lv_theme_mono.c ****         lv_obj_add_style(obj, &styles->card, 0);
 1395              		.loc 1 466 10 is_stmt 1 view .LVU296
 466:Drivers/lvgl/src/extra/themes/mono/lv_theme_mono.c ****         lv_obj_add_style(obj, &styles->card, 0);
 1396              		.loc 1 466 13 is_stmt 0 view .LVU297
 1397 0796 2549     		ldr	r1, .L68+60
 1398 0798 2046     		mov	r0, r4
 1399 079a FFF7FEFF 		bl	lv_obj_check_type
 1400              	.LVL155:
 466:Drivers/lvgl/src/extra/themes/mono/lv_theme_mono.c ****         lv_obj_add_style(obj, &styles->card, 0);
 1401              		.loc 1 466 12 discriminator 1 view .LVU298
 1402 079e 0546     		mov	r5, r0
 1403 07a0 48B1     		cbz	r0, .L31
 467:Drivers/lvgl/src/extra/themes/mono/lv_theme_mono.c ****         lv_obj_add_style(obj, &styles->inv, LV_PART_CURSOR);
 1404              		.loc 1 467 9 is_stmt 1 view .LVU299
 467:Drivers/lvgl/src/extra/themes/mono/lv_theme_mono.c ****         lv_obj_add_style(obj, &styles->inv, LV_PART_CURSOR);
 1405              		.loc 1 467 38 is_stmt 0 view .LVU300
 1406 07a2 154D     		ldr	r5, .L68+8
 467:Drivers/lvgl/src/extra/themes/mono/lv_theme_mono.c ****         lv_obj_add_style(obj, &styles->inv, LV_PART_CURSOR);
 1407              		.loc 1 467 9 view .LVU301
 1408 07a4 2968     		ldr	r1, [r5]
 1409 07a6 3246     		mov	r2, r6
ARM GAS  /var/folders/lp/x54gwt890xv47sdkqj1k04q40000gn/T//cc6ygGfE.s 			page 39


 1410 07a8 2046     		mov	r0, r4
 1411 07aa 0831     		adds	r1, r1, #8
 1412 07ac FFF7FEFF 		bl	lv_obj_add_style
 1413              	.LVL156:
 468:Drivers/lvgl/src/extra/themes/mono/lv_theme_mono.c ****         lv_obj_add_style(obj, &styles->focus, LV_STATE_FOCUS_KEY);
 1414              		.loc 1 468 9 is_stmt 1 view .LVU302
 1415 07b0 4FF4E022 		mov	r2, #458752
 1416 07b4 BAE6     		b	.L51
 1417              	.L31:
 474:Drivers/lvgl/src/extra/themes/mono/lv_theme_mono.c ****         lv_obj_add_style(obj, &styles->scr, 0);
 1418              		.loc 1 474 10 view .LVU303
 474:Drivers/lvgl/src/extra/themes/mono/lv_theme_mono.c ****         lv_obj_add_style(obj, &styles->scr, 0);
 1419              		.loc 1 474 13 is_stmt 0 view .LVU304
 1420 07b6 1E49     		ldr	r1, .L68+64
 1421 07b8 2046     		mov	r0, r4
 1422 07ba FFF7FEFF 		bl	lv_obj_check_type
 1423              	.LVL157:
 474:Drivers/lvgl/src/extra/themes/mono/lv_theme_mono.c ****         lv_obj_add_style(obj, &styles->scr, 0);
 1424              		.loc 1 474 12 discriminator 1 view .LVU305
 1425 07be 20B1     		cbz	r0, .L32
 475:Drivers/lvgl/src/extra/themes/mono/lv_theme_mono.c ****         lv_obj_add_style(obj, &styles->scrollbar, LV_PART_SCROLLBAR);
 1426              		.loc 1 475 9 is_stmt 1 view .LVU306
 475:Drivers/lvgl/src/extra/themes/mono/lv_theme_mono.c ****         lv_obj_add_style(obj, &styles->scrollbar, LV_PART_SCROLLBAR);
 1427              		.loc 1 475 38 is_stmt 0 view .LVU307
 1428 07c0 0D4E     		ldr	r6, .L68+8
 475:Drivers/lvgl/src/extra/themes/mono/lv_theme_mono.c ****         lv_obj_add_style(obj, &styles->scrollbar, LV_PART_SCROLLBAR);
 1429              		.loc 1 475 9 view .LVU308
 1430 07c2 2A46     		mov	r2, r5
 1431 07c4 3168     		ldr	r1, [r6]
 1432 07c6 2046     		mov	r0, r4
 1433 07c8 10E5     		b	.L45
 1434              	.L32:
 478:Drivers/lvgl/src/extra/themes/mono/lv_theme_mono.c ****         lv_obj_add_style(obj, &styles->scrollbar, LV_PART_SCROLLBAR);
 1435              		.loc 1 478 10 is_stmt 1 view .LVU309
 478:Drivers/lvgl/src/extra/themes/mono/lv_theme_mono.c ****         lv_obj_add_style(obj, &styles->scrollbar, LV_PART_SCROLLBAR);
 1436              		.loc 1 478 13 is_stmt 0 view .LVU310
 1437 07ca 1A49     		ldr	r1, .L68+68
 1438 07cc 2046     		mov	r0, r4
 1439 07ce FFF7FEFF 		bl	lv_obj_check_type
 1440              	.LVL158:
 478:Drivers/lvgl/src/extra/themes/mono/lv_theme_mono.c ****         lv_obj_add_style(obj, &styles->scrollbar, LV_PART_SCROLLBAR);
 1441              		.loc 1 478 12 discriminator 1 view .LVU311
 1442 07d2 0546     		mov	r5, r0
 1443 07d4 0028     		cmp	r0, #0
 1444 07d6 3FF485AC 		beq	.L33
 479:Drivers/lvgl/src/extra/themes/mono/lv_theme_mono.c ****     }
 1445              		.loc 1 479 9 is_stmt 1 view .LVU312
 479:Drivers/lvgl/src/extra/themes/mono/lv_theme_mono.c ****     }
 1446              		.loc 1 479 38 is_stmt 0 view .LVU313
 1447 07da 074B     		ldr	r3, .L68+8
 479:Drivers/lvgl/src/extra/themes/mono/lv_theme_mono.c ****     }
 1448              		.loc 1 479 9 view .LVU314
 1449 07dc 1968     		ldr	r1, [r3]
 1450 07de 2046     		mov	r0, r4
 1451 07e0 4FF48032 		mov	r2, #65536
 1452              		.loc 1 488 1 view .LVU315
 1453 07e4 BDE8F840 		pop	{r3, r4, r5, r6, r7, lr}
ARM GAS  /var/folders/lp/x54gwt890xv47sdkqj1k04q40000gn/T//cc6ygGfE.s 			page 40


 1454              		.cfi_restore 14
 1455              		.cfi_restore 7
 1456              		.cfi_restore 6
 1457              		.cfi_restore 5
 1458              		.cfi_restore 4
 1459              		.cfi_restore 3
 1460              		.cfi_def_cfa_offset 0
 1461              	.LVL159:
 479:Drivers/lvgl/src/extra/themes/mono/lv_theme_mono.c ****     }
 1462              		.loc 1 479 9 view .LVU316
 1463 07e8 1031     		adds	r1, r1, #16
 1464 07ea FFF7FEBF 		b	lv_obj_add_style
 1465              	.LVL160:
 1466              	.L69:
 479:Drivers/lvgl/src/extra/themes/mono/lv_theme_mono.c ****     }
 1467              		.loc 1 479 9 view .LVU317
 1468 07ee 00BF     		.align	2
 1469              	.L68:
 1470 07f0 00000000 		.word	lv_meter_class
 1471 07f4 00000000 		.word	lv_textarea_class
 1472 07f8 00000000 		.word	styles
 1473 07fc 02000700 		.word	458754
 1474 0800 00000000 		.word	lv_calendar_class
 1475 0804 20000500 		.word	327712
 1476 0808 80000500 		.word	327808
 1477 080c 04000500 		.word	327684
 1478 0810 00000000 		.word	lv_keyboard_class
 1479 0814 01000500 		.word	327681
 1480 0818 08000500 		.word	327688
 1481 081c 00000000 		.word	lv_list_class
 1482 0820 00000000 		.word	lv_list_text_class
 1483 0824 00000000 		.word	lv_list_btn_class
 1484 0828 00000000 		.word	lv_msgbox_class
 1485 082c 00000000 		.word	lv_spinbox_class
 1486 0830 00000000 		.word	lv_tileview_class
 1487 0834 00000000 		.word	lv_tileview_tile_class
 1488              		.cfi_endproc
 1489              	.LFE207:
 1491              		.section	.text.lv_theme_mono_is_inited,"ax",%progbits
 1492              		.align	1
 1493              		.p2align 2,,3
 1494              		.global	lv_theme_mono_is_inited
 1495              		.syntax unified
 1496              		.thumb
 1497              		.thumb_func
 1499              	lv_theme_mono_is_inited:
 1500              	.LFB205:
 168:Drivers/lvgl/src/extra/themes/mono/lv_theme_mono.c ****     return  LV_GC_ROOT(_lv_theme_default_styles) == NULL ? false : true;
 1501              		.loc 1 168 1 is_stmt 1 view -0
 1502              		.cfi_startproc
 1503              		@ args = 0, pretend = 0, frame = 0
 1504              		@ frame_needed = 0, uses_anonymous_args = 0
 1505              		@ link register save eliminated.
 169:Drivers/lvgl/src/extra/themes/mono/lv_theme_mono.c **** }
 1506              		.loc 1 169 5 view .LVU319
 169:Drivers/lvgl/src/extra/themes/mono/lv_theme_mono.c **** }
 1507              		.loc 1 169 66 is_stmt 0 view .LVU320
ARM GAS  /var/folders/lp/x54gwt890xv47sdkqj1k04q40000gn/T//cc6ygGfE.s 			page 41


 1508 0000 024B     		ldr	r3, .L71
 1509 0002 1868     		ldr	r0, [r3]
 170:Drivers/lvgl/src/extra/themes/mono/lv_theme_mono.c **** 
 1510              		.loc 1 170 1 view .LVU321
 1511 0004 0038     		subs	r0, r0, #0
 1512 0006 18BF     		it	ne
 1513 0008 0120     		movne	r0, #1
 1514 000a 7047     		bx	lr
 1515              	.L72:
 1516              		.align	2
 1517              	.L71:
 1518 000c 00000000 		.word	_lv_theme_default_styles
 1519              		.cfi_endproc
 1520              	.LFE205:
 1522              		.section	.text.lv_theme_mono_init,"ax",%progbits
 1523              		.align	1
 1524              		.p2align 2,,3
 1525              		.global	lv_theme_mono_init
 1526              		.syntax unified
 1527              		.thumb
 1528              		.thumb_func
 1530              	lv_theme_mono_init:
 1531              	.LVL161:
 1532              	.LFB206:
 173:Drivers/lvgl/src/extra/themes/mono/lv_theme_mono.c **** 
 1533              		.loc 1 173 1 is_stmt 1 view -0
 1534              		.cfi_startproc
 1535              		@ args = 0, pretend = 0, frame = 0
 1536              		@ frame_needed = 0, uses_anonymous_args = 0
 173:Drivers/lvgl/src/extra/themes/mono/lv_theme_mono.c **** 
 1537              		.loc 1 173 1 is_stmt 0 view .LVU323
 1538 0000 2DE9F84F 		push	{r3, r4, r5, r6, r7, r8, r9, r10, fp, lr}
 1539              		.cfi_def_cfa_offset 40
 1540              		.cfi_offset 3, -40
 1541              		.cfi_offset 4, -36
 1542              		.cfi_offset 5, -32
 1543              		.cfi_offset 6, -28
 1544              		.cfi_offset 7, -24
 1545              		.cfi_offset 8, -20
 1546              		.cfi_offset 9, -16
 1547              		.cfi_offset 10, -12
 1548              		.cfi_offset 11, -8
 1549              		.cfi_offset 14, -4
 178:Drivers/lvgl/src/extra/themes/mono/lv_theme_mono.c ****         inited = false;
 1550              		.loc 1 178 8 view .LVU324
 1551 0004 D34D     		ldr	r5, .L122
 1552 0006 D44F     		ldr	r7, .L122+4
 178:Drivers/lvgl/src/extra/themes/mono/lv_theme_mono.c ****         inited = false;
 1553              		.loc 1 178 5 is_stmt 1 view .LVU325
 178:Drivers/lvgl/src/extra/themes/mono/lv_theme_mono.c ****         inited = false;
 1554              		.loc 1 178 7 is_stmt 0 view .LVU326
 1555 0008 2B78     		ldrb	r3, [r5]	@ zero_extendqisi2
 173:Drivers/lvgl/src/extra/themes/mono/lv_theme_mono.c **** 
 1556              		.loc 1 173 1 view .LVU327
 1557 000a 8246     		mov	r10, r0
 1558 000c 0E46     		mov	r6, r1
 1559 000e 9346     		mov	fp, r2
ARM GAS  /var/folders/lp/x54gwt890xv47sdkqj1k04q40000gn/T//cc6ygGfE.s 			page 42


 178:Drivers/lvgl/src/extra/themes/mono/lv_theme_mono.c ****         inited = false;
 1560              		.loc 1 178 7 view .LVU328
 1561 0010 002B     		cmp	r3, #0
 1562 0012 00F08682 		beq	.L74
 184:Drivers/lvgl/src/extra/themes/mono/lv_theme_mono.c ****     theme.font_small = LV_FONT_DEFAULT;
 1563              		.loc 1 184 16 view .LVU329
 1564 0016 DFF84C93 		ldr	r9, .L122+16
 1565              	.LBB184:
 1566              	.LBB185:
  79:Drivers/lvgl/src/extra/themes/mono/lv_theme_mono.c ****     lv_style_set_bg_opa(&styles->scrollbar, LV_OPA_COVER);
 1567              		.loc 1 79 29 view .LVU330
 1568 001a D04C     		ldr	r4, .L122+8
 1569              	.LBE185:
 1570              	.LBE184:
 184:Drivers/lvgl/src/extra/themes/mono/lv_theme_mono.c ****     theme.font_small = LV_FONT_DEFAULT;
 1571              		.loc 1 184 16 view .LVU331
 1572 001c C9F80C00 		str	r0, [r9, #12]
 185:Drivers/lvgl/src/extra/themes/mono/lv_theme_mono.c ****     theme.font_normal = LV_FONT_DEFAULT;
 1573              		.loc 1 185 22 view .LVU332
 1574 0020 C9E90577 		strd	r7, r7, [r9, #20]
 1575              	.LBB319:
 1576              	.LBB312:
  79:Drivers/lvgl/src/extra/themes/mono/lv_theme_mono.c ****     lv_style_set_bg_opa(&styles->scrollbar, LV_OPA_COVER);
 1577              		.loc 1 79 29 view .LVU333
 1578 0024 2068     		ldr	r0, [r4]
 1579              	.LVL162:
  79:Drivers/lvgl/src/extra/themes/mono/lv_theme_mono.c ****     lv_style_set_bg_opa(&styles->scrollbar, LV_OPA_COVER);
 1580              		.loc 1 79 29 view .LVU334
 1581              	.LBE312:
 1582              	.LBE319:
 184:Drivers/lvgl/src/extra/themes/mono/lv_theme_mono.c ****     theme.font_small = LV_FONT_DEFAULT;
 1583              		.loc 1 184 5 is_stmt 1 view .LVU335
 185:Drivers/lvgl/src/extra/themes/mono/lv_theme_mono.c ****     theme.font_normal = LV_FONT_DEFAULT;
 1584              		.loc 1 185 5 view .LVU336
 186:Drivers/lvgl/src/extra/themes/mono/lv_theme_mono.c ****     theme.font_large = LV_FONT_DEFAULT;
 1585              		.loc 1 186 5 view .LVU337
 187:Drivers/lvgl/src/extra/themes/mono/lv_theme_mono.c ****     theme.apply_cb = theme_apply;
 1586              		.loc 1 187 5 view .LVU338
 188:Drivers/lvgl/src/extra/themes/mono/lv_theme_mono.c **** 
 1587              		.loc 1 188 5 view .LVU339
 188:Drivers/lvgl/src/extra/themes/mono/lv_theme_mono.c **** 
 1588              		.loc 1 188 20 is_stmt 0 view .LVU340
 1589 0026 CE4B     		ldr	r3, .L122+12
 187:Drivers/lvgl/src/extra/themes/mono/lv_theme_mono.c ****     theme.apply_cb = theme_apply;
 1590              		.loc 1 187 22 view .LVU341
 1591 0028 C9F81C70 		str	r7, [r9, #28]
 1592              	.LBB320:
 1593              	.LBB313:
  79:Drivers/lvgl/src/extra/themes/mono/lv_theme_mono.c ****     lv_style_set_bg_opa(&styles->scrollbar, LV_OPA_COVER);
 1594              		.loc 1 79 5 view .LVU342
 1595 002c 1030     		adds	r0, r0, #16
 1596              	.LBE313:
 1597              	.LBE320:
 188:Drivers/lvgl/src/extra/themes/mono/lv_theme_mono.c **** 
 1598              		.loc 1 188 20 view .LVU343
 1599 002e C9F80030 		str	r3, [r9]
 190:Drivers/lvgl/src/extra/themes/mono/lv_theme_mono.c **** 
ARM GAS  /var/folders/lp/x54gwt890xv47sdkqj1k04q40000gn/T//cc6ygGfE.s 			page 43


 1600              		.loc 1 190 5 is_stmt 1 view .LVU344
 1601              	.LVL163:
 1602              	.LBB321:
 1603              	.LBI184:
  77:Drivers/lvgl/src/extra/themes/mono/lv_theme_mono.c **** {
 1604              		.loc 1 77 13 view .LVU345
 1605              	.LBB314:
  79:Drivers/lvgl/src/extra/themes/mono/lv_theme_mono.c ****     lv_style_set_bg_opa(&styles->scrollbar, LV_OPA_COVER);
 1606              		.loc 1 79 5 view .LVU346
 1607              	.LBB186:
 1608              	.LBI186:
 489:Drivers/lvgl/src/extra/themes/mono/lv_theme_mono.c **** 
 490:Drivers/lvgl/src/extra/themes/mono/lv_theme_mono.c **** /**********************
 491:Drivers/lvgl/src/extra/themes/mono/lv_theme_mono.c ****  *   STATIC FUNCTIONS
 492:Drivers/lvgl/src/extra/themes/mono/lv_theme_mono.c ****  **********************/
 493:Drivers/lvgl/src/extra/themes/mono/lv_theme_mono.c **** 
 494:Drivers/lvgl/src/extra/themes/mono/lv_theme_mono.c **** static void style_init_reset(lv_style_t * style)
 1609              		.loc 1 494 13 view .LVU347
 1610              	.LBB187:
 495:Drivers/lvgl/src/extra/themes/mono/lv_theme_mono.c **** {
 496:Drivers/lvgl/src/extra/themes/mono/lv_theme_mono.c ****     if(inited) {
 1611              		.loc 1 496 5 view .LVU348
 1612              	.L75:
 497:Drivers/lvgl/src/extra/themes/mono/lv_theme_mono.c ****         lv_style_reset(style);
 1613              		.loc 1 497 9 view .LVU349
 1614 0032 FFF7FEFF 		bl	lv_style_reset
 1615              	.LVL164:
 1616              	.L77:
 1617              		.loc 1 497 9 is_stmt 0 view .LVU350
 1618              	.LBE187:
 1619              	.LBE186:
  80:Drivers/lvgl/src/extra/themes/mono/lv_theme_mono.c ****     lv_style_set_bg_color(&styles->scrollbar, COLOR_FG);
 1620              		.loc 1 80 5 is_stmt 1 view .LVU351
 1621 0036 2068     		ldr	r0, [r4]
 1622 0038 FF21     		movs	r1, #255
 1623 003a 1030     		adds	r0, r0, #16
 1624 003c FFF7FEFF 		bl	lv_style_set_bg_opa
 1625              	.LVL165:
  81:Drivers/lvgl/src/extra/themes/mono/lv_theme_mono.c ****     lv_style_set_width(&styles->scrollbar,  PAD_DEF);
 1626              		.loc 1 81 5 view .LVU352
 1627 0040 002E     		cmp	r6, #0
 1628 0042 0CBF     		ite	eq
 1629 0044 3746     		moveq	r7, r6
 1630 0046 0727     		movne	r7, #7
 1631 0048 4FF00001 		mov	r1, #0	@ movhi
 1632 004c 0CBF     		ite	eq
 1633 004e B046     		moveq	r8, r6
 1634 0050 4FF01F08 		movne	r8, #31
 1635 0054 67F30201 		bfi	r1, r7, #0, #3
 1636 0058 2068     		ldr	r0, [r4]
 1637 005a 68F3C701 		bfi	r1, r8, #3, #5
 1638 005e 68F30C21 		bfi	r1, r8, #8, #5
 1639 0062 67F34F31 		bfi	r1, r7, #13, #3
 1640 0066 1030     		adds	r0, r0, #16
  81:Drivers/lvgl/src/extra/themes/mono/lv_theme_mono.c ****     lv_style_set_width(&styles->scrollbar,  PAD_DEF);
 1641              		.loc 1 81 5 is_stmt 0 discriminator 4 view .LVU353
 1642 0068 FFF7FEFF 		bl	lv_style_set_bg_color
ARM GAS  /var/folders/lp/x54gwt890xv47sdkqj1k04q40000gn/T//cc6ygGfE.s 			page 44


 1643              	.LVL166:
  82:Drivers/lvgl/src/extra/themes/mono/lv_theme_mono.c **** 
 1644              		.loc 1 82 5 is_stmt 1 view .LVU354
 1645 006c 2068     		ldr	r0, [r4]
 1646 006e 0421     		movs	r1, #4
 1647 0070 1030     		adds	r0, r0, #16
 1648 0072 FFF7FEFF 		bl	lv_style_set_width
 1649              	.LVL167:
  84:Drivers/lvgl/src/extra/themes/mono/lv_theme_mono.c ****     lv_style_set_bg_opa(&styles->scr, LV_OPA_COVER);
 1650              		.loc 1 84 5 view .LVU355
 1651              	.LBB190:
 1652              	.LBB191:
 496:Drivers/lvgl/src/extra/themes/mono/lv_theme_mono.c ****         lv_style_reset(style);
 1653              		.loc 1 496 7 is_stmt 0 view .LVU356
 1654 0076 2B78     		ldrb	r3, [r5]	@ zero_extendqisi2
 1655              	.LBE191:
 1656              	.LBE190:
  84:Drivers/lvgl/src/extra/themes/mono/lv_theme_mono.c ****     lv_style_set_bg_opa(&styles->scr, LV_OPA_COVER);
 1657              		.loc 1 84 5 view .LVU357
 1658 0078 2068     		ldr	r0, [r4]
 1659              	.LVL168:
 1660              	.LBB194:
 1661              	.LBI190:
 494:Drivers/lvgl/src/extra/themes/mono/lv_theme_mono.c **** {
 1662              		.loc 1 494 13 is_stmt 1 view .LVU358
 1663              	.LBB192:
 496:Drivers/lvgl/src/extra/themes/mono/lv_theme_mono.c ****         lv_style_reset(style);
 1664              		.loc 1 496 5 view .LVU359
 496:Drivers/lvgl/src/extra/themes/mono/lv_theme_mono.c ****         lv_style_reset(style);
 1665              		.loc 1 496 7 is_stmt 0 view .LVU360
 1666 007a 002B     		cmp	r3, #0
 1667 007c 00F04E82 		beq	.L79
 1668              		.loc 1 497 9 is_stmt 1 view .LVU361
 1669 0080 FFF7FEFF 		bl	lv_style_reset
 1670              	.LVL169:
 1671              	.L80:
 1672              		.loc 1 497 9 is_stmt 0 view .LVU362
 1673              	.LBE192:
 1674              	.LBE194:
  85:Drivers/lvgl/src/extra/themes/mono/lv_theme_mono.c ****     lv_style_set_bg_color(&styles->scr, COLOR_BG);
 1675              		.loc 1 85 5 is_stmt 1 view .LVU363
 1676 0084 2068     		ldr	r0, [r4]
 1677 0086 FF21     		movs	r1, #255
 1678 0088 FFF7FEFF 		bl	lv_style_set_bg_opa
 1679              	.LVL170:
  86:Drivers/lvgl/src/extra/themes/mono/lv_theme_mono.c ****     lv_style_set_text_color(&styles->scr, COLOR_FG);
 1680              		.loc 1 86 5 view .LVU364
 1681 008c 2068     		ldr	r0, [r4]
 1682 008e 002E     		cmp	r6, #0
 1683 0090 00F03E82 		beq	.L81
  86:Drivers/lvgl/src/extra/themes/mono/lv_theme_mono.c ****     lv_style_set_text_color(&styles->scr, COLOR_FG);
 1684              		.loc 1 86 5 is_stmt 0 discriminator 4 view .LVU365
 1685 0094 4FF00001 		mov	r1, #0	@ movhi
 1686 0098 FFF7FEFF 		bl	lv_style_set_bg_color
 1687              	.LVL171:
  87:Drivers/lvgl/src/extra/themes/mono/lv_theme_mono.c ****     lv_style_set_pad_row(&styles->scr, PAD_DEF);
 1688              		.loc 1 87 5 is_stmt 1 view .LVU366
ARM GAS  /var/folders/lp/x54gwt890xv47sdkqj1k04q40000gn/T//cc6ygGfE.s 			page 45


 1689 009c 2068     		ldr	r0, [r4]
 1690              	.LBB195:
 1691              	.LBI195:
 1692              		.file 2 "Drivers/lvgl/src/extra/themes/mono/../../../../src/hal/../draw/../misc/lv_color.h"
   1:Drivers/lvgl/src/extra/themes/mono/../../../../src/hal/../draw/../misc/lv_color.h **** /**
   2:Drivers/lvgl/src/extra/themes/mono/../../../../src/hal/../draw/../misc/lv_color.h ****  * @file lv_color.h
   3:Drivers/lvgl/src/extra/themes/mono/../../../../src/hal/../draw/../misc/lv_color.h ****  *
   4:Drivers/lvgl/src/extra/themes/mono/../../../../src/hal/../draw/../misc/lv_color.h ****  */
   5:Drivers/lvgl/src/extra/themes/mono/../../../../src/hal/../draw/../misc/lv_color.h **** 
   6:Drivers/lvgl/src/extra/themes/mono/../../../../src/hal/../draw/../misc/lv_color.h **** #ifndef LV_COLOR_H
   7:Drivers/lvgl/src/extra/themes/mono/../../../../src/hal/../draw/../misc/lv_color.h **** #define LV_COLOR_H
   8:Drivers/lvgl/src/extra/themes/mono/../../../../src/hal/../draw/../misc/lv_color.h **** 
   9:Drivers/lvgl/src/extra/themes/mono/../../../../src/hal/../draw/../misc/lv_color.h **** #ifdef __cplusplus
  10:Drivers/lvgl/src/extra/themes/mono/../../../../src/hal/../draw/../misc/lv_color.h **** extern "C" {
  11:Drivers/lvgl/src/extra/themes/mono/../../../../src/hal/../draw/../misc/lv_color.h **** #endif
  12:Drivers/lvgl/src/extra/themes/mono/../../../../src/hal/../draw/../misc/lv_color.h **** 
  13:Drivers/lvgl/src/extra/themes/mono/../../../../src/hal/../draw/../misc/lv_color.h **** /*********************
  14:Drivers/lvgl/src/extra/themes/mono/../../../../src/hal/../draw/../misc/lv_color.h ****  *      INCLUDES
  15:Drivers/lvgl/src/extra/themes/mono/../../../../src/hal/../draw/../misc/lv_color.h ****  *********************/
  16:Drivers/lvgl/src/extra/themes/mono/../../../../src/hal/../draw/../misc/lv_color.h **** #include "../lv_conf_internal.h"
  17:Drivers/lvgl/src/extra/themes/mono/../../../../src/hal/../draw/../misc/lv_color.h **** #include "lv_assert.h"
  18:Drivers/lvgl/src/extra/themes/mono/../../../../src/hal/../draw/../misc/lv_color.h **** #include "lv_math.h"
  19:Drivers/lvgl/src/extra/themes/mono/../../../../src/hal/../draw/../misc/lv_color.h **** #include "lv_types.h"
  20:Drivers/lvgl/src/extra/themes/mono/../../../../src/hal/../draw/../misc/lv_color.h **** 
  21:Drivers/lvgl/src/extra/themes/mono/../../../../src/hal/../draw/../misc/lv_color.h **** /*Error checking*/
  22:Drivers/lvgl/src/extra/themes/mono/../../../../src/hal/../draw/../misc/lv_color.h **** #if LV_COLOR_DEPTH == 24
  23:Drivers/lvgl/src/extra/themes/mono/../../../../src/hal/../draw/../misc/lv_color.h **** #error "LV_COLOR_DEPTH 24 is deprecated. Use LV_COLOR_DEPTH 32 instead (lv_conf.h)"
  24:Drivers/lvgl/src/extra/themes/mono/../../../../src/hal/../draw/../misc/lv_color.h **** #endif
  25:Drivers/lvgl/src/extra/themes/mono/../../../../src/hal/../draw/../misc/lv_color.h **** 
  26:Drivers/lvgl/src/extra/themes/mono/../../../../src/hal/../draw/../misc/lv_color.h **** #if LV_COLOR_DEPTH != 16 && LV_COLOR_16_SWAP != 0
  27:Drivers/lvgl/src/extra/themes/mono/../../../../src/hal/../draw/../misc/lv_color.h **** #error "LV_COLOR_16_SWAP requires LV_COLOR_DEPTH == 16. Set it in lv_conf.h"
  28:Drivers/lvgl/src/extra/themes/mono/../../../../src/hal/../draw/../misc/lv_color.h **** #endif
  29:Drivers/lvgl/src/extra/themes/mono/../../../../src/hal/../draw/../misc/lv_color.h **** 
  30:Drivers/lvgl/src/extra/themes/mono/../../../../src/hal/../draw/../misc/lv_color.h **** #include <stdint.h>
  31:Drivers/lvgl/src/extra/themes/mono/../../../../src/hal/../draw/../misc/lv_color.h **** 
  32:Drivers/lvgl/src/extra/themes/mono/../../../../src/hal/../draw/../misc/lv_color.h **** /*********************
  33:Drivers/lvgl/src/extra/themes/mono/../../../../src/hal/../draw/../misc/lv_color.h ****  *      DEFINES
  34:Drivers/lvgl/src/extra/themes/mono/../../../../src/hal/../draw/../misc/lv_color.h ****  *********************/
  35:Drivers/lvgl/src/extra/themes/mono/../../../../src/hal/../draw/../misc/lv_color.h **** LV_EXPORT_CONST_INT(LV_COLOR_DEPTH);
  36:Drivers/lvgl/src/extra/themes/mono/../../../../src/hal/../draw/../misc/lv_color.h **** LV_EXPORT_CONST_INT(LV_COLOR_16_SWAP);
  37:Drivers/lvgl/src/extra/themes/mono/../../../../src/hal/../draw/../misc/lv_color.h **** 
  38:Drivers/lvgl/src/extra/themes/mono/../../../../src/hal/../draw/../misc/lv_color.h **** /**
  39:Drivers/lvgl/src/extra/themes/mono/../../../../src/hal/../draw/../misc/lv_color.h ****  * Opacity percentages.
  40:Drivers/lvgl/src/extra/themes/mono/../../../../src/hal/../draw/../misc/lv_color.h ****  */
  41:Drivers/lvgl/src/extra/themes/mono/../../../../src/hal/../draw/../misc/lv_color.h **** enum {
  42:Drivers/lvgl/src/extra/themes/mono/../../../../src/hal/../draw/../misc/lv_color.h ****     LV_OPA_TRANSP = 0,
  43:Drivers/lvgl/src/extra/themes/mono/../../../../src/hal/../draw/../misc/lv_color.h ****     LV_OPA_0      = 0,
  44:Drivers/lvgl/src/extra/themes/mono/../../../../src/hal/../draw/../misc/lv_color.h ****     LV_OPA_10     = 25,
  45:Drivers/lvgl/src/extra/themes/mono/../../../../src/hal/../draw/../misc/lv_color.h ****     LV_OPA_20     = 51,
  46:Drivers/lvgl/src/extra/themes/mono/../../../../src/hal/../draw/../misc/lv_color.h ****     LV_OPA_30     = 76,
  47:Drivers/lvgl/src/extra/themes/mono/../../../../src/hal/../draw/../misc/lv_color.h ****     LV_OPA_40     = 102,
  48:Drivers/lvgl/src/extra/themes/mono/../../../../src/hal/../draw/../misc/lv_color.h ****     LV_OPA_50     = 127,
  49:Drivers/lvgl/src/extra/themes/mono/../../../../src/hal/../draw/../misc/lv_color.h ****     LV_OPA_60     = 153,
  50:Drivers/lvgl/src/extra/themes/mono/../../../../src/hal/../draw/../misc/lv_color.h ****     LV_OPA_70     = 178,
  51:Drivers/lvgl/src/extra/themes/mono/../../../../src/hal/../draw/../misc/lv_color.h ****     LV_OPA_80     = 204,
  52:Drivers/lvgl/src/extra/themes/mono/../../../../src/hal/../draw/../misc/lv_color.h ****     LV_OPA_90     = 229,
  53:Drivers/lvgl/src/extra/themes/mono/../../../../src/hal/../draw/../misc/lv_color.h ****     LV_OPA_100    = 255,
ARM GAS  /var/folders/lp/x54gwt890xv47sdkqj1k04q40000gn/T//cc6ygGfE.s 			page 46


  54:Drivers/lvgl/src/extra/themes/mono/../../../../src/hal/../draw/../misc/lv_color.h ****     LV_OPA_COVER  = 255,
  55:Drivers/lvgl/src/extra/themes/mono/../../../../src/hal/../draw/../misc/lv_color.h **** };
  56:Drivers/lvgl/src/extra/themes/mono/../../../../src/hal/../draw/../misc/lv_color.h **** 
  57:Drivers/lvgl/src/extra/themes/mono/../../../../src/hal/../draw/../misc/lv_color.h **** #define LV_OPA_MIN 2    /*Opacities below this will be transparent*/
  58:Drivers/lvgl/src/extra/themes/mono/../../../../src/hal/../draw/../misc/lv_color.h **** #define LV_OPA_MAX 253  /*Opacities above this will fully cover*/
  59:Drivers/lvgl/src/extra/themes/mono/../../../../src/hal/../draw/../misc/lv_color.h **** 
  60:Drivers/lvgl/src/extra/themes/mono/../../../../src/hal/../draw/../misc/lv_color.h **** #if LV_COLOR_DEPTH == 1
  61:Drivers/lvgl/src/extra/themes/mono/../../../../src/hal/../draw/../misc/lv_color.h **** #define LV_COLOR_SIZE 8
  62:Drivers/lvgl/src/extra/themes/mono/../../../../src/hal/../draw/../misc/lv_color.h **** #elif LV_COLOR_DEPTH == 8
  63:Drivers/lvgl/src/extra/themes/mono/../../../../src/hal/../draw/../misc/lv_color.h **** #define LV_COLOR_SIZE 8
  64:Drivers/lvgl/src/extra/themes/mono/../../../../src/hal/../draw/../misc/lv_color.h **** #elif LV_COLOR_DEPTH == 16
  65:Drivers/lvgl/src/extra/themes/mono/../../../../src/hal/../draw/../misc/lv_color.h **** #define LV_COLOR_SIZE 16
  66:Drivers/lvgl/src/extra/themes/mono/../../../../src/hal/../draw/../misc/lv_color.h **** #elif LV_COLOR_DEPTH == 32
  67:Drivers/lvgl/src/extra/themes/mono/../../../../src/hal/../draw/../misc/lv_color.h **** #define LV_COLOR_SIZE 32
  68:Drivers/lvgl/src/extra/themes/mono/../../../../src/hal/../draw/../misc/lv_color.h **** #else
  69:Drivers/lvgl/src/extra/themes/mono/../../../../src/hal/../draw/../misc/lv_color.h **** #error "Invalid LV_COLOR_DEPTH in lv_conf.h! Set it to 1, 8, 16 or 32!"
  70:Drivers/lvgl/src/extra/themes/mono/../../../../src/hal/../draw/../misc/lv_color.h **** #endif
  71:Drivers/lvgl/src/extra/themes/mono/../../../../src/hal/../draw/../misc/lv_color.h **** 
  72:Drivers/lvgl/src/extra/themes/mono/../../../../src/hal/../draw/../misc/lv_color.h **** #if defined(__cplusplus) && !defined(_LV_COLOR_HAS_MODERN_CPP)
  73:Drivers/lvgl/src/extra/themes/mono/../../../../src/hal/../draw/../misc/lv_color.h **** /**
  74:Drivers/lvgl/src/extra/themes/mono/../../../../src/hal/../draw/../misc/lv_color.h **** * MSVC compiler's definition of the __cplusplus indicating 199711L regardless to C++ standard versi
  75:Drivers/lvgl/src/extra/themes/mono/../../../../src/hal/../draw/../misc/lv_color.h **** * see https://devblogs.microsoft.com/cppblog/msvc-now-correctly-reports-cplusplus
  76:Drivers/lvgl/src/extra/themes/mono/../../../../src/hal/../draw/../misc/lv_color.h **** * so we use _MSC_VER macro instead of __cplusplus
  77:Drivers/lvgl/src/extra/themes/mono/../../../../src/hal/../draw/../misc/lv_color.h **** */
  78:Drivers/lvgl/src/extra/themes/mono/../../../../src/hal/../draw/../misc/lv_color.h **** #ifdef _MSC_VER
  79:Drivers/lvgl/src/extra/themes/mono/../../../../src/hal/../draw/../misc/lv_color.h **** #if _MSC_VER >= 1900 /*Visual Studio 2015*/
  80:Drivers/lvgl/src/extra/themes/mono/../../../../src/hal/../draw/../misc/lv_color.h **** #define _LV_COLOR_HAS_MODERN_CPP 1
  81:Drivers/lvgl/src/extra/themes/mono/../../../../src/hal/../draw/../misc/lv_color.h **** #endif
  82:Drivers/lvgl/src/extra/themes/mono/../../../../src/hal/../draw/../misc/lv_color.h **** #else
  83:Drivers/lvgl/src/extra/themes/mono/../../../../src/hal/../draw/../misc/lv_color.h **** #if __cplusplus >= 201103L
  84:Drivers/lvgl/src/extra/themes/mono/../../../../src/hal/../draw/../misc/lv_color.h **** #define _LV_COLOR_HAS_MODERN_CPP 1
  85:Drivers/lvgl/src/extra/themes/mono/../../../../src/hal/../draw/../misc/lv_color.h **** #endif
  86:Drivers/lvgl/src/extra/themes/mono/../../../../src/hal/../draw/../misc/lv_color.h **** #endif
  87:Drivers/lvgl/src/extra/themes/mono/../../../../src/hal/../draw/../misc/lv_color.h **** #endif /*__cplusplus*/
  88:Drivers/lvgl/src/extra/themes/mono/../../../../src/hal/../draw/../misc/lv_color.h **** 
  89:Drivers/lvgl/src/extra/themes/mono/../../../../src/hal/../draw/../misc/lv_color.h **** #ifndef _LV_COLOR_HAS_MODERN_CPP
  90:Drivers/lvgl/src/extra/themes/mono/../../../../src/hal/../draw/../misc/lv_color.h **** #define _LV_COLOR_HAS_MODERN_CPP 0
  91:Drivers/lvgl/src/extra/themes/mono/../../../../src/hal/../draw/../misc/lv_color.h **** #endif
  92:Drivers/lvgl/src/extra/themes/mono/../../../../src/hal/../draw/../misc/lv_color.h **** 
  93:Drivers/lvgl/src/extra/themes/mono/../../../../src/hal/../draw/../misc/lv_color.h **** #if _LV_COLOR_HAS_MODERN_CPP
  94:Drivers/lvgl/src/extra/themes/mono/../../../../src/hal/../draw/../misc/lv_color.h **** /*Fix msvc compiler error C4576 inside C++ code*/
  95:Drivers/lvgl/src/extra/themes/mono/../../../../src/hal/../draw/../misc/lv_color.h **** #define _LV_COLOR_MAKE_TYPE_HELPER lv_color_t
  96:Drivers/lvgl/src/extra/themes/mono/../../../../src/hal/../draw/../misc/lv_color.h **** #else
  97:Drivers/lvgl/src/extra/themes/mono/../../../../src/hal/../draw/../misc/lv_color.h **** #define _LV_COLOR_MAKE_TYPE_HELPER (lv_color_t)
  98:Drivers/lvgl/src/extra/themes/mono/../../../../src/hal/../draw/../misc/lv_color.h **** #endif
  99:Drivers/lvgl/src/extra/themes/mono/../../../../src/hal/../draw/../misc/lv_color.h **** 
 100:Drivers/lvgl/src/extra/themes/mono/../../../../src/hal/../draw/../misc/lv_color.h **** /*---------------------------------------
 101:Drivers/lvgl/src/extra/themes/mono/../../../../src/hal/../draw/../misc/lv_color.h ****  * Macros for all existing color depths
 102:Drivers/lvgl/src/extra/themes/mono/../../../../src/hal/../draw/../misc/lv_color.h ****  * to set/get values of the color channels
 103:Drivers/lvgl/src/extra/themes/mono/../../../../src/hal/../draw/../misc/lv_color.h ****  *------------------------------------------*/
 104:Drivers/lvgl/src/extra/themes/mono/../../../../src/hal/../draw/../misc/lv_color.h **** # define LV_COLOR_SET_R1(c, v) (c).ch.red = (uint8_t)((v) & 0x1)
 105:Drivers/lvgl/src/extra/themes/mono/../../../../src/hal/../draw/../misc/lv_color.h **** # define LV_COLOR_SET_G1(c, v) (c).ch.green = (uint8_t)((v) & 0x1)
 106:Drivers/lvgl/src/extra/themes/mono/../../../../src/hal/../draw/../misc/lv_color.h **** # define LV_COLOR_SET_B1(c, v) (c).ch.blue = (uint8_t)((v) & 0x1)
 107:Drivers/lvgl/src/extra/themes/mono/../../../../src/hal/../draw/../misc/lv_color.h **** # define LV_COLOR_SET_A1(c, v) do {} while(0)
 108:Drivers/lvgl/src/extra/themes/mono/../../../../src/hal/../draw/../misc/lv_color.h **** 
 109:Drivers/lvgl/src/extra/themes/mono/../../../../src/hal/../draw/../misc/lv_color.h **** # define LV_COLOR_GET_R1(c) (c).ch.red
 110:Drivers/lvgl/src/extra/themes/mono/../../../../src/hal/../draw/../misc/lv_color.h **** # define LV_COLOR_GET_G1(c) (c).ch.green
ARM GAS  /var/folders/lp/x54gwt890xv47sdkqj1k04q40000gn/T//cc6ygGfE.s 			page 47


 111:Drivers/lvgl/src/extra/themes/mono/../../../../src/hal/../draw/../misc/lv_color.h **** # define LV_COLOR_GET_B1(c) (c).ch.blue
 112:Drivers/lvgl/src/extra/themes/mono/../../../../src/hal/../draw/../misc/lv_color.h **** # define LV_COLOR_GET_A1(c) 0xFF
 113:Drivers/lvgl/src/extra/themes/mono/../../../../src/hal/../draw/../misc/lv_color.h **** 
 114:Drivers/lvgl/src/extra/themes/mono/../../../../src/hal/../draw/../misc/lv_color.h **** # define _LV_COLOR_ZERO_INITIALIZER1 {0x00}
 115:Drivers/lvgl/src/extra/themes/mono/../../../../src/hal/../draw/../misc/lv_color.h **** # define LV_COLOR_MAKE1(r8, g8, b8)  {(uint8_t)((b8 >> 7) | (g8 >> 7) | (r8 >> 7))}
 116:Drivers/lvgl/src/extra/themes/mono/../../../../src/hal/../draw/../misc/lv_color.h **** 
 117:Drivers/lvgl/src/extra/themes/mono/../../../../src/hal/../draw/../misc/lv_color.h **** # define LV_COLOR_SET_R8(c, v) (c).ch.red = (uint8_t)((v) & 0x7U)
 118:Drivers/lvgl/src/extra/themes/mono/../../../../src/hal/../draw/../misc/lv_color.h **** # define LV_COLOR_SET_G8(c, v) (c).ch.green = (uint8_t)((v) & 0x7U)
 119:Drivers/lvgl/src/extra/themes/mono/../../../../src/hal/../draw/../misc/lv_color.h **** # define LV_COLOR_SET_B8(c, v) (c).ch.blue = (uint8_t)((v) & 0x3U)
 120:Drivers/lvgl/src/extra/themes/mono/../../../../src/hal/../draw/../misc/lv_color.h **** # define LV_COLOR_SET_A8(c, v) do {} while(0)
 121:Drivers/lvgl/src/extra/themes/mono/../../../../src/hal/../draw/../misc/lv_color.h **** 
 122:Drivers/lvgl/src/extra/themes/mono/../../../../src/hal/../draw/../misc/lv_color.h **** # define LV_COLOR_GET_R8(c) (c).ch.red
 123:Drivers/lvgl/src/extra/themes/mono/../../../../src/hal/../draw/../misc/lv_color.h **** # define LV_COLOR_GET_G8(c) (c).ch.green
 124:Drivers/lvgl/src/extra/themes/mono/../../../../src/hal/../draw/../misc/lv_color.h **** # define LV_COLOR_GET_B8(c) (c).ch.blue
 125:Drivers/lvgl/src/extra/themes/mono/../../../../src/hal/../draw/../misc/lv_color.h **** # define LV_COLOR_GET_A8(c) 0xFF
 126:Drivers/lvgl/src/extra/themes/mono/../../../../src/hal/../draw/../misc/lv_color.h **** 
 127:Drivers/lvgl/src/extra/themes/mono/../../../../src/hal/../draw/../misc/lv_color.h **** # define _LV_COLOR_ZERO_INITIALIZER8 {{0x00, 0x00, 0x00}}
 128:Drivers/lvgl/src/extra/themes/mono/../../../../src/hal/../draw/../misc/lv_color.h **** # define LV_COLOR_MAKE8(r8, g8, b8) {{(uint8_t)((b8 >> 6) & 0x3U), (uint8_t)((g8 >> 5) & 0x7U), (ui
 129:Drivers/lvgl/src/extra/themes/mono/../../../../src/hal/../draw/../misc/lv_color.h **** 
 130:Drivers/lvgl/src/extra/themes/mono/../../../../src/hal/../draw/../misc/lv_color.h **** # define LV_COLOR_SET_R16(c, v) (c).ch.red = (uint8_t)((v) & 0x1FU)
 131:Drivers/lvgl/src/extra/themes/mono/../../../../src/hal/../draw/../misc/lv_color.h **** #if LV_COLOR_16_SWAP == 0
 132:Drivers/lvgl/src/extra/themes/mono/../../../../src/hal/../draw/../misc/lv_color.h **** # define LV_COLOR_SET_G16(c, v) (c).ch.green = (uint8_t)((v) & 0x3FU)
 133:Drivers/lvgl/src/extra/themes/mono/../../../../src/hal/../draw/../misc/lv_color.h **** #else
 134:Drivers/lvgl/src/extra/themes/mono/../../../../src/hal/../draw/../misc/lv_color.h **** # define LV_COLOR_SET_G16(c, v) {(c).ch.green_h = (uint8_t)(((v) >> 3) & 0x7); (c).ch.green_l = (ui
 135:Drivers/lvgl/src/extra/themes/mono/../../../../src/hal/../draw/../misc/lv_color.h **** #endif
 136:Drivers/lvgl/src/extra/themes/mono/../../../../src/hal/../draw/../misc/lv_color.h **** # define LV_COLOR_SET_B16(c, v) (c).ch.blue = (uint8_t)((v) & 0x1FU)
 137:Drivers/lvgl/src/extra/themes/mono/../../../../src/hal/../draw/../misc/lv_color.h **** # define LV_COLOR_SET_A16(c, v) do {} while(0)
 138:Drivers/lvgl/src/extra/themes/mono/../../../../src/hal/../draw/../misc/lv_color.h **** 
 139:Drivers/lvgl/src/extra/themes/mono/../../../../src/hal/../draw/../misc/lv_color.h **** # define LV_COLOR_GET_R16(c) (c).ch.red
 140:Drivers/lvgl/src/extra/themes/mono/../../../../src/hal/../draw/../misc/lv_color.h **** #if LV_COLOR_16_SWAP == 0
 141:Drivers/lvgl/src/extra/themes/mono/../../../../src/hal/../draw/../misc/lv_color.h **** # define LV_COLOR_GET_G16(c) (c).ch.green
 142:Drivers/lvgl/src/extra/themes/mono/../../../../src/hal/../draw/../misc/lv_color.h **** #else
 143:Drivers/lvgl/src/extra/themes/mono/../../../../src/hal/../draw/../misc/lv_color.h **** # define LV_COLOR_GET_G16(c) (((c).ch.green_h << 3) + (c).ch.green_l)
 144:Drivers/lvgl/src/extra/themes/mono/../../../../src/hal/../draw/../misc/lv_color.h **** #endif
 145:Drivers/lvgl/src/extra/themes/mono/../../../../src/hal/../draw/../misc/lv_color.h **** # define LV_COLOR_GET_B16(c) (c).ch.blue
 146:Drivers/lvgl/src/extra/themes/mono/../../../../src/hal/../draw/../misc/lv_color.h **** # define LV_COLOR_GET_A16(c) 0xFF
 147:Drivers/lvgl/src/extra/themes/mono/../../../../src/hal/../draw/../misc/lv_color.h **** 
 148:Drivers/lvgl/src/extra/themes/mono/../../../../src/hal/../draw/../misc/lv_color.h **** #if LV_COLOR_16_SWAP == 0
 149:Drivers/lvgl/src/extra/themes/mono/../../../../src/hal/../draw/../misc/lv_color.h **** # define _LV_COLOR_ZERO_INITIALIZER16  {{0x00, 0x00, 0x00}}
 150:Drivers/lvgl/src/extra/themes/mono/../../../../src/hal/../draw/../misc/lv_color.h **** # define LV_COLOR_MAKE16(r8, g8, b8) {{(uint8_t)((b8 >> 3) & 0x1FU), (uint8_t)((g8 >> 2) & 0x3FU), 
 151:Drivers/lvgl/src/extra/themes/mono/../../../../src/hal/../draw/../misc/lv_color.h **** #else
 152:Drivers/lvgl/src/extra/themes/mono/../../../../src/hal/../draw/../misc/lv_color.h **** # define _LV_COLOR_ZERO_INITIALIZER16 {{0x00, 0x00, 0x00, 0x00}}
 153:Drivers/lvgl/src/extra/themes/mono/../../../../src/hal/../draw/../misc/lv_color.h **** # define LV_COLOR_MAKE16(r8, g8, b8) {{(uint8_t)((g8 >> 5) & 0x7U), (uint8_t)((r8 >> 3) & 0x1FU), (
 154:Drivers/lvgl/src/extra/themes/mono/../../../../src/hal/../draw/../misc/lv_color.h **** #endif
 155:Drivers/lvgl/src/extra/themes/mono/../../../../src/hal/../draw/../misc/lv_color.h **** 
 156:Drivers/lvgl/src/extra/themes/mono/../../../../src/hal/../draw/../misc/lv_color.h **** # define LV_COLOR_SET_R32(c, v) (c).ch.red = (uint8_t)((v) & 0xFF)
 157:Drivers/lvgl/src/extra/themes/mono/../../../../src/hal/../draw/../misc/lv_color.h **** # define LV_COLOR_SET_G32(c, v) (c).ch.green = (uint8_t)((v) & 0xFF)
 158:Drivers/lvgl/src/extra/themes/mono/../../../../src/hal/../draw/../misc/lv_color.h **** # define LV_COLOR_SET_B32(c, v) (c).ch.blue = (uint8_t)((v) & 0xFF)
 159:Drivers/lvgl/src/extra/themes/mono/../../../../src/hal/../draw/../misc/lv_color.h **** # define LV_COLOR_SET_A32(c, v) (c).ch.alpha = (uint8_t)((v) & 0xFF)
 160:Drivers/lvgl/src/extra/themes/mono/../../../../src/hal/../draw/../misc/lv_color.h **** 
 161:Drivers/lvgl/src/extra/themes/mono/../../../../src/hal/../draw/../misc/lv_color.h **** # define LV_COLOR_GET_R32(c) (c).ch.red
 162:Drivers/lvgl/src/extra/themes/mono/../../../../src/hal/../draw/../misc/lv_color.h **** # define LV_COLOR_GET_G32(c) (c).ch.green
 163:Drivers/lvgl/src/extra/themes/mono/../../../../src/hal/../draw/../misc/lv_color.h **** # define LV_COLOR_GET_B32(c) (c).ch.blue
 164:Drivers/lvgl/src/extra/themes/mono/../../../../src/hal/../draw/../misc/lv_color.h **** # define LV_COLOR_GET_A32(c) (c).ch.alpha
 165:Drivers/lvgl/src/extra/themes/mono/../../../../src/hal/../draw/../misc/lv_color.h **** 
 166:Drivers/lvgl/src/extra/themes/mono/../../../../src/hal/../draw/../misc/lv_color.h **** # define _LV_COLOR_ZERO_INITIALIZER32  {{0x00, 0x00, 0x00, 0x00}}
 167:Drivers/lvgl/src/extra/themes/mono/../../../../src/hal/../draw/../misc/lv_color.h **** # define LV_COLOR_MAKE32(r8, g8, b8) {{b8, g8, r8, 0xff}} /*Fix 0xff alpha*/
ARM GAS  /var/folders/lp/x54gwt890xv47sdkqj1k04q40000gn/T//cc6ygGfE.s 			page 48


 168:Drivers/lvgl/src/extra/themes/mono/../../../../src/hal/../draw/../misc/lv_color.h **** 
 169:Drivers/lvgl/src/extra/themes/mono/../../../../src/hal/../draw/../misc/lv_color.h **** /*---------------------------------------
 170:Drivers/lvgl/src/extra/themes/mono/../../../../src/hal/../draw/../misc/lv_color.h ****  * Macros for the current color depth
 171:Drivers/lvgl/src/extra/themes/mono/../../../../src/hal/../draw/../misc/lv_color.h ****  * to set/get values of the color channels
 172:Drivers/lvgl/src/extra/themes/mono/../../../../src/hal/../draw/../misc/lv_color.h ****  *------------------------------------------*/
 173:Drivers/lvgl/src/extra/themes/mono/../../../../src/hal/../draw/../misc/lv_color.h **** #define LV_COLOR_SET_R(c, v) LV_CONCAT(LV_COLOR_SET_R, LV_COLOR_DEPTH)(c, v)
 174:Drivers/lvgl/src/extra/themes/mono/../../../../src/hal/../draw/../misc/lv_color.h **** #define LV_COLOR_SET_G(c, v) LV_CONCAT(LV_COLOR_SET_G, LV_COLOR_DEPTH)(c, v)
 175:Drivers/lvgl/src/extra/themes/mono/../../../../src/hal/../draw/../misc/lv_color.h **** #define LV_COLOR_SET_B(c, v) LV_CONCAT(LV_COLOR_SET_B, LV_COLOR_DEPTH)(c, v)
 176:Drivers/lvgl/src/extra/themes/mono/../../../../src/hal/../draw/../misc/lv_color.h **** #define LV_COLOR_SET_A(c, v) LV_CONCAT(LV_COLOR_SET_A, LV_COLOR_DEPTH)(c, v)
 177:Drivers/lvgl/src/extra/themes/mono/../../../../src/hal/../draw/../misc/lv_color.h **** 
 178:Drivers/lvgl/src/extra/themes/mono/../../../../src/hal/../draw/../misc/lv_color.h **** #define LV_COLOR_GET_R(c) LV_CONCAT(LV_COLOR_GET_R, LV_COLOR_DEPTH)(c)
 179:Drivers/lvgl/src/extra/themes/mono/../../../../src/hal/../draw/../misc/lv_color.h **** #define LV_COLOR_GET_G(c) LV_CONCAT(LV_COLOR_GET_G, LV_COLOR_DEPTH)(c)
 180:Drivers/lvgl/src/extra/themes/mono/../../../../src/hal/../draw/../misc/lv_color.h **** #define LV_COLOR_GET_B(c) LV_CONCAT(LV_COLOR_GET_B, LV_COLOR_DEPTH)(c)
 181:Drivers/lvgl/src/extra/themes/mono/../../../../src/hal/../draw/../misc/lv_color.h **** #define LV_COLOR_GET_A(c) LV_CONCAT(LV_COLOR_GET_A, LV_COLOR_DEPTH)(c)
 182:Drivers/lvgl/src/extra/themes/mono/../../../../src/hal/../draw/../misc/lv_color.h **** 
 183:Drivers/lvgl/src/extra/themes/mono/../../../../src/hal/../draw/../misc/lv_color.h **** #define _LV_COLOR_ZERO_INITIALIZER LV_CONCAT(_LV_COLOR_ZERO_INITIALIZER, LV_COLOR_DEPTH)
 184:Drivers/lvgl/src/extra/themes/mono/../../../../src/hal/../draw/../misc/lv_color.h **** #define LV_COLOR_MAKE(r8, g8, b8) LV_CONCAT(LV_COLOR_MAKE, LV_COLOR_DEPTH)(r8, g8, b8)
 185:Drivers/lvgl/src/extra/themes/mono/../../../../src/hal/../draw/../misc/lv_color.h **** 
 186:Drivers/lvgl/src/extra/themes/mono/../../../../src/hal/../draw/../misc/lv_color.h **** /**********************
 187:Drivers/lvgl/src/extra/themes/mono/../../../../src/hal/../draw/../misc/lv_color.h ****  *      TYPEDEFS
 188:Drivers/lvgl/src/extra/themes/mono/../../../../src/hal/../draw/../misc/lv_color.h ****  **********************/
 189:Drivers/lvgl/src/extra/themes/mono/../../../../src/hal/../draw/../misc/lv_color.h **** 
 190:Drivers/lvgl/src/extra/themes/mono/../../../../src/hal/../draw/../misc/lv_color.h **** typedef union {
 191:Drivers/lvgl/src/extra/themes/mono/../../../../src/hal/../draw/../misc/lv_color.h ****     uint8_t full; /*must be declared first to set all bits of byte via initializer list*/
 192:Drivers/lvgl/src/extra/themes/mono/../../../../src/hal/../draw/../misc/lv_color.h ****     union {
 193:Drivers/lvgl/src/extra/themes/mono/../../../../src/hal/../draw/../misc/lv_color.h ****         uint8_t blue : 1;
 194:Drivers/lvgl/src/extra/themes/mono/../../../../src/hal/../draw/../misc/lv_color.h ****         uint8_t green : 1;
 195:Drivers/lvgl/src/extra/themes/mono/../../../../src/hal/../draw/../misc/lv_color.h ****         uint8_t red : 1;
 196:Drivers/lvgl/src/extra/themes/mono/../../../../src/hal/../draw/../misc/lv_color.h ****     } ch;
 197:Drivers/lvgl/src/extra/themes/mono/../../../../src/hal/../draw/../misc/lv_color.h **** } lv_color1_t;
 198:Drivers/lvgl/src/extra/themes/mono/../../../../src/hal/../draw/../misc/lv_color.h **** 
 199:Drivers/lvgl/src/extra/themes/mono/../../../../src/hal/../draw/../misc/lv_color.h **** typedef union {
 200:Drivers/lvgl/src/extra/themes/mono/../../../../src/hal/../draw/../misc/lv_color.h ****     struct {
 201:Drivers/lvgl/src/extra/themes/mono/../../../../src/hal/../draw/../misc/lv_color.h ****         uint8_t blue : 2;
 202:Drivers/lvgl/src/extra/themes/mono/../../../../src/hal/../draw/../misc/lv_color.h ****         uint8_t green : 3;
 203:Drivers/lvgl/src/extra/themes/mono/../../../../src/hal/../draw/../misc/lv_color.h ****         uint8_t red : 3;
 204:Drivers/lvgl/src/extra/themes/mono/../../../../src/hal/../draw/../misc/lv_color.h ****     } ch;
 205:Drivers/lvgl/src/extra/themes/mono/../../../../src/hal/../draw/../misc/lv_color.h ****     uint8_t full;
 206:Drivers/lvgl/src/extra/themes/mono/../../../../src/hal/../draw/../misc/lv_color.h **** } lv_color8_t;
 207:Drivers/lvgl/src/extra/themes/mono/../../../../src/hal/../draw/../misc/lv_color.h **** 
 208:Drivers/lvgl/src/extra/themes/mono/../../../../src/hal/../draw/../misc/lv_color.h **** typedef union {
 209:Drivers/lvgl/src/extra/themes/mono/../../../../src/hal/../draw/../misc/lv_color.h ****     struct {
 210:Drivers/lvgl/src/extra/themes/mono/../../../../src/hal/../draw/../misc/lv_color.h **** #if LV_COLOR_16_SWAP == 0
 211:Drivers/lvgl/src/extra/themes/mono/../../../../src/hal/../draw/../misc/lv_color.h ****         uint16_t blue : 5;
 212:Drivers/lvgl/src/extra/themes/mono/../../../../src/hal/../draw/../misc/lv_color.h ****         uint16_t green : 6;
 213:Drivers/lvgl/src/extra/themes/mono/../../../../src/hal/../draw/../misc/lv_color.h ****         uint16_t red : 5;
 214:Drivers/lvgl/src/extra/themes/mono/../../../../src/hal/../draw/../misc/lv_color.h **** #else
 215:Drivers/lvgl/src/extra/themes/mono/../../../../src/hal/../draw/../misc/lv_color.h ****         uint16_t green_h : 3;
 216:Drivers/lvgl/src/extra/themes/mono/../../../../src/hal/../draw/../misc/lv_color.h ****         uint16_t red : 5;
 217:Drivers/lvgl/src/extra/themes/mono/../../../../src/hal/../draw/../misc/lv_color.h ****         uint16_t blue : 5;
 218:Drivers/lvgl/src/extra/themes/mono/../../../../src/hal/../draw/../misc/lv_color.h ****         uint16_t green_l : 3;
 219:Drivers/lvgl/src/extra/themes/mono/../../../../src/hal/../draw/../misc/lv_color.h **** #endif
 220:Drivers/lvgl/src/extra/themes/mono/../../../../src/hal/../draw/../misc/lv_color.h ****     } ch;
 221:Drivers/lvgl/src/extra/themes/mono/../../../../src/hal/../draw/../misc/lv_color.h ****     uint16_t full;
 222:Drivers/lvgl/src/extra/themes/mono/../../../../src/hal/../draw/../misc/lv_color.h **** } lv_color16_t;
 223:Drivers/lvgl/src/extra/themes/mono/../../../../src/hal/../draw/../misc/lv_color.h **** 
 224:Drivers/lvgl/src/extra/themes/mono/../../../../src/hal/../draw/../misc/lv_color.h **** typedef union {
ARM GAS  /var/folders/lp/x54gwt890xv47sdkqj1k04q40000gn/T//cc6ygGfE.s 			page 49


 225:Drivers/lvgl/src/extra/themes/mono/../../../../src/hal/../draw/../misc/lv_color.h ****     struct {
 226:Drivers/lvgl/src/extra/themes/mono/../../../../src/hal/../draw/../misc/lv_color.h ****         uint8_t blue;
 227:Drivers/lvgl/src/extra/themes/mono/../../../../src/hal/../draw/../misc/lv_color.h ****         uint8_t green;
 228:Drivers/lvgl/src/extra/themes/mono/../../../../src/hal/../draw/../misc/lv_color.h ****         uint8_t red;
 229:Drivers/lvgl/src/extra/themes/mono/../../../../src/hal/../draw/../misc/lv_color.h ****         uint8_t alpha;
 230:Drivers/lvgl/src/extra/themes/mono/../../../../src/hal/../draw/../misc/lv_color.h ****     } ch;
 231:Drivers/lvgl/src/extra/themes/mono/../../../../src/hal/../draw/../misc/lv_color.h ****     uint32_t full;
 232:Drivers/lvgl/src/extra/themes/mono/../../../../src/hal/../draw/../misc/lv_color.h **** } lv_color32_t;
 233:Drivers/lvgl/src/extra/themes/mono/../../../../src/hal/../draw/../misc/lv_color.h **** 
 234:Drivers/lvgl/src/extra/themes/mono/../../../../src/hal/../draw/../misc/lv_color.h **** typedef LV_CONCAT3(uint, LV_COLOR_SIZE, _t) lv_color_int_t;
 235:Drivers/lvgl/src/extra/themes/mono/../../../../src/hal/../draw/../misc/lv_color.h **** typedef LV_CONCAT3(lv_color, LV_COLOR_DEPTH, _t) lv_color_t;
 236:Drivers/lvgl/src/extra/themes/mono/../../../../src/hal/../draw/../misc/lv_color.h **** 
 237:Drivers/lvgl/src/extra/themes/mono/../../../../src/hal/../draw/../misc/lv_color.h **** typedef struct {
 238:Drivers/lvgl/src/extra/themes/mono/../../../../src/hal/../draw/../misc/lv_color.h ****     uint16_t h;
 239:Drivers/lvgl/src/extra/themes/mono/../../../../src/hal/../draw/../misc/lv_color.h ****     uint8_t s;
 240:Drivers/lvgl/src/extra/themes/mono/../../../../src/hal/../draw/../misc/lv_color.h ****     uint8_t v;
 241:Drivers/lvgl/src/extra/themes/mono/../../../../src/hal/../draw/../misc/lv_color.h **** } lv_color_hsv_t;
 242:Drivers/lvgl/src/extra/themes/mono/../../../../src/hal/../draw/../misc/lv_color.h **** 
 243:Drivers/lvgl/src/extra/themes/mono/../../../../src/hal/../draw/../misc/lv_color.h **** //! @cond Doxygen_Suppress
 244:Drivers/lvgl/src/extra/themes/mono/../../../../src/hal/../draw/../misc/lv_color.h **** /*No idea where the guard is required but else throws warnings in the docs*/
 245:Drivers/lvgl/src/extra/themes/mono/../../../../src/hal/../draw/../misc/lv_color.h **** typedef uint8_t lv_opa_t;
 246:Drivers/lvgl/src/extra/themes/mono/../../../../src/hal/../draw/../misc/lv_color.h **** //! @endcond
 247:Drivers/lvgl/src/extra/themes/mono/../../../../src/hal/../draw/../misc/lv_color.h **** 
 248:Drivers/lvgl/src/extra/themes/mono/../../../../src/hal/../draw/../misc/lv_color.h **** struct _lv_color_filter_dsc_t;
 249:Drivers/lvgl/src/extra/themes/mono/../../../../src/hal/../draw/../misc/lv_color.h **** 
 250:Drivers/lvgl/src/extra/themes/mono/../../../../src/hal/../draw/../misc/lv_color.h **** typedef lv_color_t (*lv_color_filter_cb_t)(const struct _lv_color_filter_dsc_t *, lv_color_t, lv_op
 251:Drivers/lvgl/src/extra/themes/mono/../../../../src/hal/../draw/../misc/lv_color.h **** 
 252:Drivers/lvgl/src/extra/themes/mono/../../../../src/hal/../draw/../misc/lv_color.h **** typedef struct _lv_color_filter_dsc_t {
 253:Drivers/lvgl/src/extra/themes/mono/../../../../src/hal/../draw/../misc/lv_color.h ****     lv_color_filter_cb_t filter_cb;
 254:Drivers/lvgl/src/extra/themes/mono/../../../../src/hal/../draw/../misc/lv_color.h ****     void * user_data;
 255:Drivers/lvgl/src/extra/themes/mono/../../../../src/hal/../draw/../misc/lv_color.h **** } lv_color_filter_dsc_t;
 256:Drivers/lvgl/src/extra/themes/mono/../../../../src/hal/../draw/../misc/lv_color.h **** 
 257:Drivers/lvgl/src/extra/themes/mono/../../../../src/hal/../draw/../misc/lv_color.h **** 
 258:Drivers/lvgl/src/extra/themes/mono/../../../../src/hal/../draw/../misc/lv_color.h **** typedef enum {
 259:Drivers/lvgl/src/extra/themes/mono/../../../../src/hal/../draw/../misc/lv_color.h ****     LV_PALETTE_RED,
 260:Drivers/lvgl/src/extra/themes/mono/../../../../src/hal/../draw/../misc/lv_color.h ****     LV_PALETTE_PINK,
 261:Drivers/lvgl/src/extra/themes/mono/../../../../src/hal/../draw/../misc/lv_color.h ****     LV_PALETTE_PURPLE,
 262:Drivers/lvgl/src/extra/themes/mono/../../../../src/hal/../draw/../misc/lv_color.h ****     LV_PALETTE_DEEP_PURPLE,
 263:Drivers/lvgl/src/extra/themes/mono/../../../../src/hal/../draw/../misc/lv_color.h ****     LV_PALETTE_INDIGO,
 264:Drivers/lvgl/src/extra/themes/mono/../../../../src/hal/../draw/../misc/lv_color.h ****     LV_PALETTE_BLUE,
 265:Drivers/lvgl/src/extra/themes/mono/../../../../src/hal/../draw/../misc/lv_color.h ****     LV_PALETTE_LIGHT_BLUE,
 266:Drivers/lvgl/src/extra/themes/mono/../../../../src/hal/../draw/../misc/lv_color.h ****     LV_PALETTE_CYAN,
 267:Drivers/lvgl/src/extra/themes/mono/../../../../src/hal/../draw/../misc/lv_color.h ****     LV_PALETTE_TEAL,
 268:Drivers/lvgl/src/extra/themes/mono/../../../../src/hal/../draw/../misc/lv_color.h ****     LV_PALETTE_GREEN,
 269:Drivers/lvgl/src/extra/themes/mono/../../../../src/hal/../draw/../misc/lv_color.h ****     LV_PALETTE_LIGHT_GREEN,
 270:Drivers/lvgl/src/extra/themes/mono/../../../../src/hal/../draw/../misc/lv_color.h ****     LV_PALETTE_LIME,
 271:Drivers/lvgl/src/extra/themes/mono/../../../../src/hal/../draw/../misc/lv_color.h ****     LV_PALETTE_YELLOW,
 272:Drivers/lvgl/src/extra/themes/mono/../../../../src/hal/../draw/../misc/lv_color.h ****     LV_PALETTE_AMBER,
 273:Drivers/lvgl/src/extra/themes/mono/../../../../src/hal/../draw/../misc/lv_color.h ****     LV_PALETTE_ORANGE,
 274:Drivers/lvgl/src/extra/themes/mono/../../../../src/hal/../draw/../misc/lv_color.h ****     LV_PALETTE_DEEP_ORANGE,
 275:Drivers/lvgl/src/extra/themes/mono/../../../../src/hal/../draw/../misc/lv_color.h ****     LV_PALETTE_BROWN,
 276:Drivers/lvgl/src/extra/themes/mono/../../../../src/hal/../draw/../misc/lv_color.h ****     LV_PALETTE_BLUE_GREY,
 277:Drivers/lvgl/src/extra/themes/mono/../../../../src/hal/../draw/../misc/lv_color.h ****     LV_PALETTE_GREY,
 278:Drivers/lvgl/src/extra/themes/mono/../../../../src/hal/../draw/../misc/lv_color.h ****     _LV_PALETTE_LAST,
 279:Drivers/lvgl/src/extra/themes/mono/../../../../src/hal/../draw/../misc/lv_color.h ****     LV_PALETTE_NONE = 0xff,
 280:Drivers/lvgl/src/extra/themes/mono/../../../../src/hal/../draw/../misc/lv_color.h **** } lv_palette_t;
 281:Drivers/lvgl/src/extra/themes/mono/../../../../src/hal/../draw/../misc/lv_color.h **** 
ARM GAS  /var/folders/lp/x54gwt890xv47sdkqj1k04q40000gn/T//cc6ygGfE.s 			page 50


 282:Drivers/lvgl/src/extra/themes/mono/../../../../src/hal/../draw/../misc/lv_color.h **** /**********************
 283:Drivers/lvgl/src/extra/themes/mono/../../../../src/hal/../draw/../misc/lv_color.h ****  * GLOBAL PROTOTYPES
 284:Drivers/lvgl/src/extra/themes/mono/../../../../src/hal/../draw/../misc/lv_color.h ****  **********************/
 285:Drivers/lvgl/src/extra/themes/mono/../../../../src/hal/../draw/../misc/lv_color.h **** 
 286:Drivers/lvgl/src/extra/themes/mono/../../../../src/hal/../draw/../misc/lv_color.h **** /*In color conversations:
 287:Drivers/lvgl/src/extra/themes/mono/../../../../src/hal/../draw/../misc/lv_color.h ****  * - When converting to bigger color type the LSB weight of 1 LSB is calculated
 288:Drivers/lvgl/src/extra/themes/mono/../../../../src/hal/../draw/../misc/lv_color.h ****  *   E.g. 16 bit Red has 5 bits
 289:Drivers/lvgl/src/extra/themes/mono/../../../../src/hal/../draw/../misc/lv_color.h ****  *         8 bit Red has 3 bits
 290:Drivers/lvgl/src/extra/themes/mono/../../../../src/hal/../draw/../misc/lv_color.h ****  *        ----------------------
 291:Drivers/lvgl/src/extra/themes/mono/../../../../src/hal/../draw/../misc/lv_color.h ****  *        8 bit red LSB = (2^5 - 1) / (2^3 - 1) = 31 / 7 = 4
 292:Drivers/lvgl/src/extra/themes/mono/../../../../src/hal/../draw/../misc/lv_color.h ****  *
 293:Drivers/lvgl/src/extra/themes/mono/../../../../src/hal/../draw/../misc/lv_color.h ****  * - When calculating to smaller color type simply shift out the LSBs
 294:Drivers/lvgl/src/extra/themes/mono/../../../../src/hal/../draw/../misc/lv_color.h ****  *   E.g.  8 bit Red has 3 bits
 295:Drivers/lvgl/src/extra/themes/mono/../../../../src/hal/../draw/../misc/lv_color.h ****  *        16 bit Red has 5 bits
 296:Drivers/lvgl/src/extra/themes/mono/../../../../src/hal/../draw/../misc/lv_color.h ****  *        ----------------------
 297:Drivers/lvgl/src/extra/themes/mono/../../../../src/hal/../draw/../misc/lv_color.h ****  *         Shift right with 5 - 3 = 2
 298:Drivers/lvgl/src/extra/themes/mono/../../../../src/hal/../draw/../misc/lv_color.h ****  */
 299:Drivers/lvgl/src/extra/themes/mono/../../../../src/hal/../draw/../misc/lv_color.h **** static inline uint8_t lv_color_to1(lv_color_t color)
 300:Drivers/lvgl/src/extra/themes/mono/../../../../src/hal/../draw/../misc/lv_color.h **** {
 301:Drivers/lvgl/src/extra/themes/mono/../../../../src/hal/../draw/../misc/lv_color.h **** #if LV_COLOR_DEPTH == 1
 302:Drivers/lvgl/src/extra/themes/mono/../../../../src/hal/../draw/../misc/lv_color.h ****     return color.full;
 303:Drivers/lvgl/src/extra/themes/mono/../../../../src/hal/../draw/../misc/lv_color.h **** #elif LV_COLOR_DEPTH == 8
 304:Drivers/lvgl/src/extra/themes/mono/../../../../src/hal/../draw/../misc/lv_color.h ****     if((LV_COLOR_GET_R(color) & 0x4) || (LV_COLOR_GET_G(color) & 0x4) || (LV_COLOR_GET_B(color) & 0
 305:Drivers/lvgl/src/extra/themes/mono/../../../../src/hal/../draw/../misc/lv_color.h ****         return 1;
 306:Drivers/lvgl/src/extra/themes/mono/../../../../src/hal/../draw/../misc/lv_color.h ****     }
 307:Drivers/lvgl/src/extra/themes/mono/../../../../src/hal/../draw/../misc/lv_color.h ****     else {
 308:Drivers/lvgl/src/extra/themes/mono/../../../../src/hal/../draw/../misc/lv_color.h ****         return 0;
 309:Drivers/lvgl/src/extra/themes/mono/../../../../src/hal/../draw/../misc/lv_color.h ****     }
 310:Drivers/lvgl/src/extra/themes/mono/../../../../src/hal/../draw/../misc/lv_color.h **** #elif LV_COLOR_DEPTH == 16
 311:Drivers/lvgl/src/extra/themes/mono/../../../../src/hal/../draw/../misc/lv_color.h ****     if((LV_COLOR_GET_R(color) & 0x10) || (LV_COLOR_GET_G(color) & 0x20) || (LV_COLOR_GET_B(color) &
 312:Drivers/lvgl/src/extra/themes/mono/../../../../src/hal/../draw/../misc/lv_color.h ****         return 1;
 313:Drivers/lvgl/src/extra/themes/mono/../../../../src/hal/../draw/../misc/lv_color.h ****     }
 314:Drivers/lvgl/src/extra/themes/mono/../../../../src/hal/../draw/../misc/lv_color.h ****     else {
 315:Drivers/lvgl/src/extra/themes/mono/../../../../src/hal/../draw/../misc/lv_color.h ****         return 0;
 316:Drivers/lvgl/src/extra/themes/mono/../../../../src/hal/../draw/../misc/lv_color.h ****     }
 317:Drivers/lvgl/src/extra/themes/mono/../../../../src/hal/../draw/../misc/lv_color.h **** #elif LV_COLOR_DEPTH == 32
 318:Drivers/lvgl/src/extra/themes/mono/../../../../src/hal/../draw/../misc/lv_color.h ****     if((LV_COLOR_GET_R(color) & 0x80) || (LV_COLOR_GET_G(color) & 0x80) || (LV_COLOR_GET_B(color) &
 319:Drivers/lvgl/src/extra/themes/mono/../../../../src/hal/../draw/../misc/lv_color.h ****         return 1;
 320:Drivers/lvgl/src/extra/themes/mono/../../../../src/hal/../draw/../misc/lv_color.h ****     }
 321:Drivers/lvgl/src/extra/themes/mono/../../../../src/hal/../draw/../misc/lv_color.h ****     else {
 322:Drivers/lvgl/src/extra/themes/mono/../../../../src/hal/../draw/../misc/lv_color.h ****         return 0;
 323:Drivers/lvgl/src/extra/themes/mono/../../../../src/hal/../draw/../misc/lv_color.h ****     }
 324:Drivers/lvgl/src/extra/themes/mono/../../../../src/hal/../draw/../misc/lv_color.h **** #endif
 325:Drivers/lvgl/src/extra/themes/mono/../../../../src/hal/../draw/../misc/lv_color.h **** }
 326:Drivers/lvgl/src/extra/themes/mono/../../../../src/hal/../draw/../misc/lv_color.h **** 
 327:Drivers/lvgl/src/extra/themes/mono/../../../../src/hal/../draw/../misc/lv_color.h **** static inline uint8_t lv_color_to8(lv_color_t color)
 328:Drivers/lvgl/src/extra/themes/mono/../../../../src/hal/../draw/../misc/lv_color.h **** {
 329:Drivers/lvgl/src/extra/themes/mono/../../../../src/hal/../draw/../misc/lv_color.h **** #if LV_COLOR_DEPTH == 1
 330:Drivers/lvgl/src/extra/themes/mono/../../../../src/hal/../draw/../misc/lv_color.h ****     if(color.full == 0)
 331:Drivers/lvgl/src/extra/themes/mono/../../../../src/hal/../draw/../misc/lv_color.h ****         return 0;
 332:Drivers/lvgl/src/extra/themes/mono/../../../../src/hal/../draw/../misc/lv_color.h ****     else
 333:Drivers/lvgl/src/extra/themes/mono/../../../../src/hal/../draw/../misc/lv_color.h ****         return 0xFF;
 334:Drivers/lvgl/src/extra/themes/mono/../../../../src/hal/../draw/../misc/lv_color.h **** #elif LV_COLOR_DEPTH == 8
 335:Drivers/lvgl/src/extra/themes/mono/../../../../src/hal/../draw/../misc/lv_color.h ****     return color.full;
 336:Drivers/lvgl/src/extra/themes/mono/../../../../src/hal/../draw/../misc/lv_color.h **** #elif LV_COLOR_DEPTH == 16
 337:Drivers/lvgl/src/extra/themes/mono/../../../../src/hal/../draw/../misc/lv_color.h ****     lv_color8_t ret;
 338:Drivers/lvgl/src/extra/themes/mono/../../../../src/hal/../draw/../misc/lv_color.h ****     LV_COLOR_SET_R8(ret, LV_COLOR_GET_R(color) >> 2); /*5 - 3  = 2*/
ARM GAS  /var/folders/lp/x54gwt890xv47sdkqj1k04q40000gn/T//cc6ygGfE.s 			page 51


 339:Drivers/lvgl/src/extra/themes/mono/../../../../src/hal/../draw/../misc/lv_color.h ****     LV_COLOR_SET_G8(ret, LV_COLOR_GET_G(color) >> 3); /*6 - 3  = 3*/
 340:Drivers/lvgl/src/extra/themes/mono/../../../../src/hal/../draw/../misc/lv_color.h ****     LV_COLOR_SET_B8(ret, LV_COLOR_GET_B(color) >> 3); /*5 - 2  = 3*/
 341:Drivers/lvgl/src/extra/themes/mono/../../../../src/hal/../draw/../misc/lv_color.h ****     return ret.full;
 342:Drivers/lvgl/src/extra/themes/mono/../../../../src/hal/../draw/../misc/lv_color.h **** #elif LV_COLOR_DEPTH == 32
 343:Drivers/lvgl/src/extra/themes/mono/../../../../src/hal/../draw/../misc/lv_color.h ****     lv_color8_t ret;
 344:Drivers/lvgl/src/extra/themes/mono/../../../../src/hal/../draw/../misc/lv_color.h ****     LV_COLOR_SET_R8(ret, LV_COLOR_GET_R(color) >> 5); /*8 - 3  = 5*/
 345:Drivers/lvgl/src/extra/themes/mono/../../../../src/hal/../draw/../misc/lv_color.h ****     LV_COLOR_SET_G8(ret, LV_COLOR_GET_G(color) >> 5); /*8 - 3  = 5*/
 346:Drivers/lvgl/src/extra/themes/mono/../../../../src/hal/../draw/../misc/lv_color.h ****     LV_COLOR_SET_B8(ret, LV_COLOR_GET_B(color) >> 6); /*8 - 2  = 6*/
 347:Drivers/lvgl/src/extra/themes/mono/../../../../src/hal/../draw/../misc/lv_color.h ****     return ret.full;
 348:Drivers/lvgl/src/extra/themes/mono/../../../../src/hal/../draw/../misc/lv_color.h **** #endif
 349:Drivers/lvgl/src/extra/themes/mono/../../../../src/hal/../draw/../misc/lv_color.h **** }
 350:Drivers/lvgl/src/extra/themes/mono/../../../../src/hal/../draw/../misc/lv_color.h **** 
 351:Drivers/lvgl/src/extra/themes/mono/../../../../src/hal/../draw/../misc/lv_color.h **** static inline uint16_t lv_color_to16(lv_color_t color)
 352:Drivers/lvgl/src/extra/themes/mono/../../../../src/hal/../draw/../misc/lv_color.h **** {
 353:Drivers/lvgl/src/extra/themes/mono/../../../../src/hal/../draw/../misc/lv_color.h **** #if LV_COLOR_DEPTH == 1
 354:Drivers/lvgl/src/extra/themes/mono/../../../../src/hal/../draw/../misc/lv_color.h ****     if(color.full == 0)
 355:Drivers/lvgl/src/extra/themes/mono/../../../../src/hal/../draw/../misc/lv_color.h ****         return 0;
 356:Drivers/lvgl/src/extra/themes/mono/../../../../src/hal/../draw/../misc/lv_color.h ****     else
 357:Drivers/lvgl/src/extra/themes/mono/../../../../src/hal/../draw/../misc/lv_color.h ****         return 0xFFFF;
 358:Drivers/lvgl/src/extra/themes/mono/../../../../src/hal/../draw/../misc/lv_color.h **** #elif LV_COLOR_DEPTH == 8
 359:Drivers/lvgl/src/extra/themes/mono/../../../../src/hal/../draw/../misc/lv_color.h ****     lv_color16_t ret;
 360:Drivers/lvgl/src/extra/themes/mono/../../../../src/hal/../draw/../misc/lv_color.h ****     LV_COLOR_SET_R16(ret, LV_COLOR_GET_R(color) * 4);  /*(2^5 - 1)/(2^3 - 1) = 31/7 = 4*/
 361:Drivers/lvgl/src/extra/themes/mono/../../../../src/hal/../draw/../misc/lv_color.h ****     LV_COLOR_SET_G16(ret, LV_COLOR_GET_G(color) * 9);  /*(2^6 - 1)/(2^3 - 1) = 63/7 = 9*/
 362:Drivers/lvgl/src/extra/themes/mono/../../../../src/hal/../draw/../misc/lv_color.h ****     LV_COLOR_SET_B16(ret, LV_COLOR_GET_B(color) * 10); /*(2^5 - 1)/(2^2 - 1) = 31/3 = 10*/
 363:Drivers/lvgl/src/extra/themes/mono/../../../../src/hal/../draw/../misc/lv_color.h ****     return ret.full;
 364:Drivers/lvgl/src/extra/themes/mono/../../../../src/hal/../draw/../misc/lv_color.h **** #elif LV_COLOR_DEPTH == 16
 365:Drivers/lvgl/src/extra/themes/mono/../../../../src/hal/../draw/../misc/lv_color.h ****     return color.full;
 366:Drivers/lvgl/src/extra/themes/mono/../../../../src/hal/../draw/../misc/lv_color.h **** #elif LV_COLOR_DEPTH == 32
 367:Drivers/lvgl/src/extra/themes/mono/../../../../src/hal/../draw/../misc/lv_color.h ****     lv_color16_t ret;
 368:Drivers/lvgl/src/extra/themes/mono/../../../../src/hal/../draw/../misc/lv_color.h ****     LV_COLOR_SET_R16(ret, LV_COLOR_GET_R(color) >> 3); /*8 - 5  = 3*/
 369:Drivers/lvgl/src/extra/themes/mono/../../../../src/hal/../draw/../misc/lv_color.h ****     LV_COLOR_SET_G16(ret, LV_COLOR_GET_G(color) >> 2); /*8 - 6  = 2*/
 370:Drivers/lvgl/src/extra/themes/mono/../../../../src/hal/../draw/../misc/lv_color.h ****     LV_COLOR_SET_B16(ret, LV_COLOR_GET_B(color) >> 3); /*8 - 5  = 3*/
 371:Drivers/lvgl/src/extra/themes/mono/../../../../src/hal/../draw/../misc/lv_color.h ****     return ret.full;
 372:Drivers/lvgl/src/extra/themes/mono/../../../../src/hal/../draw/../misc/lv_color.h **** #endif
 373:Drivers/lvgl/src/extra/themes/mono/../../../../src/hal/../draw/../misc/lv_color.h **** }
 374:Drivers/lvgl/src/extra/themes/mono/../../../../src/hal/../draw/../misc/lv_color.h **** 
 375:Drivers/lvgl/src/extra/themes/mono/../../../../src/hal/../draw/../misc/lv_color.h **** static inline uint32_t lv_color_to32(lv_color_t color)
 376:Drivers/lvgl/src/extra/themes/mono/../../../../src/hal/../draw/../misc/lv_color.h **** {
 377:Drivers/lvgl/src/extra/themes/mono/../../../../src/hal/../draw/../misc/lv_color.h **** #if LV_COLOR_DEPTH == 1
 378:Drivers/lvgl/src/extra/themes/mono/../../../../src/hal/../draw/../misc/lv_color.h ****     if(color.full == 0)
 379:Drivers/lvgl/src/extra/themes/mono/../../../../src/hal/../draw/../misc/lv_color.h ****         return 0xFF000000;
 380:Drivers/lvgl/src/extra/themes/mono/../../../../src/hal/../draw/../misc/lv_color.h ****     else
 381:Drivers/lvgl/src/extra/themes/mono/../../../../src/hal/../draw/../misc/lv_color.h ****         return 0xFFFFFFFF;
 382:Drivers/lvgl/src/extra/themes/mono/../../../../src/hal/../draw/../misc/lv_color.h **** #elif LV_COLOR_DEPTH == 8
 383:Drivers/lvgl/src/extra/themes/mono/../../../../src/hal/../draw/../misc/lv_color.h ****     lv_color32_t ret;
 384:Drivers/lvgl/src/extra/themes/mono/../../../../src/hal/../draw/../misc/lv_color.h ****     LV_COLOR_SET_R32(ret, LV_COLOR_GET_R(color) * 36); /*(2^8 - 1)/(2^3 - 1) = 255/7 = 36*/
 385:Drivers/lvgl/src/extra/themes/mono/../../../../src/hal/../draw/../misc/lv_color.h ****     LV_COLOR_SET_G32(ret, LV_COLOR_GET_G(color) * 36); /*(2^8 - 1)/(2^3 - 1) = 255/7 = 36*/
 386:Drivers/lvgl/src/extra/themes/mono/../../../../src/hal/../draw/../misc/lv_color.h ****     LV_COLOR_SET_B32(ret, LV_COLOR_GET_B(color) * 85); /*(2^8 - 1)/(2^2 - 1) = 255/3 = 85*/
 387:Drivers/lvgl/src/extra/themes/mono/../../../../src/hal/../draw/../misc/lv_color.h ****     LV_COLOR_SET_A32(ret, 0xFF);
 388:Drivers/lvgl/src/extra/themes/mono/../../../../src/hal/../draw/../misc/lv_color.h ****     return ret.full;
 389:Drivers/lvgl/src/extra/themes/mono/../../../../src/hal/../draw/../misc/lv_color.h **** #elif LV_COLOR_DEPTH == 16
 390:Drivers/lvgl/src/extra/themes/mono/../../../../src/hal/../draw/../misc/lv_color.h ****     /**
 391:Drivers/lvgl/src/extra/themes/mono/../../../../src/hal/../draw/../misc/lv_color.h ****      * The floating point math for conversion is:
 392:Drivers/lvgl/src/extra/themes/mono/../../../../src/hal/../draw/../misc/lv_color.h ****      *  valueto = valuefrom * ( (2^bitsto - 1) / (float)(2^bitsfrom - 1) )
 393:Drivers/lvgl/src/extra/themes/mono/../../../../src/hal/../draw/../misc/lv_color.h ****      * The faster integer math for conversion is:
 394:Drivers/lvgl/src/extra/themes/mono/../../../../src/hal/../draw/../misc/lv_color.h ****      *  valueto = ( valuefrom * multiplier + adder ) >> divisor
 395:Drivers/lvgl/src/extra/themes/mono/../../../../src/hal/../draw/../misc/lv_color.h ****      *   multiplier = FLOOR( ( (2^bitsto - 1) << divisor ) / (float)(2^bitsfrom - 1) )
ARM GAS  /var/folders/lp/x54gwt890xv47sdkqj1k04q40000gn/T//cc6ygGfE.s 			page 52


 396:Drivers/lvgl/src/extra/themes/mono/../../../../src/hal/../draw/../misc/lv_color.h ****      *
 397:Drivers/lvgl/src/extra/themes/mono/../../../../src/hal/../draw/../misc/lv_color.h ****      * Find the first divisor where ( adder >> divisor ) <= 0
 398:Drivers/lvgl/src/extra/themes/mono/../../../../src/hal/../draw/../misc/lv_color.h ****      *
 399:Drivers/lvgl/src/extra/themes/mono/../../../../src/hal/../draw/../misc/lv_color.h ****      * 5-bit to 8-bit: ( 31 * multiplier + adder ) >> divisor = 255
 400:Drivers/lvgl/src/extra/themes/mono/../../../../src/hal/../draw/../misc/lv_color.h ****      * divisor  multiplier  adder  min (0)  max (31)
 401:Drivers/lvgl/src/extra/themes/mono/../../../../src/hal/../draw/../misc/lv_color.h ****      *       0           8      7        7       255
 402:Drivers/lvgl/src/extra/themes/mono/../../../../src/hal/../draw/../misc/lv_color.h ****      *       1          16     14        7       255
 403:Drivers/lvgl/src/extra/themes/mono/../../../../src/hal/../draw/../misc/lv_color.h ****      *       2          32     28        7       255
 404:Drivers/lvgl/src/extra/themes/mono/../../../../src/hal/../draw/../misc/lv_color.h ****      *       3          65     25        3       255
 405:Drivers/lvgl/src/extra/themes/mono/../../../../src/hal/../draw/../misc/lv_color.h ****      *       4         131     19        1       255
 406:Drivers/lvgl/src/extra/themes/mono/../../../../src/hal/../draw/../misc/lv_color.h ****      *       5         263      7        0       255
 407:Drivers/lvgl/src/extra/themes/mono/../../../../src/hal/../draw/../misc/lv_color.h ****      *
 408:Drivers/lvgl/src/extra/themes/mono/../../../../src/hal/../draw/../misc/lv_color.h ****      * 6-bit to 8-bit: 255 = ( 63 * multiplier + adder ) >> divisor
 409:Drivers/lvgl/src/extra/themes/mono/../../../../src/hal/../draw/../misc/lv_color.h ****      * divisor  multiplier  adder  min (0)  max (63)
 410:Drivers/lvgl/src/extra/themes/mono/../../../../src/hal/../draw/../misc/lv_color.h ****      *       0           4      3        3       255
 411:Drivers/lvgl/src/extra/themes/mono/../../../../src/hal/../draw/../misc/lv_color.h ****      *       1           8      6        3       255
 412:Drivers/lvgl/src/extra/themes/mono/../../../../src/hal/../draw/../misc/lv_color.h ****      *       2          16     12        3       255
 413:Drivers/lvgl/src/extra/themes/mono/../../../../src/hal/../draw/../misc/lv_color.h ****      *       3          32     24        3       255
 414:Drivers/lvgl/src/extra/themes/mono/../../../../src/hal/../draw/../misc/lv_color.h ****      *       4          64     48        3       255
 415:Drivers/lvgl/src/extra/themes/mono/../../../../src/hal/../draw/../misc/lv_color.h ****      *       5         129     33        1       255
 416:Drivers/lvgl/src/extra/themes/mono/../../../../src/hal/../draw/../misc/lv_color.h ****      *       6         259      3        0       255
 417:Drivers/lvgl/src/extra/themes/mono/../../../../src/hal/../draw/../misc/lv_color.h ****      */
 418:Drivers/lvgl/src/extra/themes/mono/../../../../src/hal/../draw/../misc/lv_color.h **** 
 419:Drivers/lvgl/src/extra/themes/mono/../../../../src/hal/../draw/../misc/lv_color.h ****     lv_color32_t ret;
 420:Drivers/lvgl/src/extra/themes/mono/../../../../src/hal/../draw/../misc/lv_color.h ****     LV_COLOR_SET_R32(ret, (LV_COLOR_GET_R(color) * 263 + 7) >> 5);
 421:Drivers/lvgl/src/extra/themes/mono/../../../../src/hal/../draw/../misc/lv_color.h ****     LV_COLOR_SET_G32(ret, (LV_COLOR_GET_G(color) * 259 + 3) >> 6);
 422:Drivers/lvgl/src/extra/themes/mono/../../../../src/hal/../draw/../misc/lv_color.h ****     LV_COLOR_SET_B32(ret, (LV_COLOR_GET_B(color) * 263 + 7) >> 5);
 423:Drivers/lvgl/src/extra/themes/mono/../../../../src/hal/../draw/../misc/lv_color.h ****     LV_COLOR_SET_A32(ret, 0xFF);
 424:Drivers/lvgl/src/extra/themes/mono/../../../../src/hal/../draw/../misc/lv_color.h ****     return ret.full;
 425:Drivers/lvgl/src/extra/themes/mono/../../../../src/hal/../draw/../misc/lv_color.h **** #elif LV_COLOR_DEPTH == 32
 426:Drivers/lvgl/src/extra/themes/mono/../../../../src/hal/../draw/../misc/lv_color.h ****     return color.full;
 427:Drivers/lvgl/src/extra/themes/mono/../../../../src/hal/../draw/../misc/lv_color.h **** #endif
 428:Drivers/lvgl/src/extra/themes/mono/../../../../src/hal/../draw/../misc/lv_color.h **** }
 429:Drivers/lvgl/src/extra/themes/mono/../../../../src/hal/../draw/../misc/lv_color.h **** 
 430:Drivers/lvgl/src/extra/themes/mono/../../../../src/hal/../draw/../misc/lv_color.h **** //! @cond Doxygen_Suppress
 431:Drivers/lvgl/src/extra/themes/mono/../../../../src/hal/../draw/../misc/lv_color.h **** 
 432:Drivers/lvgl/src/extra/themes/mono/../../../../src/hal/../draw/../misc/lv_color.h **** /**
 433:Drivers/lvgl/src/extra/themes/mono/../../../../src/hal/../draw/../misc/lv_color.h ****  * Mix two colors with a given ratio.
 434:Drivers/lvgl/src/extra/themes/mono/../../../../src/hal/../draw/../misc/lv_color.h ****  * @param c1 the first color to mix (usually the foreground)
 435:Drivers/lvgl/src/extra/themes/mono/../../../../src/hal/../draw/../misc/lv_color.h ****  * @param c2 the second color to mix (usually the background)
 436:Drivers/lvgl/src/extra/themes/mono/../../../../src/hal/../draw/../misc/lv_color.h ****  * @param mix The ratio of the colors. 0: full `c2`, 255: full `c1`, 127: half `c1` and half`c2`
 437:Drivers/lvgl/src/extra/themes/mono/../../../../src/hal/../draw/../misc/lv_color.h ****  * @return the mixed color
 438:Drivers/lvgl/src/extra/themes/mono/../../../../src/hal/../draw/../misc/lv_color.h ****  */
 439:Drivers/lvgl/src/extra/themes/mono/../../../../src/hal/../draw/../misc/lv_color.h **** static inline lv_color_t LV_ATTRIBUTE_FAST_MEM lv_color_mix(lv_color_t c1, lv_color_t c2, uint8_t m
 440:Drivers/lvgl/src/extra/themes/mono/../../../../src/hal/../draw/../misc/lv_color.h **** {
 441:Drivers/lvgl/src/extra/themes/mono/../../../../src/hal/../draw/../misc/lv_color.h ****     lv_color_t ret;
 442:Drivers/lvgl/src/extra/themes/mono/../../../../src/hal/../draw/../misc/lv_color.h **** 
 443:Drivers/lvgl/src/extra/themes/mono/../../../../src/hal/../draw/../misc/lv_color.h **** #if LV_COLOR_DEPTH == 16 && LV_COLOR_MIX_ROUND_OFS == 0
 444:Drivers/lvgl/src/extra/themes/mono/../../../../src/hal/../draw/../misc/lv_color.h **** #if LV_COLOR_16_SWAP == 1
 445:Drivers/lvgl/src/extra/themes/mono/../../../../src/hal/../draw/../misc/lv_color.h ****     c1.full = c1.full << 8 | c1.full >> 8;
 446:Drivers/lvgl/src/extra/themes/mono/../../../../src/hal/../draw/../misc/lv_color.h ****     c2.full = c2.full << 8 | c2.full >> 8;
 447:Drivers/lvgl/src/extra/themes/mono/../../../../src/hal/../draw/../misc/lv_color.h **** #endif
 448:Drivers/lvgl/src/extra/themes/mono/../../../../src/hal/../draw/../misc/lv_color.h ****     /*Source: https://stackoverflow.com/a/50012418/1999969*/
 449:Drivers/lvgl/src/extra/themes/mono/../../../../src/hal/../draw/../misc/lv_color.h ****     mix = (uint32_t)((uint32_t)mix + 4) >> 3;
 450:Drivers/lvgl/src/extra/themes/mono/../../../../src/hal/../draw/../misc/lv_color.h ****     uint32_t bg = (uint32_t)((uint32_t)c2.full | ((uint32_t)c2.full << 16)) &
 451:Drivers/lvgl/src/extra/themes/mono/../../../../src/hal/../draw/../misc/lv_color.h ****                   0x7E0F81F; /*0b00000111111000001111100000011111*/
 452:Drivers/lvgl/src/extra/themes/mono/../../../../src/hal/../draw/../misc/lv_color.h ****     uint32_t fg = (uint32_t)((uint32_t)c1.full | ((uint32_t)c1.full << 16)) & 0x7E0F81F;
ARM GAS  /var/folders/lp/x54gwt890xv47sdkqj1k04q40000gn/T//cc6ygGfE.s 			page 53


 453:Drivers/lvgl/src/extra/themes/mono/../../../../src/hal/../draw/../misc/lv_color.h ****     uint32_t result = ((((fg - bg) * mix) >> 5) + bg) & 0x7E0F81F;
 454:Drivers/lvgl/src/extra/themes/mono/../../../../src/hal/../draw/../misc/lv_color.h ****     ret.full = (uint16_t)((result >> 16) | result);
 455:Drivers/lvgl/src/extra/themes/mono/../../../../src/hal/../draw/../misc/lv_color.h **** #if LV_COLOR_16_SWAP == 1
 456:Drivers/lvgl/src/extra/themes/mono/../../../../src/hal/../draw/../misc/lv_color.h ****     ret.full = ret.full << 8 | ret.full >> 8;
 457:Drivers/lvgl/src/extra/themes/mono/../../../../src/hal/../draw/../misc/lv_color.h **** #endif
 458:Drivers/lvgl/src/extra/themes/mono/../../../../src/hal/../draw/../misc/lv_color.h **** #elif LV_COLOR_DEPTH != 1
 459:Drivers/lvgl/src/extra/themes/mono/../../../../src/hal/../draw/../misc/lv_color.h ****     /*LV_COLOR_DEPTH == 8, 16 or 32*/
 460:Drivers/lvgl/src/extra/themes/mono/../../../../src/hal/../draw/../misc/lv_color.h ****     LV_COLOR_SET_R(ret, LV_UDIV255((uint16_t)LV_COLOR_GET_R(c1) * mix + LV_COLOR_GET_R(c2) *
 461:Drivers/lvgl/src/extra/themes/mono/../../../../src/hal/../draw/../misc/lv_color.h ****                                    (255 - mix) + LV_COLOR_MIX_ROUND_OFS));
 462:Drivers/lvgl/src/extra/themes/mono/../../../../src/hal/../draw/../misc/lv_color.h ****     LV_COLOR_SET_G(ret, LV_UDIV255((uint16_t)LV_COLOR_GET_G(c1) * mix + LV_COLOR_GET_G(c2) *
 463:Drivers/lvgl/src/extra/themes/mono/../../../../src/hal/../draw/../misc/lv_color.h ****                                    (255 - mix) + LV_COLOR_MIX_ROUND_OFS));
 464:Drivers/lvgl/src/extra/themes/mono/../../../../src/hal/../draw/../misc/lv_color.h ****     LV_COLOR_SET_B(ret, LV_UDIV255((uint16_t)LV_COLOR_GET_B(c1) * mix + LV_COLOR_GET_B(c2) *
 465:Drivers/lvgl/src/extra/themes/mono/../../../../src/hal/../draw/../misc/lv_color.h ****                                    (255 - mix) + LV_COLOR_MIX_ROUND_OFS));
 466:Drivers/lvgl/src/extra/themes/mono/../../../../src/hal/../draw/../misc/lv_color.h ****     LV_COLOR_SET_A(ret, 0xFF);
 467:Drivers/lvgl/src/extra/themes/mono/../../../../src/hal/../draw/../misc/lv_color.h **** #else
 468:Drivers/lvgl/src/extra/themes/mono/../../../../src/hal/../draw/../misc/lv_color.h ****     /*LV_COLOR_DEPTH == 1*/
 469:Drivers/lvgl/src/extra/themes/mono/../../../../src/hal/../draw/../misc/lv_color.h ****     ret.full = mix > LV_OPA_50 ? c1.full : c2.full;
 470:Drivers/lvgl/src/extra/themes/mono/../../../../src/hal/../draw/../misc/lv_color.h **** #endif
 471:Drivers/lvgl/src/extra/themes/mono/../../../../src/hal/../draw/../misc/lv_color.h **** 
 472:Drivers/lvgl/src/extra/themes/mono/../../../../src/hal/../draw/../misc/lv_color.h ****     return ret;
 473:Drivers/lvgl/src/extra/themes/mono/../../../../src/hal/../draw/../misc/lv_color.h **** }
 474:Drivers/lvgl/src/extra/themes/mono/../../../../src/hal/../draw/../misc/lv_color.h **** 
 475:Drivers/lvgl/src/extra/themes/mono/../../../../src/hal/../draw/../misc/lv_color.h **** static inline void LV_ATTRIBUTE_FAST_MEM lv_color_premult(lv_color_t c, uint8_t mix, uint16_t * out
 476:Drivers/lvgl/src/extra/themes/mono/../../../../src/hal/../draw/../misc/lv_color.h **** {
 477:Drivers/lvgl/src/extra/themes/mono/../../../../src/hal/../draw/../misc/lv_color.h **** #if LV_COLOR_DEPTH != 1
 478:Drivers/lvgl/src/extra/themes/mono/../../../../src/hal/../draw/../misc/lv_color.h ****     out[0] = (uint16_t)LV_COLOR_GET_R(c) * mix;
 479:Drivers/lvgl/src/extra/themes/mono/../../../../src/hal/../draw/../misc/lv_color.h ****     out[1] = (uint16_t)LV_COLOR_GET_G(c) * mix;
 480:Drivers/lvgl/src/extra/themes/mono/../../../../src/hal/../draw/../misc/lv_color.h ****     out[2] = (uint16_t)LV_COLOR_GET_B(c) * mix;
 481:Drivers/lvgl/src/extra/themes/mono/../../../../src/hal/../draw/../misc/lv_color.h **** #else
 482:Drivers/lvgl/src/extra/themes/mono/../../../../src/hal/../draw/../misc/lv_color.h ****     (void) mix;
 483:Drivers/lvgl/src/extra/themes/mono/../../../../src/hal/../draw/../misc/lv_color.h ****     /*Pre-multiplication can't be used with 1 bpp*/
 484:Drivers/lvgl/src/extra/themes/mono/../../../../src/hal/../draw/../misc/lv_color.h ****     out[0] = LV_COLOR_GET_R(c);
 485:Drivers/lvgl/src/extra/themes/mono/../../../../src/hal/../draw/../misc/lv_color.h ****     out[1] = LV_COLOR_GET_G(c);
 486:Drivers/lvgl/src/extra/themes/mono/../../../../src/hal/../draw/../misc/lv_color.h ****     out[2] = LV_COLOR_GET_B(c);
 487:Drivers/lvgl/src/extra/themes/mono/../../../../src/hal/../draw/../misc/lv_color.h **** #endif
 488:Drivers/lvgl/src/extra/themes/mono/../../../../src/hal/../draw/../misc/lv_color.h **** 
 489:Drivers/lvgl/src/extra/themes/mono/../../../../src/hal/../draw/../misc/lv_color.h **** }
 490:Drivers/lvgl/src/extra/themes/mono/../../../../src/hal/../draw/../misc/lv_color.h **** 
 491:Drivers/lvgl/src/extra/themes/mono/../../../../src/hal/../draw/../misc/lv_color.h **** /**
 492:Drivers/lvgl/src/extra/themes/mono/../../../../src/hal/../draw/../misc/lv_color.h ****  * Mix two colors with a given ratio. It runs faster then `lv_color_mix` but requires some pre comp
 493:Drivers/lvgl/src/extra/themes/mono/../../../../src/hal/../draw/../misc/lv_color.h ****  * @param premult_c1 The first color. Should be preprocessed with `lv_color_premult(c1)`
 494:Drivers/lvgl/src/extra/themes/mono/../../../../src/hal/../draw/../misc/lv_color.h ****  * @param c2 The second color. As it is no pre computation required on it
 495:Drivers/lvgl/src/extra/themes/mono/../../../../src/hal/../draw/../misc/lv_color.h ****  * @param mix The ratio of the colors. 0: full `c1`, 255: full `c2`, 127: half `c1` and half `c2`.
 496:Drivers/lvgl/src/extra/themes/mono/../../../../src/hal/../draw/../misc/lv_color.h ****  *            Should be modified like mix = `255 - mix`
 497:Drivers/lvgl/src/extra/themes/mono/../../../../src/hal/../draw/../misc/lv_color.h ****  * @return the mixed color
 498:Drivers/lvgl/src/extra/themes/mono/../../../../src/hal/../draw/../misc/lv_color.h ****  * @note 255 won't give clearly `c1`.
 499:Drivers/lvgl/src/extra/themes/mono/../../../../src/hal/../draw/../misc/lv_color.h ****  */
 500:Drivers/lvgl/src/extra/themes/mono/../../../../src/hal/../draw/../misc/lv_color.h **** static inline lv_color_t LV_ATTRIBUTE_FAST_MEM lv_color_mix_premult(uint16_t * premult_c1, lv_color
 501:Drivers/lvgl/src/extra/themes/mono/../../../../src/hal/../draw/../misc/lv_color.h **** {
 502:Drivers/lvgl/src/extra/themes/mono/../../../../src/hal/../draw/../misc/lv_color.h ****     lv_color_t ret;
 503:Drivers/lvgl/src/extra/themes/mono/../../../../src/hal/../draw/../misc/lv_color.h **** #if LV_COLOR_DEPTH != 1
 504:Drivers/lvgl/src/extra/themes/mono/../../../../src/hal/../draw/../misc/lv_color.h ****     /*LV_COLOR_DEPTH == 8 or 32*/
 505:Drivers/lvgl/src/extra/themes/mono/../../../../src/hal/../draw/../misc/lv_color.h ****     LV_COLOR_SET_R(ret, LV_UDIV255(premult_c1[0] + LV_COLOR_GET_R(c2) * mix + LV_COLOR_MIX_ROUND_OF
 506:Drivers/lvgl/src/extra/themes/mono/../../../../src/hal/../draw/../misc/lv_color.h ****     LV_COLOR_SET_G(ret, LV_UDIV255(premult_c1[1] + LV_COLOR_GET_G(c2) * mix + LV_COLOR_MIX_ROUND_OF
 507:Drivers/lvgl/src/extra/themes/mono/../../../../src/hal/../draw/../misc/lv_color.h ****     LV_COLOR_SET_B(ret, LV_UDIV255(premult_c1[2] + LV_COLOR_GET_B(c2) * mix + LV_COLOR_MIX_ROUND_OF
 508:Drivers/lvgl/src/extra/themes/mono/../../../../src/hal/../draw/../misc/lv_color.h ****     LV_COLOR_SET_A(ret, 0xFF);
 509:Drivers/lvgl/src/extra/themes/mono/../../../../src/hal/../draw/../misc/lv_color.h **** #else
ARM GAS  /var/folders/lp/x54gwt890xv47sdkqj1k04q40000gn/T//cc6ygGfE.s 			page 54


 510:Drivers/lvgl/src/extra/themes/mono/../../../../src/hal/../draw/../misc/lv_color.h ****     /*LV_COLOR_DEPTH == 1*/
 511:Drivers/lvgl/src/extra/themes/mono/../../../../src/hal/../draw/../misc/lv_color.h ****     /*Restore color1*/
 512:Drivers/lvgl/src/extra/themes/mono/../../../../src/hal/../draw/../misc/lv_color.h ****     lv_color_t c1;
 513:Drivers/lvgl/src/extra/themes/mono/../../../../src/hal/../draw/../misc/lv_color.h ****     LV_COLOR_SET_R(c1, premult_c1[0]);
 514:Drivers/lvgl/src/extra/themes/mono/../../../../src/hal/../draw/../misc/lv_color.h ****     LV_COLOR_SET_G(c1, premult_c1[1]);
 515:Drivers/lvgl/src/extra/themes/mono/../../../../src/hal/../draw/../misc/lv_color.h ****     LV_COLOR_SET_B(c1, premult_c1[2]);
 516:Drivers/lvgl/src/extra/themes/mono/../../../../src/hal/../draw/../misc/lv_color.h ****     ret.full = mix > LV_OPA_50 ? c2.full : c1.full;
 517:Drivers/lvgl/src/extra/themes/mono/../../../../src/hal/../draw/../misc/lv_color.h **** #endif
 518:Drivers/lvgl/src/extra/themes/mono/../../../../src/hal/../draw/../misc/lv_color.h **** 
 519:Drivers/lvgl/src/extra/themes/mono/../../../../src/hal/../draw/../misc/lv_color.h ****     return ret;
 520:Drivers/lvgl/src/extra/themes/mono/../../../../src/hal/../draw/../misc/lv_color.h **** }
 521:Drivers/lvgl/src/extra/themes/mono/../../../../src/hal/../draw/../misc/lv_color.h **** 
 522:Drivers/lvgl/src/extra/themes/mono/../../../../src/hal/../draw/../misc/lv_color.h **** /**
 523:Drivers/lvgl/src/extra/themes/mono/../../../../src/hal/../draw/../misc/lv_color.h ****  * Mix two colors. Both color can have alpha value.
 524:Drivers/lvgl/src/extra/themes/mono/../../../../src/hal/../draw/../misc/lv_color.h ****  * @param bg_color background color
 525:Drivers/lvgl/src/extra/themes/mono/../../../../src/hal/../draw/../misc/lv_color.h ****  * @param bg_opa alpha of the background color
 526:Drivers/lvgl/src/extra/themes/mono/../../../../src/hal/../draw/../misc/lv_color.h ****  * @param fg_color foreground color
 527:Drivers/lvgl/src/extra/themes/mono/../../../../src/hal/../draw/../misc/lv_color.h ****  * @param fg_opa alpha of the foreground color
 528:Drivers/lvgl/src/extra/themes/mono/../../../../src/hal/../draw/../misc/lv_color.h ****  * @param res_color the result color
 529:Drivers/lvgl/src/extra/themes/mono/../../../../src/hal/../draw/../misc/lv_color.h ****  * @param res_opa the result opacity
 530:Drivers/lvgl/src/extra/themes/mono/../../../../src/hal/../draw/../misc/lv_color.h ****  */
 531:Drivers/lvgl/src/extra/themes/mono/../../../../src/hal/../draw/../misc/lv_color.h **** static inline void LV_ATTRIBUTE_FAST_MEM lv_color_mix_with_alpha(lv_color_t bg_color, lv_opa_t bg_o
 532:Drivers/lvgl/src/extra/themes/mono/../../../../src/hal/../draw/../misc/lv_color.h ****                                                                  lv_color_t fg_color, lv_opa_t fg_o
 533:Drivers/lvgl/src/extra/themes/mono/../../../../src/hal/../draw/../misc/lv_color.h ****                                                                  lv_color_t * res_color, lv_opa_t *
 534:Drivers/lvgl/src/extra/themes/mono/../../../../src/hal/../draw/../misc/lv_color.h **** {
 535:Drivers/lvgl/src/extra/themes/mono/../../../../src/hal/../draw/../misc/lv_color.h ****     /*Pick the foreground if it's fully opaque or the Background is fully transparent*/
 536:Drivers/lvgl/src/extra/themes/mono/../../../../src/hal/../draw/../misc/lv_color.h ****     if(fg_opa >= LV_OPA_MAX || bg_opa <= LV_OPA_MIN) {
 537:Drivers/lvgl/src/extra/themes/mono/../../../../src/hal/../draw/../misc/lv_color.h ****         res_color->full = fg_color.full;
 538:Drivers/lvgl/src/extra/themes/mono/../../../../src/hal/../draw/../misc/lv_color.h ****         *res_opa = fg_opa;
 539:Drivers/lvgl/src/extra/themes/mono/../../../../src/hal/../draw/../misc/lv_color.h ****     }
 540:Drivers/lvgl/src/extra/themes/mono/../../../../src/hal/../draw/../misc/lv_color.h ****     /*Transparent foreground: use the Background*/
 541:Drivers/lvgl/src/extra/themes/mono/../../../../src/hal/../draw/../misc/lv_color.h ****     else if(fg_opa <= LV_OPA_MIN) {
 542:Drivers/lvgl/src/extra/themes/mono/../../../../src/hal/../draw/../misc/lv_color.h ****         res_color->full = bg_color.full;
 543:Drivers/lvgl/src/extra/themes/mono/../../../../src/hal/../draw/../misc/lv_color.h ****         *res_opa = bg_opa;
 544:Drivers/lvgl/src/extra/themes/mono/../../../../src/hal/../draw/../misc/lv_color.h ****     }
 545:Drivers/lvgl/src/extra/themes/mono/../../../../src/hal/../draw/../misc/lv_color.h ****     /*Opaque background: use simple mix*/
 546:Drivers/lvgl/src/extra/themes/mono/../../../../src/hal/../draw/../misc/lv_color.h ****     else if(bg_opa >= LV_OPA_MAX) {
 547:Drivers/lvgl/src/extra/themes/mono/../../../../src/hal/../draw/../misc/lv_color.h ****         *res_color = lv_color_mix(fg_color, bg_color, fg_opa);
 548:Drivers/lvgl/src/extra/themes/mono/../../../../src/hal/../draw/../misc/lv_color.h ****         *res_opa = LV_OPA_COVER;
 549:Drivers/lvgl/src/extra/themes/mono/../../../../src/hal/../draw/../misc/lv_color.h ****     }
 550:Drivers/lvgl/src/extra/themes/mono/../../../../src/hal/../draw/../misc/lv_color.h ****     /*Both colors have alpha. Expensive calculation need to be applied*/
 551:Drivers/lvgl/src/extra/themes/mono/../../../../src/hal/../draw/../misc/lv_color.h ****     else {
 552:Drivers/lvgl/src/extra/themes/mono/../../../../src/hal/../draw/../misc/lv_color.h ****         /*Save the parameters and the result. If they will be asked again don't compute again*/
 553:Drivers/lvgl/src/extra/themes/mono/../../../../src/hal/../draw/../misc/lv_color.h ****         static lv_opa_t fg_opa_save     = 0;
 554:Drivers/lvgl/src/extra/themes/mono/../../../../src/hal/../draw/../misc/lv_color.h ****         static lv_opa_t bg_opa_save     = 0;
 555:Drivers/lvgl/src/extra/themes/mono/../../../../src/hal/../draw/../misc/lv_color.h ****         static lv_color_t fg_color_save = _LV_COLOR_ZERO_INITIALIZER;
 556:Drivers/lvgl/src/extra/themes/mono/../../../../src/hal/../draw/../misc/lv_color.h ****         static lv_color_t bg_color_save = _LV_COLOR_ZERO_INITIALIZER;
 557:Drivers/lvgl/src/extra/themes/mono/../../../../src/hal/../draw/../misc/lv_color.h ****         static lv_color_t res_color_saved = _LV_COLOR_ZERO_INITIALIZER;
 558:Drivers/lvgl/src/extra/themes/mono/../../../../src/hal/../draw/../misc/lv_color.h ****         static lv_opa_t res_opa_saved = 0;
 559:Drivers/lvgl/src/extra/themes/mono/../../../../src/hal/../draw/../misc/lv_color.h **** 
 560:Drivers/lvgl/src/extra/themes/mono/../../../../src/hal/../draw/../misc/lv_color.h ****         if(fg_opa != fg_opa_save || bg_opa != bg_opa_save || fg_color.full != fg_color_save.full ||
 561:Drivers/lvgl/src/extra/themes/mono/../../../../src/hal/../draw/../misc/lv_color.h ****            bg_color.full != bg_color_save.full) {
 562:Drivers/lvgl/src/extra/themes/mono/../../../../src/hal/../draw/../misc/lv_color.h ****             fg_opa_save        = fg_opa;
 563:Drivers/lvgl/src/extra/themes/mono/../../../../src/hal/../draw/../misc/lv_color.h ****             bg_opa_save        = bg_opa;
 564:Drivers/lvgl/src/extra/themes/mono/../../../../src/hal/../draw/../misc/lv_color.h ****             fg_color_save.full = fg_color.full;
 565:Drivers/lvgl/src/extra/themes/mono/../../../../src/hal/../draw/../misc/lv_color.h ****             bg_color_save.full = bg_color.full;
 566:Drivers/lvgl/src/extra/themes/mono/../../../../src/hal/../draw/../misc/lv_color.h ****             /*Info:
ARM GAS  /var/folders/lp/x54gwt890xv47sdkqj1k04q40000gn/T//cc6ygGfE.s 			page 55


 567:Drivers/lvgl/src/extra/themes/mono/../../../../src/hal/../draw/../misc/lv_color.h ****              * https://en.wikipedia.org/wiki/Alpha_compositing#Analytical_derivation_of_the_over_op
 568:Drivers/lvgl/src/extra/themes/mono/../../../../src/hal/../draw/../misc/lv_color.h ****             res_opa_saved = 255 - ((uint16_t)((uint16_t)(255 - fg_opa) * (255 - bg_opa)) >> 8);
 569:Drivers/lvgl/src/extra/themes/mono/../../../../src/hal/../draw/../misc/lv_color.h ****             LV_ASSERT(res_opa_saved != 0);
 570:Drivers/lvgl/src/extra/themes/mono/../../../../src/hal/../draw/../misc/lv_color.h ****             lv_opa_t ratio = (uint16_t)((uint16_t)fg_opa * 255) / res_opa_saved;
 571:Drivers/lvgl/src/extra/themes/mono/../../../../src/hal/../draw/../misc/lv_color.h ****             res_color_saved = lv_color_mix(fg_color, bg_color, ratio);
 572:Drivers/lvgl/src/extra/themes/mono/../../../../src/hal/../draw/../misc/lv_color.h **** 
 573:Drivers/lvgl/src/extra/themes/mono/../../../../src/hal/../draw/../misc/lv_color.h ****         }
 574:Drivers/lvgl/src/extra/themes/mono/../../../../src/hal/../draw/../misc/lv_color.h **** 
 575:Drivers/lvgl/src/extra/themes/mono/../../../../src/hal/../draw/../misc/lv_color.h ****         res_color->full = res_color_saved.full;
 576:Drivers/lvgl/src/extra/themes/mono/../../../../src/hal/../draw/../misc/lv_color.h ****         *res_opa = res_opa_saved;
 577:Drivers/lvgl/src/extra/themes/mono/../../../../src/hal/../draw/../misc/lv_color.h ****     }
 578:Drivers/lvgl/src/extra/themes/mono/../../../../src/hal/../draw/../misc/lv_color.h **** }
 579:Drivers/lvgl/src/extra/themes/mono/../../../../src/hal/../draw/../misc/lv_color.h **** 
 580:Drivers/lvgl/src/extra/themes/mono/../../../../src/hal/../draw/../misc/lv_color.h **** //! @endcond
 581:Drivers/lvgl/src/extra/themes/mono/../../../../src/hal/../draw/../misc/lv_color.h **** 
 582:Drivers/lvgl/src/extra/themes/mono/../../../../src/hal/../draw/../misc/lv_color.h **** /**
 583:Drivers/lvgl/src/extra/themes/mono/../../../../src/hal/../draw/../misc/lv_color.h ****  * Get the brightness of a color
 584:Drivers/lvgl/src/extra/themes/mono/../../../../src/hal/../draw/../misc/lv_color.h ****  * @param color a color
 585:Drivers/lvgl/src/extra/themes/mono/../../../../src/hal/../draw/../misc/lv_color.h ****  * @return the brightness [0..255]
 586:Drivers/lvgl/src/extra/themes/mono/../../../../src/hal/../draw/../misc/lv_color.h ****  */
 587:Drivers/lvgl/src/extra/themes/mono/../../../../src/hal/../draw/../misc/lv_color.h **** static inline uint8_t lv_color_brightness(lv_color_t color)
 588:Drivers/lvgl/src/extra/themes/mono/../../../../src/hal/../draw/../misc/lv_color.h **** {
 589:Drivers/lvgl/src/extra/themes/mono/../../../../src/hal/../draw/../misc/lv_color.h ****     lv_color32_t c32;
 590:Drivers/lvgl/src/extra/themes/mono/../../../../src/hal/../draw/../misc/lv_color.h ****     c32.full        = lv_color_to32(color);
 591:Drivers/lvgl/src/extra/themes/mono/../../../../src/hal/../draw/../misc/lv_color.h ****     uint16_t bright = (uint16_t)(3u * LV_COLOR_GET_R32(c32) + LV_COLOR_GET_B32(c32) + 4u * LV_COLOR
 592:Drivers/lvgl/src/extra/themes/mono/../../../../src/hal/../draw/../misc/lv_color.h ****     return (uint8_t)(bright >> 3);
 593:Drivers/lvgl/src/extra/themes/mono/../../../../src/hal/../draw/../misc/lv_color.h **** }
 594:Drivers/lvgl/src/extra/themes/mono/../../../../src/hal/../draw/../misc/lv_color.h **** 
 595:Drivers/lvgl/src/extra/themes/mono/../../../../src/hal/../draw/../misc/lv_color.h **** static inline lv_color_t lv_color_make(uint8_t r, uint8_t g, uint8_t b)
 596:Drivers/lvgl/src/extra/themes/mono/../../../../src/hal/../draw/../misc/lv_color.h **** {
 597:Drivers/lvgl/src/extra/themes/mono/../../../../src/hal/../draw/../misc/lv_color.h ****     return _LV_COLOR_MAKE_TYPE_HELPER LV_COLOR_MAKE(r, g, b);
 598:Drivers/lvgl/src/extra/themes/mono/../../../../src/hal/../draw/../misc/lv_color.h **** }
 599:Drivers/lvgl/src/extra/themes/mono/../../../../src/hal/../draw/../misc/lv_color.h **** 
 600:Drivers/lvgl/src/extra/themes/mono/../../../../src/hal/../draw/../misc/lv_color.h **** static inline lv_color_t lv_color_hex(uint32_t c)
 601:Drivers/lvgl/src/extra/themes/mono/../../../../src/hal/../draw/../misc/lv_color.h **** {
 602:Drivers/lvgl/src/extra/themes/mono/../../../../src/hal/../draw/../misc/lv_color.h **** #if LV_COLOR_DEPTH == 16
 603:Drivers/lvgl/src/extra/themes/mono/../../../../src/hal/../draw/../misc/lv_color.h ****     lv_color_t r;
 604:Drivers/lvgl/src/extra/themes/mono/../../../../src/hal/../draw/../misc/lv_color.h **** #if LV_COLOR_16_SWAP == 0
 605:Drivers/lvgl/src/extra/themes/mono/../../../../src/hal/../draw/../misc/lv_color.h ****     /* Convert a 4 bytes per pixel in format ARGB32 to R5G6B5 format
 606:Drivers/lvgl/src/extra/themes/mono/../../../../src/hal/../draw/../misc/lv_color.h ****         naive way (by calling lv_color_make with components):
 607:Drivers/lvgl/src/extra/themes/mono/../../../../src/hal/../draw/../misc/lv_color.h ****                     r = ((c & 0xFF0000) >> 19)
 608:Drivers/lvgl/src/extra/themes/mono/../../../../src/hal/../draw/../misc/lv_color.h ****                     g = ((c & 0xFF00) >> 10)
 609:Drivers/lvgl/src/extra/themes/mono/../../../../src/hal/../draw/../misc/lv_color.h ****                     b = ((c & 0xFF) >> 3)
 610:Drivers/lvgl/src/extra/themes/mono/../../../../src/hal/../draw/../misc/lv_color.h ****                     rgb565 = (r << 11) | (g << 5) | b
 611:Drivers/lvgl/src/extra/themes/mono/../../../../src/hal/../draw/../misc/lv_color.h ****         That's 3 mask, 5 bitshift and 2 or operations
 612:Drivers/lvgl/src/extra/themes/mono/../../../../src/hal/../draw/../misc/lv_color.h **** 
 613:Drivers/lvgl/src/extra/themes/mono/../../../../src/hal/../draw/../misc/lv_color.h ****         A bit better:
 614:Drivers/lvgl/src/extra/themes/mono/../../../../src/hal/../draw/../misc/lv_color.h ****                     r = ((c & 0xF80000) >> 8)
 615:Drivers/lvgl/src/extra/themes/mono/../../../../src/hal/../draw/../misc/lv_color.h ****                     g = ((c & 0xFC00) >> 5)
 616:Drivers/lvgl/src/extra/themes/mono/../../../../src/hal/../draw/../misc/lv_color.h ****                     b = ((c & 0xFF) >> 3)
 617:Drivers/lvgl/src/extra/themes/mono/../../../../src/hal/../draw/../misc/lv_color.h ****                     rgb565 = r | g | b
 618:Drivers/lvgl/src/extra/themes/mono/../../../../src/hal/../draw/../misc/lv_color.h ****         That's 3 mask, 3 bitshifts and 2 or operations */
 619:Drivers/lvgl/src/extra/themes/mono/../../../../src/hal/../draw/../misc/lv_color.h ****     r.full = (uint16_t)(((c & 0xF80000) >> 8) | ((c & 0xFC00) >> 5) | ((c & 0xFF) >> 3));
 620:Drivers/lvgl/src/extra/themes/mono/../../../../src/hal/../draw/../misc/lv_color.h **** #else
 621:Drivers/lvgl/src/extra/themes/mono/../../../../src/hal/../draw/../misc/lv_color.h ****     /* We want: rrrr rrrr GGGg gggg bbbb bbbb => gggb bbbb rrrr rGGG */
 622:Drivers/lvgl/src/extra/themes/mono/../../../../src/hal/../draw/../misc/lv_color.h ****     r.full = (uint16_t)(((c & 0xF80000) >> 16) | ((c & 0xFC00) >> 13) | ((c & 0x1C00) << 3) | ((c &
 623:Drivers/lvgl/src/extra/themes/mono/../../../../src/hal/../draw/../misc/lv_color.h **** #endif
ARM GAS  /var/folders/lp/x54gwt890xv47sdkqj1k04q40000gn/T//cc6ygGfE.s 			page 56


 624:Drivers/lvgl/src/extra/themes/mono/../../../../src/hal/../draw/../misc/lv_color.h ****     return r;
 625:Drivers/lvgl/src/extra/themes/mono/../../../../src/hal/../draw/../misc/lv_color.h **** #elif LV_COLOR_DEPTH == 32
 626:Drivers/lvgl/src/extra/themes/mono/../../../../src/hal/../draw/../misc/lv_color.h ****     lv_color_t r;
 627:Drivers/lvgl/src/extra/themes/mono/../../../../src/hal/../draw/../misc/lv_color.h ****     r.full = c | 0xFF000000;
 628:Drivers/lvgl/src/extra/themes/mono/../../../../src/hal/../draw/../misc/lv_color.h ****     return r;
 629:Drivers/lvgl/src/extra/themes/mono/../../../../src/hal/../draw/../misc/lv_color.h **** #else /*LV_COLOR_DEPTH == 8*/
 630:Drivers/lvgl/src/extra/themes/mono/../../../../src/hal/../draw/../misc/lv_color.h ****     return lv_color_make((uint8_t)((c >> 16) & 0xFF), (uint8_t)((c >> 8) & 0xFF), (uint8_t)(c & 0xF
 631:Drivers/lvgl/src/extra/themes/mono/../../../../src/hal/../draw/../misc/lv_color.h **** #endif
 632:Drivers/lvgl/src/extra/themes/mono/../../../../src/hal/../draw/../misc/lv_color.h **** }
 633:Drivers/lvgl/src/extra/themes/mono/../../../../src/hal/../draw/../misc/lv_color.h **** 
 634:Drivers/lvgl/src/extra/themes/mono/../../../../src/hal/../draw/../misc/lv_color.h **** static inline lv_color_t lv_color_hex3(uint32_t c)
 635:Drivers/lvgl/src/extra/themes/mono/../../../../src/hal/../draw/../misc/lv_color.h **** {
 636:Drivers/lvgl/src/extra/themes/mono/../../../../src/hal/../draw/../misc/lv_color.h ****     return lv_color_make((uint8_t)(((c >> 4) & 0xF0) | ((c >> 8) & 0xF)), (uint8_t)((c & 0xF0) | ((
 637:Drivers/lvgl/src/extra/themes/mono/../../../../src/hal/../draw/../misc/lv_color.h ****                          (uint8_t)((c & 0xF) | ((c & 0xF) << 4)));
 638:Drivers/lvgl/src/extra/themes/mono/../../../../src/hal/../draw/../misc/lv_color.h **** }
 639:Drivers/lvgl/src/extra/themes/mono/../../../../src/hal/../draw/../misc/lv_color.h **** 
 640:Drivers/lvgl/src/extra/themes/mono/../../../../src/hal/../draw/../misc/lv_color.h **** static inline void lv_color_filter_dsc_init(lv_color_filter_dsc_t * dsc, lv_color_filter_cb_t cb)
 641:Drivers/lvgl/src/extra/themes/mono/../../../../src/hal/../draw/../misc/lv_color.h **** {
 642:Drivers/lvgl/src/extra/themes/mono/../../../../src/hal/../draw/../misc/lv_color.h ****     dsc->filter_cb = cb;
 643:Drivers/lvgl/src/extra/themes/mono/../../../../src/hal/../draw/../misc/lv_color.h **** }
 644:Drivers/lvgl/src/extra/themes/mono/../../../../src/hal/../draw/../misc/lv_color.h **** 
 645:Drivers/lvgl/src/extra/themes/mono/../../../../src/hal/../draw/../misc/lv_color.h **** //! @cond Doxygen_Suppress
 646:Drivers/lvgl/src/extra/themes/mono/../../../../src/hal/../draw/../misc/lv_color.h **** //!
 647:Drivers/lvgl/src/extra/themes/mono/../../../../src/hal/../draw/../misc/lv_color.h **** void /* LV_ATTRIBUTE_FAST_MEM */ lv_color_fill(lv_color_t * buf, lv_color_t color, uint32_t px_num)
 648:Drivers/lvgl/src/extra/themes/mono/../../../../src/hal/../draw/../misc/lv_color.h **** 
 649:Drivers/lvgl/src/extra/themes/mono/../../../../src/hal/../draw/../misc/lv_color.h **** //! @endcond
 650:Drivers/lvgl/src/extra/themes/mono/../../../../src/hal/../draw/../misc/lv_color.h **** lv_color_t lv_color_lighten(lv_color_t c, lv_opa_t lvl);
 651:Drivers/lvgl/src/extra/themes/mono/../../../../src/hal/../draw/../misc/lv_color.h **** 
 652:Drivers/lvgl/src/extra/themes/mono/../../../../src/hal/../draw/../misc/lv_color.h **** lv_color_t lv_color_darken(lv_color_t c, lv_opa_t lvl);
 653:Drivers/lvgl/src/extra/themes/mono/../../../../src/hal/../draw/../misc/lv_color.h **** 
 654:Drivers/lvgl/src/extra/themes/mono/../../../../src/hal/../draw/../misc/lv_color.h **** lv_color_t lv_color_change_lightness(lv_color_t c, lv_opa_t lvl);
 655:Drivers/lvgl/src/extra/themes/mono/../../../../src/hal/../draw/../misc/lv_color.h **** 
 656:Drivers/lvgl/src/extra/themes/mono/../../../../src/hal/../draw/../misc/lv_color.h **** /**
 657:Drivers/lvgl/src/extra/themes/mono/../../../../src/hal/../draw/../misc/lv_color.h ****  * Convert a HSV color to RGB
 658:Drivers/lvgl/src/extra/themes/mono/../../../../src/hal/../draw/../misc/lv_color.h ****  * @param h hue [0..359]
 659:Drivers/lvgl/src/extra/themes/mono/../../../../src/hal/../draw/../misc/lv_color.h ****  * @param s saturation [0..100]
 660:Drivers/lvgl/src/extra/themes/mono/../../../../src/hal/../draw/../misc/lv_color.h ****  * @param v value [0..100]
 661:Drivers/lvgl/src/extra/themes/mono/../../../../src/hal/../draw/../misc/lv_color.h ****  * @return the given RGB color in RGB (with LV_COLOR_DEPTH depth)
 662:Drivers/lvgl/src/extra/themes/mono/../../../../src/hal/../draw/../misc/lv_color.h ****  */
 663:Drivers/lvgl/src/extra/themes/mono/../../../../src/hal/../draw/../misc/lv_color.h **** lv_color_t lv_color_hsv_to_rgb(uint16_t h, uint8_t s, uint8_t v);
 664:Drivers/lvgl/src/extra/themes/mono/../../../../src/hal/../draw/../misc/lv_color.h **** 
 665:Drivers/lvgl/src/extra/themes/mono/../../../../src/hal/../draw/../misc/lv_color.h **** /**
 666:Drivers/lvgl/src/extra/themes/mono/../../../../src/hal/../draw/../misc/lv_color.h ****  * Convert a 32-bit RGB color to HSV
 667:Drivers/lvgl/src/extra/themes/mono/../../../../src/hal/../draw/../misc/lv_color.h ****  * @param r8 8-bit red
 668:Drivers/lvgl/src/extra/themes/mono/../../../../src/hal/../draw/../misc/lv_color.h ****  * @param g8 8-bit green
 669:Drivers/lvgl/src/extra/themes/mono/../../../../src/hal/../draw/../misc/lv_color.h ****  * @param b8 8-bit blue
 670:Drivers/lvgl/src/extra/themes/mono/../../../../src/hal/../draw/../misc/lv_color.h ****  * @return the given RGB color in HSV
 671:Drivers/lvgl/src/extra/themes/mono/../../../../src/hal/../draw/../misc/lv_color.h ****  */
 672:Drivers/lvgl/src/extra/themes/mono/../../../../src/hal/../draw/../misc/lv_color.h **** lv_color_hsv_t lv_color_rgb_to_hsv(uint8_t r8, uint8_t g8, uint8_t b8);
 673:Drivers/lvgl/src/extra/themes/mono/../../../../src/hal/../draw/../misc/lv_color.h **** 
 674:Drivers/lvgl/src/extra/themes/mono/../../../../src/hal/../draw/../misc/lv_color.h **** /**
 675:Drivers/lvgl/src/extra/themes/mono/../../../../src/hal/../draw/../misc/lv_color.h ****  * Convert a color to HSV
 676:Drivers/lvgl/src/extra/themes/mono/../../../../src/hal/../draw/../misc/lv_color.h ****  * @param color color
 677:Drivers/lvgl/src/extra/themes/mono/../../../../src/hal/../draw/../misc/lv_color.h ****  * @return the given color in HSV
 678:Drivers/lvgl/src/extra/themes/mono/../../../../src/hal/../draw/../misc/lv_color.h ****  */
 679:Drivers/lvgl/src/extra/themes/mono/../../../../src/hal/../draw/../misc/lv_color.h **** lv_color_hsv_t lv_color_to_hsv(lv_color_t color);
 680:Drivers/lvgl/src/extra/themes/mono/../../../../src/hal/../draw/../misc/lv_color.h **** 
ARM GAS  /var/folders/lp/x54gwt890xv47sdkqj1k04q40000gn/T//cc6ygGfE.s 			page 57


 681:Drivers/lvgl/src/extra/themes/mono/../../../../src/hal/../draw/../misc/lv_color.h **** /**
 682:Drivers/lvgl/src/extra/themes/mono/../../../../src/hal/../draw/../misc/lv_color.h ****  * Just a wrapper around LV_COLOR_CHROMA_KEY because it might be more convenient to use a function 
 683:Drivers/lvgl/src/extra/themes/mono/../../../../src/hal/../draw/../misc/lv_color.h ****  * @return LV_COLOR_CHROMA_KEY
 684:Drivers/lvgl/src/extra/themes/mono/../../../../src/hal/../draw/../misc/lv_color.h ****  */
 685:Drivers/lvgl/src/extra/themes/mono/../../../../src/hal/../draw/../misc/lv_color.h **** static inline lv_color_t lv_color_chroma_key(void)
 686:Drivers/lvgl/src/extra/themes/mono/../../../../src/hal/../draw/../misc/lv_color.h **** {
 687:Drivers/lvgl/src/extra/themes/mono/../../../../src/hal/../draw/../misc/lv_color.h ****     return LV_COLOR_CHROMA_KEY;
 688:Drivers/lvgl/src/extra/themes/mono/../../../../src/hal/../draw/../misc/lv_color.h **** }
 689:Drivers/lvgl/src/extra/themes/mono/../../../../src/hal/../draw/../misc/lv_color.h **** 
 690:Drivers/lvgl/src/extra/themes/mono/../../../../src/hal/../draw/../misc/lv_color.h **** /**********************
 691:Drivers/lvgl/src/extra/themes/mono/../../../../src/hal/../draw/../misc/lv_color.h ****  *  PREDEFINED COLORS
 692:Drivers/lvgl/src/extra/themes/mono/../../../../src/hal/../draw/../misc/lv_color.h ****  **********************/
 693:Drivers/lvgl/src/extra/themes/mono/../../../../src/hal/../draw/../misc/lv_color.h **** /*Source: https://vuetifyjs.com/en/styles/colors/#material-colors*/
 694:Drivers/lvgl/src/extra/themes/mono/../../../../src/hal/../draw/../misc/lv_color.h **** 
 695:Drivers/lvgl/src/extra/themes/mono/../../../../src/hal/../draw/../misc/lv_color.h **** lv_color_t lv_palette_main(lv_palette_t p);
 696:Drivers/lvgl/src/extra/themes/mono/../../../../src/hal/../draw/../misc/lv_color.h **** static inline lv_color_t lv_color_white(void)
 1693              		.loc 2 696 26 view .LVU367
 1694              	.LBB196:
 697:Drivers/lvgl/src/extra/themes/mono/../../../../src/hal/../draw/../misc/lv_color.h **** {
 698:Drivers/lvgl/src/extra/themes/mono/../../../../src/hal/../draw/../misc/lv_color.h ****     return lv_color_make(0xff, 0xff, 0xff);
 1695              		.loc 2 698 5 view .LVU368
 1696              	.L82:
 1697 009e 4FF00001 		mov	r1, #0	@ movhi
 1698 00a2 67F30201 		bfi	r1, r7, #0, #3
 1699 00a6 68F3C701 		bfi	r1, r8, #3, #5
 1700 00aa 68F30C21 		bfi	r1, r8, #8, #5
 1701 00ae 67F34F31 		bfi	r1, r7, #13, #3
 1702              	.LBE196:
 1703              	.LBE195:
  87:Drivers/lvgl/src/extra/themes/mono/lv_theme_mono.c ****     lv_style_set_pad_row(&styles->scr, PAD_DEF);
 1704              		.loc 1 87 5 is_stmt 0 discriminator 4 view .LVU369
 1705 00b2 FFF7FEFF 		bl	lv_style_set_text_color
 1706              	.LVL172:
  88:Drivers/lvgl/src/extra/themes/mono/lv_theme_mono.c ****     lv_style_set_pad_column(&styles->scr, PAD_DEF);
 1707              		.loc 1 88 5 is_stmt 1 view .LVU370
 1708 00b6 2068     		ldr	r0, [r4]
 1709 00b8 0421     		movs	r1, #4
 1710 00ba FFF7FEFF 		bl	lv_style_set_pad_row
 1711              	.LVL173:
  89:Drivers/lvgl/src/extra/themes/mono/lv_theme_mono.c ****     lv_style_set_text_font(&styles->scr, font);
 1712              		.loc 1 89 5 view .LVU371
 1713 00be 2068     		ldr	r0, [r4]
 1714 00c0 0421     		movs	r1, #4
 1715 00c2 FFF7FEFF 		bl	lv_style_set_pad_column
 1716              	.LVL174:
  90:Drivers/lvgl/src/extra/themes/mono/lv_theme_mono.c **** 
 1717              		.loc 1 90 5 view .LVU372
 1718 00c6 2068     		ldr	r0, [r4]
 1719 00c8 5946     		mov	r1, fp
 1720 00ca FFF7FEFF 		bl	lv_style_set_text_font
 1721              	.LVL175:
  92:Drivers/lvgl/src/extra/themes/mono/lv_theme_mono.c ****     lv_style_set_bg_opa(&styles->card, LV_OPA_COVER);
 1722              		.loc 1 92 5 view .LVU373
 1723 00ce 2068     		ldr	r0, [r4]
 1724              	.LBB197:
 1725              	.LBB198:
 496:Drivers/lvgl/src/extra/themes/mono/lv_theme_mono.c ****         lv_style_reset(style);
ARM GAS  /var/folders/lp/x54gwt890xv47sdkqj1k04q40000gn/T//cc6ygGfE.s 			page 58


 1726              		.loc 1 496 7 is_stmt 0 view .LVU374
 1727 00d0 2B78     		ldrb	r3, [r5]	@ zero_extendqisi2
 1728              	.LBE198:
 1729              	.LBE197:
  92:Drivers/lvgl/src/extra/themes/mono/lv_theme_mono.c ****     lv_style_set_bg_opa(&styles->card, LV_OPA_COVER);
 1730              		.loc 1 92 5 view .LVU375
 1731 00d2 0830     		adds	r0, r0, #8
 1732              	.LVL176:
 1733              	.LBB201:
 1734              	.LBI197:
 494:Drivers/lvgl/src/extra/themes/mono/lv_theme_mono.c **** {
 1735              		.loc 1 494 13 is_stmt 1 view .LVU376
 1736              	.LBB199:
 496:Drivers/lvgl/src/extra/themes/mono/lv_theme_mono.c ****         lv_style_reset(style);
 1737              		.loc 1 496 5 view .LVU377
 496:Drivers/lvgl/src/extra/themes/mono/lv_theme_mono.c ****         lv_style_reset(style);
 1738              		.loc 1 496 7 is_stmt 0 view .LVU378
 1739 00d4 002B     		cmp	r3, #0
 1740 00d6 00F01882 		beq	.L83
 1741              		.loc 1 497 9 is_stmt 1 view .LVU379
 1742 00da FFF7FEFF 		bl	lv_style_reset
 1743              	.LVL177:
 1744              	.L84:
 1745              		.loc 1 497 9 is_stmt 0 view .LVU380
 1746              	.LBE199:
 1747              	.LBE201:
  93:Drivers/lvgl/src/extra/themes/mono/lv_theme_mono.c ****     lv_style_set_bg_color(&styles->card, COLOR_BG);
 1748              		.loc 1 93 5 is_stmt 1 view .LVU381
 1749 00de 2068     		ldr	r0, [r4]
 1750 00e0 FF21     		movs	r1, #255
 1751 00e2 0830     		adds	r0, r0, #8
 1752 00e4 FFF7FEFF 		bl	lv_style_set_bg_opa
 1753              	.LVL178:
  94:Drivers/lvgl/src/extra/themes/mono/lv_theme_mono.c ****     lv_style_set_border_color(&styles->card, COLOR_FG);
 1754              		.loc 1 94 5 view .LVU382
 1755 00e8 2068     		ldr	r0, [r4]
 1756 00ea 0830     		adds	r0, r0, #8
 1757 00ec 002E     		cmp	r6, #0
 1758 00ee 00F00582 		beq	.L85
  94:Drivers/lvgl/src/extra/themes/mono/lv_theme_mono.c ****     lv_style_set_border_color(&styles->card, COLOR_FG);
 1759              		.loc 1 94 5 is_stmt 0 discriminator 4 view .LVU383
 1760 00f2 4FF00001 		mov	r1, #0	@ movhi
 1761 00f6 FFF7FEFF 		bl	lv_style_set_bg_color
 1762              	.LVL179:
  95:Drivers/lvgl/src/extra/themes/mono/lv_theme_mono.c ****     lv_style_set_radius(&styles->card, 2);
 1763              		.loc 1 95 5 is_stmt 1 view .LVU384
 1764 00fa 2068     		ldr	r0, [r4]
 1765 00fc 0830     		adds	r0, r0, #8
 1766              	.LBB202:
 1767              	.LBI202:
 696:Drivers/lvgl/src/extra/themes/mono/../../../../src/hal/../draw/../misc/lv_color.h **** {
 1768              		.loc 2 696 26 view .LVU385
 1769              	.LBB203:
 1770              		.loc 2 698 5 view .LVU386
 1771              	.L86:
 1772 00fe 4FF00001 		mov	r1, #0	@ movhi
 1773 0102 67F30201 		bfi	r1, r7, #0, #3
ARM GAS  /var/folders/lp/x54gwt890xv47sdkqj1k04q40000gn/T//cc6ygGfE.s 			page 59


 1774 0106 68F3C701 		bfi	r1, r8, #3, #5
 1775 010a 68F30C21 		bfi	r1, r8, #8, #5
 1776 010e 67F34F31 		bfi	r1, r7, #13, #3
 1777              	.LBE203:
 1778              	.LBE202:
  95:Drivers/lvgl/src/extra/themes/mono/lv_theme_mono.c ****     lv_style_set_radius(&styles->card, 2);
 1779              		.loc 1 95 5 is_stmt 0 discriminator 4 view .LVU387
 1780 0112 FFF7FEFF 		bl	lv_style_set_border_color
 1781              	.LVL180:
  96:Drivers/lvgl/src/extra/themes/mono/lv_theme_mono.c ****     lv_style_set_border_width(&styles->card, BORDER_W_NORMAL);
 1782              		.loc 1 96 5 is_stmt 1 view .LVU388
 1783 0116 2068     		ldr	r0, [r4]
 1784 0118 0221     		movs	r1, #2
 1785 011a 0830     		adds	r0, r0, #8
 1786 011c FFF7FEFF 		bl	lv_style_set_radius
 1787              	.LVL181:
  97:Drivers/lvgl/src/extra/themes/mono/lv_theme_mono.c ****     lv_style_set_pad_all(&styles->card, PAD_DEF);
 1788              		.loc 1 97 5 view .LVU389
 1789 0120 2068     		ldr	r0, [r4]
 1790 0122 0121     		movs	r1, #1
 1791 0124 0830     		adds	r0, r0, #8
 1792 0126 FFF7FEFF 		bl	lv_style_set_border_width
 1793              	.LVL182:
  98:Drivers/lvgl/src/extra/themes/mono/lv_theme_mono.c ****     lv_style_set_pad_gap(&styles->card, PAD_DEF);
 1794              		.loc 1 98 5 view .LVU390
 1795 012a 2368     		ldr	r3, [r4]
 1796 012c 03F1080B 		add	fp, r3, #8
 1797              	.LVL183:
 1798              	.LBB204:
 1799              	.LBI204:
 1800              		.file 3 "Drivers/lvgl/src/extra/themes/mono/../../../../src/hal/../draw/../misc/lv_style.h"
   1:Drivers/lvgl/src/extra/themes/mono/../../../../src/hal/../draw/../misc/lv_style.h **** /**
   2:Drivers/lvgl/src/extra/themes/mono/../../../../src/hal/../draw/../misc/lv_style.h ****  * @file lv_style.h
   3:Drivers/lvgl/src/extra/themes/mono/../../../../src/hal/../draw/../misc/lv_style.h ****  *
   4:Drivers/lvgl/src/extra/themes/mono/../../../../src/hal/../draw/../misc/lv_style.h ****  */
   5:Drivers/lvgl/src/extra/themes/mono/../../../../src/hal/../draw/../misc/lv_style.h **** 
   6:Drivers/lvgl/src/extra/themes/mono/../../../../src/hal/../draw/../misc/lv_style.h **** #ifndef LV_STYLE_H
   7:Drivers/lvgl/src/extra/themes/mono/../../../../src/hal/../draw/../misc/lv_style.h **** #define LV_STYLE_H
   8:Drivers/lvgl/src/extra/themes/mono/../../../../src/hal/../draw/../misc/lv_style.h **** 
   9:Drivers/lvgl/src/extra/themes/mono/../../../../src/hal/../draw/../misc/lv_style.h **** #ifdef __cplusplus
  10:Drivers/lvgl/src/extra/themes/mono/../../../../src/hal/../draw/../misc/lv_style.h **** extern "C" {
  11:Drivers/lvgl/src/extra/themes/mono/../../../../src/hal/../draw/../misc/lv_style.h **** #endif
  12:Drivers/lvgl/src/extra/themes/mono/../../../../src/hal/../draw/../misc/lv_style.h **** 
  13:Drivers/lvgl/src/extra/themes/mono/../../../../src/hal/../draw/../misc/lv_style.h **** /*********************
  14:Drivers/lvgl/src/extra/themes/mono/../../../../src/hal/../draw/../misc/lv_style.h ****  *      INCLUDES
  15:Drivers/lvgl/src/extra/themes/mono/../../../../src/hal/../draw/../misc/lv_style.h ****  *********************/
  16:Drivers/lvgl/src/extra/themes/mono/../../../../src/hal/../draw/../misc/lv_style.h **** #include <stdbool.h>
  17:Drivers/lvgl/src/extra/themes/mono/../../../../src/hal/../draw/../misc/lv_style.h **** #include <stdint.h>
  18:Drivers/lvgl/src/extra/themes/mono/../../../../src/hal/../draw/../misc/lv_style.h **** #include "../font/lv_font.h"
  19:Drivers/lvgl/src/extra/themes/mono/../../../../src/hal/../draw/../misc/lv_style.h **** #include "lv_color.h"
  20:Drivers/lvgl/src/extra/themes/mono/../../../../src/hal/../draw/../misc/lv_style.h **** #include "lv_area.h"
  21:Drivers/lvgl/src/extra/themes/mono/../../../../src/hal/../draw/../misc/lv_style.h **** #include "lv_anim.h"
  22:Drivers/lvgl/src/extra/themes/mono/../../../../src/hal/../draw/../misc/lv_style.h **** #include "lv_txt.h"
  23:Drivers/lvgl/src/extra/themes/mono/../../../../src/hal/../draw/../misc/lv_style.h **** #include "lv_types.h"
  24:Drivers/lvgl/src/extra/themes/mono/../../../../src/hal/../draw/../misc/lv_style.h **** #include "lv_assert.h"
  25:Drivers/lvgl/src/extra/themes/mono/../../../../src/hal/../draw/../misc/lv_style.h **** #include "lv_bidi.h"
  26:Drivers/lvgl/src/extra/themes/mono/../../../../src/hal/../draw/../misc/lv_style.h **** 
ARM GAS  /var/folders/lp/x54gwt890xv47sdkqj1k04q40000gn/T//cc6ygGfE.s 			page 60


  27:Drivers/lvgl/src/extra/themes/mono/../../../../src/hal/../draw/../misc/lv_style.h **** /*********************
  28:Drivers/lvgl/src/extra/themes/mono/../../../../src/hal/../draw/../misc/lv_style.h ****  *      DEFINES
  29:Drivers/lvgl/src/extra/themes/mono/../../../../src/hal/../draw/../misc/lv_style.h ****  *********************/
  30:Drivers/lvgl/src/extra/themes/mono/../../../../src/hal/../draw/../misc/lv_style.h **** 
  31:Drivers/lvgl/src/extra/themes/mono/../../../../src/hal/../draw/../misc/lv_style.h **** #define LV_STYLE_SENTINEL_VALUE     0xAABBCCDD
  32:Drivers/lvgl/src/extra/themes/mono/../../../../src/hal/../draw/../misc/lv_style.h **** 
  33:Drivers/lvgl/src/extra/themes/mono/../../../../src/hal/../draw/../misc/lv_style.h **** /**
  34:Drivers/lvgl/src/extra/themes/mono/../../../../src/hal/../draw/../misc/lv_style.h ****  * Flags for style behavior
  35:Drivers/lvgl/src/extra/themes/mono/../../../../src/hal/../draw/../misc/lv_style.h ****  *
  36:Drivers/lvgl/src/extra/themes/mono/../../../../src/hal/../draw/../misc/lv_style.h ****  * The rest of the flags will have _FLAG added to their name in v9.
  37:Drivers/lvgl/src/extra/themes/mono/../../../../src/hal/../draw/../misc/lv_style.h ****  */
  38:Drivers/lvgl/src/extra/themes/mono/../../../../src/hal/../draw/../misc/lv_style.h **** #define LV_STYLE_PROP_FLAG_NONE             (0)
  39:Drivers/lvgl/src/extra/themes/mono/../../../../src/hal/../draw/../misc/lv_style.h **** #define LV_STYLE_PROP_INHERIT               (1 << 0)  /*Inherited*/
  40:Drivers/lvgl/src/extra/themes/mono/../../../../src/hal/../draw/../misc/lv_style.h **** #define LV_STYLE_PROP_EXT_DRAW              (1 << 1)  /*Requires ext. draw size update when changed
  41:Drivers/lvgl/src/extra/themes/mono/../../../../src/hal/../draw/../misc/lv_style.h **** #define LV_STYLE_PROP_LAYOUT_REFR           (1 << 2)  /*Requires layout update when changed*/
  42:Drivers/lvgl/src/extra/themes/mono/../../../../src/hal/../draw/../misc/lv_style.h **** #define LV_STYLE_PROP_PARENT_LAYOUT_REFR    (1 << 3)  /*Requires layout update on parent when chang
  43:Drivers/lvgl/src/extra/themes/mono/../../../../src/hal/../draw/../misc/lv_style.h **** #define LV_STYLE_PROP_LAYER_REFR            (1 << 4)  /*Affects layer handling*/
  44:Drivers/lvgl/src/extra/themes/mono/../../../../src/hal/../draw/../misc/lv_style.h **** #define LV_STYLE_PROP_ALL                   (0x1F)     /*Indicating all flags*/
  45:Drivers/lvgl/src/extra/themes/mono/../../../../src/hal/../draw/../misc/lv_style.h **** 
  46:Drivers/lvgl/src/extra/themes/mono/../../../../src/hal/../draw/../misc/lv_style.h **** /**
  47:Drivers/lvgl/src/extra/themes/mono/../../../../src/hal/../draw/../misc/lv_style.h ****  * Other constants
  48:Drivers/lvgl/src/extra/themes/mono/../../../../src/hal/../draw/../misc/lv_style.h ****  */
  49:Drivers/lvgl/src/extra/themes/mono/../../../../src/hal/../draw/../misc/lv_style.h **** #define LV_IMG_ZOOM_NONE            256        /*Value for not zooming the image*/
  50:Drivers/lvgl/src/extra/themes/mono/../../../../src/hal/../draw/../misc/lv_style.h **** LV_EXPORT_CONST_INT(LV_IMG_ZOOM_NONE);
  51:Drivers/lvgl/src/extra/themes/mono/../../../../src/hal/../draw/../misc/lv_style.h **** 
  52:Drivers/lvgl/src/extra/themes/mono/../../../../src/hal/../draw/../misc/lv_style.h **** // *INDENT-OFF*
  53:Drivers/lvgl/src/extra/themes/mono/../../../../src/hal/../draw/../misc/lv_style.h **** #if LV_USE_ASSERT_STYLE
  54:Drivers/lvgl/src/extra/themes/mono/../../../../src/hal/../draw/../misc/lv_style.h **** #define LV_STYLE_CONST_INIT(var_name, prop_array)                       \
  55:Drivers/lvgl/src/extra/themes/mono/../../../../src/hal/../draw/../misc/lv_style.h ****     const lv_style_t var_name = {                                       \
  56:Drivers/lvgl/src/extra/themes/mono/../../../../src/hal/../draw/../misc/lv_style.h ****         .sentinel = LV_STYLE_SENTINEL_VALUE,                            \
  57:Drivers/lvgl/src/extra/themes/mono/../../../../src/hal/../draw/../misc/lv_style.h ****         .v_p = { .const_props = prop_array },                           \
  58:Drivers/lvgl/src/extra/themes/mono/../../../../src/hal/../draw/../misc/lv_style.h ****         .has_group = 0xFF,                                              \
  59:Drivers/lvgl/src/extra/themes/mono/../../../../src/hal/../draw/../misc/lv_style.h ****         .prop1 = LV_STYLE_PROP_ANY,                                     \
  60:Drivers/lvgl/src/extra/themes/mono/../../../../src/hal/../draw/../misc/lv_style.h ****         .prop_cnt = (sizeof(prop_array) / sizeof((prop_array)[0])),     \
  61:Drivers/lvgl/src/extra/themes/mono/../../../../src/hal/../draw/../misc/lv_style.h ****     }
  62:Drivers/lvgl/src/extra/themes/mono/../../../../src/hal/../draw/../misc/lv_style.h **** #else
  63:Drivers/lvgl/src/extra/themes/mono/../../../../src/hal/../draw/../misc/lv_style.h **** #define LV_STYLE_CONST_INIT(var_name, prop_array)                       \
  64:Drivers/lvgl/src/extra/themes/mono/../../../../src/hal/../draw/../misc/lv_style.h ****     const lv_style_t var_name = {                                       \
  65:Drivers/lvgl/src/extra/themes/mono/../../../../src/hal/../draw/../misc/lv_style.h ****         .v_p = { .const_props = prop_array },                           \
  66:Drivers/lvgl/src/extra/themes/mono/../../../../src/hal/../draw/../misc/lv_style.h ****         .has_group = 0xFF,                                              \
  67:Drivers/lvgl/src/extra/themes/mono/../../../../src/hal/../draw/../misc/lv_style.h ****         .prop1 = LV_STYLE_PROP_ANY,                                     \
  68:Drivers/lvgl/src/extra/themes/mono/../../../../src/hal/../draw/../misc/lv_style.h ****         .prop_cnt = (sizeof(prop_array) / sizeof((prop_array)[0])),     \
  69:Drivers/lvgl/src/extra/themes/mono/../../../../src/hal/../draw/../misc/lv_style.h ****     }
  70:Drivers/lvgl/src/extra/themes/mono/../../../../src/hal/../draw/../misc/lv_style.h **** #endif
  71:Drivers/lvgl/src/extra/themes/mono/../../../../src/hal/../draw/../misc/lv_style.h **** // *INDENT-ON*
  72:Drivers/lvgl/src/extra/themes/mono/../../../../src/hal/../draw/../misc/lv_style.h **** 
  73:Drivers/lvgl/src/extra/themes/mono/../../../../src/hal/../draw/../misc/lv_style.h **** #define LV_STYLE_PROP_META_INHERIT 0x8000
  74:Drivers/lvgl/src/extra/themes/mono/../../../../src/hal/../draw/../misc/lv_style.h **** #define LV_STYLE_PROP_META_INITIAL 0x4000
  75:Drivers/lvgl/src/extra/themes/mono/../../../../src/hal/../draw/../misc/lv_style.h **** #define LV_STYLE_PROP_META_MASK (LV_STYLE_PROP_META_INHERIT | LV_STYLE_PROP_META_INITIAL)
  76:Drivers/lvgl/src/extra/themes/mono/../../../../src/hal/../draw/../misc/lv_style.h **** 
  77:Drivers/lvgl/src/extra/themes/mono/../../../../src/hal/../draw/../misc/lv_style.h **** #define LV_STYLE_PROP_ID_MASK(prop) ((lv_style_prop_t)((prop) & ~LV_STYLE_PROP_META_MASK))
  78:Drivers/lvgl/src/extra/themes/mono/../../../../src/hal/../draw/../misc/lv_style.h **** 
  79:Drivers/lvgl/src/extra/themes/mono/../../../../src/hal/../draw/../misc/lv_style.h **** /**********************
  80:Drivers/lvgl/src/extra/themes/mono/../../../../src/hal/../draw/../misc/lv_style.h ****  *      TYPEDEFS
  81:Drivers/lvgl/src/extra/themes/mono/../../../../src/hal/../draw/../misc/lv_style.h ****  **********************/
  82:Drivers/lvgl/src/extra/themes/mono/../../../../src/hal/../draw/../misc/lv_style.h **** 
  83:Drivers/lvgl/src/extra/themes/mono/../../../../src/hal/../draw/../misc/lv_style.h **** /**
ARM GAS  /var/folders/lp/x54gwt890xv47sdkqj1k04q40000gn/T//cc6ygGfE.s 			page 61


  84:Drivers/lvgl/src/extra/themes/mono/../../../../src/hal/../draw/../misc/lv_style.h ****  * Possible options how to blend opaque drawings
  85:Drivers/lvgl/src/extra/themes/mono/../../../../src/hal/../draw/../misc/lv_style.h ****  */
  86:Drivers/lvgl/src/extra/themes/mono/../../../../src/hal/../draw/../misc/lv_style.h **** enum {
  87:Drivers/lvgl/src/extra/themes/mono/../../../../src/hal/../draw/../misc/lv_style.h ****     LV_BLEND_MODE_NORMAL,     /**< Simply mix according to the opacity value*/
  88:Drivers/lvgl/src/extra/themes/mono/../../../../src/hal/../draw/../misc/lv_style.h ****     LV_BLEND_MODE_ADDITIVE,   /**< Add the respective color channels*/
  89:Drivers/lvgl/src/extra/themes/mono/../../../../src/hal/../draw/../misc/lv_style.h ****     LV_BLEND_MODE_SUBTRACTIVE,/**< Subtract the foreground from the background*/
  90:Drivers/lvgl/src/extra/themes/mono/../../../../src/hal/../draw/../misc/lv_style.h ****     LV_BLEND_MODE_MULTIPLY,   /**< Multiply the foreground and background*/
  91:Drivers/lvgl/src/extra/themes/mono/../../../../src/hal/../draw/../misc/lv_style.h ****     LV_BLEND_MODE_REPLACE,    /**< Replace background with foreground in the area*/
  92:Drivers/lvgl/src/extra/themes/mono/../../../../src/hal/../draw/../misc/lv_style.h **** };
  93:Drivers/lvgl/src/extra/themes/mono/../../../../src/hal/../draw/../misc/lv_style.h **** 
  94:Drivers/lvgl/src/extra/themes/mono/../../../../src/hal/../draw/../misc/lv_style.h **** typedef uint8_t lv_blend_mode_t;
  95:Drivers/lvgl/src/extra/themes/mono/../../../../src/hal/../draw/../misc/lv_style.h **** 
  96:Drivers/lvgl/src/extra/themes/mono/../../../../src/hal/../draw/../misc/lv_style.h **** /**
  97:Drivers/lvgl/src/extra/themes/mono/../../../../src/hal/../draw/../misc/lv_style.h ****  * Some options to apply decorations on texts.
  98:Drivers/lvgl/src/extra/themes/mono/../../../../src/hal/../draw/../misc/lv_style.h ****  * 'OR'ed values can be used.
  99:Drivers/lvgl/src/extra/themes/mono/../../../../src/hal/../draw/../misc/lv_style.h ****  */
 100:Drivers/lvgl/src/extra/themes/mono/../../../../src/hal/../draw/../misc/lv_style.h **** enum {
 101:Drivers/lvgl/src/extra/themes/mono/../../../../src/hal/../draw/../misc/lv_style.h ****     LV_TEXT_DECOR_NONE          = 0x00,
 102:Drivers/lvgl/src/extra/themes/mono/../../../../src/hal/../draw/../misc/lv_style.h ****     LV_TEXT_DECOR_UNDERLINE     = 0x01,
 103:Drivers/lvgl/src/extra/themes/mono/../../../../src/hal/../draw/../misc/lv_style.h ****     LV_TEXT_DECOR_STRIKETHROUGH = 0x02,
 104:Drivers/lvgl/src/extra/themes/mono/../../../../src/hal/../draw/../misc/lv_style.h **** };
 105:Drivers/lvgl/src/extra/themes/mono/../../../../src/hal/../draw/../misc/lv_style.h **** 
 106:Drivers/lvgl/src/extra/themes/mono/../../../../src/hal/../draw/../misc/lv_style.h **** typedef uint8_t lv_text_decor_t;
 107:Drivers/lvgl/src/extra/themes/mono/../../../../src/hal/../draw/../misc/lv_style.h **** 
 108:Drivers/lvgl/src/extra/themes/mono/../../../../src/hal/../draw/../misc/lv_style.h **** /**
 109:Drivers/lvgl/src/extra/themes/mono/../../../../src/hal/../draw/../misc/lv_style.h ****  * Selects on which sides border should be drawn
 110:Drivers/lvgl/src/extra/themes/mono/../../../../src/hal/../draw/../misc/lv_style.h ****  * 'OR'ed values can be used.
 111:Drivers/lvgl/src/extra/themes/mono/../../../../src/hal/../draw/../misc/lv_style.h ****  */
 112:Drivers/lvgl/src/extra/themes/mono/../../../../src/hal/../draw/../misc/lv_style.h **** enum {
 113:Drivers/lvgl/src/extra/themes/mono/../../../../src/hal/../draw/../misc/lv_style.h ****     LV_BORDER_SIDE_NONE     = 0x00,
 114:Drivers/lvgl/src/extra/themes/mono/../../../../src/hal/../draw/../misc/lv_style.h ****     LV_BORDER_SIDE_BOTTOM   = 0x01,
 115:Drivers/lvgl/src/extra/themes/mono/../../../../src/hal/../draw/../misc/lv_style.h ****     LV_BORDER_SIDE_TOP      = 0x02,
 116:Drivers/lvgl/src/extra/themes/mono/../../../../src/hal/../draw/../misc/lv_style.h ****     LV_BORDER_SIDE_LEFT     = 0x04,
 117:Drivers/lvgl/src/extra/themes/mono/../../../../src/hal/../draw/../misc/lv_style.h ****     LV_BORDER_SIDE_RIGHT    = 0x08,
 118:Drivers/lvgl/src/extra/themes/mono/../../../../src/hal/../draw/../misc/lv_style.h ****     LV_BORDER_SIDE_FULL     = 0x0F,
 119:Drivers/lvgl/src/extra/themes/mono/../../../../src/hal/../draw/../misc/lv_style.h ****     LV_BORDER_SIDE_INTERNAL = 0x10, /**< FOR matrix-like objects (e.g. Button matrix)*/
 120:Drivers/lvgl/src/extra/themes/mono/../../../../src/hal/../draw/../misc/lv_style.h **** };
 121:Drivers/lvgl/src/extra/themes/mono/../../../../src/hal/../draw/../misc/lv_style.h **** typedef uint8_t lv_border_side_t;
 122:Drivers/lvgl/src/extra/themes/mono/../../../../src/hal/../draw/../misc/lv_style.h **** 
 123:Drivers/lvgl/src/extra/themes/mono/../../../../src/hal/../draw/../misc/lv_style.h **** /**
 124:Drivers/lvgl/src/extra/themes/mono/../../../../src/hal/../draw/../misc/lv_style.h ****  * The direction of the gradient.
 125:Drivers/lvgl/src/extra/themes/mono/../../../../src/hal/../draw/../misc/lv_style.h ****  */
 126:Drivers/lvgl/src/extra/themes/mono/../../../../src/hal/../draw/../misc/lv_style.h **** enum {
 127:Drivers/lvgl/src/extra/themes/mono/../../../../src/hal/../draw/../misc/lv_style.h ****     LV_GRAD_DIR_NONE, /**< No gradient (the `grad_color` property is ignored)*/
 128:Drivers/lvgl/src/extra/themes/mono/../../../../src/hal/../draw/../misc/lv_style.h ****     LV_GRAD_DIR_VER,  /**< Vertical (top to bottom) gradient*/
 129:Drivers/lvgl/src/extra/themes/mono/../../../../src/hal/../draw/../misc/lv_style.h ****     LV_GRAD_DIR_HOR,  /**< Horizontal (left to right) gradient*/
 130:Drivers/lvgl/src/extra/themes/mono/../../../../src/hal/../draw/../misc/lv_style.h **** };
 131:Drivers/lvgl/src/extra/themes/mono/../../../../src/hal/../draw/../misc/lv_style.h **** 
 132:Drivers/lvgl/src/extra/themes/mono/../../../../src/hal/../draw/../misc/lv_style.h **** typedef uint8_t lv_grad_dir_t;
 133:Drivers/lvgl/src/extra/themes/mono/../../../../src/hal/../draw/../misc/lv_style.h **** 
 134:Drivers/lvgl/src/extra/themes/mono/../../../../src/hal/../draw/../misc/lv_style.h **** /**
 135:Drivers/lvgl/src/extra/themes/mono/../../../../src/hal/../draw/../misc/lv_style.h ****  * The dithering algorithm for the gradient
 136:Drivers/lvgl/src/extra/themes/mono/../../../../src/hal/../draw/../misc/lv_style.h ****  * Depends on LV_DITHER_GRADIENT
 137:Drivers/lvgl/src/extra/themes/mono/../../../../src/hal/../draw/../misc/lv_style.h ****  */
 138:Drivers/lvgl/src/extra/themes/mono/../../../../src/hal/../draw/../misc/lv_style.h **** enum {
 139:Drivers/lvgl/src/extra/themes/mono/../../../../src/hal/../draw/../misc/lv_style.h ****     LV_DITHER_NONE,     /**< No dithering, colors are just quantized to the output resolution*/
 140:Drivers/lvgl/src/extra/themes/mono/../../../../src/hal/../draw/../misc/lv_style.h ****     LV_DITHER_ORDERED,  /**< Ordered dithering. Faster to compute and use less memory but lower qua
ARM GAS  /var/folders/lp/x54gwt890xv47sdkqj1k04q40000gn/T//cc6ygGfE.s 			page 62


 141:Drivers/lvgl/src/extra/themes/mono/../../../../src/hal/../draw/../misc/lv_style.h ****     LV_DITHER_ERR_DIFF, /**< Error diffusion mode. Slower to compute and use more memory but give h
 142:Drivers/lvgl/src/extra/themes/mono/../../../../src/hal/../draw/../misc/lv_style.h **** };
 143:Drivers/lvgl/src/extra/themes/mono/../../../../src/hal/../draw/../misc/lv_style.h **** 
 144:Drivers/lvgl/src/extra/themes/mono/../../../../src/hal/../draw/../misc/lv_style.h **** typedef uint8_t lv_dither_mode_t;
 145:Drivers/lvgl/src/extra/themes/mono/../../../../src/hal/../draw/../misc/lv_style.h **** 
 146:Drivers/lvgl/src/extra/themes/mono/../../../../src/hal/../draw/../misc/lv_style.h **** /** A gradient stop definition.
 147:Drivers/lvgl/src/extra/themes/mono/../../../../src/hal/../draw/../misc/lv_style.h ****  *  This matches a color and a position in a virtual 0-255 scale.
 148:Drivers/lvgl/src/extra/themes/mono/../../../../src/hal/../draw/../misc/lv_style.h ****  */
 149:Drivers/lvgl/src/extra/themes/mono/../../../../src/hal/../draw/../misc/lv_style.h **** typedef struct {
 150:Drivers/lvgl/src/extra/themes/mono/../../../../src/hal/../draw/../misc/lv_style.h ****     lv_color_t color;   /**< The stop color */
 151:Drivers/lvgl/src/extra/themes/mono/../../../../src/hal/../draw/../misc/lv_style.h ****     uint8_t    frac;    /**< The stop position in 1/255 unit */
 152:Drivers/lvgl/src/extra/themes/mono/../../../../src/hal/../draw/../misc/lv_style.h **** } lv_gradient_stop_t;
 153:Drivers/lvgl/src/extra/themes/mono/../../../../src/hal/../draw/../misc/lv_style.h **** 
 154:Drivers/lvgl/src/extra/themes/mono/../../../../src/hal/../draw/../misc/lv_style.h **** /** A descriptor of a gradient. */
 155:Drivers/lvgl/src/extra/themes/mono/../../../../src/hal/../draw/../misc/lv_style.h **** typedef struct {
 156:Drivers/lvgl/src/extra/themes/mono/../../../../src/hal/../draw/../misc/lv_style.h ****     lv_gradient_stop_t   stops[LV_GRADIENT_MAX_STOPS]; /**< A gradient stop array */
 157:Drivers/lvgl/src/extra/themes/mono/../../../../src/hal/../draw/../misc/lv_style.h ****     uint8_t              stops_count;                  /**< The number of used stops in the array *
 158:Drivers/lvgl/src/extra/themes/mono/../../../../src/hal/../draw/../misc/lv_style.h ****     lv_grad_dir_t        dir : 3;                      /**< The gradient direction.
 159:Drivers/lvgl/src/extra/themes/mono/../../../../src/hal/../draw/../misc/lv_style.h ****                                                         * Any of LV_GRAD_DIR_HOR, LV_GRAD_DIR_VER, 
 160:Drivers/lvgl/src/extra/themes/mono/../../../../src/hal/../draw/../misc/lv_style.h ****     lv_dither_mode_t     dither : 3;                   /**< Whether to dither the gradient or not.
 161:Drivers/lvgl/src/extra/themes/mono/../../../../src/hal/../draw/../misc/lv_style.h ****                                                         * Any of LV_DITHER_NONE, LV_DITHER_ORDERED,
 162:Drivers/lvgl/src/extra/themes/mono/../../../../src/hal/../draw/../misc/lv_style.h **** } lv_grad_dsc_t;
 163:Drivers/lvgl/src/extra/themes/mono/../../../../src/hal/../draw/../misc/lv_style.h **** 
 164:Drivers/lvgl/src/extra/themes/mono/../../../../src/hal/../draw/../misc/lv_style.h **** /**
 165:Drivers/lvgl/src/extra/themes/mono/../../../../src/hal/../draw/../misc/lv_style.h ****  * A common type to handle all the property types in the same way.
 166:Drivers/lvgl/src/extra/themes/mono/../../../../src/hal/../draw/../misc/lv_style.h ****  */
 167:Drivers/lvgl/src/extra/themes/mono/../../../../src/hal/../draw/../misc/lv_style.h **** typedef union {
 168:Drivers/lvgl/src/extra/themes/mono/../../../../src/hal/../draw/../misc/lv_style.h ****     int32_t num;         /**< Number integer number (opacity, enums, booleans or "normal" numbers)*
 169:Drivers/lvgl/src/extra/themes/mono/../../../../src/hal/../draw/../misc/lv_style.h ****     const void * ptr;    /**< Constant pointers  (font, cone text, etc)*/
 170:Drivers/lvgl/src/extra/themes/mono/../../../../src/hal/../draw/../misc/lv_style.h ****     lv_color_t color;    /**< Colors*/
 171:Drivers/lvgl/src/extra/themes/mono/../../../../src/hal/../draw/../misc/lv_style.h **** } lv_style_value_t;
 172:Drivers/lvgl/src/extra/themes/mono/../../../../src/hal/../draw/../misc/lv_style.h **** 
 173:Drivers/lvgl/src/extra/themes/mono/../../../../src/hal/../draw/../misc/lv_style.h **** /**
 174:Drivers/lvgl/src/extra/themes/mono/../../../../src/hal/../draw/../misc/lv_style.h ****  * Enumeration of all built in style properties
 175:Drivers/lvgl/src/extra/themes/mono/../../../../src/hal/../draw/../misc/lv_style.h ****  *
 176:Drivers/lvgl/src/extra/themes/mono/../../../../src/hal/../draw/../misc/lv_style.h ****  * Props are split into groups of 16. When adding a new prop to a group, ensure it does not overflo
 177:Drivers/lvgl/src/extra/themes/mono/../../../../src/hal/../draw/../misc/lv_style.h ****  */
 178:Drivers/lvgl/src/extra/themes/mono/../../../../src/hal/../draw/../misc/lv_style.h **** typedef enum {
 179:Drivers/lvgl/src/extra/themes/mono/../../../../src/hal/../draw/../misc/lv_style.h ****     LV_STYLE_PROP_INV               = 0,
 180:Drivers/lvgl/src/extra/themes/mono/../../../../src/hal/../draw/../misc/lv_style.h **** 
 181:Drivers/lvgl/src/extra/themes/mono/../../../../src/hal/../draw/../misc/lv_style.h ****     /*Group 0*/
 182:Drivers/lvgl/src/extra/themes/mono/../../../../src/hal/../draw/../misc/lv_style.h ****     LV_STYLE_WIDTH                  = 1,
 183:Drivers/lvgl/src/extra/themes/mono/../../../../src/hal/../draw/../misc/lv_style.h ****     LV_STYLE_MIN_WIDTH              = 2,
 184:Drivers/lvgl/src/extra/themes/mono/../../../../src/hal/../draw/../misc/lv_style.h ****     LV_STYLE_MAX_WIDTH              = 3,
 185:Drivers/lvgl/src/extra/themes/mono/../../../../src/hal/../draw/../misc/lv_style.h ****     LV_STYLE_HEIGHT                 = 4,
 186:Drivers/lvgl/src/extra/themes/mono/../../../../src/hal/../draw/../misc/lv_style.h ****     LV_STYLE_MIN_HEIGHT             = 5,
 187:Drivers/lvgl/src/extra/themes/mono/../../../../src/hal/../draw/../misc/lv_style.h ****     LV_STYLE_MAX_HEIGHT             = 6,
 188:Drivers/lvgl/src/extra/themes/mono/../../../../src/hal/../draw/../misc/lv_style.h ****     LV_STYLE_X                      = 7,
 189:Drivers/lvgl/src/extra/themes/mono/../../../../src/hal/../draw/../misc/lv_style.h ****     LV_STYLE_Y                      = 8,
 190:Drivers/lvgl/src/extra/themes/mono/../../../../src/hal/../draw/../misc/lv_style.h ****     LV_STYLE_ALIGN                  = 9,
 191:Drivers/lvgl/src/extra/themes/mono/../../../../src/hal/../draw/../misc/lv_style.h ****     LV_STYLE_LAYOUT                 = 10,
 192:Drivers/lvgl/src/extra/themes/mono/../../../../src/hal/../draw/../misc/lv_style.h ****     LV_STYLE_RADIUS                 = 11,
 193:Drivers/lvgl/src/extra/themes/mono/../../../../src/hal/../draw/../misc/lv_style.h **** 
 194:Drivers/lvgl/src/extra/themes/mono/../../../../src/hal/../draw/../misc/lv_style.h ****     /*Group 1*/
 195:Drivers/lvgl/src/extra/themes/mono/../../../../src/hal/../draw/../misc/lv_style.h ****     LV_STYLE_PAD_TOP                = 16,
 196:Drivers/lvgl/src/extra/themes/mono/../../../../src/hal/../draw/../misc/lv_style.h ****     LV_STYLE_PAD_BOTTOM             = 17,
 197:Drivers/lvgl/src/extra/themes/mono/../../../../src/hal/../draw/../misc/lv_style.h ****     LV_STYLE_PAD_LEFT               = 18,
ARM GAS  /var/folders/lp/x54gwt890xv47sdkqj1k04q40000gn/T//cc6ygGfE.s 			page 63


 198:Drivers/lvgl/src/extra/themes/mono/../../../../src/hal/../draw/../misc/lv_style.h ****     LV_STYLE_PAD_RIGHT              = 19,
 199:Drivers/lvgl/src/extra/themes/mono/../../../../src/hal/../draw/../misc/lv_style.h ****     LV_STYLE_PAD_ROW                = 20,
 200:Drivers/lvgl/src/extra/themes/mono/../../../../src/hal/../draw/../misc/lv_style.h ****     LV_STYLE_PAD_COLUMN             = 21,
 201:Drivers/lvgl/src/extra/themes/mono/../../../../src/hal/../draw/../misc/lv_style.h ****     LV_STYLE_BASE_DIR               = 22,
 202:Drivers/lvgl/src/extra/themes/mono/../../../../src/hal/../draw/../misc/lv_style.h ****     LV_STYLE_CLIP_CORNER            = 23,
 203:Drivers/lvgl/src/extra/themes/mono/../../../../src/hal/../draw/../misc/lv_style.h **** 
 204:Drivers/lvgl/src/extra/themes/mono/../../../../src/hal/../draw/../misc/lv_style.h ****     /*Group 2*/
 205:Drivers/lvgl/src/extra/themes/mono/../../../../src/hal/../draw/../misc/lv_style.h ****     LV_STYLE_BG_COLOR               = 32,
 206:Drivers/lvgl/src/extra/themes/mono/../../../../src/hal/../draw/../misc/lv_style.h ****     LV_STYLE_BG_OPA                 = 33,
 207:Drivers/lvgl/src/extra/themes/mono/../../../../src/hal/../draw/../misc/lv_style.h ****     LV_STYLE_BG_GRAD_COLOR          = 34,
 208:Drivers/lvgl/src/extra/themes/mono/../../../../src/hal/../draw/../misc/lv_style.h ****     LV_STYLE_BG_GRAD_DIR            = 35,
 209:Drivers/lvgl/src/extra/themes/mono/../../../../src/hal/../draw/../misc/lv_style.h ****     LV_STYLE_BG_MAIN_STOP           = 36,
 210:Drivers/lvgl/src/extra/themes/mono/../../../../src/hal/../draw/../misc/lv_style.h ****     LV_STYLE_BG_GRAD_STOP           = 37,
 211:Drivers/lvgl/src/extra/themes/mono/../../../../src/hal/../draw/../misc/lv_style.h ****     LV_STYLE_BG_GRAD                = 38,
 212:Drivers/lvgl/src/extra/themes/mono/../../../../src/hal/../draw/../misc/lv_style.h ****     LV_STYLE_BG_DITHER_MODE         = 39,
 213:Drivers/lvgl/src/extra/themes/mono/../../../../src/hal/../draw/../misc/lv_style.h ****     LV_STYLE_BG_IMG_SRC             = 40,
 214:Drivers/lvgl/src/extra/themes/mono/../../../../src/hal/../draw/../misc/lv_style.h ****     LV_STYLE_BG_IMG_OPA             = 41,
 215:Drivers/lvgl/src/extra/themes/mono/../../../../src/hal/../draw/../misc/lv_style.h ****     LV_STYLE_BG_IMG_RECOLOR         = 42,
 216:Drivers/lvgl/src/extra/themes/mono/../../../../src/hal/../draw/../misc/lv_style.h ****     LV_STYLE_BG_IMG_RECOLOR_OPA     = 43,
 217:Drivers/lvgl/src/extra/themes/mono/../../../../src/hal/../draw/../misc/lv_style.h ****     LV_STYLE_BG_IMG_TILED           = 44,
 218:Drivers/lvgl/src/extra/themes/mono/../../../../src/hal/../draw/../misc/lv_style.h **** 
 219:Drivers/lvgl/src/extra/themes/mono/../../../../src/hal/../draw/../misc/lv_style.h ****     /*Group 3*/
 220:Drivers/lvgl/src/extra/themes/mono/../../../../src/hal/../draw/../misc/lv_style.h ****     LV_STYLE_BORDER_COLOR           = 48,
 221:Drivers/lvgl/src/extra/themes/mono/../../../../src/hal/../draw/../misc/lv_style.h ****     LV_STYLE_BORDER_OPA             = 49,
 222:Drivers/lvgl/src/extra/themes/mono/../../../../src/hal/../draw/../misc/lv_style.h ****     LV_STYLE_BORDER_WIDTH           = 50,
 223:Drivers/lvgl/src/extra/themes/mono/../../../../src/hal/../draw/../misc/lv_style.h ****     LV_STYLE_BORDER_SIDE            = 51,
 224:Drivers/lvgl/src/extra/themes/mono/../../../../src/hal/../draw/../misc/lv_style.h ****     LV_STYLE_BORDER_POST            = 52,
 225:Drivers/lvgl/src/extra/themes/mono/../../../../src/hal/../draw/../misc/lv_style.h ****     LV_STYLE_OUTLINE_WIDTH          = 53,
 226:Drivers/lvgl/src/extra/themes/mono/../../../../src/hal/../draw/../misc/lv_style.h ****     LV_STYLE_OUTLINE_COLOR          = 54,
 227:Drivers/lvgl/src/extra/themes/mono/../../../../src/hal/../draw/../misc/lv_style.h ****     LV_STYLE_OUTLINE_OPA            = 55,
 228:Drivers/lvgl/src/extra/themes/mono/../../../../src/hal/../draw/../misc/lv_style.h ****     LV_STYLE_OUTLINE_PAD            = 56,
 229:Drivers/lvgl/src/extra/themes/mono/../../../../src/hal/../draw/../misc/lv_style.h **** 
 230:Drivers/lvgl/src/extra/themes/mono/../../../../src/hal/../draw/../misc/lv_style.h ****     /*Group 4*/
 231:Drivers/lvgl/src/extra/themes/mono/../../../../src/hal/../draw/../misc/lv_style.h ****     LV_STYLE_SHADOW_WIDTH           = 64,
 232:Drivers/lvgl/src/extra/themes/mono/../../../../src/hal/../draw/../misc/lv_style.h ****     LV_STYLE_SHADOW_OFS_X           = 65,
 233:Drivers/lvgl/src/extra/themes/mono/../../../../src/hal/../draw/../misc/lv_style.h ****     LV_STYLE_SHADOW_OFS_Y           = 66,
 234:Drivers/lvgl/src/extra/themes/mono/../../../../src/hal/../draw/../misc/lv_style.h ****     LV_STYLE_SHADOW_SPREAD          = 67,
 235:Drivers/lvgl/src/extra/themes/mono/../../../../src/hal/../draw/../misc/lv_style.h ****     LV_STYLE_SHADOW_COLOR           = 68,
 236:Drivers/lvgl/src/extra/themes/mono/../../../../src/hal/../draw/../misc/lv_style.h ****     LV_STYLE_SHADOW_OPA             = 69,
 237:Drivers/lvgl/src/extra/themes/mono/../../../../src/hal/../draw/../misc/lv_style.h ****     LV_STYLE_IMG_OPA                = 70,
 238:Drivers/lvgl/src/extra/themes/mono/../../../../src/hal/../draw/../misc/lv_style.h ****     LV_STYLE_IMG_RECOLOR            = 71,
 239:Drivers/lvgl/src/extra/themes/mono/../../../../src/hal/../draw/../misc/lv_style.h ****     LV_STYLE_IMG_RECOLOR_OPA        = 72,
 240:Drivers/lvgl/src/extra/themes/mono/../../../../src/hal/../draw/../misc/lv_style.h ****     LV_STYLE_LINE_WIDTH             = 73,
 241:Drivers/lvgl/src/extra/themes/mono/../../../../src/hal/../draw/../misc/lv_style.h ****     LV_STYLE_LINE_DASH_WIDTH        = 74,
 242:Drivers/lvgl/src/extra/themes/mono/../../../../src/hal/../draw/../misc/lv_style.h ****     LV_STYLE_LINE_DASH_GAP          = 75,
 243:Drivers/lvgl/src/extra/themes/mono/../../../../src/hal/../draw/../misc/lv_style.h ****     LV_STYLE_LINE_ROUNDED           = 76,
 244:Drivers/lvgl/src/extra/themes/mono/../../../../src/hal/../draw/../misc/lv_style.h ****     LV_STYLE_LINE_COLOR             = 77,
 245:Drivers/lvgl/src/extra/themes/mono/../../../../src/hal/../draw/../misc/lv_style.h ****     LV_STYLE_LINE_OPA               = 78,
 246:Drivers/lvgl/src/extra/themes/mono/../../../../src/hal/../draw/../misc/lv_style.h **** 
 247:Drivers/lvgl/src/extra/themes/mono/../../../../src/hal/../draw/../misc/lv_style.h ****     /*Group 5*/
 248:Drivers/lvgl/src/extra/themes/mono/../../../../src/hal/../draw/../misc/lv_style.h ****     LV_STYLE_ARC_WIDTH              = 80,
 249:Drivers/lvgl/src/extra/themes/mono/../../../../src/hal/../draw/../misc/lv_style.h ****     LV_STYLE_ARC_ROUNDED            = 81,
 250:Drivers/lvgl/src/extra/themes/mono/../../../../src/hal/../draw/../misc/lv_style.h ****     LV_STYLE_ARC_COLOR              = 82,
 251:Drivers/lvgl/src/extra/themes/mono/../../../../src/hal/../draw/../misc/lv_style.h ****     LV_STYLE_ARC_OPA                = 83,
 252:Drivers/lvgl/src/extra/themes/mono/../../../../src/hal/../draw/../misc/lv_style.h ****     LV_STYLE_ARC_IMG_SRC            = 84,
 253:Drivers/lvgl/src/extra/themes/mono/../../../../src/hal/../draw/../misc/lv_style.h ****     LV_STYLE_TEXT_COLOR             = 85,
 254:Drivers/lvgl/src/extra/themes/mono/../../../../src/hal/../draw/../misc/lv_style.h ****     LV_STYLE_TEXT_OPA               = 86,
ARM GAS  /var/folders/lp/x54gwt890xv47sdkqj1k04q40000gn/T//cc6ygGfE.s 			page 64


 255:Drivers/lvgl/src/extra/themes/mono/../../../../src/hal/../draw/../misc/lv_style.h ****     LV_STYLE_TEXT_FONT              = 87,
 256:Drivers/lvgl/src/extra/themes/mono/../../../../src/hal/../draw/../misc/lv_style.h ****     LV_STYLE_TEXT_LETTER_SPACE      = 88,
 257:Drivers/lvgl/src/extra/themes/mono/../../../../src/hal/../draw/../misc/lv_style.h ****     LV_STYLE_TEXT_LINE_SPACE        = 89,
 258:Drivers/lvgl/src/extra/themes/mono/../../../../src/hal/../draw/../misc/lv_style.h ****     LV_STYLE_TEXT_DECOR             = 90,
 259:Drivers/lvgl/src/extra/themes/mono/../../../../src/hal/../draw/../misc/lv_style.h ****     LV_STYLE_TEXT_ALIGN             = 91,
 260:Drivers/lvgl/src/extra/themes/mono/../../../../src/hal/../draw/../misc/lv_style.h **** 
 261:Drivers/lvgl/src/extra/themes/mono/../../../../src/hal/../draw/../misc/lv_style.h ****     /*Group 6*/
 262:Drivers/lvgl/src/extra/themes/mono/../../../../src/hal/../draw/../misc/lv_style.h ****     LV_STYLE_OPA                    = 96,
 263:Drivers/lvgl/src/extra/themes/mono/../../../../src/hal/../draw/../misc/lv_style.h ****     LV_STYLE_OPA_LAYERED            = 97,
 264:Drivers/lvgl/src/extra/themes/mono/../../../../src/hal/../draw/../misc/lv_style.h ****     LV_STYLE_COLOR_FILTER_DSC       = 98,
 265:Drivers/lvgl/src/extra/themes/mono/../../../../src/hal/../draw/../misc/lv_style.h ****     LV_STYLE_COLOR_FILTER_OPA       = 99,
 266:Drivers/lvgl/src/extra/themes/mono/../../../../src/hal/../draw/../misc/lv_style.h ****     LV_STYLE_ANIM                   = 100,
 267:Drivers/lvgl/src/extra/themes/mono/../../../../src/hal/../draw/../misc/lv_style.h ****     LV_STYLE_ANIM_TIME              = 101,
 268:Drivers/lvgl/src/extra/themes/mono/../../../../src/hal/../draw/../misc/lv_style.h ****     LV_STYLE_ANIM_SPEED             = 102,
 269:Drivers/lvgl/src/extra/themes/mono/../../../../src/hal/../draw/../misc/lv_style.h ****     LV_STYLE_TRANSITION             = 103,
 270:Drivers/lvgl/src/extra/themes/mono/../../../../src/hal/../draw/../misc/lv_style.h ****     LV_STYLE_BLEND_MODE             = 104,
 271:Drivers/lvgl/src/extra/themes/mono/../../../../src/hal/../draw/../misc/lv_style.h ****     LV_STYLE_TRANSFORM_WIDTH        = 105,
 272:Drivers/lvgl/src/extra/themes/mono/../../../../src/hal/../draw/../misc/lv_style.h ****     LV_STYLE_TRANSFORM_HEIGHT       = 106,
 273:Drivers/lvgl/src/extra/themes/mono/../../../../src/hal/../draw/../misc/lv_style.h ****     LV_STYLE_TRANSLATE_X            = 107,
 274:Drivers/lvgl/src/extra/themes/mono/../../../../src/hal/../draw/../misc/lv_style.h ****     LV_STYLE_TRANSLATE_Y            = 108,
 275:Drivers/lvgl/src/extra/themes/mono/../../../../src/hal/../draw/../misc/lv_style.h ****     LV_STYLE_TRANSFORM_ZOOM         = 109,
 276:Drivers/lvgl/src/extra/themes/mono/../../../../src/hal/../draw/../misc/lv_style.h ****     LV_STYLE_TRANSFORM_ANGLE        = 110,
 277:Drivers/lvgl/src/extra/themes/mono/../../../../src/hal/../draw/../misc/lv_style.h ****     LV_STYLE_TRANSFORM_PIVOT_X      = 111,
 278:Drivers/lvgl/src/extra/themes/mono/../../../../src/hal/../draw/../misc/lv_style.h ****     LV_STYLE_TRANSFORM_PIVOT_Y      = 112,
 279:Drivers/lvgl/src/extra/themes/mono/../../../../src/hal/../draw/../misc/lv_style.h **** 
 280:Drivers/lvgl/src/extra/themes/mono/../../../../src/hal/../draw/../misc/lv_style.h ****     _LV_STYLE_LAST_BUILT_IN_PROP     = 112,
 281:Drivers/lvgl/src/extra/themes/mono/../../../../src/hal/../draw/../misc/lv_style.h ****     _LV_STYLE_NUM_BUILT_IN_PROPS     = _LV_STYLE_LAST_BUILT_IN_PROP + 1,
 282:Drivers/lvgl/src/extra/themes/mono/../../../../src/hal/../draw/../misc/lv_style.h **** 
 283:Drivers/lvgl/src/extra/themes/mono/../../../../src/hal/../draw/../misc/lv_style.h ****     LV_STYLE_PROP_ANY                = 0xFFFF,
 284:Drivers/lvgl/src/extra/themes/mono/../../../../src/hal/../draw/../misc/lv_style.h ****     _LV_STYLE_PROP_CONST             = 0xFFFF /* magic value for const styles */
 285:Drivers/lvgl/src/extra/themes/mono/../../../../src/hal/../draw/../misc/lv_style.h **** } lv_style_prop_t;
 286:Drivers/lvgl/src/extra/themes/mono/../../../../src/hal/../draw/../misc/lv_style.h **** 
 287:Drivers/lvgl/src/extra/themes/mono/../../../../src/hal/../draw/../misc/lv_style.h **** enum {
 288:Drivers/lvgl/src/extra/themes/mono/../../../../src/hal/../draw/../misc/lv_style.h ****     LV_STYLE_RES_NOT_FOUND,
 289:Drivers/lvgl/src/extra/themes/mono/../../../../src/hal/../draw/../misc/lv_style.h ****     LV_STYLE_RES_FOUND,
 290:Drivers/lvgl/src/extra/themes/mono/../../../../src/hal/../draw/../misc/lv_style.h ****     LV_STYLE_RES_INHERIT
 291:Drivers/lvgl/src/extra/themes/mono/../../../../src/hal/../draw/../misc/lv_style.h **** };
 292:Drivers/lvgl/src/extra/themes/mono/../../../../src/hal/../draw/../misc/lv_style.h **** 
 293:Drivers/lvgl/src/extra/themes/mono/../../../../src/hal/../draw/../misc/lv_style.h **** typedef uint8_t lv_style_res_t;
 294:Drivers/lvgl/src/extra/themes/mono/../../../../src/hal/../draw/../misc/lv_style.h **** 
 295:Drivers/lvgl/src/extra/themes/mono/../../../../src/hal/../draw/../misc/lv_style.h **** /**
 296:Drivers/lvgl/src/extra/themes/mono/../../../../src/hal/../draw/../misc/lv_style.h ****  * Descriptor for style transitions
 297:Drivers/lvgl/src/extra/themes/mono/../../../../src/hal/../draw/../misc/lv_style.h ****  */
 298:Drivers/lvgl/src/extra/themes/mono/../../../../src/hal/../draw/../misc/lv_style.h **** typedef struct {
 299:Drivers/lvgl/src/extra/themes/mono/../../../../src/hal/../draw/../misc/lv_style.h ****     const lv_style_prop_t * props; /**< An array with the properties to animate.*/
 300:Drivers/lvgl/src/extra/themes/mono/../../../../src/hal/../draw/../misc/lv_style.h **** #if LV_USE_USER_DATA
 301:Drivers/lvgl/src/extra/themes/mono/../../../../src/hal/../draw/../misc/lv_style.h ****     void * user_data;              /**< A custom user data that will be passed to the animation's u
 302:Drivers/lvgl/src/extra/themes/mono/../../../../src/hal/../draw/../misc/lv_style.h **** #endif
 303:Drivers/lvgl/src/extra/themes/mono/../../../../src/hal/../draw/../misc/lv_style.h ****     lv_anim_path_cb_t path_xcb;     /**< A path for the animation.*/
 304:Drivers/lvgl/src/extra/themes/mono/../../../../src/hal/../draw/../misc/lv_style.h ****     uint32_t time;                 /**< Duration of the transition in [ms]*/
 305:Drivers/lvgl/src/extra/themes/mono/../../../../src/hal/../draw/../misc/lv_style.h ****     uint32_t delay;                /**< Delay before the transition in [ms]*/
 306:Drivers/lvgl/src/extra/themes/mono/../../../../src/hal/../draw/../misc/lv_style.h **** } lv_style_transition_dsc_t;
 307:Drivers/lvgl/src/extra/themes/mono/../../../../src/hal/../draw/../misc/lv_style.h **** 
 308:Drivers/lvgl/src/extra/themes/mono/../../../../src/hal/../draw/../misc/lv_style.h **** /**
 309:Drivers/lvgl/src/extra/themes/mono/../../../../src/hal/../draw/../misc/lv_style.h ****  * Descriptor of a constant style property.
 310:Drivers/lvgl/src/extra/themes/mono/../../../../src/hal/../draw/../misc/lv_style.h ****  */
 311:Drivers/lvgl/src/extra/themes/mono/../../../../src/hal/../draw/../misc/lv_style.h **** typedef struct {
ARM GAS  /var/folders/lp/x54gwt890xv47sdkqj1k04q40000gn/T//cc6ygGfE.s 			page 65


 312:Drivers/lvgl/src/extra/themes/mono/../../../../src/hal/../draw/../misc/lv_style.h ****     lv_style_prop_t prop;
 313:Drivers/lvgl/src/extra/themes/mono/../../../../src/hal/../draw/../misc/lv_style.h ****     lv_style_value_t value;
 314:Drivers/lvgl/src/extra/themes/mono/../../../../src/hal/../draw/../misc/lv_style.h **** } lv_style_const_prop_t;
 315:Drivers/lvgl/src/extra/themes/mono/../../../../src/hal/../draw/../misc/lv_style.h **** 
 316:Drivers/lvgl/src/extra/themes/mono/../../../../src/hal/../draw/../misc/lv_style.h **** /**
 317:Drivers/lvgl/src/extra/themes/mono/../../../../src/hal/../draw/../misc/lv_style.h ****  * Descriptor of a style (a collection of properties and values).
 318:Drivers/lvgl/src/extra/themes/mono/../../../../src/hal/../draw/../misc/lv_style.h ****  */
 319:Drivers/lvgl/src/extra/themes/mono/../../../../src/hal/../draw/../misc/lv_style.h **** typedef struct {
 320:Drivers/lvgl/src/extra/themes/mono/../../../../src/hal/../draw/../misc/lv_style.h **** 
 321:Drivers/lvgl/src/extra/themes/mono/../../../../src/hal/../draw/../misc/lv_style.h **** #if LV_USE_ASSERT_STYLE
 322:Drivers/lvgl/src/extra/themes/mono/../../../../src/hal/../draw/../misc/lv_style.h ****     uint32_t sentinel;
 323:Drivers/lvgl/src/extra/themes/mono/../../../../src/hal/../draw/../misc/lv_style.h **** #endif
 324:Drivers/lvgl/src/extra/themes/mono/../../../../src/hal/../draw/../misc/lv_style.h **** 
 325:Drivers/lvgl/src/extra/themes/mono/../../../../src/hal/../draw/../misc/lv_style.h ****     /*If there is only one property store it directly.
 326:Drivers/lvgl/src/extra/themes/mono/../../../../src/hal/../draw/../misc/lv_style.h ****      *For more properties allocate an array*/
 327:Drivers/lvgl/src/extra/themes/mono/../../../../src/hal/../draw/../misc/lv_style.h ****     union {
 328:Drivers/lvgl/src/extra/themes/mono/../../../../src/hal/../draw/../misc/lv_style.h ****         lv_style_value_t value1;
 329:Drivers/lvgl/src/extra/themes/mono/../../../../src/hal/../draw/../misc/lv_style.h ****         uint8_t * values_and_props;
 330:Drivers/lvgl/src/extra/themes/mono/../../../../src/hal/../draw/../misc/lv_style.h ****         const lv_style_const_prop_t * const_props;
 331:Drivers/lvgl/src/extra/themes/mono/../../../../src/hal/../draw/../misc/lv_style.h ****     } v_p;
 332:Drivers/lvgl/src/extra/themes/mono/../../../../src/hal/../draw/../misc/lv_style.h **** 
 333:Drivers/lvgl/src/extra/themes/mono/../../../../src/hal/../draw/../misc/lv_style.h ****     uint16_t prop1;
 334:Drivers/lvgl/src/extra/themes/mono/../../../../src/hal/../draw/../misc/lv_style.h ****     uint8_t has_group;
 335:Drivers/lvgl/src/extra/themes/mono/../../../../src/hal/../draw/../misc/lv_style.h ****     uint8_t prop_cnt;
 336:Drivers/lvgl/src/extra/themes/mono/../../../../src/hal/../draw/../misc/lv_style.h **** } lv_style_t;
 337:Drivers/lvgl/src/extra/themes/mono/../../../../src/hal/../draw/../misc/lv_style.h **** 
 338:Drivers/lvgl/src/extra/themes/mono/../../../../src/hal/../draw/../misc/lv_style.h **** /**********************
 339:Drivers/lvgl/src/extra/themes/mono/../../../../src/hal/../draw/../misc/lv_style.h ****  * GLOBAL PROTOTYPES
 340:Drivers/lvgl/src/extra/themes/mono/../../../../src/hal/../draw/../misc/lv_style.h ****  **********************/
 341:Drivers/lvgl/src/extra/themes/mono/../../../../src/hal/../draw/../misc/lv_style.h **** 
 342:Drivers/lvgl/src/extra/themes/mono/../../../../src/hal/../draw/../misc/lv_style.h **** 
 343:Drivers/lvgl/src/extra/themes/mono/../../../../src/hal/../draw/../misc/lv_style.h **** /**
 344:Drivers/lvgl/src/extra/themes/mono/../../../../src/hal/../draw/../misc/lv_style.h ****  * Initialize a style
 345:Drivers/lvgl/src/extra/themes/mono/../../../../src/hal/../draw/../misc/lv_style.h ****  * @param style pointer to a style to initialize
 346:Drivers/lvgl/src/extra/themes/mono/../../../../src/hal/../draw/../misc/lv_style.h ****  * @note Do not call `lv_style_init` on styles that already have some properties
 347:Drivers/lvgl/src/extra/themes/mono/../../../../src/hal/../draw/../misc/lv_style.h ****  *       because this function won't free the used memory, just sets a default state for the style.
 348:Drivers/lvgl/src/extra/themes/mono/../../../../src/hal/../draw/../misc/lv_style.h ****  *       In other words be sure to initialize styles only once!
 349:Drivers/lvgl/src/extra/themes/mono/../../../../src/hal/../draw/../misc/lv_style.h ****  */
 350:Drivers/lvgl/src/extra/themes/mono/../../../../src/hal/../draw/../misc/lv_style.h **** void lv_style_init(lv_style_t * style);
 351:Drivers/lvgl/src/extra/themes/mono/../../../../src/hal/../draw/../misc/lv_style.h **** 
 352:Drivers/lvgl/src/extra/themes/mono/../../../../src/hal/../draw/../misc/lv_style.h **** /**
 353:Drivers/lvgl/src/extra/themes/mono/../../../../src/hal/../draw/../misc/lv_style.h ****  * Clear all properties from a style and free all allocated memories.
 354:Drivers/lvgl/src/extra/themes/mono/../../../../src/hal/../draw/../misc/lv_style.h ****  * @param style pointer to a style
 355:Drivers/lvgl/src/extra/themes/mono/../../../../src/hal/../draw/../misc/lv_style.h ****  */
 356:Drivers/lvgl/src/extra/themes/mono/../../../../src/hal/../draw/../misc/lv_style.h **** void lv_style_reset(lv_style_t * style);
 357:Drivers/lvgl/src/extra/themes/mono/../../../../src/hal/../draw/../misc/lv_style.h **** 
 358:Drivers/lvgl/src/extra/themes/mono/../../../../src/hal/../draw/../misc/lv_style.h **** /**
 359:Drivers/lvgl/src/extra/themes/mono/../../../../src/hal/../draw/../misc/lv_style.h ****  * Register a new style property for custom usage
 360:Drivers/lvgl/src/extra/themes/mono/../../../../src/hal/../draw/../misc/lv_style.h ****  * @return a new property ID, or LV_STYLE_PROP_INV if there are no more available.
 361:Drivers/lvgl/src/extra/themes/mono/../../../../src/hal/../draw/../misc/lv_style.h ****  * @example
 362:Drivers/lvgl/src/extra/themes/mono/../../../../src/hal/../draw/../misc/lv_style.h ****  * lv_style_prop_t MY_PROP;
 363:Drivers/lvgl/src/extra/themes/mono/../../../../src/hal/../draw/../misc/lv_style.h ****  * static inline void lv_style_set_my_prop(lv_style_t * style, lv_color_t value) {
 364:Drivers/lvgl/src/extra/themes/mono/../../../../src/hal/../draw/../misc/lv_style.h ****  * lv_style_value_t v = {.color = value}; lv_style_set_prop(style, MY_PROP, v); }
 365:Drivers/lvgl/src/extra/themes/mono/../../../../src/hal/../draw/../misc/lv_style.h ****  *
 366:Drivers/lvgl/src/extra/themes/mono/../../../../src/hal/../draw/../misc/lv_style.h ****  * ...
 367:Drivers/lvgl/src/extra/themes/mono/../../../../src/hal/../draw/../misc/lv_style.h ****  * MY_PROP = lv_style_register_prop();
 368:Drivers/lvgl/src/extra/themes/mono/../../../../src/hal/../draw/../misc/lv_style.h ****  * ...
ARM GAS  /var/folders/lp/x54gwt890xv47sdkqj1k04q40000gn/T//cc6ygGfE.s 			page 66


 369:Drivers/lvgl/src/extra/themes/mono/../../../../src/hal/../draw/../misc/lv_style.h ****  * lv_style_set_my_prop(&style1, lv_palette_main(LV_PALETTE_RED));
 370:Drivers/lvgl/src/extra/themes/mono/../../../../src/hal/../draw/../misc/lv_style.h ****  */
 371:Drivers/lvgl/src/extra/themes/mono/../../../../src/hal/../draw/../misc/lv_style.h **** lv_style_prop_t lv_style_register_prop(uint8_t flag);
 372:Drivers/lvgl/src/extra/themes/mono/../../../../src/hal/../draw/../misc/lv_style.h **** 
 373:Drivers/lvgl/src/extra/themes/mono/../../../../src/hal/../draw/../misc/lv_style.h **** /**
 374:Drivers/lvgl/src/extra/themes/mono/../../../../src/hal/../draw/../misc/lv_style.h ****  * Get the number of custom properties that have been registered thus far.
 375:Drivers/lvgl/src/extra/themes/mono/../../../../src/hal/../draw/../misc/lv_style.h ****  */
 376:Drivers/lvgl/src/extra/themes/mono/../../../../src/hal/../draw/../misc/lv_style.h **** lv_style_prop_t lv_style_get_num_custom_props(void);
 377:Drivers/lvgl/src/extra/themes/mono/../../../../src/hal/../draw/../misc/lv_style.h **** 
 378:Drivers/lvgl/src/extra/themes/mono/../../../../src/hal/../draw/../misc/lv_style.h **** /**
 379:Drivers/lvgl/src/extra/themes/mono/../../../../src/hal/../draw/../misc/lv_style.h ****  * Remove a property from a style
 380:Drivers/lvgl/src/extra/themes/mono/../../../../src/hal/../draw/../misc/lv_style.h ****  * @param style pointer to a style
 381:Drivers/lvgl/src/extra/themes/mono/../../../../src/hal/../draw/../misc/lv_style.h ****  * @param prop  a style property ORed with a state.
 382:Drivers/lvgl/src/extra/themes/mono/../../../../src/hal/../draw/../misc/lv_style.h ****  * @return true: the property was found and removed; false: the property wasn't found
 383:Drivers/lvgl/src/extra/themes/mono/../../../../src/hal/../draw/../misc/lv_style.h ****  */
 384:Drivers/lvgl/src/extra/themes/mono/../../../../src/hal/../draw/../misc/lv_style.h **** bool lv_style_remove_prop(lv_style_t * style, lv_style_prop_t prop);
 385:Drivers/lvgl/src/extra/themes/mono/../../../../src/hal/../draw/../misc/lv_style.h **** 
 386:Drivers/lvgl/src/extra/themes/mono/../../../../src/hal/../draw/../misc/lv_style.h **** /**
 387:Drivers/lvgl/src/extra/themes/mono/../../../../src/hal/../draw/../misc/lv_style.h ****  * Set the value of property in a style.
 388:Drivers/lvgl/src/extra/themes/mono/../../../../src/hal/../draw/../misc/lv_style.h ****  * This function shouldn't be used directly by the user.
 389:Drivers/lvgl/src/extra/themes/mono/../../../../src/hal/../draw/../misc/lv_style.h ****  * Instead use `lv_style_set_<prop_name>()`. E.g. `lv_style_set_bg_color()`
 390:Drivers/lvgl/src/extra/themes/mono/../../../../src/hal/../draw/../misc/lv_style.h ****  * @param style pointer to style
 391:Drivers/lvgl/src/extra/themes/mono/../../../../src/hal/../draw/../misc/lv_style.h ****  * @param prop the ID of a property (e.g. `LV_STYLE_BG_COLOR`)
 392:Drivers/lvgl/src/extra/themes/mono/../../../../src/hal/../draw/../misc/lv_style.h ****  * @param value `lv_style_value_t` variable in which a field is set according to the type of `prop`
 393:Drivers/lvgl/src/extra/themes/mono/../../../../src/hal/../draw/../misc/lv_style.h ****  */
 394:Drivers/lvgl/src/extra/themes/mono/../../../../src/hal/../draw/../misc/lv_style.h **** void lv_style_set_prop(lv_style_t * style, lv_style_prop_t prop, lv_style_value_t value);
 395:Drivers/lvgl/src/extra/themes/mono/../../../../src/hal/../draw/../misc/lv_style.h **** 
 396:Drivers/lvgl/src/extra/themes/mono/../../../../src/hal/../draw/../misc/lv_style.h **** /**
 397:Drivers/lvgl/src/extra/themes/mono/../../../../src/hal/../draw/../misc/lv_style.h ****  * Set a special meta state for a property in a style.
 398:Drivers/lvgl/src/extra/themes/mono/../../../../src/hal/../draw/../misc/lv_style.h ****  * This function shouldn't be used directly by the user.
 399:Drivers/lvgl/src/extra/themes/mono/../../../../src/hal/../draw/../misc/lv_style.h ****  * @param style pointer to style
 400:Drivers/lvgl/src/extra/themes/mono/../../../../src/hal/../draw/../misc/lv_style.h ****  * @param prop the ID of a property (e.g. `LV_STYLE_BG_COLOR`)
 401:Drivers/lvgl/src/extra/themes/mono/../../../../src/hal/../draw/../misc/lv_style.h ****  * @param meta the meta value to attach to the property in the style
 402:Drivers/lvgl/src/extra/themes/mono/../../../../src/hal/../draw/../misc/lv_style.h ****  */
 403:Drivers/lvgl/src/extra/themes/mono/../../../../src/hal/../draw/../misc/lv_style.h **** void lv_style_set_prop_meta(lv_style_t * style, lv_style_prop_t prop, uint16_t meta);
 404:Drivers/lvgl/src/extra/themes/mono/../../../../src/hal/../draw/../misc/lv_style.h **** 
 405:Drivers/lvgl/src/extra/themes/mono/../../../../src/hal/../draw/../misc/lv_style.h **** /**
 406:Drivers/lvgl/src/extra/themes/mono/../../../../src/hal/../draw/../misc/lv_style.h ****  * Get the value of a property
 407:Drivers/lvgl/src/extra/themes/mono/../../../../src/hal/../draw/../misc/lv_style.h ****  * @param style pointer to a style
 408:Drivers/lvgl/src/extra/themes/mono/../../../../src/hal/../draw/../misc/lv_style.h ****  * @param prop  the ID of a property
 409:Drivers/lvgl/src/extra/themes/mono/../../../../src/hal/../draw/../misc/lv_style.h ****  * @param value pointer to a `lv_style_value_t` variable to store the value
 410:Drivers/lvgl/src/extra/themes/mono/../../../../src/hal/../draw/../misc/lv_style.h ****  * @return LV_RES_INV: the property wasn't found in the style (`value` is unchanged)
 411:Drivers/lvgl/src/extra/themes/mono/../../../../src/hal/../draw/../misc/lv_style.h ****  *         LV_RES_OK: the property was fond, and `value` is set accordingly
 412:Drivers/lvgl/src/extra/themes/mono/../../../../src/hal/../draw/../misc/lv_style.h ****  * @note For performance reasons there are no sanity check on `style`
 413:Drivers/lvgl/src/extra/themes/mono/../../../../src/hal/../draw/../misc/lv_style.h ****  */
 414:Drivers/lvgl/src/extra/themes/mono/../../../../src/hal/../draw/../misc/lv_style.h **** lv_style_res_t lv_style_get_prop(const lv_style_t * style, lv_style_prop_t prop, lv_style_value_t *
 415:Drivers/lvgl/src/extra/themes/mono/../../../../src/hal/../draw/../misc/lv_style.h **** 
 416:Drivers/lvgl/src/extra/themes/mono/../../../../src/hal/../draw/../misc/lv_style.h **** /**
 417:Drivers/lvgl/src/extra/themes/mono/../../../../src/hal/../draw/../misc/lv_style.h ****  * Initialize a transition descriptor.
 418:Drivers/lvgl/src/extra/themes/mono/../../../../src/hal/../draw/../misc/lv_style.h ****  * @param tr        pointer to a transition descriptor to initialize
 419:Drivers/lvgl/src/extra/themes/mono/../../../../src/hal/../draw/../misc/lv_style.h ****  * @param props     an array with the properties to transition. The last element must be zero.
 420:Drivers/lvgl/src/extra/themes/mono/../../../../src/hal/../draw/../misc/lv_style.h ****  * @param path_cb   an animation path (ease) callback. If `NULL` liner path will be used.
 421:Drivers/lvgl/src/extra/themes/mono/../../../../src/hal/../draw/../misc/lv_style.h ****  * @param time      duration of the transition in [ms]
 422:Drivers/lvgl/src/extra/themes/mono/../../../../src/hal/../draw/../misc/lv_style.h ****  * @param delay     delay before the transition in [ms]
 423:Drivers/lvgl/src/extra/themes/mono/../../../../src/hal/../draw/../misc/lv_style.h ****  * @param user_data any custom data that will be saved in the transition animation and will be avai
 424:Drivers/lvgl/src/extra/themes/mono/../../../../src/hal/../draw/../misc/lv_style.h ****  * @example
 425:Drivers/lvgl/src/extra/themes/mono/../../../../src/hal/../draw/../misc/lv_style.h ****  * const static lv_style_prop_t trans_props[] = { LV_STYLE_BG_OPA, LV_STYLE_BG_COLOR, 0 };
ARM GAS  /var/folders/lp/x54gwt890xv47sdkqj1k04q40000gn/T//cc6ygGfE.s 			page 67


 426:Drivers/lvgl/src/extra/themes/mono/../../../../src/hal/../draw/../misc/lv_style.h ****  *  static lv_style_transition_dsc_t trans1;
 427:Drivers/lvgl/src/extra/themes/mono/../../../../src/hal/../draw/../misc/lv_style.h ****  *  lv_style_transition_dsc_init(&trans1, trans_props, NULL, 300, 0, NULL);
 428:Drivers/lvgl/src/extra/themes/mono/../../../../src/hal/../draw/../misc/lv_style.h ****  */
 429:Drivers/lvgl/src/extra/themes/mono/../../../../src/hal/../draw/../misc/lv_style.h **** void lv_style_transition_dsc_init(lv_style_transition_dsc_t * tr, const lv_style_prop_t props[],
 430:Drivers/lvgl/src/extra/themes/mono/../../../../src/hal/../draw/../misc/lv_style.h ****                                   lv_anim_path_cb_t path_cb, uint32_t time, uint32_t delay, void * 
 431:Drivers/lvgl/src/extra/themes/mono/../../../../src/hal/../draw/../misc/lv_style.h **** 
 432:Drivers/lvgl/src/extra/themes/mono/../../../../src/hal/../draw/../misc/lv_style.h **** /**
 433:Drivers/lvgl/src/extra/themes/mono/../../../../src/hal/../draw/../misc/lv_style.h ****  * Get the default value of a property
 434:Drivers/lvgl/src/extra/themes/mono/../../../../src/hal/../draw/../misc/lv_style.h ****  * @param prop the ID of a property
 435:Drivers/lvgl/src/extra/themes/mono/../../../../src/hal/../draw/../misc/lv_style.h ****  * @return the default value
 436:Drivers/lvgl/src/extra/themes/mono/../../../../src/hal/../draw/../misc/lv_style.h ****  */
 437:Drivers/lvgl/src/extra/themes/mono/../../../../src/hal/../draw/../misc/lv_style.h **** lv_style_value_t lv_style_prop_get_default(lv_style_prop_t prop);
 438:Drivers/lvgl/src/extra/themes/mono/../../../../src/hal/../draw/../misc/lv_style.h **** 
 439:Drivers/lvgl/src/extra/themes/mono/../../../../src/hal/../draw/../misc/lv_style.h **** /**
 440:Drivers/lvgl/src/extra/themes/mono/../../../../src/hal/../draw/../misc/lv_style.h ****  * Get the value of a property
 441:Drivers/lvgl/src/extra/themes/mono/../../../../src/hal/../draw/../misc/lv_style.h ****  * @param style pointer to a style
 442:Drivers/lvgl/src/extra/themes/mono/../../../../src/hal/../draw/../misc/lv_style.h ****  * @param prop  the ID of a property
 443:Drivers/lvgl/src/extra/themes/mono/../../../../src/hal/../draw/../misc/lv_style.h ****  * @param value pointer to a `lv_style_value_t` variable to store the value
 444:Drivers/lvgl/src/extra/themes/mono/../../../../src/hal/../draw/../misc/lv_style.h ****  * @return LV_RES_INV: the property wasn't found in the style (`value` is unchanged)
 445:Drivers/lvgl/src/extra/themes/mono/../../../../src/hal/../draw/../misc/lv_style.h ****  *         LV_RES_OK: the property was fond, and `value` is set accordingly
 446:Drivers/lvgl/src/extra/themes/mono/../../../../src/hal/../draw/../misc/lv_style.h ****  * @note For performance reasons there are no sanity check on `style`
 447:Drivers/lvgl/src/extra/themes/mono/../../../../src/hal/../draw/../misc/lv_style.h ****  * @note This function is the same as ::lv_style_get_prop but inlined. Use it only on performance c
 448:Drivers/lvgl/src/extra/themes/mono/../../../../src/hal/../draw/../misc/lv_style.h ****  */
 449:Drivers/lvgl/src/extra/themes/mono/../../../../src/hal/../draw/../misc/lv_style.h **** static inline lv_style_res_t lv_style_get_prop_inlined(const lv_style_t * style, lv_style_prop_t pr
 450:Drivers/lvgl/src/extra/themes/mono/../../../../src/hal/../draw/../misc/lv_style.h ****                                                        lv_style_value_t * value)
 451:Drivers/lvgl/src/extra/themes/mono/../../../../src/hal/../draw/../misc/lv_style.h **** {
 452:Drivers/lvgl/src/extra/themes/mono/../../../../src/hal/../draw/../misc/lv_style.h ****     if(style->prop1 == LV_STYLE_PROP_ANY) {
 453:Drivers/lvgl/src/extra/themes/mono/../../../../src/hal/../draw/../misc/lv_style.h ****         const lv_style_const_prop_t * const_prop;
 454:Drivers/lvgl/src/extra/themes/mono/../../../../src/hal/../draw/../misc/lv_style.h ****         uint32_t i;
 455:Drivers/lvgl/src/extra/themes/mono/../../../../src/hal/../draw/../misc/lv_style.h ****         for(i = 0; i < style->prop_cnt; i++) {
 456:Drivers/lvgl/src/extra/themes/mono/../../../../src/hal/../draw/../misc/lv_style.h ****             const_prop = style->v_p.const_props + i;
 457:Drivers/lvgl/src/extra/themes/mono/../../../../src/hal/../draw/../misc/lv_style.h ****             lv_style_prop_t prop_id = LV_STYLE_PROP_ID_MASK(const_prop->prop);
 458:Drivers/lvgl/src/extra/themes/mono/../../../../src/hal/../draw/../misc/lv_style.h ****             if(prop_id == prop) {
 459:Drivers/lvgl/src/extra/themes/mono/../../../../src/hal/../draw/../misc/lv_style.h ****                 if(const_prop->prop & LV_STYLE_PROP_META_INHERIT)
 460:Drivers/lvgl/src/extra/themes/mono/../../../../src/hal/../draw/../misc/lv_style.h ****                     return LV_STYLE_RES_INHERIT;
 461:Drivers/lvgl/src/extra/themes/mono/../../../../src/hal/../draw/../misc/lv_style.h ****                 *value = (const_prop->prop & LV_STYLE_PROP_META_INITIAL) ? lv_style_prop_get_defaul
 462:Drivers/lvgl/src/extra/themes/mono/../../../../src/hal/../draw/../misc/lv_style.h ****                 return LV_STYLE_RES_FOUND;
 463:Drivers/lvgl/src/extra/themes/mono/../../../../src/hal/../draw/../misc/lv_style.h ****             }
 464:Drivers/lvgl/src/extra/themes/mono/../../../../src/hal/../draw/../misc/lv_style.h ****         }
 465:Drivers/lvgl/src/extra/themes/mono/../../../../src/hal/../draw/../misc/lv_style.h ****         return LV_STYLE_RES_NOT_FOUND;
 466:Drivers/lvgl/src/extra/themes/mono/../../../../src/hal/../draw/../misc/lv_style.h ****     }
 467:Drivers/lvgl/src/extra/themes/mono/../../../../src/hal/../draw/../misc/lv_style.h **** 
 468:Drivers/lvgl/src/extra/themes/mono/../../../../src/hal/../draw/../misc/lv_style.h ****     if(style->prop_cnt == 0) return LV_STYLE_RES_NOT_FOUND;
 469:Drivers/lvgl/src/extra/themes/mono/../../../../src/hal/../draw/../misc/lv_style.h **** 
 470:Drivers/lvgl/src/extra/themes/mono/../../../../src/hal/../draw/../misc/lv_style.h ****     if(style->prop_cnt > 1) {
 471:Drivers/lvgl/src/extra/themes/mono/../../../../src/hal/../draw/../misc/lv_style.h ****         uint8_t * tmp = style->v_p.values_and_props + style->prop_cnt * sizeof(lv_style_value_t);
 472:Drivers/lvgl/src/extra/themes/mono/../../../../src/hal/../draw/../misc/lv_style.h ****         uint16_t * props = (uint16_t *)tmp;
 473:Drivers/lvgl/src/extra/themes/mono/../../../../src/hal/../draw/../misc/lv_style.h ****         uint32_t i;
 474:Drivers/lvgl/src/extra/themes/mono/../../../../src/hal/../draw/../misc/lv_style.h ****         for(i = 0; i < style->prop_cnt; i++) {
 475:Drivers/lvgl/src/extra/themes/mono/../../../../src/hal/../draw/../misc/lv_style.h ****             lv_style_prop_t prop_id = LV_STYLE_PROP_ID_MASK(props[i]);
 476:Drivers/lvgl/src/extra/themes/mono/../../../../src/hal/../draw/../misc/lv_style.h ****             if(prop_id == prop) {
 477:Drivers/lvgl/src/extra/themes/mono/../../../../src/hal/../draw/../misc/lv_style.h ****                 if(props[i] & LV_STYLE_PROP_META_INHERIT)
 478:Drivers/lvgl/src/extra/themes/mono/../../../../src/hal/../draw/../misc/lv_style.h ****                     return LV_STYLE_RES_INHERIT;
 479:Drivers/lvgl/src/extra/themes/mono/../../../../src/hal/../draw/../misc/lv_style.h ****                 if(props[i] & LV_STYLE_PROP_META_INITIAL)
 480:Drivers/lvgl/src/extra/themes/mono/../../../../src/hal/../draw/../misc/lv_style.h ****                     *value = lv_style_prop_get_default(prop_id);
 481:Drivers/lvgl/src/extra/themes/mono/../../../../src/hal/../draw/../misc/lv_style.h ****                 else {
 482:Drivers/lvgl/src/extra/themes/mono/../../../../src/hal/../draw/../misc/lv_style.h ****                     lv_style_value_t * values = (lv_style_value_t *)style->v_p.values_and_props;
ARM GAS  /var/folders/lp/x54gwt890xv47sdkqj1k04q40000gn/T//cc6ygGfE.s 			page 68


 483:Drivers/lvgl/src/extra/themes/mono/../../../../src/hal/../draw/../misc/lv_style.h ****                     *value = values[i];
 484:Drivers/lvgl/src/extra/themes/mono/../../../../src/hal/../draw/../misc/lv_style.h ****                 }
 485:Drivers/lvgl/src/extra/themes/mono/../../../../src/hal/../draw/../misc/lv_style.h ****                 return LV_STYLE_RES_FOUND;
 486:Drivers/lvgl/src/extra/themes/mono/../../../../src/hal/../draw/../misc/lv_style.h ****             }
 487:Drivers/lvgl/src/extra/themes/mono/../../../../src/hal/../draw/../misc/lv_style.h ****         }
 488:Drivers/lvgl/src/extra/themes/mono/../../../../src/hal/../draw/../misc/lv_style.h ****     }
 489:Drivers/lvgl/src/extra/themes/mono/../../../../src/hal/../draw/../misc/lv_style.h ****     else if(LV_STYLE_PROP_ID_MASK(style->prop1) == prop) {
 490:Drivers/lvgl/src/extra/themes/mono/../../../../src/hal/../draw/../misc/lv_style.h ****         if(style->prop1 & LV_STYLE_PROP_META_INHERIT)
 491:Drivers/lvgl/src/extra/themes/mono/../../../../src/hal/../draw/../misc/lv_style.h ****             return LV_STYLE_RES_INHERIT;
 492:Drivers/lvgl/src/extra/themes/mono/../../../../src/hal/../draw/../misc/lv_style.h ****         *value = (style->prop1 & LV_STYLE_PROP_META_INITIAL) ? lv_style_prop_get_default(LV_STYLE_P
 493:Drivers/lvgl/src/extra/themes/mono/../../../../src/hal/../draw/../misc/lv_style.h ****                                                                                              style-
 494:Drivers/lvgl/src/extra/themes/mono/../../../../src/hal/../draw/../misc/lv_style.h ****         return LV_STYLE_RES_FOUND;
 495:Drivers/lvgl/src/extra/themes/mono/../../../../src/hal/../draw/../misc/lv_style.h ****     }
 496:Drivers/lvgl/src/extra/themes/mono/../../../../src/hal/../draw/../misc/lv_style.h ****     return LV_STYLE_RES_NOT_FOUND;
 497:Drivers/lvgl/src/extra/themes/mono/../../../../src/hal/../draw/../misc/lv_style.h **** }
 498:Drivers/lvgl/src/extra/themes/mono/../../../../src/hal/../draw/../misc/lv_style.h **** 
 499:Drivers/lvgl/src/extra/themes/mono/../../../../src/hal/../draw/../misc/lv_style.h **** /**
 500:Drivers/lvgl/src/extra/themes/mono/../../../../src/hal/../draw/../misc/lv_style.h ****  * Checks if a style is empty (has no properties)
 501:Drivers/lvgl/src/extra/themes/mono/../../../../src/hal/../draw/../misc/lv_style.h ****  * @param style pointer to a style
 502:Drivers/lvgl/src/extra/themes/mono/../../../../src/hal/../draw/../misc/lv_style.h ****  * @return true if the style is empty
 503:Drivers/lvgl/src/extra/themes/mono/../../../../src/hal/../draw/../misc/lv_style.h ****  */
 504:Drivers/lvgl/src/extra/themes/mono/../../../../src/hal/../draw/../misc/lv_style.h **** bool lv_style_is_empty(const lv_style_t * style);
 505:Drivers/lvgl/src/extra/themes/mono/../../../../src/hal/../draw/../misc/lv_style.h **** 
 506:Drivers/lvgl/src/extra/themes/mono/../../../../src/hal/../draw/../misc/lv_style.h **** /**
 507:Drivers/lvgl/src/extra/themes/mono/../../../../src/hal/../draw/../misc/lv_style.h ****  * Tell the group of a property. If the a property from a group is set in a style the (1 << group) 
 508:Drivers/lvgl/src/extra/themes/mono/../../../../src/hal/../draw/../misc/lv_style.h ****  * It allows early skipping the style if the property is not exists in the style at all.
 509:Drivers/lvgl/src/extra/themes/mono/../../../../src/hal/../draw/../misc/lv_style.h ****  * @param prop a style property
 510:Drivers/lvgl/src/extra/themes/mono/../../../../src/hal/../draw/../misc/lv_style.h ****  * @return the group [0..7] 7 means all the custom properties with index > 112
 511:Drivers/lvgl/src/extra/themes/mono/../../../../src/hal/../draw/../misc/lv_style.h ****  */
 512:Drivers/lvgl/src/extra/themes/mono/../../../../src/hal/../draw/../misc/lv_style.h **** uint8_t _lv_style_get_prop_group(lv_style_prop_t prop);
 513:Drivers/lvgl/src/extra/themes/mono/../../../../src/hal/../draw/../misc/lv_style.h **** 
 514:Drivers/lvgl/src/extra/themes/mono/../../../../src/hal/../draw/../misc/lv_style.h **** /**
 515:Drivers/lvgl/src/extra/themes/mono/../../../../src/hal/../draw/../misc/lv_style.h ****  * Get the flags of a built-in or custom property.
 516:Drivers/lvgl/src/extra/themes/mono/../../../../src/hal/../draw/../misc/lv_style.h ****  *
 517:Drivers/lvgl/src/extra/themes/mono/../../../../src/hal/../draw/../misc/lv_style.h ****  * @param prop a style property
 518:Drivers/lvgl/src/extra/themes/mono/../../../../src/hal/../draw/../misc/lv_style.h ****  * @return the flags of the property
 519:Drivers/lvgl/src/extra/themes/mono/../../../../src/hal/../draw/../misc/lv_style.h ****  */
 520:Drivers/lvgl/src/extra/themes/mono/../../../../src/hal/../draw/../misc/lv_style.h **** uint8_t _lv_style_prop_lookup_flags(lv_style_prop_t prop);
 521:Drivers/lvgl/src/extra/themes/mono/../../../../src/hal/../draw/../misc/lv_style.h **** 
 522:Drivers/lvgl/src/extra/themes/mono/../../../../src/hal/../draw/../misc/lv_style.h **** #include "lv_style_gen.h"
 523:Drivers/lvgl/src/extra/themes/mono/../../../../src/hal/../draw/../misc/lv_style.h **** 
 524:Drivers/lvgl/src/extra/themes/mono/../../../../src/hal/../draw/../misc/lv_style.h **** static inline void lv_style_set_size(lv_style_t * style, lv_coord_t value)
 525:Drivers/lvgl/src/extra/themes/mono/../../../../src/hal/../draw/../misc/lv_style.h **** {
 526:Drivers/lvgl/src/extra/themes/mono/../../../../src/hal/../draw/../misc/lv_style.h ****     lv_style_set_width(style, value);
 527:Drivers/lvgl/src/extra/themes/mono/../../../../src/hal/../draw/../misc/lv_style.h ****     lv_style_set_height(style, value);
 528:Drivers/lvgl/src/extra/themes/mono/../../../../src/hal/../draw/../misc/lv_style.h **** }
 529:Drivers/lvgl/src/extra/themes/mono/../../../../src/hal/../draw/../misc/lv_style.h **** 
 530:Drivers/lvgl/src/extra/themes/mono/../../../../src/hal/../draw/../misc/lv_style.h **** static inline void lv_style_set_pad_all(lv_style_t * style, lv_coord_t value)
 1801              		.loc 3 530 20 view .LVU391
 1802              	.LBB205:
 531:Drivers/lvgl/src/extra/themes/mono/../../../../src/hal/../draw/../misc/lv_style.h **** {
 532:Drivers/lvgl/src/extra/themes/mono/../../../../src/hal/../draw/../misc/lv_style.h ****     lv_style_set_pad_left(style, value);
 1803              		.loc 3 532 5 view .LVU392
 1804 0130 5846     		mov	r0, fp
 1805 0132 0421     		movs	r1, #4
 1806 0134 FFF7FEFF 		bl	lv_style_set_pad_left
 1807              	.LVL184:
ARM GAS  /var/folders/lp/x54gwt890xv47sdkqj1k04q40000gn/T//cc6ygGfE.s 			page 69


 533:Drivers/lvgl/src/extra/themes/mono/../../../../src/hal/../draw/../misc/lv_style.h ****     lv_style_set_pad_right(style, value);
 1808              		.loc 3 533 5 view .LVU393
 1809 0138 5846     		mov	r0, fp
 1810 013a 0421     		movs	r1, #4
 1811 013c FFF7FEFF 		bl	lv_style_set_pad_right
 1812              	.LVL185:
 534:Drivers/lvgl/src/extra/themes/mono/../../../../src/hal/../draw/../misc/lv_style.h ****     lv_style_set_pad_top(style, value);
 1813              		.loc 3 534 5 view .LVU394
 1814 0140 5846     		mov	r0, fp
 1815 0142 0421     		movs	r1, #4
 1816 0144 FFF7FEFF 		bl	lv_style_set_pad_top
 1817              	.LVL186:
 535:Drivers/lvgl/src/extra/themes/mono/../../../../src/hal/../draw/../misc/lv_style.h ****     lv_style_set_pad_bottom(style, value);
 1818              		.loc 3 535 5 view .LVU395
 1819 0148 5846     		mov	r0, fp
 1820 014a 0421     		movs	r1, #4
 1821 014c FFF7FEFF 		bl	lv_style_set_pad_bottom
 1822              	.LVL187:
 1823              		.loc 3 535 5 is_stmt 0 view .LVU396
 1824              	.LBE205:
 1825              	.LBE204:
  99:Drivers/lvgl/src/extra/themes/mono/lv_theme_mono.c ****     lv_style_set_text_color(&styles->card, COLOR_FG);
 1826              		.loc 1 99 5 is_stmt 1 view .LVU397
 1827 0150 2068     		ldr	r0, [r4]
 1828 0152 00F1080B 		add	fp, r0, #8
 1829              	.LVL188:
 1830              	.LBB206:
 1831              	.LBI206:
 536:Drivers/lvgl/src/extra/themes/mono/../../../../src/hal/../draw/../misc/lv_style.h **** }
 537:Drivers/lvgl/src/extra/themes/mono/../../../../src/hal/../draw/../misc/lv_style.h **** 
 538:Drivers/lvgl/src/extra/themes/mono/../../../../src/hal/../draw/../misc/lv_style.h **** static inline void lv_style_set_pad_hor(lv_style_t * style, lv_coord_t value)
 539:Drivers/lvgl/src/extra/themes/mono/../../../../src/hal/../draw/../misc/lv_style.h **** {
 540:Drivers/lvgl/src/extra/themes/mono/../../../../src/hal/../draw/../misc/lv_style.h ****     lv_style_set_pad_left(style, value);
 541:Drivers/lvgl/src/extra/themes/mono/../../../../src/hal/../draw/../misc/lv_style.h ****     lv_style_set_pad_right(style, value);
 542:Drivers/lvgl/src/extra/themes/mono/../../../../src/hal/../draw/../misc/lv_style.h **** }
 543:Drivers/lvgl/src/extra/themes/mono/../../../../src/hal/../draw/../misc/lv_style.h **** 
 544:Drivers/lvgl/src/extra/themes/mono/../../../../src/hal/../draw/../misc/lv_style.h **** static inline void lv_style_set_pad_ver(lv_style_t * style, lv_coord_t value)
 545:Drivers/lvgl/src/extra/themes/mono/../../../../src/hal/../draw/../misc/lv_style.h **** {
 546:Drivers/lvgl/src/extra/themes/mono/../../../../src/hal/../draw/../misc/lv_style.h ****     lv_style_set_pad_top(style, value);
 547:Drivers/lvgl/src/extra/themes/mono/../../../../src/hal/../draw/../misc/lv_style.h ****     lv_style_set_pad_bottom(style, value);
 548:Drivers/lvgl/src/extra/themes/mono/../../../../src/hal/../draw/../misc/lv_style.h **** }
 549:Drivers/lvgl/src/extra/themes/mono/../../../../src/hal/../draw/../misc/lv_style.h **** 
 550:Drivers/lvgl/src/extra/themes/mono/../../../../src/hal/../draw/../misc/lv_style.h **** static inline void lv_style_set_pad_gap(lv_style_t * style, lv_coord_t value)
 1832              		.loc 3 550 20 view .LVU398
 1833              	.LBB207:
 551:Drivers/lvgl/src/extra/themes/mono/../../../../src/hal/../draw/../misc/lv_style.h **** {
 552:Drivers/lvgl/src/extra/themes/mono/../../../../src/hal/../draw/../misc/lv_style.h ****     lv_style_set_pad_row(style, value);
 1834              		.loc 3 552 5 view .LVU399
 1835 0156 0421     		movs	r1, #4
 1836 0158 5846     		mov	r0, fp
 1837 015a FFF7FEFF 		bl	lv_style_set_pad_row
 1838              	.LVL189:
 553:Drivers/lvgl/src/extra/themes/mono/../../../../src/hal/../draw/../misc/lv_style.h ****     lv_style_set_pad_column(style, value);
 1839              		.loc 3 553 5 view .LVU400
 1840 015e 5846     		mov	r0, fp
 1841 0160 0421     		movs	r1, #4
 1842 0162 FFF7FEFF 		bl	lv_style_set_pad_column
ARM GAS  /var/folders/lp/x54gwt890xv47sdkqj1k04q40000gn/T//cc6ygGfE.s 			page 70


 1843              	.LVL190:
 1844              		.loc 3 553 5 is_stmt 0 view .LVU401
 1845              	.LBE207:
 1846              	.LBE206:
 100:Drivers/lvgl/src/extra/themes/mono/lv_theme_mono.c ****     lv_style_set_line_width(&styles->card, 2);
 1847              		.loc 1 100 5 is_stmt 1 view .LVU402
 1848 0166 2068     		ldr	r0, [r4]
 1849 0168 0830     		adds	r0, r0, #8
 1850 016a 002E     		cmp	r6, #0
 1851 016c 00F0AC81 		beq	.L87
 100:Drivers/lvgl/src/extra/themes/mono/lv_theme_mono.c ****     lv_style_set_line_width(&styles->card, 2);
 1852              		.loc 1 100 5 is_stmt 0 discriminator 4 view .LVU403
 1853 0170 4FF0FF31 		mov	r1, #-1	@ movhi
 1854 0174 FFF7FEFF 		bl	lv_style_set_text_color
 1855              	.LVL191:
 101:Drivers/lvgl/src/extra/themes/mono/lv_theme_mono.c ****     lv_style_set_line_color(&styles->card, COLOR_FG);
 1856              		.loc 1 101 5 is_stmt 1 view .LVU404
 1857 0178 2068     		ldr	r0, [r4]
 1858 017a 0221     		movs	r1, #2
 1859 017c 0830     		adds	r0, r0, #8
 1860 017e FFF7FEFF 		bl	lv_style_set_line_width
 1861              	.LVL192:
 102:Drivers/lvgl/src/extra/themes/mono/lv_theme_mono.c ****     lv_style_set_arc_width(&styles->card, 2);
 1862              		.loc 1 102 5 view .LVU405
 1863 0182 2068     		ldr	r0, [r4]
 102:Drivers/lvgl/src/extra/themes/mono/lv_theme_mono.c ****     lv_style_set_arc_width(&styles->card, 2);
 1864              		.loc 1 102 5 is_stmt 0 discriminator 4 view .LVU406
 1865 0184 4FF0FF31 		mov	r1, #-1	@ movhi
 1866 0188 0830     		adds	r0, r0, #8
 1867 018a FFF7FEFF 		bl	lv_style_set_line_color
 1868              	.LVL193:
 103:Drivers/lvgl/src/extra/themes/mono/lv_theme_mono.c ****     lv_style_set_arc_color(&styles->card, COLOR_FG);
 1869              		.loc 1 103 5 is_stmt 1 view .LVU407
 1870 018e 2068     		ldr	r0, [r4]
 1871 0190 0221     		movs	r1, #2
 1872 0192 0830     		adds	r0, r0, #8
 1873 0194 FFF7FEFF 		bl	lv_style_set_arc_width
 1874              	.LVL194:
 104:Drivers/lvgl/src/extra/themes/mono/lv_theme_mono.c ****     lv_style_set_outline_color(&styles->card, COLOR_FG);
 1875              		.loc 1 104 5 view .LVU408
 1876 0198 2068     		ldr	r0, [r4]
 104:Drivers/lvgl/src/extra/themes/mono/lv_theme_mono.c ****     lv_style_set_outline_color(&styles->card, COLOR_FG);
 1877              		.loc 1 104 5 is_stmt 0 discriminator 4 view .LVU409
 1878 019a 4FF0FF31 		mov	r1, #-1	@ movhi
 1879 019e 0830     		adds	r0, r0, #8
 1880 01a0 FFF7FEFF 		bl	lv_style_set_arc_color
 1881              	.LVL195:
 105:Drivers/lvgl/src/extra/themes/mono/lv_theme_mono.c ****     lv_style_set_anim_time(&styles->card, 300);
 1882              		.loc 1 105 5 is_stmt 1 view .LVU410
 1883 01a4 2068     		ldr	r0, [r4]
 1884 01a6 0830     		adds	r0, r0, #8
 1885              	.LBB208:
 1886              	.LBI208:
 696:Drivers/lvgl/src/extra/themes/mono/../../../../src/hal/../draw/../misc/lv_color.h **** {
 1887              		.loc 2 696 26 view .LVU411
 1888              	.LBB209:
 1889              		.loc 2 698 5 view .LVU412
ARM GAS  /var/folders/lp/x54gwt890xv47sdkqj1k04q40000gn/T//cc6ygGfE.s 			page 71


 1890              	.L88:
 1891 01a8 4FF00001 		mov	r1, #0	@ movhi
 1892 01ac 67F30201 		bfi	r1, r7, #0, #3
 1893 01b0 68F3C701 		bfi	r1, r8, #3, #5
 1894 01b4 68F30C21 		bfi	r1, r8, #8, #5
 1895 01b8 67F34F31 		bfi	r1, r7, #13, #3
 1896              	.LBE209:
 1897              	.LBE208:
 105:Drivers/lvgl/src/extra/themes/mono/lv_theme_mono.c ****     lv_style_set_anim_time(&styles->card, 300);
 1898              		.loc 1 105 5 is_stmt 0 discriminator 4 view .LVU413
 1899 01bc FFF7FEFF 		bl	lv_style_set_outline_color
 1900              	.LVL196:
 106:Drivers/lvgl/src/extra/themes/mono/lv_theme_mono.c **** 
 1901              		.loc 1 106 5 is_stmt 1 view .LVU414
 1902 01c0 2068     		ldr	r0, [r4]
 1903 01c2 4FF49671 		mov	r1, #300
 1904 01c6 0830     		adds	r0, r0, #8
 1905 01c8 FFF7FEFF 		bl	lv_style_set_anim_time
 1906              	.LVL197:
 108:Drivers/lvgl/src/extra/themes/mono/lv_theme_mono.c ****     lv_style_set_border_width(&styles->pr, BORDER_W_PR);
 1907              		.loc 1 108 5 view .LVU415
 1908 01cc 2068     		ldr	r0, [r4]
 1909              	.LBB210:
 1910              	.LBB211:
 496:Drivers/lvgl/src/extra/themes/mono/lv_theme_mono.c ****         lv_style_reset(style);
 1911              		.loc 1 496 7 is_stmt 0 view .LVU416
 1912 01ce 2B78     		ldrb	r3, [r5]	@ zero_extendqisi2
 1913              	.LBE211:
 1914              	.LBE210:
 108:Drivers/lvgl/src/extra/themes/mono/lv_theme_mono.c ****     lv_style_set_border_width(&styles->pr, BORDER_W_PR);
 1915              		.loc 1 108 5 view .LVU417
 1916 01d0 2030     		adds	r0, r0, #32
 1917              	.LVL198:
 1918              	.LBB214:
 1919              	.LBI210:
 494:Drivers/lvgl/src/extra/themes/mono/lv_theme_mono.c **** {
 1920              		.loc 1 494 13 is_stmt 1 view .LVU418
 1921              	.LBB212:
 496:Drivers/lvgl/src/extra/themes/mono/lv_theme_mono.c ****         lv_style_reset(style);
 1922              		.loc 1 496 5 view .LVU419
 496:Drivers/lvgl/src/extra/themes/mono/lv_theme_mono.c ****         lv_style_reset(style);
 1923              		.loc 1 496 7 is_stmt 0 view .LVU420
 1924 01d2 002B     		cmp	r3, #0
 1925 01d4 00F07581 		beq	.L89
 1926              		.loc 1 497 9 is_stmt 1 view .LVU421
 1927 01d8 FFF7FEFF 		bl	lv_style_reset
 1928              	.LVL199:
 1929              	.L90:
 1930              		.loc 1 497 9 is_stmt 0 view .LVU422
 1931              	.LBE212:
 1932              	.LBE214:
 109:Drivers/lvgl/src/extra/themes/mono/lv_theme_mono.c **** 
 1933              		.loc 1 109 5 is_stmt 1 view .LVU423
 1934 01dc 2068     		ldr	r0, [r4]
 1935 01de 0321     		movs	r1, #3
 1936 01e0 2030     		adds	r0, r0, #32
 1937 01e2 FFF7FEFF 		bl	lv_style_set_border_width
ARM GAS  /var/folders/lp/x54gwt890xv47sdkqj1k04q40000gn/T//cc6ygGfE.s 			page 72


 1938              	.LVL200:
 111:Drivers/lvgl/src/extra/themes/mono/lv_theme_mono.c ****     lv_style_set_bg_opa(&styles->inv, LV_OPA_COVER);
 1939              		.loc 1 111 5 view .LVU424
 1940 01e6 2068     		ldr	r0, [r4]
 1941              	.LBB215:
 1942              	.LBB216:
 496:Drivers/lvgl/src/extra/themes/mono/lv_theme_mono.c ****         lv_style_reset(style);
 1943              		.loc 1 496 7 is_stmt 0 view .LVU425
 1944 01e8 2B78     		ldrb	r3, [r5]	@ zero_extendqisi2
 1945              	.LBE216:
 1946              	.LBE215:
 111:Drivers/lvgl/src/extra/themes/mono/lv_theme_mono.c ****     lv_style_set_bg_opa(&styles->inv, LV_OPA_COVER);
 1947              		.loc 1 111 5 view .LVU426
 1948 01ea 2830     		adds	r0, r0, #40
 1949              	.LVL201:
 1950              	.LBB219:
 1951              	.LBI215:
 494:Drivers/lvgl/src/extra/themes/mono/lv_theme_mono.c **** {
 1952              		.loc 1 494 13 is_stmt 1 view .LVU427
 1953              	.LBB217:
 496:Drivers/lvgl/src/extra/themes/mono/lv_theme_mono.c ****         lv_style_reset(style);
 1954              		.loc 1 496 5 view .LVU428
 496:Drivers/lvgl/src/extra/themes/mono/lv_theme_mono.c ****         lv_style_reset(style);
 1955              		.loc 1 496 7 is_stmt 0 view .LVU429
 1956 01ec 002B     		cmp	r3, #0
 1957 01ee 00F06581 		beq	.L91
 1958              		.loc 1 497 9 is_stmt 1 view .LVU430
 1959 01f2 FFF7FEFF 		bl	lv_style_reset
 1960              	.LVL202:
 1961              	.L92:
 1962              		.loc 1 497 9 is_stmt 0 view .LVU431
 1963              	.LBE217:
 1964              	.LBE219:
 112:Drivers/lvgl/src/extra/themes/mono/lv_theme_mono.c ****     lv_style_set_bg_color(&styles->inv, COLOR_FG);
 1965              		.loc 1 112 5 is_stmt 1 view .LVU432
 1966 01f6 2068     		ldr	r0, [r4]
 1967 01f8 FF21     		movs	r1, #255
 1968 01fa 2830     		adds	r0, r0, #40
 1969 01fc FFF7FEFF 		bl	lv_style_set_bg_opa
 1970              	.LVL203:
 113:Drivers/lvgl/src/extra/themes/mono/lv_theme_mono.c ****     lv_style_set_border_color(&styles->inv, COLOR_BG);
 1971              		.loc 1 113 5 view .LVU433
 1972 0200 2068     		ldr	r0, [r4]
 1973 0202 2830     		adds	r0, r0, #40
 1974 0204 002E     		cmp	r6, #0
 1975 0206 00F03981 		beq	.L93
 113:Drivers/lvgl/src/extra/themes/mono/lv_theme_mono.c ****     lv_style_set_border_color(&styles->inv, COLOR_BG);
 1976              		.loc 1 113 5 is_stmt 0 discriminator 4 view .LVU434
 1977 020a 4FF0FF31 		mov	r1, #-1	@ movhi
 1978 020e FFF7FEFF 		bl	lv_style_set_bg_color
 1979              	.LVL204:
 114:Drivers/lvgl/src/extra/themes/mono/lv_theme_mono.c ****     lv_style_set_line_color(&styles->inv, COLOR_BG);
 1980              		.loc 1 114 5 is_stmt 1 view .LVU435
 1981 0212 2068     		ldr	r0, [r4]
 114:Drivers/lvgl/src/extra/themes/mono/lv_theme_mono.c ****     lv_style_set_line_color(&styles->inv, COLOR_BG);
 1982              		.loc 1 114 5 is_stmt 0 discriminator 4 view .LVU436
 1983 0214 4FF00001 		mov	r1, #0	@ movhi
ARM GAS  /var/folders/lp/x54gwt890xv47sdkqj1k04q40000gn/T//cc6ygGfE.s 			page 73


 1984 0218 2830     		adds	r0, r0, #40
 1985 021a FFF7FEFF 		bl	lv_style_set_border_color
 1986              	.LVL205:
 115:Drivers/lvgl/src/extra/themes/mono/lv_theme_mono.c ****     lv_style_set_arc_color(&styles->inv, COLOR_BG);
 1987              		.loc 1 115 5 is_stmt 1 view .LVU437
 1988 021e 2068     		ldr	r0, [r4]
 115:Drivers/lvgl/src/extra/themes/mono/lv_theme_mono.c ****     lv_style_set_arc_color(&styles->inv, COLOR_BG);
 1989              		.loc 1 115 5 is_stmt 0 discriminator 4 view .LVU438
 1990 0220 4FF00001 		mov	r1, #0	@ movhi
 1991 0224 2830     		adds	r0, r0, #40
 1992 0226 FFF7FEFF 		bl	lv_style_set_line_color
 1993              	.LVL206:
 116:Drivers/lvgl/src/extra/themes/mono/lv_theme_mono.c ****     lv_style_set_text_color(&styles->inv, COLOR_BG);
 1994              		.loc 1 116 5 is_stmt 1 view .LVU439
 1995 022a 2068     		ldr	r0, [r4]
 116:Drivers/lvgl/src/extra/themes/mono/lv_theme_mono.c ****     lv_style_set_text_color(&styles->inv, COLOR_BG);
 1996              		.loc 1 116 5 is_stmt 0 discriminator 4 view .LVU440
 1997 022c 4FF00001 		mov	r1, #0	@ movhi
 1998 0230 2830     		adds	r0, r0, #40
 1999 0232 FFF7FEFF 		bl	lv_style_set_arc_color
 2000              	.LVL207:
 117:Drivers/lvgl/src/extra/themes/mono/lv_theme_mono.c ****     lv_style_set_outline_color(&styles->inv, COLOR_BG);
 2001              		.loc 1 117 5 is_stmt 1 view .LVU441
 2002 0236 2068     		ldr	r0, [r4]
 117:Drivers/lvgl/src/extra/themes/mono/lv_theme_mono.c ****     lv_style_set_outline_color(&styles->inv, COLOR_BG);
 2003              		.loc 1 117 5 is_stmt 0 discriminator 4 view .LVU442
 2004 0238 4FF00001 		mov	r1, #0	@ movhi
 2005 023c 2830     		adds	r0, r0, #40
 2006 023e FFF7FEFF 		bl	lv_style_set_text_color
 2007              	.LVL208:
 118:Drivers/lvgl/src/extra/themes/mono/lv_theme_mono.c **** 
 2008              		.loc 1 118 5 is_stmt 1 view .LVU443
 2009 0242 2068     		ldr	r0, [r4]
 2010              	.LBB220:
 2011              	.LBB221:
 699:Drivers/lvgl/src/extra/themes/mono/../../../../src/hal/../draw/../misc/lv_color.h **** }
 700:Drivers/lvgl/src/extra/themes/mono/../../../../src/hal/../draw/../misc/lv_color.h **** static inline lv_color_t lv_color_black(void)
 701:Drivers/lvgl/src/extra/themes/mono/../../../../src/hal/../draw/../misc/lv_color.h **** {
 702:Drivers/lvgl/src/extra/themes/mono/../../../../src/hal/../draw/../misc/lv_color.h ****     return lv_color_make(0x00, 0x0, 0x00);
 2012              		.loc 2 702 12 is_stmt 0 view .LVU444
 2013 0244 0023     		movs	r3, #0
 2014 0246 1A46     		mov	r2, r3
 2015              	.LBE221:
 2016              	.LBE220:
 118:Drivers/lvgl/src/extra/themes/mono/lv_theme_mono.c **** 
 2017              		.loc 1 118 5 view .LVU445
 2018 0248 2830     		adds	r0, r0, #40
 2019              	.LBB223:
 2020              	.LBI220:
 700:Drivers/lvgl/src/extra/themes/mono/../../../../src/hal/../draw/../misc/lv_color.h **** {
 2021              		.loc 2 700 26 is_stmt 1 view .LVU446
 2022              	.LBB222:
 2023              		.loc 2 702 5 view .LVU447
 2024              	.L94:
 2025 024a 4FF00001 		mov	r1, #0	@ movhi
 2026 024e 62F30201 		bfi	r1, r2, #0, #3
 2027 0252 63F3C701 		bfi	r1, r3, #3, #5
ARM GAS  /var/folders/lp/x54gwt890xv47sdkqj1k04q40000gn/T//cc6ygGfE.s 			page 74


 2028 0256 63F30C21 		bfi	r1, r3, #8, #5
 2029 025a 62F34F31 		bfi	r1, r2, #13, #3
 2030              	.LBE222:
 2031              	.LBE223:
 118:Drivers/lvgl/src/extra/themes/mono/lv_theme_mono.c **** 
 2032              		.loc 1 118 5 is_stmt 0 discriminator 4 view .LVU448
 2033 025e FFF7FEFF 		bl	lv_style_set_outline_color
 2034              	.LVL209:
 120:Drivers/lvgl/src/extra/themes/mono/lv_theme_mono.c ****     lv_style_set_border_width(&styles->disabled, BORDER_W_DIS);
 2035              		.loc 1 120 5 is_stmt 1 view .LVU449
 2036 0262 2068     		ldr	r0, [r4]
 2037              	.LBB224:
 2038              	.LBB225:
 496:Drivers/lvgl/src/extra/themes/mono/lv_theme_mono.c ****         lv_style_reset(style);
 2039              		.loc 1 496 7 is_stmt 0 view .LVU450
 2040 0264 2B78     		ldrb	r3, [r5]	@ zero_extendqisi2
 2041              	.LBE225:
 2042              	.LBE224:
 120:Drivers/lvgl/src/extra/themes/mono/lv_theme_mono.c ****     lv_style_set_border_width(&styles->disabled, BORDER_W_DIS);
 2043              		.loc 1 120 5 view .LVU451
 2044 0266 3030     		adds	r0, r0, #48
 2045              	.LVL210:
 2046              	.LBB228:
 2047              	.LBI224:
 494:Drivers/lvgl/src/extra/themes/mono/lv_theme_mono.c **** {
 2048              		.loc 1 494 13 is_stmt 1 view .LVU452
 2049              	.LBB226:
 496:Drivers/lvgl/src/extra/themes/mono/lv_theme_mono.c ****         lv_style_reset(style);
 2050              		.loc 1 496 5 view .LVU453
 496:Drivers/lvgl/src/extra/themes/mono/lv_theme_mono.c ****         lv_style_reset(style);
 2051              		.loc 1 496 7 is_stmt 0 view .LVU454
 2052 0268 002B     		cmp	r3, #0
 2053 026a 00F00481 		beq	.L95
 2054              		.loc 1 497 9 is_stmt 1 view .LVU455
 2055 026e FFF7FEFF 		bl	lv_style_reset
 2056              	.LVL211:
 2057              	.L96:
 2058              		.loc 1 497 9 is_stmt 0 view .LVU456
 2059              	.LBE226:
 2060              	.LBE228:
 121:Drivers/lvgl/src/extra/themes/mono/lv_theme_mono.c **** 
 2061              		.loc 1 121 5 is_stmt 1 view .LVU457
 2062 0272 2068     		ldr	r0, [r4]
 2063 0274 0021     		movs	r1, #0
 2064 0276 3030     		adds	r0, r0, #48
 2065 0278 FFF7FEFF 		bl	lv_style_set_border_width
 2066              	.LVL212:
 123:Drivers/lvgl/src/extra/themes/mono/lv_theme_mono.c ****     lv_style_set_outline_width(&styles->focus, 1);
 2067              		.loc 1 123 5 view .LVU458
 2068 027c 2068     		ldr	r0, [r4]
 2069              	.LBB229:
 2070              	.LBB230:
 496:Drivers/lvgl/src/extra/themes/mono/lv_theme_mono.c ****         lv_style_reset(style);
 2071              		.loc 1 496 7 is_stmt 0 view .LVU459
 2072 027e 2B78     		ldrb	r3, [r5]	@ zero_extendqisi2
 2073              	.LBE230:
 2074              	.LBE229:
ARM GAS  /var/folders/lp/x54gwt890xv47sdkqj1k04q40000gn/T//cc6ygGfE.s 			page 75


 123:Drivers/lvgl/src/extra/themes/mono/lv_theme_mono.c ****     lv_style_set_outline_width(&styles->focus, 1);
 2075              		.loc 1 123 5 view .LVU460
 2076 0280 3830     		adds	r0, r0, #56
 2077              	.LVL213:
 2078              	.LBB233:
 2079              	.LBI229:
 494:Drivers/lvgl/src/extra/themes/mono/lv_theme_mono.c **** {
 2080              		.loc 1 494 13 is_stmt 1 view .LVU461
 2081              	.LBB231:
 496:Drivers/lvgl/src/extra/themes/mono/lv_theme_mono.c ****         lv_style_reset(style);
 2082              		.loc 1 496 5 view .LVU462
 496:Drivers/lvgl/src/extra/themes/mono/lv_theme_mono.c ****         lv_style_reset(style);
 2083              		.loc 1 496 7 is_stmt 0 view .LVU463
 2084 0282 002B     		cmp	r3, #0
 2085 0284 00F0F480 		beq	.L97
 2086              		.loc 1 497 9 is_stmt 1 view .LVU464
 2087 0288 FFF7FEFF 		bl	lv_style_reset
 2088              	.LVL214:
 2089              	.L98:
 2090              		.loc 1 497 9 is_stmt 0 view .LVU465
 2091              	.LBE231:
 2092              	.LBE233:
 124:Drivers/lvgl/src/extra/themes/mono/lv_theme_mono.c ****     lv_style_set_outline_pad(&styles->focus, BORDER_W_FOCUS);
 2093              		.loc 1 124 5 is_stmt 1 view .LVU466
 2094 028c 2068     		ldr	r0, [r4]
 2095 028e 0121     		movs	r1, #1
 2096 0290 3830     		adds	r0, r0, #56
 2097 0292 FFF7FEFF 		bl	lv_style_set_outline_width
 2098              	.LVL215:
 125:Drivers/lvgl/src/extra/themes/mono/lv_theme_mono.c **** 
 2099              		.loc 1 125 5 view .LVU467
 2100 0296 2068     		ldr	r0, [r4]
 2101 0298 0121     		movs	r1, #1
 2102 029a 3830     		adds	r0, r0, #56
 2103 029c FFF7FEFF 		bl	lv_style_set_outline_pad
 2104              	.LVL216:
 127:Drivers/lvgl/src/extra/themes/mono/lv_theme_mono.c ****     lv_style_set_outline_width(&styles->edit, BORDER_W_EDIT);
 2105              		.loc 1 127 5 view .LVU468
 2106 02a0 2068     		ldr	r0, [r4]
 2107              	.LBB234:
 2108              	.LBB235:
 496:Drivers/lvgl/src/extra/themes/mono/lv_theme_mono.c ****         lv_style_reset(style);
 2109              		.loc 1 496 7 is_stmt 0 view .LVU469
 2110 02a2 2B78     		ldrb	r3, [r5]	@ zero_extendqisi2
 2111              	.LBE235:
 2112              	.LBE234:
 127:Drivers/lvgl/src/extra/themes/mono/lv_theme_mono.c ****     lv_style_set_outline_width(&styles->edit, BORDER_W_EDIT);
 2113              		.loc 1 127 5 view .LVU470
 2114 02a4 4030     		adds	r0, r0, #64
 2115              	.LVL217:
 2116              	.LBB238:
 2117              	.LBI234:
 494:Drivers/lvgl/src/extra/themes/mono/lv_theme_mono.c **** {
 2118              		.loc 1 494 13 is_stmt 1 view .LVU471
 2119              	.LBB236:
 496:Drivers/lvgl/src/extra/themes/mono/lv_theme_mono.c ****         lv_style_reset(style);
 2120              		.loc 1 496 5 view .LVU472
ARM GAS  /var/folders/lp/x54gwt890xv47sdkqj1k04q40000gn/T//cc6ygGfE.s 			page 76


 496:Drivers/lvgl/src/extra/themes/mono/lv_theme_mono.c ****         lv_style_reset(style);
 2121              		.loc 1 496 7 is_stmt 0 view .LVU473
 2122 02a6 002B     		cmp	r3, #0
 2123 02a8 00F0DF80 		beq	.L99
 2124              		.loc 1 497 9 is_stmt 1 view .LVU474
 2125 02ac FFF7FEFF 		bl	lv_style_reset
 2126              	.LVL218:
 2127              	.L100:
 2128              		.loc 1 497 9 is_stmt 0 view .LVU475
 2129              	.LBE236:
 2130              	.LBE238:
 128:Drivers/lvgl/src/extra/themes/mono/lv_theme_mono.c **** 
 2131              		.loc 1 128 5 is_stmt 1 view .LVU476
 2132 02b0 2068     		ldr	r0, [r4]
 2133 02b2 0221     		movs	r1, #2
 2134 02b4 4030     		adds	r0, r0, #64
 2135 02b6 FFF7FEFF 		bl	lv_style_set_outline_width
 2136              	.LVL219:
 130:Drivers/lvgl/src/extra/themes/mono/lv_theme_mono.c ****     lv_style_set_border_width(&styles->large_border, BORDER_W_EDIT);
 2137              		.loc 1 130 5 view .LVU477
 2138 02ba 2068     		ldr	r0, [r4]
 2139              	.LBB239:
 2140              	.LBB240:
 496:Drivers/lvgl/src/extra/themes/mono/lv_theme_mono.c ****         lv_style_reset(style);
 2141              		.loc 1 496 7 is_stmt 0 view .LVU478
 2142 02bc 2B78     		ldrb	r3, [r5]	@ zero_extendqisi2
 2143              	.LBE240:
 2144              	.LBE239:
 130:Drivers/lvgl/src/extra/themes/mono/lv_theme_mono.c ****     lv_style_set_border_width(&styles->large_border, BORDER_W_EDIT);
 2145              		.loc 1 130 5 view .LVU479
 2146 02be 6830     		adds	r0, r0, #104
 2147              	.LVL220:
 2148              	.LBB243:
 2149              	.LBI239:
 494:Drivers/lvgl/src/extra/themes/mono/lv_theme_mono.c **** {
 2150              		.loc 1 494 13 is_stmt 1 view .LVU480
 2151              	.LBB241:
 496:Drivers/lvgl/src/extra/themes/mono/lv_theme_mono.c ****         lv_style_reset(style);
 2152              		.loc 1 496 5 view .LVU481
 496:Drivers/lvgl/src/extra/themes/mono/lv_theme_mono.c ****         lv_style_reset(style);
 2153              		.loc 1 496 7 is_stmt 0 view .LVU482
 2154 02c0 002B     		cmp	r3, #0
 2155 02c2 00F0CF80 		beq	.L101
 2156              		.loc 1 497 9 is_stmt 1 view .LVU483
 2157 02c6 FFF7FEFF 		bl	lv_style_reset
 2158              	.LVL221:
 2159              	.L102:
 2160              		.loc 1 497 9 is_stmt 0 view .LVU484
 2161              	.LBE241:
 2162              	.LBE243:
 131:Drivers/lvgl/src/extra/themes/mono/lv_theme_mono.c **** 
 2163              		.loc 1 131 5 is_stmt 1 view .LVU485
 2164 02ca 2068     		ldr	r0, [r4]
 2165 02cc 0221     		movs	r1, #2
 2166 02ce 6830     		adds	r0, r0, #104
 2167 02d0 FFF7FEFF 		bl	lv_style_set_border_width
 2168              	.LVL222:
ARM GAS  /var/folders/lp/x54gwt890xv47sdkqj1k04q40000gn/T//cc6ygGfE.s 			page 77


 133:Drivers/lvgl/src/extra/themes/mono/lv_theme_mono.c ****     lv_style_set_pad_gap(&styles->pad_gap, PAD_DEF);
 2169              		.loc 1 133 5 view .LVU486
 2170 02d4 2068     		ldr	r0, [r4]
 2171              	.LBB244:
 2172              	.LBB245:
 496:Drivers/lvgl/src/extra/themes/mono/lv_theme_mono.c ****         lv_style_reset(style);
 2173              		.loc 1 496 7 is_stmt 0 view .LVU487
 2174 02d6 2B78     		ldrb	r3, [r5]	@ zero_extendqisi2
 2175              	.LBE245:
 2176              	.LBE244:
 133:Drivers/lvgl/src/extra/themes/mono/lv_theme_mono.c ****     lv_style_set_pad_gap(&styles->pad_gap, PAD_DEF);
 2177              		.loc 1 133 5 view .LVU488
 2178 02d8 4830     		adds	r0, r0, #72
 2179              	.LVL223:
 2180              	.LBB248:
 2181              	.LBI244:
 494:Drivers/lvgl/src/extra/themes/mono/lv_theme_mono.c **** {
 2182              		.loc 1 494 13 is_stmt 1 view .LVU489
 2183              	.LBB246:
 496:Drivers/lvgl/src/extra/themes/mono/lv_theme_mono.c ****         lv_style_reset(style);
 2184              		.loc 1 496 5 view .LVU490
 496:Drivers/lvgl/src/extra/themes/mono/lv_theme_mono.c ****         lv_style_reset(style);
 2185              		.loc 1 496 7 is_stmt 0 view .LVU491
 2186 02da 002B     		cmp	r3, #0
 2187 02dc 00F0BF80 		beq	.L103
 2188              		.loc 1 497 9 is_stmt 1 view .LVU492
 2189 02e0 FFF7FEFF 		bl	lv_style_reset
 2190              	.LVL224:
 2191              	.L104:
 2192              		.loc 1 497 9 is_stmt 0 view .LVU493
 2193              	.LBE246:
 2194              	.LBE248:
 134:Drivers/lvgl/src/extra/themes/mono/lv_theme_mono.c **** 
 2195              		.loc 1 134 5 is_stmt 1 view .LVU494
 2196 02e4 2668     		ldr	r6, [r4]
 2197              	.LVL225:
 134:Drivers/lvgl/src/extra/themes/mono/lv_theme_mono.c **** 
 2198              		.loc 1 134 5 is_stmt 0 view .LVU495
 2199 02e6 4836     		adds	r6, r6, #72
 2200              	.LVL226:
 2201              	.LBB249:
 2202              	.LBI249:
 550:Drivers/lvgl/src/extra/themes/mono/../../../../src/hal/../draw/../misc/lv_style.h **** {
 2203              		.loc 3 550 20 is_stmt 1 view .LVU496
 2204              	.LBB250:
 552:Drivers/lvgl/src/extra/themes/mono/../../../../src/hal/../draw/../misc/lv_style.h ****     lv_style_set_pad_column(style, value);
 2205              		.loc 3 552 5 view .LVU497
 2206 02e8 0421     		movs	r1, #4
 2207 02ea 3046     		mov	r0, r6
 2208 02ec FFF7FEFF 		bl	lv_style_set_pad_row
 2209              	.LVL227:
 2210              		.loc 3 553 5 view .LVU498
 2211 02f0 3046     		mov	r0, r6
 2212 02f2 0421     		movs	r1, #4
 2213 02f4 FFF7FEFF 		bl	lv_style_set_pad_column
 2214              	.LVL228:
 2215              		.loc 3 553 5 is_stmt 0 view .LVU499
ARM GAS  /var/folders/lp/x54gwt890xv47sdkqj1k04q40000gn/T//cc6ygGfE.s 			page 78


 2216              	.LBE250:
 2217              	.LBE249:
 136:Drivers/lvgl/src/extra/themes/mono/lv_theme_mono.c ****     lv_style_set_pad_all(&styles->pad_zero, 0);
 2218              		.loc 1 136 5 is_stmt 1 view .LVU500
 2219 02f8 2068     		ldr	r0, [r4]
 2220              	.LBB251:
 2221              	.LBB252:
 496:Drivers/lvgl/src/extra/themes/mono/lv_theme_mono.c ****         lv_style_reset(style);
 2222              		.loc 1 496 7 is_stmt 0 view .LVU501
 2223 02fa 2B78     		ldrb	r3, [r5]	@ zero_extendqisi2
 2224              	.LBE252:
 2225              	.LBE251:
 136:Drivers/lvgl/src/extra/themes/mono/lv_theme_mono.c ****     lv_style_set_pad_all(&styles->pad_zero, 0);
 2226              		.loc 1 136 5 view .LVU502
 2227 02fc 5030     		adds	r0, r0, #80
 2228              	.LVL229:
 2229              	.LBB255:
 2230              	.LBI251:
 494:Drivers/lvgl/src/extra/themes/mono/lv_theme_mono.c **** {
 2231              		.loc 1 494 13 is_stmt 1 view .LVU503
 2232              	.LBB253:
 496:Drivers/lvgl/src/extra/themes/mono/lv_theme_mono.c ****         lv_style_reset(style);
 2233              		.loc 1 496 5 view .LVU504
 496:Drivers/lvgl/src/extra/themes/mono/lv_theme_mono.c ****         lv_style_reset(style);
 2234              		.loc 1 496 7 is_stmt 0 view .LVU505
 2235 02fe 002B     		cmp	r3, #0
 2236 0300 00F0AA80 		beq	.L105
 2237              		.loc 1 497 9 is_stmt 1 view .LVU506
 2238 0304 FFF7FEFF 		bl	lv_style_reset
 2239              	.LVL230:
 2240              	.L106:
 2241              		.loc 1 497 9 is_stmt 0 view .LVU507
 2242              	.LBE253:
 2243              	.LBE255:
 137:Drivers/lvgl/src/extra/themes/mono/lv_theme_mono.c ****     lv_style_set_pad_gap(&styles->pad_zero, 0);
 2244              		.loc 1 137 5 is_stmt 1 view .LVU508
 2245 0308 2668     		ldr	r6, [r4]
 2246 030a 5036     		adds	r6, r6, #80
 2247              	.LVL231:
 2248              	.LBB256:
 2249              	.LBI256:
 530:Drivers/lvgl/src/extra/themes/mono/../../../../src/hal/../draw/../misc/lv_style.h **** {
 2250              		.loc 3 530 20 view .LVU509
 2251              	.LBB257:
 532:Drivers/lvgl/src/extra/themes/mono/../../../../src/hal/../draw/../misc/lv_style.h ****     lv_style_set_pad_right(style, value);
 2252              		.loc 3 532 5 view .LVU510
 2253 030c 3046     		mov	r0, r6
 2254 030e 0021     		movs	r1, #0
 2255 0310 FFF7FEFF 		bl	lv_style_set_pad_left
 2256              	.LVL232:
 533:Drivers/lvgl/src/extra/themes/mono/../../../../src/hal/../draw/../misc/lv_style.h ****     lv_style_set_pad_top(style, value);
 2257              		.loc 3 533 5 view .LVU511
 2258 0314 3046     		mov	r0, r6
 2259 0316 0021     		movs	r1, #0
 2260 0318 FFF7FEFF 		bl	lv_style_set_pad_right
 2261              	.LVL233:
 534:Drivers/lvgl/src/extra/themes/mono/../../../../src/hal/../draw/../misc/lv_style.h ****     lv_style_set_pad_bottom(style, value);
ARM GAS  /var/folders/lp/x54gwt890xv47sdkqj1k04q40000gn/T//cc6ygGfE.s 			page 79


 2262              		.loc 3 534 5 view .LVU512
 2263 031c 3046     		mov	r0, r6
 2264 031e 0021     		movs	r1, #0
 2265 0320 FFF7FEFF 		bl	lv_style_set_pad_top
 2266              	.LVL234:
 535:Drivers/lvgl/src/extra/themes/mono/../../../../src/hal/../draw/../misc/lv_style.h **** }
 2267              		.loc 3 535 5 view .LVU513
 2268 0324 3046     		mov	r0, r6
 2269 0326 0021     		movs	r1, #0
 2270 0328 FFF7FEFF 		bl	lv_style_set_pad_bottom
 2271              	.LVL235:
 535:Drivers/lvgl/src/extra/themes/mono/../../../../src/hal/../draw/../misc/lv_style.h **** }
 2272              		.loc 3 535 5 is_stmt 0 view .LVU514
 2273              	.LBE257:
 2274              	.LBE256:
 138:Drivers/lvgl/src/extra/themes/mono/lv_theme_mono.c **** 
 2275              		.loc 1 138 5 is_stmt 1 view .LVU515
 2276 032c 2668     		ldr	r6, [r4]
 2277 032e 5036     		adds	r6, r6, #80
 2278              	.LVL236:
 2279              	.LBB258:
 2280              	.LBI258:
 550:Drivers/lvgl/src/extra/themes/mono/../../../../src/hal/../draw/../misc/lv_style.h **** {
 2281              		.loc 3 550 20 view .LVU516
 2282              	.LBB259:
 552:Drivers/lvgl/src/extra/themes/mono/../../../../src/hal/../draw/../misc/lv_style.h ****     lv_style_set_pad_column(style, value);
 2283              		.loc 3 552 5 view .LVU517
 2284 0330 0021     		movs	r1, #0
 2285 0332 3046     		mov	r0, r6
 2286 0334 FFF7FEFF 		bl	lv_style_set_pad_row
 2287              	.LVL237:
 2288              		.loc 3 553 5 view .LVU518
 2289 0338 3046     		mov	r0, r6
 2290 033a 0021     		movs	r1, #0
 2291 033c FFF7FEFF 		bl	lv_style_set_pad_column
 2292              	.LVL238:
 2293              		.loc 3 553 5 is_stmt 0 view .LVU519
 2294              	.LBE259:
 2295              	.LBE258:
 140:Drivers/lvgl/src/extra/themes/mono/lv_theme_mono.c ****     lv_style_set_radius(&styles->no_radius, 0);
 2296              		.loc 1 140 5 is_stmt 1 view .LVU520
 2297 0340 2068     		ldr	r0, [r4]
 2298              	.LBB260:
 2299              	.LBB261:
 496:Drivers/lvgl/src/extra/themes/mono/lv_theme_mono.c ****         lv_style_reset(style);
 2300              		.loc 1 496 7 is_stmt 0 view .LVU521
 2301 0342 2B78     		ldrb	r3, [r5]	@ zero_extendqisi2
 2302              	.LBE261:
 2303              	.LBE260:
 140:Drivers/lvgl/src/extra/themes/mono/lv_theme_mono.c ****     lv_style_set_radius(&styles->no_radius, 0);
 2304              		.loc 1 140 5 view .LVU522
 2305 0344 5830     		adds	r0, r0, #88
 2306              	.LVL239:
 2307              	.LBB264:
 2308              	.LBI260:
 494:Drivers/lvgl/src/extra/themes/mono/lv_theme_mono.c **** {
 2309              		.loc 1 494 13 is_stmt 1 view .LVU523
ARM GAS  /var/folders/lp/x54gwt890xv47sdkqj1k04q40000gn/T//cc6ygGfE.s 			page 80


 2310              	.LBB262:
 496:Drivers/lvgl/src/extra/themes/mono/lv_theme_mono.c ****         lv_style_reset(style);
 2311              		.loc 1 496 5 view .LVU524
 496:Drivers/lvgl/src/extra/themes/mono/lv_theme_mono.c ****         lv_style_reset(style);
 2312              		.loc 1 496 7 is_stmt 0 view .LVU525
 2313 0346 002B     		cmp	r3, #0
 2314 0348 00F08380 		beq	.L107
 2315              		.loc 1 497 9 is_stmt 1 view .LVU526
 2316 034c FFF7FEFF 		bl	lv_style_reset
 2317              	.LVL240:
 2318 0350 0AE0     		b	.L123
 2319              	.L124:
 2320 0352 00BF     		.align	2
 2321              	.L122:
 2322 0354 00000000 		.word	inited
 2323 0358 00000000 		.word	lv_font_montserrat_14
 2324 035c 00000000 		.word	styles
 2325 0360 00000000 		.word	theme_apply
 2326 0364 00000000 		.word	theme
 2327              	.L123:
 2328              	.LVL241:
 2329              	.L108:
 2330              		.loc 1 497 9 is_stmt 0 view .LVU527
 2331              	.LBE262:
 2332              	.LBE264:
 141:Drivers/lvgl/src/extra/themes/mono/lv_theme_mono.c **** 
 2333              		.loc 1 141 5 is_stmt 1 view .LVU528
 2334 0368 2068     		ldr	r0, [r4]
 2335 036a 0021     		movs	r1, #0
 2336 036c 5830     		adds	r0, r0, #88
 2337 036e FFF7FEFF 		bl	lv_style_set_radius
 2338              	.LVL242:
 143:Drivers/lvgl/src/extra/themes/mono/lv_theme_mono.c ****     lv_style_set_radius(&styles->radius_circle, LV_RADIUS_CIRCLE);
 2339              		.loc 1 143 5 view .LVU529
 2340 0372 2068     		ldr	r0, [r4]
 2341              	.LBB265:
 2342              	.LBB266:
 496:Drivers/lvgl/src/extra/themes/mono/lv_theme_mono.c ****         lv_style_reset(style);
 2343              		.loc 1 496 7 is_stmt 0 view .LVU530
 2344 0374 2B78     		ldrb	r3, [r5]	@ zero_extendqisi2
 2345              	.LBE266:
 2346              	.LBE265:
 143:Drivers/lvgl/src/extra/themes/mono/lv_theme_mono.c ****     lv_style_set_radius(&styles->radius_circle, LV_RADIUS_CIRCLE);
 2347              		.loc 1 143 5 view .LVU531
 2348 0376 6030     		adds	r0, r0, #96
 2349              	.LVL243:
 2350              	.LBB269:
 2351              	.LBI265:
 494:Drivers/lvgl/src/extra/themes/mono/lv_theme_mono.c **** {
 2352              		.loc 1 494 13 is_stmt 1 view .LVU532
 2353              	.LBB267:
 496:Drivers/lvgl/src/extra/themes/mono/lv_theme_mono.c ****         lv_style_reset(style);
 2354              		.loc 1 496 5 view .LVU533
 496:Drivers/lvgl/src/extra/themes/mono/lv_theme_mono.c ****         lv_style_reset(style);
 2355              		.loc 1 496 7 is_stmt 0 view .LVU534
 2356 0378 002B     		cmp	r3, #0
 2357 037a 67D0     		beq	.L109
ARM GAS  /var/folders/lp/x54gwt890xv47sdkqj1k04q40000gn/T//cc6ygGfE.s 			page 81


 2358              		.loc 1 497 9 is_stmt 1 view .LVU535
 2359 037c FFF7FEFF 		bl	lv_style_reset
 2360              	.LVL244:
 2361              	.L110:
 2362              		.loc 1 497 9 is_stmt 0 view .LVU536
 2363              	.LBE267:
 2364              	.LBE269:
 144:Drivers/lvgl/src/extra/themes/mono/lv_theme_mono.c **** 
 2365              		.loc 1 144 5 is_stmt 1 view .LVU537
 2366 0380 2068     		ldr	r0, [r4]
 2367 0382 47F6FF71 		movw	r1, #32767
 2368 0386 6030     		adds	r0, r0, #96
 2369 0388 FFF7FEFF 		bl	lv_style_set_radius
 2370              	.LVL245:
 146:Drivers/lvgl/src/extra/themes/mono/lv_theme_mono.c ****     lv_style_set_text_line_space(&styles->large_line_space, 6);
 2371              		.loc 1 146 5 view .LVU538
 2372 038c 2068     		ldr	r0, [r4]
 2373              	.LBB270:
 2374              	.LBB271:
 496:Drivers/lvgl/src/extra/themes/mono/lv_theme_mono.c ****         lv_style_reset(style);
 2375              		.loc 1 496 7 is_stmt 0 view .LVU539
 2376 038e 2B78     		ldrb	r3, [r5]	@ zero_extendqisi2
 2377              	.LBE271:
 2378              	.LBE270:
 146:Drivers/lvgl/src/extra/themes/mono/lv_theme_mono.c ****     lv_style_set_text_line_space(&styles->large_line_space, 6);
 2379              		.loc 1 146 5 view .LVU540
 2380 0390 7030     		adds	r0, r0, #112
 2381              	.LVL246:
 2382              	.LBB274:
 2383              	.LBI270:
 494:Drivers/lvgl/src/extra/themes/mono/lv_theme_mono.c **** {
 2384              		.loc 1 494 13 is_stmt 1 view .LVU541
 2385              	.LBB272:
 496:Drivers/lvgl/src/extra/themes/mono/lv_theme_mono.c ****         lv_style_reset(style);
 2386              		.loc 1 496 5 view .LVU542
 496:Drivers/lvgl/src/extra/themes/mono/lv_theme_mono.c ****         lv_style_reset(style);
 2387              		.loc 1 496 7 is_stmt 0 view .LVU543
 2388 0392 002B     		cmp	r3, #0
 2389 0394 57D0     		beq	.L111
 2390              		.loc 1 497 9 is_stmt 1 view .LVU544
 2391 0396 FFF7FEFF 		bl	lv_style_reset
 2392              	.LVL247:
 2393              	.L112:
 2394              		.loc 1 497 9 is_stmt 0 view .LVU545
 2395              	.LBE272:
 2396              	.LBE274:
 147:Drivers/lvgl/src/extra/themes/mono/lv_theme_mono.c **** 
 2397              		.loc 1 147 5 is_stmt 1 view .LVU546
 2398 039a 2068     		ldr	r0, [r4]
 2399 039c 0621     		movs	r1, #6
 2400 039e 7030     		adds	r0, r0, #112
 2401 03a0 FFF7FEFF 		bl	lv_style_set_text_line_space
 2402              	.LVL248:
 149:Drivers/lvgl/src/extra/themes/mono/lv_theme_mono.c ****     lv_style_set_text_decor(&styles->underline, LV_TEXT_DECOR_UNDERLINE);
 2403              		.loc 1 149 5 view .LVU547
 2404 03a4 2068     		ldr	r0, [r4]
 2405              	.LBB275:
ARM GAS  /var/folders/lp/x54gwt890xv47sdkqj1k04q40000gn/T//cc6ygGfE.s 			page 82


 2406              	.LBB276:
 496:Drivers/lvgl/src/extra/themes/mono/lv_theme_mono.c ****         lv_style_reset(style);
 2407              		.loc 1 496 7 is_stmt 0 view .LVU548
 2408 03a6 2B78     		ldrb	r3, [r5]	@ zero_extendqisi2
 2409              	.LBE276:
 2410              	.LBE275:
 149:Drivers/lvgl/src/extra/themes/mono/lv_theme_mono.c ****     lv_style_set_text_decor(&styles->underline, LV_TEXT_DECOR_UNDERLINE);
 2411              		.loc 1 149 5 view .LVU549
 2412 03a8 7830     		adds	r0, r0, #120
 2413              	.LVL249:
 2414              	.LBB279:
 2415              	.LBI275:
 494:Drivers/lvgl/src/extra/themes/mono/lv_theme_mono.c **** {
 2416              		.loc 1 494 13 is_stmt 1 view .LVU550
 2417              	.LBB277:
 496:Drivers/lvgl/src/extra/themes/mono/lv_theme_mono.c ****         lv_style_reset(style);
 2418              		.loc 1 496 5 view .LVU551
 496:Drivers/lvgl/src/extra/themes/mono/lv_theme_mono.c ****         lv_style_reset(style);
 2419              		.loc 1 496 7 is_stmt 0 view .LVU552
 2420 03aa 002B     		cmp	r3, #0
 2421 03ac 48D0     		beq	.L113
 2422              		.loc 1 497 9 is_stmt 1 view .LVU553
 2423 03ae FFF7FEFF 		bl	lv_style_reset
 2424              	.LVL250:
 2425              	.L114:
 2426              		.loc 1 497 9 is_stmt 0 view .LVU554
 2427              	.LBE277:
 2428              	.LBE279:
 150:Drivers/lvgl/src/extra/themes/mono/lv_theme_mono.c **** 
 2429              		.loc 1 150 5 is_stmt 1 view .LVU555
 2430 03b2 2068     		ldr	r0, [r4]
 2431 03b4 0121     		movs	r1, #1
 2432 03b6 7830     		adds	r0, r0, #120
 2433 03b8 FFF7FEFF 		bl	lv_style_set_text_decor
 2434              	.LVL251:
 153:Drivers/lvgl/src/extra/themes/mono/lv_theme_mono.c ****     lv_style_set_border_side(&styles->ta_cursor, LV_BORDER_SIDE_LEFT);
 2435              		.loc 1 153 5 view .LVU556
 2436 03bc 2068     		ldr	r0, [r4]
 2437              	.LBB280:
 2438              	.LBB281:
 496:Drivers/lvgl/src/extra/themes/mono/lv_theme_mono.c ****         lv_style_reset(style);
 2439              		.loc 1 496 7 is_stmt 0 view .LVU557
 2440 03be 2B78     		ldrb	r3, [r5]	@ zero_extendqisi2
 2441              	.LBE281:
 2442              	.LBE280:
 153:Drivers/lvgl/src/extra/themes/mono/lv_theme_mono.c ****     lv_style_set_border_side(&styles->ta_cursor, LV_BORDER_SIDE_LEFT);
 2443              		.loc 1 153 5 view .LVU558
 2444 03c0 8030     		adds	r0, r0, #128
 2445              	.LVL252:
 2446              	.LBB284:
 2447              	.LBI280:
 494:Drivers/lvgl/src/extra/themes/mono/lv_theme_mono.c **** {
 2448              		.loc 1 494 13 is_stmt 1 view .LVU559
 2449              	.LBB282:
 496:Drivers/lvgl/src/extra/themes/mono/lv_theme_mono.c ****         lv_style_reset(style);
 2450              		.loc 1 496 5 view .LVU560
 496:Drivers/lvgl/src/extra/themes/mono/lv_theme_mono.c ****         lv_style_reset(style);
ARM GAS  /var/folders/lp/x54gwt890xv47sdkqj1k04q40000gn/T//cc6ygGfE.s 			page 83


 2451              		.loc 1 496 7 is_stmt 0 view .LVU561
 2452 03c2 002B     		cmp	r3, #0
 2453 03c4 39D0     		beq	.L115
 2454              		.loc 1 497 9 is_stmt 1 view .LVU562
 2455 03c6 FFF7FEFF 		bl	lv_style_reset
 2456              	.LVL253:
 2457              	.L116:
 2458              		.loc 1 497 9 is_stmt 0 view .LVU563
 2459              	.LBE282:
 2460              	.LBE284:
 154:Drivers/lvgl/src/extra/themes/mono/lv_theme_mono.c ****     lv_style_set_border_color(&styles->ta_cursor, COLOR_FG);
 2461              		.loc 1 154 5 is_stmt 1 view .LVU564
 2462 03ca 2068     		ldr	r0, [r4]
 2463 03cc 0421     		movs	r1, #4
 2464 03ce 8030     		adds	r0, r0, #128
 2465 03d0 FFF7FEFF 		bl	lv_style_set_border_side
 2466              	.LVL254:
 155:Drivers/lvgl/src/extra/themes/mono/lv_theme_mono.c ****     lv_style_set_border_width(&styles->ta_cursor, 2);
 2467              		.loc 1 155 5 view .LVU565
 2468 03d4 4FF00001 		mov	r1, #0	@ movhi
 2469 03d8 67F30201 		bfi	r1, r7, #0, #3
 2470 03dc 2068     		ldr	r0, [r4]
 2471 03de 68F3C701 		bfi	r1, r8, #3, #5
 2472 03e2 68F30C21 		bfi	r1, r8, #8, #5
 2473 03e6 67F34F31 		bfi	r1, r7, #13, #3
 155:Drivers/lvgl/src/extra/themes/mono/lv_theme_mono.c ****     lv_style_set_border_width(&styles->ta_cursor, 2);
 2474              		.loc 1 155 5 is_stmt 0 discriminator 4 view .LVU566
 2475 03ea 8030     		adds	r0, r0, #128
 2476 03ec FFF7FEFF 		bl	lv_style_set_border_color
 2477              	.LVL255:
 156:Drivers/lvgl/src/extra/themes/mono/lv_theme_mono.c ****     lv_style_set_bg_opa(&styles->ta_cursor, LV_OPA_TRANSP);
 2478              		.loc 1 156 5 is_stmt 1 view .LVU567
 2479 03f0 2068     		ldr	r0, [r4]
 2480 03f2 0221     		movs	r1, #2
 2481 03f4 8030     		adds	r0, r0, #128
 2482 03f6 FFF7FEFF 		bl	lv_style_set_border_width
 2483              	.LVL256:
 157:Drivers/lvgl/src/extra/themes/mono/lv_theme_mono.c ****     lv_style_set_anim_time(&styles->ta_cursor, 500);
 2484              		.loc 1 157 5 view .LVU568
 2485 03fa 2068     		ldr	r0, [r4]
 2486 03fc 0021     		movs	r1, #0
 2487 03fe 8030     		adds	r0, r0, #128
 2488 0400 FFF7FEFF 		bl	lv_style_set_bg_opa
 2489              	.LVL257:
 158:Drivers/lvgl/src/extra/themes/mono/lv_theme_mono.c **** #endif
 2490              		.loc 1 158 5 view .LVU569
 2491 0404 2068     		ldr	r0, [r4]
 2492 0406 4FF4FA71 		mov	r1, #500
 2493 040a 8030     		adds	r0, r0, #128
 2494 040c FFF7FEFF 		bl	lv_style_set_anim_time
 2495              	.LVL258:
 158:Drivers/lvgl/src/extra/themes/mono/lv_theme_mono.c **** #endif
 2496              		.loc 1 158 5 is_stmt 0 view .LVU570
 2497              	.LBE314:
 2498              	.LBE321:
 192:Drivers/lvgl/src/extra/themes/mono/lv_theme_mono.c **** 
 2499              		.loc 1 192 5 is_stmt 1 view .LVU571
ARM GAS  /var/folders/lp/x54gwt890xv47sdkqj1k04q40000gn/T//cc6ygGfE.s 			page 84


 192:Drivers/lvgl/src/extra/themes/mono/lv_theme_mono.c **** 
 2500              		.loc 1 192 7 is_stmt 0 view .LVU572
 2501 0410 BAF1000F 		cmp	r10, #0
 2502 0414 09D0     		beq	.L119
 192:Drivers/lvgl/src/extra/themes/mono/lv_theme_mono.c **** 
 2503              		.loc 1 192 24 discriminator 2 view .LVU573
 2504 0416 5046     		mov	r0, r10
 2505 0418 FFF7FEFF 		bl	lv_disp_get_theme
 2506              	.LVL259:
 192:Drivers/lvgl/src/extra/themes/mono/lv_theme_mono.c **** 
 2507              		.loc 1 192 21 discriminator 1 view .LVU574
 2508 041c 8145     		cmp	r9, r0
 2509 041e 04D0     		beq	.L119
 194:Drivers/lvgl/src/extra/themes/mono/lv_theme_mono.c **** 
 2510              		.loc 1 194 5 is_stmt 1 view .LVU575
 194:Drivers/lvgl/src/extra/themes/mono/lv_theme_mono.c **** 
 2511              		.loc 1 194 12 is_stmt 0 view .LVU576
 2512 0420 0123     		movs	r3, #1
 197:Drivers/lvgl/src/extra/themes/mono/lv_theme_mono.c **** 
 2513              		.loc 1 197 1 view .LVU577
 2514 0422 4D48     		ldr	r0, .L125
 194:Drivers/lvgl/src/extra/themes/mono/lv_theme_mono.c **** 
 2515              		.loc 1 194 12 view .LVU578
 2516 0424 2B70     		strb	r3, [r5]
 196:Drivers/lvgl/src/extra/themes/mono/lv_theme_mono.c **** }
 2517              		.loc 1 196 5 is_stmt 1 view .LVU579
 197:Drivers/lvgl/src/extra/themes/mono/lv_theme_mono.c **** 
 2518              		.loc 1 197 1 is_stmt 0 view .LVU580
 2519 0426 BDE8F88F 		pop	{r3, r4, r5, r6, r7, r8, r9, r10, fp, pc}
 2520              	.LVL260:
 2521              	.L119:
 192:Drivers/lvgl/src/extra/themes/mono/lv_theme_mono.c **** 
 2522              		.loc 1 192 59 is_stmt 1 discriminator 3 view .LVU581
 2523 042a 0020     		movs	r0, #0
 2524 042c FFF7FEFF 		bl	lv_obj_report_style_change
 2525              	.LVL261:
 194:Drivers/lvgl/src/extra/themes/mono/lv_theme_mono.c **** 
 2526              		.loc 1 194 5 view .LVU582
 194:Drivers/lvgl/src/extra/themes/mono/lv_theme_mono.c **** 
 2527              		.loc 1 194 12 is_stmt 0 view .LVU583
 2528 0430 0123     		movs	r3, #1
 197:Drivers/lvgl/src/extra/themes/mono/lv_theme_mono.c **** 
 2529              		.loc 1 197 1 view .LVU584
 2530 0432 4948     		ldr	r0, .L125
 194:Drivers/lvgl/src/extra/themes/mono/lv_theme_mono.c **** 
 2531              		.loc 1 194 12 view .LVU585
 2532 0434 2B70     		strb	r3, [r5]
 196:Drivers/lvgl/src/extra/themes/mono/lv_theme_mono.c **** }
 2533              		.loc 1 196 5 is_stmt 1 view .LVU586
 197:Drivers/lvgl/src/extra/themes/mono/lv_theme_mono.c **** 
 2534              		.loc 1 197 1 is_stmt 0 view .LVU587
 2535 0436 BDE8F88F 		pop	{r3, r4, r5, r6, r7, r8, r9, r10, fp, pc}
 2536              	.LVL262:
 2537              	.L115:
 2538              	.LBB322:
 2539              	.LBB315:
 2540              	.LBB285:
ARM GAS  /var/folders/lp/x54gwt890xv47sdkqj1k04q40000gn/T//cc6ygGfE.s 			page 85


 2541              	.LBB283:
 498:Drivers/lvgl/src/extra/themes/mono/lv_theme_mono.c ****     }
 499:Drivers/lvgl/src/extra/themes/mono/lv_theme_mono.c ****     else {
 500:Drivers/lvgl/src/extra/themes/mono/lv_theme_mono.c ****         lv_style_init(style);
 2542              		.loc 1 500 9 is_stmt 1 view .LVU588
 2543 043a FFF7FEFF 		bl	lv_style_init
 2544              	.LVL263:
 2545              		.loc 1 500 9 is_stmt 0 view .LVU589
 2546 043e C4E7     		b	.L116
 2547              	.LVL264:
 2548              	.L113:
 2549              		.loc 1 500 9 view .LVU590
 2550              	.LBE283:
 2551              	.LBE285:
 2552              	.LBB286:
 2553              	.LBB278:
 2554              		.loc 1 500 9 is_stmt 1 view .LVU591
 2555 0440 FFF7FEFF 		bl	lv_style_init
 2556              	.LVL265:
 2557              		.loc 1 500 9 is_stmt 0 view .LVU592
 2558 0444 B5E7     		b	.L114
 2559              	.LVL266:
 2560              	.L111:
 2561              		.loc 1 500 9 view .LVU593
 2562              	.LBE278:
 2563              	.LBE286:
 2564              	.LBB287:
 2565              	.LBB273:
 2566              		.loc 1 500 9 is_stmt 1 view .LVU594
 2567 0446 FFF7FEFF 		bl	lv_style_init
 2568              	.LVL267:
 2569              		.loc 1 500 9 is_stmt 0 view .LVU595
 2570 044a A6E7     		b	.L112
 2571              	.LVL268:
 2572              	.L109:
 2573              		.loc 1 500 9 view .LVU596
 2574              	.LBE273:
 2575              	.LBE287:
 2576              	.LBB288:
 2577              	.LBB268:
 2578              		.loc 1 500 9 is_stmt 1 view .LVU597
 2579 044c FFF7FEFF 		bl	lv_style_init
 2580              	.LVL269:
 2581              		.loc 1 500 9 is_stmt 0 view .LVU598
 2582 0450 96E7     		b	.L110
 2583              	.LVL270:
 2584              	.L107:
 2585              		.loc 1 500 9 view .LVU599
 2586              	.LBE268:
 2587              	.LBE288:
 2588              	.LBB289:
 2589              	.LBB263:
 2590              		.loc 1 500 9 is_stmt 1 view .LVU600
 2591 0452 FFF7FEFF 		bl	lv_style_init
 2592              	.LVL271:
 2593              		.loc 1 500 9 is_stmt 0 view .LVU601
 2594 0456 87E7     		b	.L108
ARM GAS  /var/folders/lp/x54gwt890xv47sdkqj1k04q40000gn/T//cc6ygGfE.s 			page 86


 2595              	.LVL272:
 2596              	.L105:
 2597              		.loc 1 500 9 view .LVU602
 2598              	.LBE263:
 2599              	.LBE289:
 2600              	.LBB290:
 2601              	.LBB254:
 2602              		.loc 1 500 9 is_stmt 1 view .LVU603
 2603 0458 FFF7FEFF 		bl	lv_style_init
 2604              	.LVL273:
 2605              		.loc 1 500 9 is_stmt 0 view .LVU604
 2606 045c 54E7     		b	.L106
 2607              	.LVL274:
 2608              	.L103:
 2609              		.loc 1 500 9 view .LVU605
 2610              	.LBE254:
 2611              	.LBE290:
 2612              	.LBB291:
 2613              	.LBB247:
 2614              		.loc 1 500 9 is_stmt 1 view .LVU606
 2615 045e FFF7FEFF 		bl	lv_style_init
 2616              	.LVL275:
 2617              		.loc 1 500 9 is_stmt 0 view .LVU607
 2618 0462 3FE7     		b	.L104
 2619              	.LVL276:
 2620              	.L101:
 2621              		.loc 1 500 9 view .LVU608
 2622              	.LBE247:
 2623              	.LBE291:
 2624              	.LBB292:
 2625              	.LBB242:
 2626              		.loc 1 500 9 is_stmt 1 view .LVU609
 2627 0464 FFF7FEFF 		bl	lv_style_init
 2628              	.LVL277:
 2629              		.loc 1 500 9 is_stmt 0 view .LVU610
 2630 0468 2FE7     		b	.L102
 2631              	.LVL278:
 2632              	.L99:
 2633              		.loc 1 500 9 view .LVU611
 2634              	.LBE242:
 2635              	.LBE292:
 2636              	.LBB293:
 2637              	.LBB237:
 2638              		.loc 1 500 9 is_stmt 1 view .LVU612
 2639 046a FFF7FEFF 		bl	lv_style_init
 2640              	.LVL279:
 2641              		.loc 1 500 9 is_stmt 0 view .LVU613
 2642 046e 1FE7     		b	.L100
 2643              	.LVL280:
 2644              	.L97:
 2645              		.loc 1 500 9 view .LVU614
 2646              	.LBE237:
 2647              	.LBE293:
 2648              	.LBB294:
 2649              	.LBB232:
 2650              		.loc 1 500 9 is_stmt 1 view .LVU615
 2651 0470 FFF7FEFF 		bl	lv_style_init
ARM GAS  /var/folders/lp/x54gwt890xv47sdkqj1k04q40000gn/T//cc6ygGfE.s 			page 87


 2652              	.LVL281:
 2653              		.loc 1 500 9 is_stmt 0 view .LVU616
 2654 0474 0AE7     		b	.L98
 2655              	.LVL282:
 2656              	.L95:
 2657              		.loc 1 500 9 view .LVU617
 2658              	.LBE232:
 2659              	.LBE294:
 2660              	.LBB295:
 2661              	.LBB227:
 2662              		.loc 1 500 9 is_stmt 1 view .LVU618
 2663 0476 FFF7FEFF 		bl	lv_style_init
 2664              	.LVL283:
 2665              		.loc 1 500 9 is_stmt 0 view .LVU619
 2666 047a FAE6     		b	.L96
 2667              	.LVL284:
 2668              	.L93:
 2669              		.loc 1 500 9 view .LVU620
 2670              	.LBE227:
 2671              	.LBE295:
 113:Drivers/lvgl/src/extra/themes/mono/lv_theme_mono.c ****     lv_style_set_border_color(&styles->inv, COLOR_BG);
 2672              		.loc 1 113 5 discriminator 4 view .LVU621
 2673 047c 3146     		mov	r1, r6	@ movhi
 2674 047e FFF7FEFF 		bl	lv_style_set_bg_color
 2675              	.LVL285:
 114:Drivers/lvgl/src/extra/themes/mono/lv_theme_mono.c ****     lv_style_set_line_color(&styles->inv, COLOR_BG);
 2676              		.loc 1 114 5 is_stmt 1 view .LVU622
 2677 0482 2068     		ldr	r0, [r4]
 114:Drivers/lvgl/src/extra/themes/mono/lv_theme_mono.c ****     lv_style_set_line_color(&styles->inv, COLOR_BG);
 2678              		.loc 1 114 5 is_stmt 0 discriminator 4 view .LVU623
 2679 0484 4FF0FF31 		mov	r1, #-1	@ movhi
 2680 0488 2830     		adds	r0, r0, #40
 2681 048a FFF7FEFF 		bl	lv_style_set_border_color
 2682              	.LVL286:
 115:Drivers/lvgl/src/extra/themes/mono/lv_theme_mono.c ****     lv_style_set_arc_color(&styles->inv, COLOR_BG);
 2683              		.loc 1 115 5 is_stmt 1 view .LVU624
 2684 048e 2068     		ldr	r0, [r4]
 115:Drivers/lvgl/src/extra/themes/mono/lv_theme_mono.c ****     lv_style_set_arc_color(&styles->inv, COLOR_BG);
 2685              		.loc 1 115 5 is_stmt 0 discriminator 4 view .LVU625
 2686 0490 4FF0FF31 		mov	r1, #-1	@ movhi
 2687 0494 2830     		adds	r0, r0, #40
 2688 0496 FFF7FEFF 		bl	lv_style_set_line_color
 2689              	.LVL287:
 116:Drivers/lvgl/src/extra/themes/mono/lv_theme_mono.c ****     lv_style_set_text_color(&styles->inv, COLOR_BG);
 2690              		.loc 1 116 5 is_stmt 1 view .LVU626
 2691 049a 2068     		ldr	r0, [r4]
 116:Drivers/lvgl/src/extra/themes/mono/lv_theme_mono.c ****     lv_style_set_text_color(&styles->inv, COLOR_BG);
 2692              		.loc 1 116 5 is_stmt 0 discriminator 4 view .LVU627
 2693 049c 4FF0FF31 		mov	r1, #-1	@ movhi
 2694 04a0 2830     		adds	r0, r0, #40
 2695 04a2 FFF7FEFF 		bl	lv_style_set_arc_color
 2696              	.LVL288:
 117:Drivers/lvgl/src/extra/themes/mono/lv_theme_mono.c ****     lv_style_set_outline_color(&styles->inv, COLOR_BG);
 2697              		.loc 1 117 5 is_stmt 1 view .LVU628
 2698 04a6 2068     		ldr	r0, [r4]
 117:Drivers/lvgl/src/extra/themes/mono/lv_theme_mono.c ****     lv_style_set_outline_color(&styles->inv, COLOR_BG);
 2699              		.loc 1 117 5 is_stmt 0 discriminator 4 view .LVU629
ARM GAS  /var/folders/lp/x54gwt890xv47sdkqj1k04q40000gn/T//cc6ygGfE.s 			page 88


 2700 04a8 4FF0FF31 		mov	r1, #-1	@ movhi
 2701 04ac 2830     		adds	r0, r0, #40
 2702 04ae FFF7FEFF 		bl	lv_style_set_text_color
 2703              	.LVL289:
 118:Drivers/lvgl/src/extra/themes/mono/lv_theme_mono.c **** 
 2704              		.loc 1 118 5 is_stmt 1 view .LVU630
 2705 04b2 2068     		ldr	r0, [r4]
 2706              	.LBB296:
 2707              	.LBB297:
 698:Drivers/lvgl/src/extra/themes/mono/../../../../src/hal/../draw/../misc/lv_color.h **** }
 2708              		.loc 2 698 12 is_stmt 0 view .LVU631
 2709 04b4 1F23     		movs	r3, #31
 2710 04b6 0722     		movs	r2, #7
 2711              	.LBE297:
 2712              	.LBE296:
 118:Drivers/lvgl/src/extra/themes/mono/lv_theme_mono.c **** 
 2713              		.loc 1 118 5 view .LVU632
 2714 04b8 2830     		adds	r0, r0, #40
 2715              	.LBB299:
 2716              	.LBI296:
 696:Drivers/lvgl/src/extra/themes/mono/../../../../src/hal/../draw/../misc/lv_color.h **** {
 2717              		.loc 2 696 26 is_stmt 1 view .LVU633
 2718              	.LBB298:
 698:Drivers/lvgl/src/extra/themes/mono/../../../../src/hal/../draw/../misc/lv_color.h **** }
 2719              		.loc 2 698 5 view .LVU634
 698:Drivers/lvgl/src/extra/themes/mono/../../../../src/hal/../draw/../misc/lv_color.h **** }
 2720              		.loc 2 698 12 is_stmt 0 view .LVU635
 2721 04ba C6E6     		b	.L94
 2722              	.LVL290:
 2723              	.L91:
 698:Drivers/lvgl/src/extra/themes/mono/../../../../src/hal/../draw/../misc/lv_color.h **** }
 2724              		.loc 2 698 12 view .LVU636
 2725              	.LBE298:
 2726              	.LBE299:
 2727              	.LBB300:
 2728              	.LBB218:
 2729              		.loc 1 500 9 is_stmt 1 view .LVU637
 2730 04bc FFF7FEFF 		bl	lv_style_init
 2731              	.LVL291:
 2732              		.loc 1 500 9 is_stmt 0 view .LVU638
 2733 04c0 99E6     		b	.L92
 2734              	.LVL292:
 2735              	.L89:
 2736              		.loc 1 500 9 view .LVU639
 2737              	.LBE218:
 2738              	.LBE300:
 2739              	.LBB301:
 2740              	.LBB213:
 2741              		.loc 1 500 9 is_stmt 1 view .LVU640
 2742 04c2 FFF7FEFF 		bl	lv_style_init
 2743              	.LVL293:
 2744              		.loc 1 500 9 is_stmt 0 view .LVU641
 2745 04c6 89E6     		b	.L90
 2746              	.LVL294:
 2747              	.L87:
 2748              		.loc 1 500 9 view .LVU642
 2749              	.LBE213:
ARM GAS  /var/folders/lp/x54gwt890xv47sdkqj1k04q40000gn/T//cc6ygGfE.s 			page 89


 2750              	.LBE301:
 100:Drivers/lvgl/src/extra/themes/mono/lv_theme_mono.c ****     lv_style_set_line_width(&styles->card, 2);
 2751              		.loc 1 100 5 discriminator 4 view .LVU643
 2752 04c8 3146     		mov	r1, r6	@ movhi
 2753 04ca FFF7FEFF 		bl	lv_style_set_text_color
 2754              	.LVL295:
 101:Drivers/lvgl/src/extra/themes/mono/lv_theme_mono.c ****     lv_style_set_line_color(&styles->card, COLOR_FG);
 2755              		.loc 1 101 5 is_stmt 1 view .LVU644
 2756 04ce 2068     		ldr	r0, [r4]
 2757 04d0 0221     		movs	r1, #2
 2758 04d2 0830     		adds	r0, r0, #8
 2759 04d4 FFF7FEFF 		bl	lv_style_set_line_width
 2760              	.LVL296:
 102:Drivers/lvgl/src/extra/themes/mono/lv_theme_mono.c ****     lv_style_set_arc_width(&styles->card, 2);
 2761              		.loc 1 102 5 view .LVU645
 2762 04d8 2068     		ldr	r0, [r4]
 102:Drivers/lvgl/src/extra/themes/mono/lv_theme_mono.c ****     lv_style_set_arc_width(&styles->card, 2);
 2763              		.loc 1 102 5 is_stmt 0 discriminator 4 view .LVU646
 2764 04da 3146     		mov	r1, r6	@ movhi
 2765 04dc 0830     		adds	r0, r0, #8
 2766 04de FFF7FEFF 		bl	lv_style_set_line_color
 2767              	.LVL297:
 103:Drivers/lvgl/src/extra/themes/mono/lv_theme_mono.c ****     lv_style_set_arc_color(&styles->card, COLOR_FG);
 2768              		.loc 1 103 5 is_stmt 1 view .LVU647
 2769 04e2 2068     		ldr	r0, [r4]
 2770 04e4 0221     		movs	r1, #2
 2771 04e6 0830     		adds	r0, r0, #8
 2772 04e8 FFF7FEFF 		bl	lv_style_set_arc_width
 2773              	.LVL298:
 104:Drivers/lvgl/src/extra/themes/mono/lv_theme_mono.c ****     lv_style_set_outline_color(&styles->card, COLOR_FG);
 2774              		.loc 1 104 5 view .LVU648
 2775 04ec 2068     		ldr	r0, [r4]
 104:Drivers/lvgl/src/extra/themes/mono/lv_theme_mono.c ****     lv_style_set_outline_color(&styles->card, COLOR_FG);
 2776              		.loc 1 104 5 is_stmt 0 discriminator 4 view .LVU649
 2777 04ee 3146     		mov	r1, r6	@ movhi
 2778 04f0 0830     		adds	r0, r0, #8
 2779 04f2 FFF7FEFF 		bl	lv_style_set_arc_color
 2780              	.LVL299:
 105:Drivers/lvgl/src/extra/themes/mono/lv_theme_mono.c ****     lv_style_set_anim_time(&styles->card, 300);
 2781              		.loc 1 105 5 is_stmt 1 view .LVU650
 2782 04f6 2068     		ldr	r0, [r4]
 2783 04f8 0830     		adds	r0, r0, #8
 2784              	.LBB302:
 2785              	.LBI302:
 700:Drivers/lvgl/src/extra/themes/mono/../../../../src/hal/../draw/../misc/lv_color.h **** {
 2786              		.loc 2 700 26 view .LVU651
 2787              	.LBB303:
 2788              		.loc 2 702 5 view .LVU652
 2789              		.loc 2 702 12 is_stmt 0 view .LVU653
 2790 04fa 55E6     		b	.L88
 2791              	.LVL300:
 2792              	.L85:
 2793              		.loc 2 702 12 view .LVU654
 2794              	.LBE303:
 2795              	.LBE302:
  94:Drivers/lvgl/src/extra/themes/mono/lv_theme_mono.c ****     lv_style_set_border_color(&styles->card, COLOR_FG);
 2796              		.loc 1 94 5 discriminator 4 view .LVU655
ARM GAS  /var/folders/lp/x54gwt890xv47sdkqj1k04q40000gn/T//cc6ygGfE.s 			page 90


 2797 04fc 4FF0FF31 		mov	r1, #-1	@ movhi
 2798 0500 FFF7FEFF 		bl	lv_style_set_bg_color
 2799              	.LVL301:
  95:Drivers/lvgl/src/extra/themes/mono/lv_theme_mono.c ****     lv_style_set_radius(&styles->card, 2);
 2800              		.loc 1 95 5 is_stmt 1 view .LVU656
 2801 0504 2068     		ldr	r0, [r4]
 2802 0506 0830     		adds	r0, r0, #8
 2803              	.LBB304:
 2804              	.LBI304:
 700:Drivers/lvgl/src/extra/themes/mono/../../../../src/hal/../draw/../misc/lv_color.h **** {
 2805              		.loc 2 700 26 view .LVU657
 2806              	.LBB305:
 2807              		.loc 2 702 5 view .LVU658
 2808              		.loc 2 702 12 is_stmt 0 view .LVU659
 2809 0508 F9E5     		b	.L86
 2810              	.LVL302:
 2811              	.L83:
 2812              		.loc 2 702 12 view .LVU660
 2813              	.LBE305:
 2814              	.LBE304:
 2815              	.LBB306:
 2816              	.LBB200:
 2817              		.loc 1 500 9 is_stmt 1 view .LVU661
 2818 050a FFF7FEFF 		bl	lv_style_init
 2819              	.LVL303:
 2820              		.loc 1 500 9 is_stmt 0 view .LVU662
 2821 050e E6E5     		b	.L84
 2822              	.LVL304:
 2823              	.L81:
 2824              		.loc 1 500 9 view .LVU663
 2825              	.LBE200:
 2826              	.LBE306:
  86:Drivers/lvgl/src/extra/themes/mono/lv_theme_mono.c ****     lv_style_set_text_color(&styles->scr, COLOR_FG);
 2827              		.loc 1 86 5 discriminator 4 view .LVU664
 2828 0510 4FF0FF31 		mov	r1, #-1	@ movhi
 2829 0514 FFF7FEFF 		bl	lv_style_set_bg_color
 2830              	.LVL305:
  87:Drivers/lvgl/src/extra/themes/mono/lv_theme_mono.c ****     lv_style_set_pad_row(&styles->scr, PAD_DEF);
 2831              		.loc 1 87 5 is_stmt 1 view .LVU665
 2832 0518 2068     		ldr	r0, [r4]
 2833              	.LBB307:
 2834              	.LBI307:
 700:Drivers/lvgl/src/extra/themes/mono/../../../../src/hal/../draw/../misc/lv_color.h **** {
 2835              		.loc 2 700 26 view .LVU666
 2836              	.LBB308:
 2837              		.loc 2 702 5 view .LVU667
 2838              		.loc 2 702 12 is_stmt 0 view .LVU668
 2839 051a C0E5     		b	.L82
 2840              	.LVL306:
 2841              	.L79:
 2842              		.loc 2 702 12 view .LVU669
 2843              	.LBE308:
 2844              	.LBE307:
 2845              	.LBB309:
 2846              	.LBB193:
 2847              		.loc 1 500 9 is_stmt 1 view .LVU670
 2848 051c FFF7FEFF 		bl	lv_style_init
ARM GAS  /var/folders/lp/x54gwt890xv47sdkqj1k04q40000gn/T//cc6ygGfE.s 			page 91


 2849              	.LVL307:
 2850              		.loc 1 500 9 is_stmt 0 view .LVU671
 2851 0520 B0E5     		b	.L80
 2852              	.LVL308:
 2853              	.L74:
 2854              		.loc 1 500 9 view .LVU672
 2855              	.LBE193:
 2856              	.LBE309:
 2857              	.LBE315:
 2858              	.LBE322:
 179:Drivers/lvgl/src/extra/themes/mono/lv_theme_mono.c ****         LV_GC_ROOT(_lv_theme_default_styles) = lv_mem_alloc(sizeof(my_theme_styles_t));
 2859              		.loc 1 179 9 is_stmt 1 view .LVU673
 180:Drivers/lvgl/src/extra/themes/mono/lv_theme_mono.c ****         styles = (my_theme_styles_t *)LV_GC_ROOT(_lv_theme_default_styles);
 2860              		.loc 1 180 9 view .LVU674
 180:Drivers/lvgl/src/extra/themes/mono/lv_theme_mono.c ****         styles = (my_theme_styles_t *)LV_GC_ROOT(_lv_theme_default_styles);
 2861              		.loc 1 180 48 is_stmt 0 view .LVU675
 2862 0522 8820     		movs	r0, #136
 2863              	.LVL309:
 180:Drivers/lvgl/src/extra/themes/mono/lv_theme_mono.c ****         styles = (my_theme_styles_t *)LV_GC_ROOT(_lv_theme_default_styles);
 2864              		.loc 1 180 48 view .LVU676
 2865 0524 FFF7FEFF 		bl	lv_mem_alloc
 2866              	.LVL310:
 180:Drivers/lvgl/src/extra/themes/mono/lv_theme_mono.c ****         styles = (my_theme_styles_t *)LV_GC_ROOT(_lv_theme_default_styles);
 2867              		.loc 1 180 46 discriminator 1 view .LVU677
 2868 0528 0C4B     		ldr	r3, .L125+4
 184:Drivers/lvgl/src/extra/themes/mono/lv_theme_mono.c ****     theme.font_small = LV_FONT_DEFAULT;
 2869              		.loc 1 184 16 view .LVU678
 2870 052a DFF82C90 		ldr	r9, .L125
 180:Drivers/lvgl/src/extra/themes/mono/lv_theme_mono.c ****         styles = (my_theme_styles_t *)LV_GC_ROOT(_lv_theme_default_styles);
 2871              		.loc 1 180 46 discriminator 1 view .LVU679
 2872 052e 1860     		str	r0, [r3]
 181:Drivers/lvgl/src/extra/themes/mono/lv_theme_mono.c ****     }
 2873              		.loc 1 181 9 is_stmt 1 view .LVU680
 181:Drivers/lvgl/src/extra/themes/mono/lv_theme_mono.c ****     }
 2874              		.loc 1 181 16 is_stmt 0 view .LVU681
 2875 0530 0B4C     		ldr	r4, .L125+8
 2876              	.LBB323:
 2877              	.LBB316:
 2878              	.LBB310:
 2879              	.LBB188:
 496:Drivers/lvgl/src/extra/themes/mono/lv_theme_mono.c ****         lv_style_reset(style);
 2880              		.loc 1 496 8 view .LVU682
 2881 0532 2B78     		ldrb	r3, [r5]	@ zero_extendqisi2
 2882              	.LBE188:
 2883              	.LBE310:
 2884              	.LBE316:
 2885              	.LBE323:
 184:Drivers/lvgl/src/extra/themes/mono/lv_theme_mono.c ****     theme.font_small = LV_FONT_DEFAULT;
 2886              		.loc 1 184 5 is_stmt 1 view .LVU683
 185:Drivers/lvgl/src/extra/themes/mono/lv_theme_mono.c ****     theme.font_normal = LV_FONT_DEFAULT;
 2887              		.loc 1 185 5 view .LVU684
 186:Drivers/lvgl/src/extra/themes/mono/lv_theme_mono.c ****     theme.font_large = LV_FONT_DEFAULT;
 2888              		.loc 1 186 5 view .LVU685
 187:Drivers/lvgl/src/extra/themes/mono/lv_theme_mono.c ****     theme.apply_cb = theme_apply;
 2889              		.loc 1 187 5 view .LVU686
 188:Drivers/lvgl/src/extra/themes/mono/lv_theme_mono.c **** 
 2890              		.loc 1 188 5 view .LVU687
ARM GAS  /var/folders/lp/x54gwt890xv47sdkqj1k04q40000gn/T//cc6ygGfE.s 			page 92


 188:Drivers/lvgl/src/extra/themes/mono/lv_theme_mono.c **** 
 2891              		.loc 1 188 20 is_stmt 0 view .LVU688
 2892 0534 0B4A     		ldr	r2, .L125+12
 181:Drivers/lvgl/src/extra/themes/mono/lv_theme_mono.c ****     }
 2893              		.loc 1 181 16 view .LVU689
 2894 0536 2060     		str	r0, [r4]
 185:Drivers/lvgl/src/extra/themes/mono/lv_theme_mono.c ****     theme.font_normal = LV_FONT_DEFAULT;
 2895              		.loc 1 185 22 view .LVU690
 2896 0538 C9E90577 		strd	r7, r7, [r9, #20]
 184:Drivers/lvgl/src/extra/themes/mono/lv_theme_mono.c ****     theme.font_small = LV_FONT_DEFAULT;
 2897              		.loc 1 184 16 view .LVU691
 2898 053c C9F80CA0 		str	r10, [r9, #12]
 187:Drivers/lvgl/src/extra/themes/mono/lv_theme_mono.c ****     theme.apply_cb = theme_apply;
 2899              		.loc 1 187 22 view .LVU692
 2900 0540 C9F81C70 		str	r7, [r9, #28]
 2901              	.LBB324:
 2902              	.LBB317:
  79:Drivers/lvgl/src/extra/themes/mono/lv_theme_mono.c ****     lv_style_set_bg_opa(&styles->scrollbar, LV_OPA_COVER);
 2903              		.loc 1 79 5 view .LVU693
 2904 0544 1030     		adds	r0, r0, #16
 2905              	.LBE317:
 2906              	.LBE324:
 188:Drivers/lvgl/src/extra/themes/mono/lv_theme_mono.c **** 
 2907              		.loc 1 188 20 view .LVU694
 2908 0546 C9F80020 		str	r2, [r9]
 190:Drivers/lvgl/src/extra/themes/mono/lv_theme_mono.c **** 
 2909              		.loc 1 190 5 is_stmt 1 view .LVU695
 2910              	.LVL311:
 2911              	.LBB325:
  77:Drivers/lvgl/src/extra/themes/mono/lv_theme_mono.c **** {
 2912              		.loc 1 77 13 view .LVU696
 2913              	.LBB318:
  79:Drivers/lvgl/src/extra/themes/mono/lv_theme_mono.c ****     lv_style_set_bg_opa(&styles->scrollbar, LV_OPA_COVER);
 2914              		.loc 1 79 5 view .LVU697
 2915              	.LBB311:
 494:Drivers/lvgl/src/extra/themes/mono/lv_theme_mono.c **** {
 2916              		.loc 1 494 13 view .LVU698
 2917              	.LBB189:
 496:Drivers/lvgl/src/extra/themes/mono/lv_theme_mono.c ****         lv_style_reset(style);
 2918              		.loc 1 496 5 view .LVU699
 496:Drivers/lvgl/src/extra/themes/mono/lv_theme_mono.c ****         lv_style_reset(style);
 2919              		.loc 1 496 7 is_stmt 0 view .LVU700
 2920 054a 002B     		cmp	r3, #0
 2921 054c 7FF471AD 		bne	.L75
 2922              		.loc 1 500 9 is_stmt 1 view .LVU701
 2923 0550 FFF7FEFF 		bl	lv_style_init
 2924              	.LVL312:
 2925              		.loc 1 500 9 is_stmt 0 view .LVU702
 2926 0554 6FE5     		b	.L77
 2927              	.L126:
 2928 0556 00BF     		.align	2
 2929              	.L125:
 2930 0558 00000000 		.word	theme
 2931 055c 00000000 		.word	_lv_theme_default_styles
 2932 0560 00000000 		.word	styles
 2933 0564 00000000 		.word	theme_apply
 2934              	.LBE189:
ARM GAS  /var/folders/lp/x54gwt890xv47sdkqj1k04q40000gn/T//cc6ygGfE.s 			page 93


 2935              	.LBE311:
 2936              	.LBE318:
 2937              	.LBE325:
 2938              		.cfi_endproc
 2939              	.LFE206:
 2941              		.section	.bss.inited,"aw",%nobits
 2944              	inited:
 2945 0000 00       		.space	1
 2946              		.section	.bss.theme,"aw",%nobits
 2947              		.align	3
 2950              	theme:
 2951 0000 00000000 		.space	36
 2951      00000000 
 2951      00000000 
 2951      00000000 
 2951      00000000 
 2952              		.section	.bss.styles,"aw",%nobits
 2953              		.align	2
 2956              	styles:
 2957 0000 00000000 		.space	4
 2958              		.text
 2959              	.Letext0:
 2960              		.file 4 "/Users/jr/Library/Application Support/Code/User/globalStorage/bmd.stm32-for-vscode/@xpack
 2961              		.file 5 "/Users/jr/Library/Application Support/Code/User/globalStorage/bmd.stm32-for-vscode/@xpack
 2962              		.file 6 "Drivers/lvgl/src/extra/themes/mono/../../../../src/misc/lv_types.h"
 2963              		.file 7 "Drivers/lvgl/src/extra/themes/mono/../../../../src/misc/lv_timer.h"
 2964              		.file 8 "/Users/jr/Library/Application Support/Code/User/globalStorage/bmd.stm32-for-vscode/@xpack
 2965              		.file 9 "Drivers/lvgl/src/extra/themes/mono/../../../../src/hal/../draw/../misc/../font/../misc/lv
 2966              		.file 10 "Drivers/lvgl/src/extra/themes/mono/../../../../src/hal/../draw/../misc/../font/lv_font.h
 2967              		.file 11 "Drivers/lvgl/src/extra/themes/mono/../../../../src/hal/../draw/../misc/lv_txt.h"
 2968              		.file 12 "Drivers/lvgl/src/extra/themes/mono/../../../../src/hal/../draw/../misc/lv_bidi.h"
 2969              		.file 13 "Drivers/lvgl/src/extra/themes/mono/../../../../src/hal/../draw/lv_img_buf.h"
 2970              		.file 14 "Drivers/lvgl/src/extra/themes/mono/../../../../src/core/lv_obj.h"
 2971              		.file 15 "Drivers/lvgl/src/extra/themes/mono/../../../../src/hal/../draw/lv_draw_rect.h"
 2972              		.file 16 "Drivers/lvgl/src/extra/themes/mono/../../../../src/hal/../draw/lv_draw_label.h"
 2973              		.file 17 "Drivers/lvgl/src/extra/themes/mono/../../../../src/hal/../draw/lv_draw_img.h"
 2974              		.file 18 "Drivers/lvgl/src/extra/themes/mono/../../../../src/hal/../draw/lv_draw_line.h"
 2975              		.file 19 "Drivers/lvgl/src/extra/themes/mono/../../../../src/hal/../draw/lv_draw_arc.h"
 2976              		.file 20 "Drivers/lvgl/src/extra/themes/mono/../../../../src/hal/../draw/lv_draw_layer.h"
 2977              		.file 21 "Drivers/lvgl/src/extra/themes/mono/../../../../src/hal/../draw/lv_draw.h"
 2978              		.file 22 "Drivers/lvgl/src/extra/themes/mono/../../../../src/hal/../misc/lv_ll.h"
 2979              		.file 23 "Drivers/lvgl/src/extra/themes/mono/../../../../src/hal/lv_hal_disp.h"
 2980              		.file 24 "Drivers/lvgl/src/extra/themes/mono/../../../../src/core/lv_theme.h"
 2981              		.file 25 "Drivers/lvgl/src/extra/themes/mono/../../../../src/core/lv_group.h"
 2982              		.file 26 "Drivers/lvgl/src/extra/themes/mono/../../../../src/core/lv_obj_scroll.h"
 2983              		.file 27 "Drivers/lvgl/src/extra/themes/mono/../../../../src/core/lv_obj_style.h"
 2984              		.file 28 "Drivers/lvgl/src/extra/themes/mono/../../../../src/core/lv_obj_class.h"
 2985              		.file 29 "Drivers/lvgl/src/extra/themes/mono/../../../../src/core/lv_event.h"
 2986              		.file 30 "Drivers/lvgl/src/extra/themes/mono/../../../../src/widgets/lv_arc.h"
 2987              		.file 31 "Drivers/lvgl/src/extra/themes/mono/../../../../src/widgets/lv_btn.h"
 2988              		.file 32 "Drivers/lvgl/src/extra/themes/mono/../../../../src/widgets/lv_table.h"
 2989              		.file 33 "Drivers/lvgl/src/extra/themes/mono/../../../../src/widgets/lv_checkbox.h"
 2990              		.file 34 "Drivers/lvgl/src/extra/themes/mono/../../../../src/widgets/lv_bar.h"
 2991              		.file 35 "Drivers/lvgl/src/extra/themes/mono/../../../../src/widgets/lv_slider.h"
 2992              		.file 36 "Drivers/lvgl/src/extra/themes/mono/../../../../src/widgets/lv_btnmatrix.h"
 2993              		.file 37 "Drivers/lvgl/src/extra/themes/mono/../../../../src/widgets/lv_dropdown.h"
 2994              		.file 38 "Drivers/lvgl/src/extra/themes/mono/../../../../src/widgets/lv_roller.h"
ARM GAS  /var/folders/lp/x54gwt890xv47sdkqj1k04q40000gn/T//cc6ygGfE.s 			page 94


 2995              		.file 39 "Drivers/lvgl/src/extra/themes/mono/../../../../src/widgets/lv_textarea.h"
 2996              		.file 40 "Drivers/lvgl/src/extra/themes/mono/../../../../src/widgets/lv_switch.h"
 2997              		.file 41 "Drivers/lvgl/src/extra/themes/mono/../../../../src/extra/widgets/calendar/lv_calendar.h"
 2998              		.file 42 "Drivers/lvgl/src/extra/themes/mono/../../../../src/extra/widgets/chart/lv_chart.h"
 2999              		.file 43 "Drivers/lvgl/src/extra/themes/mono/../../../../src/extra/widgets/keyboard/lv_keyboard.h"
 3000              		.file 44 "Drivers/lvgl/src/extra/themes/mono/../../../../src/extra/widgets/list/lv_list.h"
 3001              		.file 45 "Drivers/lvgl/src/extra/themes/mono/../../../../src/extra/widgets/msgbox/lv_msgbox.h"
 3002              		.file 46 "Drivers/lvgl/src/extra/themes/mono/../../../../src/extra/widgets/meter/lv_meter.h"
 3003              		.file 47 "Drivers/lvgl/src/extra/themes/mono/../../../../src/extra/widgets/spinbox/lv_spinbox.h"
 3004              		.file 48 "Drivers/lvgl/src/extra/themes/mono/../../../../src/extra/widgets/tabview/lv_tabview.h"
 3005              		.file 49 "Drivers/lvgl/src/extra/themes/mono/../../../../src/extra/widgets/tileview/lv_tileview.h"
 3006              		.file 50 "Drivers/lvgl/src/extra/themes/mono/../../../../src/extra/widgets/win/lv_win.h"
 3007              		.file 51 "Drivers/lvgl/src/extra/themes/mono/../../../../src/extra/widgets/led/lv_led.h"
 3008              		.file 52 "Drivers/lvgl/src/extra/themes/mono/../../../../src/extra/widgets/imgbtn/lv_imgbtn.h"
 3009              		.file 53 "Drivers/lvgl/src/extra/themes/mono/../../../misc/lv_gc.h"
 3010              		.file 54 "Drivers/lvgl/src/extra/themes/mono/../../../../src/hal/../draw/../misc/lv_style_gen.h"
 3011              		.file 55 "Drivers/lvgl/src/extra/themes/mono/../../../../src/core/lv_obj_tree.h"
 3012              		.file 56 "Drivers/lvgl/src/extra/themes/mono/../../../../src/core/lv_disp.h"
 3013              		.file 57 "Drivers/lvgl/src/extra/themes/mono/../../../../src/misc/lv_mem.h"
ARM GAS  /var/folders/lp/x54gwt890xv47sdkqj1k04q40000gn/T//cc6ygGfE.s 			page 95


DEFINED SYMBOLS
                            *ABS*:00000000 lv_theme_mono.c
/var/folders/lp/x54gwt890xv47sdkqj1k04q40000gn/T//cc6ygGfE.s:21     .text.theme_apply:00000000 $t
/var/folders/lp/x54gwt890xv47sdkqj1k04q40000gn/T//cc6ygGfE.s:27     .text.theme_apply:00000000 theme_apply
/var/folders/lp/x54gwt890xv47sdkqj1k04q40000gn/T//cc6ygGfE.s:610    .text.theme_apply:000002d4 $d
/var/folders/lp/x54gwt890xv47sdkqj1k04q40000gn/T//cc6ygGfE.s:2956   .bss.styles:00000000 styles
/var/folders/lp/x54gwt890xv47sdkqj1k04q40000gn/T//cc6ygGfE.s:630    .text.theme_apply:00000310 $t
/var/folders/lp/x54gwt890xv47sdkqj1k04q40000gn/T//cc6ygGfE.s:1116   .text.theme_apply:000005d8 $d
/var/folders/lp/x54gwt890xv47sdkqj1k04q40000gn/T//cc6ygGfE.s:1137   .text.theme_apply:00000620 $t
/var/folders/lp/x54gwt890xv47sdkqj1k04q40000gn/T//cc6ygGfE.s:1470   .text.theme_apply:000007f0 $d
/var/folders/lp/x54gwt890xv47sdkqj1k04q40000gn/T//cc6ygGfE.s:1492   .text.lv_theme_mono_is_inited:00000000 $t
/var/folders/lp/x54gwt890xv47sdkqj1k04q40000gn/T//cc6ygGfE.s:1499   .text.lv_theme_mono_is_inited:00000000 lv_theme_mono_is_inited
/var/folders/lp/x54gwt890xv47sdkqj1k04q40000gn/T//cc6ygGfE.s:1518   .text.lv_theme_mono_is_inited:0000000c $d
/var/folders/lp/x54gwt890xv47sdkqj1k04q40000gn/T//cc6ygGfE.s:1523   .text.lv_theme_mono_init:00000000 $t
/var/folders/lp/x54gwt890xv47sdkqj1k04q40000gn/T//cc6ygGfE.s:1530   .text.lv_theme_mono_init:00000000 lv_theme_mono_init
/var/folders/lp/x54gwt890xv47sdkqj1k04q40000gn/T//cc6ygGfE.s:2322   .text.lv_theme_mono_init:00000354 $d
/var/folders/lp/x54gwt890xv47sdkqj1k04q40000gn/T//cc6ygGfE.s:2944   .bss.inited:00000000 inited
/var/folders/lp/x54gwt890xv47sdkqj1k04q40000gn/T//cc6ygGfE.s:2950   .bss.theme:00000000 theme
/var/folders/lp/x54gwt890xv47sdkqj1k04q40000gn/T//cc6ygGfE.s:2334   .text.lv_theme_mono_init:00000368 $t
/var/folders/lp/x54gwt890xv47sdkqj1k04q40000gn/T//cc6ygGfE.s:2930   .text.lv_theme_mono_init:00000558 $d
/var/folders/lp/x54gwt890xv47sdkqj1k04q40000gn/T//cc6ygGfE.s:2945   .bss.inited:00000000 $d
/var/folders/lp/x54gwt890xv47sdkqj1k04q40000gn/T//cc6ygGfE.s:2947   .bss.theme:00000000 $d
/var/folders/lp/x54gwt890xv47sdkqj1k04q40000gn/T//cc6ygGfE.s:2953   .bss.styles:00000000 $d

UNDEFINED SYMBOLS
lv_obj_get_parent
lv_obj_check_type
lv_obj_add_style
lv_obj_get_index
lv_obj_class
lv_btn_class
lv_tabview_class
lv_win_class
lv_led_class
lv_btnmatrix_class
lv_msgbox_class
lv_bar_class
lv_slider_class
lv_table_class
lv_checkbox_class
lv_switch_class
lv_chart_class
lv_roller_class
lv_dropdown_class
lv_dropdownlist_class
lv_arc_class
lv_meter_class
lv_textarea_class
lv_calendar_class
lv_keyboard_class
lv_list_class
lv_list_text_class
lv_list_btn_class
lv_spinbox_class
lv_tileview_class
lv_tileview_tile_class
_lv_theme_default_styles
ARM GAS  /var/folders/lp/x54gwt890xv47sdkqj1k04q40000gn/T//cc6ygGfE.s 			page 96


lv_style_reset
lv_style_set_bg_opa
lv_style_set_bg_color
lv_style_set_width
lv_style_set_text_color
lv_style_set_pad_row
lv_style_set_pad_column
lv_style_set_text_font
lv_style_set_border_color
lv_style_set_radius
lv_style_set_border_width
lv_style_set_pad_left
lv_style_set_pad_right
lv_style_set_pad_top
lv_style_set_pad_bottom
lv_style_set_line_width
lv_style_set_line_color
lv_style_set_arc_width
lv_style_set_arc_color
lv_style_set_outline_color
lv_style_set_anim_time
lv_style_set_outline_width
lv_style_set_outline_pad
lv_font_montserrat_14
lv_style_set_text_line_space
lv_style_set_text_decor
lv_style_set_border_side
lv_disp_get_theme
lv_obj_report_style_change
lv_style_init
lv_mem_alloc
