ARM GAS  /var/folders/lp/x54gwt890xv47sdkqj1k04q40000gn/T//cceYwpZM.s 			page 1


   1              		.cpu cortex-m4
   2              		.arch armv7e-m
   3              		.fpu fpv4-sp-d16
   4              		.eabi_attribute 27, 1
   5              		.eabi_attribute 28, 1
   6              		.eabi_attribute 20, 1
   7              		.eabi_attribute 21, 1
   8              		.eabi_attribute 23, 3
   9              		.eabi_attribute 24, 1
  10              		.eabi_attribute 25, 1
  11              		.eabi_attribute 26, 1
  12              		.eabi_attribute 30, 2
  13              		.eabi_attribute 34, 1
  14              		.eabi_attribute 18, 4
  15              		.file	"lv_tlsf.c"
  16              		.text
  17              	.Ltext0:
  18              		.cfi_sections	.debug_frame
  19              		.file 1 "Drivers/lvgl/src/misc/lv_tlsf.c"
  20              		.section	.text.block_split,"ax",%progbits
  21              		.align	1
  22              		.p2align 2,,3
  23              		.syntax unified
  24              		.thumb
  25              		.thumb_func
  27              	block_split:
  28              	.LVL0:
  29              	.LFB32:
   1:Drivers/lvgl/src/misc/lv_tlsf.c **** #include "../lv_conf_internal.h"
   2:Drivers/lvgl/src/misc/lv_tlsf.c **** #if LV_MEM_CUSTOM == 0
   3:Drivers/lvgl/src/misc/lv_tlsf.c **** 
   4:Drivers/lvgl/src/misc/lv_tlsf.c **** #include <limits.h>
   5:Drivers/lvgl/src/misc/lv_tlsf.c **** #include "lv_tlsf.h"
   6:Drivers/lvgl/src/misc/lv_tlsf.c **** #include "lv_mem.h"
   7:Drivers/lvgl/src/misc/lv_tlsf.c **** #include "lv_log.h"
   8:Drivers/lvgl/src/misc/lv_tlsf.c **** #include "lv_assert.h"
   9:Drivers/lvgl/src/misc/lv_tlsf.c **** 
  10:Drivers/lvgl/src/misc/lv_tlsf.c **** #undef  printf
  11:Drivers/lvgl/src/misc/lv_tlsf.c **** #define printf LV_LOG_ERROR
  12:Drivers/lvgl/src/misc/lv_tlsf.c **** 
  13:Drivers/lvgl/src/misc/lv_tlsf.c **** #define TLSF_MAX_POOL_SIZE LV_MEM_SIZE
  14:Drivers/lvgl/src/misc/lv_tlsf.c **** 
  15:Drivers/lvgl/src/misc/lv_tlsf.c **** #if !defined(_DEBUG)
  16:Drivers/lvgl/src/misc/lv_tlsf.c ****     #define _DEBUG 0
  17:Drivers/lvgl/src/misc/lv_tlsf.c **** #endif
  18:Drivers/lvgl/src/misc/lv_tlsf.c **** 
  19:Drivers/lvgl/src/misc/lv_tlsf.c **** #if defined(__cplusplus)
  20:Drivers/lvgl/src/misc/lv_tlsf.c ****     #define tlsf_decl inline
  21:Drivers/lvgl/src/misc/lv_tlsf.c **** #else
  22:Drivers/lvgl/src/misc/lv_tlsf.c ****     #define tlsf_decl static
  23:Drivers/lvgl/src/misc/lv_tlsf.c **** #endif
  24:Drivers/lvgl/src/misc/lv_tlsf.c **** 
  25:Drivers/lvgl/src/misc/lv_tlsf.c **** /*
  26:Drivers/lvgl/src/misc/lv_tlsf.c **** ** Architecture-specific bit manipulation routines.
  27:Drivers/lvgl/src/misc/lv_tlsf.c **** **
  28:Drivers/lvgl/src/misc/lv_tlsf.c **** ** TLSF achieves O(1) cost for malloc and free operations by limiting
  29:Drivers/lvgl/src/misc/lv_tlsf.c **** ** the search for a free block to a free list of guaranteed size
ARM GAS  /var/folders/lp/x54gwt890xv47sdkqj1k04q40000gn/T//cceYwpZM.s 			page 2


  30:Drivers/lvgl/src/misc/lv_tlsf.c **** ** adequate to fulfill the request, combined with efficient free list
  31:Drivers/lvgl/src/misc/lv_tlsf.c **** ** queries using bitmasks and architecture-specific bit-manipulation
  32:Drivers/lvgl/src/misc/lv_tlsf.c **** ** routines.
  33:Drivers/lvgl/src/misc/lv_tlsf.c **** **
  34:Drivers/lvgl/src/misc/lv_tlsf.c **** ** Most modern processors provide instructions to count leading zeroes
  35:Drivers/lvgl/src/misc/lv_tlsf.c **** ** in a word, find the lowest and highest set bit, etc. These
  36:Drivers/lvgl/src/misc/lv_tlsf.c **** ** specific implementations will be used when available, falling back
  37:Drivers/lvgl/src/misc/lv_tlsf.c **** ** to a reasonably efficient generic implementation.
  38:Drivers/lvgl/src/misc/lv_tlsf.c **** **
  39:Drivers/lvgl/src/misc/lv_tlsf.c **** ** NOTE: TLSF spec relies on ffs/fls returning value 0..31.
  40:Drivers/lvgl/src/misc/lv_tlsf.c **** ** ffs/fls return 1-32 by default, returning 0 for error.
  41:Drivers/lvgl/src/misc/lv_tlsf.c **** */
  42:Drivers/lvgl/src/misc/lv_tlsf.c **** 
  43:Drivers/lvgl/src/misc/lv_tlsf.c **** /*
  44:Drivers/lvgl/src/misc/lv_tlsf.c **** ** Detect whether or not we are building for a 32- or 64-bit (LP/LLP)
  45:Drivers/lvgl/src/misc/lv_tlsf.c **** ** architecture. There is no reliable portable method at compile-time.
  46:Drivers/lvgl/src/misc/lv_tlsf.c **** */
  47:Drivers/lvgl/src/misc/lv_tlsf.c **** #if defined (__alpha__) || defined (__ia64__) || defined (__x86_64__) \
  48:Drivers/lvgl/src/misc/lv_tlsf.c ****     || defined (_WIN64) || defined (__LP64__) || defined (__LLP64__)
  49:Drivers/lvgl/src/misc/lv_tlsf.c ****     #define TLSF_64BIT
  50:Drivers/lvgl/src/misc/lv_tlsf.c **** #endif
  51:Drivers/lvgl/src/misc/lv_tlsf.c **** 
  52:Drivers/lvgl/src/misc/lv_tlsf.c **** /*
  53:Drivers/lvgl/src/misc/lv_tlsf.c **** ** Returns one plus the index of the most significant 1-bit of n,
  54:Drivers/lvgl/src/misc/lv_tlsf.c **** ** or if n is zero, returns zero.
  55:Drivers/lvgl/src/misc/lv_tlsf.c **** */
  56:Drivers/lvgl/src/misc/lv_tlsf.c **** #ifdef TLSF_64BIT
  57:Drivers/lvgl/src/misc/lv_tlsf.c ****     #define TLSF_FLS(n) ((n) & 0xffffffff00000000ull ? 32 + TLSF_FLS32((size_t)(n) >> 32) : TLSF_FL
  58:Drivers/lvgl/src/misc/lv_tlsf.c **** #else
  59:Drivers/lvgl/src/misc/lv_tlsf.c ****     #define TLSF_FLS(n) TLSF_FLS32(n)
  60:Drivers/lvgl/src/misc/lv_tlsf.c **** #endif
  61:Drivers/lvgl/src/misc/lv_tlsf.c **** 
  62:Drivers/lvgl/src/misc/lv_tlsf.c **** #define TLSF_FLS32(n) ((n) & 0xffff0000 ? 16 + TLSF_FLS16((n) >> 16) : TLSF_FLS16(n))
  63:Drivers/lvgl/src/misc/lv_tlsf.c **** #define TLSF_FLS16(n) ((n) & 0xff00     ?  8 + TLSF_FLS8 ((n) >>  8) : TLSF_FLS8 (n))
  64:Drivers/lvgl/src/misc/lv_tlsf.c **** #define TLSF_FLS8(n)  ((n) & 0xf0       ?  4 + TLSF_FLS4 ((n) >>  4) : TLSF_FLS4 (n))
  65:Drivers/lvgl/src/misc/lv_tlsf.c **** #define TLSF_FLS4(n)  ((n) & 0xc        ?  2 + TLSF_FLS2 ((n) >>  2) : TLSF_FLS2 (n))
  66:Drivers/lvgl/src/misc/lv_tlsf.c **** #define TLSF_FLS2(n)  ((n) & 0x2        ?  1 + TLSF_FLS1 ((n) >>  1) : TLSF_FLS1 (n))
  67:Drivers/lvgl/src/misc/lv_tlsf.c **** #define TLSF_FLS1(n)  ((n) & 0x1        ?  1 : 0)
  68:Drivers/lvgl/src/misc/lv_tlsf.c **** 
  69:Drivers/lvgl/src/misc/lv_tlsf.c **** /*
  70:Drivers/lvgl/src/misc/lv_tlsf.c **** ** Returns round up value of log2(n).
  71:Drivers/lvgl/src/misc/lv_tlsf.c **** ** Note: it is used at compile time.
  72:Drivers/lvgl/src/misc/lv_tlsf.c **** */
  73:Drivers/lvgl/src/misc/lv_tlsf.c **** #define TLSF_LOG2_CEIL(n) ((n) & (n - 1) ? TLSF_FLS(n) : TLSF_FLS(n) - 1)
  74:Drivers/lvgl/src/misc/lv_tlsf.c **** 
  75:Drivers/lvgl/src/misc/lv_tlsf.c **** /*
  76:Drivers/lvgl/src/misc/lv_tlsf.c **** ** gcc 3.4 and above have builtin support, specialized for architecture.
  77:Drivers/lvgl/src/misc/lv_tlsf.c **** ** Some compilers masquerade as gcc; patchlevel test filters them out.
  78:Drivers/lvgl/src/misc/lv_tlsf.c **** */
  79:Drivers/lvgl/src/misc/lv_tlsf.c **** #if defined (__GNUC__) && (__GNUC__ > 3 || (__GNUC__ == 3 && __GNUC_MINOR__ >= 4)) \
  80:Drivers/lvgl/src/misc/lv_tlsf.c ****     && defined (__GNUC_PATCHLEVEL__)
  81:Drivers/lvgl/src/misc/lv_tlsf.c **** 
  82:Drivers/lvgl/src/misc/lv_tlsf.c **** #if defined (__SNC__)
  83:Drivers/lvgl/src/misc/lv_tlsf.c **** /* SNC for Playstation 3. */
  84:Drivers/lvgl/src/misc/lv_tlsf.c **** 
  85:Drivers/lvgl/src/misc/lv_tlsf.c **** tlsf_decl int tlsf_ffs(unsigned int word)
  86:Drivers/lvgl/src/misc/lv_tlsf.c **** {
ARM GAS  /var/folders/lp/x54gwt890xv47sdkqj1k04q40000gn/T//cceYwpZM.s 			page 3


  87:Drivers/lvgl/src/misc/lv_tlsf.c ****     const unsigned int reverse = word & (~word + 1);
  88:Drivers/lvgl/src/misc/lv_tlsf.c ****     const int bit = 32 - __builtin_clz(reverse);
  89:Drivers/lvgl/src/misc/lv_tlsf.c ****     return bit - 1;
  90:Drivers/lvgl/src/misc/lv_tlsf.c **** }
  91:Drivers/lvgl/src/misc/lv_tlsf.c **** 
  92:Drivers/lvgl/src/misc/lv_tlsf.c **** #else
  93:Drivers/lvgl/src/misc/lv_tlsf.c **** 
  94:Drivers/lvgl/src/misc/lv_tlsf.c **** tlsf_decl int tlsf_ffs(unsigned int word)
  95:Drivers/lvgl/src/misc/lv_tlsf.c **** {
  96:Drivers/lvgl/src/misc/lv_tlsf.c ****     return __builtin_ffs(word) - 1;
  97:Drivers/lvgl/src/misc/lv_tlsf.c **** }
  98:Drivers/lvgl/src/misc/lv_tlsf.c **** 
  99:Drivers/lvgl/src/misc/lv_tlsf.c **** #endif
 100:Drivers/lvgl/src/misc/lv_tlsf.c **** 
 101:Drivers/lvgl/src/misc/lv_tlsf.c **** tlsf_decl int tlsf_fls(unsigned int word)
 102:Drivers/lvgl/src/misc/lv_tlsf.c **** {
 103:Drivers/lvgl/src/misc/lv_tlsf.c ****     const int bit = word ? 32 - __builtin_clz(word) : 0;
 104:Drivers/lvgl/src/misc/lv_tlsf.c ****     return bit - 1;
 105:Drivers/lvgl/src/misc/lv_tlsf.c **** }
 106:Drivers/lvgl/src/misc/lv_tlsf.c **** 
 107:Drivers/lvgl/src/misc/lv_tlsf.c **** #elif defined (_MSC_VER) && (_MSC_VER >= 1400) && (defined (_M_IX86) || defined (_M_X64))
 108:Drivers/lvgl/src/misc/lv_tlsf.c **** /* Microsoft Visual C++ support on x86/X64 architectures. */
 109:Drivers/lvgl/src/misc/lv_tlsf.c **** 
 110:Drivers/lvgl/src/misc/lv_tlsf.c **** #include <intrin.h>
 111:Drivers/lvgl/src/misc/lv_tlsf.c **** 
 112:Drivers/lvgl/src/misc/lv_tlsf.c **** #pragma intrinsic(_BitScanReverse)
 113:Drivers/lvgl/src/misc/lv_tlsf.c **** #pragma intrinsic(_BitScanForward)
 114:Drivers/lvgl/src/misc/lv_tlsf.c **** 
 115:Drivers/lvgl/src/misc/lv_tlsf.c **** tlsf_decl int tlsf_fls(unsigned int word)
 116:Drivers/lvgl/src/misc/lv_tlsf.c **** {
 117:Drivers/lvgl/src/misc/lv_tlsf.c ****     unsigned long index;
 118:Drivers/lvgl/src/misc/lv_tlsf.c ****     return _BitScanReverse(&index, word) ? index : -1;
 119:Drivers/lvgl/src/misc/lv_tlsf.c **** }
 120:Drivers/lvgl/src/misc/lv_tlsf.c **** 
 121:Drivers/lvgl/src/misc/lv_tlsf.c **** tlsf_decl int tlsf_ffs(unsigned int word)
 122:Drivers/lvgl/src/misc/lv_tlsf.c **** {
 123:Drivers/lvgl/src/misc/lv_tlsf.c ****     unsigned long index;
 124:Drivers/lvgl/src/misc/lv_tlsf.c ****     return _BitScanForward(&index, word) ? index : -1;
 125:Drivers/lvgl/src/misc/lv_tlsf.c **** }
 126:Drivers/lvgl/src/misc/lv_tlsf.c **** 
 127:Drivers/lvgl/src/misc/lv_tlsf.c **** #elif defined (_MSC_VER) && defined (_M_PPC)
 128:Drivers/lvgl/src/misc/lv_tlsf.c **** /* Microsoft Visual C++ support on PowerPC architectures. */
 129:Drivers/lvgl/src/misc/lv_tlsf.c **** 
 130:Drivers/lvgl/src/misc/lv_tlsf.c **** #include <ppcintrinsics.h>
 131:Drivers/lvgl/src/misc/lv_tlsf.c **** 
 132:Drivers/lvgl/src/misc/lv_tlsf.c **** tlsf_decl int tlsf_fls(unsigned int word)
 133:Drivers/lvgl/src/misc/lv_tlsf.c **** {
 134:Drivers/lvgl/src/misc/lv_tlsf.c ****     const int bit = 32 - _CountLeadingZeros(word);
 135:Drivers/lvgl/src/misc/lv_tlsf.c ****     return bit - 1;
 136:Drivers/lvgl/src/misc/lv_tlsf.c **** }
 137:Drivers/lvgl/src/misc/lv_tlsf.c **** 
 138:Drivers/lvgl/src/misc/lv_tlsf.c **** tlsf_decl int tlsf_ffs(unsigned int word)
 139:Drivers/lvgl/src/misc/lv_tlsf.c **** {
 140:Drivers/lvgl/src/misc/lv_tlsf.c ****     const unsigned int reverse = word & (~word + 1);
 141:Drivers/lvgl/src/misc/lv_tlsf.c ****     const int bit = 32 - _CountLeadingZeros(reverse);
 142:Drivers/lvgl/src/misc/lv_tlsf.c ****     return bit - 1;
 143:Drivers/lvgl/src/misc/lv_tlsf.c **** }
ARM GAS  /var/folders/lp/x54gwt890xv47sdkqj1k04q40000gn/T//cceYwpZM.s 			page 4


 144:Drivers/lvgl/src/misc/lv_tlsf.c **** 
 145:Drivers/lvgl/src/misc/lv_tlsf.c **** #elif defined (__ARMCC_VERSION)
 146:Drivers/lvgl/src/misc/lv_tlsf.c **** /* RealView Compilation Tools for ARM */
 147:Drivers/lvgl/src/misc/lv_tlsf.c **** 
 148:Drivers/lvgl/src/misc/lv_tlsf.c **** tlsf_decl int tlsf_ffs(unsigned int word)
 149:Drivers/lvgl/src/misc/lv_tlsf.c **** {
 150:Drivers/lvgl/src/misc/lv_tlsf.c ****     const unsigned int reverse = word & (~word + 1);
 151:Drivers/lvgl/src/misc/lv_tlsf.c ****     const int bit = 32 - __clz(reverse);
 152:Drivers/lvgl/src/misc/lv_tlsf.c ****     return bit - 1;
 153:Drivers/lvgl/src/misc/lv_tlsf.c **** }
 154:Drivers/lvgl/src/misc/lv_tlsf.c **** 
 155:Drivers/lvgl/src/misc/lv_tlsf.c **** tlsf_decl int tlsf_fls(unsigned int word)
 156:Drivers/lvgl/src/misc/lv_tlsf.c **** {
 157:Drivers/lvgl/src/misc/lv_tlsf.c ****     const int bit = word ? 32 - __clz(word) : 0;
 158:Drivers/lvgl/src/misc/lv_tlsf.c ****     return bit - 1;
 159:Drivers/lvgl/src/misc/lv_tlsf.c **** }
 160:Drivers/lvgl/src/misc/lv_tlsf.c **** 
 161:Drivers/lvgl/src/misc/lv_tlsf.c **** #elif defined (__ghs__)
 162:Drivers/lvgl/src/misc/lv_tlsf.c **** /* Green Hills support for PowerPC */
 163:Drivers/lvgl/src/misc/lv_tlsf.c **** 
 164:Drivers/lvgl/src/misc/lv_tlsf.c **** #include <ppc_ghs.h>
 165:Drivers/lvgl/src/misc/lv_tlsf.c **** 
 166:Drivers/lvgl/src/misc/lv_tlsf.c **** tlsf_decl int tlsf_ffs(unsigned int word)
 167:Drivers/lvgl/src/misc/lv_tlsf.c **** {
 168:Drivers/lvgl/src/misc/lv_tlsf.c ****     const unsigned int reverse = word & (~word + 1);
 169:Drivers/lvgl/src/misc/lv_tlsf.c ****     const int bit = 32 - __CLZ32(reverse);
 170:Drivers/lvgl/src/misc/lv_tlsf.c ****     return bit - 1;
 171:Drivers/lvgl/src/misc/lv_tlsf.c **** }
 172:Drivers/lvgl/src/misc/lv_tlsf.c **** 
 173:Drivers/lvgl/src/misc/lv_tlsf.c **** tlsf_decl int tlsf_fls(unsigned int word)
 174:Drivers/lvgl/src/misc/lv_tlsf.c **** {
 175:Drivers/lvgl/src/misc/lv_tlsf.c ****     const int bit = word ? 32 - __CLZ32(word) : 0;
 176:Drivers/lvgl/src/misc/lv_tlsf.c ****     return bit - 1;
 177:Drivers/lvgl/src/misc/lv_tlsf.c **** }
 178:Drivers/lvgl/src/misc/lv_tlsf.c **** 
 179:Drivers/lvgl/src/misc/lv_tlsf.c **** #else
 180:Drivers/lvgl/src/misc/lv_tlsf.c **** /* Fall back to generic implementation. */
 181:Drivers/lvgl/src/misc/lv_tlsf.c **** 
 182:Drivers/lvgl/src/misc/lv_tlsf.c **** /* Implement ffs in terms of fls. */
 183:Drivers/lvgl/src/misc/lv_tlsf.c **** tlsf_decl int tlsf_ffs(unsigned int word)
 184:Drivers/lvgl/src/misc/lv_tlsf.c **** {
 185:Drivers/lvgl/src/misc/lv_tlsf.c ****     const unsigned int reverse = word & (~word + 1);
 186:Drivers/lvgl/src/misc/lv_tlsf.c ****     return TLSF_FLS32(reverse) - 1;
 187:Drivers/lvgl/src/misc/lv_tlsf.c **** }
 188:Drivers/lvgl/src/misc/lv_tlsf.c **** 
 189:Drivers/lvgl/src/misc/lv_tlsf.c **** tlsf_decl int tlsf_fls(unsigned int word)
 190:Drivers/lvgl/src/misc/lv_tlsf.c **** {
 191:Drivers/lvgl/src/misc/lv_tlsf.c ****     return TLSF_FLS32(word) - 1;
 192:Drivers/lvgl/src/misc/lv_tlsf.c **** }
 193:Drivers/lvgl/src/misc/lv_tlsf.c **** 
 194:Drivers/lvgl/src/misc/lv_tlsf.c **** #endif
 195:Drivers/lvgl/src/misc/lv_tlsf.c **** 
 196:Drivers/lvgl/src/misc/lv_tlsf.c **** /* Possibly 64-bit version of tlsf_fls. */
 197:Drivers/lvgl/src/misc/lv_tlsf.c **** #if defined (TLSF_64BIT)
 198:Drivers/lvgl/src/misc/lv_tlsf.c **** tlsf_decl int tlsf_fls_sizet(size_t size)
 199:Drivers/lvgl/src/misc/lv_tlsf.c **** {
 200:Drivers/lvgl/src/misc/lv_tlsf.c ****     int high = (int)(size >> 32);
ARM GAS  /var/folders/lp/x54gwt890xv47sdkqj1k04q40000gn/T//cceYwpZM.s 			page 5


 201:Drivers/lvgl/src/misc/lv_tlsf.c ****     int bits = 0;
 202:Drivers/lvgl/src/misc/lv_tlsf.c ****     if(high) {
 203:Drivers/lvgl/src/misc/lv_tlsf.c ****         bits = 32 + tlsf_fls(high);
 204:Drivers/lvgl/src/misc/lv_tlsf.c ****     }
 205:Drivers/lvgl/src/misc/lv_tlsf.c ****     else {
 206:Drivers/lvgl/src/misc/lv_tlsf.c ****         bits = tlsf_fls((int)size & 0xffffffff);
 207:Drivers/lvgl/src/misc/lv_tlsf.c **** 
 208:Drivers/lvgl/src/misc/lv_tlsf.c ****     }
 209:Drivers/lvgl/src/misc/lv_tlsf.c ****     return bits;
 210:Drivers/lvgl/src/misc/lv_tlsf.c **** }
 211:Drivers/lvgl/src/misc/lv_tlsf.c **** #else
 212:Drivers/lvgl/src/misc/lv_tlsf.c **** #define tlsf_fls_sizet tlsf_fls
 213:Drivers/lvgl/src/misc/lv_tlsf.c **** #endif
 214:Drivers/lvgl/src/misc/lv_tlsf.c **** 
 215:Drivers/lvgl/src/misc/lv_tlsf.c **** #undef tlsf_decl
 216:Drivers/lvgl/src/misc/lv_tlsf.c **** 
 217:Drivers/lvgl/src/misc/lv_tlsf.c **** /*
 218:Drivers/lvgl/src/misc/lv_tlsf.c **** ** Constants.
 219:Drivers/lvgl/src/misc/lv_tlsf.c **** */
 220:Drivers/lvgl/src/misc/lv_tlsf.c **** 
 221:Drivers/lvgl/src/misc/lv_tlsf.c **** /* Public constants: may be modified. */
 222:Drivers/lvgl/src/misc/lv_tlsf.c **** enum tlsf_public {
 223:Drivers/lvgl/src/misc/lv_tlsf.c ****     /* log2 of number of linear subdivisions of block sizes. Larger
 224:Drivers/lvgl/src/misc/lv_tlsf.c ****     ** values require more memory in the control structure. Values of
 225:Drivers/lvgl/src/misc/lv_tlsf.c ****     ** 4 or 5 are typical.
 226:Drivers/lvgl/src/misc/lv_tlsf.c ****     */
 227:Drivers/lvgl/src/misc/lv_tlsf.c ****     SL_INDEX_COUNT_LOG2 = 5,
 228:Drivers/lvgl/src/misc/lv_tlsf.c **** };
 229:Drivers/lvgl/src/misc/lv_tlsf.c **** 
 230:Drivers/lvgl/src/misc/lv_tlsf.c **** /* Private constants: do not modify. */
 231:Drivers/lvgl/src/misc/lv_tlsf.c **** enum tlsf_private {
 232:Drivers/lvgl/src/misc/lv_tlsf.c **** #if defined (TLSF_64BIT)
 233:Drivers/lvgl/src/misc/lv_tlsf.c ****     /* All allocation sizes and addresses are aligned to 8 bytes. */
 234:Drivers/lvgl/src/misc/lv_tlsf.c ****     ALIGN_SIZE_LOG2 = 3,
 235:Drivers/lvgl/src/misc/lv_tlsf.c **** #else
 236:Drivers/lvgl/src/misc/lv_tlsf.c ****     /* All allocation sizes and addresses are aligned to 4 bytes. */
 237:Drivers/lvgl/src/misc/lv_tlsf.c ****     ALIGN_SIZE_LOG2 = 2,
 238:Drivers/lvgl/src/misc/lv_tlsf.c **** #endif
 239:Drivers/lvgl/src/misc/lv_tlsf.c ****     ALIGN_SIZE = (1 << ALIGN_SIZE_LOG2),
 240:Drivers/lvgl/src/misc/lv_tlsf.c **** 
 241:Drivers/lvgl/src/misc/lv_tlsf.c ****     /*
 242:Drivers/lvgl/src/misc/lv_tlsf.c ****     ** We support allocations of sizes up to (1 << FL_INDEX_MAX) bits.
 243:Drivers/lvgl/src/misc/lv_tlsf.c ****     ** However, because we linearly subdivide the second-level lists, and
 244:Drivers/lvgl/src/misc/lv_tlsf.c ****     ** our minimum size granularity is 4 bytes, it doesn't make sense to
 245:Drivers/lvgl/src/misc/lv_tlsf.c ****     ** create first-level lists for sizes smaller than SL_INDEX_COUNT * 4,
 246:Drivers/lvgl/src/misc/lv_tlsf.c ****     ** or (1 << (SL_INDEX_COUNT_LOG2 + 2)) bytes, as there we will be
 247:Drivers/lvgl/src/misc/lv_tlsf.c ****     ** trying to split size ranges into more slots than we have available.
 248:Drivers/lvgl/src/misc/lv_tlsf.c ****     ** Instead, we calculate the minimum threshold size, and place all
 249:Drivers/lvgl/src/misc/lv_tlsf.c ****     ** blocks below that size into the 0th first-level list.
 250:Drivers/lvgl/src/misc/lv_tlsf.c ****     */
 251:Drivers/lvgl/src/misc/lv_tlsf.c **** 
 252:Drivers/lvgl/src/misc/lv_tlsf.c **** #if defined (TLSF_MAX_POOL_SIZE)
 253:Drivers/lvgl/src/misc/lv_tlsf.c ****     FL_INDEX_MAX = TLSF_LOG2_CEIL(TLSF_MAX_POOL_SIZE),
 254:Drivers/lvgl/src/misc/lv_tlsf.c **** #elif defined (TLSF_64BIT)
 255:Drivers/lvgl/src/misc/lv_tlsf.c ****     /*
 256:Drivers/lvgl/src/misc/lv_tlsf.c ****     ** TODO: We can increase this to support larger sizes, at the expense
 257:Drivers/lvgl/src/misc/lv_tlsf.c ****     ** of more overhead in the TLSF structure.
ARM GAS  /var/folders/lp/x54gwt890xv47sdkqj1k04q40000gn/T//cceYwpZM.s 			page 6


 258:Drivers/lvgl/src/misc/lv_tlsf.c ****     */
 259:Drivers/lvgl/src/misc/lv_tlsf.c ****     FL_INDEX_MAX = 32,
 260:Drivers/lvgl/src/misc/lv_tlsf.c **** #else
 261:Drivers/lvgl/src/misc/lv_tlsf.c ****     FL_INDEX_MAX = 30,
 262:Drivers/lvgl/src/misc/lv_tlsf.c **** #endif
 263:Drivers/lvgl/src/misc/lv_tlsf.c ****     SL_INDEX_COUNT = (1 << SL_INDEX_COUNT_LOG2),
 264:Drivers/lvgl/src/misc/lv_tlsf.c ****     FL_INDEX_SHIFT = (SL_INDEX_COUNT_LOG2 + ALIGN_SIZE_LOG2),
 265:Drivers/lvgl/src/misc/lv_tlsf.c ****     FL_INDEX_COUNT = (FL_INDEX_MAX - FL_INDEX_SHIFT + 1),
 266:Drivers/lvgl/src/misc/lv_tlsf.c **** 
 267:Drivers/lvgl/src/misc/lv_tlsf.c ****     SMALL_BLOCK_SIZE = (1 << FL_INDEX_SHIFT),
 268:Drivers/lvgl/src/misc/lv_tlsf.c **** };
 269:Drivers/lvgl/src/misc/lv_tlsf.c **** 
 270:Drivers/lvgl/src/misc/lv_tlsf.c **** /*
 271:Drivers/lvgl/src/misc/lv_tlsf.c **** ** Cast and min/max macros.
 272:Drivers/lvgl/src/misc/lv_tlsf.c **** */
 273:Drivers/lvgl/src/misc/lv_tlsf.c **** 
 274:Drivers/lvgl/src/misc/lv_tlsf.c **** #define tlsf_cast(t, exp)   ((t) (exp))
 275:Drivers/lvgl/src/misc/lv_tlsf.c **** #define tlsf_min(a, b)      ((a) < (b) ? (a) : (b))
 276:Drivers/lvgl/src/misc/lv_tlsf.c **** #define tlsf_max(a, b)      ((a) > (b) ? (a) : (b))
 277:Drivers/lvgl/src/misc/lv_tlsf.c **** 
 278:Drivers/lvgl/src/misc/lv_tlsf.c **** /*
 279:Drivers/lvgl/src/misc/lv_tlsf.c **** ** Set assert macro, if it has not been provided by the user.
 280:Drivers/lvgl/src/misc/lv_tlsf.c **** */
 281:Drivers/lvgl/src/misc/lv_tlsf.c **** #define tlsf_assert LV_ASSERT
 282:Drivers/lvgl/src/misc/lv_tlsf.c **** 
 283:Drivers/lvgl/src/misc/lv_tlsf.c **** #if !defined (tlsf_assert)
 284:Drivers/lvgl/src/misc/lv_tlsf.c ****     #define tlsf_assert assert
 285:Drivers/lvgl/src/misc/lv_tlsf.c **** #endif
 286:Drivers/lvgl/src/misc/lv_tlsf.c **** 
 287:Drivers/lvgl/src/misc/lv_tlsf.c **** /*
 288:Drivers/lvgl/src/misc/lv_tlsf.c **** ** Static assertion mechanism.
 289:Drivers/lvgl/src/misc/lv_tlsf.c **** */
 290:Drivers/lvgl/src/misc/lv_tlsf.c **** 
 291:Drivers/lvgl/src/misc/lv_tlsf.c **** #define _tlsf_glue2(x, y) x ## y
 292:Drivers/lvgl/src/misc/lv_tlsf.c **** #define _tlsf_glue(x, y) _tlsf_glue2(x, y)
 293:Drivers/lvgl/src/misc/lv_tlsf.c **** #define tlsf_static_assert(exp) \
 294:Drivers/lvgl/src/misc/lv_tlsf.c ****     typedef char _tlsf_glue(static_assert, __LINE__) [(exp) ? 1 : -1]
 295:Drivers/lvgl/src/misc/lv_tlsf.c **** 
 296:Drivers/lvgl/src/misc/lv_tlsf.c **** /* This code has been tested on 32- and 64-bit (LP/LLP) architectures. */
 297:Drivers/lvgl/src/misc/lv_tlsf.c **** tlsf_static_assert(sizeof(int) * CHAR_BIT == 32);
 298:Drivers/lvgl/src/misc/lv_tlsf.c **** tlsf_static_assert(sizeof(size_t) * CHAR_BIT >= 32);
 299:Drivers/lvgl/src/misc/lv_tlsf.c **** tlsf_static_assert(sizeof(size_t) * CHAR_BIT <= 64);
 300:Drivers/lvgl/src/misc/lv_tlsf.c **** 
 301:Drivers/lvgl/src/misc/lv_tlsf.c **** /* SL_INDEX_COUNT must be <= number of bits in sl_bitmap's storage type. */
 302:Drivers/lvgl/src/misc/lv_tlsf.c **** tlsf_static_assert(sizeof(unsigned int) * CHAR_BIT >= SL_INDEX_COUNT);
 303:Drivers/lvgl/src/misc/lv_tlsf.c **** 
 304:Drivers/lvgl/src/misc/lv_tlsf.c **** /* Ensure we've properly tuned our sizes. */
 305:Drivers/lvgl/src/misc/lv_tlsf.c **** tlsf_static_assert(ALIGN_SIZE == SMALL_BLOCK_SIZE / SL_INDEX_COUNT);
 306:Drivers/lvgl/src/misc/lv_tlsf.c **** 
 307:Drivers/lvgl/src/misc/lv_tlsf.c **** /*
 308:Drivers/lvgl/src/misc/lv_tlsf.c **** ** Data structures and associated constants.
 309:Drivers/lvgl/src/misc/lv_tlsf.c **** */
 310:Drivers/lvgl/src/misc/lv_tlsf.c **** 
 311:Drivers/lvgl/src/misc/lv_tlsf.c **** /*
 312:Drivers/lvgl/src/misc/lv_tlsf.c **** ** Block header structure.
 313:Drivers/lvgl/src/misc/lv_tlsf.c **** **
 314:Drivers/lvgl/src/misc/lv_tlsf.c **** ** There are several implementation subtleties involved:
ARM GAS  /var/folders/lp/x54gwt890xv47sdkqj1k04q40000gn/T//cceYwpZM.s 			page 7


 315:Drivers/lvgl/src/misc/lv_tlsf.c **** ** - The prev_phys_block field is only valid if the previous block is free.
 316:Drivers/lvgl/src/misc/lv_tlsf.c **** ** - The prev_phys_block field is actually stored at the end of the
 317:Drivers/lvgl/src/misc/lv_tlsf.c **** **   previous block. It appears at the beginning of this structure only to
 318:Drivers/lvgl/src/misc/lv_tlsf.c **** **   simplify the implementation.
 319:Drivers/lvgl/src/misc/lv_tlsf.c **** ** - The next_free / prev_free fields are only valid if the block is free.
 320:Drivers/lvgl/src/misc/lv_tlsf.c **** */
 321:Drivers/lvgl/src/misc/lv_tlsf.c **** typedef struct block_header_t {
 322:Drivers/lvgl/src/misc/lv_tlsf.c ****     /* Points to the previous physical block. */
 323:Drivers/lvgl/src/misc/lv_tlsf.c ****     struct block_header_t * prev_phys_block;
 324:Drivers/lvgl/src/misc/lv_tlsf.c **** 
 325:Drivers/lvgl/src/misc/lv_tlsf.c ****     /* The size of this block, excluding the block header. */
 326:Drivers/lvgl/src/misc/lv_tlsf.c ****     size_t size;
 327:Drivers/lvgl/src/misc/lv_tlsf.c **** 
 328:Drivers/lvgl/src/misc/lv_tlsf.c ****     /* Next and previous free blocks. */
 329:Drivers/lvgl/src/misc/lv_tlsf.c ****     struct block_header_t * next_free;
 330:Drivers/lvgl/src/misc/lv_tlsf.c ****     struct block_header_t * prev_free;
 331:Drivers/lvgl/src/misc/lv_tlsf.c **** } block_header_t;
 332:Drivers/lvgl/src/misc/lv_tlsf.c **** 
 333:Drivers/lvgl/src/misc/lv_tlsf.c **** /*
 334:Drivers/lvgl/src/misc/lv_tlsf.c **** ** Since block sizes are always at least a multiple of 4, the two least
 335:Drivers/lvgl/src/misc/lv_tlsf.c **** ** significant bits of the size field are used to store the block status:
 336:Drivers/lvgl/src/misc/lv_tlsf.c **** ** - bit 0: whether block is busy or free
 337:Drivers/lvgl/src/misc/lv_tlsf.c **** ** - bit 1: whether previous block is busy or free
 338:Drivers/lvgl/src/misc/lv_tlsf.c **** */
 339:Drivers/lvgl/src/misc/lv_tlsf.c **** static const size_t block_header_free_bit = 1 << 0;
 340:Drivers/lvgl/src/misc/lv_tlsf.c **** static const size_t block_header_prev_free_bit = 1 << 1;
 341:Drivers/lvgl/src/misc/lv_tlsf.c **** 
 342:Drivers/lvgl/src/misc/lv_tlsf.c **** /*
 343:Drivers/lvgl/src/misc/lv_tlsf.c **** ** The size of the block header exposed to used blocks is the size field.
 344:Drivers/lvgl/src/misc/lv_tlsf.c **** ** The prev_phys_block field is stored *inside* the previous free block.
 345:Drivers/lvgl/src/misc/lv_tlsf.c **** */
 346:Drivers/lvgl/src/misc/lv_tlsf.c **** static const size_t block_header_overhead = sizeof(size_t);
 347:Drivers/lvgl/src/misc/lv_tlsf.c **** 
 348:Drivers/lvgl/src/misc/lv_tlsf.c **** /* User data starts directly after the size field in a used block. */
 349:Drivers/lvgl/src/misc/lv_tlsf.c **** static const size_t block_start_offset =
 350:Drivers/lvgl/src/misc/lv_tlsf.c ****     offsetof(block_header_t, size) + sizeof(size_t);
 351:Drivers/lvgl/src/misc/lv_tlsf.c **** 
 352:Drivers/lvgl/src/misc/lv_tlsf.c **** /*
 353:Drivers/lvgl/src/misc/lv_tlsf.c **** ** A free block must be large enough to store its header minus the size of
 354:Drivers/lvgl/src/misc/lv_tlsf.c **** ** the prev_phys_block field, and no larger than the number of addressable
 355:Drivers/lvgl/src/misc/lv_tlsf.c **** ** bits for FL_INDEX.
 356:Drivers/lvgl/src/misc/lv_tlsf.c **** */
 357:Drivers/lvgl/src/misc/lv_tlsf.c **** static const size_t block_size_min =
 358:Drivers/lvgl/src/misc/lv_tlsf.c ****     sizeof(block_header_t) - sizeof(block_header_t *);
 359:Drivers/lvgl/src/misc/lv_tlsf.c **** static const size_t block_size_max = tlsf_cast(size_t, 1) << FL_INDEX_MAX;
 360:Drivers/lvgl/src/misc/lv_tlsf.c **** 
 361:Drivers/lvgl/src/misc/lv_tlsf.c **** 
 362:Drivers/lvgl/src/misc/lv_tlsf.c **** /* The TLSF control structure. */
 363:Drivers/lvgl/src/misc/lv_tlsf.c **** typedef struct control_t {
 364:Drivers/lvgl/src/misc/lv_tlsf.c ****     /* Empty lists point at this block to indicate they are free. */
 365:Drivers/lvgl/src/misc/lv_tlsf.c ****     block_header_t block_null;
 366:Drivers/lvgl/src/misc/lv_tlsf.c **** 
 367:Drivers/lvgl/src/misc/lv_tlsf.c ****     /* Bitmaps for free lists. */
 368:Drivers/lvgl/src/misc/lv_tlsf.c ****     unsigned int fl_bitmap;
 369:Drivers/lvgl/src/misc/lv_tlsf.c ****     unsigned int sl_bitmap[FL_INDEX_COUNT];
 370:Drivers/lvgl/src/misc/lv_tlsf.c **** 
 371:Drivers/lvgl/src/misc/lv_tlsf.c ****     /* Head of free lists. */
ARM GAS  /var/folders/lp/x54gwt890xv47sdkqj1k04q40000gn/T//cceYwpZM.s 			page 8


 372:Drivers/lvgl/src/misc/lv_tlsf.c ****     block_header_t * blocks[FL_INDEX_COUNT][SL_INDEX_COUNT];
 373:Drivers/lvgl/src/misc/lv_tlsf.c **** } control_t;
 374:Drivers/lvgl/src/misc/lv_tlsf.c **** 
 375:Drivers/lvgl/src/misc/lv_tlsf.c **** /* A type used for casting when doing pointer arithmetic. */
 376:Drivers/lvgl/src/misc/lv_tlsf.c **** typedef ptrdiff_t tlsfptr_t;
 377:Drivers/lvgl/src/misc/lv_tlsf.c **** 
 378:Drivers/lvgl/src/misc/lv_tlsf.c **** /*
 379:Drivers/lvgl/src/misc/lv_tlsf.c **** ** block_header_t member functions.
 380:Drivers/lvgl/src/misc/lv_tlsf.c **** */
 381:Drivers/lvgl/src/misc/lv_tlsf.c **** 
 382:Drivers/lvgl/src/misc/lv_tlsf.c **** static size_t block_size(const block_header_t * block)
 383:Drivers/lvgl/src/misc/lv_tlsf.c **** {
 384:Drivers/lvgl/src/misc/lv_tlsf.c ****     return block->size & ~(block_header_free_bit | block_header_prev_free_bit);
 385:Drivers/lvgl/src/misc/lv_tlsf.c **** }
 386:Drivers/lvgl/src/misc/lv_tlsf.c **** 
 387:Drivers/lvgl/src/misc/lv_tlsf.c **** static void block_set_size(block_header_t * block, size_t size)
 388:Drivers/lvgl/src/misc/lv_tlsf.c **** {
 389:Drivers/lvgl/src/misc/lv_tlsf.c ****     const size_t oldsize = block->size;
 390:Drivers/lvgl/src/misc/lv_tlsf.c ****     block->size = size | (oldsize & (block_header_free_bit | block_header_prev_free_bit));
 391:Drivers/lvgl/src/misc/lv_tlsf.c **** }
 392:Drivers/lvgl/src/misc/lv_tlsf.c **** 
 393:Drivers/lvgl/src/misc/lv_tlsf.c **** static int block_is_last(const block_header_t * block)
 394:Drivers/lvgl/src/misc/lv_tlsf.c **** {
 395:Drivers/lvgl/src/misc/lv_tlsf.c ****     return block_size(block) == 0;
 396:Drivers/lvgl/src/misc/lv_tlsf.c **** }
 397:Drivers/lvgl/src/misc/lv_tlsf.c **** 
 398:Drivers/lvgl/src/misc/lv_tlsf.c **** static int block_is_free(const block_header_t * block)
 399:Drivers/lvgl/src/misc/lv_tlsf.c **** {
 400:Drivers/lvgl/src/misc/lv_tlsf.c ****     return tlsf_cast(int, block->size & block_header_free_bit);
 401:Drivers/lvgl/src/misc/lv_tlsf.c **** }
 402:Drivers/lvgl/src/misc/lv_tlsf.c **** 
 403:Drivers/lvgl/src/misc/lv_tlsf.c **** static void block_set_free(block_header_t * block)
 404:Drivers/lvgl/src/misc/lv_tlsf.c **** {
 405:Drivers/lvgl/src/misc/lv_tlsf.c ****     block->size |= block_header_free_bit;
 406:Drivers/lvgl/src/misc/lv_tlsf.c **** }
 407:Drivers/lvgl/src/misc/lv_tlsf.c **** 
 408:Drivers/lvgl/src/misc/lv_tlsf.c **** static void block_set_used(block_header_t * block)
 409:Drivers/lvgl/src/misc/lv_tlsf.c **** {
 410:Drivers/lvgl/src/misc/lv_tlsf.c ****     block->size &= ~block_header_free_bit;
 411:Drivers/lvgl/src/misc/lv_tlsf.c **** }
 412:Drivers/lvgl/src/misc/lv_tlsf.c **** 
 413:Drivers/lvgl/src/misc/lv_tlsf.c **** static int block_is_prev_free(const block_header_t * block)
 414:Drivers/lvgl/src/misc/lv_tlsf.c **** {
 415:Drivers/lvgl/src/misc/lv_tlsf.c ****     return tlsf_cast(int, block->size & block_header_prev_free_bit);
 416:Drivers/lvgl/src/misc/lv_tlsf.c **** }
 417:Drivers/lvgl/src/misc/lv_tlsf.c **** 
 418:Drivers/lvgl/src/misc/lv_tlsf.c **** static void block_set_prev_free(block_header_t * block)
 419:Drivers/lvgl/src/misc/lv_tlsf.c **** {
 420:Drivers/lvgl/src/misc/lv_tlsf.c ****     block->size |= block_header_prev_free_bit;
 421:Drivers/lvgl/src/misc/lv_tlsf.c **** }
 422:Drivers/lvgl/src/misc/lv_tlsf.c **** 
 423:Drivers/lvgl/src/misc/lv_tlsf.c **** static void block_set_prev_used(block_header_t * block)
 424:Drivers/lvgl/src/misc/lv_tlsf.c **** {
 425:Drivers/lvgl/src/misc/lv_tlsf.c ****     block->size &= ~block_header_prev_free_bit;
 426:Drivers/lvgl/src/misc/lv_tlsf.c **** }
 427:Drivers/lvgl/src/misc/lv_tlsf.c **** 
 428:Drivers/lvgl/src/misc/lv_tlsf.c **** static block_header_t * block_from_ptr(const void * ptr)
ARM GAS  /var/folders/lp/x54gwt890xv47sdkqj1k04q40000gn/T//cceYwpZM.s 			page 9


 429:Drivers/lvgl/src/misc/lv_tlsf.c **** {
 430:Drivers/lvgl/src/misc/lv_tlsf.c ****     return tlsf_cast(block_header_t *,
 431:Drivers/lvgl/src/misc/lv_tlsf.c ****                      tlsf_cast(unsigned char *, ptr) - block_start_offset);
 432:Drivers/lvgl/src/misc/lv_tlsf.c **** }
 433:Drivers/lvgl/src/misc/lv_tlsf.c **** 
 434:Drivers/lvgl/src/misc/lv_tlsf.c **** static void * block_to_ptr(const block_header_t * block)
 435:Drivers/lvgl/src/misc/lv_tlsf.c **** {
 436:Drivers/lvgl/src/misc/lv_tlsf.c ****     return tlsf_cast(void *,
 437:Drivers/lvgl/src/misc/lv_tlsf.c ****                      tlsf_cast(unsigned char *, block) + block_start_offset);
 438:Drivers/lvgl/src/misc/lv_tlsf.c **** }
 439:Drivers/lvgl/src/misc/lv_tlsf.c **** 
 440:Drivers/lvgl/src/misc/lv_tlsf.c **** /* Return location of next block after block of given size. */
 441:Drivers/lvgl/src/misc/lv_tlsf.c **** static block_header_t * offset_to_block(const void * ptr, size_t size)
 442:Drivers/lvgl/src/misc/lv_tlsf.c **** {
 443:Drivers/lvgl/src/misc/lv_tlsf.c ****     return tlsf_cast(block_header_t *, tlsf_cast(tlsfptr_t, ptr) + size);
 444:Drivers/lvgl/src/misc/lv_tlsf.c **** }
 445:Drivers/lvgl/src/misc/lv_tlsf.c **** 
 446:Drivers/lvgl/src/misc/lv_tlsf.c **** /* Return location of previous block. */
 447:Drivers/lvgl/src/misc/lv_tlsf.c **** static block_header_t * block_prev(const block_header_t * block)
 448:Drivers/lvgl/src/misc/lv_tlsf.c **** {
 449:Drivers/lvgl/src/misc/lv_tlsf.c ****     tlsf_assert(block_is_prev_free(block) && "previous block must be free");
 450:Drivers/lvgl/src/misc/lv_tlsf.c ****     return block->prev_phys_block;
 451:Drivers/lvgl/src/misc/lv_tlsf.c **** }
 452:Drivers/lvgl/src/misc/lv_tlsf.c **** 
 453:Drivers/lvgl/src/misc/lv_tlsf.c **** /* Return location of next existing block. */
 454:Drivers/lvgl/src/misc/lv_tlsf.c **** static block_header_t * block_next(const block_header_t * block)
 455:Drivers/lvgl/src/misc/lv_tlsf.c **** {
 456:Drivers/lvgl/src/misc/lv_tlsf.c ****     block_header_t * next = offset_to_block(block_to_ptr(block),
 457:Drivers/lvgl/src/misc/lv_tlsf.c ****                                             block_size(block) - block_header_overhead);
 458:Drivers/lvgl/src/misc/lv_tlsf.c ****     tlsf_assert(!block_is_last(block));
 459:Drivers/lvgl/src/misc/lv_tlsf.c ****     return next;
 460:Drivers/lvgl/src/misc/lv_tlsf.c **** }
 461:Drivers/lvgl/src/misc/lv_tlsf.c **** 
 462:Drivers/lvgl/src/misc/lv_tlsf.c **** /* Link a new block with its physical neighbor, return the neighbor. */
 463:Drivers/lvgl/src/misc/lv_tlsf.c **** static block_header_t * block_link_next(block_header_t * block)
 464:Drivers/lvgl/src/misc/lv_tlsf.c **** {
 465:Drivers/lvgl/src/misc/lv_tlsf.c ****     block_header_t * next = block_next(block);
 466:Drivers/lvgl/src/misc/lv_tlsf.c ****     next->prev_phys_block = block;
 467:Drivers/lvgl/src/misc/lv_tlsf.c ****     return next;
 468:Drivers/lvgl/src/misc/lv_tlsf.c **** }
 469:Drivers/lvgl/src/misc/lv_tlsf.c **** 
 470:Drivers/lvgl/src/misc/lv_tlsf.c **** static void block_mark_as_free(block_header_t * block)
 471:Drivers/lvgl/src/misc/lv_tlsf.c **** {
 472:Drivers/lvgl/src/misc/lv_tlsf.c ****     /* Link the block to the next block, first. */
 473:Drivers/lvgl/src/misc/lv_tlsf.c ****     block_header_t * next = block_link_next(block);
 474:Drivers/lvgl/src/misc/lv_tlsf.c ****     block_set_prev_free(next);
 475:Drivers/lvgl/src/misc/lv_tlsf.c ****     block_set_free(block);
 476:Drivers/lvgl/src/misc/lv_tlsf.c **** }
 477:Drivers/lvgl/src/misc/lv_tlsf.c **** 
 478:Drivers/lvgl/src/misc/lv_tlsf.c **** static void block_mark_as_used(block_header_t * block)
 479:Drivers/lvgl/src/misc/lv_tlsf.c **** {
 480:Drivers/lvgl/src/misc/lv_tlsf.c ****     block_header_t * next = block_next(block);
 481:Drivers/lvgl/src/misc/lv_tlsf.c ****     block_set_prev_used(next);
 482:Drivers/lvgl/src/misc/lv_tlsf.c ****     block_set_used(block);
 483:Drivers/lvgl/src/misc/lv_tlsf.c **** }
 484:Drivers/lvgl/src/misc/lv_tlsf.c **** 
 485:Drivers/lvgl/src/misc/lv_tlsf.c **** static size_t align_up(size_t x, size_t align)
ARM GAS  /var/folders/lp/x54gwt890xv47sdkqj1k04q40000gn/T//cceYwpZM.s 			page 10


 486:Drivers/lvgl/src/misc/lv_tlsf.c **** {
 487:Drivers/lvgl/src/misc/lv_tlsf.c ****     tlsf_assert(0 == (align & (align - 1)) && "must align to a power of two");
 488:Drivers/lvgl/src/misc/lv_tlsf.c ****     return (x + (align - 1)) & ~(align - 1);
 489:Drivers/lvgl/src/misc/lv_tlsf.c **** }
 490:Drivers/lvgl/src/misc/lv_tlsf.c **** 
 491:Drivers/lvgl/src/misc/lv_tlsf.c **** static size_t align_down(size_t x, size_t align)
 492:Drivers/lvgl/src/misc/lv_tlsf.c **** {
 493:Drivers/lvgl/src/misc/lv_tlsf.c ****     tlsf_assert(0 == (align & (align - 1)) && "must align to a power of two");
 494:Drivers/lvgl/src/misc/lv_tlsf.c ****     return x - (x & (align - 1));
 495:Drivers/lvgl/src/misc/lv_tlsf.c **** }
 496:Drivers/lvgl/src/misc/lv_tlsf.c **** 
 497:Drivers/lvgl/src/misc/lv_tlsf.c **** static void * align_ptr(const void * ptr, size_t align)
 498:Drivers/lvgl/src/misc/lv_tlsf.c **** {
 499:Drivers/lvgl/src/misc/lv_tlsf.c ****     const tlsfptr_t aligned =
 500:Drivers/lvgl/src/misc/lv_tlsf.c ****         (tlsf_cast(tlsfptr_t, ptr) + (align - 1)) & ~(align - 1);
 501:Drivers/lvgl/src/misc/lv_tlsf.c ****     tlsf_assert(0 == (align & (align - 1)) && "must align to a power of two");
 502:Drivers/lvgl/src/misc/lv_tlsf.c ****     return tlsf_cast(void *, aligned);
 503:Drivers/lvgl/src/misc/lv_tlsf.c **** }
 504:Drivers/lvgl/src/misc/lv_tlsf.c **** 
 505:Drivers/lvgl/src/misc/lv_tlsf.c **** /*
 506:Drivers/lvgl/src/misc/lv_tlsf.c **** ** Adjust an allocation size to be aligned to word size, and no smaller
 507:Drivers/lvgl/src/misc/lv_tlsf.c **** ** than internal minimum.
 508:Drivers/lvgl/src/misc/lv_tlsf.c **** */
 509:Drivers/lvgl/src/misc/lv_tlsf.c **** static size_t adjust_request_size(size_t size, size_t align)
 510:Drivers/lvgl/src/misc/lv_tlsf.c **** {
 511:Drivers/lvgl/src/misc/lv_tlsf.c ****     size_t adjust = 0;
 512:Drivers/lvgl/src/misc/lv_tlsf.c ****     if(size) {
 513:Drivers/lvgl/src/misc/lv_tlsf.c ****         const size_t aligned = align_up(size, align);
 514:Drivers/lvgl/src/misc/lv_tlsf.c **** 
 515:Drivers/lvgl/src/misc/lv_tlsf.c ****         /* aligned sized must not exceed block_size_max or we'll go out of bounds on sl_bitmap */
 516:Drivers/lvgl/src/misc/lv_tlsf.c ****         if(aligned < block_size_max) {
 517:Drivers/lvgl/src/misc/lv_tlsf.c ****             adjust = tlsf_max(aligned, block_size_min);
 518:Drivers/lvgl/src/misc/lv_tlsf.c ****         }
 519:Drivers/lvgl/src/misc/lv_tlsf.c ****     }
 520:Drivers/lvgl/src/misc/lv_tlsf.c ****     return adjust;
 521:Drivers/lvgl/src/misc/lv_tlsf.c **** }
 522:Drivers/lvgl/src/misc/lv_tlsf.c **** 
 523:Drivers/lvgl/src/misc/lv_tlsf.c **** /*
 524:Drivers/lvgl/src/misc/lv_tlsf.c **** ** TLSF utility functions. In most cases, these are direct translations of
 525:Drivers/lvgl/src/misc/lv_tlsf.c **** ** the documentation found in the white paper.
 526:Drivers/lvgl/src/misc/lv_tlsf.c **** */
 527:Drivers/lvgl/src/misc/lv_tlsf.c **** 
 528:Drivers/lvgl/src/misc/lv_tlsf.c **** static void mapping_insert(size_t size, int * fli, int * sli)
 529:Drivers/lvgl/src/misc/lv_tlsf.c **** {
 530:Drivers/lvgl/src/misc/lv_tlsf.c ****     int fl, sl;
 531:Drivers/lvgl/src/misc/lv_tlsf.c ****     if(size < SMALL_BLOCK_SIZE) {
 532:Drivers/lvgl/src/misc/lv_tlsf.c ****         /* Store small blocks in first list. */
 533:Drivers/lvgl/src/misc/lv_tlsf.c ****         fl = 0;
 534:Drivers/lvgl/src/misc/lv_tlsf.c ****         sl = tlsf_cast(int, size) / (SMALL_BLOCK_SIZE / SL_INDEX_COUNT);
 535:Drivers/lvgl/src/misc/lv_tlsf.c ****     }
 536:Drivers/lvgl/src/misc/lv_tlsf.c ****     else {
 537:Drivers/lvgl/src/misc/lv_tlsf.c ****         fl = tlsf_fls_sizet(size);
 538:Drivers/lvgl/src/misc/lv_tlsf.c ****         sl = tlsf_cast(int, size >> (fl - SL_INDEX_COUNT_LOG2)) ^ (1 << SL_INDEX_COUNT_LOG2);
 539:Drivers/lvgl/src/misc/lv_tlsf.c ****         fl -= (FL_INDEX_SHIFT - 1);
 540:Drivers/lvgl/src/misc/lv_tlsf.c ****     }
 541:Drivers/lvgl/src/misc/lv_tlsf.c ****     *fli = fl;
 542:Drivers/lvgl/src/misc/lv_tlsf.c ****     *sli = sl;
ARM GAS  /var/folders/lp/x54gwt890xv47sdkqj1k04q40000gn/T//cceYwpZM.s 			page 11


 543:Drivers/lvgl/src/misc/lv_tlsf.c **** }
 544:Drivers/lvgl/src/misc/lv_tlsf.c **** 
 545:Drivers/lvgl/src/misc/lv_tlsf.c **** /* This version rounds up to the next block size (for allocations) */
 546:Drivers/lvgl/src/misc/lv_tlsf.c **** static void mapping_search(size_t size, int * fli, int * sli)
 547:Drivers/lvgl/src/misc/lv_tlsf.c **** {
 548:Drivers/lvgl/src/misc/lv_tlsf.c ****     if(size >= SMALL_BLOCK_SIZE) {
 549:Drivers/lvgl/src/misc/lv_tlsf.c ****         const size_t round = (1 << (tlsf_fls_sizet(size) - SL_INDEX_COUNT_LOG2)) - 1;
 550:Drivers/lvgl/src/misc/lv_tlsf.c ****         size += round;
 551:Drivers/lvgl/src/misc/lv_tlsf.c ****     }
 552:Drivers/lvgl/src/misc/lv_tlsf.c ****     mapping_insert(size, fli, sli);
 553:Drivers/lvgl/src/misc/lv_tlsf.c **** }
 554:Drivers/lvgl/src/misc/lv_tlsf.c **** 
 555:Drivers/lvgl/src/misc/lv_tlsf.c **** static block_header_t * search_suitable_block(control_t * control, int * fli, int * sli)
 556:Drivers/lvgl/src/misc/lv_tlsf.c **** {
 557:Drivers/lvgl/src/misc/lv_tlsf.c ****     int fl = *fli;
 558:Drivers/lvgl/src/misc/lv_tlsf.c ****     int sl = *sli;
 559:Drivers/lvgl/src/misc/lv_tlsf.c **** 
 560:Drivers/lvgl/src/misc/lv_tlsf.c ****     /*
 561:Drivers/lvgl/src/misc/lv_tlsf.c ****     ** First, search for a block in the list associated with the given
 562:Drivers/lvgl/src/misc/lv_tlsf.c ****     ** fl/sl index.
 563:Drivers/lvgl/src/misc/lv_tlsf.c ****     */
 564:Drivers/lvgl/src/misc/lv_tlsf.c ****     unsigned int sl_map = control->sl_bitmap[fl] & (~0U << sl);
 565:Drivers/lvgl/src/misc/lv_tlsf.c ****     if(!sl_map) {
 566:Drivers/lvgl/src/misc/lv_tlsf.c ****         /* No block exists. Search in the next largest first-level list. */
 567:Drivers/lvgl/src/misc/lv_tlsf.c ****         const unsigned int fl_map = control->fl_bitmap & (~0U << (fl + 1));
 568:Drivers/lvgl/src/misc/lv_tlsf.c ****         if(!fl_map) {
 569:Drivers/lvgl/src/misc/lv_tlsf.c ****             /* No free blocks available, memory has been exhausted. */
 570:Drivers/lvgl/src/misc/lv_tlsf.c ****             return 0;
 571:Drivers/lvgl/src/misc/lv_tlsf.c ****         }
 572:Drivers/lvgl/src/misc/lv_tlsf.c **** 
 573:Drivers/lvgl/src/misc/lv_tlsf.c ****         fl = tlsf_ffs(fl_map);
 574:Drivers/lvgl/src/misc/lv_tlsf.c ****         *fli = fl;
 575:Drivers/lvgl/src/misc/lv_tlsf.c ****         sl_map = control->sl_bitmap[fl];
 576:Drivers/lvgl/src/misc/lv_tlsf.c ****     }
 577:Drivers/lvgl/src/misc/lv_tlsf.c ****     tlsf_assert(sl_map && "internal error - second level bitmap is null");
 578:Drivers/lvgl/src/misc/lv_tlsf.c ****     sl = tlsf_ffs(sl_map);
 579:Drivers/lvgl/src/misc/lv_tlsf.c ****     *sli = sl;
 580:Drivers/lvgl/src/misc/lv_tlsf.c **** 
 581:Drivers/lvgl/src/misc/lv_tlsf.c ****     /* Return the first block in the free list. */
 582:Drivers/lvgl/src/misc/lv_tlsf.c ****     return control->blocks[fl][sl];
 583:Drivers/lvgl/src/misc/lv_tlsf.c **** }
 584:Drivers/lvgl/src/misc/lv_tlsf.c **** 
 585:Drivers/lvgl/src/misc/lv_tlsf.c **** /* Remove a free block from the free list.*/
 586:Drivers/lvgl/src/misc/lv_tlsf.c **** static void remove_free_block(control_t * control, block_header_t * block, int fl, int sl)
 587:Drivers/lvgl/src/misc/lv_tlsf.c **** {
 588:Drivers/lvgl/src/misc/lv_tlsf.c ****     block_header_t * prev = block->prev_free;
 589:Drivers/lvgl/src/misc/lv_tlsf.c ****     block_header_t * next = block->next_free;
 590:Drivers/lvgl/src/misc/lv_tlsf.c ****     tlsf_assert(prev && "prev_free field can not be null");
 591:Drivers/lvgl/src/misc/lv_tlsf.c ****     tlsf_assert(next && "next_free field can not be null");
 592:Drivers/lvgl/src/misc/lv_tlsf.c ****     next->prev_free = prev;
 593:Drivers/lvgl/src/misc/lv_tlsf.c ****     prev->next_free = next;
 594:Drivers/lvgl/src/misc/lv_tlsf.c **** 
 595:Drivers/lvgl/src/misc/lv_tlsf.c ****     /* If this block is the head of the free list, set new head. */
 596:Drivers/lvgl/src/misc/lv_tlsf.c ****     if(control->blocks[fl][sl] == block) {
 597:Drivers/lvgl/src/misc/lv_tlsf.c ****         control->blocks[fl][sl] = next;
 598:Drivers/lvgl/src/misc/lv_tlsf.c **** 
 599:Drivers/lvgl/src/misc/lv_tlsf.c ****         /* If the new head is null, clear the bitmap. */
ARM GAS  /var/folders/lp/x54gwt890xv47sdkqj1k04q40000gn/T//cceYwpZM.s 			page 12


 600:Drivers/lvgl/src/misc/lv_tlsf.c ****         if(next == &control->block_null) {
 601:Drivers/lvgl/src/misc/lv_tlsf.c ****             control->sl_bitmap[fl] &= ~(1U << sl);
 602:Drivers/lvgl/src/misc/lv_tlsf.c **** 
 603:Drivers/lvgl/src/misc/lv_tlsf.c ****             /* If the second bitmap is now empty, clear the fl bitmap. */
 604:Drivers/lvgl/src/misc/lv_tlsf.c ****             if(!control->sl_bitmap[fl]) {
 605:Drivers/lvgl/src/misc/lv_tlsf.c ****                 control->fl_bitmap &= ~(1U << fl);
 606:Drivers/lvgl/src/misc/lv_tlsf.c ****             }
 607:Drivers/lvgl/src/misc/lv_tlsf.c ****         }
 608:Drivers/lvgl/src/misc/lv_tlsf.c ****     }
 609:Drivers/lvgl/src/misc/lv_tlsf.c **** }
 610:Drivers/lvgl/src/misc/lv_tlsf.c **** 
 611:Drivers/lvgl/src/misc/lv_tlsf.c **** /* Insert a free block into the free block list. */
 612:Drivers/lvgl/src/misc/lv_tlsf.c **** static void insert_free_block(control_t * control, block_header_t * block, int fl, int sl)
 613:Drivers/lvgl/src/misc/lv_tlsf.c **** {
 614:Drivers/lvgl/src/misc/lv_tlsf.c ****     block_header_t * current = control->blocks[fl][sl];
 615:Drivers/lvgl/src/misc/lv_tlsf.c ****     tlsf_assert(current && "free list cannot have a null entry");
 616:Drivers/lvgl/src/misc/lv_tlsf.c ****     tlsf_assert(block && "cannot insert a null entry into the free list");
 617:Drivers/lvgl/src/misc/lv_tlsf.c ****     block->next_free = current;
 618:Drivers/lvgl/src/misc/lv_tlsf.c ****     block->prev_free = &control->block_null;
 619:Drivers/lvgl/src/misc/lv_tlsf.c ****     current->prev_free = block;
 620:Drivers/lvgl/src/misc/lv_tlsf.c **** 
 621:Drivers/lvgl/src/misc/lv_tlsf.c ****     tlsf_assert(block_to_ptr(block) == align_ptr(block_to_ptr(block), ALIGN_SIZE)
 622:Drivers/lvgl/src/misc/lv_tlsf.c ****                 && "block not aligned properly");
 623:Drivers/lvgl/src/misc/lv_tlsf.c ****     /*
 624:Drivers/lvgl/src/misc/lv_tlsf.c ****     ** Insert the new block at the head of the list, and mark the first-
 625:Drivers/lvgl/src/misc/lv_tlsf.c ****     ** and second-level bitmaps appropriately.
 626:Drivers/lvgl/src/misc/lv_tlsf.c ****     */
 627:Drivers/lvgl/src/misc/lv_tlsf.c ****     control->blocks[fl][sl] = block;
 628:Drivers/lvgl/src/misc/lv_tlsf.c ****     control->fl_bitmap |= (1U << fl);
 629:Drivers/lvgl/src/misc/lv_tlsf.c ****     control->sl_bitmap[fl] |= (1U << sl);
 630:Drivers/lvgl/src/misc/lv_tlsf.c **** }
 631:Drivers/lvgl/src/misc/lv_tlsf.c **** 
 632:Drivers/lvgl/src/misc/lv_tlsf.c **** /* Remove a given block from the free list. */
 633:Drivers/lvgl/src/misc/lv_tlsf.c **** static void block_remove(control_t * control, block_header_t * block)
 634:Drivers/lvgl/src/misc/lv_tlsf.c **** {
 635:Drivers/lvgl/src/misc/lv_tlsf.c ****     int fl, sl;
 636:Drivers/lvgl/src/misc/lv_tlsf.c ****     mapping_insert(block_size(block), &fl, &sl);
 637:Drivers/lvgl/src/misc/lv_tlsf.c ****     remove_free_block(control, block, fl, sl);
 638:Drivers/lvgl/src/misc/lv_tlsf.c **** }
 639:Drivers/lvgl/src/misc/lv_tlsf.c **** 
 640:Drivers/lvgl/src/misc/lv_tlsf.c **** /* Insert a given block into the free list. */
 641:Drivers/lvgl/src/misc/lv_tlsf.c **** static void block_insert(control_t * control, block_header_t * block)
 642:Drivers/lvgl/src/misc/lv_tlsf.c **** {
 643:Drivers/lvgl/src/misc/lv_tlsf.c ****     int fl, sl;
 644:Drivers/lvgl/src/misc/lv_tlsf.c ****     mapping_insert(block_size(block), &fl, &sl);
 645:Drivers/lvgl/src/misc/lv_tlsf.c ****     insert_free_block(control, block, fl, sl);
 646:Drivers/lvgl/src/misc/lv_tlsf.c **** }
 647:Drivers/lvgl/src/misc/lv_tlsf.c **** 
 648:Drivers/lvgl/src/misc/lv_tlsf.c **** static int block_can_split(block_header_t * block, size_t size)
 649:Drivers/lvgl/src/misc/lv_tlsf.c **** {
 650:Drivers/lvgl/src/misc/lv_tlsf.c ****     return block_size(block) >= sizeof(block_header_t) + size;
 651:Drivers/lvgl/src/misc/lv_tlsf.c **** }
 652:Drivers/lvgl/src/misc/lv_tlsf.c **** 
 653:Drivers/lvgl/src/misc/lv_tlsf.c **** /* Split a block into two, the second of which is free. */
 654:Drivers/lvgl/src/misc/lv_tlsf.c **** static block_header_t * block_split(block_header_t * block, size_t size)
 655:Drivers/lvgl/src/misc/lv_tlsf.c **** {
  30              		.loc 1 655 1 view -0
ARM GAS  /var/folders/lp/x54gwt890xv47sdkqj1k04q40000gn/T//cceYwpZM.s 			page 13


  31              		.cfi_startproc
  32              		@ args = 0, pretend = 0, frame = 0
  33              		@ frame_needed = 0, uses_anonymous_args = 0
 656:Drivers/lvgl/src/misc/lv_tlsf.c ****     /* Calculate the amount of space left in the remaining block. */
 657:Drivers/lvgl/src/misc/lv_tlsf.c ****     block_header_t * remaining =
  34              		.loc 1 657 5 view .LVU1
  35              	.LBB438:
  36              	.LBI438:
 434:Drivers/lvgl/src/misc/lv_tlsf.c **** {
  37              		.loc 1 434 15 view .LVU2
  38              	.LBB439:
 436:Drivers/lvgl/src/misc/lv_tlsf.c ****                      tlsf_cast(unsigned char *, block) + block_start_offset);
  39              		.loc 1 436 5 view .LVU3
 436:Drivers/lvgl/src/misc/lv_tlsf.c ****                      tlsf_cast(unsigned char *, block) + block_start_offset);
  40              		.loc 1 436 5 is_stmt 0 view .LVU4
  41              	.LBE439:
  42              	.LBE438:
  43              	.LBB441:
  44              	.LBI441:
 441:Drivers/lvgl/src/misc/lv_tlsf.c **** {
  45              		.loc 1 441 25 is_stmt 1 view .LVU5
  46              	.LBB442:
 443:Drivers/lvgl/src/misc/lv_tlsf.c **** }
  47              		.loc 1 443 5 view .LVU6
  48              	.LBE442:
  49              	.LBE441:
  50              	.LBB443:
  51              	.LBB440:
 436:Drivers/lvgl/src/misc/lv_tlsf.c ****                      tlsf_cast(unsigned char *, block) + block_start_offset);
  52              		.loc 1 436 12 is_stmt 0 view .LVU7
  53 0000 4218     		adds	r2, r0, r1
  54              	.LBE440:
  55              	.LBE443:
  56              	.LBB444:
  57              	.LBB445:
 500:Drivers/lvgl/src/misc/lv_tlsf.c ****     tlsf_assert(0 == (align & (align - 1)) && "must align to a power of two");
  58              		.loc 1 500 36 view .LVU8
  59 0002 02F10F03 		add	r3, r2, #15
  60              	.LBE445:
  61              	.LBE444:
  62              	.LBB448:
  63              	.LBB449:
 436:Drivers/lvgl/src/misc/lv_tlsf.c ****                      tlsf_cast(unsigned char *, block) + block_start_offset);
  64              		.loc 1 436 12 view .LVU9
  65 0006 02F10C0C 		add	ip, r2, #12
  66              	.LBE449:
  67              	.LBE448:
  68              	.LBB451:
  69              	.LBB446:
 500:Drivers/lvgl/src/misc/lv_tlsf.c ****     tlsf_assert(0 == (align & (align - 1)) && "must align to a power of two");
  70              		.loc 1 500 51 view .LVU10
  71 000a 23F00303 		bic	r3, r3, #3
  72              	.LVL1:
 500:Drivers/lvgl/src/misc/lv_tlsf.c ****     tlsf_assert(0 == (align & (align - 1)) && "must align to a power of two");
  73              		.loc 1 500 51 view .LVU11
  74              	.LBE446:
  75              	.LBE451:
ARM GAS  /var/folders/lp/x54gwt890xv47sdkqj1k04q40000gn/T//cceYwpZM.s 			page 14


 658:Drivers/lvgl/src/misc/lv_tlsf.c ****         offset_to_block(block_to_ptr(block), size - block_header_overhead);
 659:Drivers/lvgl/src/misc/lv_tlsf.c **** 
 660:Drivers/lvgl/src/misc/lv_tlsf.c ****     const size_t remain_size = block_size(block) - (size + block_header_overhead);
  76              		.loc 1 660 5 is_stmt 1 view .LVU12
  77              	.LBB452:
  78              	.LBI452:
 382:Drivers/lvgl/src/misc/lv_tlsf.c **** {
  79              		.loc 1 382 15 view .LVU13
  80              	.LBB453:
 384:Drivers/lvgl/src/misc/lv_tlsf.c **** }
  81              		.loc 1 384 5 view .LVU14
 384:Drivers/lvgl/src/misc/lv_tlsf.c **** }
  82              		.loc 1 384 5 is_stmt 0 view .LVU15
  83              	.LBE453:
  84              	.LBE452:
 661:Drivers/lvgl/src/misc/lv_tlsf.c **** 
 662:Drivers/lvgl/src/misc/lv_tlsf.c ****     tlsf_assert(block_to_ptr(remaining) == align_ptr(block_to_ptr(remaining), ALIGN_SIZE)
  85              		.loc 1 662 5 is_stmt 1 view .LVU16
  86              		.loc 1 662 5 view .LVU17
  87              	.LBB455:
  88              	.LBI448:
 434:Drivers/lvgl/src/misc/lv_tlsf.c **** {
  89              		.loc 1 434 15 view .LVU18
  90              	.LBB450:
 436:Drivers/lvgl/src/misc/lv_tlsf.c ****                      tlsf_cast(unsigned char *, block) + block_start_offset);
  91              		.loc 1 436 5 view .LVU19
 436:Drivers/lvgl/src/misc/lv_tlsf.c ****                      tlsf_cast(unsigned char *, block) + block_start_offset);
  92              		.loc 1 436 5 is_stmt 0 view .LVU20
  93              	.LBE450:
  94              	.LBE455:
  95              	.LBB456:
  96              	.LBI444:
 497:Drivers/lvgl/src/misc/lv_tlsf.c **** {
  97              		.loc 1 497 15 is_stmt 1 view .LVU21
  98              	.LBB447:
 499:Drivers/lvgl/src/misc/lv_tlsf.c ****         (tlsf_cast(tlsfptr_t, ptr) + (align - 1)) & ~(align - 1);
  99              		.loc 1 499 5 view .LVU22
 501:Drivers/lvgl/src/misc/lv_tlsf.c ****     return tlsf_cast(void *, aligned);
 100              		.loc 1 501 5 view .LVU23
 501:Drivers/lvgl/src/misc/lv_tlsf.c ****     return tlsf_cast(void *, aligned);
 101              		.loc 1 501 5 view .LVU24
 501:Drivers/lvgl/src/misc/lv_tlsf.c ****     return tlsf_cast(void *, aligned);
 102              		.loc 1 501 5 discriminator 2 view .LVU25
 502:Drivers/lvgl/src/misc/lv_tlsf.c **** }
 103              		.loc 1 502 5 view .LVU26
 502:Drivers/lvgl/src/misc/lv_tlsf.c **** }
 104              		.loc 1 502 5 is_stmt 0 view .LVU27
 105              	.LBE447:
 106              	.LBE456:
 107              		.loc 1 662 5 discriminator 3 view .LVU28
 108 000e 9C45     		cmp	ip, r3
 109 0010 00D0     		beq	.L2
 110              	.L3:
 111              		.loc 1 662 5 is_stmt 1 discriminator 1 view .LVU29
 112              		.loc 1 662 5 discriminator 1 view .LVU30
 113              		.loc 1 662 5 discriminator 1 view .LVU31
 114              		.loc 1 662 5 discriminator 1 view .LVU32
ARM GAS  /var/folders/lp/x54gwt890xv47sdkqj1k04q40000gn/T//cceYwpZM.s 			page 15


 115              		.loc 1 662 5 discriminator 1 view .LVU33
 116              		.loc 1 662 5 discriminator 1 view .LVU34
 117              		.loc 1 662 5 discriminator 1 view .LVU35
 118              		.loc 1 662 5 discriminator 1 view .LVU36
 119              		.loc 1 662 5 discriminator 1 view .LVU37
 120              		.loc 1 662 5 discriminator 1 view .LVU38
 121 0012 FEE7     		b	.L3
 122              	.L2:
 123              		.loc 1 662 5 discriminator 2 view .LVU39
 663:Drivers/lvgl/src/misc/lv_tlsf.c ****                 && "remaining block not aligned properly");
 664:Drivers/lvgl/src/misc/lv_tlsf.c **** 
 665:Drivers/lvgl/src/misc/lv_tlsf.c ****     tlsf_assert(block_size(block) == remain_size + size + block_header_overhead);
 124              		.loc 1 665 5 view .LVU40
 125              		.loc 1 665 5 view .LVU41
 126              	.LBB457:
 127              	.LBB454:
 384:Drivers/lvgl/src/misc/lv_tlsf.c **** }
 128              		.loc 1 384 24 is_stmt 0 view .LVU42
 129 0014 4368     		ldr	r3, [r0, #4]
 130 0016 23F00303 		bic	r3, r3, #3
 131              	.LBE454:
 132              	.LBE457:
 655:Drivers/lvgl/src/misc/lv_tlsf.c ****     /* Calculate the amount of space left in the remaining block. */
 133              		.loc 1 655 1 view .LVU43
 134 001a 10B5     		push	{r4, lr}
 135              		.cfi_def_cfa_offset 8
 136              		.cfi_offset 4, -8
 137              		.cfi_offset 14, -4
 660:Drivers/lvgl/src/misc/lv_tlsf.c **** 
 138              		.loc 1 660 18 discriminator 1 view .LVU44
 139 001c A3EB010E 		sub	lr, r3, r1
 140              		.loc 1 665 5 discriminator 1 view .LVU45
 141 0020 01EB0E04 		add	r4, r1, lr
 142 0024 9C42     		cmp	r4, r3
 143 0026 AEF1040E 		sub	lr, lr, #4
 144 002a 00D0     		beq	.L4
 145              	.L5:
 146              		.loc 1 665 5 is_stmt 1 discriminator 1 view .LVU46
 147              		.loc 1 665 5 discriminator 1 view .LVU47
 148              		.loc 1 665 5 discriminator 1 view .LVU48
 149              		.loc 1 665 5 discriminator 1 view .LVU49
 150              		.loc 1 665 5 discriminator 1 view .LVU50
 151              		.loc 1 665 5 discriminator 1 view .LVU51
 152              		.loc 1 665 5 discriminator 1 view .LVU52
 153              		.loc 1 665 5 discriminator 1 view .LVU53
 154              		.loc 1 665 5 discriminator 1 view .LVU54
 155              		.loc 1 665 5 discriminator 1 view .LVU55
 156 002c FEE7     		b	.L5
 157              	.L4:
 158              	.LBB458:
 159              	.LBB459:
 390:Drivers/lvgl/src/misc/lv_tlsf.c **** }
 160              		.loc 1 390 35 is_stmt 0 view .LVU56
 161 002e 9368     		ldr	r3, [r2, #8]
 162 0030 03F00303 		and	r3, r3, #3
 390:Drivers/lvgl/src/misc/lv_tlsf.c **** }
 163              		.loc 1 390 24 view .LVU57
ARM GAS  /var/folders/lp/x54gwt890xv47sdkqj1k04q40000gn/T//cceYwpZM.s 			page 16


 164 0034 43EA0E03 		orr	r3, r3, lr
 390:Drivers/lvgl/src/misc/lv_tlsf.c **** }
 165              		.loc 1 390 17 view .LVU58
 166 0038 9360     		str	r3, [r2, #8]
 167              	.LVL2:
 390:Drivers/lvgl/src/misc/lv_tlsf.c **** }
 168              		.loc 1 390 17 view .LVU59
 169              	.LBE459:
 170              	.LBE458:
 171              	.LBB461:
 172              	.LBB462:
 384:Drivers/lvgl/src/misc/lv_tlsf.c **** }
 173              		.loc 1 384 24 view .LVU60
 174 003a 23F00303 		bic	r3, r3, #3
 175              	.LBE462:
 176              	.LBE461:
 666:Drivers/lvgl/src/misc/lv_tlsf.c ****     block_set_size(remaining, remain_size);
 667:Drivers/lvgl/src/misc/lv_tlsf.c ****     tlsf_assert(block_size(remaining) >= block_size_min && "block split with invalid size");
 177              		.loc 1 667 5 discriminator 1 view .LVU61
 178 003e 0B2B     		cmp	r3, #11
 179 0040 02F10402 		add	r2, r2, #4
 180              	.LVL3:
 665:Drivers/lvgl/src/misc/lv_tlsf.c ****     block_set_size(remaining, remain_size);
 181              		.loc 1 665 5 is_stmt 1 discriminator 2 view .LVU62
 666:Drivers/lvgl/src/misc/lv_tlsf.c ****     block_set_size(remaining, remain_size);
 182              		.loc 1 666 5 view .LVU63
 183              	.LBB464:
 184              	.LBI458:
 387:Drivers/lvgl/src/misc/lv_tlsf.c **** {
 185              		.loc 1 387 13 view .LVU64
 186              	.LBB460:
 389:Drivers/lvgl/src/misc/lv_tlsf.c ****     block->size = size | (oldsize & (block_header_free_bit | block_header_prev_free_bit));
 187              		.loc 1 389 5 view .LVU65
 390:Drivers/lvgl/src/misc/lv_tlsf.c **** }
 188              		.loc 1 390 5 view .LVU66
 390:Drivers/lvgl/src/misc/lv_tlsf.c **** }
 189              		.loc 1 390 5 is_stmt 0 view .LVU67
 190              	.LBE460:
 191              	.LBE464:
 192              		.loc 1 667 5 is_stmt 1 view .LVU68
 193              		.loc 1 667 5 view .LVU69
 194              	.LBB465:
 195              	.LBI461:
 382:Drivers/lvgl/src/misc/lv_tlsf.c **** {
 196              		.loc 1 382 15 view .LVU70
 197              	.LBB463:
 384:Drivers/lvgl/src/misc/lv_tlsf.c **** }
 198              		.loc 1 384 5 view .LVU71
 384:Drivers/lvgl/src/misc/lv_tlsf.c **** }
 199              		.loc 1 384 5 is_stmt 0 view .LVU72
 200              	.LBE463:
 201              	.LBE465:
 202              		.loc 1 667 5 discriminator 1 view .LVU73
 203 0044 00D8     		bhi	.L6
 204              	.L7:
 205              		.loc 1 667 5 is_stmt 1 discriminator 3 view .LVU74
 206              		.loc 1 667 5 discriminator 3 view .LVU75
ARM GAS  /var/folders/lp/x54gwt890xv47sdkqj1k04q40000gn/T//cceYwpZM.s 			page 17


 207              		.loc 1 667 5 discriminator 3 view .LVU76
 208              		.loc 1 667 5 discriminator 3 view .LVU77
 209              		.loc 1 667 5 discriminator 3 view .LVU78
 210              		.loc 1 667 5 discriminator 3 view .LVU79
 211              		.loc 1 667 5 discriminator 3 view .LVU80
 212              		.loc 1 667 5 discriminator 3 view .LVU81
 213              		.loc 1 667 5 discriminator 3 view .LVU82
 214              		.loc 1 667 5 discriminator 3 view .LVU83
 215 0046 FEE7     		b	.L7
 216              	.L6:
 217              		.loc 1 667 5 discriminator 4 view .LVU84
 668:Drivers/lvgl/src/misc/lv_tlsf.c **** 
 669:Drivers/lvgl/src/misc/lv_tlsf.c ****     block_set_size(block, size);
 218              		.loc 1 669 5 view .LVU85
 219              	.LVL4:
 220              	.LBB466:
 221              	.LBI466:
 387:Drivers/lvgl/src/misc/lv_tlsf.c **** {
 222              		.loc 1 387 13 view .LVU86
 223              	.LBB467:
 389:Drivers/lvgl/src/misc/lv_tlsf.c ****     block->size = size | (oldsize & (block_header_free_bit | block_header_prev_free_bit));
 224              		.loc 1 389 5 view .LVU87
 390:Drivers/lvgl/src/misc/lv_tlsf.c **** }
 225              		.loc 1 390 5 view .LVU88
 390:Drivers/lvgl/src/misc/lv_tlsf.c **** }
 226              		.loc 1 390 35 is_stmt 0 view .LVU89
 227 0048 4368     		ldr	r3, [r0, #4]
 228 004a 03F00303 		and	r3, r3, #3
 390:Drivers/lvgl/src/misc/lv_tlsf.c **** }
 229              		.loc 1 390 24 view .LVU90
 230 004e 0B43     		orrs	r3, r3, r1
 390:Drivers/lvgl/src/misc/lv_tlsf.c **** }
 231              		.loc 1 390 17 view .LVU91
 232 0050 4360     		str	r3, [r0, #4]
 233              	.LVL5:
 390:Drivers/lvgl/src/misc/lv_tlsf.c **** }
 234              		.loc 1 390 17 view .LVU92
 235              	.LBE467:
 236              	.LBE466:
 670:Drivers/lvgl/src/misc/lv_tlsf.c ****     block_mark_as_free(remaining);
 237              		.loc 1 670 5 is_stmt 1 view .LVU93
 238              	.LBB468:
 239              	.LBI468:
 470:Drivers/lvgl/src/misc/lv_tlsf.c **** {
 240              		.loc 1 470 13 view .LVU94
 241              	.LBB469:
 473:Drivers/lvgl/src/misc/lv_tlsf.c ****     block_set_prev_free(next);
 242              		.loc 1 473 5 view .LVU95
 243              	.LBB470:
 244              	.LBI470:
 463:Drivers/lvgl/src/misc/lv_tlsf.c **** {
 245              		.loc 1 463 25 view .LVU96
 246              	.LBB471:
 465:Drivers/lvgl/src/misc/lv_tlsf.c ****     next->prev_phys_block = block;
 247              		.loc 1 465 5 view .LVU97
 248              	.LBB472:
 249              	.LBI472:
ARM GAS  /var/folders/lp/x54gwt890xv47sdkqj1k04q40000gn/T//cceYwpZM.s 			page 18


 454:Drivers/lvgl/src/misc/lv_tlsf.c **** {
 250              		.loc 1 454 25 view .LVU98
 251              	.LBB473:
 456:Drivers/lvgl/src/misc/lv_tlsf.c ****                                             block_size(block) - block_header_overhead);
 252              		.loc 1 456 5 view .LVU99
 253              	.LBB474:
 254              	.LBI474:
 382:Drivers/lvgl/src/misc/lv_tlsf.c **** {
 255              		.loc 1 382 15 view .LVU100
 256              	.LBB475:
 384:Drivers/lvgl/src/misc/lv_tlsf.c **** }
 257              		.loc 1 384 5 view .LVU101
 384:Drivers/lvgl/src/misc/lv_tlsf.c **** }
 258              		.loc 1 384 17 is_stmt 0 view .LVU102
 259 0052 5368     		ldr	r3, [r2, #4]
 260              	.LVL6:
 384:Drivers/lvgl/src/misc/lv_tlsf.c **** }
 261              		.loc 1 384 17 view .LVU103
 262              	.LBE475:
 263              	.LBE474:
 264              	.LBB477:
 265              	.LBI477:
 441:Drivers/lvgl/src/misc/lv_tlsf.c **** {
 266              		.loc 1 441 25 is_stmt 1 view .LVU104
 267              	.LBB478:
 443:Drivers/lvgl/src/misc/lv_tlsf.c **** }
 268              		.loc 1 443 5 view .LVU105
 443:Drivers/lvgl/src/misc/lv_tlsf.c **** }
 269              		.loc 1 443 5 is_stmt 0 view .LVU106
 270              	.LBE478:
 271              	.LBE477:
 458:Drivers/lvgl/src/misc/lv_tlsf.c ****     return next;
 272              		.loc 1 458 5 is_stmt 1 view .LVU107
 458:Drivers/lvgl/src/misc/lv_tlsf.c ****     return next;
 273              		.loc 1 458 5 view .LVU108
 458:Drivers/lvgl/src/misc/lv_tlsf.c ****     return next;
 274              		.loc 1 458 5 is_stmt 0 discriminator 1 view .LVU109
 275 0054 032B     		cmp	r3, #3
 276 0056 0FD9     		bls	.L9
 277              	.LBB480:
 278              	.LBB476:
 384:Drivers/lvgl/src/misc/lv_tlsf.c **** }
 279              		.loc 1 384 24 view .LVU110
 280 0058 23F00303 		bic	r3, r3, #3
 281              	.LVL7:
 384:Drivers/lvgl/src/misc/lv_tlsf.c **** }
 282              		.loc 1 384 24 view .LVU111
 283              	.LBE476:
 284              	.LBE480:
 285              	.LBB481:
 286              	.LBB479:
 443:Drivers/lvgl/src/misc/lv_tlsf.c **** }
 287              		.loc 1 443 12 view .LVU112
 288 005c 6344     		add	r3, r3, ip
 289              	.LVL8:
 443:Drivers/lvgl/src/misc/lv_tlsf.c **** }
 290              		.loc 1 443 12 view .LVU113
ARM GAS  /var/folders/lp/x54gwt890xv47sdkqj1k04q40000gn/T//cceYwpZM.s 			page 19


 291              	.LBE479:
 292              	.LBE481:
 458:Drivers/lvgl/src/misc/lv_tlsf.c ****     return next;
 293              		.loc 1 458 5 is_stmt 1 discriminator 2 view .LVU114
 459:Drivers/lvgl/src/misc/lv_tlsf.c **** }
 294              		.loc 1 459 5 view .LVU115
 459:Drivers/lvgl/src/misc/lv_tlsf.c **** }
 295              		.loc 1 459 5 is_stmt 0 view .LVU116
 296              	.LBE473:
 297              	.LBE472:
 466:Drivers/lvgl/src/misc/lv_tlsf.c ****     return next;
 298              		.loc 1 466 5 is_stmt 1 view .LVU117
 299              	.LBE471:
 300              	.LBE470:
 301              	.LBE469:
 302              	.LBE468:
 671:Drivers/lvgl/src/misc/lv_tlsf.c **** 
 672:Drivers/lvgl/src/misc/lv_tlsf.c ****     return remaining;
 673:Drivers/lvgl/src/misc/lv_tlsf.c **** }
 303              		.loc 1 673 1 is_stmt 0 view .LVU118
 304 005e 1046     		mov	r0, r2
 305              	.LVL9:
 306              	.LBB494:
 307              	.LBB492:
 308              	.LBB486:
 309              	.LBB484:
 466:Drivers/lvgl/src/misc/lv_tlsf.c ****     return next;
 310              		.loc 1 466 27 view .LVU119
 311 0060 43F8042C 		str	r2, [r3, #-4]
 467:Drivers/lvgl/src/misc/lv_tlsf.c **** }
 312              		.loc 1 467 5 is_stmt 1 view .LVU120
 313              	.LVL10:
 467:Drivers/lvgl/src/misc/lv_tlsf.c **** }
 314              		.loc 1 467 5 is_stmt 0 view .LVU121
 315              	.LBE484:
 316              	.LBE486:
 474:Drivers/lvgl/src/misc/lv_tlsf.c ****     block_set_free(block);
 317              		.loc 1 474 5 is_stmt 1 view .LVU122
 318              	.LBB487:
 319              	.LBI487:
 418:Drivers/lvgl/src/misc/lv_tlsf.c **** {
 320              		.loc 1 418 13 view .LVU123
 321              	.LBB488:
 420:Drivers/lvgl/src/misc/lv_tlsf.c **** }
 322              		.loc 1 420 5 view .LVU124
 420:Drivers/lvgl/src/misc/lv_tlsf.c **** }
 323              		.loc 1 420 17 is_stmt 0 view .LVU125
 324 0064 53F80419 		ldr	r1, [r3], #-4
 325              	.LVL11:
 420:Drivers/lvgl/src/misc/lv_tlsf.c **** }
 326              		.loc 1 420 17 view .LVU126
 327 0068 41F00201 		orr	r1, r1, #2
 328 006c 5960     		str	r1, [r3, #4]
 329              	.LVL12:
 420:Drivers/lvgl/src/misc/lv_tlsf.c **** }
 330              		.loc 1 420 17 view .LVU127
 331              	.LBE488:
ARM GAS  /var/folders/lp/x54gwt890xv47sdkqj1k04q40000gn/T//cceYwpZM.s 			page 20


 332              	.LBE487:
 475:Drivers/lvgl/src/misc/lv_tlsf.c **** }
 333              		.loc 1 475 5 is_stmt 1 view .LVU128
 334              	.LBB489:
 335              	.LBI489:
 403:Drivers/lvgl/src/misc/lv_tlsf.c **** {
 336              		.loc 1 403 13 view .LVU129
 337              	.LBB490:
 405:Drivers/lvgl/src/misc/lv_tlsf.c **** }
 338              		.loc 1 405 5 view .LVU130
 405:Drivers/lvgl/src/misc/lv_tlsf.c **** }
 339              		.loc 1 405 17 is_stmt 0 view .LVU131
 340 006e 5368     		ldr	r3, [r2, #4]
 341 0070 43F00103 		orr	r3, r3, #1
 342 0074 5360     		str	r3, [r2, #4]
 343              	.LVL13:
 405:Drivers/lvgl/src/misc/lv_tlsf.c **** }
 344              		.loc 1 405 17 view .LVU132
 345              	.LBE490:
 346              	.LBE489:
 347              	.LBE492:
 348              	.LBE494:
 672:Drivers/lvgl/src/misc/lv_tlsf.c **** }
 349              		.loc 1 672 5 is_stmt 1 view .LVU133
 350              		.loc 1 673 1 is_stmt 0 view .LVU134
 351 0076 10BD     		pop	{r4, pc}
 352              	.LVL14:
 353              	.L9:
 354              	.LBB495:
 355              	.LBB493:
 356              	.LBB491:
 357              	.LBB485:
 358              	.LBB483:
 359              	.LBB482:
 458:Drivers/lvgl/src/misc/lv_tlsf.c ****     return next;
 360              		.loc 1 458 5 is_stmt 1 discriminator 1 view .LVU135
 458:Drivers/lvgl/src/misc/lv_tlsf.c ****     return next;
 361              		.loc 1 458 5 discriminator 1 view .LVU136
 458:Drivers/lvgl/src/misc/lv_tlsf.c ****     return next;
 362              		.loc 1 458 5 discriminator 1 view .LVU137
 458:Drivers/lvgl/src/misc/lv_tlsf.c ****     return next;
 363              		.loc 1 458 5 discriminator 1 view .LVU138
 458:Drivers/lvgl/src/misc/lv_tlsf.c ****     return next;
 364              		.loc 1 458 5 discriminator 1 view .LVU139
 458:Drivers/lvgl/src/misc/lv_tlsf.c ****     return next;
 365              		.loc 1 458 5 discriminator 1 view .LVU140
 458:Drivers/lvgl/src/misc/lv_tlsf.c ****     return next;
 366              		.loc 1 458 5 discriminator 1 view .LVU141
 458:Drivers/lvgl/src/misc/lv_tlsf.c ****     return next;
 367              		.loc 1 458 5 discriminator 1 view .LVU142
 458:Drivers/lvgl/src/misc/lv_tlsf.c ****     return next;
 368              		.loc 1 458 5 discriminator 1 view .LVU143
 458:Drivers/lvgl/src/misc/lv_tlsf.c ****     return next;
 369              		.loc 1 458 5 discriminator 1 view .LVU144
 370 0078 FEE7     		b	.L9
 371              	.LBE482:
 372              	.LBE483:
ARM GAS  /var/folders/lp/x54gwt890xv47sdkqj1k04q40000gn/T//cceYwpZM.s 			page 21


 373              	.LBE485:
 374              	.LBE491:
 375              	.LBE493:
 376              	.LBE495:
 377              		.cfi_endproc
 378              	.LFE32:
 380 007a 00BF     		.section	.text.integrity_walker,"ax",%progbits
 381              		.align	1
 382              		.p2align 2,,3
 383              		.syntax unified
 384              		.thumb
 385              		.thumb_func
 387              	integrity_walker:
 388              	.LVL15:
 389              	.LFB42:
 674:Drivers/lvgl/src/misc/lv_tlsf.c **** 
 675:Drivers/lvgl/src/misc/lv_tlsf.c **** /* Absorb a free block's storage into an adjacent previous free block. */
 676:Drivers/lvgl/src/misc/lv_tlsf.c **** static block_header_t * block_absorb(block_header_t * prev, block_header_t * block)
 677:Drivers/lvgl/src/misc/lv_tlsf.c **** {
 678:Drivers/lvgl/src/misc/lv_tlsf.c ****     tlsf_assert(!block_is_last(prev) && "previous block can't be last");
 679:Drivers/lvgl/src/misc/lv_tlsf.c ****     /* Note: Leaves flags untouched. */
 680:Drivers/lvgl/src/misc/lv_tlsf.c ****     prev->size += block_size(block) + block_header_overhead;
 681:Drivers/lvgl/src/misc/lv_tlsf.c ****     block_link_next(prev);
 682:Drivers/lvgl/src/misc/lv_tlsf.c ****     return prev;
 683:Drivers/lvgl/src/misc/lv_tlsf.c **** }
 684:Drivers/lvgl/src/misc/lv_tlsf.c **** 
 685:Drivers/lvgl/src/misc/lv_tlsf.c **** /* Merge a just-freed block with an adjacent previous free block. */
 686:Drivers/lvgl/src/misc/lv_tlsf.c **** static block_header_t * block_merge_prev(control_t * control, block_header_t * block)
 687:Drivers/lvgl/src/misc/lv_tlsf.c **** {
 688:Drivers/lvgl/src/misc/lv_tlsf.c ****     if(block_is_prev_free(block)) {
 689:Drivers/lvgl/src/misc/lv_tlsf.c ****         block_header_t * prev = block_prev(block);
 690:Drivers/lvgl/src/misc/lv_tlsf.c ****         tlsf_assert(prev && "prev physical block can't be null");
 691:Drivers/lvgl/src/misc/lv_tlsf.c ****         tlsf_assert(block_is_free(prev) && "prev block is not free though marked as such");
 692:Drivers/lvgl/src/misc/lv_tlsf.c ****         block_remove(control, prev);
 693:Drivers/lvgl/src/misc/lv_tlsf.c ****         block = block_absorb(prev, block);
 694:Drivers/lvgl/src/misc/lv_tlsf.c ****     }
 695:Drivers/lvgl/src/misc/lv_tlsf.c **** 
 696:Drivers/lvgl/src/misc/lv_tlsf.c ****     return block;
 697:Drivers/lvgl/src/misc/lv_tlsf.c **** }
 698:Drivers/lvgl/src/misc/lv_tlsf.c **** 
 699:Drivers/lvgl/src/misc/lv_tlsf.c **** /* Merge a just-freed block with an adjacent free block. */
 700:Drivers/lvgl/src/misc/lv_tlsf.c **** static block_header_t * block_merge_next(control_t * control, block_header_t * block)
 701:Drivers/lvgl/src/misc/lv_tlsf.c **** {
 702:Drivers/lvgl/src/misc/lv_tlsf.c ****     block_header_t * next = block_next(block);
 703:Drivers/lvgl/src/misc/lv_tlsf.c ****     tlsf_assert(next && "next physical block can't be null");
 704:Drivers/lvgl/src/misc/lv_tlsf.c **** 
 705:Drivers/lvgl/src/misc/lv_tlsf.c ****     if(block_is_free(next)) {
 706:Drivers/lvgl/src/misc/lv_tlsf.c ****         tlsf_assert(!block_is_last(block) && "previous block can't be last");
 707:Drivers/lvgl/src/misc/lv_tlsf.c ****         block_remove(control, next);
 708:Drivers/lvgl/src/misc/lv_tlsf.c ****         block = block_absorb(block, next);
 709:Drivers/lvgl/src/misc/lv_tlsf.c ****     }
 710:Drivers/lvgl/src/misc/lv_tlsf.c **** 
 711:Drivers/lvgl/src/misc/lv_tlsf.c ****     return block;
 712:Drivers/lvgl/src/misc/lv_tlsf.c **** }
 713:Drivers/lvgl/src/misc/lv_tlsf.c **** 
 714:Drivers/lvgl/src/misc/lv_tlsf.c **** /* Trim any trailing block space off the end of a block, return to pool. */
 715:Drivers/lvgl/src/misc/lv_tlsf.c **** static void block_trim_free(control_t * control, block_header_t * block, size_t size)
ARM GAS  /var/folders/lp/x54gwt890xv47sdkqj1k04q40000gn/T//cceYwpZM.s 			page 22


 716:Drivers/lvgl/src/misc/lv_tlsf.c **** {
 717:Drivers/lvgl/src/misc/lv_tlsf.c ****     tlsf_assert(block_is_free(block) && "block must be free");
 718:Drivers/lvgl/src/misc/lv_tlsf.c ****     if(block_can_split(block, size)) {
 719:Drivers/lvgl/src/misc/lv_tlsf.c ****         block_header_t * remaining_block = block_split(block, size);
 720:Drivers/lvgl/src/misc/lv_tlsf.c ****         block_link_next(block);
 721:Drivers/lvgl/src/misc/lv_tlsf.c ****         block_set_prev_free(remaining_block);
 722:Drivers/lvgl/src/misc/lv_tlsf.c ****         block_insert(control, remaining_block);
 723:Drivers/lvgl/src/misc/lv_tlsf.c ****     }
 724:Drivers/lvgl/src/misc/lv_tlsf.c **** }
 725:Drivers/lvgl/src/misc/lv_tlsf.c **** 
 726:Drivers/lvgl/src/misc/lv_tlsf.c **** /* Trim any trailing block space off the end of a used block, return to pool. */
 727:Drivers/lvgl/src/misc/lv_tlsf.c **** static void block_trim_used(control_t * control, block_header_t * block, size_t size)
 728:Drivers/lvgl/src/misc/lv_tlsf.c **** {
 729:Drivers/lvgl/src/misc/lv_tlsf.c ****     tlsf_assert(!block_is_free(block) && "block must be used");
 730:Drivers/lvgl/src/misc/lv_tlsf.c ****     if(block_can_split(block, size)) {
 731:Drivers/lvgl/src/misc/lv_tlsf.c ****         /* If the next block is free, we must coalesce. */
 732:Drivers/lvgl/src/misc/lv_tlsf.c ****         block_header_t * remaining_block = block_split(block, size);
 733:Drivers/lvgl/src/misc/lv_tlsf.c ****         block_set_prev_used(remaining_block);
 734:Drivers/lvgl/src/misc/lv_tlsf.c **** 
 735:Drivers/lvgl/src/misc/lv_tlsf.c ****         remaining_block = block_merge_next(control, remaining_block);
 736:Drivers/lvgl/src/misc/lv_tlsf.c ****         block_insert(control, remaining_block);
 737:Drivers/lvgl/src/misc/lv_tlsf.c ****     }
 738:Drivers/lvgl/src/misc/lv_tlsf.c **** }
 739:Drivers/lvgl/src/misc/lv_tlsf.c **** 
 740:Drivers/lvgl/src/misc/lv_tlsf.c **** static block_header_t * block_trim_free_leading(control_t * control, block_header_t * block, size_t
 741:Drivers/lvgl/src/misc/lv_tlsf.c **** {
 742:Drivers/lvgl/src/misc/lv_tlsf.c ****     block_header_t * remaining_block = block;
 743:Drivers/lvgl/src/misc/lv_tlsf.c ****     if(block_can_split(block, size)) {
 744:Drivers/lvgl/src/misc/lv_tlsf.c ****         /* We want the 2nd block. */
 745:Drivers/lvgl/src/misc/lv_tlsf.c ****         remaining_block = block_split(block, size - block_header_overhead);
 746:Drivers/lvgl/src/misc/lv_tlsf.c ****         block_set_prev_free(remaining_block);
 747:Drivers/lvgl/src/misc/lv_tlsf.c **** 
 748:Drivers/lvgl/src/misc/lv_tlsf.c ****         block_link_next(block);
 749:Drivers/lvgl/src/misc/lv_tlsf.c ****         block_insert(control, block);
 750:Drivers/lvgl/src/misc/lv_tlsf.c ****     }
 751:Drivers/lvgl/src/misc/lv_tlsf.c **** 
 752:Drivers/lvgl/src/misc/lv_tlsf.c ****     return remaining_block;
 753:Drivers/lvgl/src/misc/lv_tlsf.c **** }
 754:Drivers/lvgl/src/misc/lv_tlsf.c **** 
 755:Drivers/lvgl/src/misc/lv_tlsf.c **** static block_header_t * block_locate_free(control_t * control, size_t size)
 756:Drivers/lvgl/src/misc/lv_tlsf.c **** {
 757:Drivers/lvgl/src/misc/lv_tlsf.c ****     int fl = 0, sl = 0;
 758:Drivers/lvgl/src/misc/lv_tlsf.c ****     block_header_t * block = 0;
 759:Drivers/lvgl/src/misc/lv_tlsf.c **** 
 760:Drivers/lvgl/src/misc/lv_tlsf.c ****     if(size) {
 761:Drivers/lvgl/src/misc/lv_tlsf.c ****         mapping_search(size, &fl, &sl);
 762:Drivers/lvgl/src/misc/lv_tlsf.c **** 
 763:Drivers/lvgl/src/misc/lv_tlsf.c ****         /*
 764:Drivers/lvgl/src/misc/lv_tlsf.c ****         ** mapping_search can futz with the size, so for excessively large sizes it can sometimes w
 765:Drivers/lvgl/src/misc/lv_tlsf.c ****         ** with indices that are off the end of the block array.
 766:Drivers/lvgl/src/misc/lv_tlsf.c ****         ** So, we protect against that here, since this is the only callsite of mapping_search.
 767:Drivers/lvgl/src/misc/lv_tlsf.c ****         ** Note that we don't need to check sl, since it comes from a modulo operation that guarant
 768:Drivers/lvgl/src/misc/lv_tlsf.c ****         */
 769:Drivers/lvgl/src/misc/lv_tlsf.c ****         if(fl < FL_INDEX_COUNT) {
 770:Drivers/lvgl/src/misc/lv_tlsf.c ****             block = search_suitable_block(control, &fl, &sl);
 771:Drivers/lvgl/src/misc/lv_tlsf.c ****         }
 772:Drivers/lvgl/src/misc/lv_tlsf.c ****     }
ARM GAS  /var/folders/lp/x54gwt890xv47sdkqj1k04q40000gn/T//cceYwpZM.s 			page 23


 773:Drivers/lvgl/src/misc/lv_tlsf.c **** 
 774:Drivers/lvgl/src/misc/lv_tlsf.c ****     if(block) {
 775:Drivers/lvgl/src/misc/lv_tlsf.c ****         tlsf_assert(block_size(block) >= size);
 776:Drivers/lvgl/src/misc/lv_tlsf.c ****         remove_free_block(control, block, fl, sl);
 777:Drivers/lvgl/src/misc/lv_tlsf.c ****     }
 778:Drivers/lvgl/src/misc/lv_tlsf.c **** 
 779:Drivers/lvgl/src/misc/lv_tlsf.c ****     return block;
 780:Drivers/lvgl/src/misc/lv_tlsf.c **** }
 781:Drivers/lvgl/src/misc/lv_tlsf.c **** 
 782:Drivers/lvgl/src/misc/lv_tlsf.c **** static void * block_prepare_used(control_t * control, block_header_t * block, size_t size)
 783:Drivers/lvgl/src/misc/lv_tlsf.c **** {
 784:Drivers/lvgl/src/misc/lv_tlsf.c ****     void * p = 0;
 785:Drivers/lvgl/src/misc/lv_tlsf.c ****     if(block) {
 786:Drivers/lvgl/src/misc/lv_tlsf.c ****         tlsf_assert(size && "size must be non-zero");
 787:Drivers/lvgl/src/misc/lv_tlsf.c ****         block_trim_free(control, block, size);
 788:Drivers/lvgl/src/misc/lv_tlsf.c ****         block_mark_as_used(block);
 789:Drivers/lvgl/src/misc/lv_tlsf.c ****         p = block_to_ptr(block);
 790:Drivers/lvgl/src/misc/lv_tlsf.c ****     }
 791:Drivers/lvgl/src/misc/lv_tlsf.c ****     return p;
 792:Drivers/lvgl/src/misc/lv_tlsf.c **** }
 793:Drivers/lvgl/src/misc/lv_tlsf.c **** 
 794:Drivers/lvgl/src/misc/lv_tlsf.c **** /* Clear structure and point all empty lists at the null block. */
 795:Drivers/lvgl/src/misc/lv_tlsf.c **** static void control_constructor(control_t * control)
 796:Drivers/lvgl/src/misc/lv_tlsf.c **** {
 797:Drivers/lvgl/src/misc/lv_tlsf.c ****     int i, j;
 798:Drivers/lvgl/src/misc/lv_tlsf.c **** 
 799:Drivers/lvgl/src/misc/lv_tlsf.c ****     control->block_null.next_free = &control->block_null;
 800:Drivers/lvgl/src/misc/lv_tlsf.c ****     control->block_null.prev_free = &control->block_null;
 801:Drivers/lvgl/src/misc/lv_tlsf.c **** 
 802:Drivers/lvgl/src/misc/lv_tlsf.c ****     control->fl_bitmap = 0;
 803:Drivers/lvgl/src/misc/lv_tlsf.c ****     for(i = 0; i < FL_INDEX_COUNT; ++i) {
 804:Drivers/lvgl/src/misc/lv_tlsf.c ****         control->sl_bitmap[i] = 0;
 805:Drivers/lvgl/src/misc/lv_tlsf.c ****         for(j = 0; j < SL_INDEX_COUNT; ++j) {
 806:Drivers/lvgl/src/misc/lv_tlsf.c ****             control->blocks[i][j] = &control->block_null;
 807:Drivers/lvgl/src/misc/lv_tlsf.c ****         }
 808:Drivers/lvgl/src/misc/lv_tlsf.c ****     }
 809:Drivers/lvgl/src/misc/lv_tlsf.c **** }
 810:Drivers/lvgl/src/misc/lv_tlsf.c **** 
 811:Drivers/lvgl/src/misc/lv_tlsf.c **** /*
 812:Drivers/lvgl/src/misc/lv_tlsf.c **** ** Debugging utilities.
 813:Drivers/lvgl/src/misc/lv_tlsf.c **** */
 814:Drivers/lvgl/src/misc/lv_tlsf.c **** 
 815:Drivers/lvgl/src/misc/lv_tlsf.c **** typedef struct integrity_t {
 816:Drivers/lvgl/src/misc/lv_tlsf.c ****     int prev_status;
 817:Drivers/lvgl/src/misc/lv_tlsf.c ****     int status;
 818:Drivers/lvgl/src/misc/lv_tlsf.c **** } integrity_t;
 819:Drivers/lvgl/src/misc/lv_tlsf.c **** 
 820:Drivers/lvgl/src/misc/lv_tlsf.c **** #define tlsf_insist(x) { tlsf_assert(x); if (!(x)) { status--; } }
 821:Drivers/lvgl/src/misc/lv_tlsf.c **** 
 822:Drivers/lvgl/src/misc/lv_tlsf.c **** static void integrity_walker(void * ptr, size_t size, int used, void * user)
 823:Drivers/lvgl/src/misc/lv_tlsf.c **** {
 390              		.loc 1 823 1 view -0
 391              		.cfi_startproc
 392              		@ args = 0, pretend = 0, frame = 0
 393              		@ frame_needed = 0, uses_anonymous_args = 0
 394              		@ link register save eliminated.
 824:Drivers/lvgl/src/misc/lv_tlsf.c ****     block_header_t * block = block_from_ptr(ptr);
ARM GAS  /var/folders/lp/x54gwt890xv47sdkqj1k04q40000gn/T//cceYwpZM.s 			page 24


 395              		.loc 1 824 5 view .LVU146
 825:Drivers/lvgl/src/misc/lv_tlsf.c ****     integrity_t * integ = tlsf_cast(integrity_t *, user);
 396              		.loc 1 825 5 view .LVU147
 826:Drivers/lvgl/src/misc/lv_tlsf.c ****     const int this_prev_status = block_is_prev_free(block) ? 1 : 0;
 397              		.loc 1 826 5 view .LVU148
 398              	.LBB496:
 399              	.LBI496:
 413:Drivers/lvgl/src/misc/lv_tlsf.c **** {
 400              		.loc 1 413 12 view .LVU149
 401              	.LBB497:
 415:Drivers/lvgl/src/misc/lv_tlsf.c **** }
 402              		.loc 1 415 5 view .LVU150
 415:Drivers/lvgl/src/misc/lv_tlsf.c **** }
 403              		.loc 1 415 12 is_stmt 0 view .LVU151
 404 0000 50F8042C 		ldr	r2, [r0, #-4]
 405              	.LVL16:
 415:Drivers/lvgl/src/misc/lv_tlsf.c **** }
 406              		.loc 1 415 12 view .LVU152
 407              	.LBE497:
 408              	.LBE496:
 827:Drivers/lvgl/src/misc/lv_tlsf.c ****     const int this_status = block_is_free(block) ? 1 : 0;
 409              		.loc 1 827 5 is_stmt 1 view .LVU153
 828:Drivers/lvgl/src/misc/lv_tlsf.c ****     const size_t this_block_size = block_size(block);
 410              		.loc 1 828 5 view .LVU154
 411              	.LBB498:
 412              	.LBI498:
 382:Drivers/lvgl/src/misc/lv_tlsf.c **** {
 413              		.loc 1 382 15 view .LVU155
 414              	.LBB499:
 384:Drivers/lvgl/src/misc/lv_tlsf.c **** }
 415              		.loc 1 384 5 view .LVU156
 384:Drivers/lvgl/src/misc/lv_tlsf.c **** }
 416              		.loc 1 384 5 is_stmt 0 view .LVU157
 417              	.LBE499:
 418              	.LBE498:
 829:Drivers/lvgl/src/misc/lv_tlsf.c **** 
 830:Drivers/lvgl/src/misc/lv_tlsf.c ****     int status = 0;
 419              		.loc 1 830 5 is_stmt 1 view .LVU158
 831:Drivers/lvgl/src/misc/lv_tlsf.c ****     LV_UNUSED(used);
 420              		.loc 1 831 5 view .LVU159
 832:Drivers/lvgl/src/misc/lv_tlsf.c ****     tlsf_insist(integ->prev_status == this_prev_status && "prev status incorrect");
 421              		.loc 1 832 5 view .LVU160
 422              		.loc 1 832 5 view .LVU161
 823:Drivers/lvgl/src/misc/lv_tlsf.c ****     block_header_t * block = block_from_ptr(ptr);
 423              		.loc 1 823 1 is_stmt 0 view .LVU162
 424 0004 10B4     		push	{r4}
 425              		.cfi_def_cfa_offset 4
 426              		.cfi_offset 4, -4
 427              		.loc 1 832 5 view .LVU163
 428 0006 1C68     		ldr	r4, [r3]
 826:Drivers/lvgl/src/misc/lv_tlsf.c ****     const int this_status = block_is_free(block) ? 1 : 0;
 429              		.loc 1 826 64 discriminator 1 view .LVU164
 430 0008 C2F34000 		ubfx	r0, r2, #1, #1
 431              	.LVL17:
 432              		.loc 1 832 5 view .LVU165
 433 000c 8442     		cmp	r4, r0
 434 000e 00D0     		beq	.L14
ARM GAS  /var/folders/lp/x54gwt890xv47sdkqj1k04q40000gn/T//cceYwpZM.s 			page 25


 435              	.L15:
 436              		.loc 1 832 5 is_stmt 1 discriminator 1 view .LVU166
 437              		.loc 1 832 5 discriminator 1 view .LVU167
 438              		.loc 1 832 5 discriminator 1 view .LVU168
 439              		.loc 1 832 5 discriminator 1 view .LVU169
 440              		.loc 1 832 5 discriminator 1 view .LVU170
 441              		.loc 1 832 5 discriminator 1 view .LVU171
 442              		.loc 1 832 5 discriminator 1 view .LVU172
 443              		.loc 1 832 5 discriminator 1 view .LVU173
 444              		.loc 1 832 5 discriminator 1 view .LVU174
 445              		.loc 1 832 5 discriminator 1 view .LVU175
 446 0010 FEE7     		b	.L15
 447              	.L14:
 448              		.loc 1 832 5 discriminator 2 view .LVU176
 449              		.loc 1 832 5 discriminator 2 view .LVU177
 450              		.loc 1 832 83 discriminator 5 view .LVU178
 833:Drivers/lvgl/src/misc/lv_tlsf.c ****     tlsf_insist(size == this_block_size && "block size incorrect");
 451              		.loc 1 833 5 view .LVU179
 452              		.loc 1 833 5 view .LVU180
 453              	.LBB501:
 454              	.LBB500:
 384:Drivers/lvgl/src/misc/lv_tlsf.c **** }
 455              		.loc 1 384 24 is_stmt 0 view .LVU181
 456 0012 22F00300 		bic	r0, r2, #3
 457              	.LBE500:
 458              	.LBE501:
 459              		.loc 1 833 5 view .LVU182
 460 0016 8842     		cmp	r0, r1
 461 0018 00D0     		beq	.L16
 462              	.L17:
 463              		.loc 1 833 5 is_stmt 1 discriminator 1 view .LVU183
 464              		.loc 1 833 5 discriminator 1 view .LVU184
 465              		.loc 1 833 5 discriminator 1 view .LVU185
 466              		.loc 1 833 5 discriminator 1 view .LVU186
 467              		.loc 1 833 5 discriminator 1 view .LVU187
 468              		.loc 1 833 5 discriminator 1 view .LVU188
 469              		.loc 1 833 5 discriminator 1 view .LVU189
 470              		.loc 1 833 5 discriminator 1 view .LVU190
 471              		.loc 1 833 5 discriminator 1 view .LVU191
 472              		.loc 1 833 5 discriminator 1 view .LVU192
 473 001a FEE7     		b	.L17
 474              	.L16:
 475              		.loc 1 833 5 discriminator 2 view .LVU193
 476              		.loc 1 833 5 discriminator 2 view .LVU194
 477              		.loc 1 833 67 discriminator 5 view .LVU195
 834:Drivers/lvgl/src/misc/lv_tlsf.c **** 
 835:Drivers/lvgl/src/misc/lv_tlsf.c ****     integ->prev_status = this_status;
 478              		.loc 1 835 5 view .LVU196
 827:Drivers/lvgl/src/misc/lv_tlsf.c ****     const size_t this_block_size = block_size(block);
 479              		.loc 1 827 15 is_stmt 0 discriminator 1 view .LVU197
 480 001c 02F00102 		and	r2, r2, #1
 481              	.LVL18:
 836:Drivers/lvgl/src/misc/lv_tlsf.c ****     integ->status += status;
 837:Drivers/lvgl/src/misc/lv_tlsf.c **** }
 482              		.loc 1 837 1 view .LVU198
 483 0020 5DF8044B 		ldr	r4, [sp], #4
 484              		.cfi_restore 4
ARM GAS  /var/folders/lp/x54gwt890xv47sdkqj1k04q40000gn/T//cceYwpZM.s 			page 26


 485              		.cfi_def_cfa_offset 0
 835:Drivers/lvgl/src/misc/lv_tlsf.c ****     integ->status += status;
 486              		.loc 1 835 24 view .LVU199
 487 0024 1A60     		str	r2, [r3]
 836:Drivers/lvgl/src/misc/lv_tlsf.c ****     integ->status += status;
 488              		.loc 1 836 5 is_stmt 1 view .LVU200
 489              		.loc 1 837 1 is_stmt 0 view .LVU201
 490 0026 7047     		bx	lr
 491              		.cfi_endproc
 492              	.LFE42:
 494              		.section	.text.default_walker,"ax",%progbits
 495              		.align	1
 496              		.p2align 2,,3
 497              		.syntax unified
 498              		.thumb
 499              		.thumb_func
 501              	default_walker:
 502              	.LVL19:
 503              	.LFB44:
 838:Drivers/lvgl/src/misc/lv_tlsf.c **** 
 839:Drivers/lvgl/src/misc/lv_tlsf.c **** int lv_tlsf_check(lv_tlsf_t tlsf)
 840:Drivers/lvgl/src/misc/lv_tlsf.c **** {
 841:Drivers/lvgl/src/misc/lv_tlsf.c ****     int i, j;
 842:Drivers/lvgl/src/misc/lv_tlsf.c **** 
 843:Drivers/lvgl/src/misc/lv_tlsf.c ****     control_t * control = tlsf_cast(control_t *, tlsf);
 844:Drivers/lvgl/src/misc/lv_tlsf.c ****     int status = 0;
 845:Drivers/lvgl/src/misc/lv_tlsf.c **** 
 846:Drivers/lvgl/src/misc/lv_tlsf.c ****     /* Check that the free lists and bitmaps are accurate. */
 847:Drivers/lvgl/src/misc/lv_tlsf.c ****     for(i = 0; i < FL_INDEX_COUNT; ++i) {
 848:Drivers/lvgl/src/misc/lv_tlsf.c ****         for(j = 0; j < SL_INDEX_COUNT; ++j) {
 849:Drivers/lvgl/src/misc/lv_tlsf.c ****             const int fl_map = control->fl_bitmap & (1U << i);
 850:Drivers/lvgl/src/misc/lv_tlsf.c ****             const int sl_list = control->sl_bitmap[i];
 851:Drivers/lvgl/src/misc/lv_tlsf.c ****             const int sl_map = sl_list & (1U << j);
 852:Drivers/lvgl/src/misc/lv_tlsf.c ****             const block_header_t * block = control->blocks[i][j];
 853:Drivers/lvgl/src/misc/lv_tlsf.c **** 
 854:Drivers/lvgl/src/misc/lv_tlsf.c ****             /* Check that first- and second-level lists agree. */
 855:Drivers/lvgl/src/misc/lv_tlsf.c ****             if(!fl_map) {
 856:Drivers/lvgl/src/misc/lv_tlsf.c ****                 tlsf_insist(!sl_map && "second-level map must be null");
 857:Drivers/lvgl/src/misc/lv_tlsf.c ****             }
 858:Drivers/lvgl/src/misc/lv_tlsf.c **** 
 859:Drivers/lvgl/src/misc/lv_tlsf.c ****             if(!sl_map) {
 860:Drivers/lvgl/src/misc/lv_tlsf.c ****                 tlsf_insist(block == &control->block_null && "block list must be null");
 861:Drivers/lvgl/src/misc/lv_tlsf.c ****                 continue;
 862:Drivers/lvgl/src/misc/lv_tlsf.c ****             }
 863:Drivers/lvgl/src/misc/lv_tlsf.c **** 
 864:Drivers/lvgl/src/misc/lv_tlsf.c ****             /* Check that there is at least one free block. */
 865:Drivers/lvgl/src/misc/lv_tlsf.c ****             tlsf_insist(sl_list && "no free blocks in second-level map");
 866:Drivers/lvgl/src/misc/lv_tlsf.c ****             tlsf_insist(block != &control->block_null && "block should not be null");
 867:Drivers/lvgl/src/misc/lv_tlsf.c **** 
 868:Drivers/lvgl/src/misc/lv_tlsf.c ****             while(block != &control->block_null) {
 869:Drivers/lvgl/src/misc/lv_tlsf.c ****                 int fli, sli;
 870:Drivers/lvgl/src/misc/lv_tlsf.c ****                 tlsf_insist(block_is_free(block) && "block should be free");
 871:Drivers/lvgl/src/misc/lv_tlsf.c ****                 tlsf_insist(!block_is_prev_free(block) && "blocks should have coalesced");
 872:Drivers/lvgl/src/misc/lv_tlsf.c ****                 tlsf_insist(!block_is_free(block_next(block)) && "blocks should have coalesced");
 873:Drivers/lvgl/src/misc/lv_tlsf.c ****                 tlsf_insist(block_is_prev_free(block_next(block)) && "block should be free");
 874:Drivers/lvgl/src/misc/lv_tlsf.c ****                 tlsf_insist(block_size(block) >= block_size_min && "block not minimum size");
 875:Drivers/lvgl/src/misc/lv_tlsf.c **** 
ARM GAS  /var/folders/lp/x54gwt890xv47sdkqj1k04q40000gn/T//cceYwpZM.s 			page 27


 876:Drivers/lvgl/src/misc/lv_tlsf.c ****                 mapping_insert(block_size(block), &fli, &sli);
 877:Drivers/lvgl/src/misc/lv_tlsf.c ****                 tlsf_insist(fli == i && sli == j && "block size indexed in wrong list");
 878:Drivers/lvgl/src/misc/lv_tlsf.c ****                 block = block->next_free;
 879:Drivers/lvgl/src/misc/lv_tlsf.c ****             }
 880:Drivers/lvgl/src/misc/lv_tlsf.c ****         }
 881:Drivers/lvgl/src/misc/lv_tlsf.c ****     }
 882:Drivers/lvgl/src/misc/lv_tlsf.c **** 
 883:Drivers/lvgl/src/misc/lv_tlsf.c ****     return status;
 884:Drivers/lvgl/src/misc/lv_tlsf.c **** }
 885:Drivers/lvgl/src/misc/lv_tlsf.c **** 
 886:Drivers/lvgl/src/misc/lv_tlsf.c **** #undef tlsf_insist
 887:Drivers/lvgl/src/misc/lv_tlsf.c **** 
 888:Drivers/lvgl/src/misc/lv_tlsf.c **** static void default_walker(void * ptr, size_t size, int used, void * user)
 889:Drivers/lvgl/src/misc/lv_tlsf.c **** {
 504              		.loc 1 889 1 is_stmt 1 view -0
 505              		.cfi_startproc
 506              		@ args = 0, pretend = 0, frame = 0
 507              		@ frame_needed = 0, uses_anonymous_args = 0
 508              		@ link register save eliminated.
 890:Drivers/lvgl/src/misc/lv_tlsf.c ****     LV_UNUSED(user);
 509              		.loc 1 890 5 view .LVU203
 891:Drivers/lvgl/src/misc/lv_tlsf.c ****     printf("\t%p %s size: %x (%p)\n", ptr, used ? "used" : "free", (unsigned int)size, (void *)bloc
 510              		.loc 1 891 5 view .LVU204
 511              		.loc 1 891 5 view .LVU205
 512              		.loc 1 891 5 view .LVU206
 892:Drivers/lvgl/src/misc/lv_tlsf.c **** }
 513              		.loc 1 892 1 is_stmt 0 view .LVU207
 514 0000 7047     		bx	lr
 515              		.cfi_endproc
 516              	.LFE44:
 518 0002 00BF     		.section	.text.block_insert,"ax",%progbits
 519              		.align	1
 520              		.p2align 2,,3
 521              		.syntax unified
 522              		.thumb
 523              		.thumb_func
 525              	block_insert:
 526              	.LVL20:
 527              	.LFB30:
 642:Drivers/lvgl/src/misc/lv_tlsf.c ****     int fl, sl;
 528              		.loc 1 642 1 is_stmt 1 view -0
 529              		.cfi_startproc
 530              		@ args = 0, pretend = 0, frame = 0
 531              		@ frame_needed = 0, uses_anonymous_args = 0
 643:Drivers/lvgl/src/misc/lv_tlsf.c ****     mapping_insert(block_size(block), &fl, &sl);
 532              		.loc 1 643 5 view .LVU209
 644:Drivers/lvgl/src/misc/lv_tlsf.c ****     insert_free_block(control, block, fl, sl);
 533              		.loc 1 644 5 view .LVU210
 534              	.LBB514:
 535              	.LBI514:
 382:Drivers/lvgl/src/misc/lv_tlsf.c **** {
 536              		.loc 1 382 15 view .LVU211
 537              	.LBB515:
 384:Drivers/lvgl/src/misc/lv_tlsf.c **** }
 538              		.loc 1 384 5 view .LVU212
 384:Drivers/lvgl/src/misc/lv_tlsf.c **** }
 539              		.loc 1 384 24 is_stmt 0 view .LVU213
ARM GAS  /var/folders/lp/x54gwt890xv47sdkqj1k04q40000gn/T//cceYwpZM.s 			page 28


 540 0000 4B68     		ldr	r3, [r1, #4]
 541 0002 23F00303 		bic	r3, r3, #3
 542              	.LVL21:
 384:Drivers/lvgl/src/misc/lv_tlsf.c **** }
 543              		.loc 1 384 24 view .LVU214
 544              	.LBE515:
 545              	.LBE514:
 546              	.LBB516:
 547              	.LBI516:
 528:Drivers/lvgl/src/misc/lv_tlsf.c **** {
 548              		.loc 1 528 13 is_stmt 1 view .LVU215
 549              	.LBB517:
 530:Drivers/lvgl/src/misc/lv_tlsf.c ****     if(size < SMALL_BLOCK_SIZE) {
 550              		.loc 1 530 5 view .LVU216
 531:Drivers/lvgl/src/misc/lv_tlsf.c ****         /* Store small blocks in first list. */
 551              		.loc 1 531 5 view .LVU217
 531:Drivers/lvgl/src/misc/lv_tlsf.c ****         /* Store small blocks in first list. */
 552              		.loc 1 531 7 is_stmt 0 view .LVU218
 553 0006 7F2B     		cmp	r3, #127
 554              	.LBE517:
 555              	.LBE516:
 642:Drivers/lvgl/src/misc/lv_tlsf.c ****     int fl, sl;
 556              		.loc 1 642 1 view .LVU219
 557 0008 10B5     		push	{r4, lr}
 558              		.cfi_def_cfa_offset 8
 559              		.cfi_offset 4, -8
 560              		.cfi_offset 14, -4
 561              	.LBB522:
 562              	.LBB520:
 531:Drivers/lvgl/src/misc/lv_tlsf.c ****         /* Store small blocks in first list. */
 563              		.loc 1 531 7 view .LVU220
 564 000a 15D8     		bhi	.L21
 533:Drivers/lvgl/src/misc/lv_tlsf.c ****         sl = tlsf_cast(int, size) / (SMALL_BLOCK_SIZE / SL_INDEX_COUNT);
 565              		.loc 1 533 9 is_stmt 1 view .LVU221
 566              	.LVL22:
 534:Drivers/lvgl/src/misc/lv_tlsf.c ****     }
 567              		.loc 1 534 9 view .LVU222
 534:Drivers/lvgl/src/misc/lv_tlsf.c ****     }
 568              		.loc 1 534 12 is_stmt 0 view .LVU223
 569 000c 9B10     		asrs	r3, r3, #2
 570              	.LVL23:
 533:Drivers/lvgl/src/misc/lv_tlsf.c ****         sl = tlsf_cast(int, size) / (SMALL_BLOCK_SIZE / SL_INDEX_COUNT);
 571              		.loc 1 533 12 view .LVU224
 572 000e 0022     		movs	r2, #0
 573              	.LVL24:
 574              	.L22:
 541:Drivers/lvgl/src/misc/lv_tlsf.c ****     *sli = sl;
 575              		.loc 1 541 5 is_stmt 1 view .LVU225
 542:Drivers/lvgl/src/misc/lv_tlsf.c **** }
 576              		.loc 1 542 5 view .LVU226
 542:Drivers/lvgl/src/misc/lv_tlsf.c **** }
 577              		.loc 1 542 5 is_stmt 0 view .LVU227
 578              	.LBE520:
 579              	.LBE522:
 645:Drivers/lvgl/src/misc/lv_tlsf.c **** }
 580              		.loc 1 645 5 is_stmt 1 view .LVU228
 581              	.LBB523:
ARM GAS  /var/folders/lp/x54gwt890xv47sdkqj1k04q40000gn/T//cceYwpZM.s 			page 29


 582              	.LBI523:
 612:Drivers/lvgl/src/misc/lv_tlsf.c **** {
 583              		.loc 1 612 13 view .LVU229
 584              	.LBB524:
 614:Drivers/lvgl/src/misc/lv_tlsf.c ****     tlsf_assert(current && "free list cannot have a null entry");
 585              		.loc 1 614 5 view .LVU230
 586 0010 03EB421C 		add	ip, r3, r2, lsl #5
 587 0014 00EB8C0C 		add	ip, r0, ip, lsl #2
 614:Drivers/lvgl/src/misc/lv_tlsf.c ****     tlsf_assert(current && "free list cannot have a null entry");
 588              		.loc 1 614 22 is_stmt 0 view .LVU231
 589 0018 DCF83040 		ldr	r4, [ip, #48]
 590              	.LVL25:
 615:Drivers/lvgl/src/misc/lv_tlsf.c ****     tlsf_assert(block && "cannot insert a null entry into the free list");
 591              		.loc 1 615 5 is_stmt 1 view .LVU232
 615:Drivers/lvgl/src/misc/lv_tlsf.c ****     tlsf_assert(block && "cannot insert a null entry into the free list");
 592              		.loc 1 615 5 view .LVU233
 593 001c 5CB1     		cbz	r4, .L24
 615:Drivers/lvgl/src/misc/lv_tlsf.c ****     tlsf_assert(block && "cannot insert a null entry into the free list");
 594              		.loc 1 615 5 discriminator 2 view .LVU234
 616:Drivers/lvgl/src/misc/lv_tlsf.c ****     block->next_free = current;
 595              		.loc 1 616 5 view .LVU235
 616:Drivers/lvgl/src/misc/lv_tlsf.c ****     block->next_free = current;
 596              		.loc 1 616 5 view .LVU236
 616:Drivers/lvgl/src/misc/lv_tlsf.c ****     block->next_free = current;
 597              		.loc 1 616 5 discriminator 2 view .LVU237
 617:Drivers/lvgl/src/misc/lv_tlsf.c ****     block->prev_free = &control->block_null;
 598              		.loc 1 617 5 view .LVU238
 618:Drivers/lvgl/src/misc/lv_tlsf.c ****     current->prev_free = block;
 599              		.loc 1 618 22 is_stmt 0 view .LVU239
 600 001e C1E90240 		strd	r4, r0, [r1, #8]
 619:Drivers/lvgl/src/misc/lv_tlsf.c **** 
 601              		.loc 1 619 5 is_stmt 1 view .LVU240
 619:Drivers/lvgl/src/misc/lv_tlsf.c **** 
 602              		.loc 1 619 24 is_stmt 0 view .LVU241
 603 0022 E160     		str	r1, [r4, #12]
 621:Drivers/lvgl/src/misc/lv_tlsf.c ****                 && "block not aligned properly");
 604              		.loc 1 621 5 is_stmt 1 view .LVU242
 621:Drivers/lvgl/src/misc/lv_tlsf.c ****                 && "block not aligned properly");
 605              		.loc 1 621 5 view .LVU243
 606              	.LVL26:
 607              	.LBB525:
 608              	.LBI525:
 434:Drivers/lvgl/src/misc/lv_tlsf.c **** {
 609              		.loc 1 434 15 view .LVU244
 610              	.LBB526:
 436:Drivers/lvgl/src/misc/lv_tlsf.c ****                      tlsf_cast(unsigned char *, block) + block_start_offset);
 611              		.loc 1 436 5 view .LVU245
 612              	.LBE526:
 613              	.LBE525:
 614              	.LBB528:
 615              	.LBB529:
 500:Drivers/lvgl/src/misc/lv_tlsf.c ****     tlsf_assert(0 == (align & (align - 1)) && "must align to a power of two");
 616              		.loc 1 500 36 is_stmt 0 view .LVU246
 617 0024 01F10B04 		add	r4, r1, #11
 618              	.LVL27:
 500:Drivers/lvgl/src/misc/lv_tlsf.c ****     tlsf_assert(0 == (align & (align - 1)) && "must align to a power of two");
 619              		.loc 1 500 51 view .LVU247
ARM GAS  /var/folders/lp/x54gwt890xv47sdkqj1k04q40000gn/T//cceYwpZM.s 			page 30


 620 0028 24F00304 		bic	r4, r4, #3
 621              	.LBE529:
 622              	.LBE528:
 623              	.LBB531:
 624              	.LBB527:
 436:Drivers/lvgl/src/misc/lv_tlsf.c ****                      tlsf_cast(unsigned char *, block) + block_start_offset);
 625              		.loc 1 436 12 view .LVU248
 626 002c 01F1080E 		add	lr, r1, #8
 627              	.LVL28:
 436:Drivers/lvgl/src/misc/lv_tlsf.c ****                      tlsf_cast(unsigned char *, block) + block_start_offset);
 628              		.loc 1 436 12 view .LVU249
 629              	.LBE527:
 630              	.LBE531:
 631              	.LBB532:
 632              	.LBI528:
 497:Drivers/lvgl/src/misc/lv_tlsf.c **** {
 633              		.loc 1 497 15 is_stmt 1 view .LVU250
 634              	.LBB530:
 499:Drivers/lvgl/src/misc/lv_tlsf.c ****         (tlsf_cast(tlsfptr_t, ptr) + (align - 1)) & ~(align - 1);
 635              		.loc 1 499 5 view .LVU251
 501:Drivers/lvgl/src/misc/lv_tlsf.c ****     return tlsf_cast(void *, aligned);
 636              		.loc 1 501 5 view .LVU252
 501:Drivers/lvgl/src/misc/lv_tlsf.c ****     return tlsf_cast(void *, aligned);
 637              		.loc 1 501 5 view .LVU253
 501:Drivers/lvgl/src/misc/lv_tlsf.c ****     return tlsf_cast(void *, aligned);
 638              		.loc 1 501 5 discriminator 2 view .LVU254
 502:Drivers/lvgl/src/misc/lv_tlsf.c **** }
 639              		.loc 1 502 5 view .LVU255
 502:Drivers/lvgl/src/misc/lv_tlsf.c **** }
 640              		.loc 1 502 5 is_stmt 0 view .LVU256
 641              	.LBE530:
 642              	.LBE532:
 621:Drivers/lvgl/src/misc/lv_tlsf.c ****                 && "block not aligned properly");
 643              		.loc 1 621 5 discriminator 3 view .LVU257
 644 0030 A645     		cmp	lr, r4
 645 0032 0BD0     		beq	.L25
 646              	.L26:
 621:Drivers/lvgl/src/misc/lv_tlsf.c ****                 && "block not aligned properly");
 647              		.loc 1 621 5 is_stmt 1 discriminator 1 view .LVU258
 621:Drivers/lvgl/src/misc/lv_tlsf.c ****                 && "block not aligned properly");
 648              		.loc 1 621 5 discriminator 1 view .LVU259
 621:Drivers/lvgl/src/misc/lv_tlsf.c ****                 && "block not aligned properly");
 649              		.loc 1 621 5 discriminator 1 view .LVU260
 621:Drivers/lvgl/src/misc/lv_tlsf.c ****                 && "block not aligned properly");
 650              		.loc 1 621 5 discriminator 1 view .LVU261
 621:Drivers/lvgl/src/misc/lv_tlsf.c ****                 && "block not aligned properly");
 651              		.loc 1 621 5 discriminator 1 view .LVU262
 621:Drivers/lvgl/src/misc/lv_tlsf.c ****                 && "block not aligned properly");
 652              		.loc 1 621 5 discriminator 1 view .LVU263
 621:Drivers/lvgl/src/misc/lv_tlsf.c ****                 && "block not aligned properly");
 653              		.loc 1 621 5 discriminator 1 view .LVU264
 621:Drivers/lvgl/src/misc/lv_tlsf.c ****                 && "block not aligned properly");
 654              		.loc 1 621 5 discriminator 1 view .LVU265
 621:Drivers/lvgl/src/misc/lv_tlsf.c ****                 && "block not aligned properly");
 655              		.loc 1 621 5 discriminator 1 view .LVU266
 621:Drivers/lvgl/src/misc/lv_tlsf.c ****                 && "block not aligned properly");
 656              		.loc 1 621 5 discriminator 1 view .LVU267
ARM GAS  /var/folders/lp/x54gwt890xv47sdkqj1k04q40000gn/T//cceYwpZM.s 			page 31


 657 0034 FEE7     		b	.L26
 658              	.LVL29:
 659              	.L24:
 615:Drivers/lvgl/src/misc/lv_tlsf.c ****     tlsf_assert(block && "cannot insert a null entry into the free list");
 660              		.loc 1 615 5 discriminator 1 view .LVU268
 615:Drivers/lvgl/src/misc/lv_tlsf.c ****     tlsf_assert(block && "cannot insert a null entry into the free list");
 661              		.loc 1 615 5 discriminator 1 view .LVU269
 615:Drivers/lvgl/src/misc/lv_tlsf.c ****     tlsf_assert(block && "cannot insert a null entry into the free list");
 662              		.loc 1 615 5 discriminator 1 view .LVU270
 615:Drivers/lvgl/src/misc/lv_tlsf.c ****     tlsf_assert(block && "cannot insert a null entry into the free list");
 663              		.loc 1 615 5 discriminator 1 view .LVU271
 615:Drivers/lvgl/src/misc/lv_tlsf.c ****     tlsf_assert(block && "cannot insert a null entry into the free list");
 664              		.loc 1 615 5 discriminator 1 view .LVU272
 615:Drivers/lvgl/src/misc/lv_tlsf.c ****     tlsf_assert(block && "cannot insert a null entry into the free list");
 665              		.loc 1 615 5 discriminator 1 view .LVU273
 615:Drivers/lvgl/src/misc/lv_tlsf.c ****     tlsf_assert(block && "cannot insert a null entry into the free list");
 666              		.loc 1 615 5 discriminator 1 view .LVU274
 615:Drivers/lvgl/src/misc/lv_tlsf.c ****     tlsf_assert(block && "cannot insert a null entry into the free list");
 667              		.loc 1 615 5 discriminator 1 view .LVU275
 615:Drivers/lvgl/src/misc/lv_tlsf.c ****     tlsf_assert(block && "cannot insert a null entry into the free list");
 668              		.loc 1 615 5 discriminator 1 view .LVU276
 615:Drivers/lvgl/src/misc/lv_tlsf.c ****     tlsf_assert(block && "cannot insert a null entry into the free list");
 669              		.loc 1 615 5 discriminator 1 view .LVU277
 670 0036 FEE7     		b	.L24
 671              	.LVL30:
 672              	.L21:
 615:Drivers/lvgl/src/misc/lv_tlsf.c ****     tlsf_assert(block && "cannot insert a null entry into the free list");
 673              		.loc 1 615 5 is_stmt 0 discriminator 1 view .LVU278
 674              	.LBE524:
 675              	.LBE523:
 676              	.LBB534:
 677              	.LBB521:
 537:Drivers/lvgl/src/misc/lv_tlsf.c ****         sl = tlsf_cast(int, size >> (fl - SL_INDEX_COUNT_LOG2)) ^ (1 << SL_INDEX_COUNT_LOG2);
 678              		.loc 1 537 9 is_stmt 1 view .LVU279
 679              	.LBB518:
 680              	.LBI518:
 101:Drivers/lvgl/src/misc/lv_tlsf.c **** {
 681              		.loc 1 101 15 view .LVU280
 682              	.LBB519:
 103:Drivers/lvgl/src/misc/lv_tlsf.c ****     return bit - 1;
 683              		.loc 1 103 5 view .LVU281
 103:Drivers/lvgl/src/misc/lv_tlsf.c ****     return bit - 1;
 684              		.loc 1 103 33 is_stmt 0 discriminator 1 view .LVU282
 685 0038 B3FA83F2 		clz	r2, r3
 686              	.LVL31:
 104:Drivers/lvgl/src/misc/lv_tlsf.c **** }
 687              		.loc 1 104 5 is_stmt 1 view .LVU283
 104:Drivers/lvgl/src/misc/lv_tlsf.c **** }
 688              		.loc 1 104 5 is_stmt 0 view .LVU284
 689              	.LBE519:
 690              	.LBE518:
 538:Drivers/lvgl/src/misc/lv_tlsf.c ****         fl -= (FL_INDEX_SHIFT - 1);
 691              		.loc 1 538 9 is_stmt 1 view .LVU285
 538:Drivers/lvgl/src/misc/lv_tlsf.c ****         fl -= (FL_INDEX_SHIFT - 1);
 692              		.loc 1 538 14 is_stmt 0 view .LVU286
 693 003c C2F11A04 		rsb	r4, r2, #26
 694 0040 E340     		lsrs	r3, r3, r4
ARM GAS  /var/folders/lp/x54gwt890xv47sdkqj1k04q40000gn/T//cceYwpZM.s 			page 32


 695              	.LVL32:
 538:Drivers/lvgl/src/misc/lv_tlsf.c ****         fl -= (FL_INDEX_SHIFT - 1);
 696              		.loc 1 538 12 view .LVU287
 697 0042 83F02003 		eor	r3, r3, #32
 698              	.LVL33:
 539:Drivers/lvgl/src/misc/lv_tlsf.c ****     }
 699              		.loc 1 539 9 is_stmt 1 view .LVU288
 539:Drivers/lvgl/src/misc/lv_tlsf.c ****     }
 700              		.loc 1 539 12 is_stmt 0 view .LVU289
 701 0046 C2F11902 		rsb	r2, r2, #25
 702              	.LVL34:
 539:Drivers/lvgl/src/misc/lv_tlsf.c ****     }
 703              		.loc 1 539 12 view .LVU290
 704 004a E1E7     		b	.L22
 705              	.LVL35:
 706              	.L25:
 539:Drivers/lvgl/src/misc/lv_tlsf.c ****     }
 707              		.loc 1 539 12 view .LVU291
 708              	.LBE521:
 709              	.LBE534:
 710              	.LBB535:
 711              	.LBB533:
 621:Drivers/lvgl/src/misc/lv_tlsf.c ****                 && "block not aligned properly");
 712              		.loc 1 621 5 is_stmt 1 discriminator 2 view .LVU292
 627:Drivers/lvgl/src/misc/lv_tlsf.c ****     control->fl_bitmap |= (1U << fl);
 713              		.loc 1 627 5 view .LVU293
 627:Drivers/lvgl/src/misc/lv_tlsf.c ****     control->fl_bitmap |= (1U << fl);
 714              		.loc 1 627 29 is_stmt 0 view .LVU294
 715 004c CCF83010 		str	r1, [ip, #48]
 716              	.LVL36:
 628:Drivers/lvgl/src/misc/lv_tlsf.c ****     control->sl_bitmap[fl] |= (1U << sl);
 717              		.loc 1 628 5 is_stmt 1 view .LVU295
 628:Drivers/lvgl/src/misc/lv_tlsf.c ****     control->sl_bitmap[fl] |= (1U << sl);
 718              		.loc 1 628 31 is_stmt 0 view .LVU296
 719 0050 0121     		movs	r1, #1
 720              	.LVL37:
 628:Drivers/lvgl/src/misc/lv_tlsf.c ****     control->sl_bitmap[fl] |= (1U << sl);
 721              		.loc 1 628 31 view .LVU297
 722 0052 01FA02F4 		lsl	r4, r1, r2
 629:Drivers/lvgl/src/misc/lv_tlsf.c **** }
 723              		.loc 1 629 35 view .LVU298
 724 0056 9940     		lsls	r1, r1, r3
 628:Drivers/lvgl/src/misc/lv_tlsf.c ****     control->sl_bitmap[fl] |= (1U << sl);
 725              		.loc 1 628 24 view .LVU299
 726 0058 0369     		ldr	r3, [r0, #16]
 727              	.LVL38:
 628:Drivers/lvgl/src/misc/lv_tlsf.c ****     control->sl_bitmap[fl] |= (1U << sl);
 728              		.loc 1 628 24 view .LVU300
 729 005a 00EB8202 		add	r2, r0, r2, lsl #2
 730              	.LVL39:
 628:Drivers/lvgl/src/misc/lv_tlsf.c ****     control->sl_bitmap[fl] |= (1U << sl);
 731              		.loc 1 628 24 view .LVU301
 732 005e 2343     		orrs	r3, r3, r4
 733 0060 0361     		str	r3, [r0, #16]
 629:Drivers/lvgl/src/misc/lv_tlsf.c **** }
 734              		.loc 1 629 5 is_stmt 1 view .LVU302
 629:Drivers/lvgl/src/misc/lv_tlsf.c **** }
ARM GAS  /var/folders/lp/x54gwt890xv47sdkqj1k04q40000gn/T//cceYwpZM.s 			page 33


 735              		.loc 1 629 28 is_stmt 0 view .LVU303
 736 0062 5369     		ldr	r3, [r2, #20]
 737 0064 0B43     		orrs	r3, r3, r1
 738 0066 5361     		str	r3, [r2, #20]
 739              	.LVL40:
 629:Drivers/lvgl/src/misc/lv_tlsf.c **** }
 740              		.loc 1 629 28 view .LVU304
 741              	.LBE533:
 742              	.LBE535:
 646:Drivers/lvgl/src/misc/lv_tlsf.c **** 
 743              		.loc 1 646 1 view .LVU305
 744 0068 10BD     		pop	{r4, pc}
 745              		.cfi_endproc
 746              	.LFE30:
 748 006a 00BF     		.section	.text.block_trim_free,"ax",%progbits
 749              		.align	1
 750              		.p2align 2,,3
 751              		.syntax unified
 752              		.thumb
 753              		.thumb_func
 755              	block_trim_free:
 756              	.LVL41:
 757              	.LFB36:
 716:Drivers/lvgl/src/misc/lv_tlsf.c ****     tlsf_assert(block_is_free(block) && "block must be free");
 758              		.loc 1 716 1 is_stmt 1 view -0
 759              		.cfi_startproc
 760              		@ args = 0, pretend = 0, frame = 0
 761              		@ frame_needed = 0, uses_anonymous_args = 0
 717:Drivers/lvgl/src/misc/lv_tlsf.c ****     if(block_can_split(block, size)) {
 762              		.loc 1 717 5 view .LVU307
 717:Drivers/lvgl/src/misc/lv_tlsf.c ****     if(block_can_split(block, size)) {
 763              		.loc 1 717 5 view .LVU308
 764              	.LBB536:
 765              	.LBI536:
 398:Drivers/lvgl/src/misc/lv_tlsf.c **** {
 766              		.loc 1 398 12 view .LVU309
 767              	.LBB537:
 400:Drivers/lvgl/src/misc/lv_tlsf.c **** }
 768              		.loc 1 400 5 view .LVU310
 769              	.LBE537:
 770              	.LBE536:
 716:Drivers/lvgl/src/misc/lv_tlsf.c ****     tlsf_assert(block_is_free(block) && "block must be free");
 771              		.loc 1 716 1 is_stmt 0 view .LVU311
 772 0000 38B5     		push	{r3, r4, r5, lr}
 773              		.cfi_def_cfa_offset 16
 774              		.cfi_offset 3, -16
 775              		.cfi_offset 4, -12
 776              		.cfi_offset 5, -8
 777              		.cfi_offset 14, -4
 778              	.LBB539:
 779              	.LBB538:
 400:Drivers/lvgl/src/misc/lv_tlsf.c **** }
 780              		.loc 1 400 12 view .LVU312
 781 0002 4B68     		ldr	r3, [r1, #4]
 782              	.LVL42:
 400:Drivers/lvgl/src/misc/lv_tlsf.c **** }
 783              		.loc 1 400 12 view .LVU313
ARM GAS  /var/folders/lp/x54gwt890xv47sdkqj1k04q40000gn/T//cceYwpZM.s 			page 34


 784              	.LBE538:
 785              	.LBE539:
 717:Drivers/lvgl/src/misc/lv_tlsf.c ****     if(block_can_split(block, size)) {
 786              		.loc 1 717 5 discriminator 1 view .LVU314
 787 0004 DC07     		lsls	r4, r3, #31
 788 0006 07D5     		bpl	.L30
 789 0008 0C46     		mov	r4, r1
 717:Drivers/lvgl/src/misc/lv_tlsf.c ****     if(block_can_split(block, size)) {
 790              		.loc 1 717 5 is_stmt 1 discriminator 4 view .LVU315
 718:Drivers/lvgl/src/misc/lv_tlsf.c ****         block_header_t * remaining_block = block_split(block, size);
 791              		.loc 1 718 5 view .LVU316
 792              	.LVL43:
 793              	.LBB540:
 794              	.LBI540:
 648:Drivers/lvgl/src/misc/lv_tlsf.c **** {
 795              		.loc 1 648 12 view .LVU317
 796              	.LBB541:
 650:Drivers/lvgl/src/misc/lv_tlsf.c **** }
 797              		.loc 1 650 5 view .LVU318
 798              	.LBB542:
 799              	.LBI542:
 382:Drivers/lvgl/src/misc/lv_tlsf.c **** {
 800              		.loc 1 382 15 view .LVU319
 801              	.LBB543:
 384:Drivers/lvgl/src/misc/lv_tlsf.c **** }
 802              		.loc 1 384 5 view .LVU320
 384:Drivers/lvgl/src/misc/lv_tlsf.c **** }
 803              		.loc 1 384 24 is_stmt 0 view .LVU321
 804 000a 23F00303 		bic	r3, r3, #3
 805              	.LBE543:
 806              	.LBE542:
 650:Drivers/lvgl/src/misc/lv_tlsf.c **** }
 807              		.loc 1 650 56 discriminator 1 view .LVU322
 808 000e 02F11001 		add	r1, r2, #16
 809              	.LVL44:
 650:Drivers/lvgl/src/misc/lv_tlsf.c **** }
 810              		.loc 1 650 56 discriminator 1 view .LVU323
 811              	.LBE541:
 812              	.LBE540:
 718:Drivers/lvgl/src/misc/lv_tlsf.c ****         block_header_t * remaining_block = block_split(block, size);
 813              		.loc 1 718 7 discriminator 1 view .LVU324
 814 0012 8B42     		cmp	r3, r1
 815 0014 01D2     		bcs	.L35
 724:Drivers/lvgl/src/misc/lv_tlsf.c **** 
 816              		.loc 1 724 1 view .LVU325
 817 0016 38BD     		pop	{r3, r4, r5, pc}
 818              	.LVL45:
 819              	.L30:
 717:Drivers/lvgl/src/misc/lv_tlsf.c ****     if(block_can_split(block, size)) {
 820              		.loc 1 717 5 is_stmt 1 discriminator 3 view .LVU326
 717:Drivers/lvgl/src/misc/lv_tlsf.c ****     if(block_can_split(block, size)) {
 821              		.loc 1 717 5 discriminator 3 view .LVU327
 717:Drivers/lvgl/src/misc/lv_tlsf.c ****     if(block_can_split(block, size)) {
 822              		.loc 1 717 5 discriminator 3 view .LVU328
 717:Drivers/lvgl/src/misc/lv_tlsf.c ****     if(block_can_split(block, size)) {
 823              		.loc 1 717 5 discriminator 3 view .LVU329
 717:Drivers/lvgl/src/misc/lv_tlsf.c ****     if(block_can_split(block, size)) {
ARM GAS  /var/folders/lp/x54gwt890xv47sdkqj1k04q40000gn/T//cceYwpZM.s 			page 35


 824              		.loc 1 717 5 discriminator 3 view .LVU330
 717:Drivers/lvgl/src/misc/lv_tlsf.c ****     if(block_can_split(block, size)) {
 825              		.loc 1 717 5 discriminator 3 view .LVU331
 717:Drivers/lvgl/src/misc/lv_tlsf.c ****     if(block_can_split(block, size)) {
 826              		.loc 1 717 5 discriminator 3 view .LVU332
 717:Drivers/lvgl/src/misc/lv_tlsf.c ****     if(block_can_split(block, size)) {
 827              		.loc 1 717 5 discriminator 3 view .LVU333
 717:Drivers/lvgl/src/misc/lv_tlsf.c ****     if(block_can_split(block, size)) {
 828              		.loc 1 717 5 discriminator 3 view .LVU334
 717:Drivers/lvgl/src/misc/lv_tlsf.c ****     if(block_can_split(block, size)) {
 829              		.loc 1 717 5 discriminator 3 view .LVU335
 830 0018 FEE7     		b	.L30
 831              	.LVL46:
 832              	.L35:
 717:Drivers/lvgl/src/misc/lv_tlsf.c ****     if(block_can_split(block, size)) {
 833              		.loc 1 717 5 is_stmt 0 discriminator 3 view .LVU336
 834 001a 0546     		mov	r5, r0
 835              	.LBB544:
 719:Drivers/lvgl/src/misc/lv_tlsf.c ****         block_link_next(block);
 836              		.loc 1 719 9 is_stmt 1 view .LVU337
 719:Drivers/lvgl/src/misc/lv_tlsf.c ****         block_link_next(block);
 837              		.loc 1 719 44 is_stmt 0 view .LVU338
 838 001c 1146     		mov	r1, r2
 839 001e 2046     		mov	r0, r4
 840              	.LVL47:
 719:Drivers/lvgl/src/misc/lv_tlsf.c ****         block_link_next(block);
 841              		.loc 1 719 44 view .LVU339
 842 0020 FFF7FEFF 		bl	block_split
 843              	.LVL48:
 720:Drivers/lvgl/src/misc/lv_tlsf.c ****         block_set_prev_free(remaining_block);
 844              		.loc 1 720 9 is_stmt 1 view .LVU340
 845              	.LBB545:
 846              	.LBI545:
 463:Drivers/lvgl/src/misc/lv_tlsf.c **** {
 847              		.loc 1 463 25 view .LVU341
 848              	.LBB546:
 465:Drivers/lvgl/src/misc/lv_tlsf.c ****     next->prev_phys_block = block;
 849              		.loc 1 465 5 view .LVU342
 850              	.LBB547:
 851              	.LBI547:
 454:Drivers/lvgl/src/misc/lv_tlsf.c **** {
 852              		.loc 1 454 25 view .LVU343
 853              	.LBB548:
 456:Drivers/lvgl/src/misc/lv_tlsf.c ****                                             block_size(block) - block_header_overhead);
 854              		.loc 1 456 5 view .LVU344
 855              	.LBB549:
 856              	.LBI549:
 434:Drivers/lvgl/src/misc/lv_tlsf.c **** {
 857              		.loc 1 434 15 view .LVU345
 858              	.LBB550:
 436:Drivers/lvgl/src/misc/lv_tlsf.c ****                      tlsf_cast(unsigned char *, block) + block_start_offset);
 859              		.loc 1 436 5 view .LVU346
 436:Drivers/lvgl/src/misc/lv_tlsf.c ****                      tlsf_cast(unsigned char *, block) + block_start_offset);
 860              		.loc 1 436 5 is_stmt 0 view .LVU347
 861              	.LBE550:
 862              	.LBE549:
 863              	.LBB551:
ARM GAS  /var/folders/lp/x54gwt890xv47sdkqj1k04q40000gn/T//cceYwpZM.s 			page 36


 864              	.LBI551:
 382:Drivers/lvgl/src/misc/lv_tlsf.c **** {
 865              		.loc 1 382 15 is_stmt 1 view .LVU348
 866              	.LBB552:
 384:Drivers/lvgl/src/misc/lv_tlsf.c **** }
 867              		.loc 1 384 5 view .LVU349
 384:Drivers/lvgl/src/misc/lv_tlsf.c **** }
 868              		.loc 1 384 17 is_stmt 0 view .LVU350
 869 0024 6368     		ldr	r3, [r4, #4]
 870              	.LVL49:
 384:Drivers/lvgl/src/misc/lv_tlsf.c **** }
 871              		.loc 1 384 17 view .LVU351
 872              	.LBE552:
 873              	.LBE551:
 874              	.LBB554:
 875              	.LBI554:
 441:Drivers/lvgl/src/misc/lv_tlsf.c **** {
 876              		.loc 1 441 25 is_stmt 1 view .LVU352
 877              	.LBB555:
 443:Drivers/lvgl/src/misc/lv_tlsf.c **** }
 878              		.loc 1 443 5 view .LVU353
 443:Drivers/lvgl/src/misc/lv_tlsf.c **** }
 879              		.loc 1 443 5 is_stmt 0 view .LVU354
 880              	.LBE555:
 881              	.LBE554:
 458:Drivers/lvgl/src/misc/lv_tlsf.c ****     return next;
 882              		.loc 1 458 5 is_stmt 1 view .LVU355
 458:Drivers/lvgl/src/misc/lv_tlsf.c ****     return next;
 883              		.loc 1 458 5 view .LVU356
 458:Drivers/lvgl/src/misc/lv_tlsf.c ****     return next;
 884              		.loc 1 458 5 is_stmt 0 discriminator 1 view .LVU357
 885 0026 032B     		cmp	r3, #3
 886 0028 0DD9     		bls	.L33
 458:Drivers/lvgl/src/misc/lv_tlsf.c ****     return next;
 887              		.loc 1 458 5 is_stmt 1 discriminator 2 view .LVU358
 459:Drivers/lvgl/src/misc/lv_tlsf.c **** }
 888              		.loc 1 459 5 view .LVU359
 889              	.LVL50:
 459:Drivers/lvgl/src/misc/lv_tlsf.c **** }
 890              		.loc 1 459 5 is_stmt 0 view .LVU360
 891              	.LBE548:
 892              	.LBE547:
 466:Drivers/lvgl/src/misc/lv_tlsf.c ****     return next;
 893              		.loc 1 466 5 is_stmt 1 view .LVU361
 894              	.LBE546:
 895              	.LBE545:
 896              	.LBB564:
 897              	.LBB565:
 420:Drivers/lvgl/src/misc/lv_tlsf.c **** }
 898              		.loc 1 420 17 is_stmt 0 view .LVU362
 899 002a 4268     		ldr	r2, [r0, #4]
 900              	.LBE565:
 901              	.LBE564:
 902              	.LBB569:
 903              	.LBB561:
 904              	.LBB559:
 905              	.LBB557:
ARM GAS  /var/folders/lp/x54gwt890xv47sdkqj1k04q40000gn/T//cceYwpZM.s 			page 37


 906              	.LBB556:
 907              	.LBB553:
 384:Drivers/lvgl/src/misc/lv_tlsf.c **** }
 908              		.loc 1 384 24 view .LVU363
 909 002c 23F00303 		bic	r3, r3, #3
 910              	.LVL51:
 384:Drivers/lvgl/src/misc/lv_tlsf.c **** }
 911              		.loc 1 384 24 view .LVU364
 912              	.LBE553:
 913              	.LBE556:
 914              	.LBE557:
 915              	.LBE559:
 466:Drivers/lvgl/src/misc/lv_tlsf.c ****     return next;
 916              		.loc 1 466 27 view .LVU365
 917 0030 2344     		add	r3, r3, r4
 918              	.LVL52:
 466:Drivers/lvgl/src/misc/lv_tlsf.c ****     return next;
 919              		.loc 1 466 27 view .LVU366
 920              	.LBE561:
 921              	.LBE569:
 922              	.LBB570:
 923              	.LBB566:
 420:Drivers/lvgl/src/misc/lv_tlsf.c **** }
 924              		.loc 1 420 17 view .LVU367
 925 0032 42F00202 		orr	r2, r2, #2
 926              	.LBE566:
 927              	.LBE570:
 928              	.LBB571:
 929              	.LBB562:
 466:Drivers/lvgl/src/misc/lv_tlsf.c ****     return next;
 930              		.loc 1 466 27 view .LVU368
 931 0036 5C60     		str	r4, [r3, #4]
 467:Drivers/lvgl/src/misc/lv_tlsf.c **** }
 932              		.loc 1 467 5 is_stmt 1 view .LVU369
 933              	.LVL53:
 467:Drivers/lvgl/src/misc/lv_tlsf.c **** }
 934              		.loc 1 467 5 is_stmt 0 view .LVU370
 935              	.LBE562:
 936              	.LBE571:
 721:Drivers/lvgl/src/misc/lv_tlsf.c ****         block_insert(control, remaining_block);
 937              		.loc 1 721 9 is_stmt 1 view .LVU371
 938              	.LBB572:
 939              	.LBI564:
 418:Drivers/lvgl/src/misc/lv_tlsf.c **** {
 940              		.loc 1 418 13 view .LVU372
 941              	.LBB567:
 420:Drivers/lvgl/src/misc/lv_tlsf.c **** }
 942              		.loc 1 420 5 view .LVU373
 943              	.LBE567:
 944              	.LBE572:
 722:Drivers/lvgl/src/misc/lv_tlsf.c ****     }
 945              		.loc 1 722 9 is_stmt 0 view .LVU374
 946 0038 0146     		mov	r1, r0
 947              	.LBB573:
 948              	.LBB568:
 420:Drivers/lvgl/src/misc/lv_tlsf.c **** }
 949              		.loc 1 420 17 view .LVU375
ARM GAS  /var/folders/lp/x54gwt890xv47sdkqj1k04q40000gn/T//cceYwpZM.s 			page 38


 950 003a 4260     		str	r2, [r0, #4]
 951              	.LVL54:
 420:Drivers/lvgl/src/misc/lv_tlsf.c **** }
 952              		.loc 1 420 17 view .LVU376
 953              	.LBE568:
 954              	.LBE573:
 722:Drivers/lvgl/src/misc/lv_tlsf.c ****     }
 955              		.loc 1 722 9 is_stmt 1 view .LVU377
 956 003c 2846     		mov	r0, r5
 957              	.LVL55:
 722:Drivers/lvgl/src/misc/lv_tlsf.c ****     }
 958              		.loc 1 722 9 is_stmt 0 view .LVU378
 959              	.LBE544:
 724:Drivers/lvgl/src/misc/lv_tlsf.c **** 
 960              		.loc 1 724 1 view .LVU379
 961 003e BDE83840 		pop	{r3, r4, r5, lr}
 962              		.cfi_remember_state
 963              		.cfi_restore 14
 964              		.cfi_restore 5
 965              		.cfi_restore 4
 966              		.cfi_restore 3
 967              		.cfi_def_cfa_offset 0
 968              	.LVL56:
 969              	.LBB575:
 722:Drivers/lvgl/src/misc/lv_tlsf.c ****     }
 970              		.loc 1 722 9 view .LVU380
 971 0042 FFF7FEBF 		b	block_insert
 972              	.LVL57:
 973              	.L33:
 974              		.cfi_restore_state
 975              	.LBB574:
 976              	.LBB563:
 977              	.LBB560:
 978              	.LBB558:
 458:Drivers/lvgl/src/misc/lv_tlsf.c ****     return next;
 979              		.loc 1 458 5 is_stmt 1 discriminator 1 view .LVU381
 458:Drivers/lvgl/src/misc/lv_tlsf.c ****     return next;
 980              		.loc 1 458 5 discriminator 1 view .LVU382
 458:Drivers/lvgl/src/misc/lv_tlsf.c ****     return next;
 981              		.loc 1 458 5 discriminator 1 view .LVU383
 458:Drivers/lvgl/src/misc/lv_tlsf.c ****     return next;
 982              		.loc 1 458 5 discriminator 1 view .LVU384
 458:Drivers/lvgl/src/misc/lv_tlsf.c ****     return next;
 983              		.loc 1 458 5 discriminator 1 view .LVU385
 458:Drivers/lvgl/src/misc/lv_tlsf.c ****     return next;
 984              		.loc 1 458 5 discriminator 1 view .LVU386
 458:Drivers/lvgl/src/misc/lv_tlsf.c ****     return next;
 985              		.loc 1 458 5 discriminator 1 view .LVU387
 458:Drivers/lvgl/src/misc/lv_tlsf.c ****     return next;
 986              		.loc 1 458 5 discriminator 1 view .LVU388
 458:Drivers/lvgl/src/misc/lv_tlsf.c ****     return next;
 987              		.loc 1 458 5 discriminator 1 view .LVU389
 458:Drivers/lvgl/src/misc/lv_tlsf.c ****     return next;
 988              		.loc 1 458 5 discriminator 1 view .LVU390
 989 0046 FEE7     		b	.L33
 990              	.LBE558:
 991              	.LBE560:
ARM GAS  /var/folders/lp/x54gwt890xv47sdkqj1k04q40000gn/T//cceYwpZM.s 			page 39


 992              	.LBE563:
 993              	.LBE574:
 994              	.LBE575:
 995              		.cfi_endproc
 996              	.LFE36:
 998              		.section	.text.remove_free_block,"ax",%progbits
 999              		.align	1
 1000              		.p2align 2,,3
 1001              		.syntax unified
 1002              		.thumb
 1003              		.thumb_func
 1005              	remove_free_block:
 1006              	.LVL58:
 1007              	.LFB27:
 587:Drivers/lvgl/src/misc/lv_tlsf.c ****     block_header_t * prev = block->prev_free;
 1008              		.loc 1 587 1 view -0
 1009              		.cfi_startproc
 1010              		@ args = 0, pretend = 0, frame = 0
 1011              		@ frame_needed = 0, uses_anonymous_args = 0
 1012              		@ link register save eliminated.
 587:Drivers/lvgl/src/misc/lv_tlsf.c ****     block_header_t * prev = block->prev_free;
 1013              		.loc 1 587 1 is_stmt 0 view .LVU392
 1014 0000 30B4     		push	{r4, r5}
 1015              		.cfi_def_cfa_offset 8
 1016              		.cfi_offset 4, -8
 1017              		.cfi_offset 5, -4
 588:Drivers/lvgl/src/misc/lv_tlsf.c ****     block_header_t * next = block->next_free;
 1018              		.loc 1 588 22 view .LVU393
 1019 0002 CC68     		ldr	r4, [r1, #12]
 588:Drivers/lvgl/src/misc/lv_tlsf.c ****     block_header_t * next = block->next_free;
 1020              		.loc 1 588 5 is_stmt 1 view .LVU394
 1021              	.LVL59:
 589:Drivers/lvgl/src/misc/lv_tlsf.c ****     tlsf_assert(prev && "prev_free field can not be null");
 1022              		.loc 1 589 5 view .LVU395
 590:Drivers/lvgl/src/misc/lv_tlsf.c ****     tlsf_assert(next && "next_free field can not be null");
 1023              		.loc 1 590 5 view .LVU396
 590:Drivers/lvgl/src/misc/lv_tlsf.c ****     tlsf_assert(next && "next_free field can not be null");
 1024              		.loc 1 590 5 view .LVU397
 1025 0004 6CB1     		cbz	r4, .L38
 1026 0006 9446     		mov	ip, r2
 589:Drivers/lvgl/src/misc/lv_tlsf.c ****     tlsf_assert(prev && "prev_free field can not be null");
 1027              		.loc 1 589 22 is_stmt 0 view .LVU398
 1028 0008 8A68     		ldr	r2, [r1, #8]
 1029              	.LVL60:
 590:Drivers/lvgl/src/misc/lv_tlsf.c ****     tlsf_assert(next && "next_free field can not be null");
 1030              		.loc 1 590 5 is_stmt 1 discriminator 2 view .LVU399
 591:Drivers/lvgl/src/misc/lv_tlsf.c ****     next->prev_free = prev;
 1031              		.loc 1 591 5 view .LVU400
 591:Drivers/lvgl/src/misc/lv_tlsf.c ****     next->prev_free = prev;
 1032              		.loc 1 591 5 view .LVU401
 1033 000a 5AB1     		cbz	r2, .L40
 591:Drivers/lvgl/src/misc/lv_tlsf.c ****     next->prev_free = prev;
 1034              		.loc 1 591 5 discriminator 2 view .LVU402
 592:Drivers/lvgl/src/misc/lv_tlsf.c ****     prev->next_free = next;
 1035              		.loc 1 592 5 view .LVU403
 592:Drivers/lvgl/src/misc/lv_tlsf.c ****     prev->next_free = next;
 1036              		.loc 1 592 21 is_stmt 0 view .LVU404
ARM GAS  /var/folders/lp/x54gwt890xv47sdkqj1k04q40000gn/T//cceYwpZM.s 			page 40


 1037 000c D460     		str	r4, [r2, #12]
 593:Drivers/lvgl/src/misc/lv_tlsf.c **** 
 1038              		.loc 1 593 5 is_stmt 1 view .LVU405
 593:Drivers/lvgl/src/misc/lv_tlsf.c **** 
 1039              		.loc 1 593 21 is_stmt 0 view .LVU406
 1040 000e A260     		str	r2, [r4, #8]
 1041              	.LVL61:
 596:Drivers/lvgl/src/misc/lv_tlsf.c ****         control->blocks[fl][sl] = next;
 1042              		.loc 1 596 5 is_stmt 1 view .LVU407
 1043 0010 03EB4C14 		add	r4, r3, ip, lsl #5
 1044              	.LVL62:
 596:Drivers/lvgl/src/misc/lv_tlsf.c ****         control->blocks[fl][sl] = next;
 1045              		.loc 1 596 5 is_stmt 0 view .LVU408
 1046 0014 00EB8404 		add	r4, r0, r4, lsl #2
 596:Drivers/lvgl/src/misc/lv_tlsf.c ****         control->blocks[fl][sl] = next;
 1047              		.loc 1 596 7 view .LVU409
 1048 0018 256B     		ldr	r5, [r4, #48]
 1049 001a 8D42     		cmp	r5, r1
 1050 001c 03D0     		beq	.L45
 1051              	.LVL63:
 1052              	.L36:
 609:Drivers/lvgl/src/misc/lv_tlsf.c **** 
 1053              		.loc 1 609 1 view .LVU410
 1054 001e 30BC     		pop	{r4, r5}
 1055              		.cfi_remember_state
 1056              		.cfi_restore 5
 1057              		.cfi_restore 4
 1058              		.cfi_def_cfa_offset 0
 1059 0020 7047     		bx	lr
 1060              	.LVL64:
 1061              	.L38:
 1062              		.cfi_restore_state
 590:Drivers/lvgl/src/misc/lv_tlsf.c ****     tlsf_assert(next && "next_free field can not be null");
 1063              		.loc 1 590 5 is_stmt 1 discriminator 1 view .LVU411
 590:Drivers/lvgl/src/misc/lv_tlsf.c ****     tlsf_assert(next && "next_free field can not be null");
 1064              		.loc 1 590 5 discriminator 1 view .LVU412
 590:Drivers/lvgl/src/misc/lv_tlsf.c ****     tlsf_assert(next && "next_free field can not be null");
 1065              		.loc 1 590 5 discriminator 1 view .LVU413
 590:Drivers/lvgl/src/misc/lv_tlsf.c ****     tlsf_assert(next && "next_free field can not be null");
 1066              		.loc 1 590 5 discriminator 1 view .LVU414
 590:Drivers/lvgl/src/misc/lv_tlsf.c ****     tlsf_assert(next && "next_free field can not be null");
 1067              		.loc 1 590 5 discriminator 1 view .LVU415
 590:Drivers/lvgl/src/misc/lv_tlsf.c ****     tlsf_assert(next && "next_free field can not be null");
 1068              		.loc 1 590 5 discriminator 1 view .LVU416
 590:Drivers/lvgl/src/misc/lv_tlsf.c ****     tlsf_assert(next && "next_free field can not be null");
 1069              		.loc 1 590 5 discriminator 1 view .LVU417
 590:Drivers/lvgl/src/misc/lv_tlsf.c ****     tlsf_assert(next && "next_free field can not be null");
 1070              		.loc 1 590 5 discriminator 1 view .LVU418
 590:Drivers/lvgl/src/misc/lv_tlsf.c ****     tlsf_assert(next && "next_free field can not be null");
 1071              		.loc 1 590 5 discriminator 1 view .LVU419
 590:Drivers/lvgl/src/misc/lv_tlsf.c ****     tlsf_assert(next && "next_free field can not be null");
 1072              		.loc 1 590 5 discriminator 1 view .LVU420
 1073 0022 FEE7     		b	.L38
 1074              	.LVL65:
 1075              	.L40:
 591:Drivers/lvgl/src/misc/lv_tlsf.c ****     next->prev_free = prev;
 1076              		.loc 1 591 5 discriminator 1 view .LVU421
ARM GAS  /var/folders/lp/x54gwt890xv47sdkqj1k04q40000gn/T//cceYwpZM.s 			page 41


 591:Drivers/lvgl/src/misc/lv_tlsf.c ****     next->prev_free = prev;
 1077              		.loc 1 591 5 discriminator 1 view .LVU422
 591:Drivers/lvgl/src/misc/lv_tlsf.c ****     next->prev_free = prev;
 1078              		.loc 1 591 5 discriminator 1 view .LVU423
 591:Drivers/lvgl/src/misc/lv_tlsf.c ****     next->prev_free = prev;
 1079              		.loc 1 591 5 discriminator 1 view .LVU424
 591:Drivers/lvgl/src/misc/lv_tlsf.c ****     next->prev_free = prev;
 1080              		.loc 1 591 5 discriminator 1 view .LVU425
 591:Drivers/lvgl/src/misc/lv_tlsf.c ****     next->prev_free = prev;
 1081              		.loc 1 591 5 discriminator 1 view .LVU426
 591:Drivers/lvgl/src/misc/lv_tlsf.c ****     next->prev_free = prev;
 1082              		.loc 1 591 5 discriminator 1 view .LVU427
 591:Drivers/lvgl/src/misc/lv_tlsf.c ****     next->prev_free = prev;
 1083              		.loc 1 591 5 discriminator 1 view .LVU428
 591:Drivers/lvgl/src/misc/lv_tlsf.c ****     next->prev_free = prev;
 1084              		.loc 1 591 5 discriminator 1 view .LVU429
 591:Drivers/lvgl/src/misc/lv_tlsf.c ****     next->prev_free = prev;
 1085              		.loc 1 591 5 discriminator 1 view .LVU430
 1086 0024 FEE7     		b	.L40
 1087              	.LVL66:
 1088              	.L45:
 597:Drivers/lvgl/src/misc/lv_tlsf.c **** 
 1089              		.loc 1 597 9 view .LVU431
 600:Drivers/lvgl/src/misc/lv_tlsf.c ****             control->sl_bitmap[fl] &= ~(1U << sl);
 1090              		.loc 1 600 11 is_stmt 0 view .LVU432
 1091 0026 9042     		cmp	r0, r2
 597:Drivers/lvgl/src/misc/lv_tlsf.c **** 
 1092              		.loc 1 597 33 view .LVU433
 1093 0028 2263     		str	r2, [r4, #48]
 1094              	.LVL67:
 600:Drivers/lvgl/src/misc/lv_tlsf.c ****             control->sl_bitmap[fl] &= ~(1U << sl);
 1095              		.loc 1 600 9 is_stmt 1 view .LVU434
 600:Drivers/lvgl/src/misc/lv_tlsf.c ****             control->sl_bitmap[fl] &= ~(1U << sl);
 1096              		.loc 1 600 11 is_stmt 0 view .LVU435
 1097 002a F8D1     		bne	.L36
 1098              	.LVL68:
 1099              	.LBB578:
 1100              	.LBI578:
 586:Drivers/lvgl/src/misc/lv_tlsf.c **** {
 1101              		.loc 1 586 13 is_stmt 1 view .LVU436
 1102              	.LBB579:
 601:Drivers/lvgl/src/misc/lv_tlsf.c **** 
 1103              		.loc 1 601 13 view .LVU437
 1104 002c 00EB8C04 		add	r4, r0, ip, lsl #2
 601:Drivers/lvgl/src/misc/lv_tlsf.c **** 
 1105              		.loc 1 601 44 is_stmt 0 view .LVU438
 1106 0030 0122     		movs	r2, #1
 601:Drivers/lvgl/src/misc/lv_tlsf.c **** 
 1107              		.loc 1 601 36 view .LVU439
 1108 0032 6169     		ldr	r1, [r4, #20]
 1109              	.LVL69:
 601:Drivers/lvgl/src/misc/lv_tlsf.c **** 
 1110              		.loc 1 601 44 view .LVU440
 1111 0034 02FA03F3 		lsl	r3, r2, r3
 1112              	.LVL70:
 601:Drivers/lvgl/src/misc/lv_tlsf.c **** 
 1113              		.loc 1 601 36 view .LVU441
ARM GAS  /var/folders/lp/x54gwt890xv47sdkqj1k04q40000gn/T//cceYwpZM.s 			page 42


 1114 0038 21EA0303 		bic	r3, r1, r3
 1115 003c 6361     		str	r3, [r4, #20]
 604:Drivers/lvgl/src/misc/lv_tlsf.c ****                 control->fl_bitmap &= ~(1U << fl);
 1116              		.loc 1 604 13 is_stmt 1 view .LVU442
 604:Drivers/lvgl/src/misc/lv_tlsf.c ****                 control->fl_bitmap &= ~(1U << fl);
 1117              		.loc 1 604 15 is_stmt 0 view .LVU443
 1118 003e 002B     		cmp	r3, #0
 1119 0040 EDD1     		bne	.L36
 605:Drivers/lvgl/src/misc/lv_tlsf.c ****             }
 1120              		.loc 1 605 17 is_stmt 1 view .LVU444
 605:Drivers/lvgl/src/misc/lv_tlsf.c ****             }
 1121              		.loc 1 605 36 is_stmt 0 view .LVU445
 1122 0042 0369     		ldr	r3, [r0, #16]
 605:Drivers/lvgl/src/misc/lv_tlsf.c ****             }
 1123              		.loc 1 605 44 view .LVU446
 1124 0044 02FA0CF2 		lsl	r2, r2, ip
 605:Drivers/lvgl/src/misc/lv_tlsf.c ****             }
 1125              		.loc 1 605 36 view .LVU447
 1126 0048 23EA0203 		bic	r3, r3, r2
 1127 004c 0361     		str	r3, [r0, #16]
 1128              	.LVL71:
 605:Drivers/lvgl/src/misc/lv_tlsf.c ****             }
 1129              		.loc 1 605 36 view .LVU448
 1130              	.LBE579:
 1131              	.LBE578:
 609:Drivers/lvgl/src/misc/lv_tlsf.c **** 
 1132              		.loc 1 609 1 view .LVU449
 1133 004e E6E7     		b	.L36
 1134              		.cfi_endproc
 1135              	.LFE27:
 1137              		.section	.text.block_locate_free,"ax",%progbits
 1138              		.align	1
 1139              		.p2align 2,,3
 1140              		.syntax unified
 1141              		.thumb
 1142              		.thumb_func
 1144              	block_locate_free:
 1145              	.LVL72:
 1146              	.LFB39:
 756:Drivers/lvgl/src/misc/lv_tlsf.c ****     int fl = 0, sl = 0;
 1147              		.loc 1 756 1 is_stmt 1 view -0
 1148              		.cfi_startproc
 1149              		@ args = 0, pretend = 0, frame = 0
 1150              		@ frame_needed = 0, uses_anonymous_args = 0
 757:Drivers/lvgl/src/misc/lv_tlsf.c ****     block_header_t * block = 0;
 1151              		.loc 1 757 5 view .LVU451
 758:Drivers/lvgl/src/misc/lv_tlsf.c **** 
 1152              		.loc 1 758 5 view .LVU452
 760:Drivers/lvgl/src/misc/lv_tlsf.c ****         mapping_search(size, &fl, &sl);
 1153              		.loc 1 760 5 view .LVU453
 756:Drivers/lvgl/src/misc/lv_tlsf.c ****     int fl = 0, sl = 0;
 1154              		.loc 1 756 1 is_stmt 0 view .LVU454
 1155 0000 38B5     		push	{r3, r4, r5, lr}
 1156              		.cfi_def_cfa_offset 16
 1157              		.cfi_offset 3, -16
 1158              		.cfi_offset 4, -12
 1159              		.cfi_offset 5, -8
ARM GAS  /var/folders/lp/x54gwt890xv47sdkqj1k04q40000gn/T//cceYwpZM.s 			page 43


 1160              		.cfi_offset 14, -4
 760:Drivers/lvgl/src/misc/lv_tlsf.c ****         mapping_search(size, &fl, &sl);
 1161              		.loc 1 760 7 view .LVU455
 1162 0002 0029     		cmp	r1, #0
 1163 0004 3AD0     		beq	.L57
 761:Drivers/lvgl/src/misc/lv_tlsf.c **** 
 1164              		.loc 1 761 9 is_stmt 1 view .LVU456
 1165              	.LVL73:
 1166              	.LBB598:
 1167              	.LBI598:
 546:Drivers/lvgl/src/misc/lv_tlsf.c **** {
 1168              		.loc 1 546 13 view .LVU457
 1169              	.LBB599:
 548:Drivers/lvgl/src/misc/lv_tlsf.c ****         const size_t round = (1 << (tlsf_fls_sizet(size) - SL_INDEX_COUNT_LOG2)) - 1;
 1170              		.loc 1 548 5 view .LVU458
 548:Drivers/lvgl/src/misc/lv_tlsf.c ****         const size_t round = (1 << (tlsf_fls_sizet(size) - SL_INDEX_COUNT_LOG2)) - 1;
 1171              		.loc 1 548 7 is_stmt 0 view .LVU459
 1172 0006 7F29     		cmp	r1, #127
 1173 0008 28D8     		bhi	.L63
 1174 000a 0B46     		mov	r3, r1
 1175              	.LVL74:
 1176              	.L48:
 1177              	.LBB600:
 1178              	.LBB601:
 533:Drivers/lvgl/src/misc/lv_tlsf.c ****         sl = tlsf_cast(int, size) / (SMALL_BLOCK_SIZE / SL_INDEX_COUNT);
 1179              		.loc 1 533 9 is_stmt 1 view .LVU460
 534:Drivers/lvgl/src/misc/lv_tlsf.c ****     }
 1180              		.loc 1 534 9 view .LVU461
 534:Drivers/lvgl/src/misc/lv_tlsf.c ****     }
 1181              		.loc 1 534 12 is_stmt 0 view .LVU462
 1182 000c 9B10     		asrs	r3, r3, #2
 1183              	.LVL75:
 541:Drivers/lvgl/src/misc/lv_tlsf.c ****     *sli = sl;
 1184              		.loc 1 541 5 is_stmt 1 view .LVU463
 542:Drivers/lvgl/src/misc/lv_tlsf.c **** }
 1185              		.loc 1 542 5 view .LVU464
 542:Drivers/lvgl/src/misc/lv_tlsf.c **** }
 1186              		.loc 1 542 5 is_stmt 0 view .LVU465
 1187              	.LBE601:
 1188              	.LBE600:
 1189              	.LBE599:
 1190              	.LBE598:
 769:Drivers/lvgl/src/misc/lv_tlsf.c ****             block = search_suitable_block(control, &fl, &sl);
 1191              		.loc 1 769 9 is_stmt 1 view .LVU466
 1192              	.LBB616:
 1193              	.LBB613:
 1194              	.LBB607:
 1195              	.LBB604:
 533:Drivers/lvgl/src/misc/lv_tlsf.c ****         sl = tlsf_cast(int, size) / (SMALL_BLOCK_SIZE / SL_INDEX_COUNT);
 1196              		.loc 1 533 12 is_stmt 0 view .LVU467
 1197 000e 0022     		movs	r2, #0
 1198              	.LVL76:
 1199              	.L50:
 533:Drivers/lvgl/src/misc/lv_tlsf.c ****         sl = tlsf_cast(int, size) / (SMALL_BLOCK_SIZE / SL_INDEX_COUNT);
 1200              		.loc 1 533 12 view .LVU468
 1201              	.LBE604:
 1202              	.LBE607:
ARM GAS  /var/folders/lp/x54gwt890xv47sdkqj1k04q40000gn/T//cceYwpZM.s 			page 44


 1203              	.LBE613:
 1204              	.LBE616:
 770:Drivers/lvgl/src/misc/lv_tlsf.c ****         }
 1205              		.loc 1 770 13 is_stmt 1 view .LVU469
 1206              	.LBB617:
 1207              	.LBI617:
 555:Drivers/lvgl/src/misc/lv_tlsf.c **** {
 1208              		.loc 1 555 25 view .LVU470
 1209              	.LBB618:
 557:Drivers/lvgl/src/misc/lv_tlsf.c ****     int sl = *sli;
 1210              		.loc 1 557 5 view .LVU471
 558:Drivers/lvgl/src/misc/lv_tlsf.c **** 
 1211              		.loc 1 558 5 view .LVU472
 564:Drivers/lvgl/src/misc/lv_tlsf.c ****     if(!sl_map) {
 1212              		.loc 1 564 5 view .LVU473
 564:Drivers/lvgl/src/misc/lv_tlsf.c ****     if(!sl_map) {
 1213              		.loc 1 564 45 is_stmt 0 view .LVU474
 1214 0010 00EB8204 		add	r4, r0, r2, lsl #2
 564:Drivers/lvgl/src/misc/lv_tlsf.c ****     if(!sl_map) {
 1215              		.loc 1 564 18 view .LVU475
 1216 0014 6569     		ldr	r5, [r4, #20]
 564:Drivers/lvgl/src/misc/lv_tlsf.c ****     if(!sl_map) {
 1217              		.loc 1 564 57 view .LVU476
 1218 0016 4FF0FF34 		mov	r4, #-1
 1219 001a 04FA03F3 		lsl	r3, r4, r3
 1220              	.LVL77:
 565:Drivers/lvgl/src/misc/lv_tlsf.c ****         /* No block exists. Search in the next largest first-level list. */
 1221              		.loc 1 565 5 is_stmt 1 view .LVU477
 565:Drivers/lvgl/src/misc/lv_tlsf.c ****         /* No block exists. Search in the next largest first-level list. */
 1222              		.loc 1 565 7 is_stmt 0 view .LVU478
 1223 001e 2B40     		ands	r3, r3, r5
 1224              	.LVL78:
 565:Drivers/lvgl/src/misc/lv_tlsf.c ****         /* No block exists. Search in the next largest first-level list. */
 1225              		.loc 1 565 7 view .LVU479
 1226 0020 0CD1     		bne	.L51
 1227              	.LBB619:
 567:Drivers/lvgl/src/misc/lv_tlsf.c ****         if(!fl_map) {
 1228              		.loc 1 567 9 is_stmt 1 view .LVU480
 567:Drivers/lvgl/src/misc/lv_tlsf.c ****         if(!fl_map) {
 1229              		.loc 1 567 28 is_stmt 0 view .LVU481
 1230 0022 0369     		ldr	r3, [r0, #16]
 1231              	.LVL79:
 567:Drivers/lvgl/src/misc/lv_tlsf.c ****         if(!fl_map) {
 1232              		.loc 1 567 70 view .LVU482
 1233 0024 0132     		adds	r2, r2, #1
 1234              	.LVL80:
 567:Drivers/lvgl/src/misc/lv_tlsf.c ****         if(!fl_map) {
 1235              		.loc 1 567 63 view .LVU483
 1236 0026 9440     		lsls	r4, r4, r2
 1237              	.LVL81:
 568:Drivers/lvgl/src/misc/lv_tlsf.c ****             /* No free blocks available, memory has been exhausted. */
 1238              		.loc 1 568 9 is_stmt 1 view .LVU484
 568:Drivers/lvgl/src/misc/lv_tlsf.c ****             /* No free blocks available, memory has been exhausted. */
 1239              		.loc 1 568 11 is_stmt 0 view .LVU485
 1240 0028 1C40     		ands	r4, r4, r3
 1241              	.LVL82:
 568:Drivers/lvgl/src/misc/lv_tlsf.c ****             /* No free blocks available, memory has been exhausted. */
ARM GAS  /var/folders/lp/x54gwt890xv47sdkqj1k04q40000gn/T//cceYwpZM.s 			page 45


 1242              		.loc 1 568 11 view .LVU486
 1243 002a 28D0     		beq	.L46
 573:Drivers/lvgl/src/misc/lv_tlsf.c ****         *fli = fl;
 1244              		.loc 1 573 9 is_stmt 1 view .LVU487
 1245              	.LVL83:
 1246              	.LBB620:
 1247              	.LBI620:
  94:Drivers/lvgl/src/misc/lv_tlsf.c **** {
 1248              		.loc 1 94 15 view .LVU488
 1249              	.LBB621:
  96:Drivers/lvgl/src/misc/lv_tlsf.c **** }
 1250              		.loc 1 96 5 view .LVU489
  96:Drivers/lvgl/src/misc/lv_tlsf.c **** }
 1251              		.loc 1 96 12 is_stmt 0 view .LVU490
 1252 002c 94FAA4F2 		rbit	r2, r4
 1253              	.LVL84:
  96:Drivers/lvgl/src/misc/lv_tlsf.c **** }
 1254              		.loc 1 96 12 view .LVU491
 1255 0030 B2FA82F2 		clz	r2, r2
 1256              	.LVL85:
  96:Drivers/lvgl/src/misc/lv_tlsf.c **** }
 1257              		.loc 1 96 12 view .LVU492
 1258              	.LBE621:
 1259              	.LBE620:
 574:Drivers/lvgl/src/misc/lv_tlsf.c ****         sl_map = control->sl_bitmap[fl];
 1260              		.loc 1 574 9 is_stmt 1 view .LVU493
 575:Drivers/lvgl/src/misc/lv_tlsf.c ****     }
 1261              		.loc 1 575 9 view .LVU494
 575:Drivers/lvgl/src/misc/lv_tlsf.c ****     }
 1262              		.loc 1 575 16 is_stmt 0 view .LVU495
 1263 0034 00EB8203 		add	r3, r0, r2, lsl #2
 1264 0038 5B69     		ldr	r3, [r3, #20]
 1265              	.LVL86:
 575:Drivers/lvgl/src/misc/lv_tlsf.c ****     }
 1266              		.loc 1 575 16 view .LVU496
 1267              	.LBE619:
 577:Drivers/lvgl/src/misc/lv_tlsf.c ****     sl = tlsf_ffs(sl_map);
 1268              		.loc 1 577 5 is_stmt 1 view .LVU497
 577:Drivers/lvgl/src/misc/lv_tlsf.c ****     sl = tlsf_ffs(sl_map);
 1269              		.loc 1 577 5 view .LVU498
 1270 003a 13B3     		cbz	r3, .L52
 1271              	.LVL87:
 1272              	.L51:
 577:Drivers/lvgl/src/misc/lv_tlsf.c ****     sl = tlsf_ffs(sl_map);
 1273              		.loc 1 577 5 discriminator 2 view .LVU499
 578:Drivers/lvgl/src/misc/lv_tlsf.c ****     *sli = sl;
 1274              		.loc 1 578 5 view .LVU500
 1275              	.LBB622:
 1276              	.LBI622:
  94:Drivers/lvgl/src/misc/lv_tlsf.c **** {
 1277              		.loc 1 94 15 view .LVU501
 1278              	.LBB623:
  96:Drivers/lvgl/src/misc/lv_tlsf.c **** }
 1279              		.loc 1 96 5 view .LVU502
  96:Drivers/lvgl/src/misc/lv_tlsf.c **** }
 1280              		.loc 1 96 12 is_stmt 0 view .LVU503
 1281 003c 93FAA3F3 		rbit	r3, r3
ARM GAS  /var/folders/lp/x54gwt890xv47sdkqj1k04q40000gn/T//cceYwpZM.s 			page 46


 1282              	.LVL88:
  96:Drivers/lvgl/src/misc/lv_tlsf.c **** }
 1283              		.loc 1 96 12 view .LVU504
 1284 0040 B3FA83F3 		clz	r3, r3
 1285              	.LVL89:
  96:Drivers/lvgl/src/misc/lv_tlsf.c **** }
 1286              		.loc 1 96 12 view .LVU505
 1287              	.LBE623:
 1288              	.LBE622:
 579:Drivers/lvgl/src/misc/lv_tlsf.c **** 
 1289              		.loc 1 579 5 is_stmt 1 view .LVU506
 582:Drivers/lvgl/src/misc/lv_tlsf.c **** }
 1290              		.loc 1 582 5 view .LVU507
 582:Drivers/lvgl/src/misc/lv_tlsf.c **** }
 1291              		.loc 1 582 31 is_stmt 0 view .LVU508
 1292 0044 03EB4214 		add	r4, r3, r2, lsl #5
 1293 0048 0C34     		adds	r4, r4, #12
 1294 004a 50F82440 		ldr	r4, [r0, r4, lsl #2]
 1295              	.LVL90:
 582:Drivers/lvgl/src/misc/lv_tlsf.c **** }
 1296              		.loc 1 582 31 view .LVU509
 1297              	.LBE618:
 1298              	.LBE617:
 774:Drivers/lvgl/src/misc/lv_tlsf.c ****         tlsf_assert(block_size(block) >= size);
 1299              		.loc 1 774 5 is_stmt 1 view .LVU510
 774:Drivers/lvgl/src/misc/lv_tlsf.c ****         tlsf_assert(block_size(block) >= size);
 1300              		.loc 1 774 7 is_stmt 0 view .LVU511
 1301 004e B4B1     		cbz	r4, .L46
 775:Drivers/lvgl/src/misc/lv_tlsf.c ****         remove_free_block(control, block, fl, sl);
 1302              		.loc 1 775 9 is_stmt 1 view .LVU512
 775:Drivers/lvgl/src/misc/lv_tlsf.c ****         remove_free_block(control, block, fl, sl);
 1303              		.loc 1 775 9 view .LVU513
 1304              	.LVL91:
 1305              	.LBB625:
 1306              	.LBI625:
 382:Drivers/lvgl/src/misc/lv_tlsf.c **** {
 1307              		.loc 1 382 15 view .LVU514
 1308              	.LBB626:
 384:Drivers/lvgl/src/misc/lv_tlsf.c **** }
 1309              		.loc 1 384 5 view .LVU515
 384:Drivers/lvgl/src/misc/lv_tlsf.c **** }
 1310              		.loc 1 384 24 is_stmt 0 view .LVU516
 1311 0050 6568     		ldr	r5, [r4, #4]
 1312 0052 25F00305 		bic	r5, r5, #3
 1313              	.LBE626:
 1314              	.LBE625:
 775:Drivers/lvgl/src/misc/lv_tlsf.c ****         remove_free_block(control, block, fl, sl);
 1315              		.loc 1 775 9 discriminator 1 view .LVU517
 1316 0056 A942     		cmp	r1, r5
 1317 0058 14D9     		bls	.L53
 1318              	.L54:
 775:Drivers/lvgl/src/misc/lv_tlsf.c ****         remove_free_block(control, block, fl, sl);
 1319              		.loc 1 775 9 is_stmt 1 discriminator 1 view .LVU518
 775:Drivers/lvgl/src/misc/lv_tlsf.c ****         remove_free_block(control, block, fl, sl);
 1320              		.loc 1 775 9 discriminator 1 view .LVU519
 775:Drivers/lvgl/src/misc/lv_tlsf.c ****         remove_free_block(control, block, fl, sl);
 1321              		.loc 1 775 9 discriminator 1 view .LVU520
ARM GAS  /var/folders/lp/x54gwt890xv47sdkqj1k04q40000gn/T//cceYwpZM.s 			page 47


 775:Drivers/lvgl/src/misc/lv_tlsf.c ****         remove_free_block(control, block, fl, sl);
 1322              		.loc 1 775 9 discriminator 1 view .LVU521
 775:Drivers/lvgl/src/misc/lv_tlsf.c ****         remove_free_block(control, block, fl, sl);
 1323              		.loc 1 775 9 discriminator 1 view .LVU522
 775:Drivers/lvgl/src/misc/lv_tlsf.c ****         remove_free_block(control, block, fl, sl);
 1324              		.loc 1 775 9 discriminator 1 view .LVU523
 775:Drivers/lvgl/src/misc/lv_tlsf.c ****         remove_free_block(control, block, fl, sl);
 1325              		.loc 1 775 9 discriminator 1 view .LVU524
 775:Drivers/lvgl/src/misc/lv_tlsf.c ****         remove_free_block(control, block, fl, sl);
 1326              		.loc 1 775 9 discriminator 1 view .LVU525
 775:Drivers/lvgl/src/misc/lv_tlsf.c ****         remove_free_block(control, block, fl, sl);
 1327              		.loc 1 775 9 discriminator 1 view .LVU526
 775:Drivers/lvgl/src/misc/lv_tlsf.c ****         remove_free_block(control, block, fl, sl);
 1328              		.loc 1 775 9 discriminator 1 view .LVU527
 1329 005a FEE7     		b	.L54
 1330              	.LVL92:
 1331              	.L63:
 1332              	.LBB627:
 1333              	.LBB614:
 1334              	.LBB608:
 549:Drivers/lvgl/src/misc/lv_tlsf.c ****         size += round;
 1335              		.loc 1 549 9 view .LVU528
 1336              	.LBB609:
 1337              	.LBI609:
 101:Drivers/lvgl/src/misc/lv_tlsf.c **** {
 1338              		.loc 1 101 15 view .LVU529
 1339              	.LBB610:
 103:Drivers/lvgl/src/misc/lv_tlsf.c ****     return bit - 1;
 1340              		.loc 1 103 5 view .LVU530
 103:Drivers/lvgl/src/misc/lv_tlsf.c ****     return bit - 1;
 1341              		.loc 1 103 33 is_stmt 0 discriminator 1 view .LVU531
 1342 005c B1FA81F2 		clz	r2, r1
 1343              	.LVL93:
 104:Drivers/lvgl/src/misc/lv_tlsf.c **** }
 1344              		.loc 1 104 5 is_stmt 1 view .LVU532
 104:Drivers/lvgl/src/misc/lv_tlsf.c **** }
 1345              		.loc 1 104 5 is_stmt 0 view .LVU533
 1346              	.LBE610:
 1347              	.LBE609:
 550:Drivers/lvgl/src/misc/lv_tlsf.c ****     }
 1348              		.loc 1 550 9 is_stmt 1 view .LVU534
 549:Drivers/lvgl/src/misc/lv_tlsf.c ****         size += round;
 1349              		.loc 1 549 58 is_stmt 0 discriminator 1 view .LVU535
 1350 0060 C2F11A02 		rsb	r2, r2, #26
 1351              	.LVL94:
 549:Drivers/lvgl/src/misc/lv_tlsf.c ****         size += round;
 1352              		.loc 1 549 33 discriminator 1 view .LVU536
 1353 0064 0123     		movs	r3, #1
 1354 0066 9340     		lsls	r3, r3, r2
 549:Drivers/lvgl/src/misc/lv_tlsf.c ****         size += round;
 1355              		.loc 1 549 82 discriminator 1 view .LVU537
 1356 0068 013B     		subs	r3, r3, #1
 1357              	.LVL95:
 550:Drivers/lvgl/src/misc/lv_tlsf.c ****     }
 1358              		.loc 1 550 14 view .LVU538
 1359 006a 0B44     		add	r3, r3, r1
 1360              	.LVL96:
ARM GAS  /var/folders/lp/x54gwt890xv47sdkqj1k04q40000gn/T//cceYwpZM.s 			page 48


 550:Drivers/lvgl/src/misc/lv_tlsf.c ****     }
 1361              		.loc 1 550 14 view .LVU539
 1362              	.LBE608:
 552:Drivers/lvgl/src/misc/lv_tlsf.c **** }
 1363              		.loc 1 552 5 is_stmt 1 view .LVU540
 1364              	.LBB611:
 1365              	.LBI600:
 528:Drivers/lvgl/src/misc/lv_tlsf.c **** {
 1366              		.loc 1 528 13 view .LVU541
 1367              	.LBB605:
 530:Drivers/lvgl/src/misc/lv_tlsf.c ****     if(size < SMALL_BLOCK_SIZE) {
 1368              		.loc 1 530 5 view .LVU542
 531:Drivers/lvgl/src/misc/lv_tlsf.c ****         /* Store small blocks in first list. */
 1369              		.loc 1 531 5 view .LVU543
 531:Drivers/lvgl/src/misc/lv_tlsf.c ****         /* Store small blocks in first list. */
 1370              		.loc 1 531 7 is_stmt 0 view .LVU544
 1371 006c 7F2B     		cmp	r3, #127
 1372 006e CDD9     		bls	.L48
 537:Drivers/lvgl/src/misc/lv_tlsf.c ****         sl = tlsf_cast(int, size >> (fl - SL_INDEX_COUNT_LOG2)) ^ (1 << SL_INDEX_COUNT_LOG2);
 1373              		.loc 1 537 9 is_stmt 1 view .LVU545
 1374              	.LVL97:
 1375              	.LBB602:
 1376              	.LBI602:
 101:Drivers/lvgl/src/misc/lv_tlsf.c **** {
 1377              		.loc 1 101 15 view .LVU546
 1378              	.LBB603:
 103:Drivers/lvgl/src/misc/lv_tlsf.c ****     return bit - 1;
 1379              		.loc 1 103 5 view .LVU547
 103:Drivers/lvgl/src/misc/lv_tlsf.c ****     return bit - 1;
 1380              		.loc 1 103 33 is_stmt 0 discriminator 1 view .LVU548
 1381 0070 B3FA83F4 		clz	r4, r3
 1382              	.LVL98:
 104:Drivers/lvgl/src/misc/lv_tlsf.c **** }
 1383              		.loc 1 104 5 is_stmt 1 view .LVU549
 104:Drivers/lvgl/src/misc/lv_tlsf.c **** }
 1384              		.loc 1 104 5 is_stmt 0 view .LVU550
 1385              	.LBE603:
 1386              	.LBE602:
 538:Drivers/lvgl/src/misc/lv_tlsf.c ****         fl -= (FL_INDEX_SHIFT - 1);
 1387              		.loc 1 538 9 is_stmt 1 view .LVU551
 539:Drivers/lvgl/src/misc/lv_tlsf.c ****     }
 1388              		.loc 1 539 9 view .LVU552
 539:Drivers/lvgl/src/misc/lv_tlsf.c ****     }
 1389              		.loc 1 539 12 is_stmt 0 view .LVU553
 1390 0074 C4F11902 		rsb	r2, r4, #25
 1391              	.LVL99:
 541:Drivers/lvgl/src/misc/lv_tlsf.c ****     *sli = sl;
 1392              		.loc 1 541 5 is_stmt 1 view .LVU554
 542:Drivers/lvgl/src/misc/lv_tlsf.c **** }
 1393              		.loc 1 542 5 view .LVU555
 542:Drivers/lvgl/src/misc/lv_tlsf.c **** }
 1394              		.loc 1 542 5 is_stmt 0 view .LVU556
 1395              	.LBE605:
 1396              	.LBE611:
 1397              	.LBE614:
 1398              	.LBE627:
 769:Drivers/lvgl/src/misc/lv_tlsf.c ****             block = search_suitable_block(control, &fl, &sl);
ARM GAS  /var/folders/lp/x54gwt890xv47sdkqj1k04q40000gn/T//cceYwpZM.s 			page 49


 1399              		.loc 1 769 9 is_stmt 1 view .LVU557
 769:Drivers/lvgl/src/misc/lv_tlsf.c ****             block = search_suitable_block(control, &fl, &sl);
 1400              		.loc 1 769 11 is_stmt 0 view .LVU558
 1401 0078 062A     		cmp	r2, #6
 1402 007a 07DD     		ble	.L64
 1403              	.LVL100:
 1404              	.L57:
 769:Drivers/lvgl/src/misc/lv_tlsf.c ****             block = search_suitable_block(control, &fl, &sl);
 1405              		.loc 1 769 11 view .LVU559
 1406 007c 0024     		movs	r4, #0
 1407              	.LVL101:
 1408              	.L46:
 780:Drivers/lvgl/src/misc/lv_tlsf.c **** 
 1409              		.loc 1 780 1 view .LVU560
 1410 007e 2046     		mov	r0, r4
 1411              	.LVL102:
 780:Drivers/lvgl/src/misc/lv_tlsf.c **** 
 1412              		.loc 1 780 1 view .LVU561
 1413 0080 38BD     		pop	{r3, r4, r5, pc}
 1414              	.LVL103:
 1415              	.L52:
 1416              	.LBB628:
 1417              	.LBB624:
 577:Drivers/lvgl/src/misc/lv_tlsf.c ****     sl = tlsf_ffs(sl_map);
 1418              		.loc 1 577 5 is_stmt 1 discriminator 1 view .LVU562
 577:Drivers/lvgl/src/misc/lv_tlsf.c ****     sl = tlsf_ffs(sl_map);
 1419              		.loc 1 577 5 discriminator 1 view .LVU563
 577:Drivers/lvgl/src/misc/lv_tlsf.c ****     sl = tlsf_ffs(sl_map);
 1420              		.loc 1 577 5 discriminator 1 view .LVU564
 577:Drivers/lvgl/src/misc/lv_tlsf.c ****     sl = tlsf_ffs(sl_map);
 1421              		.loc 1 577 5 discriminator 1 view .LVU565
 577:Drivers/lvgl/src/misc/lv_tlsf.c ****     sl = tlsf_ffs(sl_map);
 1422              		.loc 1 577 5 discriminator 1 view .LVU566
 577:Drivers/lvgl/src/misc/lv_tlsf.c ****     sl = tlsf_ffs(sl_map);
 1423              		.loc 1 577 5 discriminator 1 view .LVU567
 577:Drivers/lvgl/src/misc/lv_tlsf.c ****     sl = tlsf_ffs(sl_map);
 1424              		.loc 1 577 5 discriminator 1 view .LVU568
 577:Drivers/lvgl/src/misc/lv_tlsf.c ****     sl = tlsf_ffs(sl_map);
 1425              		.loc 1 577 5 discriminator 1 view .LVU569
 577:Drivers/lvgl/src/misc/lv_tlsf.c ****     sl = tlsf_ffs(sl_map);
 1426              		.loc 1 577 5 discriminator 1 view .LVU570
 577:Drivers/lvgl/src/misc/lv_tlsf.c ****     sl = tlsf_ffs(sl_map);
 1427              		.loc 1 577 5 discriminator 1 view .LVU571
 1428 0082 FEE7     		b	.L52
 1429              	.LVL104:
 1430              	.L53:
 577:Drivers/lvgl/src/misc/lv_tlsf.c ****     sl = tlsf_ffs(sl_map);
 1431              		.loc 1 577 5 is_stmt 0 discriminator 1 view .LVU572
 1432              	.LBE624:
 1433              	.LBE628:
 775:Drivers/lvgl/src/misc/lv_tlsf.c ****         remove_free_block(control, block, fl, sl);
 1434              		.loc 1 775 9 is_stmt 1 discriminator 2 view .LVU573
 776:Drivers/lvgl/src/misc/lv_tlsf.c ****     }
 1435              		.loc 1 776 9 view .LVU574
 1436 0084 2146     		mov	r1, r4
 1437              	.LVL105:
 776:Drivers/lvgl/src/misc/lv_tlsf.c ****     }
ARM GAS  /var/folders/lp/x54gwt890xv47sdkqj1k04q40000gn/T//cceYwpZM.s 			page 50


 1438              		.loc 1 776 9 is_stmt 0 view .LVU575
 1439 0086 FFF7FEFF 		bl	remove_free_block
 1440              	.LVL106:
 776:Drivers/lvgl/src/misc/lv_tlsf.c ****     }
 1441              		.loc 1 776 9 view .LVU576
 1442 008a F8E7     		b	.L46
 1443              	.LVL107:
 1444              	.L64:
 1445              	.LBB629:
 1446              	.LBB615:
 1447              	.LBB612:
 1448              	.LBB606:
 538:Drivers/lvgl/src/misc/lv_tlsf.c ****         fl -= (FL_INDEX_SHIFT - 1);
 1449              		.loc 1 538 14 view .LVU577
 1450 008c C4F11A04 		rsb	r4, r4, #26
 1451              	.LVL108:
 538:Drivers/lvgl/src/misc/lv_tlsf.c ****         fl -= (FL_INDEX_SHIFT - 1);
 1452              		.loc 1 538 14 view .LVU578
 1453 0090 E340     		lsrs	r3, r3, r4
 1454              	.LVL109:
 538:Drivers/lvgl/src/misc/lv_tlsf.c ****         fl -= (FL_INDEX_SHIFT - 1);
 1455              		.loc 1 538 12 view .LVU579
 1456 0092 83F02003 		eor	r3, r3, #32
 1457 0096 BBE7     		b	.L50
 1458              	.LBE606:
 1459              	.LBE612:
 1460              	.LBE615:
 1461              	.LBE629:
 1462              		.cfi_endproc
 1463              	.LFE39:
 1465              		.section	.text.block_merge_next,"ax",%progbits
 1466              		.align	1
 1467              		.p2align 2,,3
 1468              		.syntax unified
 1469              		.thumb
 1470              		.thumb_func
 1472              	block_merge_next:
 1473              	.LVL110:
 1474              	.LFB35:
 701:Drivers/lvgl/src/misc/lv_tlsf.c ****     block_header_t * next = block_next(block);
 1475              		.loc 1 701 1 is_stmt 1 view -0
 1476              		.cfi_startproc
 1477              		@ args = 0, pretend = 0, frame = 0
 1478              		@ frame_needed = 0, uses_anonymous_args = 0
 702:Drivers/lvgl/src/misc/lv_tlsf.c ****     tlsf_assert(next && "next physical block can't be null");
 1479              		.loc 1 702 5 view .LVU581
 1480              	.LBB665:
 1481              	.LBI665:
 454:Drivers/lvgl/src/misc/lv_tlsf.c **** {
 1482              		.loc 1 454 25 view .LVU582
 1483              	.LBB666:
 456:Drivers/lvgl/src/misc/lv_tlsf.c ****                                             block_size(block) - block_header_overhead);
 1484              		.loc 1 456 5 view .LVU583
 1485              	.LBB667:
 1486              	.LBI667:
 434:Drivers/lvgl/src/misc/lv_tlsf.c **** {
 1487              		.loc 1 434 15 view .LVU584
ARM GAS  /var/folders/lp/x54gwt890xv47sdkqj1k04q40000gn/T//cceYwpZM.s 			page 51


 1488              	.LBB668:
 436:Drivers/lvgl/src/misc/lv_tlsf.c ****                      tlsf_cast(unsigned char *, block) + block_start_offset);
 1489              		.loc 1 436 5 view .LVU585
 436:Drivers/lvgl/src/misc/lv_tlsf.c ****                      tlsf_cast(unsigned char *, block) + block_start_offset);
 1490              		.loc 1 436 5 is_stmt 0 view .LVU586
 1491              	.LBE668:
 1492              	.LBE667:
 1493              	.LBB670:
 1494              	.LBI670:
 382:Drivers/lvgl/src/misc/lv_tlsf.c **** {
 1495              		.loc 1 382 15 is_stmt 1 view .LVU587
 1496              	.LBB671:
 384:Drivers/lvgl/src/misc/lv_tlsf.c **** }
 1497              		.loc 1 384 5 view .LVU588
 384:Drivers/lvgl/src/misc/lv_tlsf.c **** }
 1498              		.loc 1 384 17 is_stmt 0 view .LVU589
 1499 0000 4B68     		ldr	r3, [r1, #4]
 1500              	.LVL111:
 384:Drivers/lvgl/src/misc/lv_tlsf.c **** }
 1501              		.loc 1 384 17 view .LVU590
 1502              	.LBE671:
 1503              	.LBE670:
 1504              	.LBB673:
 1505              	.LBI673:
 441:Drivers/lvgl/src/misc/lv_tlsf.c **** {
 1506              		.loc 1 441 25 is_stmt 1 view .LVU591
 1507              	.LBB674:
 443:Drivers/lvgl/src/misc/lv_tlsf.c **** }
 1508              		.loc 1 443 5 view .LVU592
 443:Drivers/lvgl/src/misc/lv_tlsf.c **** }
 1509              		.loc 1 443 5 is_stmt 0 view .LVU593
 1510              	.LBE674:
 1511              	.LBE673:
 458:Drivers/lvgl/src/misc/lv_tlsf.c ****     return next;
 1512              		.loc 1 458 5 is_stmt 1 view .LVU594
 458:Drivers/lvgl/src/misc/lv_tlsf.c ****     return next;
 1513              		.loc 1 458 5 view .LVU595
 458:Drivers/lvgl/src/misc/lv_tlsf.c ****     return next;
 1514              		.loc 1 458 5 is_stmt 0 discriminator 1 view .LVU596
 1515 0002 032B     		cmp	r3, #3
 1516 0004 09D9     		bls	.L67
 458:Drivers/lvgl/src/misc/lv_tlsf.c ****     return next;
 1517              		.loc 1 458 5 is_stmt 1 discriminator 2 view .LVU597
 459:Drivers/lvgl/src/misc/lv_tlsf.c **** }
 1518              		.loc 1 459 5 view .LVU598
 1519              	.LVL112:
 459:Drivers/lvgl/src/misc/lv_tlsf.c **** }
 1520              		.loc 1 459 5 is_stmt 0 view .LVU599
 1521              	.LBE666:
 1522              	.LBE665:
 703:Drivers/lvgl/src/misc/lv_tlsf.c **** 
 1523              		.loc 1 703 5 is_stmt 1 view .LVU600
 703:Drivers/lvgl/src/misc/lv_tlsf.c **** 
 1524              		.loc 1 703 5 view .LVU601
 701:Drivers/lvgl/src/misc/lv_tlsf.c ****     block_header_t * next = block_next(block);
 1525              		.loc 1 701 1 is_stmt 0 view .LVU602
 1526 0006 70B5     		push	{r4, r5, r6, lr}
ARM GAS  /var/folders/lp/x54gwt890xv47sdkqj1k04q40000gn/T//cceYwpZM.s 			page 52


 1527              		.cfi_def_cfa_offset 16
 1528              		.cfi_offset 4, -16
 1529              		.cfi_offset 5, -12
 1530              		.cfi_offset 6, -8
 1531              		.cfi_offset 14, -4
 1532              	.LBB681:
 1533              	.LBB679:
 1534              	.LBB676:
 1535              	.LBB672:
 384:Drivers/lvgl/src/misc/lv_tlsf.c **** }
 1536              		.loc 1 384 24 view .LVU603
 1537 0008 23F00303 		bic	r3, r3, #3
 1538              	.LVL113:
 384:Drivers/lvgl/src/misc/lv_tlsf.c **** }
 1539              		.loc 1 384 24 view .LVU604
 1540              	.LBE672:
 1541              	.LBE676:
 1542              	.LBB677:
 1543              	.LBB669:
 436:Drivers/lvgl/src/misc/lv_tlsf.c ****                      tlsf_cast(unsigned char *, block) + block_start_offset);
 1544              		.loc 1 436 12 view .LVU605
 1545 000c 01F10806 		add	r6, r1, #8
 1546              	.LBE669:
 1547              	.LBE677:
 1548              	.LBB678:
 1549              	.LBB675:
 443:Drivers/lvgl/src/misc/lv_tlsf.c **** }
 1550              		.loc 1 443 12 view .LVU606
 1551 0010 3344     		add	r3, r3, r6
 1552              	.LVL114:
 443:Drivers/lvgl/src/misc/lv_tlsf.c **** }
 1553              		.loc 1 443 12 view .LVU607
 1554              	.LBE675:
 1555              	.LBE678:
 1556              	.LBE679:
 1557              	.LBE681:
 703:Drivers/lvgl/src/misc/lv_tlsf.c **** 
 1558              		.loc 1 703 5 view .LVU608
 1559 0012 1C1F     		subs	r4, r3, #4
 1560 0014 0D46     		mov	r5, r1
 1561 0016 01D1     		bne	.L68
 1562              	.L69:
 703:Drivers/lvgl/src/misc/lv_tlsf.c **** 
 1563              		.loc 1 703 5 is_stmt 1 discriminator 1 view .LVU609
 703:Drivers/lvgl/src/misc/lv_tlsf.c **** 
 1564              		.loc 1 703 5 discriminator 1 view .LVU610
 703:Drivers/lvgl/src/misc/lv_tlsf.c **** 
 1565              		.loc 1 703 5 discriminator 1 view .LVU611
 703:Drivers/lvgl/src/misc/lv_tlsf.c **** 
 1566              		.loc 1 703 5 discriminator 1 view .LVU612
 703:Drivers/lvgl/src/misc/lv_tlsf.c **** 
 1567              		.loc 1 703 5 discriminator 1 view .LVU613
 703:Drivers/lvgl/src/misc/lv_tlsf.c **** 
 1568              		.loc 1 703 5 discriminator 1 view .LVU614
 703:Drivers/lvgl/src/misc/lv_tlsf.c **** 
 1569              		.loc 1 703 5 discriminator 1 view .LVU615
 703:Drivers/lvgl/src/misc/lv_tlsf.c **** 
ARM GAS  /var/folders/lp/x54gwt890xv47sdkqj1k04q40000gn/T//cceYwpZM.s 			page 53


 1570              		.loc 1 703 5 discriminator 1 view .LVU616
 703:Drivers/lvgl/src/misc/lv_tlsf.c **** 
 1571              		.loc 1 703 5 discriminator 1 view .LVU617
 703:Drivers/lvgl/src/misc/lv_tlsf.c **** 
 1572              		.loc 1 703 5 discriminator 1 view .LVU618
 1573 0018 FEE7     		b	.L69
 1574              	.LVL115:
 1575              	.L67:
 1576              		.cfi_def_cfa_offset 0
 1577              		.cfi_restore 4
 1578              		.cfi_restore 5
 1579              		.cfi_restore 6
 1580              		.cfi_restore 14
 1581              	.LBB682:
 1582              	.LBB680:
 458:Drivers/lvgl/src/misc/lv_tlsf.c ****     return next;
 1583              		.loc 1 458 5 discriminator 1 view .LVU619
 458:Drivers/lvgl/src/misc/lv_tlsf.c ****     return next;
 1584              		.loc 1 458 5 discriminator 1 view .LVU620
 458:Drivers/lvgl/src/misc/lv_tlsf.c ****     return next;
 1585              		.loc 1 458 5 discriminator 1 view .LVU621
 458:Drivers/lvgl/src/misc/lv_tlsf.c ****     return next;
 1586              		.loc 1 458 5 discriminator 1 view .LVU622
 458:Drivers/lvgl/src/misc/lv_tlsf.c ****     return next;
 1587              		.loc 1 458 5 discriminator 1 view .LVU623
 458:Drivers/lvgl/src/misc/lv_tlsf.c ****     return next;
 1588              		.loc 1 458 5 discriminator 1 view .LVU624
 458:Drivers/lvgl/src/misc/lv_tlsf.c ****     return next;
 1589              		.loc 1 458 5 discriminator 1 view .LVU625
 458:Drivers/lvgl/src/misc/lv_tlsf.c ****     return next;
 1590              		.loc 1 458 5 discriminator 1 view .LVU626
 458:Drivers/lvgl/src/misc/lv_tlsf.c ****     return next;
 1591              		.loc 1 458 5 discriminator 1 view .LVU627
 458:Drivers/lvgl/src/misc/lv_tlsf.c ****     return next;
 1592              		.loc 1 458 5 discriminator 1 view .LVU628
 1593 001a FEE7     		b	.L67
 1594              	.LVL116:
 1595              	.L68:
 1596              		.cfi_def_cfa_offset 16
 1597              		.cfi_offset 4, -16
 1598              		.cfi_offset 5, -12
 1599              		.cfi_offset 6, -8
 1600              		.cfi_offset 14, -4
 458:Drivers/lvgl/src/misc/lv_tlsf.c ****     return next;
 1601              		.loc 1 458 5 is_stmt 0 discriminator 1 view .LVU629
 1602              	.LBE680:
 1603              	.LBE682:
 703:Drivers/lvgl/src/misc/lv_tlsf.c **** 
 1604              		.loc 1 703 5 is_stmt 1 discriminator 2 view .LVU630
 705:Drivers/lvgl/src/misc/lv_tlsf.c ****         tlsf_assert(!block_is_last(block) && "previous block can't be last");
 1605              		.loc 1 705 5 view .LVU631
 1606              	.LBB683:
 1607              	.LBI683:
 398:Drivers/lvgl/src/misc/lv_tlsf.c **** {
 1608              		.loc 1 398 12 view .LVU632
 1609              	.LBB684:
 400:Drivers/lvgl/src/misc/lv_tlsf.c **** }
ARM GAS  /var/folders/lp/x54gwt890xv47sdkqj1k04q40000gn/T//cceYwpZM.s 			page 54


 1610              		.loc 1 400 5 view .LVU633
 400:Drivers/lvgl/src/misc/lv_tlsf.c **** }
 1611              		.loc 1 400 12 is_stmt 0 view .LVU634
 1612 001c 6368     		ldr	r3, [r4, #4]
 1613              	.LVL117:
 400:Drivers/lvgl/src/misc/lv_tlsf.c **** }
 1614              		.loc 1 400 12 view .LVU635
 1615              	.LBE684:
 1616              	.LBE683:
 705:Drivers/lvgl/src/misc/lv_tlsf.c ****         tlsf_assert(!block_is_last(block) && "previous block can't be last");
 1617              		.loc 1 705 7 discriminator 1 view .LVU636
 1618 001e DA07     		lsls	r2, r3, #31
 1619 0020 01D4     		bmi	.L82
 1620              	.LVL118:
 1621              	.L70:
 711:Drivers/lvgl/src/misc/lv_tlsf.c **** }
 1622              		.loc 1 711 5 is_stmt 1 view .LVU637
 712:Drivers/lvgl/src/misc/lv_tlsf.c **** 
 1623              		.loc 1 712 1 is_stmt 0 view .LVU638
 1624 0022 2846     		mov	r0, r5
 1625              	.LVL119:
 712:Drivers/lvgl/src/misc/lv_tlsf.c **** 
 1626              		.loc 1 712 1 view .LVU639
 1627 0024 70BD     		pop	{r4, r5, r6, pc}
 1628              	.LVL120:
 1629              	.L82:
 706:Drivers/lvgl/src/misc/lv_tlsf.c ****         block_remove(control, next);
 1630              		.loc 1 706 9 is_stmt 1 view .LVU640
 706:Drivers/lvgl/src/misc/lv_tlsf.c ****         block_remove(control, next);
 1631              		.loc 1 706 9 view .LVU641
 706:Drivers/lvgl/src/misc/lv_tlsf.c ****         block_remove(control, next);
 1632              		.loc 1 706 9 discriminator 2 view .LVU642
 707:Drivers/lvgl/src/misc/lv_tlsf.c ****         block = block_absorb(block, next);
 1633              		.loc 1 707 9 view .LVU643
 1634              	.LBB685:
 1635              	.LBI685:
 633:Drivers/lvgl/src/misc/lv_tlsf.c **** {
 1636              		.loc 1 633 13 view .LVU644
 1637              	.LBB686:
 635:Drivers/lvgl/src/misc/lv_tlsf.c ****     mapping_insert(block_size(block), &fl, &sl);
 1638              		.loc 1 635 5 view .LVU645
 636:Drivers/lvgl/src/misc/lv_tlsf.c ****     remove_free_block(control, block, fl, sl);
 1639              		.loc 1 636 5 view .LVU646
 1640              	.LBB687:
 1641              	.LBI687:
 382:Drivers/lvgl/src/misc/lv_tlsf.c **** {
 1642              		.loc 1 382 15 view .LVU647
 1643              	.LBB688:
 384:Drivers/lvgl/src/misc/lv_tlsf.c **** }
 1644              		.loc 1 384 5 view .LVU648
 384:Drivers/lvgl/src/misc/lv_tlsf.c **** }
 1645              		.loc 1 384 24 is_stmt 0 view .LVU649
 1646 0026 23F00303 		bic	r3, r3, #3
 1647              	.LVL121:
 384:Drivers/lvgl/src/misc/lv_tlsf.c **** }
 1648              		.loc 1 384 24 view .LVU650
 1649              	.LBE688:
ARM GAS  /var/folders/lp/x54gwt890xv47sdkqj1k04q40000gn/T//cceYwpZM.s 			page 55


 1650              	.LBE687:
 1651              	.LBB689:
 1652              	.LBI689:
 528:Drivers/lvgl/src/misc/lv_tlsf.c **** {
 1653              		.loc 1 528 13 is_stmt 1 view .LVU651
 1654              	.LBB690:
 530:Drivers/lvgl/src/misc/lv_tlsf.c ****     if(size < SMALL_BLOCK_SIZE) {
 1655              		.loc 1 530 5 view .LVU652
 531:Drivers/lvgl/src/misc/lv_tlsf.c ****         /* Store small blocks in first list. */
 1656              		.loc 1 531 5 view .LVU653
 531:Drivers/lvgl/src/misc/lv_tlsf.c ****         /* Store small blocks in first list. */
 1657              		.loc 1 531 7 is_stmt 0 view .LVU654
 1658 002a 7F2B     		cmp	r3, #127
 1659 002c 1ED9     		bls	.L83
 537:Drivers/lvgl/src/misc/lv_tlsf.c ****         sl = tlsf_cast(int, size >> (fl - SL_INDEX_COUNT_LOG2)) ^ (1 << SL_INDEX_COUNT_LOG2);
 1660              		.loc 1 537 9 is_stmt 1 view .LVU655
 1661              	.LVL122:
 1662              	.LBB691:
 1663              	.LBI691:
 101:Drivers/lvgl/src/misc/lv_tlsf.c **** {
 1664              		.loc 1 101 15 view .LVU656
 1665              	.LBB692:
 103:Drivers/lvgl/src/misc/lv_tlsf.c ****     return bit - 1;
 1666              		.loc 1 103 5 view .LVU657
 103:Drivers/lvgl/src/misc/lv_tlsf.c ****     return bit - 1;
 1667              		.loc 1 103 33 is_stmt 0 discriminator 1 view .LVU658
 1668 002e B3FA83F2 		clz	r2, r3
 1669              	.LVL123:
 104:Drivers/lvgl/src/misc/lv_tlsf.c **** }
 1670              		.loc 1 104 5 is_stmt 1 view .LVU659
 104:Drivers/lvgl/src/misc/lv_tlsf.c **** }
 1671              		.loc 1 104 5 is_stmt 0 view .LVU660
 1672              	.LBE692:
 1673              	.LBE691:
 538:Drivers/lvgl/src/misc/lv_tlsf.c ****         fl -= (FL_INDEX_SHIFT - 1);
 1674              		.loc 1 538 9 is_stmt 1 view .LVU661
 538:Drivers/lvgl/src/misc/lv_tlsf.c ****         fl -= (FL_INDEX_SHIFT - 1);
 1675              		.loc 1 538 14 is_stmt 0 view .LVU662
 1676 0032 C2F11A01 		rsb	r1, r2, #26
 1677              	.LVL124:
 538:Drivers/lvgl/src/misc/lv_tlsf.c ****         fl -= (FL_INDEX_SHIFT - 1);
 1678              		.loc 1 538 14 view .LVU663
 1679 0036 CB40     		lsrs	r3, r3, r1
 1680              	.LVL125:
 538:Drivers/lvgl/src/misc/lv_tlsf.c ****         fl -= (FL_INDEX_SHIFT - 1);
 1681              		.loc 1 538 12 view .LVU664
 1682 0038 83F02003 		eor	r3, r3, #32
 1683              	.LVL126:
 539:Drivers/lvgl/src/misc/lv_tlsf.c ****     }
 1684              		.loc 1 539 9 is_stmt 1 view .LVU665
 539:Drivers/lvgl/src/misc/lv_tlsf.c ****     }
 1685              		.loc 1 539 12 is_stmt 0 view .LVU666
 1686 003c C2F11902 		rsb	r2, r2, #25
 1687              	.LVL127:
 1688              	.L72:
 541:Drivers/lvgl/src/misc/lv_tlsf.c ****     *sli = sl;
 1689              		.loc 1 541 5 is_stmt 1 view .LVU667
ARM GAS  /var/folders/lp/x54gwt890xv47sdkqj1k04q40000gn/T//cceYwpZM.s 			page 56


 542:Drivers/lvgl/src/misc/lv_tlsf.c **** }
 1690              		.loc 1 542 5 view .LVU668
 542:Drivers/lvgl/src/misc/lv_tlsf.c **** }
 1691              		.loc 1 542 5 is_stmt 0 view .LVU669
 1692              	.LBE690:
 1693              	.LBE689:
 637:Drivers/lvgl/src/misc/lv_tlsf.c **** }
 1694              		.loc 1 637 5 is_stmt 1 view .LVU670
 1695 0040 2146     		mov	r1, r4
 1696 0042 FFF7FEFF 		bl	remove_free_block
 1697              	.LVL128:
 637:Drivers/lvgl/src/misc/lv_tlsf.c **** }
 1698              		.loc 1 637 5 is_stmt 0 view .LVU671
 1699              	.LBE686:
 1700              	.LBE685:
 708:Drivers/lvgl/src/misc/lv_tlsf.c ****     }
 1701              		.loc 1 708 9 is_stmt 1 view .LVU672
 1702              	.LBB696:
 1703              	.LBI696:
 676:Drivers/lvgl/src/misc/lv_tlsf.c **** {
 1704              		.loc 1 676 25 view .LVU673
 1705              	.LBB697:
 678:Drivers/lvgl/src/misc/lv_tlsf.c ****     /* Note: Leaves flags untouched. */
 1706              		.loc 1 678 5 view .LVU674
 678:Drivers/lvgl/src/misc/lv_tlsf.c ****     /* Note: Leaves flags untouched. */
 1707              		.loc 1 678 5 view .LVU675
 1708              	.LBB698:
 1709              	.LBI698:
 393:Drivers/lvgl/src/misc/lv_tlsf.c **** {
 1710              		.loc 1 393 12 view .LVU676
 395:Drivers/lvgl/src/misc/lv_tlsf.c **** }
 1711              		.loc 1 395 5 view .LVU677
 1712              	.LBB699:
 1713              	.LBI699:
 382:Drivers/lvgl/src/misc/lv_tlsf.c **** {
 1714              		.loc 1 382 15 view .LVU678
 1715              	.LBB700:
 384:Drivers/lvgl/src/misc/lv_tlsf.c **** }
 1716              		.loc 1 384 5 view .LVU679
 384:Drivers/lvgl/src/misc/lv_tlsf.c **** }
 1717              		.loc 1 384 17 is_stmt 0 view .LVU680
 1718 0046 6A68     		ldr	r2, [r5, #4]
 1719              	.LVL129:
 384:Drivers/lvgl/src/misc/lv_tlsf.c **** }
 1720              		.loc 1 384 17 view .LVU681
 1721              	.LBE700:
 1722              	.LBE699:
 1723              	.LBE698:
 678:Drivers/lvgl/src/misc/lv_tlsf.c ****     /* Note: Leaves flags untouched. */
 1724              		.loc 1 678 5 discriminator 1 view .LVU682
 1725 0048 032A     		cmp	r2, #3
 1726 004a 0DD9     		bls	.L74
 678:Drivers/lvgl/src/misc/lv_tlsf.c ****     /* Note: Leaves flags untouched. */
 1727              		.loc 1 678 5 is_stmt 1 discriminator 2 view .LVU683
 680:Drivers/lvgl/src/misc/lv_tlsf.c ****     block_link_next(prev);
 1728              		.loc 1 680 5 view .LVU684
 1729              	.LVL130:
ARM GAS  /var/folders/lp/x54gwt890xv47sdkqj1k04q40000gn/T//cceYwpZM.s 			page 57


 1730              	.LBB701:
 1731              	.LBI701:
 382:Drivers/lvgl/src/misc/lv_tlsf.c **** {
 1732              		.loc 1 382 15 view .LVU685
 1733              	.LBB702:
 384:Drivers/lvgl/src/misc/lv_tlsf.c **** }
 1734              		.loc 1 384 5 view .LVU686
 384:Drivers/lvgl/src/misc/lv_tlsf.c **** }
 1735              		.loc 1 384 24 is_stmt 0 view .LVU687
 1736 004c 6368     		ldr	r3, [r4, #4]
 1737              	.LBE702:
 1738              	.LBE701:
 680:Drivers/lvgl/src/misc/lv_tlsf.c ****     block_link_next(prev);
 1739              		.loc 1 680 16 discriminator 1 view .LVU688
 1740 004e 0432     		adds	r2, r2, #4
 1741              	.LBB704:
 1742              	.LBB703:
 384:Drivers/lvgl/src/misc/lv_tlsf.c **** }
 1743              		.loc 1 384 24 view .LVU689
 1744 0050 23F00303 		bic	r3, r3, #3
 1745              	.LBE703:
 1746              	.LBE704:
 680:Drivers/lvgl/src/misc/lv_tlsf.c ****     block_link_next(prev);
 1747              		.loc 1 680 16 discriminator 1 view .LVU690
 1748 0054 1344     		add	r3, r3, r2
 1749              	.LBB705:
 1750              	.LBB706:
 1751              	.LBB707:
 1752              	.LBB708:
 458:Drivers/lvgl/src/misc/lv_tlsf.c ****     return next;
 1753              		.loc 1 458 5 discriminator 1 view .LVU691
 1754 0056 032B     		cmp	r3, #3
 1755              	.LBE708:
 1756              	.LBE707:
 1757              	.LBE706:
 1758              	.LBE705:
 680:Drivers/lvgl/src/misc/lv_tlsf.c ****     block_link_next(prev);
 1759              		.loc 1 680 16 discriminator 1 view .LVU692
 1760 0058 6B60     		str	r3, [r5, #4]
 681:Drivers/lvgl/src/misc/lv_tlsf.c ****     return prev;
 1761              		.loc 1 681 5 is_stmt 1 view .LVU693
 1762              	.LVL131:
 1763              	.LBB723:
 1764              	.LBI705:
 463:Drivers/lvgl/src/misc/lv_tlsf.c **** {
 1765              		.loc 1 463 25 view .LVU694
 1766              	.LBB721:
 465:Drivers/lvgl/src/misc/lv_tlsf.c ****     next->prev_phys_block = block;
 1767              		.loc 1 465 5 view .LVU695
 1768              	.LBB718:
 1769              	.LBI707:
 454:Drivers/lvgl/src/misc/lv_tlsf.c **** {
 1770              		.loc 1 454 25 view .LVU696
 1771              	.LBB715:
 456:Drivers/lvgl/src/misc/lv_tlsf.c ****                                             block_size(block) - block_header_overhead);
 1772              		.loc 1 456 5 view .LVU697
 1773              	.LBB709:
ARM GAS  /var/folders/lp/x54gwt890xv47sdkqj1k04q40000gn/T//cceYwpZM.s 			page 58


 1774              	.LBI709:
 382:Drivers/lvgl/src/misc/lv_tlsf.c **** {
 1775              		.loc 1 382 15 view .LVU698
 1776              	.LBB710:
 384:Drivers/lvgl/src/misc/lv_tlsf.c **** }
 1777              		.loc 1 384 5 view .LVU699
 384:Drivers/lvgl/src/misc/lv_tlsf.c **** }
 1778              		.loc 1 384 5 is_stmt 0 view .LVU700
 1779              	.LBE710:
 1780              	.LBE709:
 1781              	.LBB712:
 1782              	.LBI712:
 441:Drivers/lvgl/src/misc/lv_tlsf.c **** {
 1783              		.loc 1 441 25 is_stmt 1 view .LVU701
 1784              	.LBB713:
 443:Drivers/lvgl/src/misc/lv_tlsf.c **** }
 1785              		.loc 1 443 5 view .LVU702
 443:Drivers/lvgl/src/misc/lv_tlsf.c **** }
 1786              		.loc 1 443 5 is_stmt 0 view .LVU703
 1787              	.LBE713:
 1788              	.LBE712:
 458:Drivers/lvgl/src/misc/lv_tlsf.c ****     return next;
 1789              		.loc 1 458 5 is_stmt 1 view .LVU704
 458:Drivers/lvgl/src/misc/lv_tlsf.c ****     return next;
 1790              		.loc 1 458 5 view .LVU705
 458:Drivers/lvgl/src/misc/lv_tlsf.c ****     return next;
 1791              		.loc 1 458 5 is_stmt 0 discriminator 1 view .LVU706
 1792 005a 06D9     		bls	.L76
 458:Drivers/lvgl/src/misc/lv_tlsf.c ****     return next;
 1793              		.loc 1 458 5 is_stmt 1 discriminator 2 view .LVU707
 459:Drivers/lvgl/src/misc/lv_tlsf.c **** }
 1794              		.loc 1 459 5 view .LVU708
 1795              	.LVL132:
 459:Drivers/lvgl/src/misc/lv_tlsf.c **** }
 1796              		.loc 1 459 5 is_stmt 0 view .LVU709
 1797              	.LBE715:
 1798              	.LBE718:
 466:Drivers/lvgl/src/misc/lv_tlsf.c ****     return next;
 1799              		.loc 1 466 5 is_stmt 1 view .LVU710
 1800              	.LBB719:
 1801              	.LBB716:
 1802              	.LBB714:
 1803              	.LBB711:
 384:Drivers/lvgl/src/misc/lv_tlsf.c **** }
 1804              		.loc 1 384 24 is_stmt 0 view .LVU711
 1805 005c 23F00303 		bic	r3, r3, #3
 1806              	.LVL133:
 384:Drivers/lvgl/src/misc/lv_tlsf.c **** }
 1807              		.loc 1 384 24 view .LVU712
 1808              	.LBE711:
 1809              	.LBE714:
 1810              	.LBE716:
 1811              	.LBE719:
 466:Drivers/lvgl/src/misc/lv_tlsf.c ****     return next;
 1812              		.loc 1 466 27 view .LVU713
 1813 0060 1E44     		add	r6, r6, r3
 1814 0062 46F8045C 		str	r5, [r6, #-4]
ARM GAS  /var/folders/lp/x54gwt890xv47sdkqj1k04q40000gn/T//cceYwpZM.s 			page 59


 467:Drivers/lvgl/src/misc/lv_tlsf.c **** }
 1815              		.loc 1 467 5 is_stmt 1 view .LVU714
 1816              	.LVL134:
 467:Drivers/lvgl/src/misc/lv_tlsf.c **** }
 1817              		.loc 1 467 5 is_stmt 0 view .LVU715
 1818              	.LBE721:
 1819              	.LBE723:
 682:Drivers/lvgl/src/misc/lv_tlsf.c **** }
 1820              		.loc 1 682 5 is_stmt 1 view .LVU716
 682:Drivers/lvgl/src/misc/lv_tlsf.c **** }
 1821              		.loc 1 682 5 is_stmt 0 view .LVU717
 1822 0066 DCE7     		b	.L70
 1823              	.LVL135:
 1824              	.L74:
 678:Drivers/lvgl/src/misc/lv_tlsf.c ****     /* Note: Leaves flags untouched. */
 1825              		.loc 1 678 5 is_stmt 1 discriminator 1 view .LVU718
 678:Drivers/lvgl/src/misc/lv_tlsf.c ****     /* Note: Leaves flags untouched. */
 1826              		.loc 1 678 5 discriminator 1 view .LVU719
 678:Drivers/lvgl/src/misc/lv_tlsf.c ****     /* Note: Leaves flags untouched. */
 1827              		.loc 1 678 5 discriminator 1 view .LVU720
 678:Drivers/lvgl/src/misc/lv_tlsf.c ****     /* Note: Leaves flags untouched. */
 1828              		.loc 1 678 5 discriminator 1 view .LVU721
 678:Drivers/lvgl/src/misc/lv_tlsf.c ****     /* Note: Leaves flags untouched. */
 1829              		.loc 1 678 5 discriminator 1 view .LVU722
 678:Drivers/lvgl/src/misc/lv_tlsf.c ****     /* Note: Leaves flags untouched. */
 1830              		.loc 1 678 5 discriminator 1 view .LVU723
 678:Drivers/lvgl/src/misc/lv_tlsf.c ****     /* Note: Leaves flags untouched. */
 1831              		.loc 1 678 5 discriminator 1 view .LVU724
 678:Drivers/lvgl/src/misc/lv_tlsf.c ****     /* Note: Leaves flags untouched. */
 1832              		.loc 1 678 5 discriminator 1 view .LVU725
 678:Drivers/lvgl/src/misc/lv_tlsf.c ****     /* Note: Leaves flags untouched. */
 1833              		.loc 1 678 5 discriminator 1 view .LVU726
 678:Drivers/lvgl/src/misc/lv_tlsf.c ****     /* Note: Leaves flags untouched. */
 1834              		.loc 1 678 5 discriminator 1 view .LVU727
 1835 0068 FEE7     		b	.L74
 1836              	.LVL136:
 1837              	.L76:
 1838              	.LBB724:
 1839              	.LBB722:
 1840              	.LBB720:
 1841              	.LBB717:
 458:Drivers/lvgl/src/misc/lv_tlsf.c ****     return next;
 1842              		.loc 1 458 5 discriminator 1 view .LVU728
 458:Drivers/lvgl/src/misc/lv_tlsf.c ****     return next;
 1843              		.loc 1 458 5 discriminator 1 view .LVU729
 458:Drivers/lvgl/src/misc/lv_tlsf.c ****     return next;
 1844              		.loc 1 458 5 discriminator 1 view .LVU730
 458:Drivers/lvgl/src/misc/lv_tlsf.c ****     return next;
 1845              		.loc 1 458 5 discriminator 1 view .LVU731
 458:Drivers/lvgl/src/misc/lv_tlsf.c ****     return next;
 1846              		.loc 1 458 5 discriminator 1 view .LVU732
 458:Drivers/lvgl/src/misc/lv_tlsf.c ****     return next;
 1847              		.loc 1 458 5 discriminator 1 view .LVU733
 458:Drivers/lvgl/src/misc/lv_tlsf.c ****     return next;
 1848              		.loc 1 458 5 discriminator 1 view .LVU734
 458:Drivers/lvgl/src/misc/lv_tlsf.c ****     return next;
 1849              		.loc 1 458 5 discriminator 1 view .LVU735
ARM GAS  /var/folders/lp/x54gwt890xv47sdkqj1k04q40000gn/T//cceYwpZM.s 			page 60


 458:Drivers/lvgl/src/misc/lv_tlsf.c ****     return next;
 1850              		.loc 1 458 5 discriminator 1 view .LVU736
 458:Drivers/lvgl/src/misc/lv_tlsf.c ****     return next;
 1851              		.loc 1 458 5 discriminator 1 view .LVU737
 1852 006a FEE7     		b	.L76
 1853              	.LVL137:
 1854              	.L83:
 458:Drivers/lvgl/src/misc/lv_tlsf.c ****     return next;
 1855              		.loc 1 458 5 is_stmt 0 discriminator 1 view .LVU738
 1856              	.LBE717:
 1857              	.LBE720:
 1858              	.LBE722:
 1859              	.LBE724:
 1860              	.LBE697:
 1861              	.LBE696:
 1862              	.LBB725:
 1863              	.LBB695:
 1864              	.LBB694:
 1865              	.LBB693:
 533:Drivers/lvgl/src/misc/lv_tlsf.c ****         sl = tlsf_cast(int, size) / (SMALL_BLOCK_SIZE / SL_INDEX_COUNT);
 1866              		.loc 1 533 9 is_stmt 1 view .LVU739
 534:Drivers/lvgl/src/misc/lv_tlsf.c ****     }
 1867              		.loc 1 534 9 view .LVU740
 534:Drivers/lvgl/src/misc/lv_tlsf.c ****     }
 1868              		.loc 1 534 12 is_stmt 0 view .LVU741
 1869 006c 9B10     		asrs	r3, r3, #2
 1870              	.LVL138:
 533:Drivers/lvgl/src/misc/lv_tlsf.c ****         sl = tlsf_cast(int, size) / (SMALL_BLOCK_SIZE / SL_INDEX_COUNT);
 1871              		.loc 1 533 12 view .LVU742
 1872 006e 0022     		movs	r2, #0
 1873 0070 E6E7     		b	.L72
 1874              	.LBE693:
 1875              	.LBE694:
 1876              	.LBE695:
 1877              	.LBE725:
 1878              		.cfi_endproc
 1879              	.LFE35:
 1881 0072 00BF     		.section	.text.lv_tlsf_check,"ax",%progbits
 1882              		.align	1
 1883              		.p2align 2,,3
 1884              		.global	lv_tlsf_check
 1885              		.syntax unified
 1886              		.thumb
 1887              		.thumb_func
 1889              	lv_tlsf_check:
 1890              	.LVL139:
 1891              	.LFB43:
 840:Drivers/lvgl/src/misc/lv_tlsf.c ****     int i, j;
 1892              		.loc 1 840 1 is_stmt 1 view -0
 1893              		.cfi_startproc
 1894              		@ args = 0, pretend = 0, frame = 0
 1895              		@ frame_needed = 0, uses_anonymous_args = 0
 841:Drivers/lvgl/src/misc/lv_tlsf.c **** 
 1896              		.loc 1 841 5 view .LVU744
 843:Drivers/lvgl/src/misc/lv_tlsf.c ****     int status = 0;
 1897              		.loc 1 843 5 view .LVU745
 844:Drivers/lvgl/src/misc/lv_tlsf.c **** 
ARM GAS  /var/folders/lp/x54gwt890xv47sdkqj1k04q40000gn/T//cceYwpZM.s 			page 61


 1898              		.loc 1 844 5 view .LVU746
 847:Drivers/lvgl/src/misc/lv_tlsf.c ****         for(j = 0; j < SL_INDEX_COUNT; ++j) {
 1899              		.loc 1 847 5 view .LVU747
 847:Drivers/lvgl/src/misc/lv_tlsf.c ****         for(j = 0; j < SL_INDEX_COUNT; ++j) {
 1900              		.loc 1 847 18 discriminator 1 view .LVU748
 1901              	.LBB726:
 849:Drivers/lvgl/src/misc/lv_tlsf.c ****             const int sl_list = control->sl_bitmap[i];
 1902              		.loc 1 849 39 is_stmt 0 view .LVU749
 1903 0000 0346     		mov	r3, r0
 1904              	.LBE726:
 840:Drivers/lvgl/src/misc/lv_tlsf.c ****     int i, j;
 1905              		.loc 1 840 1 view .LVU750
 1906 0002 2DE9F04F 		push	{r4, r5, r6, r7, r8, r9, r10, fp, lr}
 1907              		.cfi_def_cfa_offset 36
 1908              		.cfi_offset 4, -36
 1909              		.cfi_offset 5, -32
 1910              		.cfi_offset 6, -28
 1911              		.cfi_offset 7, -24
 1912              		.cfi_offset 8, -20
 1913              		.cfi_offset 9, -16
 1914              		.cfi_offset 10, -12
 1915              		.cfi_offset 11, -8
 1916              		.cfi_offset 14, -4
 1917              	.LBB752:
 849:Drivers/lvgl/src/misc/lv_tlsf.c ****             const int sl_list = control->sl_bitmap[i];
 1918              		.loc 1 849 39 view .LVU751
 1919 0006 53F8107F 		ldr	r7, [r3, #16]!
 1920 000a 00F12C06 		add	r6, r0, #44
 1921              	.LBE752:
 847:Drivers/lvgl/src/misc/lv_tlsf.c ****         for(j = 0; j < SL_INDEX_COUNT; ++j) {
 1922              		.loc 1 847 11 view .LVU752
 1923 000e 0025     		movs	r5, #0
 1924              	.LBB753:
 849:Drivers/lvgl/src/misc/lv_tlsf.c ****             const int sl_list = control->sl_bitmap[i];
 1925              		.loc 1 849 57 view .LVU753
 1926 0010 4FF0010C 		mov	ip, #1
 1927              	.LVL140:
 1928              	.L85:
 849:Drivers/lvgl/src/misc/lv_tlsf.c ****             const int sl_list = control->sl_bitmap[i];
 1929              		.loc 1 849 57 view .LVU754
 1930              	.LBE753:
 848:Drivers/lvgl/src/misc/lv_tlsf.c ****             const int fl_map = control->fl_bitmap & (1U << i);
 1931              		.loc 1 848 22 is_stmt 1 discriminator 1 view .LVU755
 1932              	.LBB754:
 849:Drivers/lvgl/src/misc/lv_tlsf.c ****             const int sl_list = control->sl_bitmap[i];
 1933              		.loc 1 849 57 is_stmt 0 view .LVU756
 1934 0014 0CFA05F1 		lsl	r1, ip, r5
 850:Drivers/lvgl/src/misc/lv_tlsf.c ****             const int sl_map = sl_list & (1U << j);
 1935              		.loc 1 850 51 view .LVU757
 1936 0018 53F8048F 		ldr	r8, [r3, #4]!
 849:Drivers/lvgl/src/misc/lv_tlsf.c ****             const int sl_list = control->sl_bitmap[i];
 1937              		.loc 1 849 51 view .LVU758
 1938 001c 3940     		ands	r1, r1, r7
 850:Drivers/lvgl/src/misc/lv_tlsf.c ****             const int sl_map = sl_list & (1U << j);
 1939              		.loc 1 850 51 view .LVU759
 1940 001e B646     		mov	lr, r6
 1941              	.LBE754:
ARM GAS  /var/folders/lp/x54gwt890xv47sdkqj1k04q40000gn/T//cceYwpZM.s 			page 62


 848:Drivers/lvgl/src/misc/lv_tlsf.c ****             const int fl_map = control->fl_bitmap & (1U << i);
 1942              		.loc 1 848 15 view .LVU760
 1943 0020 0024     		movs	r4, #0
 1944              	.LVL141:
 1945              	.L110:
 1946              	.LBB755:
 849:Drivers/lvgl/src/misc/lv_tlsf.c ****             const int sl_list = control->sl_bitmap[i];
 1947              		.loc 1 849 13 is_stmt 1 view .LVU761
 850:Drivers/lvgl/src/misc/lv_tlsf.c ****             const int sl_map = sl_list & (1U << j);
 1948              		.loc 1 850 13 view .LVU762
 851:Drivers/lvgl/src/misc/lv_tlsf.c ****             const block_header_t * block = control->blocks[i][j];
 1949              		.loc 1 851 13 view .LVU763
 851:Drivers/lvgl/src/misc/lv_tlsf.c ****             const block_header_t * block = control->blocks[i][j];
 1950              		.loc 1 851 46 is_stmt 0 view .LVU764
 1951 0022 0CFA04F2 		lsl	r2, ip, r4
 852:Drivers/lvgl/src/misc/lv_tlsf.c **** 
 1952              		.loc 1 852 36 view .LVU765
 1953 0026 5EF8049F 		ldr	r9, [lr, #4]!
 851:Drivers/lvgl/src/misc/lv_tlsf.c ****             const block_header_t * block = control->blocks[i][j];
 1954              		.loc 1 851 40 view .LVU766
 1955 002a 02EA0802 		and	r2, r2, r8
 1956              	.LVL142:
 852:Drivers/lvgl/src/misc/lv_tlsf.c **** 
 1957              		.loc 1 852 13 is_stmt 1 view .LVU767
 855:Drivers/lvgl/src/misc/lv_tlsf.c ****                 tlsf_insist(!sl_map && "second-level map must be null");
 1958              		.loc 1 855 13 view .LVU768
 855:Drivers/lvgl/src/misc/lv_tlsf.c ****                 tlsf_insist(!sl_map && "second-level map must be null");
 1959              		.loc 1 855 15 is_stmt 0 view .LVU769
 1960 002e 21B9     		cbnz	r1, .L86
 856:Drivers/lvgl/src/misc/lv_tlsf.c ****             }
 1961              		.loc 1 856 17 is_stmt 1 view .LVU770
 856:Drivers/lvgl/src/misc/lv_tlsf.c ****             }
 1962              		.loc 1 856 17 view .LVU771
 1963 0030 12B9     		cbnz	r2, .L88
 1964              	.L87:
 1965              	.LVL143:
 860:Drivers/lvgl/src/misc/lv_tlsf.c ****                 continue;
 1966              		.loc 1 860 17 view .LVU772
 860:Drivers/lvgl/src/misc/lv_tlsf.c ****                 continue;
 1967              		.loc 1 860 17 view .LVU773
 1968 0032 4845     		cmp	r0, r9
 1969 0034 31D0     		beq	.L90
 1970              	.L91:
 860:Drivers/lvgl/src/misc/lv_tlsf.c ****                 continue;
 1971              		.loc 1 860 17 discriminator 1 view .LVU774
 860:Drivers/lvgl/src/misc/lv_tlsf.c ****                 continue;
 1972              		.loc 1 860 17 discriminator 1 view .LVU775
 860:Drivers/lvgl/src/misc/lv_tlsf.c ****                 continue;
 1973              		.loc 1 860 17 discriminator 1 view .LVU776
 860:Drivers/lvgl/src/misc/lv_tlsf.c ****                 continue;
 1974              		.loc 1 860 17 discriminator 1 view .LVU777
 860:Drivers/lvgl/src/misc/lv_tlsf.c ****                 continue;
 1975              		.loc 1 860 17 discriminator 1 view .LVU778
 860:Drivers/lvgl/src/misc/lv_tlsf.c ****                 continue;
 1976              		.loc 1 860 17 discriminator 1 view .LVU779
 860:Drivers/lvgl/src/misc/lv_tlsf.c ****                 continue;
 1977              		.loc 1 860 17 discriminator 1 view .LVU780
ARM GAS  /var/folders/lp/x54gwt890xv47sdkqj1k04q40000gn/T//cceYwpZM.s 			page 63


 860:Drivers/lvgl/src/misc/lv_tlsf.c ****                 continue;
 1978              		.loc 1 860 17 discriminator 1 view .LVU781
 860:Drivers/lvgl/src/misc/lv_tlsf.c ****                 continue;
 1979              		.loc 1 860 17 discriminator 1 view .LVU782
 860:Drivers/lvgl/src/misc/lv_tlsf.c ****                 continue;
 1980              		.loc 1 860 17 discriminator 1 view .LVU783
 1981 0036 FEE7     		b	.L91
 1982              	.LVL144:
 1983              	.L88:
 856:Drivers/lvgl/src/misc/lv_tlsf.c ****             }
 1984              		.loc 1 856 17 discriminator 1 view .LVU784
 856:Drivers/lvgl/src/misc/lv_tlsf.c ****             }
 1985              		.loc 1 856 17 discriminator 1 view .LVU785
 856:Drivers/lvgl/src/misc/lv_tlsf.c ****             }
 1986              		.loc 1 856 17 discriminator 1 view .LVU786
 856:Drivers/lvgl/src/misc/lv_tlsf.c ****             }
 1987              		.loc 1 856 17 discriminator 1 view .LVU787
 856:Drivers/lvgl/src/misc/lv_tlsf.c ****             }
 1988              		.loc 1 856 17 discriminator 1 view .LVU788
 856:Drivers/lvgl/src/misc/lv_tlsf.c ****             }
 1989              		.loc 1 856 17 discriminator 1 view .LVU789
 856:Drivers/lvgl/src/misc/lv_tlsf.c ****             }
 1990              		.loc 1 856 17 discriminator 1 view .LVU790
 856:Drivers/lvgl/src/misc/lv_tlsf.c ****             }
 1991              		.loc 1 856 17 discriminator 1 view .LVU791
 856:Drivers/lvgl/src/misc/lv_tlsf.c ****             }
 1992              		.loc 1 856 17 discriminator 1 view .LVU792
 856:Drivers/lvgl/src/misc/lv_tlsf.c ****             }
 1993              		.loc 1 856 17 discriminator 1 view .LVU793
 1994 0038 FEE7     		b	.L88
 1995              	.L86:
 856:Drivers/lvgl/src/misc/lv_tlsf.c ****             }
 1996              		.loc 1 856 72 discriminator 5 view .LVU794
 859:Drivers/lvgl/src/misc/lv_tlsf.c ****                 tlsf_insist(block == &control->block_null && "block list must be null");
 1997              		.loc 1 859 13 view .LVU795
 859:Drivers/lvgl/src/misc/lv_tlsf.c ****                 tlsf_insist(block == &control->block_null && "block list must be null");
 1998              		.loc 1 859 15 is_stmt 0 view .LVU796
 1999 003a 002A     		cmp	r2, #0
 2000 003c F9D0     		beq	.L87
 865:Drivers/lvgl/src/misc/lv_tlsf.c ****             tlsf_insist(block != &control->block_null && "block should not be null");
 2001              		.loc 1 865 13 is_stmt 1 view .LVU797
 865:Drivers/lvgl/src/misc/lv_tlsf.c ****             tlsf_insist(block != &control->block_null && "block should not be null");
 2002              		.loc 1 865 13 view .LVU798
 865:Drivers/lvgl/src/misc/lv_tlsf.c ****             tlsf_insist(block != &control->block_null && "block should not be null");
 2003              		.loc 1 865 13 discriminator 2 view .LVU799
 865:Drivers/lvgl/src/misc/lv_tlsf.c ****             tlsf_insist(block != &control->block_null && "block should not be null");
 2004              		.loc 1 865 13 discriminator 2 view .LVU800
 865:Drivers/lvgl/src/misc/lv_tlsf.c ****             tlsf_insist(block != &control->block_null && "block should not be null");
 2005              		.loc 1 865 73 discriminator 5 view .LVU801
 866:Drivers/lvgl/src/misc/lv_tlsf.c **** 
 2006              		.loc 1 866 13 view .LVU802
 866:Drivers/lvgl/src/misc/lv_tlsf.c **** 
 2007              		.loc 1 866 13 view .LVU803
 2008 003e 4845     		cmp	r0, r9
 2009 0040 39D0     		beq	.L93
 2010              	.LVL145:
 2011              	.L92:
ARM GAS  /var/folders/lp/x54gwt890xv47sdkqj1k04q40000gn/T//cceYwpZM.s 			page 64


 2012              	.LBB727:
 869:Drivers/lvgl/src/misc/lv_tlsf.c ****                 tlsf_insist(block_is_free(block) && "block should be free");
 2013              		.loc 1 869 17 view .LVU804
 870:Drivers/lvgl/src/misc/lv_tlsf.c ****                 tlsf_insist(!block_is_prev_free(block) && "blocks should have coalesced");
 2014              		.loc 1 870 17 view .LVU805
 870:Drivers/lvgl/src/misc/lv_tlsf.c ****                 tlsf_insist(!block_is_prev_free(block) && "blocks should have coalesced");
 2015              		.loc 1 870 17 view .LVU806
 2016              	.LBB728:
 2017              	.LBI728:
 398:Drivers/lvgl/src/misc/lv_tlsf.c **** {
 2018              		.loc 1 398 12 view .LVU807
 2019              	.LBB729:
 400:Drivers/lvgl/src/misc/lv_tlsf.c **** }
 2020              		.loc 1 400 5 view .LVU808
 400:Drivers/lvgl/src/misc/lv_tlsf.c **** }
 2021              		.loc 1 400 12 is_stmt 0 view .LVU809
 2022 0042 D9F80420 		ldr	r2, [r9, #4]
 2023              	.LVL146:
 400:Drivers/lvgl/src/misc/lv_tlsf.c **** }
 2024              		.loc 1 400 12 view .LVU810
 2025              	.LBE729:
 2026              	.LBE728:
 870:Drivers/lvgl/src/misc/lv_tlsf.c ****                 tlsf_insist(!block_is_prev_free(block) && "blocks should have coalesced");
 2027              		.loc 1 870 17 discriminator 1 view .LVU811
 2028 0046 12F0010F 		tst	r2, #1
 2029 004a 32D0     		beq	.L95
 870:Drivers/lvgl/src/misc/lv_tlsf.c ****                 tlsf_insist(!block_is_prev_free(block) && "blocks should have coalesced");
 2030              		.loc 1 870 17 is_stmt 1 discriminator 4 view .LVU812
 870:Drivers/lvgl/src/misc/lv_tlsf.c ****                 tlsf_insist(!block_is_prev_free(block) && "blocks should have coalesced");
 2031              		.loc 1 870 17 discriminator 4 view .LVU813
 870:Drivers/lvgl/src/misc/lv_tlsf.c ****                 tlsf_insist(!block_is_prev_free(block) && "blocks should have coalesced");
 2032              		.loc 1 870 76 discriminator 9 view .LVU814
 871:Drivers/lvgl/src/misc/lv_tlsf.c ****                 tlsf_insist(!block_is_free(block_next(block)) && "blocks should have coalesced");
 2033              		.loc 1 871 17 view .LVU815
 871:Drivers/lvgl/src/misc/lv_tlsf.c ****                 tlsf_insist(!block_is_free(block_next(block)) && "blocks should have coalesced");
 2034              		.loc 1 871 17 view .LVU816
 871:Drivers/lvgl/src/misc/lv_tlsf.c ****                 tlsf_insist(!block_is_free(block_next(block)) && "blocks should have coalesced");
 2035              		.loc 1 871 17 is_stmt 0 discriminator 1 view .LVU817
 2036 004c 12F0020F 		tst	r2, #2
 2037 0050 30D1     		bne	.L97
 871:Drivers/lvgl/src/misc/lv_tlsf.c ****                 tlsf_insist(!block_is_free(block_next(block)) && "blocks should have coalesced");
 2038              		.loc 1 871 17 is_stmt 1 discriminator 2 view .LVU818
 871:Drivers/lvgl/src/misc/lv_tlsf.c ****                 tlsf_insist(!block_is_free(block_next(block)) && "blocks should have coalesced");
 2039              		.loc 1 871 17 discriminator 2 view .LVU819
 871:Drivers/lvgl/src/misc/lv_tlsf.c ****                 tlsf_insist(!block_is_free(block_next(block)) && "blocks should have coalesced");
 2040              		.loc 1 871 90 discriminator 5 view .LVU820
 872:Drivers/lvgl/src/misc/lv_tlsf.c ****                 tlsf_insist(block_is_prev_free(block_next(block)) && "block should be free");
 2041              		.loc 1 872 17 view .LVU821
 872:Drivers/lvgl/src/misc/lv_tlsf.c ****                 tlsf_insist(block_is_prev_free(block_next(block)) && "block should be free");
 2042              		.loc 1 872 17 view .LVU822
 2043              	.LVL147:
 2044              	.LBB730:
 2045              	.LBI730:
 454:Drivers/lvgl/src/misc/lv_tlsf.c **** {
 2046              		.loc 1 454 25 view .LVU823
 2047              	.LBB731:
 456:Drivers/lvgl/src/misc/lv_tlsf.c ****                                             block_size(block) - block_header_overhead);
ARM GAS  /var/folders/lp/x54gwt890xv47sdkqj1k04q40000gn/T//cceYwpZM.s 			page 65


 2048              		.loc 1 456 5 view .LVU824
 2049              	.LBB732:
 2050              	.LBI732:
 434:Drivers/lvgl/src/misc/lv_tlsf.c **** {
 2051              		.loc 1 434 15 view .LVU825
 2052              	.LBB733:
 436:Drivers/lvgl/src/misc/lv_tlsf.c ****                      tlsf_cast(unsigned char *, block) + block_start_offset);
 2053              		.loc 1 436 5 view .LVU826
 436:Drivers/lvgl/src/misc/lv_tlsf.c ****                      tlsf_cast(unsigned char *, block) + block_start_offset);
 2054              		.loc 1 436 5 is_stmt 0 view .LVU827
 2055              	.LBE733:
 2056              	.LBE732:
 2057              	.LBB734:
 2058              	.LBI734:
 382:Drivers/lvgl/src/misc/lv_tlsf.c **** {
 2059              		.loc 1 382 15 is_stmt 1 view .LVU828
 2060              	.LBB735:
 384:Drivers/lvgl/src/misc/lv_tlsf.c **** }
 2061              		.loc 1 384 5 view .LVU829
 384:Drivers/lvgl/src/misc/lv_tlsf.c **** }
 2062              		.loc 1 384 5 is_stmt 0 view .LVU830
 2063              	.LBE735:
 2064              	.LBE734:
 2065              	.LBB737:
 2066              	.LBI737:
 441:Drivers/lvgl/src/misc/lv_tlsf.c **** {
 2067              		.loc 1 441 25 is_stmt 1 view .LVU831
 2068              	.LBB738:
 443:Drivers/lvgl/src/misc/lv_tlsf.c **** }
 2069              		.loc 1 443 5 view .LVU832
 443:Drivers/lvgl/src/misc/lv_tlsf.c **** }
 2070              		.loc 1 443 5 is_stmt 0 view .LVU833
 2071              	.LBE738:
 2072              	.LBE737:
 458:Drivers/lvgl/src/misc/lv_tlsf.c ****     return next;
 2073              		.loc 1 458 5 is_stmt 1 view .LVU834
 458:Drivers/lvgl/src/misc/lv_tlsf.c ****     return next;
 2074              		.loc 1 458 5 view .LVU835
 458:Drivers/lvgl/src/misc/lv_tlsf.c ****     return next;
 2075              		.loc 1 458 5 is_stmt 0 discriminator 1 view .LVU836
 2076 0052 032A     		cmp	r2, #3
 2077 0054 2CD9     		bls	.L99
 2078              	.LBB739:
 2079              	.LBB736:
 384:Drivers/lvgl/src/misc/lv_tlsf.c **** }
 2080              		.loc 1 384 24 view .LVU837
 2081 0056 22F00302 		bic	r2, r2, #3
 2082              	.LVL148:
 384:Drivers/lvgl/src/misc/lv_tlsf.c **** }
 2083              		.loc 1 384 24 view .LVU838
 2084              	.LBE736:
 2085              	.LBE739:
 458:Drivers/lvgl/src/misc/lv_tlsf.c ****     return next;
 2086              		.loc 1 458 5 is_stmt 1 discriminator 2 view .LVU839
 459:Drivers/lvgl/src/misc/lv_tlsf.c **** }
 2087              		.loc 1 459 5 view .LVU840
 459:Drivers/lvgl/src/misc/lv_tlsf.c **** }
ARM GAS  /var/folders/lp/x54gwt890xv47sdkqj1k04q40000gn/T//cceYwpZM.s 			page 66


 2088              		.loc 1 459 5 is_stmt 0 view .LVU841
 2089              	.LBE731:
 2090              	.LBE730:
 2091              	.LBB741:
 2092              	.LBI741:
 398:Drivers/lvgl/src/misc/lv_tlsf.c **** {
 2093              		.loc 1 398 12 is_stmt 1 view .LVU842
 2094              	.LBB742:
 400:Drivers/lvgl/src/misc/lv_tlsf.c **** }
 2095              		.loc 1 400 5 view .LVU843
 400:Drivers/lvgl/src/misc/lv_tlsf.c **** }
 2096              		.loc 1 400 12 is_stmt 0 view .LVU844
 2097 005a 09EB020A 		add	r10, r9, r2
 2098 005e DAF808B0 		ldr	fp, [r10, #8]
 2099              	.LVL149:
 400:Drivers/lvgl/src/misc/lv_tlsf.c **** }
 2100              		.loc 1 400 12 view .LVU845
 2101              	.LBE742:
 2102              	.LBE741:
 872:Drivers/lvgl/src/misc/lv_tlsf.c ****                 tlsf_insist(block_is_prev_free(block_next(block)) && "block should be free");
 2103              		.loc 1 872 17 discriminator 2 view .LVU846
 2104 0062 1BF0010A 		ands	r10, fp, #1
 2105 0066 27D1     		bne	.L101
 872:Drivers/lvgl/src/misc/lv_tlsf.c ****                 tlsf_insist(block_is_prev_free(block_next(block)) && "block should be free");
 2106              		.loc 1 872 17 is_stmt 1 discriminator 2 view .LVU847
 872:Drivers/lvgl/src/misc/lv_tlsf.c ****                 tlsf_insist(block_is_prev_free(block_next(block)) && "block should be free");
 2107              		.loc 1 872 17 discriminator 2 view .LVU848
 2108              	.LVL150:
 872:Drivers/lvgl/src/misc/lv_tlsf.c ****                 tlsf_insist(block_is_prev_free(block_next(block)) && "block should be free");
 2109              		.loc 1 872 97 discriminator 5 view .LVU849
 873:Drivers/lvgl/src/misc/lv_tlsf.c ****                 tlsf_insist(block_size(block) >= block_size_min && "block not minimum size");
 2110              		.loc 1 873 17 view .LVU850
 873:Drivers/lvgl/src/misc/lv_tlsf.c ****                 tlsf_insist(block_size(block) >= block_size_min && "block not minimum size");
 2111              		.loc 1 873 17 view .LVU851
 873:Drivers/lvgl/src/misc/lv_tlsf.c ****                 tlsf_insist(block_size(block) >= block_size_min && "block not minimum size");
 2112              		.loc 1 873 17 is_stmt 0 discriminator 2 view .LVU852
 2113 0068 1BF0020F 		tst	fp, #2
 2114 006c 25D0     		beq	.L103
 873:Drivers/lvgl/src/misc/lv_tlsf.c ****                 tlsf_insist(block_size(block) >= block_size_min && "block not minimum size");
 2115              		.loc 1 873 17 is_stmt 1 discriminator 4 view .LVU853
 873:Drivers/lvgl/src/misc/lv_tlsf.c ****                 tlsf_insist(block_size(block) >= block_size_min && "block not minimum size");
 2116              		.loc 1 873 17 discriminator 4 view .LVU854
 2117              	.LVL151:
 873:Drivers/lvgl/src/misc/lv_tlsf.c ****                 tlsf_insist(block_size(block) >= block_size_min && "block not minimum size");
 2118              		.loc 1 873 93 discriminator 9 view .LVU855
 874:Drivers/lvgl/src/misc/lv_tlsf.c **** 
 2119              		.loc 1 874 17 view .LVU856
 874:Drivers/lvgl/src/misc/lv_tlsf.c **** 
 2120              		.loc 1 874 17 view .LVU857
 874:Drivers/lvgl/src/misc/lv_tlsf.c **** 
 2121              		.loc 1 874 17 is_stmt 0 discriminator 1 view .LVU858
 2122 006e 0B2A     		cmp	r2, #11
 2123 0070 24D9     		bls	.L105
 874:Drivers/lvgl/src/misc/lv_tlsf.c **** 
 2124              		.loc 1 874 17 is_stmt 1 discriminator 4 view .LVU859
 874:Drivers/lvgl/src/misc/lv_tlsf.c **** 
 2125              		.loc 1 874 17 discriminator 4 view .LVU860
ARM GAS  /var/folders/lp/x54gwt890xv47sdkqj1k04q40000gn/T//cceYwpZM.s 			page 67


 874:Drivers/lvgl/src/misc/lv_tlsf.c **** 
 2126              		.loc 1 874 93 discriminator 9 view .LVU861
 876:Drivers/lvgl/src/misc/lv_tlsf.c ****                 tlsf_insist(fli == i && sli == j && "block size indexed in wrong list");
 2127              		.loc 1 876 17 view .LVU862
 2128              	.LVL152:
 2129              	.LBB743:
 2130              	.LBI743:
 528:Drivers/lvgl/src/misc/lv_tlsf.c **** {
 2131              		.loc 1 528 13 view .LVU863
 2132              	.LBB744:
 530:Drivers/lvgl/src/misc/lv_tlsf.c ****     if(size < SMALL_BLOCK_SIZE) {
 2133              		.loc 1 530 5 view .LVU864
 531:Drivers/lvgl/src/misc/lv_tlsf.c ****         /* Store small blocks in first list. */
 2134              		.loc 1 531 5 view .LVU865
 531:Drivers/lvgl/src/misc/lv_tlsf.c ****         /* Store small blocks in first list. */
 2135              		.loc 1 531 7 is_stmt 0 view .LVU866
 2136 0072 7F2A     		cmp	r2, #127
 2137 0074 23D9     		bls	.L120
 537:Drivers/lvgl/src/misc/lv_tlsf.c ****         sl = tlsf_cast(int, size >> (fl - SL_INDEX_COUNT_LOG2)) ^ (1 << SL_INDEX_COUNT_LOG2);
 2138              		.loc 1 537 9 is_stmt 1 view .LVU867
 2139              	.LVL153:
 2140              	.LBB745:
 2141              	.LBI745:
 101:Drivers/lvgl/src/misc/lv_tlsf.c **** {
 2142              		.loc 1 101 15 view .LVU868
 2143              	.LBB746:
 103:Drivers/lvgl/src/misc/lv_tlsf.c ****     return bit - 1;
 2144              		.loc 1 103 5 view .LVU869
 103:Drivers/lvgl/src/misc/lv_tlsf.c ****     return bit - 1;
 2145              		.loc 1 103 33 is_stmt 0 discriminator 1 view .LVU870
 2146 0076 B2FA82FA 		clz	r10, r2
 2147              	.LVL154:
 104:Drivers/lvgl/src/misc/lv_tlsf.c **** }
 2148              		.loc 1 104 5 is_stmt 1 view .LVU871
 104:Drivers/lvgl/src/misc/lv_tlsf.c **** }
 2149              		.loc 1 104 5 is_stmt 0 view .LVU872
 2150              	.LBE746:
 2151              	.LBE745:
 538:Drivers/lvgl/src/misc/lv_tlsf.c ****         fl -= (FL_INDEX_SHIFT - 1);
 2152              		.loc 1 538 9 is_stmt 1 view .LVU873
 538:Drivers/lvgl/src/misc/lv_tlsf.c ****         fl -= (FL_INDEX_SHIFT - 1);
 2153              		.loc 1 538 14 is_stmt 0 view .LVU874
 2154 007a CAF11A0B 		rsb	fp, r10, #26
 2155 007e 22FA0BF2 		lsr	r2, r2, fp
 2156              	.LVL155:
 538:Drivers/lvgl/src/misc/lv_tlsf.c ****         fl -= (FL_INDEX_SHIFT - 1);
 2157              		.loc 1 538 12 view .LVU875
 2158 0082 82F02002 		eor	r2, r2, #32
 2159              	.LVL156:
 539:Drivers/lvgl/src/misc/lv_tlsf.c ****     }
 2160              		.loc 1 539 9 is_stmt 1 view .LVU876
 539:Drivers/lvgl/src/misc/lv_tlsf.c ****     }
 2161              		.loc 1 539 12 is_stmt 0 view .LVU877
 2162 0086 CAF1190A 		rsb	r10, r10, #25
 2163              	.LVL157:
 2164              	.L107:
 541:Drivers/lvgl/src/misc/lv_tlsf.c ****     *sli = sl;
ARM GAS  /var/folders/lp/x54gwt890xv47sdkqj1k04q40000gn/T//cceYwpZM.s 			page 68


 2165              		.loc 1 541 5 is_stmt 1 view .LVU878
 542:Drivers/lvgl/src/misc/lv_tlsf.c **** }
 2166              		.loc 1 542 5 view .LVU879
 542:Drivers/lvgl/src/misc/lv_tlsf.c **** }
 2167              		.loc 1 542 5 is_stmt 0 view .LVU880
 2168              	.LBE744:
 2169              	.LBE743:
 877:Drivers/lvgl/src/misc/lv_tlsf.c ****                 block = block->next_free;
 2170              		.loc 1 877 17 is_stmt 1 view .LVU881
 877:Drivers/lvgl/src/misc/lv_tlsf.c ****                 block = block->next_free;
 2171              		.loc 1 877 17 view .LVU882
 2172 008a AA45     		cmp	r10, r5
 2173 008c 19D1     		bne	.L108
 877:Drivers/lvgl/src/misc/lv_tlsf.c ****                 block = block->next_free;
 2174              		.loc 1 877 17 is_stmt 0 discriminator 2 view .LVU883
 2175 008e A242     		cmp	r2, r4
 2176 0090 17D1     		bne	.L108
 877:Drivers/lvgl/src/misc/lv_tlsf.c ****                 block = block->next_free;
 2177              		.loc 1 877 17 is_stmt 1 discriminator 4 view .LVU884
 877:Drivers/lvgl/src/misc/lv_tlsf.c ****                 block = block->next_free;
 2178              		.loc 1 877 17 discriminator 4 view .LVU885
 877:Drivers/lvgl/src/misc/lv_tlsf.c ****                 block = block->next_free;
 2179              		.loc 1 877 88 discriminator 9 view .LVU886
 878:Drivers/lvgl/src/misc/lv_tlsf.c ****             }
 2180              		.loc 1 878 17 view .LVU887
 878:Drivers/lvgl/src/misc/lv_tlsf.c ****             }
 2181              		.loc 1 878 23 is_stmt 0 view .LVU888
 2182 0092 D9F80890 		ldr	r9, [r9, #8]
 2183              	.LVL158:
 878:Drivers/lvgl/src/misc/lv_tlsf.c ****             }
 2184              		.loc 1 878 23 view .LVU889
 2185              	.LBE727:
 868:Drivers/lvgl/src/misc/lv_tlsf.c ****                 int fli, sli;
 2186              		.loc 1 868 25 is_stmt 1 view .LVU890
 2187 0096 4845     		cmp	r0, r9
 2188 0098 D3D1     		bne	.L92
 2189              	.LVL159:
 2190              	.L90:
 868:Drivers/lvgl/src/misc/lv_tlsf.c ****                 int fli, sli;
 2191              		.loc 1 868 25 is_stmt 0 view .LVU891
 2192              	.LBE755:
 848:Drivers/lvgl/src/misc/lv_tlsf.c ****             const int fl_map = control->fl_bitmap & (1U << i);
 2193              		.loc 1 848 40 is_stmt 1 discriminator 2 view .LVU892
 2194 009a 0134     		adds	r4, r4, #1
 2195              	.LVL160:
 848:Drivers/lvgl/src/misc/lv_tlsf.c ****             const int fl_map = control->fl_bitmap & (1U << i);
 2196              		.loc 1 848 22 discriminator 1 view .LVU893
 2197 009c 202C     		cmp	r4, #32
 2198 009e C0D1     		bne	.L110
 847:Drivers/lvgl/src/misc/lv_tlsf.c ****         for(j = 0; j < SL_INDEX_COUNT; ++j) {
 2199              		.loc 1 847 36 discriminator 2 view .LVU894
 2200 00a0 0135     		adds	r5, r5, #1
 2201              	.LVL161:
 847:Drivers/lvgl/src/misc/lv_tlsf.c ****         for(j = 0; j < SL_INDEX_COUNT; ++j) {
 2202              		.loc 1 847 18 discriminator 1 view .LVU895
 2203 00a2 072D     		cmp	r5, #7
 2204 00a4 06F18006 		add	r6, r6, #128
ARM GAS  /var/folders/lp/x54gwt890xv47sdkqj1k04q40000gn/T//cceYwpZM.s 			page 69


 2205 00a8 B4D1     		bne	.L85
 883:Drivers/lvgl/src/misc/lv_tlsf.c **** }
 2206              		.loc 1 883 5 view .LVU896
 884:Drivers/lvgl/src/misc/lv_tlsf.c **** 
 2207              		.loc 1 884 1 is_stmt 0 view .LVU897
 2208 00aa 0020     		movs	r0, #0
 2209              	.LVL162:
 884:Drivers/lvgl/src/misc/lv_tlsf.c **** 
 2210              		.loc 1 884 1 view .LVU898
 2211 00ac BDE8F08F 		pop	{r4, r5, r6, r7, r8, r9, r10, fp, pc}
 2212              	.LVL163:
 2213              	.L99:
 2214              	.LBB756:
 2215              	.LBB750:
 2216              	.LBB748:
 2217              	.LBB740:
 458:Drivers/lvgl/src/misc/lv_tlsf.c ****     return next;
 2218              		.loc 1 458 5 is_stmt 1 discriminator 1 view .LVU899
 458:Drivers/lvgl/src/misc/lv_tlsf.c ****     return next;
 2219              		.loc 1 458 5 discriminator 1 view .LVU900
 458:Drivers/lvgl/src/misc/lv_tlsf.c ****     return next;
 2220              		.loc 1 458 5 discriminator 1 view .LVU901
 458:Drivers/lvgl/src/misc/lv_tlsf.c ****     return next;
 2221              		.loc 1 458 5 discriminator 1 view .LVU902
 458:Drivers/lvgl/src/misc/lv_tlsf.c ****     return next;
 2222              		.loc 1 458 5 discriminator 1 view .LVU903
 458:Drivers/lvgl/src/misc/lv_tlsf.c ****     return next;
 2223              		.loc 1 458 5 discriminator 1 view .LVU904
 458:Drivers/lvgl/src/misc/lv_tlsf.c ****     return next;
 2224              		.loc 1 458 5 discriminator 1 view .LVU905
 458:Drivers/lvgl/src/misc/lv_tlsf.c ****     return next;
 2225              		.loc 1 458 5 discriminator 1 view .LVU906
 458:Drivers/lvgl/src/misc/lv_tlsf.c ****     return next;
 2226              		.loc 1 458 5 discriminator 1 view .LVU907
 458:Drivers/lvgl/src/misc/lv_tlsf.c ****     return next;
 2227              		.loc 1 458 5 discriminator 1 view .LVU908
 2228 00b0 FEE7     		b	.L99
 2229              	.LVL164:
 2230              	.L95:
 458:Drivers/lvgl/src/misc/lv_tlsf.c ****     return next;
 2231              		.loc 1 458 5 is_stmt 0 discriminator 1 view .LVU909
 2232              	.LBE740:
 2233              	.LBE748:
 870:Drivers/lvgl/src/misc/lv_tlsf.c ****                 tlsf_insist(!block_is_prev_free(block) && "blocks should have coalesced");
 2234              		.loc 1 870 17 is_stmt 1 discriminator 3 view .LVU910
 870:Drivers/lvgl/src/misc/lv_tlsf.c ****                 tlsf_insist(!block_is_prev_free(block) && "blocks should have coalesced");
 2235              		.loc 1 870 17 discriminator 3 view .LVU911
 870:Drivers/lvgl/src/misc/lv_tlsf.c ****                 tlsf_insist(!block_is_prev_free(block) && "blocks should have coalesced");
 2236              		.loc 1 870 17 discriminator 3 view .LVU912
 870:Drivers/lvgl/src/misc/lv_tlsf.c ****                 tlsf_insist(!block_is_prev_free(block) && "blocks should have coalesced");
 2237              		.loc 1 870 17 discriminator 3 view .LVU913
 870:Drivers/lvgl/src/misc/lv_tlsf.c ****                 tlsf_insist(!block_is_prev_free(block) && "blocks should have coalesced");
 2238              		.loc 1 870 17 discriminator 3 view .LVU914
 870:Drivers/lvgl/src/misc/lv_tlsf.c ****                 tlsf_insist(!block_is_prev_free(block) && "blocks should have coalesced");
 2239              		.loc 1 870 17 discriminator 3 view .LVU915
 870:Drivers/lvgl/src/misc/lv_tlsf.c ****                 tlsf_insist(!block_is_prev_free(block) && "blocks should have coalesced");
 2240              		.loc 1 870 17 discriminator 3 view .LVU916
ARM GAS  /var/folders/lp/x54gwt890xv47sdkqj1k04q40000gn/T//cceYwpZM.s 			page 70


 870:Drivers/lvgl/src/misc/lv_tlsf.c ****                 tlsf_insist(!block_is_prev_free(block) && "blocks should have coalesced");
 2241              		.loc 1 870 17 discriminator 3 view .LVU917
 870:Drivers/lvgl/src/misc/lv_tlsf.c ****                 tlsf_insist(!block_is_prev_free(block) && "blocks should have coalesced");
 2242              		.loc 1 870 17 discriminator 3 view .LVU918
 870:Drivers/lvgl/src/misc/lv_tlsf.c ****                 tlsf_insist(!block_is_prev_free(block) && "blocks should have coalesced");
 2243              		.loc 1 870 17 discriminator 3 view .LVU919
 2244 00b2 FEE7     		b	.L95
 2245              	.L97:
 871:Drivers/lvgl/src/misc/lv_tlsf.c ****                 tlsf_insist(!block_is_free(block_next(block)) && "blocks should have coalesced");
 2246              		.loc 1 871 17 discriminator 1 view .LVU920
 871:Drivers/lvgl/src/misc/lv_tlsf.c ****                 tlsf_insist(!block_is_free(block_next(block)) && "blocks should have coalesced");
 2247              		.loc 1 871 17 discriminator 1 view .LVU921
 871:Drivers/lvgl/src/misc/lv_tlsf.c ****                 tlsf_insist(!block_is_free(block_next(block)) && "blocks should have coalesced");
 2248              		.loc 1 871 17 discriminator 1 view .LVU922
 871:Drivers/lvgl/src/misc/lv_tlsf.c ****                 tlsf_insist(!block_is_free(block_next(block)) && "blocks should have coalesced");
 2249              		.loc 1 871 17 discriminator 1 view .LVU923
 871:Drivers/lvgl/src/misc/lv_tlsf.c ****                 tlsf_insist(!block_is_free(block_next(block)) && "blocks should have coalesced");
 2250              		.loc 1 871 17 discriminator 1 view .LVU924
 871:Drivers/lvgl/src/misc/lv_tlsf.c ****                 tlsf_insist(!block_is_free(block_next(block)) && "blocks should have coalesced");
 2251              		.loc 1 871 17 discriminator 1 view .LVU925
 871:Drivers/lvgl/src/misc/lv_tlsf.c ****                 tlsf_insist(!block_is_free(block_next(block)) && "blocks should have coalesced");
 2252              		.loc 1 871 17 discriminator 1 view .LVU926
 871:Drivers/lvgl/src/misc/lv_tlsf.c ****                 tlsf_insist(!block_is_free(block_next(block)) && "blocks should have coalesced");
 2253              		.loc 1 871 17 discriminator 1 view .LVU927
 871:Drivers/lvgl/src/misc/lv_tlsf.c ****                 tlsf_insist(!block_is_free(block_next(block)) && "blocks should have coalesced");
 2254              		.loc 1 871 17 discriminator 1 view .LVU928
 871:Drivers/lvgl/src/misc/lv_tlsf.c ****                 tlsf_insist(!block_is_free(block_next(block)) && "blocks should have coalesced");
 2255              		.loc 1 871 17 discriminator 1 view .LVU929
 2256 00b4 FEE7     		b	.L97
 2257              	.LVL165:
 2258              	.L93:
 871:Drivers/lvgl/src/misc/lv_tlsf.c ****                 tlsf_insist(!block_is_free(block_next(block)) && "blocks should have coalesced");
 2259              		.loc 1 871 17 is_stmt 0 discriminator 1 view .LVU930
 2260              	.LBE750:
 866:Drivers/lvgl/src/misc/lv_tlsf.c **** 
 2261              		.loc 1 866 13 is_stmt 1 discriminator 1 view .LVU931
 866:Drivers/lvgl/src/misc/lv_tlsf.c **** 
 2262              		.loc 1 866 13 discriminator 1 view .LVU932
 866:Drivers/lvgl/src/misc/lv_tlsf.c **** 
 2263              		.loc 1 866 13 discriminator 1 view .LVU933
 866:Drivers/lvgl/src/misc/lv_tlsf.c **** 
 2264              		.loc 1 866 13 discriminator 1 view .LVU934
 866:Drivers/lvgl/src/misc/lv_tlsf.c **** 
 2265              		.loc 1 866 13 discriminator 1 view .LVU935
 866:Drivers/lvgl/src/misc/lv_tlsf.c **** 
 2266              		.loc 1 866 13 discriminator 1 view .LVU936
 866:Drivers/lvgl/src/misc/lv_tlsf.c **** 
 2267              		.loc 1 866 13 discriminator 1 view .LVU937
 866:Drivers/lvgl/src/misc/lv_tlsf.c **** 
 2268              		.loc 1 866 13 discriminator 1 view .LVU938
 866:Drivers/lvgl/src/misc/lv_tlsf.c **** 
 2269              		.loc 1 866 13 discriminator 1 view .LVU939
 866:Drivers/lvgl/src/misc/lv_tlsf.c **** 
 2270              		.loc 1 866 13 discriminator 1 view .LVU940
 2271 00b6 FEE7     		b	.L93
 2272              	.LVL166:
 2273              	.L101:
ARM GAS  /var/folders/lp/x54gwt890xv47sdkqj1k04q40000gn/T//cceYwpZM.s 			page 71


 2274              	.LBB751:
 872:Drivers/lvgl/src/misc/lv_tlsf.c ****                 tlsf_insist(block_is_prev_free(block_next(block)) && "block should be free");
 2275              		.loc 1 872 17 discriminator 1 view .LVU941
 872:Drivers/lvgl/src/misc/lv_tlsf.c ****                 tlsf_insist(block_is_prev_free(block_next(block)) && "block should be free");
 2276              		.loc 1 872 17 discriminator 1 view .LVU942
 872:Drivers/lvgl/src/misc/lv_tlsf.c ****                 tlsf_insist(block_is_prev_free(block_next(block)) && "block should be free");
 2277              		.loc 1 872 17 discriminator 1 view .LVU943
 872:Drivers/lvgl/src/misc/lv_tlsf.c ****                 tlsf_insist(block_is_prev_free(block_next(block)) && "block should be free");
 2278              		.loc 1 872 17 discriminator 1 view .LVU944
 872:Drivers/lvgl/src/misc/lv_tlsf.c ****                 tlsf_insist(block_is_prev_free(block_next(block)) && "block should be free");
 2279              		.loc 1 872 17 discriminator 1 view .LVU945
 872:Drivers/lvgl/src/misc/lv_tlsf.c ****                 tlsf_insist(block_is_prev_free(block_next(block)) && "block should be free");
 2280              		.loc 1 872 17 discriminator 1 view .LVU946
 872:Drivers/lvgl/src/misc/lv_tlsf.c ****                 tlsf_insist(block_is_prev_free(block_next(block)) && "block should be free");
 2281              		.loc 1 872 17 discriminator 1 view .LVU947
 872:Drivers/lvgl/src/misc/lv_tlsf.c ****                 tlsf_insist(block_is_prev_free(block_next(block)) && "block should be free");
 2282              		.loc 1 872 17 discriminator 1 view .LVU948
 872:Drivers/lvgl/src/misc/lv_tlsf.c ****                 tlsf_insist(block_is_prev_free(block_next(block)) && "block should be free");
 2283              		.loc 1 872 17 discriminator 1 view .LVU949
 872:Drivers/lvgl/src/misc/lv_tlsf.c ****                 tlsf_insist(block_is_prev_free(block_next(block)) && "block should be free");
 2284              		.loc 1 872 17 discriminator 1 view .LVU950
 2285 00b8 FEE7     		b	.L101
 2286              	.LVL167:
 2287              	.L103:
 873:Drivers/lvgl/src/misc/lv_tlsf.c ****                 tlsf_insist(block_size(block) >= block_size_min && "block not minimum size");
 2288              		.loc 1 873 17 discriminator 3 view .LVU951
 873:Drivers/lvgl/src/misc/lv_tlsf.c ****                 tlsf_insist(block_size(block) >= block_size_min && "block not minimum size");
 2289              		.loc 1 873 17 discriminator 3 view .LVU952
 873:Drivers/lvgl/src/misc/lv_tlsf.c ****                 tlsf_insist(block_size(block) >= block_size_min && "block not minimum size");
 2290              		.loc 1 873 17 discriminator 3 view .LVU953
 873:Drivers/lvgl/src/misc/lv_tlsf.c ****                 tlsf_insist(block_size(block) >= block_size_min && "block not minimum size");
 2291              		.loc 1 873 17 discriminator 3 view .LVU954
 873:Drivers/lvgl/src/misc/lv_tlsf.c ****                 tlsf_insist(block_size(block) >= block_size_min && "block not minimum size");
 2292              		.loc 1 873 17 discriminator 3 view .LVU955
 873:Drivers/lvgl/src/misc/lv_tlsf.c ****                 tlsf_insist(block_size(block) >= block_size_min && "block not minimum size");
 2293              		.loc 1 873 17 discriminator 3 view .LVU956
 873:Drivers/lvgl/src/misc/lv_tlsf.c ****                 tlsf_insist(block_size(block) >= block_size_min && "block not minimum size");
 2294              		.loc 1 873 17 discriminator 3 view .LVU957
 873:Drivers/lvgl/src/misc/lv_tlsf.c ****                 tlsf_insist(block_size(block) >= block_size_min && "block not minimum size");
 2295              		.loc 1 873 17 discriminator 3 view .LVU958
 873:Drivers/lvgl/src/misc/lv_tlsf.c ****                 tlsf_insist(block_size(block) >= block_size_min && "block not minimum size");
 2296              		.loc 1 873 17 discriminator 3 view .LVU959
 873:Drivers/lvgl/src/misc/lv_tlsf.c ****                 tlsf_insist(block_size(block) >= block_size_min && "block not minimum size");
 2297              		.loc 1 873 17 discriminator 3 view .LVU960
 2298 00ba FEE7     		b	.L103
 2299              	.LVL168:
 2300              	.L105:
 874:Drivers/lvgl/src/misc/lv_tlsf.c **** 
 2301              		.loc 1 874 17 discriminator 3 view .LVU961
 874:Drivers/lvgl/src/misc/lv_tlsf.c **** 
 2302              		.loc 1 874 17 discriminator 3 view .LVU962
 874:Drivers/lvgl/src/misc/lv_tlsf.c **** 
 2303              		.loc 1 874 17 discriminator 3 view .LVU963
 874:Drivers/lvgl/src/misc/lv_tlsf.c **** 
 2304              		.loc 1 874 17 discriminator 3 view .LVU964
 874:Drivers/lvgl/src/misc/lv_tlsf.c **** 
 2305              		.loc 1 874 17 discriminator 3 view .LVU965
ARM GAS  /var/folders/lp/x54gwt890xv47sdkqj1k04q40000gn/T//cceYwpZM.s 			page 72


 874:Drivers/lvgl/src/misc/lv_tlsf.c **** 
 2306              		.loc 1 874 17 discriminator 3 view .LVU966
 874:Drivers/lvgl/src/misc/lv_tlsf.c **** 
 2307              		.loc 1 874 17 discriminator 3 view .LVU967
 874:Drivers/lvgl/src/misc/lv_tlsf.c **** 
 2308              		.loc 1 874 17 discriminator 3 view .LVU968
 874:Drivers/lvgl/src/misc/lv_tlsf.c **** 
 2309              		.loc 1 874 17 discriminator 3 view .LVU969
 874:Drivers/lvgl/src/misc/lv_tlsf.c **** 
 2310              		.loc 1 874 17 discriminator 3 view .LVU970
 2311 00bc FEE7     		b	.L105
 2312              	.LVL169:
 2313              	.L120:
 2314              	.LBB749:
 2315              	.LBB747:
 533:Drivers/lvgl/src/misc/lv_tlsf.c ****         sl = tlsf_cast(int, size) / (SMALL_BLOCK_SIZE / SL_INDEX_COUNT);
 2316              		.loc 1 533 9 view .LVU971
 534:Drivers/lvgl/src/misc/lv_tlsf.c ****     }
 2317              		.loc 1 534 9 view .LVU972
 534:Drivers/lvgl/src/misc/lv_tlsf.c ****     }
 2318              		.loc 1 534 12 is_stmt 0 view .LVU973
 2319 00be 9210     		asrs	r2, r2, #2
 2320              	.LVL170:
 534:Drivers/lvgl/src/misc/lv_tlsf.c ****     }
 2321              		.loc 1 534 12 view .LVU974
 2322 00c0 E3E7     		b	.L107
 2323              	.LVL171:
 2324              	.L108:
 2325              	.L118:
 534:Drivers/lvgl/src/misc/lv_tlsf.c ****     }
 2326              		.loc 1 534 12 view .LVU975
 2327              	.LBE747:
 2328              	.LBE749:
 877:Drivers/lvgl/src/misc/lv_tlsf.c ****                 block = block->next_free;
 2329              		.loc 1 877 17 is_stmt 1 discriminator 3 view .LVU976
 877:Drivers/lvgl/src/misc/lv_tlsf.c ****                 block = block->next_free;
 2330              		.loc 1 877 17 discriminator 3 view .LVU977
 877:Drivers/lvgl/src/misc/lv_tlsf.c ****                 block = block->next_free;
 2331              		.loc 1 877 17 discriminator 3 view .LVU978
 877:Drivers/lvgl/src/misc/lv_tlsf.c ****                 block = block->next_free;
 2332              		.loc 1 877 17 discriminator 3 view .LVU979
 877:Drivers/lvgl/src/misc/lv_tlsf.c ****                 block = block->next_free;
 2333              		.loc 1 877 17 discriminator 3 view .LVU980
 877:Drivers/lvgl/src/misc/lv_tlsf.c ****                 block = block->next_free;
 2334              		.loc 1 877 17 discriminator 3 view .LVU981
 877:Drivers/lvgl/src/misc/lv_tlsf.c ****                 block = block->next_free;
 2335              		.loc 1 877 17 discriminator 3 view .LVU982
 877:Drivers/lvgl/src/misc/lv_tlsf.c ****                 block = block->next_free;
 2336              		.loc 1 877 17 discriminator 3 view .LVU983
 877:Drivers/lvgl/src/misc/lv_tlsf.c ****                 block = block->next_free;
 2337              		.loc 1 877 17 discriminator 3 view .LVU984
 877:Drivers/lvgl/src/misc/lv_tlsf.c ****                 block = block->next_free;
 2338              		.loc 1 877 17 discriminator 3 view .LVU985
 2339 00c2 FEE7     		b	.L118
 2340              	.LBE751:
 2341              	.LBE756:
 2342              		.cfi_endproc
ARM GAS  /var/folders/lp/x54gwt890xv47sdkqj1k04q40000gn/T//cceYwpZM.s 			page 73


 2343              	.LFE43:
 2345              		.section	.text.lv_tlsf_walk_pool,"ax",%progbits
 2346              		.align	1
 2347              		.p2align 2,,3
 2348              		.global	lv_tlsf_walk_pool
 2349              		.syntax unified
 2350              		.thumb
 2351              		.thumb_func
 2353              	lv_tlsf_walk_pool:
 2354              	.LVL172:
 2355              	.LFB45:
 893:Drivers/lvgl/src/misc/lv_tlsf.c **** 
 894:Drivers/lvgl/src/misc/lv_tlsf.c **** void lv_tlsf_walk_pool(lv_pool_t pool, lv_tlsf_walker walker, void * user)
 895:Drivers/lvgl/src/misc/lv_tlsf.c **** {
 2356              		.loc 1 895 1 view -0
 2357              		.cfi_startproc
 2358              		@ args = 0, pretend = 0, frame = 0
 2359              		@ frame_needed = 0, uses_anonymous_args = 0
 896:Drivers/lvgl/src/misc/lv_tlsf.c ****     lv_tlsf_walker pool_walker = walker ? walker : default_walker;
 2360              		.loc 1 896 5 view .LVU987
 2361              		.loc 1 896 50 is_stmt 0 discriminator 2 view .LVU988
 2362 0000 104B     		ldr	r3, .L131
 895:Drivers/lvgl/src/misc/lv_tlsf.c ****     lv_tlsf_walker pool_walker = walker ? walker : default_walker;
 2363              		.loc 1 895 1 view .LVU989
 2364 0002 2DE9F041 		push	{r4, r5, r6, r7, r8, lr}
 2365              		.cfi_def_cfa_offset 24
 2366              		.cfi_offset 4, -24
 2367              		.cfi_offset 5, -20
 2368              		.cfi_offset 6, -16
 2369              		.cfi_offset 7, -12
 2370              		.cfi_offset 8, -8
 2371              		.cfi_offset 14, -4
 895:Drivers/lvgl/src/misc/lv_tlsf.c ****     lv_tlsf_walker pool_walker = walker ? walker : default_walker;
 2372              		.loc 1 895 1 view .LVU990
 2373 0006 1746     		mov	r7, r2
 2374              		.loc 1 896 50 discriminator 2 view .LVU991
 2375 0008 0029     		cmp	r1, #0
 2376 000a 14BF     		ite	ne
 2377 000c 8846     		movne	r8, r1
 2378 000e 9846     		moveq	r8, r3
 2379              	.LVL173:
 897:Drivers/lvgl/src/misc/lv_tlsf.c ****     block_header_t * block =
 2380              		.loc 1 897 5 is_stmt 1 view .LVU992
 2381              	.LBB757:
 2382              	.LBI757:
 441:Drivers/lvgl/src/misc/lv_tlsf.c **** {
 2383              		.loc 1 441 25 view .LVU993
 2384              	.LBB758:
 443:Drivers/lvgl/src/misc/lv_tlsf.c **** }
 2385              		.loc 1 443 5 view .LVU994
 443:Drivers/lvgl/src/misc/lv_tlsf.c **** }
 2386              		.loc 1 443 12 is_stmt 0 view .LVU995
 2387 0010 041F     		subs	r4, r0, #4
 2388              	.LVL174:
 443:Drivers/lvgl/src/misc/lv_tlsf.c **** }
 2389              		.loc 1 443 12 view .LVU996
 2390              	.LBE758:
ARM GAS  /var/folders/lp/x54gwt890xv47sdkqj1k04q40000gn/T//cceYwpZM.s 			page 74


 2391              	.LBE757:
 898:Drivers/lvgl/src/misc/lv_tlsf.c ****         offset_to_block(pool, -(int)block_header_overhead);
 899:Drivers/lvgl/src/misc/lv_tlsf.c **** 
 900:Drivers/lvgl/src/misc/lv_tlsf.c ****     while(block && !block_is_last(block)) {
 2392              		.loc 1 900 5 is_stmt 1 view .LVU997
 2393              	.L123:
 901:Drivers/lvgl/src/misc/lv_tlsf.c ****         pool_walker(
 2394              		.loc 1 901 9 view .LVU998
 2395              	.LBB759:
 2396              	.LBI759:
 434:Drivers/lvgl/src/misc/lv_tlsf.c **** {
 2397              		.loc 1 434 15 view .LVU999
 2398              	.LBB760:
 436:Drivers/lvgl/src/misc/lv_tlsf.c ****                      tlsf_cast(unsigned char *, block) + block_start_offset);
 2399              		.loc 1 436 5 view .LVU1000
 436:Drivers/lvgl/src/misc/lv_tlsf.c ****                      tlsf_cast(unsigned char *, block) + block_start_offset);
 2400              		.loc 1 436 5 is_stmt 0 view .LVU1001
 2401              	.LBE760:
 2402              	.LBE759:
 900:Drivers/lvgl/src/misc/lv_tlsf.c ****         pool_walker(
 2403              		.loc 1 900 17 is_stmt 1 view .LVU1002
 2404              	.LBB762:
 2405              	.LBI762:
 393:Drivers/lvgl/src/misc/lv_tlsf.c **** {
 2406              		.loc 1 393 12 view .LVU1003
 395:Drivers/lvgl/src/misc/lv_tlsf.c **** }
 2407              		.loc 1 395 5 view .LVU1004
 2408              	.LBB763:
 2409              	.LBI763:
 382:Drivers/lvgl/src/misc/lv_tlsf.c **** {
 2410              		.loc 1 382 15 view .LVU1005
 2411              	.LBB764:
 384:Drivers/lvgl/src/misc/lv_tlsf.c **** }
 2412              		.loc 1 384 5 view .LVU1006
 2413              	.LBE764:
 2414              	.LBE763:
 2415              	.LBE762:
 2416              	.LBB767:
 2417              	.LBB761:
 436:Drivers/lvgl/src/misc/lv_tlsf.c ****                      tlsf_cast(unsigned char *, block) + block_start_offset);
 2418              		.loc 1 436 12 is_stmt 0 view .LVU1007
 2419 0012 04F10805 		add	r5, r4, #8
 2420              	.LVL175:
 436:Drivers/lvgl/src/misc/lv_tlsf.c ****                      tlsf_cast(unsigned char *, block) + block_start_offset);
 2421              		.loc 1 436 12 view .LVU1008
 2422              	.LBE761:
 2423              	.LBE767:
 2424              	.LBB768:
 2425              	.LBI768:
 382:Drivers/lvgl/src/misc/lv_tlsf.c **** {
 2426              		.loc 1 382 15 is_stmt 1 view .LVU1009
 2427              	.LBB769:
 384:Drivers/lvgl/src/misc/lv_tlsf.c **** }
 2428              		.loc 1 384 5 view .LVU1010
 384:Drivers/lvgl/src/misc/lv_tlsf.c **** }
 2429              		.loc 1 384 5 is_stmt 0 view .LVU1011
 2430              	.LBE769:
ARM GAS  /var/folders/lp/x54gwt890xv47sdkqj1k04q40000gn/T//cceYwpZM.s 			page 75


 2431              	.LBE768:
 2432              		.loc 1 901 9 view .LVU1012
 2433 0016 3B46     		mov	r3, r7
 2434 0018 2846     		mov	r0, r5
 900:Drivers/lvgl/src/misc/lv_tlsf.c ****         pool_walker(
 2435              		.loc 1 900 17 view .LVU1013
 2436 001a 8CB1     		cbz	r4, .L121
 2437              	.LVL176:
 2438              	.LBB770:
 2439              	.LBB766:
 2440              	.LBB765:
 384:Drivers/lvgl/src/misc/lv_tlsf.c **** }
 2441              		.loc 1 384 17 view .LVU1014
 2442 001c 6668     		ldr	r6, [r4, #4]
 2443              	.LVL177:
 384:Drivers/lvgl/src/misc/lv_tlsf.c **** }
 2444              		.loc 1 384 17 view .LVU1015
 2445              	.LBE765:
 2446              	.LBE766:
 2447              	.LBE770:
 2448              		.loc 1 901 9 view .LVU1016
 2449 001e F243     		mvns	r2, r6
 900:Drivers/lvgl/src/misc/lv_tlsf.c ****         pool_walker(
 2450              		.loc 1 900 17 discriminator 1 view .LVU1017
 2451 0020 032E     		cmp	r6, #3
 2452              		.loc 1 901 9 view .LVU1018
 2453 0022 02F00102 		and	r2, r2, #1
 2454 0026 26F00301 		bic	r1, r6, #3
 900:Drivers/lvgl/src/misc/lv_tlsf.c ****         pool_walker(
 2455              		.loc 1 900 17 discriminator 1 view .LVU1019
 2456 002a 09D9     		bls	.L121
 2457              		.loc 1 901 9 view .LVU1020
 2458 002c C047     		blx	r8
 2459              	.LVL178:
 902:Drivers/lvgl/src/misc/lv_tlsf.c ****             block_to_ptr(block),
 903:Drivers/lvgl/src/misc/lv_tlsf.c ****             block_size(block),
 904:Drivers/lvgl/src/misc/lv_tlsf.c ****             !block_is_free(block),
 905:Drivers/lvgl/src/misc/lv_tlsf.c ****             user);
 906:Drivers/lvgl/src/misc/lv_tlsf.c ****         block = block_next(block);
 2460              		.loc 1 906 9 is_stmt 1 view .LVU1021
 2461              	.LBB771:
 2462              	.LBI771:
 454:Drivers/lvgl/src/misc/lv_tlsf.c **** {
 2463              		.loc 1 454 25 view .LVU1022
 2464              	.LBB772:
 456:Drivers/lvgl/src/misc/lv_tlsf.c ****                                             block_size(block) - block_header_overhead);
 2465              		.loc 1 456 5 view .LVU1023
 2466              	.LBB773:
 2467              	.LBI773:
 382:Drivers/lvgl/src/misc/lv_tlsf.c **** {
 2468              		.loc 1 382 15 view .LVU1024
 2469              	.LBB774:
 384:Drivers/lvgl/src/misc/lv_tlsf.c **** }
 2470              		.loc 1 384 5 view .LVU1025
 384:Drivers/lvgl/src/misc/lv_tlsf.c **** }
 2471              		.loc 1 384 17 is_stmt 0 view .LVU1026
 2472 002e 6368     		ldr	r3, [r4, #4]
ARM GAS  /var/folders/lp/x54gwt890xv47sdkqj1k04q40000gn/T//cceYwpZM.s 			page 76


 2473              	.LVL179:
 384:Drivers/lvgl/src/misc/lv_tlsf.c **** }
 2474              		.loc 1 384 17 view .LVU1027
 2475              	.LBE774:
 2476              	.LBE773:
 2477              	.LBB776:
 2478              	.LBI776:
 441:Drivers/lvgl/src/misc/lv_tlsf.c **** {
 2479              		.loc 1 441 25 is_stmt 1 view .LVU1028
 2480              	.LBB777:
 443:Drivers/lvgl/src/misc/lv_tlsf.c **** }
 2481              		.loc 1 443 5 view .LVU1029
 2482              	.LBE777:
 2483              	.LBE776:
 2484              	.LBB780:
 2485              	.LBB775:
 384:Drivers/lvgl/src/misc/lv_tlsf.c **** }
 2486              		.loc 1 384 24 is_stmt 0 view .LVU1030
 2487 0030 23F00302 		bic	r2, r3, #3
 2488              	.LBE775:
 2489              	.LBE780:
 2490              	.LBB781:
 2491              	.LBB778:
 443:Drivers/lvgl/src/misc/lv_tlsf.c **** }
 2492              		.loc 1 443 12 view .LVU1031
 2493 0034 1544     		add	r5, r5, r2
 2494              	.LVL180:
 443:Drivers/lvgl/src/misc/lv_tlsf.c **** }
 2495              		.loc 1 443 12 view .LVU1032
 2496              	.LBE778:
 2497              	.LBE781:
 458:Drivers/lvgl/src/misc/lv_tlsf.c ****     return next;
 2498              		.loc 1 458 5 discriminator 1 view .LVU1033
 2499 0036 032B     		cmp	r3, #3
 2500              	.LBB782:
 2501              	.LBB779:
 443:Drivers/lvgl/src/misc/lv_tlsf.c **** }
 2502              		.loc 1 443 12 view .LVU1034
 2503 0038 A5F10404 		sub	r4, r5, #4
 2504              	.LVL181:
 443:Drivers/lvgl/src/misc/lv_tlsf.c **** }
 2505              		.loc 1 443 12 view .LVU1035
 2506              	.LBE779:
 2507              	.LBE782:
 458:Drivers/lvgl/src/misc/lv_tlsf.c ****     return next;
 2508              		.loc 1 458 5 is_stmt 1 view .LVU1036
 458:Drivers/lvgl/src/misc/lv_tlsf.c ****     return next;
 2509              		.loc 1 458 5 view .LVU1037
 458:Drivers/lvgl/src/misc/lv_tlsf.c ****     return next;
 2510              		.loc 1 458 5 is_stmt 0 discriminator 1 view .LVU1038
 2511 003c E9D8     		bhi	.L123
 2512              	.L124:
 458:Drivers/lvgl/src/misc/lv_tlsf.c ****     return next;
 2513              		.loc 1 458 5 is_stmt 1 discriminator 1 view .LVU1039
 458:Drivers/lvgl/src/misc/lv_tlsf.c ****     return next;
 2514              		.loc 1 458 5 discriminator 1 view .LVU1040
 458:Drivers/lvgl/src/misc/lv_tlsf.c ****     return next;
ARM GAS  /var/folders/lp/x54gwt890xv47sdkqj1k04q40000gn/T//cceYwpZM.s 			page 77


 2515              		.loc 1 458 5 discriminator 1 view .LVU1041
 458:Drivers/lvgl/src/misc/lv_tlsf.c ****     return next;
 2516              		.loc 1 458 5 discriminator 1 view .LVU1042
 458:Drivers/lvgl/src/misc/lv_tlsf.c ****     return next;
 2517              		.loc 1 458 5 discriminator 1 view .LVU1043
 458:Drivers/lvgl/src/misc/lv_tlsf.c ****     return next;
 2518              		.loc 1 458 5 discriminator 1 view .LVU1044
 458:Drivers/lvgl/src/misc/lv_tlsf.c ****     return next;
 2519              		.loc 1 458 5 discriminator 1 view .LVU1045
 458:Drivers/lvgl/src/misc/lv_tlsf.c ****     return next;
 2520              		.loc 1 458 5 discriminator 1 view .LVU1046
 458:Drivers/lvgl/src/misc/lv_tlsf.c ****     return next;
 2521              		.loc 1 458 5 discriminator 1 view .LVU1047
 458:Drivers/lvgl/src/misc/lv_tlsf.c ****     return next;
 2522              		.loc 1 458 5 discriminator 1 view .LVU1048
 2523 003e FEE7     		b	.L124
 2524              	.LVL182:
 2525              	.L121:
 458:Drivers/lvgl/src/misc/lv_tlsf.c ****     return next;
 2526              		.loc 1 458 5 is_stmt 0 discriminator 1 view .LVU1049
 2527              	.LBE772:
 2528              	.LBE771:
 907:Drivers/lvgl/src/misc/lv_tlsf.c ****     }
 908:Drivers/lvgl/src/misc/lv_tlsf.c **** }
 2529              		.loc 1 908 1 view .LVU1050
 2530 0040 BDE8F081 		pop	{r4, r5, r6, r7, r8, pc}
 2531              	.LVL183:
 2532              	.L132:
 2533              		.loc 1 908 1 view .LVU1051
 2534              		.align	2
 2535              	.L131:
 2536 0044 00000000 		.word	default_walker
 2537              		.cfi_endproc
 2538              	.LFE45:
 2540              		.section	.text.lv_tlsf_block_size,"ax",%progbits
 2541              		.align	1
 2542              		.p2align 2,,3
 2543              		.global	lv_tlsf_block_size
 2544              		.syntax unified
 2545              		.thumb
 2546              		.thumb_func
 2548              	lv_tlsf_block_size:
 2549              	.LVL184:
 2550              	.LFB46:
 909:Drivers/lvgl/src/misc/lv_tlsf.c **** 
 910:Drivers/lvgl/src/misc/lv_tlsf.c **** size_t lv_tlsf_block_size(void * ptr)
 911:Drivers/lvgl/src/misc/lv_tlsf.c **** {
 2551              		.loc 1 911 1 is_stmt 1 view -0
 2552              		.cfi_startproc
 2553              		@ args = 0, pretend = 0, frame = 0
 2554              		@ frame_needed = 0, uses_anonymous_args = 0
 2555              		@ link register save eliminated.
 912:Drivers/lvgl/src/misc/lv_tlsf.c ****     size_t size = 0;
 2556              		.loc 1 912 5 view .LVU1053
 913:Drivers/lvgl/src/misc/lv_tlsf.c ****     if(ptr) {
 2557              		.loc 1 913 5 view .LVU1054
 2558              		.loc 1 913 7 is_stmt 0 view .LVU1055
ARM GAS  /var/folders/lp/x54gwt890xv47sdkqj1k04q40000gn/T//cceYwpZM.s 			page 78


 2559 0000 18B1     		cbz	r0, .L133
 2560              	.LBB783:
 914:Drivers/lvgl/src/misc/lv_tlsf.c ****         const block_header_t * block = block_from_ptr(ptr);
 2561              		.loc 1 914 9 is_stmt 1 view .LVU1056
 2562              	.LVL185:
 915:Drivers/lvgl/src/misc/lv_tlsf.c ****         size = block_size(block);
 2563              		.loc 1 915 9 view .LVU1057
 2564              	.LBB784:
 2565              	.LBI784:
 382:Drivers/lvgl/src/misc/lv_tlsf.c **** {
 2566              		.loc 1 382 15 view .LVU1058
 2567              	.LBB785:
 384:Drivers/lvgl/src/misc/lv_tlsf.c **** }
 2568              		.loc 1 384 5 view .LVU1059
 384:Drivers/lvgl/src/misc/lv_tlsf.c **** }
 2569              		.loc 1 384 24 is_stmt 0 view .LVU1060
 2570 0002 50F8040C 		ldr	r0, [r0, #-4]
 2571              	.LVL186:
 384:Drivers/lvgl/src/misc/lv_tlsf.c **** }
 2572              		.loc 1 384 24 view .LVU1061
 2573 0006 20F00300 		bic	r0, r0, #3
 2574              	.LVL187:
 2575              	.L133:
 384:Drivers/lvgl/src/misc/lv_tlsf.c **** }
 2576              		.loc 1 384 24 view .LVU1062
 2577              	.LBE785:
 2578              	.LBE784:
 2579              	.LBE783:
 916:Drivers/lvgl/src/misc/lv_tlsf.c ****     }
 917:Drivers/lvgl/src/misc/lv_tlsf.c ****     return size;
 918:Drivers/lvgl/src/misc/lv_tlsf.c **** }
 2580              		.loc 1 918 1 view .LVU1063
 2581 000a 7047     		bx	lr
 2582              		.cfi_endproc
 2583              	.LFE46:
 2585              		.section	.text.lv_tlsf_check_pool,"ax",%progbits
 2586              		.align	1
 2587              		.p2align 2,,3
 2588              		.global	lv_tlsf_check_pool
 2589              		.syntax unified
 2590              		.thumb
 2591              		.thumb_func
 2593              	lv_tlsf_check_pool:
 2594              	.LVL188:
 2595              	.LFB47:
 919:Drivers/lvgl/src/misc/lv_tlsf.c **** 
 920:Drivers/lvgl/src/misc/lv_tlsf.c **** int lv_tlsf_check_pool(lv_pool_t pool)
 921:Drivers/lvgl/src/misc/lv_tlsf.c **** {
 2596              		.loc 1 921 1 is_stmt 1 view -0
 2597              		.cfi_startproc
 2598              		@ args = 0, pretend = 0, frame = 8
 2599              		@ frame_needed = 0, uses_anonymous_args = 0
 922:Drivers/lvgl/src/misc/lv_tlsf.c ****     /* Check that the blocks are physically correct. */
 923:Drivers/lvgl/src/misc/lv_tlsf.c ****     integrity_t integ = { 0, 0 };
 2600              		.loc 1 923 5 view .LVU1065
 921:Drivers/lvgl/src/misc/lv_tlsf.c ****     /* Check that the blocks are physically correct. */
 2601              		.loc 1 921 1 is_stmt 0 view .LVU1066
ARM GAS  /var/folders/lp/x54gwt890xv47sdkqj1k04q40000gn/T//cceYwpZM.s 			page 79


 2602 0000 00B5     		push	{lr}
 2603              		.cfi_def_cfa_offset 4
 2604              		.cfi_offset 14, -4
 2605              		.loc 1 923 17 view .LVU1067
 2606 0002 9FED077B 		vldr.64	d7, .L138	@ int
 921:Drivers/lvgl/src/misc/lv_tlsf.c ****     /* Check that the blocks are physically correct. */
 2607              		.loc 1 921 1 view .LVU1068
 2608 0006 83B0     		sub	sp, sp, #12
 2609              		.cfi_def_cfa_offset 16
 924:Drivers/lvgl/src/misc/lv_tlsf.c ****     lv_tlsf_walk_pool(pool, integrity_walker, &integ);
 2610              		.loc 1 924 5 view .LVU1069
 2611 0008 0749     		ldr	r1, .L138+8
 2612 000a 6A46     		mov	r2, sp
 923:Drivers/lvgl/src/misc/lv_tlsf.c ****     lv_tlsf_walk_pool(pool, integrity_walker, &integ);
 2613              		.loc 1 923 17 view .LVU1070
 2614 000c 8DED007B 		vstr.64	d7, [sp]	@ int
 2615              		.loc 1 924 5 is_stmt 1 view .LVU1071
 2616 0010 FFF7FEFF 		bl	lv_tlsf_walk_pool
 2617              	.LVL189:
 925:Drivers/lvgl/src/misc/lv_tlsf.c **** 
 926:Drivers/lvgl/src/misc/lv_tlsf.c ****     return integ.status;
 2618              		.loc 1 926 5 view .LVU1072
 927:Drivers/lvgl/src/misc/lv_tlsf.c **** }
 2619              		.loc 1 927 1 is_stmt 0 view .LVU1073
 2620 0014 0198     		ldr	r0, [sp, #4]
 2621 0016 03B0     		add	sp, sp, #12
 2622              		.cfi_def_cfa_offset 4
 2623              		@ sp needed
 2624 0018 5DF804FB 		ldr	pc, [sp], #4
 2625              	.L139:
 2626 001c AFF30080 		.align	3
 2627              	.L138:
 2628 0020 00000000 		.word	0
 2629 0024 00000000 		.word	0
 2630 0028 00000000 		.word	integrity_walker
 2631              		.cfi_endproc
 2632              	.LFE47:
 2634              		.section	.text.lv_tlsf_size,"ax",%progbits
 2635              		.align	1
 2636              		.p2align 2,,3
 2637              		.global	lv_tlsf_size
