ARM GAS  /var/folders/lp/x54gwt890xv47sdkqj1k04q40000gn/T//ccf0N3ow.s 			page 1


   1              		.cpu cortex-m4
   2              		.arch armv7e-m
   3              		.fpu fpv4-sp-d16
   4              		.eabi_attribute 27, 1
   5              		.eabi_attribute 28, 1
   6              		.eabi_attribute 20, 1
   7              		.eabi_attribute 21, 1
   8              		.eabi_attribute 23, 3
   9              		.eabi_attribute 24, 1
  10              		.eabi_attribute 25, 1
  11              		.eabi_attribute 26, 1
  12              		.eabi_attribute 30, 2
  13              		.eabi_attribute 34, 1
  14              		.eabi_attribute 18, 4
  15              		.file	"lv_txt.c"
  16              		.text
  17              	.Ltext0:
  18              		.cfi_sections	.debug_frame
  19              		.file 1 "Drivers/lvgl/src/misc/lv_txt.c"
  20              		.section	.text.lv_txt_utf8_size,"ax",%progbits
  21              		.align	1
  22              		.p2align 2,,3
  23              		.syntax unified
  24              		.thumb
  25              		.thumb_func
  27              	lv_txt_utf8_size:
  28              	.LVL0:
  29              	.LFB64:
   1:Drivers/lvgl/src/misc/lv_txt.c **** /**
   2:Drivers/lvgl/src/misc/lv_txt.c ****  * @file lv_txt.c
   3:Drivers/lvgl/src/misc/lv_txt.c ****  *
   4:Drivers/lvgl/src/misc/lv_txt.c ****  */
   5:Drivers/lvgl/src/misc/lv_txt.c **** 
   6:Drivers/lvgl/src/misc/lv_txt.c **** /*********************
   7:Drivers/lvgl/src/misc/lv_txt.c ****  *      INCLUDES
   8:Drivers/lvgl/src/misc/lv_txt.c ****  *********************/
   9:Drivers/lvgl/src/misc/lv_txt.c **** #include <stdarg.h>
  10:Drivers/lvgl/src/misc/lv_txt.c **** #include "lv_txt.h"
  11:Drivers/lvgl/src/misc/lv_txt.c **** #include "lv_txt_ap.h"
  12:Drivers/lvgl/src/misc/lv_txt.c **** #include "lv_math.h"
  13:Drivers/lvgl/src/misc/lv_txt.c **** #include "lv_log.h"
  14:Drivers/lvgl/src/misc/lv_txt.c **** #include "lv_mem.h"
  15:Drivers/lvgl/src/misc/lv_txt.c **** #include "lv_assert.h"
  16:Drivers/lvgl/src/misc/lv_txt.c **** 
  17:Drivers/lvgl/src/misc/lv_txt.c **** /*********************
  18:Drivers/lvgl/src/misc/lv_txt.c ****  *      DEFINES
  19:Drivers/lvgl/src/misc/lv_txt.c ****  *********************/
  20:Drivers/lvgl/src/misc/lv_txt.c **** #define NO_BREAK_FOUND UINT32_MAX
  21:Drivers/lvgl/src/misc/lv_txt.c **** 
  22:Drivers/lvgl/src/misc/lv_txt.c **** /**********************
  23:Drivers/lvgl/src/misc/lv_txt.c ****  *      TYPEDEFS
  24:Drivers/lvgl/src/misc/lv_txt.c ****  **********************/
  25:Drivers/lvgl/src/misc/lv_txt.c **** 
  26:Drivers/lvgl/src/misc/lv_txt.c **** /**********************
  27:Drivers/lvgl/src/misc/lv_txt.c ****  *  STATIC PROTOTYPES
  28:Drivers/lvgl/src/misc/lv_txt.c ****  **********************/
  29:Drivers/lvgl/src/misc/lv_txt.c **** 
ARM GAS  /var/folders/lp/x54gwt890xv47sdkqj1k04q40000gn/T//ccf0N3ow.s 			page 2


  30:Drivers/lvgl/src/misc/lv_txt.c **** #if LV_TXT_ENC == LV_TXT_ENC_UTF8
  31:Drivers/lvgl/src/misc/lv_txt.c ****     static uint8_t lv_txt_utf8_size(const char * str);
  32:Drivers/lvgl/src/misc/lv_txt.c ****     static uint32_t lv_txt_unicode_to_utf8(uint32_t letter_uni);
  33:Drivers/lvgl/src/misc/lv_txt.c ****     static uint32_t lv_txt_utf8_conv_wc(uint32_t c);
  34:Drivers/lvgl/src/misc/lv_txt.c ****     static uint32_t lv_txt_utf8_next(const char * txt, uint32_t * i);
  35:Drivers/lvgl/src/misc/lv_txt.c ****     static uint32_t lv_txt_utf8_prev(const char * txt, uint32_t * i_start);
  36:Drivers/lvgl/src/misc/lv_txt.c ****     static uint32_t lv_txt_utf8_get_byte_id(const char * txt, uint32_t utf8_id);
  37:Drivers/lvgl/src/misc/lv_txt.c ****     static uint32_t lv_txt_utf8_get_char_id(const char * txt, uint32_t byte_id);
  38:Drivers/lvgl/src/misc/lv_txt.c ****     static uint32_t lv_txt_utf8_get_length(const char * txt);
  39:Drivers/lvgl/src/misc/lv_txt.c **** #elif LV_TXT_ENC == LV_TXT_ENC_ASCII
  40:Drivers/lvgl/src/misc/lv_txt.c ****     static uint8_t lv_txt_iso8859_1_size(const char * str);
  41:Drivers/lvgl/src/misc/lv_txt.c ****     static uint32_t lv_txt_unicode_to_iso8859_1(uint32_t letter_uni);
  42:Drivers/lvgl/src/misc/lv_txt.c ****     static uint32_t lv_txt_iso8859_1_conv_wc(uint32_t c);
  43:Drivers/lvgl/src/misc/lv_txt.c ****     static uint32_t lv_txt_iso8859_1_next(const char * txt, uint32_t * i);
  44:Drivers/lvgl/src/misc/lv_txt.c ****     static uint32_t lv_txt_iso8859_1_prev(const char * txt, uint32_t * i_start);
  45:Drivers/lvgl/src/misc/lv_txt.c ****     static uint32_t lv_txt_iso8859_1_get_byte_id(const char * txt, uint32_t utf8_id);
  46:Drivers/lvgl/src/misc/lv_txt.c ****     static uint32_t lv_txt_iso8859_1_get_char_id(const char * txt, uint32_t byte_id);
  47:Drivers/lvgl/src/misc/lv_txt.c ****     static uint32_t lv_txt_iso8859_1_get_length(const char * txt);
  48:Drivers/lvgl/src/misc/lv_txt.c **** #endif
  49:Drivers/lvgl/src/misc/lv_txt.c **** /**********************
  50:Drivers/lvgl/src/misc/lv_txt.c ****  *  STATIC VARIABLES
  51:Drivers/lvgl/src/misc/lv_txt.c ****  **********************/
  52:Drivers/lvgl/src/misc/lv_txt.c **** 
  53:Drivers/lvgl/src/misc/lv_txt.c **** /**********************
  54:Drivers/lvgl/src/misc/lv_txt.c ****  *  GLOBAL VARIABLES
  55:Drivers/lvgl/src/misc/lv_txt.c ****  **********************/
  56:Drivers/lvgl/src/misc/lv_txt.c **** #if LV_TXT_ENC == LV_TXT_ENC_UTF8
  57:Drivers/lvgl/src/misc/lv_txt.c ****     uint8_t (*_lv_txt_encoded_size)(const char *)                   = lv_txt_utf8_size;
  58:Drivers/lvgl/src/misc/lv_txt.c ****     uint32_t (*_lv_txt_unicode_to_encoded)(uint32_t)                = lv_txt_unicode_to_utf8;
  59:Drivers/lvgl/src/misc/lv_txt.c ****     uint32_t (*_lv_txt_encoded_conv_wc)(uint32_t)                   = lv_txt_utf8_conv_wc;
  60:Drivers/lvgl/src/misc/lv_txt.c ****     uint32_t (*_lv_txt_encoded_next)(const char *, uint32_t *)      = lv_txt_utf8_next;
  61:Drivers/lvgl/src/misc/lv_txt.c ****     uint32_t (*_lv_txt_encoded_prev)(const char *, uint32_t *)      = lv_txt_utf8_prev;
  62:Drivers/lvgl/src/misc/lv_txt.c ****     uint32_t (*_lv_txt_encoded_get_byte_id)(const char *, uint32_t) = lv_txt_utf8_get_byte_id;
  63:Drivers/lvgl/src/misc/lv_txt.c ****     uint32_t (*_lv_txt_encoded_get_char_id)(const char *, uint32_t) = lv_txt_utf8_get_char_id;
  64:Drivers/lvgl/src/misc/lv_txt.c ****     uint32_t (*_lv_txt_get_encoded_length)(const char *)            = lv_txt_utf8_get_length;
  65:Drivers/lvgl/src/misc/lv_txt.c **** #elif LV_TXT_ENC == LV_TXT_ENC_ASCII
  66:Drivers/lvgl/src/misc/lv_txt.c ****     uint8_t (*_lv_txt_encoded_size)(const char *)                   = lv_txt_iso8859_1_size;
  67:Drivers/lvgl/src/misc/lv_txt.c ****     uint32_t (*_lv_txt_unicode_to_encoded)(uint32_t)                = lv_txt_unicode_to_iso8859_1;
  68:Drivers/lvgl/src/misc/lv_txt.c ****     uint32_t (*_lv_txt_encoded_conv_wc)(uint32_t)                   = lv_txt_iso8859_1_conv_wc;
  69:Drivers/lvgl/src/misc/lv_txt.c ****     uint32_t (*_lv_txt_encoded_next)(const char *, uint32_t *)      = lv_txt_iso8859_1_next;
  70:Drivers/lvgl/src/misc/lv_txt.c ****     uint32_t (*_lv_txt_encoded_prev)(const char *, uint32_t *)      = lv_txt_iso8859_1_prev;
  71:Drivers/lvgl/src/misc/lv_txt.c ****     uint32_t (*_lv_txt_encoded_get_byte_id)(const char *, uint32_t) = lv_txt_iso8859_1_get_byte_id;
  72:Drivers/lvgl/src/misc/lv_txt.c ****     uint32_t (*_lv_txt_encoded_get_char_id)(const char *, uint32_t)     = lv_txt_iso8859_1_get_char
  73:Drivers/lvgl/src/misc/lv_txt.c ****     uint32_t (*_lv_txt_get_encoded_length)(const char *)            = lv_txt_iso8859_1_get_length;
  74:Drivers/lvgl/src/misc/lv_txt.c **** 
  75:Drivers/lvgl/src/misc/lv_txt.c **** #endif
  76:Drivers/lvgl/src/misc/lv_txt.c **** 
  77:Drivers/lvgl/src/misc/lv_txt.c **** /**********************
  78:Drivers/lvgl/src/misc/lv_txt.c ****  *      MACROS
  79:Drivers/lvgl/src/misc/lv_txt.c ****  **********************/
  80:Drivers/lvgl/src/misc/lv_txt.c **** 
  81:Drivers/lvgl/src/misc/lv_txt.c **** #define LV_IS_ASCII(value)              ((value & 0x80U) == 0x00U)
  82:Drivers/lvgl/src/misc/lv_txt.c **** #define LV_IS_2BYTES_UTF8_CODE(value)   ((value & 0xE0U) == 0xC0U)
  83:Drivers/lvgl/src/misc/lv_txt.c **** #define LV_IS_3BYTES_UTF8_CODE(value)   ((value & 0xF0U) == 0xE0U)
  84:Drivers/lvgl/src/misc/lv_txt.c **** #define LV_IS_4BYTES_UTF8_CODE(value)   ((value & 0xF8U) == 0xF0U)
  85:Drivers/lvgl/src/misc/lv_txt.c **** #define LV_IS_INVALID_UTF8_CODE(value)  ((value & 0xC0U) != 0x80U)
  86:Drivers/lvgl/src/misc/lv_txt.c **** 
ARM GAS  /var/folders/lp/x54gwt890xv47sdkqj1k04q40000gn/T//ccf0N3ow.s 			page 3


  87:Drivers/lvgl/src/misc/lv_txt.c **** /**********************
  88:Drivers/lvgl/src/misc/lv_txt.c ****  *   GLOBAL FUNCTIONS
  89:Drivers/lvgl/src/misc/lv_txt.c ****  **********************/
  90:Drivers/lvgl/src/misc/lv_txt.c **** 
  91:Drivers/lvgl/src/misc/lv_txt.c **** void lv_txt_get_size(lv_point_t * size_res, const char * text, const lv_font_t * font, lv_coord_t l
  92:Drivers/lvgl/src/misc/lv_txt.c ****                      lv_coord_t line_space, lv_coord_t max_width, lv_text_flag_t flag)
  93:Drivers/lvgl/src/misc/lv_txt.c **** {
  94:Drivers/lvgl/src/misc/lv_txt.c ****     size_res->x = 0;
  95:Drivers/lvgl/src/misc/lv_txt.c ****     size_res->y = 0;
  96:Drivers/lvgl/src/misc/lv_txt.c **** 
  97:Drivers/lvgl/src/misc/lv_txt.c ****     if(text == NULL) return;
  98:Drivers/lvgl/src/misc/lv_txt.c ****     if(font == NULL) return;
  99:Drivers/lvgl/src/misc/lv_txt.c **** 
 100:Drivers/lvgl/src/misc/lv_txt.c ****     if(flag & LV_TEXT_FLAG_EXPAND) max_width = LV_COORD_MAX;
 101:Drivers/lvgl/src/misc/lv_txt.c **** 
 102:Drivers/lvgl/src/misc/lv_txt.c ****     uint32_t line_start     = 0;
 103:Drivers/lvgl/src/misc/lv_txt.c ****     uint32_t new_line_start = 0;
 104:Drivers/lvgl/src/misc/lv_txt.c ****     uint16_t letter_height = lv_font_get_line_height(font);
 105:Drivers/lvgl/src/misc/lv_txt.c **** 
 106:Drivers/lvgl/src/misc/lv_txt.c ****     /*Calc. the height and longest line*/
 107:Drivers/lvgl/src/misc/lv_txt.c ****     while(text[line_start] != '\0') {
 108:Drivers/lvgl/src/misc/lv_txt.c ****         new_line_start += _lv_txt_get_next_line(&text[line_start], font, letter_space, max_width, N
 109:Drivers/lvgl/src/misc/lv_txt.c **** 
 110:Drivers/lvgl/src/misc/lv_txt.c ****         if((unsigned long)size_res->y + (unsigned long)letter_height + (unsigned long)line_space > 
 111:Drivers/lvgl/src/misc/lv_txt.c ****             LV_LOG_WARN("lv_txt_get_size: integer overflow while calculating text height");
 112:Drivers/lvgl/src/misc/lv_txt.c ****             return;
 113:Drivers/lvgl/src/misc/lv_txt.c ****         }
 114:Drivers/lvgl/src/misc/lv_txt.c ****         else {
 115:Drivers/lvgl/src/misc/lv_txt.c ****             size_res->y += letter_height;
 116:Drivers/lvgl/src/misc/lv_txt.c ****             size_res->y += line_space;
 117:Drivers/lvgl/src/misc/lv_txt.c ****         }
 118:Drivers/lvgl/src/misc/lv_txt.c **** 
 119:Drivers/lvgl/src/misc/lv_txt.c ****         /*Calculate the longest line*/
 120:Drivers/lvgl/src/misc/lv_txt.c ****         lv_coord_t act_line_length = lv_txt_get_width(&text[line_start], new_line_start - line_star
 121:Drivers/lvgl/src/misc/lv_txt.c ****                                                       flag);
 122:Drivers/lvgl/src/misc/lv_txt.c **** 
 123:Drivers/lvgl/src/misc/lv_txt.c ****         size_res->x = LV_MAX(act_line_length, size_res->x);
 124:Drivers/lvgl/src/misc/lv_txt.c ****         line_start  = new_line_start;
 125:Drivers/lvgl/src/misc/lv_txt.c ****     }
 126:Drivers/lvgl/src/misc/lv_txt.c **** 
 127:Drivers/lvgl/src/misc/lv_txt.c ****     /*Make the text one line taller if the last character is '\n' or '\r'*/
 128:Drivers/lvgl/src/misc/lv_txt.c ****     if((line_start != 0) && (text[line_start - 1] == '\n' || text[line_start - 1] == '\r')) {
 129:Drivers/lvgl/src/misc/lv_txt.c ****         size_res->y += letter_height + line_space;
 130:Drivers/lvgl/src/misc/lv_txt.c ****     }
 131:Drivers/lvgl/src/misc/lv_txt.c **** 
 132:Drivers/lvgl/src/misc/lv_txt.c ****     /*Correction with the last line space or set the height manually if the text is empty*/
 133:Drivers/lvgl/src/misc/lv_txt.c ****     if(size_res->y == 0)
 134:Drivers/lvgl/src/misc/lv_txt.c ****         size_res->y = letter_height;
 135:Drivers/lvgl/src/misc/lv_txt.c ****     else
 136:Drivers/lvgl/src/misc/lv_txt.c ****         size_res->y -= line_space;
 137:Drivers/lvgl/src/misc/lv_txt.c **** }
 138:Drivers/lvgl/src/misc/lv_txt.c **** 
 139:Drivers/lvgl/src/misc/lv_txt.c **** /**
 140:Drivers/lvgl/src/misc/lv_txt.c ****  * Get the next word of text. A word is delimited by break characters.
 141:Drivers/lvgl/src/misc/lv_txt.c ****  *
 142:Drivers/lvgl/src/misc/lv_txt.c ****  * If the word cannot fit in the max_width space, obey LV_TXT_LINE_BREAK_LONG_* rules.
 143:Drivers/lvgl/src/misc/lv_txt.c ****  *
ARM GAS  /var/folders/lp/x54gwt890xv47sdkqj1k04q40000gn/T//ccf0N3ow.s 			page 4


 144:Drivers/lvgl/src/misc/lv_txt.c ****  * If the next word cannot fit anything, return 0.
 145:Drivers/lvgl/src/misc/lv_txt.c ****  *
 146:Drivers/lvgl/src/misc/lv_txt.c ****  * If the first character is a break character, returns the next index.
 147:Drivers/lvgl/src/misc/lv_txt.c ****  *
 148:Drivers/lvgl/src/misc/lv_txt.c ****  * Example calls from lv_txt_get_next_line() assuming sufficient max_width and
 149:Drivers/lvgl/src/misc/lv_txt.c ****  * txt = "Test text\n"
 150:Drivers/lvgl/src/misc/lv_txt.c ****  *        0123456789
 151:Drivers/lvgl/src/misc/lv_txt.c ****  *
 152:Drivers/lvgl/src/misc/lv_txt.c ****  * Calls would be as follows:
 153:Drivers/lvgl/src/misc/lv_txt.c ****  *     1. Return i=4, pointing at breakchar ' ', for the string "Test"
 154:Drivers/lvgl/src/misc/lv_txt.c ****  *     2. Return i=5, since i=4 was a breakchar.
 155:Drivers/lvgl/src/misc/lv_txt.c ****  *     3. Return i=9, pointing at breakchar '\n'
 156:Drivers/lvgl/src/misc/lv_txt.c ****  *     4. Parenting lv_txt_get_next_line() would detect subsequent '\0'
 157:Drivers/lvgl/src/misc/lv_txt.c ****  *
 158:Drivers/lvgl/src/misc/lv_txt.c ****  * TODO: Returned word_w_ptr may overestimate the returned word's width when
 159:Drivers/lvgl/src/misc/lv_txt.c ****  * max_width is reached. In current usage, this has no impact.
 160:Drivers/lvgl/src/misc/lv_txt.c ****  *
 161:Drivers/lvgl/src/misc/lv_txt.c ****  * @param txt a '\0' terminated string
 162:Drivers/lvgl/src/misc/lv_txt.c ****  * @param font pointer to a font
 163:Drivers/lvgl/src/misc/lv_txt.c ****  * @param letter_space letter space
 164:Drivers/lvgl/src/misc/lv_txt.c ****  * @param max_width max width of the text (break the lines to fit this size). Set COORD_MAX to avoi
 165:Drivers/lvgl/src/misc/lv_txt.c ****  * @param flags settings for the text from 'txt_flag_type' enum
 166:Drivers/lvgl/src/misc/lv_txt.c ****  * @param[out] word_w_ptr width (in pixels) of the parsed word. May be NULL.
 167:Drivers/lvgl/src/misc/lv_txt.c ****  * @param cmd_state pointer to a txt_cmd_state_t variable which stores the current state of command
 168:Drivers/lvgl/src/misc/lv_txt.c ****  * @param force Force return the fraction of the word that can fit in the provided space.
 169:Drivers/lvgl/src/misc/lv_txt.c ****  * @return the index of the first char of the next word (in byte index not letter index. With UTF-8
 170:Drivers/lvgl/src/misc/lv_txt.c ****  */
 171:Drivers/lvgl/src/misc/lv_txt.c **** static uint32_t lv_txt_get_next_word(const char * txt, const lv_font_t * font,
 172:Drivers/lvgl/src/misc/lv_txt.c ****                                      lv_coord_t letter_space, lv_coord_t max_width,
 173:Drivers/lvgl/src/misc/lv_txt.c ****                                      lv_text_flag_t flag, uint32_t * word_w_ptr, lv_text_cmd_state_
 174:Drivers/lvgl/src/misc/lv_txt.c **** {
 175:Drivers/lvgl/src/misc/lv_txt.c ****     if(txt == NULL || txt[0] == '\0') return 0;
 176:Drivers/lvgl/src/misc/lv_txt.c ****     if(font == NULL) return 0;
 177:Drivers/lvgl/src/misc/lv_txt.c **** 
 178:Drivers/lvgl/src/misc/lv_txt.c ****     if(flag & LV_TEXT_FLAG_EXPAND) max_width = LV_COORD_MAX;
 179:Drivers/lvgl/src/misc/lv_txt.c **** 
 180:Drivers/lvgl/src/misc/lv_txt.c ****     uint32_t i = 0, i_next = 0, i_next_next = 0;  /*Iterating index into txt*/
 181:Drivers/lvgl/src/misc/lv_txt.c ****     uint32_t letter = 0;      /*Letter at i*/
 182:Drivers/lvgl/src/misc/lv_txt.c ****     uint32_t letter_next = 0; /*Letter at i_next*/
 183:Drivers/lvgl/src/misc/lv_txt.c ****     lv_coord_t letter_w;
 184:Drivers/lvgl/src/misc/lv_txt.c ****     lv_coord_t cur_w = 0;  /*Pixel Width of transversed string*/
 185:Drivers/lvgl/src/misc/lv_txt.c ****     uint32_t word_len = 0;   /*Number of characters in the transversed word*/
 186:Drivers/lvgl/src/misc/lv_txt.c ****     uint32_t break_index = NO_BREAK_FOUND; /*only used for "long" words*/
 187:Drivers/lvgl/src/misc/lv_txt.c ****     uint32_t break_letter_count = 0; /*Number of characters up to the long word break point*/
 188:Drivers/lvgl/src/misc/lv_txt.c **** 
 189:Drivers/lvgl/src/misc/lv_txt.c ****     letter = _lv_txt_encoded_next(txt, &i_next);
 190:Drivers/lvgl/src/misc/lv_txt.c ****     i_next_next = i_next;
 191:Drivers/lvgl/src/misc/lv_txt.c **** 
 192:Drivers/lvgl/src/misc/lv_txt.c ****     /*Obtain the full word, regardless if it fits or not in max_width*/
 193:Drivers/lvgl/src/misc/lv_txt.c ****     while(txt[i] != '\0') {
 194:Drivers/lvgl/src/misc/lv_txt.c ****         letter_next = _lv_txt_encoded_next(txt, &i_next_next);
 195:Drivers/lvgl/src/misc/lv_txt.c ****         word_len++;
 196:Drivers/lvgl/src/misc/lv_txt.c **** 
 197:Drivers/lvgl/src/misc/lv_txt.c ****         /*Handle the recolor command*/
 198:Drivers/lvgl/src/misc/lv_txt.c ****         if((flag & LV_TEXT_FLAG_RECOLOR) != 0) {
 199:Drivers/lvgl/src/misc/lv_txt.c ****             if(_lv_txt_is_cmd(cmd_state, letter) != false) {
 200:Drivers/lvgl/src/misc/lv_txt.c ****                 i = i_next;
ARM GAS  /var/folders/lp/x54gwt890xv47sdkqj1k04q40000gn/T//ccf0N3ow.s 			page 5


 201:Drivers/lvgl/src/misc/lv_txt.c ****                 i_next = i_next_next;
 202:Drivers/lvgl/src/misc/lv_txt.c ****                 letter = letter_next;
 203:Drivers/lvgl/src/misc/lv_txt.c ****                 continue;   /*Skip the letter if it is part of a command*/
 204:Drivers/lvgl/src/misc/lv_txt.c ****             }
 205:Drivers/lvgl/src/misc/lv_txt.c ****         }
 206:Drivers/lvgl/src/misc/lv_txt.c **** 
 207:Drivers/lvgl/src/misc/lv_txt.c ****         letter_w = lv_font_get_glyph_width(font, letter, letter_next);
 208:Drivers/lvgl/src/misc/lv_txt.c ****         cur_w += letter_w;
 209:Drivers/lvgl/src/misc/lv_txt.c **** 
 210:Drivers/lvgl/src/misc/lv_txt.c ****         if(letter_w > 0) {
 211:Drivers/lvgl/src/misc/lv_txt.c ****             cur_w += letter_space;
 212:Drivers/lvgl/src/misc/lv_txt.c ****         }
 213:Drivers/lvgl/src/misc/lv_txt.c **** 
 214:Drivers/lvgl/src/misc/lv_txt.c ****         /*Test if this character fits within max_width*/
 215:Drivers/lvgl/src/misc/lv_txt.c ****         if(break_index == NO_BREAK_FOUND && (cur_w - letter_space) > max_width) {
 216:Drivers/lvgl/src/misc/lv_txt.c ****             break_index = i;
 217:Drivers/lvgl/src/misc/lv_txt.c ****             break_letter_count = word_len - 1;
 218:Drivers/lvgl/src/misc/lv_txt.c ****             /*break_index is now pointing at the character that doesn't fit*/
 219:Drivers/lvgl/src/misc/lv_txt.c ****         }
 220:Drivers/lvgl/src/misc/lv_txt.c **** 
 221:Drivers/lvgl/src/misc/lv_txt.c ****         /*Check for new line chars and breakchars*/
 222:Drivers/lvgl/src/misc/lv_txt.c ****         if(letter == '\n' || letter == '\r' || _lv_txt_is_break_char(letter)) {
 223:Drivers/lvgl/src/misc/lv_txt.c ****             /*Update the output width on the first character if it fits.
 224:Drivers/lvgl/src/misc/lv_txt.c ****              *Must do this here in case first letter is a break character.*/
 225:Drivers/lvgl/src/misc/lv_txt.c ****             if(i == 0 && break_index == NO_BREAK_FOUND && word_w_ptr != NULL) *word_w_ptr = cur_w;
 226:Drivers/lvgl/src/misc/lv_txt.c ****             word_len--;
 227:Drivers/lvgl/src/misc/lv_txt.c ****             break;
 228:Drivers/lvgl/src/misc/lv_txt.c ****         }
 229:Drivers/lvgl/src/misc/lv_txt.c **** 
 230:Drivers/lvgl/src/misc/lv_txt.c ****         /*Update the output width*/
 231:Drivers/lvgl/src/misc/lv_txt.c ****         if(word_w_ptr != NULL && break_index == NO_BREAK_FOUND) *word_w_ptr = cur_w;
 232:Drivers/lvgl/src/misc/lv_txt.c **** 
 233:Drivers/lvgl/src/misc/lv_txt.c ****         i = i_next;
 234:Drivers/lvgl/src/misc/lv_txt.c ****         i_next = i_next_next;
 235:Drivers/lvgl/src/misc/lv_txt.c ****         letter = letter_next;
 236:Drivers/lvgl/src/misc/lv_txt.c ****     }
 237:Drivers/lvgl/src/misc/lv_txt.c **** 
 238:Drivers/lvgl/src/misc/lv_txt.c ****     /*Entire Word fits in the provided space*/
 239:Drivers/lvgl/src/misc/lv_txt.c ****     if(break_index == NO_BREAK_FOUND) {
 240:Drivers/lvgl/src/misc/lv_txt.c ****         if(word_len == 0 || (letter == '\r' && letter_next == '\n')) i = i_next;
 241:Drivers/lvgl/src/misc/lv_txt.c ****         return i;
 242:Drivers/lvgl/src/misc/lv_txt.c ****     }
 243:Drivers/lvgl/src/misc/lv_txt.c **** 
 244:Drivers/lvgl/src/misc/lv_txt.c **** #if LV_TXT_LINE_BREAK_LONG_LEN > 0
 245:Drivers/lvgl/src/misc/lv_txt.c ****     /*Word doesn't fit in provided space, but isn't "long"*/
 246:Drivers/lvgl/src/misc/lv_txt.c ****     if(word_len < LV_TXT_LINE_BREAK_LONG_LEN) {
 247:Drivers/lvgl/src/misc/lv_txt.c ****         if(force) return break_index;
 248:Drivers/lvgl/src/misc/lv_txt.c ****         if(word_w_ptr != NULL) *word_w_ptr = 0; /*Return no word*/
 249:Drivers/lvgl/src/misc/lv_txt.c ****         return 0;
 250:Drivers/lvgl/src/misc/lv_txt.c ****     }
 251:Drivers/lvgl/src/misc/lv_txt.c **** 
 252:Drivers/lvgl/src/misc/lv_txt.c ****     /*Word is "long," but insufficient amounts can fit in provided space*/
 253:Drivers/lvgl/src/misc/lv_txt.c ****     if(break_letter_count < LV_TXT_LINE_BREAK_LONG_PRE_MIN_LEN) {
 254:Drivers/lvgl/src/misc/lv_txt.c ****         if(force) return break_index;
 255:Drivers/lvgl/src/misc/lv_txt.c ****         if(word_w_ptr != NULL) *word_w_ptr = 0;
 256:Drivers/lvgl/src/misc/lv_txt.c ****         return 0;
 257:Drivers/lvgl/src/misc/lv_txt.c ****     }
ARM GAS  /var/folders/lp/x54gwt890xv47sdkqj1k04q40000gn/T//ccf0N3ow.s 			page 6


 258:Drivers/lvgl/src/misc/lv_txt.c **** 
 259:Drivers/lvgl/src/misc/lv_txt.c ****     /*Word is a "long", but letters may need to be better distributed*/
 260:Drivers/lvgl/src/misc/lv_txt.c ****     {
 261:Drivers/lvgl/src/misc/lv_txt.c ****         i = break_index;
 262:Drivers/lvgl/src/misc/lv_txt.c ****         int32_t n_move = LV_TXT_LINE_BREAK_LONG_POST_MIN_LEN - (word_len - break_letter_count);
 263:Drivers/lvgl/src/misc/lv_txt.c ****         /*Move pointer "i" backwards*/
 264:Drivers/lvgl/src/misc/lv_txt.c ****         for(; n_move > 0; n_move--) {
 265:Drivers/lvgl/src/misc/lv_txt.c ****             _lv_txt_encoded_prev(txt, &i);
 266:Drivers/lvgl/src/misc/lv_txt.c ****             // TODO: it would be appropriate to update the returned word width here
 267:Drivers/lvgl/src/misc/lv_txt.c ****             // However, in current usage, this doesn't impact anything.
 268:Drivers/lvgl/src/misc/lv_txt.c ****         }
 269:Drivers/lvgl/src/misc/lv_txt.c ****     }
 270:Drivers/lvgl/src/misc/lv_txt.c ****     return i;
 271:Drivers/lvgl/src/misc/lv_txt.c **** #else
 272:Drivers/lvgl/src/misc/lv_txt.c ****     if(force) return break_index;
 273:Drivers/lvgl/src/misc/lv_txt.c ****     if(word_w_ptr != NULL) *word_w_ptr = 0; /*Return no word*/
 274:Drivers/lvgl/src/misc/lv_txt.c ****     (void) break_letter_count;
 275:Drivers/lvgl/src/misc/lv_txt.c ****     return 0;
 276:Drivers/lvgl/src/misc/lv_txt.c **** #endif
 277:Drivers/lvgl/src/misc/lv_txt.c **** }
 278:Drivers/lvgl/src/misc/lv_txt.c **** 
 279:Drivers/lvgl/src/misc/lv_txt.c **** uint32_t _lv_txt_get_next_line(const char * txt, const lv_font_t * font,
 280:Drivers/lvgl/src/misc/lv_txt.c ****                                lv_coord_t letter_space, lv_coord_t max_width,
 281:Drivers/lvgl/src/misc/lv_txt.c ****                                lv_coord_t * used_width, lv_text_flag_t flag)
 282:Drivers/lvgl/src/misc/lv_txt.c **** {
 283:Drivers/lvgl/src/misc/lv_txt.c ****     if(used_width) *used_width = 0;
 284:Drivers/lvgl/src/misc/lv_txt.c **** 
 285:Drivers/lvgl/src/misc/lv_txt.c ****     if(txt == NULL) return 0;
 286:Drivers/lvgl/src/misc/lv_txt.c ****     if(txt[0] == '\0') return 0;
 287:Drivers/lvgl/src/misc/lv_txt.c ****     if(font == NULL) return 0;
 288:Drivers/lvgl/src/misc/lv_txt.c **** 
 289:Drivers/lvgl/src/misc/lv_txt.c ****     lv_coord_t line_w = 0;
 290:Drivers/lvgl/src/misc/lv_txt.c **** 
 291:Drivers/lvgl/src/misc/lv_txt.c ****     /*If max_width doesn't mater simply find the new line character
 292:Drivers/lvgl/src/misc/lv_txt.c ****      *without thinking about word wrapping*/
 293:Drivers/lvgl/src/misc/lv_txt.c ****     if((flag & LV_TEXT_FLAG_EXPAND) || (flag & LV_TEXT_FLAG_FIT)) {
 294:Drivers/lvgl/src/misc/lv_txt.c ****         uint32_t i;
 295:Drivers/lvgl/src/misc/lv_txt.c ****         for(i = 0; txt[i] != '\n' && txt[i] != '\r' && txt[i] != '\0'; i++) {
 296:Drivers/lvgl/src/misc/lv_txt.c ****             /*Just find the new line chars or string ends by incrementing `i`*/
 297:Drivers/lvgl/src/misc/lv_txt.c ****         }
 298:Drivers/lvgl/src/misc/lv_txt.c ****         if(txt[i] != '\0') i++;    /*To go beyond `\n`*/
 299:Drivers/lvgl/src/misc/lv_txt.c ****         if(used_width) *used_width = -1;
 300:Drivers/lvgl/src/misc/lv_txt.c ****         return i;
 301:Drivers/lvgl/src/misc/lv_txt.c ****     }
 302:Drivers/lvgl/src/misc/lv_txt.c **** 
 303:Drivers/lvgl/src/misc/lv_txt.c ****     if(flag & LV_TEXT_FLAG_EXPAND) max_width = LV_COORD_MAX;
 304:Drivers/lvgl/src/misc/lv_txt.c ****     lv_text_cmd_state_t cmd_state = LV_TEXT_CMD_STATE_WAIT;
 305:Drivers/lvgl/src/misc/lv_txt.c ****     uint32_t i = 0;                                        /*Iterating index into txt*/
 306:Drivers/lvgl/src/misc/lv_txt.c **** 
 307:Drivers/lvgl/src/misc/lv_txt.c ****     while(txt[i] != '\0' && max_width > 0) {
 308:Drivers/lvgl/src/misc/lv_txt.c ****         uint32_t word_w = 0;
 309:Drivers/lvgl/src/misc/lv_txt.c ****         uint32_t advance = lv_txt_get_next_word(&txt[i], font, letter_space, max_width, flag, &word
 310:Drivers/lvgl/src/misc/lv_txt.c ****         max_width -= word_w;
 311:Drivers/lvgl/src/misc/lv_txt.c ****         line_w += word_w;
 312:Drivers/lvgl/src/misc/lv_txt.c **** 
 313:Drivers/lvgl/src/misc/lv_txt.c ****         if(advance == 0) {
 314:Drivers/lvgl/src/misc/lv_txt.c ****             break;
ARM GAS  /var/folders/lp/x54gwt890xv47sdkqj1k04q40000gn/T//ccf0N3ow.s 			page 7


 315:Drivers/lvgl/src/misc/lv_txt.c ****         }
 316:Drivers/lvgl/src/misc/lv_txt.c **** 
 317:Drivers/lvgl/src/misc/lv_txt.c ****         i += advance;
 318:Drivers/lvgl/src/misc/lv_txt.c **** 
 319:Drivers/lvgl/src/misc/lv_txt.c ****         if(txt[0] == '\n' || txt[0] == '\r') break;
 320:Drivers/lvgl/src/misc/lv_txt.c **** 
 321:Drivers/lvgl/src/misc/lv_txt.c ****         if(txt[i] == '\n' || txt[i] == '\r') {
 322:Drivers/lvgl/src/misc/lv_txt.c ****             i++;  /*Include the following newline in the current line*/
 323:Drivers/lvgl/src/misc/lv_txt.c ****             break;
 324:Drivers/lvgl/src/misc/lv_txt.c ****         }
 325:Drivers/lvgl/src/misc/lv_txt.c **** 
 326:Drivers/lvgl/src/misc/lv_txt.c ****     }
 327:Drivers/lvgl/src/misc/lv_txt.c **** 
 328:Drivers/lvgl/src/misc/lv_txt.c ****     /*Always step at least one to avoid infinite loops*/
 329:Drivers/lvgl/src/misc/lv_txt.c ****     if(i == 0) {
 330:Drivers/lvgl/src/misc/lv_txt.c ****         uint32_t letter = _lv_txt_encoded_next(txt, &i);
 331:Drivers/lvgl/src/misc/lv_txt.c ****         if(used_width != NULL) {
 332:Drivers/lvgl/src/misc/lv_txt.c ****             line_w = lv_font_get_glyph_width(font, letter, '\0');
 333:Drivers/lvgl/src/misc/lv_txt.c ****         }
 334:Drivers/lvgl/src/misc/lv_txt.c ****     }
 335:Drivers/lvgl/src/misc/lv_txt.c **** 
 336:Drivers/lvgl/src/misc/lv_txt.c ****     if(used_width != NULL) {
 337:Drivers/lvgl/src/misc/lv_txt.c ****         *used_width = line_w;
 338:Drivers/lvgl/src/misc/lv_txt.c ****     }
 339:Drivers/lvgl/src/misc/lv_txt.c **** 
 340:Drivers/lvgl/src/misc/lv_txt.c ****     return i;
 341:Drivers/lvgl/src/misc/lv_txt.c **** }
 342:Drivers/lvgl/src/misc/lv_txt.c **** 
 343:Drivers/lvgl/src/misc/lv_txt.c **** lv_coord_t lv_txt_get_width(const char * txt, uint32_t length, const lv_font_t * font, lv_coord_t l
 344:Drivers/lvgl/src/misc/lv_txt.c ****                             lv_text_flag_t flag)
 345:Drivers/lvgl/src/misc/lv_txt.c **** {
 346:Drivers/lvgl/src/misc/lv_txt.c ****     if(txt == NULL) return 0;
 347:Drivers/lvgl/src/misc/lv_txt.c ****     if(font == NULL) return 0;
 348:Drivers/lvgl/src/misc/lv_txt.c ****     if(txt[0] == '\0') return 0;
 349:Drivers/lvgl/src/misc/lv_txt.c **** 
 350:Drivers/lvgl/src/misc/lv_txt.c ****     uint32_t i                   = 0;
 351:Drivers/lvgl/src/misc/lv_txt.c ****     lv_coord_t width             = 0;
 352:Drivers/lvgl/src/misc/lv_txt.c ****     lv_text_cmd_state_t cmd_state = LV_TEXT_CMD_STATE_WAIT;
 353:Drivers/lvgl/src/misc/lv_txt.c **** 
 354:Drivers/lvgl/src/misc/lv_txt.c ****     if(length != 0) {
 355:Drivers/lvgl/src/misc/lv_txt.c ****         while(i < length) {
 356:Drivers/lvgl/src/misc/lv_txt.c ****             uint32_t letter;
 357:Drivers/lvgl/src/misc/lv_txt.c ****             uint32_t letter_next;
 358:Drivers/lvgl/src/misc/lv_txt.c ****             _lv_txt_encoded_letter_next_2(txt, &letter, &letter_next, &i);
 359:Drivers/lvgl/src/misc/lv_txt.c **** 
 360:Drivers/lvgl/src/misc/lv_txt.c ****             if((flag & LV_TEXT_FLAG_RECOLOR) != 0) {
 361:Drivers/lvgl/src/misc/lv_txt.c ****                 if(_lv_txt_is_cmd(&cmd_state, letter) != false) {
 362:Drivers/lvgl/src/misc/lv_txt.c ****                     continue;
 363:Drivers/lvgl/src/misc/lv_txt.c ****                 }
 364:Drivers/lvgl/src/misc/lv_txt.c ****             }
 365:Drivers/lvgl/src/misc/lv_txt.c **** 
 366:Drivers/lvgl/src/misc/lv_txt.c ****             lv_coord_t char_width = lv_font_get_glyph_width(font, letter, letter_next);
 367:Drivers/lvgl/src/misc/lv_txt.c ****             if(char_width > 0) {
 368:Drivers/lvgl/src/misc/lv_txt.c ****                 width += char_width;
 369:Drivers/lvgl/src/misc/lv_txt.c ****                 width += letter_space;
 370:Drivers/lvgl/src/misc/lv_txt.c ****             }
 371:Drivers/lvgl/src/misc/lv_txt.c ****         }
ARM GAS  /var/folders/lp/x54gwt890xv47sdkqj1k04q40000gn/T//ccf0N3ow.s 			page 8


 372:Drivers/lvgl/src/misc/lv_txt.c **** 
 373:Drivers/lvgl/src/misc/lv_txt.c ****         if(width > 0) {
 374:Drivers/lvgl/src/misc/lv_txt.c ****             width -= letter_space; /*Trim the last letter space. Important if the text is center
 375:Drivers/lvgl/src/misc/lv_txt.c ****                                       aligned*/
 376:Drivers/lvgl/src/misc/lv_txt.c ****         }
 377:Drivers/lvgl/src/misc/lv_txt.c ****     }
 378:Drivers/lvgl/src/misc/lv_txt.c **** 
 379:Drivers/lvgl/src/misc/lv_txt.c ****     return width;
 380:Drivers/lvgl/src/misc/lv_txt.c **** }
 381:Drivers/lvgl/src/misc/lv_txt.c **** 
 382:Drivers/lvgl/src/misc/lv_txt.c **** bool _lv_txt_is_cmd(lv_text_cmd_state_t * state, uint32_t c)
 383:Drivers/lvgl/src/misc/lv_txt.c **** {
 384:Drivers/lvgl/src/misc/lv_txt.c ****     bool ret = false;
 385:Drivers/lvgl/src/misc/lv_txt.c **** 
 386:Drivers/lvgl/src/misc/lv_txt.c ****     if(c == (uint32_t)LV_TXT_COLOR_CMD[0]) {
 387:Drivers/lvgl/src/misc/lv_txt.c ****         if(*state == LV_TEXT_CMD_STATE_WAIT) { /*Start char*/
 388:Drivers/lvgl/src/misc/lv_txt.c ****             *state = LV_TEXT_CMD_STATE_PAR;
 389:Drivers/lvgl/src/misc/lv_txt.c ****             ret    = true;
 390:Drivers/lvgl/src/misc/lv_txt.c ****         }
 391:Drivers/lvgl/src/misc/lv_txt.c ****         /*Other start char in parameter is escaped cmd. char*/
 392:Drivers/lvgl/src/misc/lv_txt.c ****         else if(*state == LV_TEXT_CMD_STATE_PAR) {
 393:Drivers/lvgl/src/misc/lv_txt.c ****             *state = LV_TEXT_CMD_STATE_WAIT;
 394:Drivers/lvgl/src/misc/lv_txt.c ****         }
 395:Drivers/lvgl/src/misc/lv_txt.c ****         /*Command end*/
 396:Drivers/lvgl/src/misc/lv_txt.c ****         else if(*state == LV_TEXT_CMD_STATE_IN) {
 397:Drivers/lvgl/src/misc/lv_txt.c ****             *state = LV_TEXT_CMD_STATE_WAIT;
 398:Drivers/lvgl/src/misc/lv_txt.c ****             ret    = true;
 399:Drivers/lvgl/src/misc/lv_txt.c ****         }
 400:Drivers/lvgl/src/misc/lv_txt.c ****     }
 401:Drivers/lvgl/src/misc/lv_txt.c **** 
 402:Drivers/lvgl/src/misc/lv_txt.c ****     /*Skip the color parameter and wait the space after it*/
 403:Drivers/lvgl/src/misc/lv_txt.c ****     if(*state == LV_TEXT_CMD_STATE_PAR) {
 404:Drivers/lvgl/src/misc/lv_txt.c ****         if(c == ' ') {
 405:Drivers/lvgl/src/misc/lv_txt.c ****             *state = LV_TEXT_CMD_STATE_IN; /*After the parameter the text is in the command*/
 406:Drivers/lvgl/src/misc/lv_txt.c ****         }
 407:Drivers/lvgl/src/misc/lv_txt.c ****         ret = true;
 408:Drivers/lvgl/src/misc/lv_txt.c ****     }
 409:Drivers/lvgl/src/misc/lv_txt.c **** 
 410:Drivers/lvgl/src/misc/lv_txt.c ****     return ret;
 411:Drivers/lvgl/src/misc/lv_txt.c **** }
 412:Drivers/lvgl/src/misc/lv_txt.c **** 
 413:Drivers/lvgl/src/misc/lv_txt.c **** void _lv_txt_ins(char * txt_buf, uint32_t pos, const char * ins_txt)
 414:Drivers/lvgl/src/misc/lv_txt.c **** {
 415:Drivers/lvgl/src/misc/lv_txt.c ****     if(txt_buf == NULL || ins_txt == NULL) return;
 416:Drivers/lvgl/src/misc/lv_txt.c **** 
 417:Drivers/lvgl/src/misc/lv_txt.c ****     size_t old_len = strlen(txt_buf);
 418:Drivers/lvgl/src/misc/lv_txt.c ****     size_t ins_len = strlen(ins_txt);
 419:Drivers/lvgl/src/misc/lv_txt.c ****     if(ins_len == 0) return;
 420:Drivers/lvgl/src/misc/lv_txt.c **** 
 421:Drivers/lvgl/src/misc/lv_txt.c ****     size_t new_len = ins_len + old_len;
 422:Drivers/lvgl/src/misc/lv_txt.c ****     pos              = _lv_txt_encoded_get_byte_id(txt_buf, pos); /*Convert to byte index instead o
 423:Drivers/lvgl/src/misc/lv_txt.c **** 
 424:Drivers/lvgl/src/misc/lv_txt.c ****     /*Copy the second part into the end to make place to text to insert*/
 425:Drivers/lvgl/src/misc/lv_txt.c ****     size_t i;
 426:Drivers/lvgl/src/misc/lv_txt.c ****     for(i = new_len; i >= pos + ins_len; i--) {
 427:Drivers/lvgl/src/misc/lv_txt.c ****         txt_buf[i] = txt_buf[i - ins_len];
 428:Drivers/lvgl/src/misc/lv_txt.c ****     }
ARM GAS  /var/folders/lp/x54gwt890xv47sdkqj1k04q40000gn/T//ccf0N3ow.s 			page 9


 429:Drivers/lvgl/src/misc/lv_txt.c **** 
 430:Drivers/lvgl/src/misc/lv_txt.c ****     /*Copy the text into the new space*/
 431:Drivers/lvgl/src/misc/lv_txt.c ****     lv_memcpy_small(txt_buf + pos, ins_txt, ins_len);
 432:Drivers/lvgl/src/misc/lv_txt.c **** }
 433:Drivers/lvgl/src/misc/lv_txt.c **** 
 434:Drivers/lvgl/src/misc/lv_txt.c **** void _lv_txt_cut(char * txt, uint32_t pos, uint32_t len)
 435:Drivers/lvgl/src/misc/lv_txt.c **** {
 436:Drivers/lvgl/src/misc/lv_txt.c ****     if(txt == NULL) return;
 437:Drivers/lvgl/src/misc/lv_txt.c **** 
 438:Drivers/lvgl/src/misc/lv_txt.c ****     size_t old_len = strlen(txt);
 439:Drivers/lvgl/src/misc/lv_txt.c **** 
 440:Drivers/lvgl/src/misc/lv_txt.c ****     pos = _lv_txt_encoded_get_byte_id(txt, pos); /*Convert to byte index instead of letter index*/
 441:Drivers/lvgl/src/misc/lv_txt.c ****     len = _lv_txt_encoded_get_byte_id(&txt[pos], len);
 442:Drivers/lvgl/src/misc/lv_txt.c **** 
 443:Drivers/lvgl/src/misc/lv_txt.c ****     /*Copy the second part into the end to make place to text to insert*/
 444:Drivers/lvgl/src/misc/lv_txt.c ****     uint32_t i;
 445:Drivers/lvgl/src/misc/lv_txt.c ****     for(i = pos; i <= old_len - len; i++) {
 446:Drivers/lvgl/src/misc/lv_txt.c ****         txt[i] = txt[i + len];
 447:Drivers/lvgl/src/misc/lv_txt.c ****     }
 448:Drivers/lvgl/src/misc/lv_txt.c **** }
 449:Drivers/lvgl/src/misc/lv_txt.c **** 
 450:Drivers/lvgl/src/misc/lv_txt.c **** char * _lv_txt_set_text_vfmt(const char * fmt, va_list ap)
 451:Drivers/lvgl/src/misc/lv_txt.c **** {
 452:Drivers/lvgl/src/misc/lv_txt.c ****     /*Allocate space for the new text by using trick from C99 standard section 7.19.6.12*/
 453:Drivers/lvgl/src/misc/lv_txt.c ****     va_list ap_copy;
 454:Drivers/lvgl/src/misc/lv_txt.c ****     va_copy(ap_copy, ap);
 455:Drivers/lvgl/src/misc/lv_txt.c ****     uint32_t len = lv_vsnprintf(NULL, 0, fmt, ap_copy);
 456:Drivers/lvgl/src/misc/lv_txt.c ****     va_end(ap_copy);
 457:Drivers/lvgl/src/misc/lv_txt.c **** 
 458:Drivers/lvgl/src/misc/lv_txt.c ****     char * text = 0;
 459:Drivers/lvgl/src/misc/lv_txt.c **** #if LV_USE_ARABIC_PERSIAN_CHARS
 460:Drivers/lvgl/src/misc/lv_txt.c ****     /*Put together the text according to the format string*/
 461:Drivers/lvgl/src/misc/lv_txt.c ****     char * raw_txt = lv_mem_buf_get(len + 1);
 462:Drivers/lvgl/src/misc/lv_txt.c ****     LV_ASSERT_MALLOC(raw_txt);
 463:Drivers/lvgl/src/misc/lv_txt.c ****     if(raw_txt == NULL) {
 464:Drivers/lvgl/src/misc/lv_txt.c ****         return NULL;
 465:Drivers/lvgl/src/misc/lv_txt.c ****     }
 466:Drivers/lvgl/src/misc/lv_txt.c **** 
 467:Drivers/lvgl/src/misc/lv_txt.c ****     lv_vsnprintf(raw_txt, len + 1, fmt, ap);
 468:Drivers/lvgl/src/misc/lv_txt.c **** 
 469:Drivers/lvgl/src/misc/lv_txt.c ****     /*Get the size of the Arabic text and process it*/
 470:Drivers/lvgl/src/misc/lv_txt.c ****     size_t len_ap = _lv_txt_ap_calc_bytes_cnt(raw_txt);
 471:Drivers/lvgl/src/misc/lv_txt.c ****     text = lv_mem_alloc(len_ap + 1);
 472:Drivers/lvgl/src/misc/lv_txt.c ****     LV_ASSERT_MALLOC(text);
 473:Drivers/lvgl/src/misc/lv_txt.c ****     if(text == NULL) {
 474:Drivers/lvgl/src/misc/lv_txt.c ****         return NULL;
 475:Drivers/lvgl/src/misc/lv_txt.c ****     }
 476:Drivers/lvgl/src/misc/lv_txt.c ****     _lv_txt_ap_proc(raw_txt, text);
 477:Drivers/lvgl/src/misc/lv_txt.c **** 
 478:Drivers/lvgl/src/misc/lv_txt.c ****     lv_mem_buf_release(raw_txt);
 479:Drivers/lvgl/src/misc/lv_txt.c **** #else
 480:Drivers/lvgl/src/misc/lv_txt.c ****     text = lv_mem_alloc(len + 1);
 481:Drivers/lvgl/src/misc/lv_txt.c ****     LV_ASSERT_MALLOC(text);
 482:Drivers/lvgl/src/misc/lv_txt.c ****     if(text == NULL) {
 483:Drivers/lvgl/src/misc/lv_txt.c ****         return NULL;
 484:Drivers/lvgl/src/misc/lv_txt.c ****     }
 485:Drivers/lvgl/src/misc/lv_txt.c ****     text[len] = 0; /*Ensure NULL termination*/
ARM GAS  /var/folders/lp/x54gwt890xv47sdkqj1k04q40000gn/T//ccf0N3ow.s 			page 10


 486:Drivers/lvgl/src/misc/lv_txt.c **** 
 487:Drivers/lvgl/src/misc/lv_txt.c ****     lv_vsnprintf(text, len + 1, fmt, ap);
 488:Drivers/lvgl/src/misc/lv_txt.c **** #endif
 489:Drivers/lvgl/src/misc/lv_txt.c **** 
 490:Drivers/lvgl/src/misc/lv_txt.c ****     return text;
 491:Drivers/lvgl/src/misc/lv_txt.c **** }
 492:Drivers/lvgl/src/misc/lv_txt.c **** 
 493:Drivers/lvgl/src/misc/lv_txt.c **** void _lv_txt_encoded_letter_next_2(const char * txt, uint32_t * letter, uint32_t * letter_next, uin
 494:Drivers/lvgl/src/misc/lv_txt.c **** {
 495:Drivers/lvgl/src/misc/lv_txt.c ****     *letter = _lv_txt_encoded_next(txt, ofs);
 496:Drivers/lvgl/src/misc/lv_txt.c ****     *letter_next = *letter != '\0' ? _lv_txt_encoded_next(&txt[*ofs], NULL) : 0;
 497:Drivers/lvgl/src/misc/lv_txt.c **** }
 498:Drivers/lvgl/src/misc/lv_txt.c **** 
 499:Drivers/lvgl/src/misc/lv_txt.c **** #if LV_TXT_ENC == LV_TXT_ENC_UTF8
 500:Drivers/lvgl/src/misc/lv_txt.c **** /*******************************
 501:Drivers/lvgl/src/misc/lv_txt.c ****  *   UTF-8 ENCODER/DECODER
 502:Drivers/lvgl/src/misc/lv_txt.c ****  ******************************/
 503:Drivers/lvgl/src/misc/lv_txt.c **** 
 504:Drivers/lvgl/src/misc/lv_txt.c **** /**
 505:Drivers/lvgl/src/misc/lv_txt.c ****  * Give the size of an UTF-8 coded character
 506:Drivers/lvgl/src/misc/lv_txt.c ****  * @param str pointer to a character in a string
 507:Drivers/lvgl/src/misc/lv_txt.c ****  * @return length of the UTF-8 character (1,2,3 or 4), 0 on invalid code.
 508:Drivers/lvgl/src/misc/lv_txt.c ****  */
 509:Drivers/lvgl/src/misc/lv_txt.c **** static uint8_t lv_txt_utf8_size(const char * str)
 510:Drivers/lvgl/src/misc/lv_txt.c **** {
  30              		.loc 1 510 1 view -0
  31              		.cfi_startproc
  32              		@ args = 0, pretend = 0, frame = 0
  33              		@ frame_needed = 0, uses_anonymous_args = 0
  34              		@ link register save eliminated.
 511:Drivers/lvgl/src/misc/lv_txt.c ****     if(LV_IS_ASCII(str[0]))
  35              		.loc 1 511 5 view .LVU1
  36              		.loc 1 511 7 is_stmt 0 view .LVU2
  37 0000 90F90030 		ldrsb	r3, [r0]
  38              		.loc 1 511 8 view .LVU3
  39 0004 0078     		ldrb	r0, [r0]	@ zero_extendqisi2
  40              	.LVL1:
  41              		.loc 1 511 7 view .LVU4
  42 0006 002B     		cmp	r3, #0
  43 0008 10DA     		bge	.L3
 512:Drivers/lvgl/src/misc/lv_txt.c ****         return 1;
 513:Drivers/lvgl/src/misc/lv_txt.c ****     else if(LV_IS_2BYTES_UTF8_CODE(str[0]))
  44              		.loc 1 513 10 is_stmt 1 view .LVU5
  45              		.loc 1 513 12 is_stmt 0 view .LVU6
  46 000a 00F0E003 		and	r3, r0, #224
  47 000e C02B     		cmp	r3, #192
  48 0010 10D0     		beq	.L4
 514:Drivers/lvgl/src/misc/lv_txt.c ****         return 2;
 515:Drivers/lvgl/src/misc/lv_txt.c ****     else if(LV_IS_3BYTES_UTF8_CODE(str[0]))
  49              		.loc 1 515 10 is_stmt 1 view .LVU7
  50              		.loc 1 515 12 is_stmt 0 view .LVU8
  51 0012 00F0F003 		and	r3, r0, #240
  52 0016 E02B     		cmp	r3, #224
  53 0018 0AD0     		beq	.L5
 516:Drivers/lvgl/src/misc/lv_txt.c ****         return 3;
 517:Drivers/lvgl/src/misc/lv_txt.c ****     else if(LV_IS_4BYTES_UTF8_CODE(str[0]))
  54              		.loc 1 517 10 is_stmt 1 view .LVU9
ARM GAS  /var/folders/lp/x54gwt890xv47sdkqj1k04q40000gn/T//ccf0N3ow.s 			page 11


  55              		.loc 1 517 12 is_stmt 0 view .LVU10
  56 001a 00F0F800 		and	r0, r0, #248
  57 001e A0F1F000 		sub	r0, #240
  58 0022 B0FA80F0 		clz	r0, r0
  59 0026 4009     		lsrs	r0, r0, #5
  60 0028 8000     		lsls	r0, r0, #2
  61 002a 7047     		bx	lr
  62              	.L3:
 512:Drivers/lvgl/src/misc/lv_txt.c ****     else if(LV_IS_2BYTES_UTF8_CODE(str[0]))
  63              		.loc 1 512 16 view .LVU11
  64 002c 0120     		movs	r0, #1
  65 002e 7047     		bx	lr
  66              	.L5:
 516:Drivers/lvgl/src/misc/lv_txt.c ****         return 3;
  67              		.loc 1 516 16 view .LVU12
  68 0030 0320     		movs	r0, #3
 518:Drivers/lvgl/src/misc/lv_txt.c ****         return 4;
 519:Drivers/lvgl/src/misc/lv_txt.c ****     return 0;
 520:Drivers/lvgl/src/misc/lv_txt.c **** }
  69              		.loc 1 520 1 view .LVU13
  70 0032 7047     		bx	lr
  71              	.L4:
 514:Drivers/lvgl/src/misc/lv_txt.c ****     else if(LV_IS_3BYTES_UTF8_CODE(str[0]))
  72              		.loc 1 514 16 view .LVU14
  73 0034 0220     		movs	r0, #2
  74 0036 7047     		bx	lr
  75              		.cfi_endproc
  76              	.LFE64:
  78              		.section	.text.lv_txt_utf8_conv_wc,"ax",%progbits
  79              		.align	1
  80              		.p2align 2,,3
  81              		.syntax unified
  82              		.thumb
  83              		.thumb_func
  85              	lv_txt_utf8_conv_wc:
  86              	.LVL2:
  87              	.LFB66:
 521:Drivers/lvgl/src/misc/lv_txt.c **** 
 522:Drivers/lvgl/src/misc/lv_txt.c **** /**
 523:Drivers/lvgl/src/misc/lv_txt.c ****  * Convert a Unicode letter to UTF-8.
 524:Drivers/lvgl/src/misc/lv_txt.c ****  * @param letter_uni a Unicode letter
 525:Drivers/lvgl/src/misc/lv_txt.c ****  * @return UTF-8 coded character in Little Endian to be compatible with C chars (e.g. 'Á', 'Ű')
 526:Drivers/lvgl/src/misc/lv_txt.c ****  */
 527:Drivers/lvgl/src/misc/lv_txt.c **** static uint32_t lv_txt_unicode_to_utf8(uint32_t letter_uni)
 528:Drivers/lvgl/src/misc/lv_txt.c **** {
 529:Drivers/lvgl/src/misc/lv_txt.c ****     if(letter_uni < 128) return letter_uni;
 530:Drivers/lvgl/src/misc/lv_txt.c ****     uint8_t bytes[4];
 531:Drivers/lvgl/src/misc/lv_txt.c **** 
 532:Drivers/lvgl/src/misc/lv_txt.c ****     if(letter_uni < 0x0800) {
 533:Drivers/lvgl/src/misc/lv_txt.c ****         bytes[0] = ((letter_uni >> 6) & 0x1F) | 0xC0;
 534:Drivers/lvgl/src/misc/lv_txt.c ****         bytes[1] = ((letter_uni >> 0) & 0x3F) | 0x80;
 535:Drivers/lvgl/src/misc/lv_txt.c ****         bytes[2] = 0;
 536:Drivers/lvgl/src/misc/lv_txt.c ****         bytes[3] = 0;
 537:Drivers/lvgl/src/misc/lv_txt.c ****     }
 538:Drivers/lvgl/src/misc/lv_txt.c ****     else if(letter_uni < 0x010000) {
 539:Drivers/lvgl/src/misc/lv_txt.c ****         bytes[0] = ((letter_uni >> 12) & 0x0F) | 0xE0;
 540:Drivers/lvgl/src/misc/lv_txt.c ****         bytes[1] = ((letter_uni >> 6) & 0x3F) | 0x80;
ARM GAS  /var/folders/lp/x54gwt890xv47sdkqj1k04q40000gn/T//ccf0N3ow.s 			page 12


 541:Drivers/lvgl/src/misc/lv_txt.c ****         bytes[2] = ((letter_uni >> 0) & 0x3F) | 0x80;
 542:Drivers/lvgl/src/misc/lv_txt.c ****         bytes[3] = 0;
 543:Drivers/lvgl/src/misc/lv_txt.c ****     }
 544:Drivers/lvgl/src/misc/lv_txt.c ****     else if(letter_uni < 0x110000) {
 545:Drivers/lvgl/src/misc/lv_txt.c ****         bytes[0] = ((letter_uni >> 18) & 0x07) | 0xF0;
 546:Drivers/lvgl/src/misc/lv_txt.c ****         bytes[1] = ((letter_uni >> 12) & 0x3F) | 0x80;
 547:Drivers/lvgl/src/misc/lv_txt.c ****         bytes[2] = ((letter_uni >> 6) & 0x3F) | 0x80;
 548:Drivers/lvgl/src/misc/lv_txt.c ****         bytes[3] = ((letter_uni >> 0) & 0x3F) | 0x80;
 549:Drivers/lvgl/src/misc/lv_txt.c ****     }
 550:Drivers/lvgl/src/misc/lv_txt.c ****     else {
 551:Drivers/lvgl/src/misc/lv_txt.c ****         return 0;
 552:Drivers/lvgl/src/misc/lv_txt.c ****     }
 553:Drivers/lvgl/src/misc/lv_txt.c **** 
 554:Drivers/lvgl/src/misc/lv_txt.c ****     uint32_t * res_p = (uint32_t *)bytes;
 555:Drivers/lvgl/src/misc/lv_txt.c ****     return *res_p;
 556:Drivers/lvgl/src/misc/lv_txt.c **** }
 557:Drivers/lvgl/src/misc/lv_txt.c **** 
 558:Drivers/lvgl/src/misc/lv_txt.c **** /**
 559:Drivers/lvgl/src/misc/lv_txt.c ****  * Convert a wide character, e.g. 'Á' little endian to be UTF-8 compatible
 560:Drivers/lvgl/src/misc/lv_txt.c ****  * @param c a wide character or a  Little endian number
 561:Drivers/lvgl/src/misc/lv_txt.c ****  * @return `c` in big endian
 562:Drivers/lvgl/src/misc/lv_txt.c ****  */
 563:Drivers/lvgl/src/misc/lv_txt.c **** static uint32_t lv_txt_utf8_conv_wc(uint32_t c)
 564:Drivers/lvgl/src/misc/lv_txt.c **** {
  88              		.loc 1 564 1 is_stmt 1 view -0
  89              		.cfi_startproc
  90              		@ args = 0, pretend = 0, frame = 0
  91              		@ frame_needed = 0, uses_anonymous_args = 0
  92              		@ link register save eliminated.
 565:Drivers/lvgl/src/misc/lv_txt.c **** #if LV_BIG_ENDIAN_SYSTEM == 0
 566:Drivers/lvgl/src/misc/lv_txt.c ****     /*Swap the bytes (UTF-8 is big endian, but the MCUs are little endian)*/
 567:Drivers/lvgl/src/misc/lv_txt.c ****     if((c & 0x80) != 0) {
  93              		.loc 1 567 5 view .LVU16
  94              		.loc 1 567 7 is_stmt 0 view .LVU17
  95 0000 0306     		lsls	r3, r0, #24
  96 0002 08D5     		bpl	.L8
  97              	.LBB15:
 568:Drivers/lvgl/src/misc/lv_txt.c ****         uint32_t swapped;
 569:Drivers/lvgl/src/misc/lv_txt.c ****         uint8_t c8[4];
 570:Drivers/lvgl/src/misc/lv_txt.c ****         lv_memcpy_small(c8, &c, 4);
 571:Drivers/lvgl/src/misc/lv_txt.c ****         swapped = (c8[0] << 24) + (c8[1] << 16) + (c8[2] << 8) + (c8[3]);
  98              		.loc 1 571 9 is_stmt 1 view .LVU18
  99 0004 00BA     		rev	r0, r0
 100              	.LVL3:
 572:Drivers/lvgl/src/misc/lv_txt.c ****         uint8_t i;
 101              		.loc 1 572 9 view .LVU19
 573:Drivers/lvgl/src/misc/lv_txt.c ****         for(i = 0; i < 4; i++) {
 102              		.loc 1 573 9 view .LVU20
 103              		.loc 1 573 22 discriminator 1 view .LVU21
 104              	.LBE15:
 567:Drivers/lvgl/src/misc/lv_txt.c ****         uint32_t swapped;
 105              		.loc 1 567 7 is_stmt 0 view .LVU22
 106 0006 0423     		movs	r3, #4
 107              	.LVL4:
 108              	.L10:
 109              	.LBB16:
 574:Drivers/lvgl/src/misc/lv_txt.c ****             if((swapped & 0xFF) == 0)
ARM GAS  /var/folders/lp/x54gwt890xv47sdkqj1k04q40000gn/T//ccf0N3ow.s 			page 13


 110              		.loc 1 574 13 is_stmt 1 view .LVU23
 575:Drivers/lvgl/src/misc/lv_txt.c ****                 swapped = (swapped >> 8); /*Ignore leading zeros (they were in the end originally)*
 111              		.loc 1 575 17 view .LVU24
 574:Drivers/lvgl/src/misc/lv_txt.c ****             if((swapped & 0xFF) == 0)
 112              		.loc 1 574 25 is_stmt 0 view .LVU25
 113 0008 C2B2     		uxtb	r2, r0
 573:Drivers/lvgl/src/misc/lv_txt.c ****             if((swapped & 0xFF) == 0)
 114              		.loc 1 573 22 discriminator 1 view .LVU26
 115 000a 013B     		subs	r3, r3, #1
 574:Drivers/lvgl/src/misc/lv_txt.c ****             if((swapped & 0xFF) == 0)
 116              		.loc 1 574 15 view .LVU27
 117 000c 02B9     		cbnz	r2, .L9
 118              		.loc 1 575 25 view .LVU28
 119 000e 000A     		lsrs	r0, r0, #8
 120              	.LVL5:
 121              	.L9:
 573:Drivers/lvgl/src/misc/lv_txt.c ****             if((swapped & 0xFF) == 0)
 122              		.loc 1 573 28 is_stmt 1 discriminator 2 view .LVU29
 573:Drivers/lvgl/src/misc/lv_txt.c ****             if((swapped & 0xFF) == 0)
 123              		.loc 1 573 22 discriminator 1 view .LVU30
 124 0010 13F0FF03 		ands	r3, r3, #255
 125 0014 F8D1     		bne	.L10
 126              	.LVL6:
 127              	.L8:
 573:Drivers/lvgl/src/misc/lv_txt.c ****             if((swapped & 0xFF) == 0)
 128              		.loc 1 573 22 is_stmt 0 discriminator 1 view .LVU31
 129              	.LBE16:
 576:Drivers/lvgl/src/misc/lv_txt.c ****         }
 577:Drivers/lvgl/src/misc/lv_txt.c ****         c = swapped;
 578:Drivers/lvgl/src/misc/lv_txt.c ****     }
 579:Drivers/lvgl/src/misc/lv_txt.c **** #endif
 580:Drivers/lvgl/src/misc/lv_txt.c ****     return c;
 130              		.loc 1 580 5 is_stmt 1 view .LVU32
 581:Drivers/lvgl/src/misc/lv_txt.c **** }
 131              		.loc 1 581 1 is_stmt 0 view .LVU33
 132 0016 7047     		bx	lr
 133              		.cfi_endproc
 134              	.LFE66:
 136              		.section	.text.lv_txt_utf8_next,"ax",%progbits
 137              		.align	1
 138              		.p2align 2,,3
 139              		.syntax unified
 140              		.thumb
 141              		.thumb_func
 143              	lv_txt_utf8_next:
 144              	.LVL7:
 145              	.LFB67:
 582:Drivers/lvgl/src/misc/lv_txt.c **** 
 583:Drivers/lvgl/src/misc/lv_txt.c **** /**
 584:Drivers/lvgl/src/misc/lv_txt.c ****  * Decode an UTF-8 character from a string.
 585:Drivers/lvgl/src/misc/lv_txt.c ****  * @param txt pointer to '\0' terminated string
 586:Drivers/lvgl/src/misc/lv_txt.c ****  * @param i start byte index in 'txt' where to start.
 587:Drivers/lvgl/src/misc/lv_txt.c ****  *          After call it will point to the next UTF-8 char in 'txt'.
 588:Drivers/lvgl/src/misc/lv_txt.c ****  *          NULL to use txt[0] as index
 589:Drivers/lvgl/src/misc/lv_txt.c ****  * @return the decoded Unicode character or 0 on invalid UTF-8 code
 590:Drivers/lvgl/src/misc/lv_txt.c ****  */
 591:Drivers/lvgl/src/misc/lv_txt.c **** static uint32_t lv_txt_utf8_next(const char * txt, uint32_t * i)
ARM GAS  /var/folders/lp/x54gwt890xv47sdkqj1k04q40000gn/T//ccf0N3ow.s 			page 14


 592:Drivers/lvgl/src/misc/lv_txt.c **** {
 146              		.loc 1 592 1 is_stmt 1 view -0
 147              		.cfi_startproc
 148              		@ args = 0, pretend = 0, frame = 8
 149              		@ frame_needed = 0, uses_anonymous_args = 0
 150              		@ link register save eliminated.
 593:Drivers/lvgl/src/misc/lv_txt.c ****     /**
 594:Drivers/lvgl/src/misc/lv_txt.c ****      * Unicode to UTF-8
 595:Drivers/lvgl/src/misc/lv_txt.c ****      * 00000000 00000000 00000000 0xxxxxxx -> 0xxxxxxx
 596:Drivers/lvgl/src/misc/lv_txt.c ****      * 00000000 00000000 00000yyy yyxxxxxx -> 110yyyyy 10xxxxxx
 597:Drivers/lvgl/src/misc/lv_txt.c ****      * 00000000 00000000 zzzzyyyy yyxxxxxx -> 1110zzzz 10yyyyyy 10xxxxxx
 598:Drivers/lvgl/src/misc/lv_txt.c ****      * 00000000 000wwwzz zzzzyyyy yyxxxxxx -> 11110www 10zzzzzz 10yyyyyy 10xxxxxx
 599:Drivers/lvgl/src/misc/lv_txt.c ****      */
 600:Drivers/lvgl/src/misc/lv_txt.c **** 
 601:Drivers/lvgl/src/misc/lv_txt.c ****     uint32_t result = 0;
 151              		.loc 1 601 5 view .LVU35
 602:Drivers/lvgl/src/misc/lv_txt.c **** 
 603:Drivers/lvgl/src/misc/lv_txt.c ****     /*Dummy 'i' pointer is required*/
 604:Drivers/lvgl/src/misc/lv_txt.c ****     uint32_t i_tmp = 0;
 152              		.loc 1 604 5 view .LVU36
 592:Drivers/lvgl/src/misc/lv_txt.c ****     /**
 153              		.loc 1 592 1 is_stmt 0 view .LVU37
 154 0000 70B4     		push	{r4, r5, r6}
 155              		.cfi_def_cfa_offset 12
 156              		.cfi_offset 4, -12
 157              		.cfi_offset 5, -8
 158              		.cfi_offset 6, -4
 159 0002 83B0     		sub	sp, sp, #12
 160              		.cfi_def_cfa_offset 24
 161              		.loc 1 604 14 view .LVU38
 162 0004 0022     		movs	r2, #0
 592:Drivers/lvgl/src/misc/lv_txt.c ****     /**
 163              		.loc 1 592 1 view .LVU39
 164 0006 0346     		mov	r3, r0
 165              		.loc 1 604 14 view .LVU40
 166 0008 0192     		str	r2, [sp, #4]
 605:Drivers/lvgl/src/misc/lv_txt.c ****     if(i == NULL) i = &i_tmp;
 167              		.loc 1 605 5 is_stmt 1 view .LVU41
 168              		.loc 1 605 7 is_stmt 0 view .LVU42
 169 000a E9B1     		cbz	r1, .L25
 606:Drivers/lvgl/src/misc/lv_txt.c **** 
 607:Drivers/lvgl/src/misc/lv_txt.c ****     /*Normal ASCII*/
 608:Drivers/lvgl/src/misc/lv_txt.c ****     if(LV_IS_ASCII(txt[*i])) {
 170              		.loc 1 608 8 view .LVU43
 171 000c 0D68     		ldr	r5, [r1]
 172 000e 4219     		adds	r2, r0, r5
 609:Drivers/lvgl/src/misc/lv_txt.c ****         result = txt[*i];
 610:Drivers/lvgl/src/misc/lv_txt.c ****         (*i)++;
 173              		.loc 1 610 13 view .LVU44
 174 0010 6C1C     		adds	r4, r5, #1
 175              	.LVL8:
 176              	.L16:
 608:Drivers/lvgl/src/misc/lv_txt.c ****         result = txt[*i];
 177              		.loc 1 608 5 is_stmt 1 view .LVU45
 608:Drivers/lvgl/src/misc/lv_txt.c ****         result = txt[*i];
 178              		.loc 1 608 7 is_stmt 0 view .LVU46
 179 0012 92F900C0 		ldrsb	ip, [r2]
ARM GAS  /var/folders/lp/x54gwt890xv47sdkqj1k04q40000gn/T//ccf0N3ow.s 			page 15


 608:Drivers/lvgl/src/misc/lv_txt.c ****         result = txt[*i];
 180              		.loc 1 608 8 view .LVU47
 181 0016 1078     		ldrb	r0, [r2]	@ zero_extendqisi2
 182              	.LVL9:
 608:Drivers/lvgl/src/misc/lv_txt.c ****         result = txt[*i];
 183              		.loc 1 608 7 view .LVU48
 184 0018 BCF1000F 		cmp	ip, #0
 185 001c 03DB     		blt	.L17
 609:Drivers/lvgl/src/misc/lv_txt.c ****         result = txt[*i];
 186              		.loc 1 609 9 is_stmt 1 view .LVU49
 187              	.LVL10:
 188              		.loc 1 610 9 view .LVU50
 189              		.loc 1 610 13 is_stmt 0 view .LVU51
 190 001e 0C60     		str	r4, [r1]
 191              	.LVL11:
 192              	.L15:
 611:Drivers/lvgl/src/misc/lv_txt.c ****     }
 612:Drivers/lvgl/src/misc/lv_txt.c ****     /*Real UTF-8 decode*/
 613:Drivers/lvgl/src/misc/lv_txt.c ****     else {
 614:Drivers/lvgl/src/misc/lv_txt.c ****         /*2 bytes UTF-8 code*/
 615:Drivers/lvgl/src/misc/lv_txt.c ****         if(LV_IS_2BYTES_UTF8_CODE(txt[*i])) {
 616:Drivers/lvgl/src/misc/lv_txt.c ****             result = (uint32_t)(txt[*i] & 0x1F) << 6;
 617:Drivers/lvgl/src/misc/lv_txt.c ****             (*i)++;
 618:Drivers/lvgl/src/misc/lv_txt.c ****             if(LV_IS_INVALID_UTF8_CODE(txt[*i])) return 0;
 619:Drivers/lvgl/src/misc/lv_txt.c ****             result += (txt[*i] & 0x3F);
 620:Drivers/lvgl/src/misc/lv_txt.c ****             (*i)++;
 621:Drivers/lvgl/src/misc/lv_txt.c ****         }
 622:Drivers/lvgl/src/misc/lv_txt.c ****         /*3 bytes UTF-8 code*/
 623:Drivers/lvgl/src/misc/lv_txt.c ****         else if(LV_IS_3BYTES_UTF8_CODE(txt[*i])) {
 624:Drivers/lvgl/src/misc/lv_txt.c ****             result = (uint32_t)(txt[*i] & 0x0F) << 12;
 625:Drivers/lvgl/src/misc/lv_txt.c ****             (*i)++;
 626:Drivers/lvgl/src/misc/lv_txt.c **** 
 627:Drivers/lvgl/src/misc/lv_txt.c ****             if(LV_IS_INVALID_UTF8_CODE(txt[*i])) return 0;
 628:Drivers/lvgl/src/misc/lv_txt.c ****             result += (uint32_t)(txt[*i] & 0x3F) << 6;
 629:Drivers/lvgl/src/misc/lv_txt.c ****             (*i)++;
 630:Drivers/lvgl/src/misc/lv_txt.c **** 
 631:Drivers/lvgl/src/misc/lv_txt.c ****             if(LV_IS_INVALID_UTF8_CODE(txt[*i])) return 0;
 632:Drivers/lvgl/src/misc/lv_txt.c ****             result += (txt[*i] & 0x3F);
 633:Drivers/lvgl/src/misc/lv_txt.c ****             (*i)++;
 634:Drivers/lvgl/src/misc/lv_txt.c ****         }
 635:Drivers/lvgl/src/misc/lv_txt.c ****         /*4 bytes UTF-8 code*/
 636:Drivers/lvgl/src/misc/lv_txt.c ****         else if(LV_IS_4BYTES_UTF8_CODE(txt[*i])) {
 637:Drivers/lvgl/src/misc/lv_txt.c ****             result = (uint32_t)(txt[*i] & 0x07) << 18;
 638:Drivers/lvgl/src/misc/lv_txt.c ****             (*i)++;
 639:Drivers/lvgl/src/misc/lv_txt.c **** 
 640:Drivers/lvgl/src/misc/lv_txt.c ****             if(LV_IS_INVALID_UTF8_CODE(txt[*i])) return 0;
 641:Drivers/lvgl/src/misc/lv_txt.c ****             result += (uint32_t)(txt[*i] & 0x3F) << 12;
 642:Drivers/lvgl/src/misc/lv_txt.c ****             (*i)++;
 643:Drivers/lvgl/src/misc/lv_txt.c **** 
 644:Drivers/lvgl/src/misc/lv_txt.c ****             if(LV_IS_INVALID_UTF8_CODE(txt[*i])) return 0;
 645:Drivers/lvgl/src/misc/lv_txt.c ****             result += (uint32_t)(txt[*i] & 0x3F) << 6;
 646:Drivers/lvgl/src/misc/lv_txt.c ****             (*i)++;
 647:Drivers/lvgl/src/misc/lv_txt.c **** 
 648:Drivers/lvgl/src/misc/lv_txt.c ****             if(LV_IS_INVALID_UTF8_CODE(txt[*i])) return 0;
 649:Drivers/lvgl/src/misc/lv_txt.c ****             result += txt[*i] & 0x3F;
 650:Drivers/lvgl/src/misc/lv_txt.c ****             (*i)++;
 651:Drivers/lvgl/src/misc/lv_txt.c ****         }
ARM GAS  /var/folders/lp/x54gwt890xv47sdkqj1k04q40000gn/T//ccf0N3ow.s 			page 16


 652:Drivers/lvgl/src/misc/lv_txt.c ****         else {
 653:Drivers/lvgl/src/misc/lv_txt.c ****             (*i)++; /*Not UTF-8 char. Go the next.*/
 654:Drivers/lvgl/src/misc/lv_txt.c ****         }
 655:Drivers/lvgl/src/misc/lv_txt.c ****     }
 656:Drivers/lvgl/src/misc/lv_txt.c ****     return result;
 657:Drivers/lvgl/src/misc/lv_txt.c **** }
 193              		.loc 1 657 1 view .LVU52
 194 0020 03B0     		add	sp, sp, #12
 195              		.cfi_remember_state
 196              		.cfi_def_cfa_offset 12
 197              		@ sp needed
 198 0022 70BC     		pop	{r4, r5, r6}
 199              		.cfi_restore 6
 200              		.cfi_restore 5
 201              		.cfi_restore 4
 202              		.cfi_def_cfa_offset 0
 203 0024 7047     		bx	lr
 204              	.LVL12:
 205              	.L17:
 206              		.cfi_restore_state
 615:Drivers/lvgl/src/misc/lv_txt.c ****             result = (uint32_t)(txt[*i] & 0x1F) << 6;
 207              		.loc 1 615 9 is_stmt 1 view .LVU53
 615:Drivers/lvgl/src/misc/lv_txt.c ****             result = (uint32_t)(txt[*i] & 0x1F) << 6;
 208              		.loc 1 615 11 is_stmt 0 view .LVU54
 209 0026 00F0E002 		and	r2, r0, #224
 210 002a C02A     		cmp	r2, #192
 211 002c 2AD0     		beq	.L27
 623:Drivers/lvgl/src/misc/lv_txt.c ****             result = (uint32_t)(txt[*i] & 0x0F) << 12;
 212              		.loc 1 623 14 is_stmt 1 view .LVU55
 623:Drivers/lvgl/src/misc/lv_txt.c ****             result = (uint32_t)(txt[*i] & 0x0F) << 12;
 213              		.loc 1 623 16 is_stmt 0 view .LVU56
 214 002e 00F0F002 		and	r2, r0, #240
 215 0032 E02A     		cmp	r2, #224
 216 0034 0DD0     		beq	.L28
 636:Drivers/lvgl/src/misc/lv_txt.c ****             result = (uint32_t)(txt[*i] & 0x07) << 18;
 217              		.loc 1 636 14 is_stmt 1 view .LVU57
 636:Drivers/lvgl/src/misc/lv_txt.c ****             result = (uint32_t)(txt[*i] & 0x07) << 18;
 218              		.loc 1 636 16 is_stmt 0 view .LVU58
 219 0036 00F0F802 		and	r2, r0, #248
 220 003a F02A     		cmp	r2, #240
 638:Drivers/lvgl/src/misc/lv_txt.c **** 
 221              		.loc 1 638 17 view .LVU59
 222 003c 0C60     		str	r4, [r1]
 636:Drivers/lvgl/src/misc/lv_txt.c ****             result = (uint32_t)(txt[*i] & 0x07) << 18;
 223              		.loc 1 636 16 view .LVU60
 224 003e 30D0     		beq	.L29
 225              	.LVL13:
 226              	.L21:
 618:Drivers/lvgl/src/misc/lv_txt.c ****             result += (txt[*i] & 0x3F);
 227              		.loc 1 618 57 discriminator 1 view .LVU61
 228 0040 0020     		movs	r0, #0
 229              		.loc 1 657 1 view .LVU62
 230 0042 03B0     		add	sp, sp, #12
 231              		.cfi_remember_state
 232              		.cfi_def_cfa_offset 12
 233              		@ sp needed
 234 0044 70BC     		pop	{r4, r5, r6}
ARM GAS  /var/folders/lp/x54gwt890xv47sdkqj1k04q40000gn/T//ccf0N3ow.s 			page 17


 235              		.cfi_restore 6
 236              		.cfi_restore 5
 237              		.cfi_restore 4
 238              		.cfi_def_cfa_offset 0
 239 0046 7047     		bx	lr
 240              	.LVL14:
 241              	.L25:
 242              		.cfi_restore_state
 243              		.loc 1 657 1 view .LVU63
 244 0048 0D46     		mov	r5, r1
 245 004a 0246     		mov	r2, r0
 246 004c 0124     		movs	r4, #1
 605:Drivers/lvgl/src/misc/lv_txt.c **** 
 247              		.loc 1 605 21 discriminator 1 view .LVU64
 248 004e 01A9     		add	r1, sp, #4
 249              	.LVL15:
 605:Drivers/lvgl/src/misc/lv_txt.c **** 
 250              		.loc 1 605 21 discriminator 1 view .LVU65
 251 0050 DFE7     		b	.L16
 252              	.LVL16:
 253              	.L28:
 624:Drivers/lvgl/src/misc/lv_txt.c ****             (*i)++;
 254              		.loc 1 624 13 is_stmt 1 view .LVU66
 625:Drivers/lvgl/src/misc/lv_txt.c **** 
 255              		.loc 1 625 13 view .LVU67
 625:Drivers/lvgl/src/misc/lv_txt.c **** 
 256              		.loc 1 625 17 is_stmt 0 view .LVU68
 257 0052 0C60     		str	r4, [r1]
 627:Drivers/lvgl/src/misc/lv_txt.c ****             result += (uint32_t)(txt[*i] & 0x3F) << 6;
 258              		.loc 1 627 13 is_stmt 1 view .LVU69
 627:Drivers/lvgl/src/misc/lv_txt.c ****             result += (uint32_t)(txt[*i] & 0x3F) << 6;
 259              		.loc 1 627 16 is_stmt 0 view .LVU70
 260 0054 1A5D     		ldrb	r2, [r3, r4]	@ zero_extendqisi2
 627:Drivers/lvgl/src/misc/lv_txt.c ****             result += (uint32_t)(txt[*i] & 0x3F) << 6;
 261              		.loc 1 627 15 view .LVU71
 262 0056 02F0C004 		and	r4, r2, #192
 263 005a 802C     		cmp	r4, #128
 264 005c F0D1     		bne	.L21
 628:Drivers/lvgl/src/misc/lv_txt.c ****             (*i)++;
 265              		.loc 1 628 13 is_stmt 1 view .LVU72
 266              	.LVL17:
 629:Drivers/lvgl/src/misc/lv_txt.c **** 
 267              		.loc 1 629 13 view .LVU73
 629:Drivers/lvgl/src/misc/lv_txt.c **** 
 268              		.loc 1 629 17 is_stmt 0 view .LVU74
 269 005e AC1C     		adds	r4, r5, #2
 270 0060 0C60     		str	r4, [r1]
 631:Drivers/lvgl/src/misc/lv_txt.c ****             result += (txt[*i] & 0x3F);
 271              		.loc 1 631 13 is_stmt 1 view .LVU75
 631:Drivers/lvgl/src/misc/lv_txt.c ****             result += (txt[*i] & 0x3F);
 272              		.loc 1 631 16 is_stmt 0 view .LVU76
 273 0062 1B5D     		ldrb	r3, [r3, r4]	@ zero_extendqisi2
 274              	.LVL18:
 631:Drivers/lvgl/src/misc/lv_txt.c ****             result += (txt[*i] & 0x3F);
 275              		.loc 1 631 15 view .LVU77
 276 0064 03F0C004 		and	r4, r3, #192
 277 0068 802C     		cmp	r4, #128
ARM GAS  /var/folders/lp/x54gwt890xv47sdkqj1k04q40000gn/T//ccf0N3ow.s 			page 18


 278 006a E9D1     		bne	.L21
 632:Drivers/lvgl/src/misc/lv_txt.c ****             (*i)++;
 279              		.loc 1 632 13 is_stmt 1 view .LVU78
 628:Drivers/lvgl/src/misc/lv_txt.c ****             (*i)++;
 280              		.loc 1 628 50 is_stmt 0 view .LVU79
 281 006c 9201     		lsls	r2, r2, #6
 282              	.LVL19:
 624:Drivers/lvgl/src/misc/lv_txt.c ****             (*i)++;
 283              		.loc 1 624 49 view .LVU80
 284 006e 0003     		lsls	r0, r0, #12
 628:Drivers/lvgl/src/misc/lv_txt.c ****             (*i)++;
 285              		.loc 1 628 50 view .LVU81
 286 0070 02F47C62 		and	r2, r2, #4032
 632:Drivers/lvgl/src/misc/lv_txt.c ****             (*i)++;
 287              		.loc 1 632 32 view .LVU82
 288 0074 03F03F03 		and	r3, r3, #63
 624:Drivers/lvgl/src/misc/lv_txt.c ****             (*i)++;
 289              		.loc 1 624 20 view .LVU83
 290 0078 80B2     		uxth	r0, r0
 632:Drivers/lvgl/src/misc/lv_txt.c ****             (*i)++;
 291              		.loc 1 632 20 view .LVU84
 292 007a 1A44     		add	r2, r2, r3
 633:Drivers/lvgl/src/misc/lv_txt.c ****         }
 293              		.loc 1 633 17 view .LVU85
 294 007c 0335     		adds	r5, r5, #3
 632:Drivers/lvgl/src/misc/lv_txt.c ****             (*i)++;
 295              		.loc 1 632 20 view .LVU86
 296 007e 1044     		add	r0, r0, r2
 297              	.LVL20:
 633:Drivers/lvgl/src/misc/lv_txt.c ****         }
 298              		.loc 1 633 13 is_stmt 1 view .LVU87
 633:Drivers/lvgl/src/misc/lv_txt.c ****         }
 299              		.loc 1 633 17 is_stmt 0 view .LVU88
 300 0080 0D60     		str	r5, [r1]
 301 0082 CDE7     		b	.L15
 302              	.LVL21:
 303              	.L27:
 616:Drivers/lvgl/src/misc/lv_txt.c ****             (*i)++;
 304              		.loc 1 616 13 is_stmt 1 view .LVU89
 617:Drivers/lvgl/src/misc/lv_txt.c ****             if(LV_IS_INVALID_UTF8_CODE(txt[*i])) return 0;
 305              		.loc 1 617 13 view .LVU90
 617:Drivers/lvgl/src/misc/lv_txt.c ****             if(LV_IS_INVALID_UTF8_CODE(txt[*i])) return 0;
 306              		.loc 1 617 17 is_stmt 0 view .LVU91
 307 0084 0C60     		str	r4, [r1]
 618:Drivers/lvgl/src/misc/lv_txt.c ****             result += (txt[*i] & 0x3F);
 308              		.loc 1 618 13 is_stmt 1 view .LVU92
 618:Drivers/lvgl/src/misc/lv_txt.c ****             result += (txt[*i] & 0x3F);
 309              		.loc 1 618 16 is_stmt 0 view .LVU93
 310 0086 1B5D     		ldrb	r3, [r3, r4]	@ zero_extendqisi2
 311              	.LVL22:
 618:Drivers/lvgl/src/misc/lv_txt.c ****             result += (txt[*i] & 0x3F);
 312              		.loc 1 618 15 view .LVU94
 313 0088 03F0C002 		and	r2, r3, #192
 314 008c 802A     		cmp	r2, #128
 315 008e D7D1     		bne	.L21
 619:Drivers/lvgl/src/misc/lv_txt.c ****             (*i)++;
 316              		.loc 1 619 13 is_stmt 1 view .LVU95
ARM GAS  /var/folders/lp/x54gwt890xv47sdkqj1k04q40000gn/T//ccf0N3ow.s 			page 19


 616:Drivers/lvgl/src/misc/lv_txt.c ****             (*i)++;
 317              		.loc 1 616 49 is_stmt 0 view .LVU96
 318 0090 8001     		lsls	r0, r0, #6
 319              	.LVL23:
 616:Drivers/lvgl/src/misc/lv_txt.c ****             (*i)++;
 320              		.loc 1 616 20 view .LVU97
 321 0092 00F4F860 		and	r0, r0, #1984
 619:Drivers/lvgl/src/misc/lv_txt.c ****             (*i)++;
 322              		.loc 1 619 32 view .LVU98
 323 0096 03F03F02 		and	r2, r3, #63
 620:Drivers/lvgl/src/misc/lv_txt.c ****         }
 324              		.loc 1 620 17 view .LVU99
 325 009a 0235     		adds	r5, r5, #2
 619:Drivers/lvgl/src/misc/lv_txt.c ****             (*i)++;
 326              		.loc 1 619 20 view .LVU100
 327 009c 1044     		add	r0, r0, r2
 328              	.LVL24:
 620:Drivers/lvgl/src/misc/lv_txt.c ****         }
 329              		.loc 1 620 13 is_stmt 1 view .LVU101
 620:Drivers/lvgl/src/misc/lv_txt.c ****         }
 330              		.loc 1 620 17 is_stmt 0 view .LVU102
 331 009e 0D60     		str	r5, [r1]
 332 00a0 BEE7     		b	.L15
 333              	.LVL25:
 334              	.L29:
 637:Drivers/lvgl/src/misc/lv_txt.c ****             (*i)++;
 335              		.loc 1 637 13 is_stmt 1 view .LVU103
 638:Drivers/lvgl/src/misc/lv_txt.c **** 
 336              		.loc 1 638 13 view .LVU104
 640:Drivers/lvgl/src/misc/lv_txt.c ****             result += (uint32_t)(txt[*i] & 0x3F) << 12;
 337              		.loc 1 640 13 view .LVU105
 640:Drivers/lvgl/src/misc/lv_txt.c ****             result += (uint32_t)(txt[*i] & 0x3F) << 12;
 338              		.loc 1 640 16 is_stmt 0 view .LVU106
 339 00a2 1A5D     		ldrb	r2, [r3, r4]	@ zero_extendqisi2
 640:Drivers/lvgl/src/misc/lv_txt.c ****             result += (uint32_t)(txt[*i] & 0x3F) << 12;
 340              		.loc 1 640 15 view .LVU107
 341 00a4 02F0C004 		and	r4, r2, #192
 342 00a8 802C     		cmp	r4, #128
 343 00aa C9D1     		bne	.L21
 641:Drivers/lvgl/src/misc/lv_txt.c ****             (*i)++;
 344              		.loc 1 641 13 is_stmt 1 view .LVU108
 345              	.LVL26:
 642:Drivers/lvgl/src/misc/lv_txt.c **** 
 346              		.loc 1 642 13 view .LVU109
 642:Drivers/lvgl/src/misc/lv_txt.c **** 
 347              		.loc 1 642 17 is_stmt 0 view .LVU110
 348 00ac AC1C     		adds	r4, r5, #2
 349 00ae 0C60     		str	r4, [r1]
 644:Drivers/lvgl/src/misc/lv_txt.c ****             result += (uint32_t)(txt[*i] & 0x3F) << 6;
 350              		.loc 1 644 13 is_stmt 1 view .LVU111
 644:Drivers/lvgl/src/misc/lv_txt.c ****             result += (uint32_t)(txt[*i] & 0x3F) << 6;
 351              		.loc 1 644 16 is_stmt 0 view .LVU112
 352 00b0 1C5D     		ldrb	r4, [r3, r4]	@ zero_extendqisi2
 644:Drivers/lvgl/src/misc/lv_txt.c ****             result += (uint32_t)(txt[*i] & 0x3F) << 6;
 353              		.loc 1 644 15 view .LVU113
 354 00b2 04F0C00C 		and	ip, r4, #192
 355 00b6 BCF1800F 		cmp	ip, #128
ARM GAS  /var/folders/lp/x54gwt890xv47sdkqj1k04q40000gn/T//ccf0N3ow.s 			page 20


 356 00ba C1D1     		bne	.L21
 645:Drivers/lvgl/src/misc/lv_txt.c ****             (*i)++;
 357              		.loc 1 645 13 is_stmt 1 view .LVU114
 358              	.LVL27:
 646:Drivers/lvgl/src/misc/lv_txt.c **** 
 359              		.loc 1 646 13 view .LVU115
 646:Drivers/lvgl/src/misc/lv_txt.c **** 
 360              		.loc 1 646 17 is_stmt 0 view .LVU116
 361 00bc EE1C     		adds	r6, r5, #3
 362 00be 0E60     		str	r6, [r1]
 648:Drivers/lvgl/src/misc/lv_txt.c ****             result += txt[*i] & 0x3F;
 363              		.loc 1 648 13 is_stmt 1 view .LVU117
 648:Drivers/lvgl/src/misc/lv_txt.c ****             result += txt[*i] & 0x3F;
 364              		.loc 1 648 16 is_stmt 0 view .LVU118
 365 00c0 13F806C0 		ldrb	ip, [r3, r6]	@ zero_extendqisi2
 648:Drivers/lvgl/src/misc/lv_txt.c ****             result += txt[*i] & 0x3F;
 366              		.loc 1 648 15 view .LVU119
 367 00c4 0CF0C003 		and	r3, ip, #192
 368              	.LVL28:
 648:Drivers/lvgl/src/misc/lv_txt.c ****             result += txt[*i] & 0x3F;
 369              		.loc 1 648 15 view .LVU120
 370 00c8 802B     		cmp	r3, #128
 371 00ca B9D1     		bne	.L21
 649:Drivers/lvgl/src/misc/lv_txt.c ****             (*i)++;
 372              		.loc 1 649 13 is_stmt 1 view .LVU121
 637:Drivers/lvgl/src/misc/lv_txt.c ****             (*i)++;
 373              		.loc 1 637 49 is_stmt 0 view .LVU122
 374 00cc 8304     		lsls	r3, r0, #18
 641:Drivers/lvgl/src/misc/lv_txt.c ****             (*i)++;
 375              		.loc 1 641 50 view .LVU123
 376 00ce 1203     		lsls	r2, r2, #12
 377              	.LVL29:
 637:Drivers/lvgl/src/misc/lv_txt.c ****             (*i)++;
 378              		.loc 1 637 20 view .LVU124
 379 00d0 03F4E013 		and	r3, r3, #1835008
 641:Drivers/lvgl/src/misc/lv_txt.c ****             (*i)++;
 380              		.loc 1 641 50 view .LVU125
 381 00d4 02F47C32 		and	r2, r2, #258048
 641:Drivers/lvgl/src/misc/lv_txt.c ****             (*i)++;
 382              		.loc 1 641 20 view .LVU126
 383 00d8 1A43     		orrs	r2, r2, r3
 645:Drivers/lvgl/src/misc/lv_txt.c ****             (*i)++;
 384              		.loc 1 645 50 view .LVU127
 385 00da A301     		lsls	r3, r4, #6
 386 00dc 03F47C63 		and	r3, r3, #4032
 387 00e0 1A44     		add	r2, r2, r3
 649:Drivers/lvgl/src/misc/lv_txt.c ****             (*i)++;
 388              		.loc 1 649 31 view .LVU128
 389 00e2 0CF03F0C 		and	ip, ip, #63
 650:Drivers/lvgl/src/misc/lv_txt.c ****         }
 390              		.loc 1 650 17 view .LVU129
 391 00e6 0435     		adds	r5, r5, #4
 649:Drivers/lvgl/src/misc/lv_txt.c ****             (*i)++;
 392              		.loc 1 649 20 view .LVU130
 393 00e8 0CEB0200 		add	r0, ip, r2
 394              	.LVL30:
 650:Drivers/lvgl/src/misc/lv_txt.c ****         }
ARM GAS  /var/folders/lp/x54gwt890xv47sdkqj1k04q40000gn/T//ccf0N3ow.s 			page 21


 395              		.loc 1 650 13 is_stmt 1 view .LVU131
 650:Drivers/lvgl/src/misc/lv_txt.c ****         }
 396              		.loc 1 650 17 is_stmt 0 view .LVU132
 397 00ec 0D60     		str	r5, [r1]
 398 00ee 97E7     		b	.L15
 399              		.cfi_endproc
 400              	.LFE67:
 402              		.section	.text.lv_txt_utf8_prev,"ax",%progbits
 403              		.align	1
 404              		.p2align 2,,3
 405              		.syntax unified
 406              		.thumb
 407              		.thumb_func
 409              	lv_txt_utf8_prev:
 410              	.LVL31:
 411              	.LFB68:
 658:Drivers/lvgl/src/misc/lv_txt.c **** 
 659:Drivers/lvgl/src/misc/lv_txt.c **** /**
 660:Drivers/lvgl/src/misc/lv_txt.c ****  * Get previous UTF-8 character form a string.
 661:Drivers/lvgl/src/misc/lv_txt.c ****  * @param txt pointer to '\0' terminated string
 662:Drivers/lvgl/src/misc/lv_txt.c ****  * @param i start byte index in 'txt' where to start. After the call it will point to the previous
 663:Drivers/lvgl/src/misc/lv_txt.c ****  * UTF-8 char in 'txt'.
 664:Drivers/lvgl/src/misc/lv_txt.c ****  * @return the decoded Unicode character or 0 on invalid UTF-8 code
 665:Drivers/lvgl/src/misc/lv_txt.c ****  */
 666:Drivers/lvgl/src/misc/lv_txt.c **** static uint32_t lv_txt_utf8_prev(const char * txt, uint32_t * i)
 667:Drivers/lvgl/src/misc/lv_txt.c **** {
 412              		.loc 1 667 1 is_stmt 1 view -0
 413              		.cfi_startproc
 414              		@ args = 0, pretend = 0, frame = 8
 415              		@ frame_needed = 0, uses_anonymous_args = 0
 668:Drivers/lvgl/src/misc/lv_txt.c ****     uint8_t c_size;
 416              		.loc 1 668 5 view .LVU134
 669:Drivers/lvgl/src/misc/lv_txt.c ****     uint8_t cnt = 0;
 417              		.loc 1 669 5 view .LVU135
 670:Drivers/lvgl/src/misc/lv_txt.c **** 
 671:Drivers/lvgl/src/misc/lv_txt.c ****     /*Try to find a !0 long UTF-8 char by stepping one character back*/
 672:Drivers/lvgl/src/misc/lv_txt.c ****     (*i)--;
 418              		.loc 1 672 5 view .LVU136
 667:Drivers/lvgl/src/misc/lv_txt.c ****     uint8_t c_size;
 419              		.loc 1 667 1 is_stmt 0 view .LVU137
 420 0000 F0B5     		push	{r4, r5, r6, r7, lr}
 421              		.cfi_def_cfa_offset 20
 422              		.cfi_offset 4, -20
 423              		.cfi_offset 5, -16
 424              		.cfi_offset 6, -12
 425              		.cfi_offset 7, -8
 426              		.cfi_offset 14, -4
 427              		.loc 1 672 9 view .LVU138
 428 0002 0A68     		ldr	r2, [r1]
 429 0004 0F4F     		ldr	r7, .L40
 430 0006 013A     		subs	r2, r2, #1
 667:Drivers/lvgl/src/misc/lv_txt.c ****     uint8_t c_size;
 431              		.loc 1 667 1 view .LVU139
 432 0008 83B0     		sub	sp, sp, #12
 433              		.cfi_def_cfa_offset 32
 667:Drivers/lvgl/src/misc/lv_txt.c ****     uint8_t c_size;
 434              		.loc 1 667 1 view .LVU140
ARM GAS  /var/folders/lp/x54gwt890xv47sdkqj1k04q40000gn/T//ccf0N3ow.s 			page 22


 435 000a 0D46     		mov	r5, r1
 436 000c 0646     		mov	r6, r0
 437              		.loc 1 672 9 view .LVU141
 438 000e 0A60     		str	r2, [r1]
 673:Drivers/lvgl/src/misc/lv_txt.c ****     do {
 439              		.loc 1 673 5 is_stmt 1 view .LVU142
 674:Drivers/lvgl/src/misc/lv_txt.c ****         if(cnt >= 4) return 0; /*No UTF-8 char found before the initial*/
 440              		.loc 1 674 9 view .LVU143
 672:Drivers/lvgl/src/misc/lv_txt.c ****     do {
 441              		.loc 1 672 9 is_stmt 0 view .LVU144
 442 0010 0424     		movs	r4, #4
 443              	.LVL32:
 444              	.L35:
 675:Drivers/lvgl/src/misc/lv_txt.c **** 
 676:Drivers/lvgl/src/misc/lv_txt.c ****         c_size = _lv_txt_encoded_size(&txt[*i]);
 445              		.loc 1 676 9 is_stmt 1 view .LVU145
 446              		.loc 1 676 18 is_stmt 0 view .LVU146
 447 0012 3B68     		ldr	r3, [r7]
 448 0014 B018     		adds	r0, r6, r2
 449 0016 9847     		blx	r3
 450              	.LVL33:
 677:Drivers/lvgl/src/misc/lv_txt.c ****         if(c_size == 0) {
 678:Drivers/lvgl/src/misc/lv_txt.c ****             if(*i != 0)
 451              		.loc 1 678 13 is_stmt 1 view .LVU147
 679:Drivers/lvgl/src/misc/lv_txt.c ****                 (*i)--;
 452              		.loc 1 679 17 view .LVU148
 677:Drivers/lvgl/src/misc/lv_txt.c ****         if(c_size == 0) {
 453              		.loc 1 677 9 view .LVU149
 677:Drivers/lvgl/src/misc/lv_txt.c ****         if(c_size == 0) {
 454              		.loc 1 677 11 is_stmt 0 view .LVU150
 455 0018 40B1     		cbz	r0, .L31
 680:Drivers/lvgl/src/misc/lv_txt.c ****             else
 681:Drivers/lvgl/src/misc/lv_txt.c ****                 return 0;
 682:Drivers/lvgl/src/misc/lv_txt.c ****         }
 683:Drivers/lvgl/src/misc/lv_txt.c ****         cnt++;
 456              		.loc 1 683 9 is_stmt 1 view .LVU151
 684:Drivers/lvgl/src/misc/lv_txt.c ****     } while(c_size == 0);
 457              		.loc 1 684 20 view .LVU152
 685:Drivers/lvgl/src/misc/lv_txt.c **** 
 686:Drivers/lvgl/src/misc/lv_txt.c ****     uint32_t i_tmp  = *i;
 458              		.loc 1 686 5 view .LVU153
 687:Drivers/lvgl/src/misc/lv_txt.c ****     uint32_t letter = _lv_txt_encoded_next(txt, &i_tmp); /*Character found, get it*/
 459              		.loc 1 687 23 is_stmt 0 view .LVU154
 460 001a 0B4B     		ldr	r3, .L40+4
 686:Drivers/lvgl/src/misc/lv_txt.c ****     uint32_t letter = _lv_txt_encoded_next(txt, &i_tmp); /*Character found, get it*/
 461              		.loc 1 686 14 view .LVU155
 462 001c 2A68     		ldr	r2, [r5]
 463              		.loc 1 687 23 view .LVU156
 464 001e 1B68     		ldr	r3, [r3]
 686:Drivers/lvgl/src/misc/lv_txt.c ****     uint32_t letter = _lv_txt_encoded_next(txt, &i_tmp); /*Character found, get it*/
 465              		.loc 1 686 14 view .LVU157
 466 0020 0192     		str	r2, [sp, #4]
 467              		.loc 1 687 5 is_stmt 1 view .LVU158
 468              		.loc 1 687 23 is_stmt 0 view .LVU159
 469 0022 01A9     		add	r1, sp, #4
 470 0024 3046     		mov	r0, r6
 471              	.LVL34:
ARM GAS  /var/folders/lp/x54gwt890xv47sdkqj1k04q40000gn/T//ccf0N3ow.s 			page 23


 472              		.loc 1 687 23 view .LVU160
 473 0026 9847     		blx	r3
 474              	.LVL35:
 688:Drivers/lvgl/src/misc/lv_txt.c **** 
 689:Drivers/lvgl/src/misc/lv_txt.c ****     return letter;
 475              		.loc 1 689 5 is_stmt 1 view .LVU161
 690:Drivers/lvgl/src/misc/lv_txt.c **** }
 476              		.loc 1 690 1 is_stmt 0 view .LVU162
 477 0028 03B0     		add	sp, sp, #12
 478              		.cfi_remember_state
 479              		.cfi_def_cfa_offset 20
 480              		@ sp needed
 481 002a F0BD     		pop	{r4, r5, r6, r7, pc}
 482              	.LVL36:
 483              	.L31:
 484              		.cfi_restore_state
 678:Drivers/lvgl/src/misc/lv_txt.c ****                 (*i)--;
 485              		.loc 1 678 16 view .LVU163
 486 002c 2968     		ldr	r1, [r5]
 674:Drivers/lvgl/src/misc/lv_txt.c **** 
 487              		.loc 1 674 11 view .LVU164
 488 002e 631E     		subs	r3, r4, #1
 679:Drivers/lvgl/src/misc/lv_txt.c ****             else
 489              		.loc 1 679 21 view .LVU165
 490 0030 4A1E     		subs	r2, r1, #1
 678:Drivers/lvgl/src/misc/lv_txt.c ****                 (*i)--;
 491              		.loc 1 678 15 view .LVU166
 492 0032 19B1     		cbz	r1, .L34
 674:Drivers/lvgl/src/misc/lv_txt.c **** 
 493              		.loc 1 674 11 view .LVU167
 494 0034 13F0FF04 		ands	r4, r3, #255
 679:Drivers/lvgl/src/misc/lv_txt.c ****             else
 495              		.loc 1 679 21 view .LVU168
 496 0038 2A60     		str	r2, [r5]
 683:Drivers/lvgl/src/misc/lv_txt.c ****     } while(c_size == 0);
 497              		.loc 1 683 9 is_stmt 1 view .LVU169
 498              	.LVL37:
 684:Drivers/lvgl/src/misc/lv_txt.c **** 
 499              		.loc 1 684 20 view .LVU170
 673:Drivers/lvgl/src/misc/lv_txt.c ****         if(cnt >= 4) return 0; /*No UTF-8 char found before the initial*/
 500              		.loc 1 673 5 view .LVU171
 674:Drivers/lvgl/src/misc/lv_txt.c **** 
 501              		.loc 1 674 9 view .LVU172
 674:Drivers/lvgl/src/misc/lv_txt.c **** 
 502              		.loc 1 674 11 is_stmt 0 view .LVU173
 503 003a EAD1     		bne	.L35
 504              	.LVL38:
 505              	.L34:
 674:Drivers/lvgl/src/misc/lv_txt.c **** 
 506              		.loc 1 674 29 discriminator 1 view .LVU174
 507 003c 0020     		movs	r0, #0
 508              	.LVL39:
 509              		.loc 1 690 1 view .LVU175
 510 003e 03B0     		add	sp, sp, #12
 511              		.cfi_def_cfa_offset 20
 512              		@ sp needed
 513 0040 F0BD     		pop	{r4, r5, r6, r7, pc}
ARM GAS  /var/folders/lp/x54gwt890xv47sdkqj1k04q40000gn/T//ccf0N3ow.s 			page 24


 514              	.LVL40:
 515              	.L41:
 516              		.loc 1 690 1 view .LVU176
 517 0042 00BF     		.align	2
 518              	.L40:
 519 0044 00000000 		.word	_lv_txt_encoded_size
 520 0048 00000000 		.word	_lv_txt_encoded_next
 521              		.cfi_endproc
 522              	.LFE68:
 524              		.section	.text.lv_txt_utf8_get_byte_id,"ax",%progbits
 525              		.align	1
 526              		.p2align 2,,3
 527              		.syntax unified
 528              		.thumb
 529              		.thumb_func
 531              	lv_txt_utf8_get_byte_id:
 532              	.LVL41:
 533              	.LFB69:
 691:Drivers/lvgl/src/misc/lv_txt.c **** 
 692:Drivers/lvgl/src/misc/lv_txt.c **** /**
 693:Drivers/lvgl/src/misc/lv_txt.c ****  * Convert a character index (in an UTF-8 text) to byte index.
 694:Drivers/lvgl/src/misc/lv_txt.c ****  * E.g. in "AÁRT" index of 'R' is 2th char but start at byte 3 because 'Á' is 2 bytes long
 695:Drivers/lvgl/src/misc/lv_txt.c ****  * @param txt a '\0' terminated UTF-8 string
 696:Drivers/lvgl/src/misc/lv_txt.c ****  * @param utf8_id character index
 697:Drivers/lvgl/src/misc/lv_txt.c ****  * @return byte index of the 'utf8_id'th letter
 698:Drivers/lvgl/src/misc/lv_txt.c ****  */
 699:Drivers/lvgl/src/misc/lv_txt.c **** static uint32_t lv_txt_utf8_get_byte_id(const char * txt, uint32_t utf8_id)
 700:Drivers/lvgl/src/misc/lv_txt.c **** {
 534              		.loc 1 700 1 is_stmt 1 view -0
 535              		.cfi_startproc
 536              		@ args = 0, pretend = 0, frame = 0
 537              		@ frame_needed = 0, uses_anonymous_args = 0
 701:Drivers/lvgl/src/misc/lv_txt.c ****     uint32_t i;
 538              		.loc 1 701 5 view .LVU178
 702:Drivers/lvgl/src/misc/lv_txt.c ****     uint32_t byte_cnt = 0;
 539              		.loc 1 702 5 view .LVU179
 703:Drivers/lvgl/src/misc/lv_txt.c ****     for(i = 0; i < utf8_id && txt[byte_cnt] != '\0'; i++) {
 540              		.loc 1 703 5 view .LVU180
 541              		.loc 1 703 28 discriminator 1 view .LVU181
 700:Drivers/lvgl/src/misc/lv_txt.c ****     uint32_t i;
 542              		.loc 1 700 1 is_stmt 0 view .LVU182
 543 0000 2DE9F041 		push	{r4, r5, r6, r7, r8, lr}
 544              		.cfi_def_cfa_offset 24
 545              		.cfi_offset 4, -24
 546              		.cfi_offset 5, -20
 547              		.cfi_offset 6, -16
 548              		.cfi_offset 7, -12
 549              		.cfi_offset 8, -8
 550              		.cfi_offset 14, -4
 551              		.loc 1 703 28 discriminator 1 view .LVU183
 552 0004 0F46     		mov	r7, r1
 702:Drivers/lvgl/src/misc/lv_txt.c ****     uint32_t byte_cnt = 0;
 553              		.loc 1 702 14 view .LVU184
 554 0006 0C46     		mov	r4, r1
 555              		.loc 1 703 28 discriminator 1 view .LVU185
 556 0008 A1B1     		cbz	r1, .L42
 702:Drivers/lvgl/src/misc/lv_txt.c ****     uint32_t byte_cnt = 0;
ARM GAS  /var/folders/lp/x54gwt890xv47sdkqj1k04q40000gn/T//ccf0N3ow.s 			page 25


 557              		.loc 1 702 14 view .LVU186
 558 000a 0024     		movs	r4, #0
 559              	.LBB17:
 704:Drivers/lvgl/src/misc/lv_txt.c ****         uint8_t c_size = _lv_txt_encoded_size(&txt[byte_cnt]);
 560              		.loc 1 704 26 view .LVU187
 561 000c DFF82C80 		ldr	r8, .L48
 562 0010 0646     		mov	r6, r0
 563              	.LBE17:
 703:Drivers/lvgl/src/misc/lv_txt.c ****     for(i = 0; i < utf8_id && txt[byte_cnt] != '\0'; i++) {
 564              		.loc 1 703 11 view .LVU188
 565 0012 2546     		mov	r5, r4
 566 0014 0AE0     		b	.L43
 567              	.LVL42:
 568              	.L45:
 569              	.LBB18:
 570              		.loc 1 704 26 view .LVU189
 571 0016 D8F80030 		ldr	r3, [r8]
 572 001a 9847     		blx	r3
 573              	.LVL43:
 705:Drivers/lvgl/src/misc/lv_txt.c ****         /* If the char was invalid tell it's 1 byte long*/
 706:Drivers/lvgl/src/misc/lv_txt.c ****         byte_cnt += c_size ? c_size : 1;
 574              		.loc 1 706 9 is_stmt 1 view .LVU190
 575              	.LBE18:
 703:Drivers/lvgl/src/misc/lv_txt.c ****         uint8_t c_size = _lv_txt_encoded_size(&txt[byte_cnt]);
 576              		.loc 1 703 55 is_stmt 0 discriminator 2 view .LVU191
 577 001c 0135     		adds	r5, r5, #1
 578              	.LVL44:
 579              	.LBB19:
 580              		.loc 1 706 18 discriminator 4 view .LVU192
 581 001e 0128     		cmp	r0, #1
 582 0020 38BF     		it	cc
 583 0022 0120     		movcc	r0, #1
 584              	.LVL45:
 585              		.loc 1 706 18 discriminator 4 view .LVU193
 586              	.LBE19:
 703:Drivers/lvgl/src/misc/lv_txt.c ****         uint8_t c_size = _lv_txt_encoded_size(&txt[byte_cnt]);
 587              		.loc 1 703 28 discriminator 1 view .LVU194
 588 0024 AF42     		cmp	r7, r5
 589              	.LBB20:
 590              		.loc 1 706 18 discriminator 4 view .LVU195
 591 0026 54FA80F4 		uxtab	r4, r4, r0
 592              	.LVL46:
 593              		.loc 1 706 18 discriminator 4 view .LVU196
 594              	.LBE20:
 703:Drivers/lvgl/src/misc/lv_txt.c ****         uint8_t c_size = _lv_txt_encoded_size(&txt[byte_cnt]);
 595              		.loc 1 703 55 is_stmt 1 discriminator 2 view .LVU197
 703:Drivers/lvgl/src/misc/lv_txt.c ****         uint8_t c_size = _lv_txt_encoded_size(&txt[byte_cnt]);
 596              		.loc 1 703 28 discriminator 1 view .LVU198
 597 002a 03D0     		beq	.L42
 598              	.LVL47:
 599              	.L43:
 600              	.LBB21:
 704:Drivers/lvgl/src/misc/lv_txt.c ****         uint8_t c_size = _lv_txt_encoded_size(&txt[byte_cnt]);
 601              		.loc 1 704 9 view .LVU199
 704:Drivers/lvgl/src/misc/lv_txt.c ****         uint8_t c_size = _lv_txt_encoded_size(&txt[byte_cnt]);
 602              		.loc 1 704 9 is_stmt 0 view .LVU200
 603              	.LBE21:
ARM GAS  /var/folders/lp/x54gwt890xv47sdkqj1k04q40000gn/T//ccf0N3ow.s 			page 26


 703:Drivers/lvgl/src/misc/lv_txt.c ****         uint8_t c_size = _lv_txt_encoded_size(&txt[byte_cnt]);
 604              		.loc 1 703 28 discriminator 3 view .LVU201
 605 002c 335D     		ldrb	r3, [r6, r4]	@ zero_extendqisi2
 703:Drivers/lvgl/src/misc/lv_txt.c ****         uint8_t c_size = _lv_txt_encoded_size(&txt[byte_cnt]);
 606              		.loc 1 703 34 discriminator 3 view .LVU202
 607 002e 3019     		adds	r0, r6, r4
 703:Drivers/lvgl/src/misc/lv_txt.c ****         uint8_t c_size = _lv_txt_encoded_size(&txt[byte_cnt]);
 608              		.loc 1 703 28 discriminator 3 view .LVU203
 609 0030 002B     		cmp	r3, #0
 610 0032 F0D1     		bne	.L45
 611              	.LVL48:
 612              	.L42:
 707:Drivers/lvgl/src/misc/lv_txt.c ****     }
 708:Drivers/lvgl/src/misc/lv_txt.c **** 
 709:Drivers/lvgl/src/misc/lv_txt.c ****     return byte_cnt;
 710:Drivers/lvgl/src/misc/lv_txt.c **** }
 613              		.loc 1 710 1 view .LVU204
 614 0034 2046     		mov	r0, r4
 615 0036 BDE8F081 		pop	{r4, r5, r6, r7, r8, pc}
 616              	.LVL49:
 617              	.L49:
 618              		.loc 1 710 1 view .LVU205
 619 003a 00BF     		.align	2
 620              	.L48:
 621 003c 00000000 		.word	_lv_txt_encoded_size
 622              		.cfi_endproc
 623              	.LFE69:
 625              		.section	.text.lv_txt_utf8_get_char_id,"ax",%progbits
 626              		.align	1
 627              		.p2align 2,,3
 628              		.syntax unified
 629              		.thumb
 630              		.thumb_func
 632              	lv_txt_utf8_get_char_id:
 633              	.LVL50:
 634              	.LFB70:
 711:Drivers/lvgl/src/misc/lv_txt.c **** 
 712:Drivers/lvgl/src/misc/lv_txt.c **** /**
 713:Drivers/lvgl/src/misc/lv_txt.c ****  * Convert a byte index (in an UTF-8 text) to character index.
 714:Drivers/lvgl/src/misc/lv_txt.c ****  * E.g. in "AÁRT" index of 'R' is 2th char but start at byte 3 because 'Á' is 2 bytes long
 715:Drivers/lvgl/src/misc/lv_txt.c ****  * @param txt a '\0' terminated UTF-8 string
 716:Drivers/lvgl/src/misc/lv_txt.c ****  * @param byte_id byte index
 717:Drivers/lvgl/src/misc/lv_txt.c ****  * @return character index of the letter at 'byte_id'th position
 718:Drivers/lvgl/src/misc/lv_txt.c ****  */
 719:Drivers/lvgl/src/misc/lv_txt.c **** static uint32_t lv_txt_utf8_get_char_id(const char * txt, uint32_t byte_id)
 720:Drivers/lvgl/src/misc/lv_txt.c **** {
 635              		.loc 1 720 1 is_stmt 1 view -0
 636              		.cfi_startproc
 637              		@ args = 0, pretend = 0, frame = 8
 638              		@ frame_needed = 0, uses_anonymous_args = 0
 721:Drivers/lvgl/src/misc/lv_txt.c ****     uint32_t i        = 0;
 639              		.loc 1 721 5 view .LVU207
 720:Drivers/lvgl/src/misc/lv_txt.c ****     uint32_t i        = 0;
 640              		.loc 1 720 1 is_stmt 0 view .LVU208
 641 0000 F0B5     		push	{r4, r5, r6, r7, lr}
 642              		.cfi_def_cfa_offset 20
 643              		.cfi_offset 4, -20
ARM GAS  /var/folders/lp/x54gwt890xv47sdkqj1k04q40000gn/T//ccf0N3ow.s 			page 27


 644              		.cfi_offset 5, -16
 645              		.cfi_offset 6, -12
 646              		.cfi_offset 7, -8
 647              		.cfi_offset 14, -4
 648 0002 83B0     		sub	sp, sp, #12
 649              		.cfi_def_cfa_offset 32
 650              		.loc 1 721 14 view .LVU209
 651 0004 0024     		movs	r4, #0
 652 0006 0194     		str	r4, [sp, #4]
 722:Drivers/lvgl/src/misc/lv_txt.c ****     uint32_t char_cnt = 0;
 653              		.loc 1 722 5 is_stmt 1 view .LVU210
 654              	.LVL51:
 723:Drivers/lvgl/src/misc/lv_txt.c **** 
 724:Drivers/lvgl/src/misc/lv_txt.c ****     while(i < byte_id) {
 655              		.loc 1 724 5 view .LVU211
 656              		.loc 1 724 13 view .LVU212
 657 0008 0D46     		mov	r5, r1
 658 000a 69B1     		cbz	r1, .L53
 659 000c 084F     		ldr	r7, .L56
 660 000e 0646     		mov	r6, r0
 661              	.LVL52:
 662              	.L52:
 725:Drivers/lvgl/src/misc/lv_txt.c ****         _lv_txt_encoded_next(txt, &i); /*'i' points to the next letter so use the prev. value*/
 663              		.loc 1 725 9 view .LVU213
 664 0010 3B68     		ldr	r3, [r7]
 665 0012 01A9     		add	r1, sp, #4
 666 0014 3046     		mov	r0, r6
 667 0016 9847     		blx	r3
 668              	.LVL53:
 726:Drivers/lvgl/src/misc/lv_txt.c ****         char_cnt++;
 669              		.loc 1 726 9 view .LVU214
 724:Drivers/lvgl/src/misc/lv_txt.c ****         _lv_txt_encoded_next(txt, &i); /*'i' points to the next letter so use the prev. value*/
 670              		.loc 1 724 13 is_stmt 0 view .LVU215
 671 0018 019B     		ldr	r3, [sp, #4]
 672 001a AB42     		cmp	r3, r5
 673              		.loc 1 726 17 view .LVU216
 674 001c 04F10104 		add	r4, r4, #1
 675              	.LVL54:
 724:Drivers/lvgl/src/misc/lv_txt.c ****         _lv_txt_encoded_next(txt, &i); /*'i' points to the next letter so use the prev. value*/
 676              		.loc 1 724 13 is_stmt 1 view .LVU217
 677 0020 F6D3     		bcc	.L52
 727:Drivers/lvgl/src/misc/lv_txt.c ****     }
 728:Drivers/lvgl/src/misc/lv_txt.c **** 
 729:Drivers/lvgl/src/misc/lv_txt.c ****     return char_cnt;
 730:Drivers/lvgl/src/misc/lv_txt.c **** }
 678              		.loc 1 730 1 is_stmt 0 view .LVU218
 679 0022 2046     		mov	r0, r4
 680 0024 03B0     		add	sp, sp, #12
 681              		.cfi_remember_state
 682              		.cfi_def_cfa_offset 20
 683              		@ sp needed
 684 0026 F0BD     		pop	{r4, r5, r6, r7, pc}
 685              	.LVL55:
 686              	.L53:
 687              		.cfi_restore_state
 722:Drivers/lvgl/src/misc/lv_txt.c **** 
 688              		.loc 1 722 14 view .LVU219
ARM GAS  /var/folders/lp/x54gwt890xv47sdkqj1k04q40000gn/T//ccf0N3ow.s 			page 28


 689 0028 0C46     		mov	r4, r1
 729:Drivers/lvgl/src/misc/lv_txt.c **** }
 690              		.loc 1 729 5 is_stmt 1 view .LVU220
 691              		.loc 1 730 1 is_stmt 0 view .LVU221
 692 002a 2046     		mov	r0, r4
 693              	.LVL56:
 694              		.loc 1 730 1 view .LVU222
 695 002c 03B0     		add	sp, sp, #12
 696              		.cfi_def_cfa_offset 20
 697              		@ sp needed
 698 002e F0BD     		pop	{r4, r5, r6, r7, pc}
 699              	.L57:
 700              		.align	2
 701              	.L56:
 702 0030 00000000 		.word	_lv_txt_encoded_next
 703              		.cfi_endproc
 704              	.LFE70:
 706              		.section	.text.lv_txt_utf8_get_length,"ax",%progbits
 707              		.align	1
 708              		.p2align 2,,3
 709              		.syntax unified
 710              		.thumb
 711              		.thumb_func
 713              	lv_txt_utf8_get_length:
 714              	.LVL57:
 715              	.LFB71:
 731:Drivers/lvgl/src/misc/lv_txt.c **** 
 732:Drivers/lvgl/src/misc/lv_txt.c **** /**
 733:Drivers/lvgl/src/misc/lv_txt.c ****  * Get the number of characters (and NOT bytes) in a string. Decode it with UTF-8 if enabled.
 734:Drivers/lvgl/src/misc/lv_txt.c ****  * E.g.: "ÁBC" is 3 characters (but 4 bytes)
 735:Drivers/lvgl/src/misc/lv_txt.c ****  * @param txt a '\0' terminated char string
 736:Drivers/lvgl/src/misc/lv_txt.c ****  * @return number of characters
 737:Drivers/lvgl/src/misc/lv_txt.c ****  */
 738:Drivers/lvgl/src/misc/lv_txt.c **** static uint32_t lv_txt_utf8_get_length(const char * txt)
 739:Drivers/lvgl/src/misc/lv_txt.c **** {
 716              		.loc 1 739 1 is_stmt 1 view -0
 717              		.cfi_startproc
 718              		@ args = 0, pretend = 0, frame = 8
 719              		@ frame_needed = 0, uses_anonymous_args = 0
 740:Drivers/lvgl/src/misc/lv_txt.c ****     uint32_t len = 0;
 720              		.loc 1 740 5 view .LVU224
 741:Drivers/lvgl/src/misc/lv_txt.c ****     uint32_t i   = 0;
 721              		.loc 1 741 5 view .LVU225
 739:Drivers/lvgl/src/misc/lv_txt.c ****     uint32_t len = 0;
 722              		.loc 1 739 1 is_stmt 0 view .LVU226
 723 0000 70B5     		push	{r4, r5, r6, lr}
 724              		.cfi_def_cfa_offset 16
 725              		.cfi_offset 4, -16
 726              		.cfi_offset 5, -12
 727              		.cfi_offset 6, -8
 728              		.cfi_offset 14, -4
 729 0002 82B0     		sub	sp, sp, #8
 730              		.cfi_def_cfa_offset 24
 742:Drivers/lvgl/src/misc/lv_txt.c **** 
 743:Drivers/lvgl/src/misc/lv_txt.c ****     while(txt[i] != '\0') {
 731              		.loc 1 743 18 view .LVU227
 732 0004 0378     		ldrb	r3, [r0]	@ zero_extendqisi2
ARM GAS  /var/folders/lp/x54gwt890xv47sdkqj1k04q40000gn/T//ccf0N3ow.s 			page 29


 741:Drivers/lvgl/src/misc/lv_txt.c **** 
 733              		.loc 1 741 14 view .LVU228
 734 0006 0024     		movs	r4, #0
 735 0008 0194     		str	r4, [sp, #4]
 736              		.loc 1 743 5 is_stmt 1 view .LVU229
 737              		.loc 1 743 18 view .LVU230
 738 000a 6BB1     		cbz	r3, .L61
 739 000c 084E     		ldr	r6, .L64
 740 000e 0546     		mov	r5, r0
 741              	.LVL58:
 742              	.L60:
 744:Drivers/lvgl/src/misc/lv_txt.c ****         _lv_txt_encoded_next(txt, &i);
 743              		.loc 1 744 9 view .LVU231
 744 0010 3368     		ldr	r3, [r6]
 745 0012 01A9     		add	r1, sp, #4
 746 0014 2846     		mov	r0, r5
 747 0016 9847     		blx	r3
 748              	.LVL59:
 745:Drivers/lvgl/src/misc/lv_txt.c ****         len++;
 749              		.loc 1 745 9 view .LVU232
 743:Drivers/lvgl/src/misc/lv_txt.c ****         _lv_txt_encoded_next(txt, &i);
 750              		.loc 1 743 14 is_stmt 0 view .LVU233
 751 0018 019B     		ldr	r3, [sp, #4]
 743:Drivers/lvgl/src/misc/lv_txt.c ****         _lv_txt_encoded_next(txt, &i);
 752              		.loc 1 743 18 view .LVU234
 753 001a EB5C     		ldrb	r3, [r5, r3]	@ zero_extendqisi2
 754              		.loc 1 745 12 view .LVU235
 755 001c 0134     		adds	r4, r4, #1
 756              	.LVL60:
 743:Drivers/lvgl/src/misc/lv_txt.c ****         _lv_txt_encoded_next(txt, &i);
 757              		.loc 1 743 18 is_stmt 1 view .LVU236
 758 001e 002B     		cmp	r3, #0
 759 0020 F6D1     		bne	.L60
 746:Drivers/lvgl/src/misc/lv_txt.c ****     }
 747:Drivers/lvgl/src/misc/lv_txt.c **** 
 748:Drivers/lvgl/src/misc/lv_txt.c ****     return len;
 749:Drivers/lvgl/src/misc/lv_txt.c **** }
 760              		.loc 1 749 1 is_stmt 0 view .LVU237
 761 0022 2046     		mov	r0, r4
 762 0024 02B0     		add	sp, sp, #8
 763              		.cfi_remember_state
 764              		.cfi_def_cfa_offset 16
 765              		@ sp needed
 766 0026 70BD     		pop	{r4, r5, r6, pc}
 767              	.LVL61:
 768              	.L61:
 769              		.cfi_restore_state
 740:Drivers/lvgl/src/misc/lv_txt.c ****     uint32_t i   = 0;
 770              		.loc 1 740 14 view .LVU238
 771 0028 1C46     		mov	r4, r3
 748:Drivers/lvgl/src/misc/lv_txt.c **** }
 772              		.loc 1 748 5 is_stmt 1 view .LVU239
 773              		.loc 1 749 1 is_stmt 0 view .LVU240
 774 002a 2046     		mov	r0, r4
 775              	.LVL62:
 776              		.loc 1 749 1 view .LVU241
 777 002c 02B0     		add	sp, sp, #8
ARM GAS  /var/folders/lp/x54gwt890xv47sdkqj1k04q40000gn/T//ccf0N3ow.s 			page 30


 778              		.cfi_def_cfa_offset 16
 779              		@ sp needed
 780 002e 70BD     		pop	{r4, r5, r6, pc}
 781              	.L65:
 782              		.align	2
 783              	.L64:
 784 0030 00000000 		.word	_lv_txt_encoded_next
 785              		.cfi_endproc
 786              	.LFE71:
 788              		.section	.text.lv_txt_unicode_to_utf8,"ax",%progbits
 789              		.align	1
 790              		.p2align 2,,3
 791              		.syntax unified
 792              		.thumb
 793              		.thumb_func
 795              	lv_txt_unicode_to_utf8:
 796              	.LVL63:
 797              	.LFB65:
 528:Drivers/lvgl/src/misc/lv_txt.c ****     if(letter_uni < 128) return letter_uni;
 798              		.loc 1 528 1 is_stmt 1 view -0
 799              		.cfi_startproc
 800              		@ args = 0, pretend = 0, frame = 0
 801              		@ frame_needed = 0, uses_anonymous_args = 0
 802              		@ link register save eliminated.
 529:Drivers/lvgl/src/misc/lv_txt.c ****     uint8_t bytes[4];
 803              		.loc 1 529 5 view .LVU243
 529:Drivers/lvgl/src/misc/lv_txt.c ****     uint8_t bytes[4];
 804              		.loc 1 529 7 is_stmt 0 view .LVU244
 805 0000 7F28     		cmp	r0, #127
 806 0002 17D9     		bls	.L66
 807              	.LVL64:
 808              	.LBB24:
 809              	.LBI24:
 527:Drivers/lvgl/src/misc/lv_txt.c **** {
 810              		.loc 1 527 17 is_stmt 1 view .LVU245
 811              	.LBB25:
 530:Drivers/lvgl/src/misc/lv_txt.c **** 
 812              		.loc 1 530 5 view .LVU246
 532:Drivers/lvgl/src/misc/lv_txt.c ****         bytes[0] = ((letter_uni >> 6) & 0x1F) | 0xC0;
 813              		.loc 1 532 5 view .LVU247
 532:Drivers/lvgl/src/misc/lv_txt.c ****         bytes[0] = ((letter_uni >> 6) & 0x1F) | 0xC0;
 814              		.loc 1 532 7 is_stmt 0 view .LVU248
 815 0004 B0F5006F 		cmp	r0, #2048
 816 0008 15D2     		bcs	.L68
 533:Drivers/lvgl/src/misc/lv_txt.c ****         bytes[1] = ((letter_uni >> 0) & 0x3F) | 0x80;
 817              		.loc 1 533 9 is_stmt 1 view .LVU249
 533:Drivers/lvgl/src/misc/lv_txt.c ****         bytes[1] = ((letter_uni >> 0) & 0x3F) | 0x80;
 818              		.loc 1 533 47 is_stmt 0 view .LVU250
 819 000a C0F38713 		ubfx	r3, r0, #6, #8
 820 000e 0022     		movs	r2, #0
 534:Drivers/lvgl/src/misc/lv_txt.c ****         bytes[2] = 0;
 821              		.loc 1 534 39 view .LVU251
 822 0010 00F03F00 		and	r0, r0, #63
 823              	.LVL65:
 533:Drivers/lvgl/src/misc/lv_txt.c ****         bytes[1] = ((letter_uni >> 0) & 0x3F) | 0x80;
 824              		.loc 1 533 47 view .LVU252
 825 0014 43F0C003 		orr	r3, r3, #192
ARM GAS  /var/folders/lp/x54gwt890xv47sdkqj1k04q40000gn/T//ccf0N3ow.s 			page 31


 534:Drivers/lvgl/src/misc/lv_txt.c ****         bytes[2] = 0;
 826              		.loc 1 534 9 is_stmt 1 view .LVU253
 534:Drivers/lvgl/src/misc/lv_txt.c ****         bytes[2] = 0;
 827              		.loc 1 534 47 is_stmt 0 view .LVU254
 828 0018 40F08001 		orr	r1, r0, #128
 535:Drivers/lvgl/src/misc/lv_txt.c ****         bytes[3] = 0;
 829              		.loc 1 535 9 is_stmt 1 view .LVU255
 536:Drivers/lvgl/src/misc/lv_txt.c ****     }
 830              		.loc 1 536 9 view .LVU256
 831 001c 9446     		mov	ip, r2
 832              	.L69:
 554:Drivers/lvgl/src/misc/lv_txt.c ****     return *res_p;
 833              		.loc 1 554 5 view .LVU257
 834              	.LVL66:
 555:Drivers/lvgl/src/misc/lv_txt.c **** }
 835              		.loc 1 555 5 view .LVU258
 836 001e 0020     		movs	r0, #0
 837 0020 63F30700 		bfi	r0, r3, #0, #8
 838 0024 61F30F20 		bfi	r0, r1, #8, #8
 839 0028 62F31740 		bfi	r0, r2, #16, #8
 840 002c 6CF31F60 		bfi	r0, ip, #24, #8
 555:Drivers/lvgl/src/misc/lv_txt.c **** }
 841              		.loc 1 555 12 is_stmt 0 view .LVU259
 842 0030 7047     		bx	lr
 843              	.LVL67:
 844              	.L73:
 551:Drivers/lvgl/src/misc/lv_txt.c ****     }
 845              		.loc 1 551 16 view .LVU260
 846 0032 0020     		movs	r0, #0
 847              	.LVL68:
 848              	.L66:
 551:Drivers/lvgl/src/misc/lv_txt.c ****     }
 849              		.loc 1 551 16 view .LVU261
 850              	.LBE25:
 851              	.LBE24:
 556:Drivers/lvgl/src/misc/lv_txt.c **** 
 852              		.loc 1 556 1 view .LVU262
 853 0034 7047     		bx	lr
 854              	.LVL69:
 855              	.L68:
 856              	.LBB27:
 857              	.LBB26:
 538:Drivers/lvgl/src/misc/lv_txt.c ****         bytes[0] = ((letter_uni >> 12) & 0x0F) | 0xE0;
 858              		.loc 1 538 10 is_stmt 1 view .LVU263
 538:Drivers/lvgl/src/misc/lv_txt.c ****         bytes[0] = ((letter_uni >> 12) & 0x0F) | 0xE0;
 859              		.loc 1 538 12 is_stmt 0 view .LVU264
 860 0036 B0F5803F 		cmp	r0, #65536
 861 003a 13D3     		bcc	.L74
 544:Drivers/lvgl/src/misc/lv_txt.c ****         bytes[0] = ((letter_uni >> 18) & 0x07) | 0xF0;
 862              		.loc 1 544 10 is_stmt 1 view .LVU265
 544:Drivers/lvgl/src/misc/lv_txt.c ****         bytes[0] = ((letter_uni >> 18) & 0x07) | 0xF0;
 863              		.loc 1 544 12 is_stmt 0 view .LVU266
 864 003c B0F5881F 		cmp	r0, #1114112
 865 0040 F7D2     		bcs	.L73
 545:Drivers/lvgl/src/misc/lv_txt.c ****         bytes[1] = ((letter_uni >> 12) & 0x3F) | 0x80;
 866              		.loc 1 545 9 is_stmt 1 view .LVU267
 545:Drivers/lvgl/src/misc/lv_txt.c ****         bytes[1] = ((letter_uni >> 12) & 0x3F) | 0x80;
ARM GAS  /var/folders/lp/x54gwt890xv47sdkqj1k04q40000gn/T//ccf0N3ow.s 			page 32


 867              		.loc 1 545 48 is_stmt 0 view .LVU268
 868 0042 C0F38743 		ubfx	r3, r0, #18, #8
 546:Drivers/lvgl/src/misc/lv_txt.c ****         bytes[2] = ((letter_uni >> 6) & 0x3F) | 0x80;
 869              		.loc 1 546 40 view .LVU269
 870 0046 C0F30531 		ubfx	r1, r0, #12, #6
 547:Drivers/lvgl/src/misc/lv_txt.c ****         bytes[3] = ((letter_uni >> 0) & 0x3F) | 0x80;
 871              		.loc 1 547 39 view .LVU270
 872 004a C0F38512 		ubfx	r2, r0, #6, #6
 548:Drivers/lvgl/src/misc/lv_txt.c ****     }
 873              		.loc 1 548 39 view .LVU271
 874 004e 00F03F00 		and	r0, r0, #63
 875              	.LVL70:
 545:Drivers/lvgl/src/misc/lv_txt.c ****         bytes[1] = ((letter_uni >> 12) & 0x3F) | 0x80;
 876              		.loc 1 545 48 view .LVU272
 877 0052 43F0F003 		orr	r3, r3, #240
 546:Drivers/lvgl/src/misc/lv_txt.c ****         bytes[2] = ((letter_uni >> 6) & 0x3F) | 0x80;
 878              		.loc 1 546 9 is_stmt 1 view .LVU273
 546:Drivers/lvgl/src/misc/lv_txt.c ****         bytes[2] = ((letter_uni >> 6) & 0x3F) | 0x80;
 879              		.loc 1 546 48 is_stmt 0 view .LVU274
 880 0056 41F08001 		orr	r1, r1, #128
 547:Drivers/lvgl/src/misc/lv_txt.c ****         bytes[3] = ((letter_uni >> 0) & 0x3F) | 0x80;
 881              		.loc 1 547 9 is_stmt 1 view .LVU275
 547:Drivers/lvgl/src/misc/lv_txt.c ****         bytes[3] = ((letter_uni >> 0) & 0x3F) | 0x80;
 882              		.loc 1 547 47 is_stmt 0 view .LVU276
 883 005a 42F08002 		orr	r2, r2, #128
 548:Drivers/lvgl/src/misc/lv_txt.c ****     }
 884              		.loc 1 548 9 is_stmt 1 view .LVU277
 548:Drivers/lvgl/src/misc/lv_txt.c ****     }
 885              		.loc 1 548 47 is_stmt 0 view .LVU278
 886 005e 40F0800C 		orr	ip, r0, #128
 887 0062 DCE7     		b	.L69
 888              	.LVL71:
 889              	.L74:
 539:Drivers/lvgl/src/misc/lv_txt.c ****         bytes[1] = ((letter_uni >> 6) & 0x3F) | 0x80;
 890              		.loc 1 539 9 is_stmt 1 view .LVU279
 539:Drivers/lvgl/src/misc/lv_txt.c ****         bytes[1] = ((letter_uni >> 6) & 0x3F) | 0x80;
 891              		.loc 1 539 48 is_stmt 0 view .LVU280
 892 0064 C0F30733 		ubfx	r3, r0, #12, #8
 540:Drivers/lvgl/src/misc/lv_txt.c ****         bytes[2] = ((letter_uni >> 0) & 0x3F) | 0x80;
 893              		.loc 1 540 39 view .LVU281
 894 0068 C0F38511 		ubfx	r1, r0, #6, #6
 541:Drivers/lvgl/src/misc/lv_txt.c ****         bytes[3] = 0;
 895              		.loc 1 541 39 view .LVU282
 896 006c 00F03F00 		and	r0, r0, #63
 897              	.LVL72:
 539:Drivers/lvgl/src/misc/lv_txt.c ****         bytes[1] = ((letter_uni >> 6) & 0x3F) | 0x80;
 898              		.loc 1 539 48 view .LVU283
 899 0070 43F0E003 		orr	r3, r3, #224
 540:Drivers/lvgl/src/misc/lv_txt.c ****         bytes[2] = ((letter_uni >> 0) & 0x3F) | 0x80;
 900              		.loc 1 540 9 is_stmt 1 view .LVU284
 540:Drivers/lvgl/src/misc/lv_txt.c ****         bytes[2] = ((letter_uni >> 0) & 0x3F) | 0x80;
 901              		.loc 1 540 47 is_stmt 0 view .LVU285
 902 0074 41F08001 		orr	r1, r1, #128
 541:Drivers/lvgl/src/misc/lv_txt.c ****         bytes[3] = 0;
 903              		.loc 1 541 9 is_stmt 1 view .LVU286
 541:Drivers/lvgl/src/misc/lv_txt.c ****         bytes[3] = 0;
 904              		.loc 1 541 47 is_stmt 0 view .LVU287
ARM GAS  /var/folders/lp/x54gwt890xv47sdkqj1k04q40000gn/T//ccf0N3ow.s 			page 33


 905 0078 40F08002 		orr	r2, r0, #128
 542:Drivers/lvgl/src/misc/lv_txt.c ****     }
 906              		.loc 1 542 9 is_stmt 1 view .LVU288
 907 007c 4FF0000C 		mov	ip, #0
 908 0080 CDE7     		b	.L69
 909              	.LBE26:
 910              	.LBE27:
 911              		.cfi_endproc
 912              	.LFE65:
 914 0082 00BF     		.section	.rodata._lv_txt_get_next_line.part.0.str1.4,"aMS",%progbits,1
 915              		.align	2
 916              	.LC0:
 917 0000 202C2E3B 		.ascii	" ,.;:-_\000"
 917      3A2D5F00 
 918              		.section	.text._lv_txt_get_next_line.part.0,"ax",%progbits
 919              		.align	1
 920              		.p2align 2,,3
 921              		.syntax unified
 922              		.thumb
 923              		.thumb_func
 925              	_lv_txt_get_next_line.part.0:
 926              	.LVL73:
 927              	.LFB73:
 279:Drivers/lvgl/src/misc/lv_txt.c ****                                lv_coord_t letter_space, lv_coord_t max_width,
 928              		.loc 1 279 10 view -0
 929              		.cfi_startproc
 930              		@ args = 8, pretend = 0, frame = 64
 931              		@ frame_needed = 0, uses_anonymous_args = 0
 279:Drivers/lvgl/src/misc/lv_txt.c ****                                lv_coord_t letter_space, lv_coord_t max_width,
 932              		.loc 1 279 10 is_stmt 0 view .LVU290
 933 0000 2DE9F04F 		push	{r4, r5, r6, r7, r8, r9, r10, fp, lr}
 934              		.cfi_def_cfa_offset 36
 935              		.cfi_offset 4, -36
 936              		.cfi_offset 5, -32
 937              		.cfi_offset 6, -28
 938              		.cfi_offset 7, -24
 939              		.cfi_offset 8, -20
 940              		.cfi_offset 9, -16
 941              		.cfi_offset 10, -12
 942              		.cfi_offset 11, -8
 943              		.cfi_offset 14, -4
 944 0004 91B0     		sub	sp, sp, #68
 945              		.cfi_def_cfa_offset 104
 279:Drivers/lvgl/src/misc/lv_txt.c ****                                lv_coord_t letter_space, lv_coord_t max_width,
 946              		.loc 1 279 10 view .LVU291
 947 0006 0391     		str	r1, [sp, #12]
 948 0008 9DF86C10 		ldrb	r1, [sp, #108]	@ zero_extendqisi2
 949              	.LVL74:
 279:Drivers/lvgl/src/misc/lv_txt.c ****                                lv_coord_t letter_space, lv_coord_t max_width,
 950              		.loc 1 279 10 view .LVU292
 951 000c 0992     		str	r2, [sp, #36]
 293:Drivers/lvgl/src/misc/lv_txt.c ****         uint32_t i;
 952              		.loc 1 293 7 view .LVU293
 953 000e 11F00602 		ands	r2, r1, #6
 954              	.LVL75:
 279:Drivers/lvgl/src/misc/lv_txt.c ****                                lv_coord_t letter_space, lv_coord_t max_width,
 955              		.loc 1 279 10 view .LVU294
ARM GAS  /var/folders/lp/x54gwt890xv47sdkqj1k04q40000gn/T//ccf0N3ow.s 			page 34


 956 0012 0093     		str	r3, [sp]
 957 0014 1A9C     		ldr	r4, [sp, #104]
 958              	.LBB39:
 295:Drivers/lvgl/src/misc/lv_txt.c ****             /*Just find the new line chars or string ends by incrementing `i`*/
 959              		.loc 1 295 23 discriminator 1 view .LVU295
 960 0016 0378     		ldrb	r3, [r0]	@ zero_extendqisi2
 961              	.LVL76:
 295:Drivers/lvgl/src/misc/lv_txt.c ****             /*Just find the new line chars or string ends by incrementing `i`*/
 962              		.loc 1 295 23 discriminator 1 view .LVU296
 963              	.LBE39:
 279:Drivers/lvgl/src/misc/lv_txt.c ****                                lv_coord_t letter_space, lv_coord_t max_width,
 964              		.loc 1 279 10 view .LVU297
 965 0018 0790     		str	r0, [sp, #28]
 289:Drivers/lvgl/src/misc/lv_txt.c **** 
 966              		.loc 1 289 5 is_stmt 1 view .LVU298
 967              	.LVL77:
 293:Drivers/lvgl/src/misc/lv_txt.c ****         uint32_t i;
 968              		.loc 1 293 5 view .LVU299
 293:Drivers/lvgl/src/misc/lv_txt.c ****         uint32_t i;
 969              		.loc 1 293 7 is_stmt 0 view .LVU300
 970 001a 40F00181 		bne	.L177
 303:Drivers/lvgl/src/misc/lv_txt.c ****     lv_text_cmd_state_t cmd_state = LV_TEXT_CMD_STATE_WAIT;
 971              		.loc 1 303 5 is_stmt 1 view .LVU301
 972              	.LVL78:
 304:Drivers/lvgl/src/misc/lv_txt.c ****     uint32_t i = 0;                                        /*Iterating index into txt*/
 973              		.loc 1 304 5 view .LVU302
 305:Drivers/lvgl/src/misc/lv_txt.c **** 
 974              		.loc 1 305 5 view .LVU303
 975              	.LBB40:
 976              	.LBB41:
 977              	.LBB42:
 978              	.LBB43:
 979              	.LBB44:
 980              		.file 2 "Drivers/lvgl/src/misc/lv_txt.h"
   1:Drivers/lvgl/src/misc/lv_txt.h **** /**
   2:Drivers/lvgl/src/misc/lv_txt.h ****  * @file lv_txt.h
   3:Drivers/lvgl/src/misc/lv_txt.h ****  *
   4:Drivers/lvgl/src/misc/lv_txt.h ****  */
   5:Drivers/lvgl/src/misc/lv_txt.h **** 
   6:Drivers/lvgl/src/misc/lv_txt.h **** #ifndef LV_TXT_H
   7:Drivers/lvgl/src/misc/lv_txt.h **** #define LV_TXT_H
   8:Drivers/lvgl/src/misc/lv_txt.h **** 
   9:Drivers/lvgl/src/misc/lv_txt.h **** #ifdef __cplusplus
  10:Drivers/lvgl/src/misc/lv_txt.h **** extern "C" {
  11:Drivers/lvgl/src/misc/lv_txt.h **** #endif
  12:Drivers/lvgl/src/misc/lv_txt.h **** 
  13:Drivers/lvgl/src/misc/lv_txt.h **** /*********************
  14:Drivers/lvgl/src/misc/lv_txt.h ****  *      INCLUDES
  15:Drivers/lvgl/src/misc/lv_txt.h ****  *********************/
  16:Drivers/lvgl/src/misc/lv_txt.h **** #include "../lv_conf_internal.h"
  17:Drivers/lvgl/src/misc/lv_txt.h **** 
  18:Drivers/lvgl/src/misc/lv_txt.h **** #include <stdbool.h>
  19:Drivers/lvgl/src/misc/lv_txt.h **** #include <stdarg.h>
  20:Drivers/lvgl/src/misc/lv_txt.h **** #include "lv_area.h"
  21:Drivers/lvgl/src/misc/lv_txt.h **** #include "../font/lv_font.h"
  22:Drivers/lvgl/src/misc/lv_txt.h **** #include "lv_printf.h"
  23:Drivers/lvgl/src/misc/lv_txt.h **** #include "lv_types.h"
ARM GAS  /var/folders/lp/x54gwt890xv47sdkqj1k04q40000gn/T//ccf0N3ow.s 			page 35


  24:Drivers/lvgl/src/misc/lv_txt.h **** 
  25:Drivers/lvgl/src/misc/lv_txt.h **** /*********************
  26:Drivers/lvgl/src/misc/lv_txt.h ****  *      DEFINES
  27:Drivers/lvgl/src/misc/lv_txt.h ****  *********************/
  28:Drivers/lvgl/src/misc/lv_txt.h **** #ifndef LV_TXT_COLOR_CMD
  29:Drivers/lvgl/src/misc/lv_txt.h **** #define LV_TXT_COLOR_CMD "#"
  30:Drivers/lvgl/src/misc/lv_txt.h **** #endif
  31:Drivers/lvgl/src/misc/lv_txt.h **** 
  32:Drivers/lvgl/src/misc/lv_txt.h **** #define LV_TXT_ENC_UTF8 1
  33:Drivers/lvgl/src/misc/lv_txt.h **** #define LV_TXT_ENC_ASCII 2
  34:Drivers/lvgl/src/misc/lv_txt.h **** 
  35:Drivers/lvgl/src/misc/lv_txt.h **** /**********************
  36:Drivers/lvgl/src/misc/lv_txt.h ****  *      TYPEDEFS
  37:Drivers/lvgl/src/misc/lv_txt.h ****  **********************/
  38:Drivers/lvgl/src/misc/lv_txt.h **** 
  39:Drivers/lvgl/src/misc/lv_txt.h **** /**
  40:Drivers/lvgl/src/misc/lv_txt.h ****  * Options for text rendering.
  41:Drivers/lvgl/src/misc/lv_txt.h ****  */
  42:Drivers/lvgl/src/misc/lv_txt.h **** enum {
  43:Drivers/lvgl/src/misc/lv_txt.h ****     LV_TEXT_FLAG_NONE    = 0x00,
  44:Drivers/lvgl/src/misc/lv_txt.h ****     LV_TEXT_FLAG_RECOLOR = 0x01, /**< Enable parsing of recolor command*/
  45:Drivers/lvgl/src/misc/lv_txt.h ****     LV_TEXT_FLAG_EXPAND  = 0x02, /**< Ignore max-width to avoid automatic word wrapping*/
  46:Drivers/lvgl/src/misc/lv_txt.h ****     LV_TEXT_FLAG_FIT     = 0x04, /**< Max-width is already equal to the longest line. (Used to skip
  47:Drivers/lvgl/src/misc/lv_txt.h **** };
  48:Drivers/lvgl/src/misc/lv_txt.h **** typedef uint8_t lv_text_flag_t;
  49:Drivers/lvgl/src/misc/lv_txt.h **** 
  50:Drivers/lvgl/src/misc/lv_txt.h **** /**
  51:Drivers/lvgl/src/misc/lv_txt.h ****  * State machine for text renderer.*/
  52:Drivers/lvgl/src/misc/lv_txt.h **** enum {
  53:Drivers/lvgl/src/misc/lv_txt.h ****     LV_TEXT_CMD_STATE_WAIT, /**< Waiting for command*/
  54:Drivers/lvgl/src/misc/lv_txt.h ****     LV_TEXT_CMD_STATE_PAR,  /**< Processing the parameter*/
  55:Drivers/lvgl/src/misc/lv_txt.h ****     LV_TEXT_CMD_STATE_IN,   /**< Processing the command*/
  56:Drivers/lvgl/src/misc/lv_txt.h **** };
  57:Drivers/lvgl/src/misc/lv_txt.h **** typedef uint8_t lv_text_cmd_state_t;
  58:Drivers/lvgl/src/misc/lv_txt.h **** 
  59:Drivers/lvgl/src/misc/lv_txt.h **** /** Label align policy*/
  60:Drivers/lvgl/src/misc/lv_txt.h **** enum {
  61:Drivers/lvgl/src/misc/lv_txt.h ****     LV_TEXT_ALIGN_AUTO, /**< Align text auto*/
  62:Drivers/lvgl/src/misc/lv_txt.h ****     LV_TEXT_ALIGN_LEFT, /**< Align text to left*/
  63:Drivers/lvgl/src/misc/lv_txt.h ****     LV_TEXT_ALIGN_CENTER, /**< Align text to center*/
  64:Drivers/lvgl/src/misc/lv_txt.h ****     LV_TEXT_ALIGN_RIGHT, /**< Align text to right*/
  65:Drivers/lvgl/src/misc/lv_txt.h **** };
  66:Drivers/lvgl/src/misc/lv_txt.h **** typedef uint8_t lv_text_align_t;
  67:Drivers/lvgl/src/misc/lv_txt.h **** 
  68:Drivers/lvgl/src/misc/lv_txt.h **** /**********************
  69:Drivers/lvgl/src/misc/lv_txt.h ****  * GLOBAL PROTOTYPES
  70:Drivers/lvgl/src/misc/lv_txt.h ****  **********************/
  71:Drivers/lvgl/src/misc/lv_txt.h **** 
  72:Drivers/lvgl/src/misc/lv_txt.h **** /**
  73:Drivers/lvgl/src/misc/lv_txt.h ****  * Get size of a text
  74:Drivers/lvgl/src/misc/lv_txt.h ****  * @param size_res pointer to a 'point_t' variable to store the result
  75:Drivers/lvgl/src/misc/lv_txt.h ****  * @param text pointer to a text
  76:Drivers/lvgl/src/misc/lv_txt.h ****  * @param font pointer to font of the text
  77:Drivers/lvgl/src/misc/lv_txt.h ****  * @param letter_space letter space of the text
  78:Drivers/lvgl/src/misc/lv_txt.h ****  * @param line_space line space of the text
  79:Drivers/lvgl/src/misc/lv_txt.h ****  * @param flags settings for the text from ::lv_text_flag_t
  80:Drivers/lvgl/src/misc/lv_txt.h ****  * @param max_width max width of the text (break the lines to fit this size). Set COORD_MAX to avoi
ARM GAS  /var/folders/lp/x54gwt890xv47sdkqj1k04q40000gn/T//ccf0N3ow.s 			page 36


  81:Drivers/lvgl/src/misc/lv_txt.h ****  * line breaks
  82:Drivers/lvgl/src/misc/lv_txt.h ****  */
  83:Drivers/lvgl/src/misc/lv_txt.h **** void lv_txt_get_size(lv_point_t * size_res, const char * text, const lv_font_t * font, lv_coord_t l
  84:Drivers/lvgl/src/misc/lv_txt.h ****                      lv_coord_t line_space, lv_coord_t max_width, lv_text_flag_t flag);
  85:Drivers/lvgl/src/misc/lv_txt.h **** 
  86:Drivers/lvgl/src/misc/lv_txt.h **** /**
  87:Drivers/lvgl/src/misc/lv_txt.h ****  * Get the next line of text. Check line length and break chars too.
  88:Drivers/lvgl/src/misc/lv_txt.h ****  * @param txt a '\0' terminated string
  89:Drivers/lvgl/src/misc/lv_txt.h ****  * @param font pointer to a font
  90:Drivers/lvgl/src/misc/lv_txt.h ****  * @param letter_space letter space
  91:Drivers/lvgl/src/misc/lv_txt.h ****  * @param max_width max width of the text (break the lines to fit this size). Set COORD_MAX to avoi
  92:Drivers/lvgl/src/misc/lv_txt.h ****  * line breaks
  93:Drivers/lvgl/src/misc/lv_txt.h ****  * @param used_width When used_width != NULL, save the width of this line if
  94:Drivers/lvgl/src/misc/lv_txt.h ****  * flag == LV_TEXT_FLAG_NONE, otherwise save -1.
  95:Drivers/lvgl/src/misc/lv_txt.h ****  * @param flags settings for the text from 'txt_flag_type' enum
  96:Drivers/lvgl/src/misc/lv_txt.h ****  * @return the index of the first char of the new line (in byte index not letter index. With UTF-8
  97:Drivers/lvgl/src/misc/lv_txt.h ****  * they are different)
  98:Drivers/lvgl/src/misc/lv_txt.h ****  */
  99:Drivers/lvgl/src/misc/lv_txt.h **** uint32_t _lv_txt_get_next_line(const char * txt, const lv_font_t * font, lv_coord_t letter_space,
 100:Drivers/lvgl/src/misc/lv_txt.h ****                                lv_coord_t max_width, lv_coord_t * used_width, lv_text_flag_t flag);
 101:Drivers/lvgl/src/misc/lv_txt.h **** 
 102:Drivers/lvgl/src/misc/lv_txt.h **** /**
 103:Drivers/lvgl/src/misc/lv_txt.h ****  * Give the length of a text with a given font
 104:Drivers/lvgl/src/misc/lv_txt.h ****  * @param txt a '\0' terminate string
 105:Drivers/lvgl/src/misc/lv_txt.h ****  * @param length length of 'txt' in byte count and not characters (Á is 1 character but 2 bytes in
 106:Drivers/lvgl/src/misc/lv_txt.h ****  * UTF-8)
 107:Drivers/lvgl/src/misc/lv_txt.h ****  * @param font pointer to a font
 108:Drivers/lvgl/src/misc/lv_txt.h ****  * @param letter_space letter space
 109:Drivers/lvgl/src/misc/lv_txt.h ****  * @param flags settings for the text from 'txt_flag_t' enum
 110:Drivers/lvgl/src/misc/lv_txt.h ****  * @return length of a char_num long text
 111:Drivers/lvgl/src/misc/lv_txt.h ****  */
 112:Drivers/lvgl/src/misc/lv_txt.h **** lv_coord_t lv_txt_get_width(const char * txt, uint32_t length, const lv_font_t * font, lv_coord_t l
 113:Drivers/lvgl/src/misc/lv_txt.h ****                             lv_text_flag_t flag);
 114:Drivers/lvgl/src/misc/lv_txt.h **** 
 115:Drivers/lvgl/src/misc/lv_txt.h **** /**
 116:Drivers/lvgl/src/misc/lv_txt.h ****  * Check next character in a string and decide if the character is part of the command or not
 117:Drivers/lvgl/src/misc/lv_txt.h ****  * @param state pointer to a txt_cmd_state_t variable which stores the current state of command
 118:Drivers/lvgl/src/misc/lv_txt.h ****  * processing
 119:Drivers/lvgl/src/misc/lv_txt.h ****  * @param c the current character
 120:Drivers/lvgl/src/misc/lv_txt.h ****  * @return true: the character is part of a command and should not be written,
 121:Drivers/lvgl/src/misc/lv_txt.h ****  *         false: the character should be written
 122:Drivers/lvgl/src/misc/lv_txt.h ****  */
 123:Drivers/lvgl/src/misc/lv_txt.h **** bool _lv_txt_is_cmd(lv_text_cmd_state_t * state, uint32_t c);
 124:Drivers/lvgl/src/misc/lv_txt.h **** 
 125:Drivers/lvgl/src/misc/lv_txt.h **** /**
 126:Drivers/lvgl/src/misc/lv_txt.h ****  * Insert a string into an other
 127:Drivers/lvgl/src/misc/lv_txt.h ****  * @param txt_buf the original text (must be big enough for the result text and NULL terminated)
 128:Drivers/lvgl/src/misc/lv_txt.h ****  * @param pos position to insert (0: before the original text, 1: after the first char etc.)
 129:Drivers/lvgl/src/misc/lv_txt.h ****  * @param ins_txt text to insert, must be '\0' terminated
 130:Drivers/lvgl/src/misc/lv_txt.h ****  */
 131:Drivers/lvgl/src/misc/lv_txt.h **** void _lv_txt_ins(char * txt_buf, uint32_t pos, const char * ins_txt);
 132:Drivers/lvgl/src/misc/lv_txt.h **** 
 133:Drivers/lvgl/src/misc/lv_txt.h **** /**
 134:Drivers/lvgl/src/misc/lv_txt.h ****  * Delete a part of a string
 135:Drivers/lvgl/src/misc/lv_txt.h ****  * @param txt string to modify, must be '\0' terminated and should point to a heap or stack frame, 
 136:Drivers/lvgl/src/misc/lv_txt.h ****  * @param pos position where to start the deleting (0: before the first char, 1: after the first
 137:Drivers/lvgl/src/misc/lv_txt.h ****  * char etc.)
ARM GAS  /var/folders/lp/x54gwt890xv47sdkqj1k04q40000gn/T//ccf0N3ow.s 			page 37


 138:Drivers/lvgl/src/misc/lv_txt.h ****  * @param len number of characters to delete
 139:Drivers/lvgl/src/misc/lv_txt.h ****  */
 140:Drivers/lvgl/src/misc/lv_txt.h **** void _lv_txt_cut(char * txt, uint32_t pos, uint32_t len);
 141:Drivers/lvgl/src/misc/lv_txt.h **** 
 142:Drivers/lvgl/src/misc/lv_txt.h **** /**
 143:Drivers/lvgl/src/misc/lv_txt.h ****  * return a new formatted text. Memory will be allocated to store the text.
 144:Drivers/lvgl/src/misc/lv_txt.h ****  * @param fmt `printf`-like format
 145:Drivers/lvgl/src/misc/lv_txt.h ****  * @return pointer to the allocated text string.
 146:Drivers/lvgl/src/misc/lv_txt.h ****  */
 147:Drivers/lvgl/src/misc/lv_txt.h **** char * _lv_txt_set_text_vfmt(const char * fmt, va_list ap) LV_FORMAT_ATTRIBUTE(1, 0);
 148:Drivers/lvgl/src/misc/lv_txt.h **** 
 149:Drivers/lvgl/src/misc/lv_txt.h **** /**
 150:Drivers/lvgl/src/misc/lv_txt.h ****  * Decode two encoded character from a string.
 151:Drivers/lvgl/src/misc/lv_txt.h ****  * @param txt pointer to '\0' terminated string
 152:Drivers/lvgl/src/misc/lv_txt.h ****  * @param letter the first decoded Unicode character or 0 on invalid data code
 153:Drivers/lvgl/src/misc/lv_txt.h ****  * @param letter_next the second decoded Unicode character or 0 on invalid data code
 154:Drivers/lvgl/src/misc/lv_txt.h ****  * @param ofs start index in 'txt' where to start.
 155:Drivers/lvgl/src/misc/lv_txt.h ****  *                After the call it will point to the next encoded char in 'txt'.
 156:Drivers/lvgl/src/misc/lv_txt.h ****  *                NULL to use txt[0] as index
 157:Drivers/lvgl/src/misc/lv_txt.h ****  */
 158:Drivers/lvgl/src/misc/lv_txt.h **** void _lv_txt_encoded_letter_next_2(const char * txt, uint32_t * letter, uint32_t * letter_next, uin
 159:Drivers/lvgl/src/misc/lv_txt.h **** 
 160:Drivers/lvgl/src/misc/lv_txt.h **** /**
 161:Drivers/lvgl/src/misc/lv_txt.h ****  * Test if char is break char or not (a text can broken here or not)
 162:Drivers/lvgl/src/misc/lv_txt.h ****  * @param letter a letter
 163:Drivers/lvgl/src/misc/lv_txt.h ****  * @return false: 'letter' is not break char
 164:Drivers/lvgl/src/misc/lv_txt.h ****  */
 165:Drivers/lvgl/src/misc/lv_txt.h **** static inline bool _lv_txt_is_break_char(uint32_t letter)
 166:Drivers/lvgl/src/misc/lv_txt.h **** {
 167:Drivers/lvgl/src/misc/lv_txt.h ****     uint8_t i;
 168:Drivers/lvgl/src/misc/lv_txt.h ****     bool ret = false;
 169:Drivers/lvgl/src/misc/lv_txt.h **** 
 170:Drivers/lvgl/src/misc/lv_txt.h ****     /* each chinese character can be break */
 171:Drivers/lvgl/src/misc/lv_txt.h ****     if(letter >= 0x4E00 && letter <= 0x9FA5) {
 172:Drivers/lvgl/src/misc/lv_txt.h ****         return true;
 173:Drivers/lvgl/src/misc/lv_txt.h ****     }
 174:Drivers/lvgl/src/misc/lv_txt.h **** 
 175:Drivers/lvgl/src/misc/lv_txt.h ****     /*Compare the letter to TXT_BREAK_CHARS*/
 176:Drivers/lvgl/src/misc/lv_txt.h ****     for(i = 0; LV_TXT_BREAK_CHARS[i] != '\0'; i++) {
 981              		.loc 2 176 34 is_stmt 0 discriminator 1 view .LVU304
 982 001e DFF85C82 		ldr	r8, .L188+4
 983              	.LBE44:
 984              	.LBE43:
 985              	.LBE42:
 986              	.LBE41:
 987              	.LBE40:
 305:Drivers/lvgl/src/misc/lv_txt.c **** 
 988              		.loc 1 305 14 view .LVU305
 989 0022 0D92     		str	r2, [sp, #52]
 307:Drivers/lvgl/src/misc/lv_txt.c ****         uint32_t word_w = 0;
 990              		.loc 1 307 5 is_stmt 1 view .LVU306
 304:Drivers/lvgl/src/misc/lv_txt.c ****     uint32_t i = 0;                                        /*Iterating index into txt*/
 991              		.loc 1 304 25 is_stmt 0 view .LVU307
 992 0024 0592     		str	r2, [sp, #20]
 289:Drivers/lvgl/src/misc/lv_txt.c **** 
 993              		.loc 1 289 16 view .LVU308
 994 0026 0892     		str	r2, [sp, #32]
ARM GAS  /var/folders/lp/x54gwt890xv47sdkqj1k04q40000gn/T//ccf0N3ow.s 			page 38


 995 0028 1A94     		str	r4, [sp, #104]
 996              	.LVL79:
 289:Drivers/lvgl/src/misc/lv_txt.c **** 
 997              		.loc 1 289 16 view .LVU309
 998 002a 0B91     		str	r1, [sp, #44]
 999              	.LVL80:
 1000              	.L84:
 307:Drivers/lvgl/src/misc/lv_txt.c ****         uint32_t word_w = 0;
 1001              		.loc 1 307 26 is_stmt 1 view .LVU310
 1002 002c 002B     		cmp	r3, #0
 1003 002e 00F0CC80 		beq	.L172
 307:Drivers/lvgl/src/misc/lv_txt.c ****         uint32_t word_w = 0;
 1004              		.loc 1 307 26 is_stmt 0 discriminator 1 view .LVU311
 1005 0032 009B     		ldr	r3, [sp]
 1006 0034 002B     		cmp	r3, #0
 1007 0036 40F3C880 		ble	.L172
 1008              	.LBB81:
 308:Drivers/lvgl/src/misc/lv_txt.c ****         uint32_t advance = lv_txt_get_next_word(&txt[i], font, letter_space, max_width, flag, &word
 1009              		.loc 1 308 9 is_stmt 1 view .LVU312
 1010              	.LVL81:
 309:Drivers/lvgl/src/misc/lv_txt.c ****         max_width -= word_w;
 1011              		.loc 1 309 9 view .LVU313
 1012              	.LBB71:
 1013              	.LBI41:
 171:Drivers/lvgl/src/misc/lv_txt.c ****                                      lv_coord_t letter_space, lv_coord_t max_width,
 1014              		.loc 1 171 17 view .LVU314
 1015              	.LBB61:
 175:Drivers/lvgl/src/misc/lv_txt.c ****     if(font == NULL) return 0;
 1016              		.loc 1 175 5 view .LVU315
 176:Drivers/lvgl/src/misc/lv_txt.c **** 
 1017              		.loc 1 176 5 view .LVU316
 176:Drivers/lvgl/src/misc/lv_txt.c **** 
 1018              		.loc 1 176 7 is_stmt 0 view .LVU317
 1019 003a 039B     		ldr	r3, [sp, #12]
 1020 003c 002B     		cmp	r3, #0
 1021 003e 00F0C480 		beq	.L172
 1022              	.LBE61:
 1023              	.LBE71:
 1024              	.LBE81:
 307:Drivers/lvgl/src/misc/lv_txt.c ****         uint32_t word_w = 0;
 1025              		.loc 1 307 14 view .LVU318
 1026 0042 079D     		ldr	r5, [sp, #28]
 1027              	.LBB82:
 1028              	.LBB72:
 1029              	.LBB62:
 189:Drivers/lvgl/src/misc/lv_txt.c ****     i_next_next = i_next;
 1030              		.loc 1 189 14 view .LVU319
 1031 0044 DFF830B2 		ldr	fp, .L188
 1032              	.LBE62:
 1033              	.LBE72:
 1034              	.LBE82:
 307:Drivers/lvgl/src/misc/lv_txt.c ****         uint32_t word_w = 0;
 1035              		.loc 1 307 14 view .LVU320
 1036 0048 0192     		str	r2, [sp, #4]
 1037              	.LBB83:
 1038              	.LBB73:
 1039              	.LBB63:
ARM GAS  /var/folders/lp/x54gwt890xv47sdkqj1k04q40000gn/T//ccf0N3ow.s 			page 39


 178:Drivers/lvgl/src/misc/lv_txt.c **** 
 1040              		.loc 1 178 5 is_stmt 1 view .LVU321
 180:Drivers/lvgl/src/misc/lv_txt.c ****     uint32_t letter = 0;      /*Letter at i*/
 1041              		.loc 1 180 5 view .LVU322
 1042              	.LVL82:
 181:Drivers/lvgl/src/misc/lv_txt.c ****     uint32_t letter_next = 0; /*Letter at i_next*/
 1043              		.loc 1 181 5 view .LVU323
 182:Drivers/lvgl/src/misc/lv_txt.c ****     lv_coord_t letter_w;
 1044              		.loc 1 182 5 view .LVU324
 183:Drivers/lvgl/src/misc/lv_txt.c ****     lv_coord_t cur_w = 0;  /*Pixel Width of transversed string*/
 1045              		.loc 1 183 5 view .LVU325
 184:Drivers/lvgl/src/misc/lv_txt.c ****     uint32_t word_len = 0;   /*Number of characters in the transversed word*/
 1046              		.loc 1 184 5 view .LVU326
 185:Drivers/lvgl/src/misc/lv_txt.c ****     uint32_t break_index = NO_BREAK_FOUND; /*only used for "long" words*/
 1047              		.loc 1 185 5 view .LVU327
 186:Drivers/lvgl/src/misc/lv_txt.c ****     uint32_t break_letter_count = 0; /*Number of characters up to the long word break point*/
 1048              		.loc 1 186 5 view .LVU328
 187:Drivers/lvgl/src/misc/lv_txt.c **** 
 1049              		.loc 1 187 5 view .LVU329
 189:Drivers/lvgl/src/misc/lv_txt.c ****     i_next_next = i_next;
 1050              		.loc 1 189 5 view .LVU330
 1051              	.LBE63:
 1052              	.LBE73:
 1053              	.LBE83:
 307:Drivers/lvgl/src/misc/lv_txt.c ****         uint32_t word_w = 0;
 1054              		.loc 1 307 14 is_stmt 0 view .LVU331
 1055 004a AF18     		adds	r7, r5, r2
 1056              	.LBB84:
 1057              	.LBB74:
 1058              	.LBB64:
 180:Drivers/lvgl/src/misc/lv_txt.c ****     uint32_t letter = 0;      /*Letter at i*/
 1059              		.loc 1 180 21 view .LVU332
 1060 004c 0024     		movs	r4, #0
 189:Drivers/lvgl/src/misc/lv_txt.c ****     i_next_next = i_next;
 1061              		.loc 1 189 14 view .LVU333
 1062 004e DBF80030 		ldr	r3, [fp]
 1063 0052 0EA9     		add	r1, sp, #56
 180:Drivers/lvgl/src/misc/lv_txt.c ****     uint32_t letter = 0;      /*Letter at i*/
 1064              		.loc 1 180 33 view .LVU334
 1065 0054 CDE90E44 		strd	r4, r4, [sp, #56]
 189:Drivers/lvgl/src/misc/lv_txt.c ****     i_next_next = i_next;
 1066              		.loc 1 189 14 view .LVU335
 1067 0058 3846     		mov	r0, r7
 1068 005a 9847     		blx	r3
 1069              	.LVL83:
 193:Drivers/lvgl/src/misc/lv_txt.c ****         letter_next = _lv_txt_encoded_next(txt, &i_next_next);
 1070              		.loc 1 193 18 view .LVU336
 1071 005c 019A     		ldr	r2, [sp, #4]
 190:Drivers/lvgl/src/misc/lv_txt.c **** 
 1072              		.loc 1 190 17 view .LVU337
 1073 005e DDF838A0 		ldr	r10, [sp, #56]
 193:Drivers/lvgl/src/misc/lv_txt.c ****         letter_next = _lv_txt_encoded_next(txt, &i_next_next);
 1074              		.loc 1 193 18 view .LVU338
 1075 0062 A95C     		ldrb	r1, [r5, r2]	@ zero_extendqisi2
 190:Drivers/lvgl/src/misc/lv_txt.c **** 
 1076              		.loc 1 190 17 view .LVU339
 1077 0064 CDF83CA0 		str	r10, [sp, #60]
ARM GAS  /var/folders/lp/x54gwt890xv47sdkqj1k04q40000gn/T//ccf0N3ow.s 			page 40


 189:Drivers/lvgl/src/misc/lv_txt.c ****     i_next_next = i_next;
 1078              		.loc 1 189 14 view .LVU340
 1079 0068 0346     		mov	r3, r0
 1080              	.LVL84:
 190:Drivers/lvgl/src/misc/lv_txt.c **** 
 1081              		.loc 1 190 5 is_stmt 1 view .LVU341
 193:Drivers/lvgl/src/misc/lv_txt.c ****         letter_next = _lv_txt_encoded_next(txt, &i_next_next);
 1082              		.loc 1 193 5 view .LVU342
 193:Drivers/lvgl/src/misc/lv_txt.c ****         letter_next = _lv_txt_encoded_next(txt, &i_next_next);
 1083              		.loc 1 193 18 view .LVU343
 1084 006a 0029     		cmp	r1, #0
 1085 006c 00F0FE80 		beq	.L115
 1086 0070 0B99     		ldr	r1, [sp, #44]
 1087              	.LBB48:
 1088              	.LBB45:
 171:Drivers/lvgl/src/misc/lv_txt.h ****         return true;
 1089              		.loc 2 171 7 is_stmt 0 view .LVU344
 1090 0072 0294     		str	r4, [sp, #8]
 1091 0074 01F00101 		and	r1, r1, #1
 1092 0078 0191     		str	r1, [sp, #4]
 1093              	.LBE45:
 1094              	.LBE48:
 180:Drivers/lvgl/src/misc/lv_txt.c ****     uint32_t letter = 0;      /*Letter at i*/
 1095              		.loc 1 180 14 view .LVU345
 1096 007a A146     		mov	r9, r4
 186:Drivers/lvgl/src/misc/lv_txt.c ****     uint32_t break_letter_count = 0; /*Number of characters up to the long word break point*/
 1097              		.loc 1 186 14 view .LVU346
 1098 007c 4FF0FF3A 		mov	r10, #-1
 184:Drivers/lvgl/src/misc/lv_txt.c ****     uint32_t word_len = 0;   /*Number of characters in the transversed word*/
 1099              		.loc 1 184 16 view .LVU347
 1100 0080 2546     		mov	r5, r4
 185:Drivers/lvgl/src/misc/lv_txt.c ****     uint32_t break_index = NO_BREAK_FOUND; /*only used for "long" words*/
 1101              		.loc 1 185 14 view .LVU348
 1102 0082 2646     		mov	r6, r4
 1103              	.LBB49:
 1104              	.LBB46:
 171:Drivers/lvgl/src/misc/lv_txt.h ****         return true;
 1105              		.loc 2 171 7 view .LVU349
 1106 0084 0A92     		str	r2, [sp, #40]
 1107              	.LVL85:
 1108              	.L103:
 171:Drivers/lvgl/src/misc/lv_txt.h ****         return true;
 1109              		.loc 2 171 7 view .LVU350
 1110              	.LBE46:
 1111              	.LBE49:
 194:Drivers/lvgl/src/misc/lv_txt.c ****         word_len++;
 1112              		.loc 1 194 9 is_stmt 1 view .LVU351
 1113 0086 1C46     		mov	r4, r3
 194:Drivers/lvgl/src/misc/lv_txt.c ****         word_len++;
 1114              		.loc 1 194 23 is_stmt 0 view .LVU352
 1115 0088 0FA9     		add	r1, sp, #60
 1116 008a DBF80030 		ldr	r3, [fp]
 1117              	.LVL86:
 194:Drivers/lvgl/src/misc/lv_txt.c ****         word_len++;
 1118              		.loc 1 194 23 view .LVU353
 1119 008e 3846     		mov	r0, r7
 1120 0090 9847     		blx	r3
ARM GAS  /var/folders/lp/x54gwt890xv47sdkqj1k04q40000gn/T//ccf0N3ow.s 			page 41


 1121              	.LVL87:
 198:Drivers/lvgl/src/misc/lv_txt.c ****             if(_lv_txt_is_cmd(cmd_state, letter) != false) {
 1122              		.loc 1 198 11 view .LVU354
 1123 0092 019A     		ldr	r2, [sp, #4]
 1124 0094 0696     		str	r6, [sp, #24]
 194:Drivers/lvgl/src/misc/lv_txt.c ****         word_len++;
 1125              		.loc 1 194 23 view .LVU355
 1126 0096 0346     		mov	r3, r0
 1127              	.LVL88:
 195:Drivers/lvgl/src/misc/lv_txt.c **** 
 1128              		.loc 1 195 9 is_stmt 1 view .LVU356
 195:Drivers/lvgl/src/misc/lv_txt.c **** 
 1129              		.loc 1 195 17 is_stmt 0 view .LVU357
 1130 0098 0136     		adds	r6, r6, #1
 1131              	.LVL89:
 198:Drivers/lvgl/src/misc/lv_txt.c ****             if(_lv_txt_is_cmd(cmd_state, letter) != false) {
 1132              		.loc 1 198 9 is_stmt 1 view .LVU358
 198:Drivers/lvgl/src/misc/lv_txt.c ****             if(_lv_txt_is_cmd(cmd_state, letter) != false) {
 1133              		.loc 1 198 11 is_stmt 0 view .LVU359
 1134 009a 32B1     		cbz	r2, .L90
 199:Drivers/lvgl/src/misc/lv_txt.c ****                 i = i_next;
 1135              		.loc 1 199 13 is_stmt 1 view .LVU360
 1136              	.LVL90:
 1137              	.LBB50:
 1138              	.LBI50:
 382:Drivers/lvgl/src/misc/lv_txt.c **** {
 1139              		.loc 1 382 6 view .LVU361
 1140              	.LBB51:
 384:Drivers/lvgl/src/misc/lv_txt.c **** 
 1141              		.loc 1 384 5 view .LVU362
 386:Drivers/lvgl/src/misc/lv_txt.c ****         if(*state == LV_TEXT_CMD_STATE_WAIT) { /*Start char*/
 1142              		.loc 1 386 5 view .LVU363
 386:Drivers/lvgl/src/misc/lv_txt.c ****         if(*state == LV_TEXT_CMD_STATE_WAIT) { /*Start char*/
 1143              		.loc 1 386 7 is_stmt 0 view .LVU364
 1144 009c 232C     		cmp	r4, #35
 387:Drivers/lvgl/src/misc/lv_txt.c ****             *state = LV_TEXT_CMD_STATE_PAR;
 1145              		.loc 1 387 11 view .LVU365
 1146 009e 059A     		ldr	r2, [sp, #20]
 386:Drivers/lvgl/src/misc/lv_txt.c ****         if(*state == LV_TEXT_CMD_STATE_WAIT) { /*Start char*/
 1147              		.loc 1 386 7 view .LVU366
 1148 00a0 00F08480 		beq	.L178
 403:Drivers/lvgl/src/misc/lv_txt.c ****         if(c == ' ') {
 1149              		.loc 1 403 5 is_stmt 1 view .LVU367
 403:Drivers/lvgl/src/misc/lv_txt.c ****         if(c == ' ') {
 1150              		.loc 1 403 7 is_stmt 0 view .LVU368
 1151 00a4 012A     		cmp	r2, #1
 1152 00a6 00F08A80 		beq	.L179
 1153              	.LVL91:
 1154              	.L90:
 403:Drivers/lvgl/src/misc/lv_txt.c ****         if(c == ' ') {
 1155              		.loc 1 403 7 view .LVU369
 1156              	.LBE51:
 1157              	.LBE50:
 207:Drivers/lvgl/src/misc/lv_txt.c ****         cur_w += letter_w;
 1158              		.loc 1 207 9 is_stmt 1 view .LVU370
 207:Drivers/lvgl/src/misc/lv_txt.c ****         cur_w += letter_w;
 1159              		.loc 1 207 20 is_stmt 0 view .LVU371
ARM GAS  /var/folders/lp/x54gwt890xv47sdkqj1k04q40000gn/T//ccf0N3ow.s 			page 42


 1160 00aa 1A46     		mov	r2, r3
 1161 00ac 0398     		ldr	r0, [sp, #12]
 1162              	.LVL92:
 207:Drivers/lvgl/src/misc/lv_txt.c ****         cur_w += letter_w;
 1163              		.loc 1 207 20 view .LVU372
 1164 00ae 0493     		str	r3, [sp, #16]
 1165 00b0 2146     		mov	r1, r4
 1166 00b2 FFF7FEFF 		bl	lv_font_get_glyph_width
 1167              	.LVL93:
 208:Drivers/lvgl/src/misc/lv_txt.c **** 
 1168              		.loc 1 208 9 is_stmt 1 view .LVU373
 208:Drivers/lvgl/src/misc/lv_txt.c **** 
 1169              		.loc 1 208 15 is_stmt 0 view .LVU374
 1170 00b6 0544     		add	r5, r5, r0
 210:Drivers/lvgl/src/misc/lv_txt.c ****             cur_w += letter_space;
 1171              		.loc 1 210 11 view .LVU375
 1172 00b8 00B2     		sxth	r0, r0
 210:Drivers/lvgl/src/misc/lv_txt.c ****             cur_w += letter_space;
 1173              		.loc 1 210 11 view .LVU376
 1174 00ba 0028     		cmp	r0, #0
 1175 00bc 049B     		ldr	r3, [sp, #16]
 208:Drivers/lvgl/src/misc/lv_txt.c **** 
 1176              		.loc 1 208 15 view .LVU377
 1177 00be ADB2     		uxth	r5, r5
 1178              	.LVL94:
 210:Drivers/lvgl/src/misc/lv_txt.c ****             cur_w += letter_space;
 1179              		.loc 1 210 9 is_stmt 1 view .LVU378
 210:Drivers/lvgl/src/misc/lv_txt.c ****             cur_w += letter_space;
 1180              		.loc 1 210 11 is_stmt 0 view .LVU379
 1181 00c0 02DD     		ble	.L94
 211:Drivers/lvgl/src/misc/lv_txt.c ****         }
 1182              		.loc 1 211 13 is_stmt 1 view .LVU380
 211:Drivers/lvgl/src/misc/lv_txt.c ****         }
 1183              		.loc 1 211 19 is_stmt 0 view .LVU381
 1184 00c2 099A     		ldr	r2, [sp, #36]
 1185 00c4 1544     		add	r5, r5, r2
 1186              	.LVL95:
 211:Drivers/lvgl/src/misc/lv_txt.c ****         }
 1187              		.loc 1 211 19 view .LVU382
 1188 00c6 ADB2     		uxth	r5, r5
 1189              	.LVL96:
 1190              	.L94:
 215:Drivers/lvgl/src/misc/lv_txt.c ****             break_index = i;
 1191              		.loc 1 215 11 view .LVU383
 1192 00c8 BAF1FF3F 		cmp	r10, #-1
 1193 00cc 2DB2     		sxth	r5, r5
 215:Drivers/lvgl/src/misc/lv_txt.c ****             break_index = i;
 1194              		.loc 1 215 9 is_stmt 1 view .LVU384
 215:Drivers/lvgl/src/misc/lv_txt.c ****             break_index = i;
 1195              		.loc 1 215 11 is_stmt 0 view .LVU385
 1196 00ce 05D1     		bne	.L95
 215:Drivers/lvgl/src/misc/lv_txt.c ****             break_index = i;
 1197              		.loc 1 215 52 discriminator 1 view .LVU386
 1198 00d0 099A     		ldr	r2, [sp, #36]
 216:Drivers/lvgl/src/misc/lv_txt.c ****             break_letter_count = word_len - 1;
 1199              		.loc 1 216 25 view .LVU387
 1200 00d2 0099     		ldr	r1, [sp]
ARM GAS  /var/folders/lp/x54gwt890xv47sdkqj1k04q40000gn/T//ccf0N3ow.s 			page 43


 215:Drivers/lvgl/src/misc/lv_txt.c ****             break_index = i;
 1201              		.loc 1 215 52 discriminator 1 view .LVU388
 1202 00d4 AA1A     		subs	r2, r5, r2
 216:Drivers/lvgl/src/misc/lv_txt.c ****             break_letter_count = word_len - 1;
 1203              		.loc 1 216 25 view .LVU389
 1204 00d6 8A42     		cmp	r2, r1
 1205 00d8 C8BF     		it	gt
 1206 00da CA46     		movgt	r10, r9
 1207              	.LVL97:
 1208              	.L95:
 222:Drivers/lvgl/src/misc/lv_txt.c ****             /*Update the output width on the first character if it fits.
 1209              		.loc 1 222 9 is_stmt 1 view .LVU390
 222:Drivers/lvgl/src/misc/lv_txt.c ****             /*Update the output width on the first character if it fits.
 1210              		.loc 1 222 11 is_stmt 0 view .LVU391
 1211 00dc 0A2C     		cmp	r4, #10
 1212 00de 11D0     		beq	.L168
 222:Drivers/lvgl/src/misc/lv_txt.c ****             /*Update the output width on the first character if it fits.
 1213              		.loc 1 222 27 discriminator 1 view .LVU392
 1214 00e0 0D2C     		cmp	r4, #13
 1215 00e2 0FD0     		beq	.L168
 1216              	.LVL98:
 1217              	.LBB56:
 1218              	.LBI43:
 165:Drivers/lvgl/src/misc/lv_txt.h **** {
 1219              		.loc 2 165 20 is_stmt 1 view .LVU393
 1220              	.LBB47:
 167:Drivers/lvgl/src/misc/lv_txt.h ****     bool ret = false;
 1221              		.loc 2 167 5 view .LVU394
 168:Drivers/lvgl/src/misc/lv_txt.h **** 
 1222              		.loc 2 168 5 view .LVU395
 171:Drivers/lvgl/src/misc/lv_txt.h ****         return true;
 1223              		.loc 2 171 5 view .LVU396
 171:Drivers/lvgl/src/misc/lv_txt.h ****         return true;
 1224              		.loc 2 171 25 is_stmt 0 view .LVU397
 1225 00e4 A4F59C42 		sub	r2, r4, #19968
 171:Drivers/lvgl/src/misc/lv_txt.h ****         return true;
 1226              		.loc 2 171 7 view .LVU398
 1227 00e8 45F2A511 		movw	r1, #20901
 1228 00ec 8A42     		cmp	r2, r1
 1229 00ee 09D9     		bls	.L168
 1230              		.loc 2 176 11 view .LVU399
 1231 00f0 0022     		movs	r2, #0
 1232              		.loc 2 176 34 discriminator 1 view .LVU400
 1233 00f2 2021     		movs	r1, #32
 1234 00f4 02E0     		b	.L97
 1235              	.LVL99:
 1236              	.L181:
 1237              		.loc 2 176 34 discriminator 1 view .LVU401
 1238 00f6 18F80210 		ldrb	r1, [r8, r2]	@ zero_extendqisi2
 1239              		.loc 2 176 38 discriminator 1 view .LVU402
 1240 00fa C9B1     		cbz	r1, .L180
 1241              	.LVL100:
 1242              	.L97:
 177:Drivers/lvgl/src/misc/lv_txt.h ****         if(letter == (uint32_t)LV_TXT_BREAK_CHARS[i]) {
 1243              		.loc 2 177 9 is_stmt 1 view .LVU403
 176:Drivers/lvgl/src/misc/lv_txt.h ****         if(letter == (uint32_t)LV_TXT_BREAK_CHARS[i]) {
 1244              		.loc 2 176 48 discriminator 2 view .LVU404
ARM GAS  /var/folders/lp/x54gwt890xv47sdkqj1k04q40000gn/T//ccf0N3ow.s 			page 44


 1245 00fc 0132     		adds	r2, r2, #1
 1246              	.LVL101:
 1247              		.loc 2 177 11 is_stmt 0 view .LVU405
 1248 00fe 8C42     		cmp	r4, r1
 176:Drivers/lvgl/src/misc/lv_txt.h ****         if(letter == (uint32_t)LV_TXT_BREAK_CHARS[i]) {
 1249              		.loc 2 176 48 discriminator 2 view .LVU406
 1250 0100 D2B2     		uxtb	r2, r2
 1251              	.LVL102:
 176:Drivers/lvgl/src/misc/lv_txt.h ****         if(letter == (uint32_t)LV_TXT_BREAK_CHARS[i]) {
 1252              		.loc 2 176 38 is_stmt 1 discriminator 1 view .LVU407
 1253              		.loc 2 177 11 is_stmt 0 view .LVU408
 1254 0102 F8D1     		bne	.L181
 1255              	.LVL103:
 1256              	.L168:
 1257              		.loc 2 177 11 view .LVU409
 1258              	.LBE47:
 1259              	.LBE56:
 225:Drivers/lvgl/src/misc/lv_txt.c ****             word_len--;
 1260              		.loc 1 225 13 is_stmt 1 view .LVU410
 1261 0104 DDF808C0 		ldr	ip, [sp, #8]
 1262 0108 0A9A     		ldr	r2, [sp, #40]
 225:Drivers/lvgl/src/misc/lv_txt.c ****             word_len--;
 1263              		.loc 1 225 15 is_stmt 0 view .LVU411
 1264 010a B9F1000F 		cmp	r9, #0
 1265 010e 21D1     		bne	.L99
 225:Drivers/lvgl/src/misc/lv_txt.c ****             word_len--;
 1266              		.loc 1 225 23 discriminator 1 view .LVU412
 1267 0110 BAF1FF3F 		cmp	r10, #-1
 1268 0114 78D0     		beq	.L182
 1269              	.LVL104:
 272:Drivers/lvgl/src/misc/lv_txt.c ****     if(word_w_ptr != NULL) *word_w_ptr = 0; /*Return no word*/
 1270              		.loc 1 272 5 is_stmt 1 view .LVU413
 272:Drivers/lvgl/src/misc/lv_txt.c ****     if(word_w_ptr != NULL) *word_w_ptr = 0; /*Return no word*/
 1271              		.loc 1 272 7 is_stmt 0 view .LVU414
 1272 0116 12B3     		cbz	r2, .L183
 1273              	.LVL105:
 1274              	.L106:
 272:Drivers/lvgl/src/misc/lv_txt.c ****     if(word_w_ptr != NULL) *word_w_ptr = 0; /*Return no word*/
 1275              		.loc 1 272 7 view .LVU415
 1276              	.LBE64:
 1277              	.LBE74:
 1278              	.LBE84:
 329:Drivers/lvgl/src/misc/lv_txt.c ****         uint32_t letter = _lv_txt_encoded_next(txt, &i);
 1279              		.loc 1 329 10 view .LVU416
 1280 0118 DDF834B0 		ldr	fp, [sp, #52]
 1281 011c 1A9C     		ldr	r4, [sp, #104]
 1282              	.LVL106:
 1283              	.LBB85:
 310:Drivers/lvgl/src/misc/lv_txt.c ****         line_w += word_w;
 1284              		.loc 1 310 9 is_stmt 1 view .LVU417
 311:Drivers/lvgl/src/misc/lv_txt.c **** 
 1285              		.loc 1 311 9 view .LVU418
 313:Drivers/lvgl/src/misc/lv_txt.c ****             break;
 1286              		.loc 1 313 9 view .LVU419
 313:Drivers/lvgl/src/misc/lv_txt.c ****             break;
 1287              		.loc 1 313 9 is_stmt 0 view .LVU420
 1288              	.LBE85:
ARM GAS  /var/folders/lp/x54gwt890xv47sdkqj1k04q40000gn/T//ccf0N3ow.s 			page 45


 329:Drivers/lvgl/src/misc/lv_txt.c ****         uint32_t letter = _lv_txt_encoded_next(txt, &i);
 1289              		.loc 1 329 5 is_stmt 1 view .LVU421
 329:Drivers/lvgl/src/misc/lv_txt.c ****         uint32_t letter = _lv_txt_encoded_next(txt, &i);
 1290              		.loc 1 329 7 is_stmt 0 view .LVU422
 1291 011e BBF1000F 		cmp	fp, #0
 1292 0122 5BD0     		beq	.L184
 1293              	.LVL107:
 1294              	.L110:
 336:Drivers/lvgl/src/misc/lv_txt.c ****         *used_width = line_w;
 1295              		.loc 1 336 5 is_stmt 1 view .LVU423
 336:Drivers/lvgl/src/misc/lv_txt.c ****         *used_width = line_w;
 1296              		.loc 1 336 7 is_stmt 0 view .LVU424
 1297 0124 002C     		cmp	r4, #0
 1298 0126 69D1     		bne	.L113
 1299              	.LVL108:
 1300              	.L75:
 341:Drivers/lvgl/src/misc/lv_txt.c **** 
 1301              		.loc 1 341 1 view .LVU425
 1302 0128 5846     		mov	r0, fp
 1303 012a 11B0     		add	sp, sp, #68
 1304              		.cfi_remember_state
 1305              		.cfi_def_cfa_offset 36
 1306              		@ sp needed
 1307 012c BDE8F08F 		pop	{r4, r5, r6, r7, r8, r9, r10, fp, pc}
 1308              	.LVL109:
 1309              	.L180:
 1310              		.cfi_restore_state
 1311              	.LBB86:
 1312              	.LBB75:
 1313              	.LBB65:
 231:Drivers/lvgl/src/misc/lv_txt.c **** 
 1314              		.loc 1 231 9 is_stmt 1 view .LVU426
 231:Drivers/lvgl/src/misc/lv_txt.c **** 
 1315              		.loc 1 231 77 is_stmt 0 discriminator 2 view .LVU427
 1316 0130 029A     		ldr	r2, [sp, #8]
 1317 0132 BAF1FF3F 		cmp	r10, #-1
 1318 0136 08BF     		it	eq
 1319 0138 2A46     		moveq	r2, r5
 1320 013a 0292     		str	r2, [sp, #8]
 1321              	.LVL110:
 1322              	.L174:
 233:Drivers/lvgl/src/misc/lv_txt.c ****         i_next = i_next_next;
 1323              		.loc 1 233 9 is_stmt 1 view .LVU428
 234:Drivers/lvgl/src/misc/lv_txt.c ****         letter = letter_next;
 1324              		.loc 1 234 16 is_stmt 0 view .LVU429
 1325 013c DDE90E92 		ldrd	r9, r2, [sp, #56]
 1326              	.LVL111:
 235:Drivers/lvgl/src/misc/lv_txt.c ****     }
 1327              		.loc 1 235 9 is_stmt 1 view .LVU430
 234:Drivers/lvgl/src/misc/lv_txt.c ****         letter = letter_next;
 1328              		.loc 1 234 16 is_stmt 0 view .LVU431
 1329 0140 0E92     		str	r2, [sp, #56]
 1330              	.LVL112:
 193:Drivers/lvgl/src/misc/lv_txt.c ****         letter_next = _lv_txt_encoded_next(txt, &i_next_next);
 1331              		.loc 1 193 18 is_stmt 1 view .LVU432
 1332 0142 17F80920 		ldrb	r2, [r7, r9]	@ zero_extendqisi2
 1333 0146 002A     		cmp	r2, #0
ARM GAS  /var/folders/lp/x54gwt890xv47sdkqj1k04q40000gn/T//ccf0N3ow.s 			page 46


 1334 0148 9DD1     		bne	.L103
 193:Drivers/lvgl/src/misc/lv_txt.c ****         letter_next = _lv_txt_encoded_next(txt, &i_next_next);
 1335              		.loc 1 193 18 is_stmt 0 view .LVU433
 1336 014a DDF808C0 		ldr	ip, [sp, #8]
 1337 014e 0A9A     		ldr	r2, [sp, #40]
 1338 0150 0696     		str	r6, [sp, #24]
 1339 0152 1C46     		mov	r4, r3
 1340              	.LVL113:
 1341              	.L99:
 239:Drivers/lvgl/src/misc/lv_txt.c ****         if(word_len == 0 || (letter == '\r' && letter_next == '\n')) i = i_next;
 1342              		.loc 1 239 5 is_stmt 1 view .LVU434
 239:Drivers/lvgl/src/misc/lv_txt.c ****         if(word_len == 0 || (letter == '\r' && letter_next == '\n')) i = i_next;
 1343              		.loc 1 239 7 is_stmt 0 view .LVU435
 1344 0154 BAF1FF3F 		cmp	r10, #-1
 1345 0158 57D0     		beq	.L101
 1346              	.LVL114:
 272:Drivers/lvgl/src/misc/lv_txt.c ****     if(word_w_ptr != NULL) *word_w_ptr = 0; /*Return no word*/
 1347              		.loc 1 272 5 is_stmt 1 view .LVU436
 272:Drivers/lvgl/src/misc/lv_txt.c ****     if(word_w_ptr != NULL) *word_w_ptr = 0; /*Return no word*/
 1348              		.loc 1 272 7 is_stmt 0 view .LVU437
 1349 015a 002A     		cmp	r2, #0
 1350 015c DCD1     		bne	.L106
 1351              	.LVL115:
 1352              	.L183:
 272:Drivers/lvgl/src/misc/lv_txt.c ****     if(word_w_ptr != NULL) *word_w_ptr = 0; /*Return no word*/
 1353              		.loc 1 272 7 view .LVU438
 1354              	.LBE65:
 1355              	.LBE75:
 310:Drivers/lvgl/src/misc/lv_txt.c ****         line_w += word_w;
 1356              		.loc 1 310 19 view .LVU439
 1357 015e 1FFA8CFC 		uxth	ip, ip
 1358              	.LVL116:
 1359              	.L105:
 310:Drivers/lvgl/src/misc/lv_txt.c ****         line_w += word_w;
 1360              		.loc 1 310 9 is_stmt 1 view .LVU440
 310:Drivers/lvgl/src/misc/lv_txt.c ****         line_w += word_w;
 1361              		.loc 1 310 19 is_stmt 0 view .LVU441
 1362 0162 009B     		ldr	r3, [sp]
 311:Drivers/lvgl/src/misc/lv_txt.c **** 
 1363              		.loc 1 311 16 view .LVU442
 1364 0164 089A     		ldr	r2, [sp, #32]
 310:Drivers/lvgl/src/misc/lv_txt.c ****         line_w += word_w;
 1365              		.loc 1 310 19 view .LVU443
 1366 0166 A3EB0C03 		sub	r3, r3, ip
 1367              	.LVL117:
 310:Drivers/lvgl/src/misc/lv_txt.c ****         line_w += word_w;
 1368              		.loc 1 310 19 view .LVU444
 1369 016a 1BB2     		sxth	r3, r3
 311:Drivers/lvgl/src/misc/lv_txt.c **** 
 1370              		.loc 1 311 16 view .LVU445
 1371 016c 9444     		add	ip, ip, r2
 310:Drivers/lvgl/src/misc/lv_txt.c ****         line_w += word_w;
 1372              		.loc 1 310 19 view .LVU446
 1373 016e 0093     		str	r3, [sp]
 311:Drivers/lvgl/src/misc/lv_txt.c **** 
 1374              		.loc 1 311 9 is_stmt 1 view .LVU447
 1375              	.LVL118:
ARM GAS  /var/folders/lp/x54gwt890xv47sdkqj1k04q40000gn/T//ccf0N3ow.s 			page 47


 311:Drivers/lvgl/src/misc/lv_txt.c **** 
 1376              		.loc 1 311 16 is_stmt 0 view .LVU448
 1377 0170 0FFA8CF3 		sxth	r3, ip
 1378              	.LVL119:
 317:Drivers/lvgl/src/misc/lv_txt.c **** 
 1379              		.loc 1 317 11 view .LVU449
 1380 0174 0D9A     		ldr	r2, [sp, #52]
 311:Drivers/lvgl/src/misc/lv_txt.c **** 
 1381              		.loc 1 311 16 view .LVU450
 1382 0176 0893     		str	r3, [sp, #32]
 313:Drivers/lvgl/src/misc/lv_txt.c ****             break;
 1383              		.loc 1 313 9 is_stmt 1 view .LVU451
 313:Drivers/lvgl/src/misc/lv_txt.c ****             break;
 1384              		.loc 1 313 11 is_stmt 0 view .LVU452
 1385 0178 BAF1000F 		cmp	r10, #0
 1386 017c 25D0     		beq	.L172
 317:Drivers/lvgl/src/misc/lv_txt.c **** 
 1387              		.loc 1 317 9 is_stmt 1 view .LVU453
 319:Drivers/lvgl/src/misc/lv_txt.c **** 
 1388              		.loc 1 319 15 is_stmt 0 view .LVU454
 1389 017e 0799     		ldr	r1, [sp, #28]
 1390 0180 0B78     		ldrb	r3, [r1]	@ zero_extendqisi2
 1391              	.LVL120:
 317:Drivers/lvgl/src/misc/lv_txt.c **** 
 1392              		.loc 1 317 11 view .LVU455
 1393 0182 5244     		add	r2, r2, r10
 319:Drivers/lvgl/src/misc/lv_txt.c **** 
 1394              		.loc 1 319 11 view .LVU456
 1395 0184 0A2B     		cmp	r3, #10
 317:Drivers/lvgl/src/misc/lv_txt.c **** 
 1396              		.loc 1 317 11 view .LVU457
 1397 0186 0D92     		str	r2, [sp, #52]
 319:Drivers/lvgl/src/misc/lv_txt.c **** 
 1398              		.loc 1 319 9 is_stmt 1 view .LVU458
 319:Drivers/lvgl/src/misc/lv_txt.c **** 
 1399              		.loc 1 319 11 is_stmt 0 view .LVU459
 1400 0188 1FD0     		beq	.L172
 319:Drivers/lvgl/src/misc/lv_txt.c **** 
 1401              		.loc 1 319 27 discriminator 1 view .LVU460
 1402 018a 0D2B     		cmp	r3, #13
 1403 018c 1DD0     		beq	.L172
 321:Drivers/lvgl/src/misc/lv_txt.c ****             i++;  /*Include the following newline in the current line*/
 1404              		.loc 1 321 9 is_stmt 1 view .LVU461
 321:Drivers/lvgl/src/misc/lv_txt.c ****             i++;  /*Include the following newline in the current line*/
 1405              		.loc 1 321 15 is_stmt 0 view .LVU462
 1406 018e 8B5C     		ldrb	r3, [r1, r2]	@ zero_extendqisi2
 321:Drivers/lvgl/src/misc/lv_txt.c ****             i++;  /*Include the following newline in the current line*/
 1407              		.loc 1 321 11 view .LVU463
 1408 0190 0A2B     		cmp	r3, #10
 1409 0192 02D0     		beq	.L107
 321:Drivers/lvgl/src/misc/lv_txt.c ****             i++;  /*Include the following newline in the current line*/
 1410              		.loc 1 321 27 discriminator 1 view .LVU464
 1411 0194 0D2B     		cmp	r3, #13
 1412 0196 7FF449AF 		bne	.L84
 1413              	.L107:
 322:Drivers/lvgl/src/misc/lv_txt.c ****             break;
 1414              		.loc 1 322 14 view .LVU465
ARM GAS  /var/folders/lp/x54gwt890xv47sdkqj1k04q40000gn/T//ccf0N3ow.s 			page 48


 1415 019a 02F1010B 		add	fp, r2, #1
 1416 019e 1A9C     		ldr	r4, [sp, #104]
 322:Drivers/lvgl/src/misc/lv_txt.c ****             break;
 1417              		.loc 1 322 13 is_stmt 1 view .LVU466
 322:Drivers/lvgl/src/misc/lv_txt.c ****             break;
 1418              		.loc 1 322 14 is_stmt 0 view .LVU467
 1419 01a0 CDF834B0 		str	fp, [sp, #52]
 323:Drivers/lvgl/src/misc/lv_txt.c ****         }
 1420              		.loc 1 323 13 is_stmt 1 view .LVU468
 323:Drivers/lvgl/src/misc/lv_txt.c ****         }
 1421              		.loc 1 323 13 is_stmt 0 view .LVU469
 1422              	.LBE86:
 329:Drivers/lvgl/src/misc/lv_txt.c ****         uint32_t letter = _lv_txt_encoded_next(txt, &i);
 1423              		.loc 1 329 5 is_stmt 1 view .LVU470
 329:Drivers/lvgl/src/misc/lv_txt.c ****         uint32_t letter = _lv_txt_encoded_next(txt, &i);
 1424              		.loc 1 329 7 is_stmt 0 view .LVU471
 1425 01a4 BBF1000F 		cmp	fp, #0
 1426 01a8 BCD1     		bne	.L110
 1427 01aa 17E0     		b	.L184
 1428              	.LVL121:
 1429              	.L178:
 1430              	.LBB87:
 1431              	.LBB76:
 1432              	.LBB66:
 1433              	.LBB57:
 1434              	.LBB52:
 387:Drivers/lvgl/src/misc/lv_txt.c ****             *state = LV_TEXT_CMD_STATE_PAR;
 1435              		.loc 1 387 9 is_stmt 1 view .LVU472
 387:Drivers/lvgl/src/misc/lv_txt.c ****             *state = LV_TEXT_CMD_STATE_PAR;
 1436              		.loc 1 387 11 is_stmt 0 view .LVU473
 1437 01ac 9AB1     		cbz	r2, .L116
 392:Drivers/lvgl/src/misc/lv_txt.c ****             *state = LV_TEXT_CMD_STATE_WAIT;
 1438              		.loc 1 392 14 is_stmt 1 view .LVU474
 392:Drivers/lvgl/src/misc/lv_txt.c ****             *state = LV_TEXT_CMD_STATE_WAIT;
 1439              		.loc 1 392 16 is_stmt 0 view .LVU475
 1440 01ae 012A     		cmp	r2, #1
 1441 01b0 33D0     		beq	.L117
 396:Drivers/lvgl/src/misc/lv_txt.c ****             *state = LV_TEXT_CMD_STATE_WAIT;
 1442              		.loc 1 396 14 is_stmt 1 view .LVU476
 396:Drivers/lvgl/src/misc/lv_txt.c ****             *state = LV_TEXT_CMD_STATE_WAIT;
 1443              		.loc 1 396 16 is_stmt 0 view .LVU477
 1444 01b2 022A     		cmp	r2, #2
 1445 01b4 7FF479AF 		bne	.L90
 1446              	.LVL122:
 397:Drivers/lvgl/src/misc/lv_txt.c ****             ret    = true;
 1447              		.loc 1 397 20 view .LVU478
 1448 01b8 0022     		movs	r2, #0
 1449 01ba 0592     		str	r2, [sp, #20]
 1450              	.LVL123:
 397:Drivers/lvgl/src/misc/lv_txt.c ****             ret    = true;
 1451              		.loc 1 397 20 view .LVU479
 1452              	.LBE52:
 1453              	.LBE57:
 200:Drivers/lvgl/src/misc/lv_txt.c ****                 i_next = i_next_next;
 1454              		.loc 1 200 17 is_stmt 1 view .LVU480
 1455 01bc BEE7     		b	.L174
 1456              	.LVL124:
ARM GAS  /var/folders/lp/x54gwt890xv47sdkqj1k04q40000gn/T//ccf0N3ow.s 			page 49


 1457              	.L179:
 1458              	.LBB58:
 1459              	.LBB53:
 404:Drivers/lvgl/src/misc/lv_txt.c ****             *state = LV_TEXT_CMD_STATE_IN; /*After the parameter the text is in the command*/
 1460              		.loc 1 404 9 view .LVU481
 404:Drivers/lvgl/src/misc/lv_txt.c ****             *state = LV_TEXT_CMD_STATE_IN; /*After the parameter the text is in the command*/
 1461              		.loc 1 404 11 is_stmt 0 view .LVU482
 1462 01be 202C     		cmp	r4, #32
 1463 01c0 019A     		ldr	r2, [sp, #4]
 1464 01c2 08BF     		it	eq
 1465 01c4 0222     		moveq	r2, #2
 1466 01c6 0592     		str	r2, [sp, #20]
 1467 01c8 B8E7     		b	.L174
 1468              	.LVL125:
 1469              	.L172:
 404:Drivers/lvgl/src/misc/lv_txt.c ****             *state = LV_TEXT_CMD_STATE_IN; /*After the parameter the text is in the command*/
 1470              		.loc 1 404 11 view .LVU483
 1471 01ca 9346     		mov	fp, r2
 1472 01cc 1A9C     		ldr	r4, [sp, #104]
 1473              	.LVL126:
 404:Drivers/lvgl/src/misc/lv_txt.c ****             *state = LV_TEXT_CMD_STATE_IN; /*After the parameter the text is in the command*/
 1474              		.loc 1 404 11 view .LVU484
 1475              	.LBE53:
 1476              	.LBE58:
 1477              	.LBE66:
 1478              	.LBE76:
 1479              	.LBE87:
 329:Drivers/lvgl/src/misc/lv_txt.c ****         uint32_t letter = _lv_txt_encoded_next(txt, &i);
 1480              		.loc 1 329 5 is_stmt 1 view .LVU485
 329:Drivers/lvgl/src/misc/lv_txt.c ****         uint32_t letter = _lv_txt_encoded_next(txt, &i);
 1481              		.loc 1 329 7 is_stmt 0 view .LVU486
 1482 01ce BBF1000F 		cmp	fp, #0
 1483 01d2 A7D1     		bne	.L110
 1484 01d4 02E0     		b	.L184
 1485              	.LVL127:
 1486              	.L116:
 1487              	.LBB88:
 1488              	.LBB77:
 1489              	.LBB67:
 1490              	.LBB59:
 1491              	.LBB54:
 329:Drivers/lvgl/src/misc/lv_txt.c ****         uint32_t letter = _lv_txt_encoded_next(txt, &i);
 1492              		.loc 1 329 7 view .LVU487
 1493 01d6 019A     		ldr	r2, [sp, #4]
 1494 01d8 0592     		str	r2, [sp, #20]
 1495 01da AFE7     		b	.L174
 1496              	.LVL128:
 1497              	.L184:
 329:Drivers/lvgl/src/misc/lv_txt.c ****         uint32_t letter = _lv_txt_encoded_next(txt, &i);
 1498              		.loc 1 329 7 view .LVU488
 1499              	.LBE54:
 1500              	.LBE59:
 1501              	.LBE67:
 1502              	.LBE77:
 1503              	.LBE88:
 1504              	.LBB89:
 330:Drivers/lvgl/src/misc/lv_txt.c ****         if(used_width != NULL) {
ARM GAS  /var/folders/lp/x54gwt890xv47sdkqj1k04q40000gn/T//ccf0N3ow.s 			page 50


 1505              		.loc 1 330 9 is_stmt 1 view .LVU489
 330:Drivers/lvgl/src/misc/lv_txt.c ****         if(used_width != NULL) {
 1506              		.loc 1 330 27 is_stmt 0 view .LVU490
 1507 01dc 264B     		ldr	r3, .L188
 1508 01de 0798     		ldr	r0, [sp, #28]
 1509 01e0 1B68     		ldr	r3, [r3]
 1510 01e2 0DA9     		add	r1, sp, #52
 1511 01e4 9847     		blx	r3
 1512              	.LVL129:
 331:Drivers/lvgl/src/misc/lv_txt.c ****             line_w = lv_font_get_glyph_width(font, letter, '\0');
 1513              		.loc 1 331 9 is_stmt 1 view .LVU491
 331:Drivers/lvgl/src/misc/lv_txt.c ****             line_w = lv_font_get_glyph_width(font, letter, '\0');
 1514              		.loc 1 331 11 is_stmt 0 view .LVU492
 1515 01e6 002C     		cmp	r4, #0
 1516 01e8 35D0     		beq	.L185
 332:Drivers/lvgl/src/misc/lv_txt.c ****         }
 1517              		.loc 1 332 13 is_stmt 1 view .LVU493
 332:Drivers/lvgl/src/misc/lv_txt.c ****         }
 1518              		.loc 1 332 22 is_stmt 0 view .LVU494
 1519 01ea 5A46     		mov	r2, fp
 1520 01ec 0146     		mov	r1, r0
 1521 01ee 0398     		ldr	r0, [sp, #12]
 1522              	.LVL130:
 332:Drivers/lvgl/src/misc/lv_txt.c ****         }
 1523              		.loc 1 332 22 view .LVU495
 1524 01f0 FFF7FEFF 		bl	lv_font_get_glyph_width
 1525              	.LVL131:
 332:Drivers/lvgl/src/misc/lv_txt.c ****         }
 1526              		.loc 1 332 22 view .LVU496
 1527              	.LBE89:
 340:Drivers/lvgl/src/misc/lv_txt.c **** }
 1528              		.loc 1 340 12 view .LVU497
 1529 01f4 DDF834B0 		ldr	fp, [sp, #52]
 1530              	.LBB90:
 332:Drivers/lvgl/src/misc/lv_txt.c ****         }
 1531              		.loc 1 332 20 discriminator 1 view .LVU498
 1532 01f8 03B2     		sxth	r3, r0
 1533              	.LVL132:
 332:Drivers/lvgl/src/misc/lv_txt.c ****         }
 1534              		.loc 1 332 20 discriminator 1 view .LVU499
 1535 01fa 0893     		str	r3, [sp, #32]
 332:Drivers/lvgl/src/misc/lv_txt.c ****         }
 1536              		.loc 1 332 20 discriminator 1 view .LVU500
 1537              	.LBE90:
 336:Drivers/lvgl/src/misc/lv_txt.c ****         *used_width = line_w;
 1538              		.loc 1 336 5 is_stmt 1 view .LVU501
 1539              	.LVL133:
 1540              	.L113:
 337:Drivers/lvgl/src/misc/lv_txt.c ****     }
 1541              		.loc 1 337 9 view .LVU502
 337:Drivers/lvgl/src/misc/lv_txt.c ****     }
 1542              		.loc 1 337 21 is_stmt 0 view .LVU503
 1543 01fc 089B     		ldr	r3, [sp, #32]
 1544 01fe 2380     		strh	r3, [r4]	@ movhi
 340:Drivers/lvgl/src/misc/lv_txt.c **** }
 1545              		.loc 1 340 5 is_stmt 1 view .LVU504
 341:Drivers/lvgl/src/misc/lv_txt.c **** 
ARM GAS  /var/folders/lp/x54gwt890xv47sdkqj1k04q40000gn/T//ccf0N3ow.s 			page 51


 1546              		.loc 1 341 1 is_stmt 0 view .LVU505
 1547 0200 5846     		mov	r0, fp
 1548 0202 11B0     		add	sp, sp, #68
 1549              		.cfi_remember_state
 1550              		.cfi_def_cfa_offset 36
 1551              		@ sp needed
 1552 0204 BDE8F08F 		pop	{r4, r5, r6, r7, r8, r9, r10, fp, pc}
 1553              	.LVL134:
 1554              	.L182:
 1555              		.cfi_restore_state
 1556              	.LBB91:
 1557              	.LBB78:
 1558              	.LBB68:
 225:Drivers/lvgl/src/misc/lv_txt.c ****             word_len--;
 1559              		.loc 1 225 79 is_stmt 1 discriminator 3 view .LVU506
 225:Drivers/lvgl/src/misc/lv_txt.c ****             word_len--;
 1560              		.loc 1 225 91 is_stmt 0 discriminator 3 view .LVU507
 1561 0208 AC46     		mov	ip, r5
 1562              	.LVL135:
 239:Drivers/lvgl/src/misc/lv_txt.c ****         if(word_len == 0 || (letter == '\r' && letter_next == '\n')) i = i_next;
 1563              		.loc 1 239 5 is_stmt 1 view .LVU508
 1564              	.L101:
 240:Drivers/lvgl/src/misc/lv_txt.c ****         return i;
 1565              		.loc 1 240 9 view .LVU509
 240:Drivers/lvgl/src/misc/lv_txt.c ****         return i;
 1566              		.loc 1 240 11 is_stmt 0 view .LVU510
 1567 020a 069A     		ldr	r2, [sp, #24]
 1568              	.LBE68:
 1569              	.LBE78:
 310:Drivers/lvgl/src/misc/lv_txt.c ****         line_w += word_w;
 1570              		.loc 1 310 19 view .LVU511
 1571 020c 1FFA8CFC 		uxth	ip, ip
 1572              	.LBB79:
 1573              	.LBB69:
 240:Drivers/lvgl/src/misc/lv_txt.c ****         return i;
 1574              		.loc 1 240 11 view .LVU512
 1575 0210 4AB3     		cbz	r2, .L175
 240:Drivers/lvgl/src/misc/lv_txt.c ****         return i;
 1576              		.loc 1 240 26 discriminator 2 view .LVU513
 1577 0212 0D2C     		cmp	r4, #13
 1578 0214 25D0     		beq	.L186
 1579              	.L123:
 240:Drivers/lvgl/src/misc/lv_txt.c ****         return i;
 1580              		.loc 1 240 26 discriminator 2 view .LVU514
 1581 0216 CA46     		mov	r10, r9
 1582 0218 A3E7     		b	.L105
 1583              	.LVL136:
 1584              	.L117:
 1585              	.LBB60:
 1586              	.LBB55:
 393:Drivers/lvgl/src/misc/lv_txt.c ****         }
 1587              		.loc 1 393 20 view .LVU515
 1588 021a 0022     		movs	r2, #0
 1589 021c 0592     		str	r2, [sp, #20]
 1590 021e 44E7     		b	.L90
 1591              	.LVL137:
 1592              	.L177:
ARM GAS  /var/folders/lp/x54gwt890xv47sdkqj1k04q40000gn/T//ccf0N3ow.s 			page 52


 393:Drivers/lvgl/src/misc/lv_txt.c ****         }
 1593              		.loc 1 393 20 view .LVU516
 1594              	.LBE55:
 1595              	.LBE60:
 1596              	.LBE69:
 1597              	.LBE79:
 1598              	.LBE91:
 1599              	.LBB92:
 295:Drivers/lvgl/src/misc/lv_txt.c ****             /*Just find the new line chars or string ends by incrementing `i`*/
 1600              		.loc 1 295 53 is_stmt 1 discriminator 1 view .LVU517
 1601 0220 0A2B     		cmp	r3, #10
 1602 0222 25D0     		beq	.L114
 1603 0224 0246     		mov	r2, r0
 295:Drivers/lvgl/src/misc/lv_txt.c ****             /*Just find the new line chars or string ends by incrementing `i`*/
 1604              		.loc 1 295 15 is_stmt 0 view .LVU518
 1605 0226 4FF0000B 		mov	fp, #0
 1606 022a 06E0     		b	.L78
 1607              	.LVL138:
 1608              	.L187:
 295:Drivers/lvgl/src/misc/lv_txt.c ****             /*Just find the new line chars or string ends by incrementing `i`*/
 1609              		.loc 1 295 53 discriminator 4 view .LVU519
 1610 022c 4BB1     		cbz	r3, .L81
 295:Drivers/lvgl/src/misc/lv_txt.c ****             /*Just find the new line chars or string ends by incrementing `i`*/
 1611              		.loc 1 295 23 discriminator 1 view .LVU520
 1612 022e 12F8013F 		ldrb	r3, [r2, #1]!	@ zero_extendqisi2
 295:Drivers/lvgl/src/misc/lv_txt.c ****             /*Just find the new line chars or string ends by incrementing `i`*/
 1613              		.loc 1 295 53 discriminator 1 view .LVU521
 1614 0232 0A2B     		cmp	r3, #10
 295:Drivers/lvgl/src/misc/lv_txt.c ****             /*Just find the new line chars or string ends by incrementing `i`*/
 1615              		.loc 1 295 73 discriminator 5 view .LVU522
 1616 0234 0BF1010B 		add	fp, fp, #1
 1617              	.LVL139:
 295:Drivers/lvgl/src/misc/lv_txt.c ****             /*Just find the new line chars or string ends by incrementing `i`*/
 1618              		.loc 1 295 53 is_stmt 1 discriminator 1 view .LVU523
 1619 0238 01D0     		beq	.L79
 1620              	.LVL140:
 1621              	.L78:
 297:Drivers/lvgl/src/misc/lv_txt.c ****         if(txt[i] != '\0') i++;    /*To go beyond `\n`*/
 1622              		.loc 1 297 9 view .LVU524
 295:Drivers/lvgl/src/misc/lv_txt.c ****             /*Just find the new line chars or string ends by incrementing `i`*/
 1623              		.loc 1 295 73 discriminator 5 view .LVU525
 295:Drivers/lvgl/src/misc/lv_txt.c ****             /*Just find the new line chars or string ends by incrementing `i`*/
 1624              		.loc 1 295 35 is_stmt 0 discriminator 3 view .LVU526
 1625 023a 0D2B     		cmp	r3, #13
 1626 023c F6D1     		bne	.L187
 1627              	.L79:
 298:Drivers/lvgl/src/misc/lv_txt.c ****         if(used_width) *used_width = -1;
 1628              		.loc 1 298 9 is_stmt 1 view .LVU527
 298:Drivers/lvgl/src/misc/lv_txt.c ****         if(used_width) *used_width = -1;
 1629              		.loc 1 298 29 is_stmt 0 discriminator 1 view .LVU528
 1630 023e 0BF1010B 		add	fp, fp, #1
 1631              	.LVL141:
 1632              	.L81:
 299:Drivers/lvgl/src/misc/lv_txt.c ****         return i;
 1633              		.loc 1 299 9 is_stmt 1 view .LVU529
 299:Drivers/lvgl/src/misc/lv_txt.c ****         return i;
 1634              		.loc 1 299 11 is_stmt 0 view .LVU530
ARM GAS  /var/folders/lp/x54gwt890xv47sdkqj1k04q40000gn/T//ccf0N3ow.s 			page 53


 1635 0242 002C     		cmp	r4, #0
 1636 0244 3FF470AF 		beq	.L75
 299:Drivers/lvgl/src/misc/lv_txt.c ****         return i;
 1637              		.loc 1 299 24 is_stmt 1 discriminator 1 view .LVU531
 299:Drivers/lvgl/src/misc/lv_txt.c ****         return i;
 1638              		.loc 1 299 36 is_stmt 0 discriminator 1 view .LVU532
 1639 0248 4FF6FF73 		movw	r3, #65535
 1640              	.LBE92:
 341:Drivers/lvgl/src/misc/lv_txt.c **** 
 1641              		.loc 1 341 1 view .LVU533
 1642 024c 5846     		mov	r0, fp
 1643              	.LVL142:
 1644              	.LBB93:
 299:Drivers/lvgl/src/misc/lv_txt.c ****         return i;
 1645              		.loc 1 299 36 discriminator 1 view .LVU534
 1646 024e 2380     		strh	r3, [r4]	@ movhi
 1647              	.LBE93:
 341:Drivers/lvgl/src/misc/lv_txt.c **** 
 1648              		.loc 1 341 1 view .LVU535
 1649 0250 11B0     		add	sp, sp, #68
 1650              		.cfi_remember_state
 1651              		.cfi_def_cfa_offset 36
 1652              	.LVL143:
 341:Drivers/lvgl/src/misc/lv_txt.c **** 
 1653              		.loc 1 341 1 view .LVU536
 1654              		@ sp needed
 1655 0252 BDE8F08F 		pop	{r4, r5, r6, r7, r8, r9, r10, fp, pc}
 1656              	.LVL144:
 1657              	.L185:
 1658              		.cfi_restore_state
 340:Drivers/lvgl/src/misc/lv_txt.c **** }
 1659              		.loc 1 340 12 view .LVU537
 1660 0256 DDF834B0 		ldr	fp, [sp, #52]
 341:Drivers/lvgl/src/misc/lv_txt.c **** 
 1661              		.loc 1 341 1 view .LVU538
 1662 025a 5846     		mov	r0, fp
 1663              	.LVL145:
 341:Drivers/lvgl/src/misc/lv_txt.c **** 
 1664              		.loc 1 341 1 view .LVU539
 1665 025c 11B0     		add	sp, sp, #68
 1666              		.cfi_remember_state
 1667              		.cfi_def_cfa_offset 36
 1668              		@ sp needed
 1669 025e BDE8F08F 		pop	{r4, r5, r6, r7, r8, r9, r10, fp, pc}
 1670              	.LVL146:
 1671              	.L186:
 1672              		.cfi_restore_state
 1673              	.LBB94:
 1674              	.LBB80:
 1675              	.LBB70:
 240:Drivers/lvgl/src/misc/lv_txt.c ****         return i;
 1676              		.loc 1 240 45 discriminator 3 view .LVU540
 1677 0262 0A2B     		cmp	r3, #10
 1678 0264 D7D1     		bne	.L123
 1679              	.L175:
 240:Drivers/lvgl/src/misc/lv_txt.c ****         return i;
 1680              		.loc 1 240 72 discriminator 4 view .LVU541
ARM GAS  /var/folders/lp/x54gwt890xv47sdkqj1k04q40000gn/T//ccf0N3ow.s 			page 54


 1681 0266 DDF838A0 		ldr	r10, [sp, #56]
 1682 026a 7AE7     		b	.L105
 1683              	.LVL147:
 1684              	.L115:
 193:Drivers/lvgl/src/misc/lv_txt.c ****         letter_next = _lv_txt_encoded_next(txt, &i_next_next);
 1685              		.loc 1 193 18 view .LVU542
 1686 026c 8C46     		mov	ip, r1
 1687              	.LVL148:
 240:Drivers/lvgl/src/misc/lv_txt.c ****         return i;
 1688              		.loc 1 240 70 is_stmt 1 discriminator 4 view .LVU543
 240:Drivers/lvgl/src/misc/lv_txt.c ****         return i;
 1689              		.loc 1 240 70 is_stmt 0 discriminator 4 view .LVU544
 1690 026e 78E7     		b	.L105
 1691              	.LVL149:
 1692              	.L114:
 240:Drivers/lvgl/src/misc/lv_txt.c ****         return i;
 1693              		.loc 1 240 70 discriminator 4 view .LVU545
 1694              	.LBE70:
 1695              	.LBE80:
 1696              	.LBE94:
 1697              	.LBB95:
 295:Drivers/lvgl/src/misc/lv_txt.c ****             /*Just find the new line chars or string ends by incrementing `i`*/
 1698              		.loc 1 295 53 discriminator 1 view .LVU546
 1699 0270 4FF0010B 		mov	fp, #1
 298:Drivers/lvgl/src/misc/lv_txt.c ****         if(used_width) *used_width = -1;
 1700              		.loc 1 298 28 is_stmt 1 discriminator 1 view .LVU547
 1701              	.LVL150:
 298:Drivers/lvgl/src/misc/lv_txt.c ****         if(used_width) *used_width = -1;
 1702              		.loc 1 298 28 is_stmt 0 discriminator 1 view .LVU548
 1703 0274 E5E7     		b	.L81
 1704              	.L189:
 1705 0276 00BF     		.align	2
 1706              	.L188:
 1707 0278 00000000 		.word	_lv_txt_encoded_next
 1708 027c 00000000 		.word	.LC0
 1709              	.LBE95:
 1710              		.cfi_endproc
 1711              	.LFE73:
 1713              		.section	.text._lv_txt_get_next_line,"ax",%progbits
 1714              		.align	1
 1715              		.p2align 2,,3
 1716              		.global	_lv_txt_get_next_line
 1717              		.syntax unified
 1718              		.thumb
 1719              		.thumb_func
 1721              	_lv_txt_get_next_line:
 1722              	.LVL151:
 1723              	.LFB57:
 282:Drivers/lvgl/src/misc/lv_txt.c ****     if(used_width) *used_width = 0;
 1724              		.loc 1 282 1 is_stmt 1 view -0
 1725              		.cfi_startproc
 1726              		@ args = 8, pretend = 0, frame = 0
 1727              		@ frame_needed = 0, uses_anonymous_args = 0
 1728              		@ link register save eliminated.
 283:Drivers/lvgl/src/misc/lv_txt.c **** 
 1729              		.loc 1 283 5 view .LVU550
 282:Drivers/lvgl/src/misc/lv_txt.c ****     if(used_width) *used_width = 0;
ARM GAS  /var/folders/lp/x54gwt890xv47sdkqj1k04q40000gn/T//ccf0N3ow.s 			page 55


 1730              		.loc 1 282 1 is_stmt 0 view .LVU551
 1731 0000 70B4     		push	{r4, r5, r6}
 1732              		.cfi_def_cfa_offset 12
 1733              		.cfi_offset 4, -12
 1734              		.cfi_offset 5, -8
 1735              		.cfi_offset 6, -4
 282:Drivers/lvgl/src/misc/lv_txt.c ****     if(used_width) *used_width = 0;
 1736              		.loc 1 282 1 view .LVU552
 1737 0002 039C     		ldr	r4, [sp, #12]
 1738 0004 9DF81060 		ldrb	r6, [sp, #16]	@ zero_extendqisi2
 283:Drivers/lvgl/src/misc/lv_txt.c **** 
 1739              		.loc 1 283 7 view .LVU553
 1740 0008 0CB1     		cbz	r4, .L191
 283:Drivers/lvgl/src/misc/lv_txt.c **** 
 1741              		.loc 1 283 20 is_stmt 1 discriminator 1 view .LVU554
 283:Drivers/lvgl/src/misc/lv_txt.c **** 
 1742              		.loc 1 283 32 is_stmt 0 discriminator 1 view .LVU555
 1743 000a 0025     		movs	r5, #0
 1744 000c 2580     		strh	r5, [r4]	@ movhi
 1745              	.L191:
 285:Drivers/lvgl/src/misc/lv_txt.c ****     if(txt[0] == '\0') return 0;
 1746              		.loc 1 285 5 is_stmt 1 view .LVU556
 285:Drivers/lvgl/src/misc/lv_txt.c ****     if(txt[0] == '\0') return 0;
 1747              		.loc 1 285 7 is_stmt 0 view .LVU557
 1748 000e 38B1     		cbz	r0, .L190
 286:Drivers/lvgl/src/misc/lv_txt.c ****     if(font == NULL) return 0;
 1749              		.loc 1 286 5 is_stmt 1 view .LVU558
 286:Drivers/lvgl/src/misc/lv_txt.c ****     if(font == NULL) return 0;
 1750              		.loc 1 286 7 is_stmt 0 view .LVU559
 1751 0010 0578     		ldrb	r5, [r0]	@ zero_extendqisi2
 1752 0012 2DB1     		cbz	r5, .L190
 287:Drivers/lvgl/src/misc/lv_txt.c **** 
 1753              		.loc 1 287 5 is_stmt 1 view .LVU560
 287:Drivers/lvgl/src/misc/lv_txt.c **** 
 1754              		.loc 1 287 7 is_stmt 0 view .LVU561
 1755 0014 21B1     		cbz	r1, .L190
 1756 0016 CDE90346 		strd	r4, r6, [sp, #12]
 1757              	.LVL152:
 341:Drivers/lvgl/src/misc/lv_txt.c **** 
 1758              		.loc 1 341 1 view .LVU562
 1759 001a 70BC     		pop	{r4, r5, r6}
 1760              		.cfi_remember_state
 1761              		.cfi_restore 6
 1762              		.cfi_restore 5
 1763              		.cfi_restore 4
 1764              		.cfi_def_cfa_offset 0
 1765 001c FFF7FEBF 		b	_lv_txt_get_next_line.part.0
 1766              	.LVL153:
 1767              	.L190:
 1768              		.cfi_restore_state
 341:Drivers/lvgl/src/misc/lv_txt.c **** 
 1769              		.loc 1 341 1 view .LVU563
 1770 0020 0020     		movs	r0, #0
 1771              	.LVL154:
 341:Drivers/lvgl/src/misc/lv_txt.c **** 
 1772              		.loc 1 341 1 view .LVU564
 1773 0022 70BC     		pop	{r4, r5, r6}
ARM GAS  /var/folders/lp/x54gwt890xv47sdkqj1k04q40000gn/T//ccf0N3ow.s 			page 56


 1774              		.cfi_restore 6
 1775              		.cfi_restore 5
 1776              		.cfi_restore 4
 1777              		.cfi_def_cfa_offset 0
 1778              	.LVL155:
 341:Drivers/lvgl/src/misc/lv_txt.c **** 
 1779              		.loc 1 341 1 view .LVU565
 1780 0024 7047     		bx	lr
 1781              		.cfi_endproc
 1782              	.LFE57:
 1784 0026 00BF     		.section	.text.lv_txt_get_width,"ax",%progbits
 1785              		.align	1
 1786              		.p2align 2,,3
 1787              		.global	lv_txt_get_width
 1788              		.syntax unified
 1789              		.thumb
 1790              		.thumb_func
 1792              	lv_txt_get_width:
 1793              	.LVL156:
 1794              	.LFB58:
 345:Drivers/lvgl/src/misc/lv_txt.c ****     if(txt == NULL) return 0;
 1795              		.loc 1 345 1 is_stmt 1 view -0
 1796              		.cfi_startproc
 1797              		@ args = 4, pretend = 0, frame = 16
 1798              		@ frame_needed = 0, uses_anonymous_args = 0
 346:Drivers/lvgl/src/misc/lv_txt.c ****     if(font == NULL) return 0;
 1799              		.loc 1 346 5 view .LVU567
 345:Drivers/lvgl/src/misc/lv_txt.c ****     if(txt == NULL) return 0;
 1800              		.loc 1 345 1 is_stmt 0 view .LVU568
 1801 0000 2DE9F04F 		push	{r4, r5, r6, r7, r8, r9, r10, fp, lr}
 1802              		.cfi_def_cfa_offset 36
 1803              		.cfi_offset 4, -36
 1804              		.cfi_offset 5, -32
 1805              		.cfi_offset 6, -28
 1806              		.cfi_offset 7, -24
 1807              		.cfi_offset 8, -20
 1808              		.cfi_offset 9, -16
 1809              		.cfi_offset 10, -12
 1810              		.cfi_offset 11, -8
 1811              		.cfi_offset 14, -4
 1812 0004 85B0     		sub	sp, sp, #20
 1813              		.cfi_def_cfa_offset 56
 345:Drivers/lvgl/src/misc/lv_txt.c ****     if(txt == NULL) return 0;
 1814              		.loc 1 345 1 view .LVU569
 1815 0006 9DF83890 		ldrb	r9, [sp, #56]	@ zero_extendqisi2
 346:Drivers/lvgl/src/misc/lv_txt.c ****     if(font == NULL) return 0;
 1816              		.loc 1 346 7 view .LVU570
 1817 000a 0028     		cmp	r0, #0
 1818 000c 49D0     		beq	.L206
 347:Drivers/lvgl/src/misc/lv_txt.c ****     if(txt[0] == '\0') return 0;
 1819              		.loc 1 347 5 is_stmt 1 view .LVU571
 1820 000e 1746     		mov	r7, r2
 347:Drivers/lvgl/src/misc/lv_txt.c ****     if(txt[0] == '\0') return 0;
 1821              		.loc 1 347 7 is_stmt 0 view .LVU572
 1822 0010 002A     		cmp	r2, #0
 1823 0012 46D0     		beq	.L206
 348:Drivers/lvgl/src/misc/lv_txt.c **** 
ARM GAS  /var/folders/lp/x54gwt890xv47sdkqj1k04q40000gn/T//ccf0N3ow.s 			page 57


 1824              		.loc 1 348 5 is_stmt 1 view .LVU573
 1825 0014 9846     		mov	r8, r3
 348:Drivers/lvgl/src/misc/lv_txt.c **** 
 1826              		.loc 1 348 7 is_stmt 0 view .LVU574
 1827 0016 0378     		ldrb	r3, [r0]	@ zero_extendqisi2
 1828              	.LVL157:
 348:Drivers/lvgl/src/misc/lv_txt.c **** 
 1829              		.loc 1 348 7 view .LVU575
 1830 0018 0446     		mov	r4, r0
 1831 001a 002B     		cmp	r3, #0
 1832 001c 41D0     		beq	.L206
 350:Drivers/lvgl/src/misc/lv_txt.c ****     lv_coord_t width             = 0;
 1833              		.loc 1 350 5 is_stmt 1 view .LVU576
 350:Drivers/lvgl/src/misc/lv_txt.c ****     lv_coord_t width             = 0;
 1834              		.loc 1 350 14 is_stmt 0 view .LVU577
 1835 001e 0023     		movs	r3, #0
 1836 0020 0E46     		mov	r6, r1
 1837 0022 0393     		str	r3, [sp, #12]
 351:Drivers/lvgl/src/misc/lv_txt.c ****     lv_text_cmd_state_t cmd_state = LV_TEXT_CMD_STATE_WAIT;
 1838              		.loc 1 351 5 is_stmt 1 view .LVU578
 1839              	.LVL158:
 352:Drivers/lvgl/src/misc/lv_txt.c **** 
 1840              		.loc 1 352 5 view .LVU579
 354:Drivers/lvgl/src/misc/lv_txt.c ****         while(i < length) {
 1841              		.loc 1 354 5 view .LVU580
 354:Drivers/lvgl/src/misc/lv_txt.c ****         while(i < length) {
 1842              		.loc 1 354 7 is_stmt 0 view .LVU581
 1843 0024 0029     		cmp	r1, #0
 1844 0026 3CD0     		beq	.L206
 1845 0028 DFF8BCB0 		ldr	fp, .L235
 352:Drivers/lvgl/src/misc/lv_txt.c **** 
 1846              		.loc 1 352 25 view .LVU582
 1847 002c 9A46     		mov	r10, r3
 1848 002e 09F00109 		and	r9, r9, #1
 351:Drivers/lvgl/src/misc/lv_txt.c ****     lv_text_cmd_state_t cmd_state = LV_TEXT_CMD_STATE_WAIT;
 1849              		.loc 1 351 16 view .LVU583
 1850 0032 1D46     		mov	r5, r3
 1851 0034 13E0     		b	.L212
 1852              	.LVL159:
 1853              	.L234:
 1854              	.LBB101:
 360:Drivers/lvgl/src/misc/lv_txt.c ****                 if(_lv_txt_is_cmd(&cmd_state, letter) != false) {
 1855              		.loc 1 360 13 is_stmt 1 view .LVU584
 360:Drivers/lvgl/src/misc/lv_txt.c ****                 if(_lv_txt_is_cmd(&cmd_state, letter) != false) {
 1856              		.loc 1 360 15 is_stmt 0 view .LVU585
 1857 0036 B9F1000F 		cmp	r9, #0
 1858 003a 37D0     		beq	.L213
 361:Drivers/lvgl/src/misc/lv_txt.c ****                     continue;
 1859              		.loc 1 361 17 is_stmt 1 view .LVU586
 1860              	.LVL160:
 1861              	.LBB102:
 1862              	.LBI102:
 382:Drivers/lvgl/src/misc/lv_txt.c **** {
 1863              		.loc 1 382 6 view .LVU587
 1864              	.LBB103:
 384:Drivers/lvgl/src/misc/lv_txt.c **** 
 1865              		.loc 1 384 5 view .LVU588
ARM GAS  /var/folders/lp/x54gwt890xv47sdkqj1k04q40000gn/T//ccf0N3ow.s 			page 58


 386:Drivers/lvgl/src/misc/lv_txt.c ****         if(*state == LV_TEXT_CMD_STATE_WAIT) { /*Start char*/
 1866              		.loc 1 386 5 view .LVU589
 403:Drivers/lvgl/src/misc/lv_txt.c ****         if(c == ' ') {
 1867              		.loc 1 403 5 view .LVU590
 403:Drivers/lvgl/src/misc/lv_txt.c ****         if(c == ' ') {
 1868              		.loc 1 403 7 is_stmt 0 view .LVU591
 1869 003c BAF1010F 		cmp	r10, #1
 1870 0040 44D0     		beq	.L211
 403:Drivers/lvgl/src/misc/lv_txt.c ****         if(c == ' ') {
 1871              		.loc 1 403 7 view .LVU592
 1872              	.LBE103:
 1873              	.LBE102:
 1874              	.LBB107:
 1875              	.LBB108:
 496:Drivers/lvgl/src/misc/lv_txt.c **** }
 1876              		.loc 1 496 77 discriminator 2 view .LVU593
 1877 0042 0246     		mov	r2, r0
 1878              	.LVL161:
 1879              	.L208:
 496:Drivers/lvgl/src/misc/lv_txt.c **** }
 1880              		.loc 1 496 77 discriminator 2 view .LVU594
 1881              	.LBE108:
 1882              	.LBE107:
 366:Drivers/lvgl/src/misc/lv_txt.c ****             if(char_width > 0) {
 1883              		.loc 1 366 13 is_stmt 1 view .LVU595
 366:Drivers/lvgl/src/misc/lv_txt.c ****             if(char_width > 0) {
 1884              		.loc 1 366 37 is_stmt 0 view .LVU596
 1885 0044 1946     		mov	r1, r3
 1886 0046 3846     		mov	r0, r7
 1887 0048 FFF7FEFF 		bl	lv_font_get_glyph_width
 1888              	.LVL162:
 367:Drivers/lvgl/src/misc/lv_txt.c ****                 width += char_width;
 1889              		.loc 1 367 13 is_stmt 1 view .LVU597
 367:Drivers/lvgl/src/misc/lv_txt.c ****                 width += char_width;
 1890              		.loc 1 367 15 is_stmt 0 view .LVU598
 1891 004c 03B2     		sxth	r3, r0
 1892 004e 002B     		cmp	r3, #0
 1893 0050 02DD     		ble	.L209
 368:Drivers/lvgl/src/misc/lv_txt.c ****                 width += letter_space;
 1894              		.loc 1 368 17 is_stmt 1 view .LVU599
 1895              	.LVL163:
 369:Drivers/lvgl/src/misc/lv_txt.c ****             }
 1896              		.loc 1 369 17 view .LVU600
 369:Drivers/lvgl/src/misc/lv_txt.c ****             }
 1897              		.loc 1 369 23 is_stmt 0 view .LVU601
 1898 0052 4544     		add	r5, r5, r8
 1899              	.LVL164:
 369:Drivers/lvgl/src/misc/lv_txt.c ****             }
 1900              		.loc 1 369 23 view .LVU602
 1901 0054 2844     		add	r0, r0, r5
 1902              	.LVL165:
 369:Drivers/lvgl/src/misc/lv_txt.c ****             }
 1903              		.loc 1 369 23 view .LVU603
 1904 0056 05B2     		sxth	r5, r0
 1905              	.LVL166:
 1906              	.L209:
 369:Drivers/lvgl/src/misc/lv_txt.c ****             }
ARM GAS  /var/folders/lp/x54gwt890xv47sdkqj1k04q40000gn/T//ccf0N3ow.s 			page 59


 1907              		.loc 1 369 23 view .LVU604
 1908              	.LBE101:
 355:Drivers/lvgl/src/misc/lv_txt.c ****             uint32_t letter;
 1909              		.loc 1 355 17 is_stmt 1 view .LVU605
 1910 0058 039B     		ldr	r3, [sp, #12]
 1911 005a B342     		cmp	r3, r6
 1912 005c 2CD2     		bcs	.L233
 1913              	.LVL167:
 1914              	.L212:
 1915              	.LBB120:
 356:Drivers/lvgl/src/misc/lv_txt.c ****             uint32_t letter_next;
 1916              		.loc 1 356 13 view .LVU606
 357:Drivers/lvgl/src/misc/lv_txt.c ****             _lv_txt_encoded_letter_next_2(txt, &letter, &letter_next, &i);
 1917              		.loc 1 357 13 view .LVU607
 358:Drivers/lvgl/src/misc/lv_txt.c **** 
 1918              		.loc 1 358 13 view .LVU608
 1919              	.LBB113:
 1920              	.LBI107:
 493:Drivers/lvgl/src/misc/lv_txt.c **** {
 1921              		.loc 1 493 6 view .LVU609
 1922              	.LBB109:
 495:Drivers/lvgl/src/misc/lv_txt.c ****     *letter_next = *letter != '\0' ? _lv_txt_encoded_next(&txt[*ofs], NULL) : 0;
 1923              		.loc 1 495 5 view .LVU610
 495:Drivers/lvgl/src/misc/lv_txt.c ****     *letter_next = *letter != '\0' ? _lv_txt_encoded_next(&txt[*ofs], NULL) : 0;
 1924              		.loc 1 495 15 is_stmt 0 view .LVU611
 1925 005e DBF80030 		ldr	r3, [fp]
 1926 0062 03A9     		add	r1, sp, #12
 1927              	.LVL168:
 495:Drivers/lvgl/src/misc/lv_txt.c ****     *letter_next = *letter != '\0' ? _lv_txt_encoded_next(&txt[*ofs], NULL) : 0;
 1928              		.loc 1 495 15 view .LVU612
 1929 0064 2046     		mov	r0, r4
 1930 0066 9847     		blx	r3
 1931              	.LVL169:
 496:Drivers/lvgl/src/misc/lv_txt.c **** }
 1932              		.loc 1 496 5 is_stmt 1 view .LVU613
 496:Drivers/lvgl/src/misc/lv_txt.c **** }
 1933              		.loc 1 496 77 is_stmt 0 view .LVU614
 1934 0068 0346     		mov	r3, r0
 1935 006a 0028     		cmp	r0, #0
 1936 006c E3D0     		beq	.L234
 1937 006e 0190     		str	r0, [sp, #4]
 496:Drivers/lvgl/src/misc/lv_txt.c **** }
 1938              		.loc 1 496 38 discriminator 1 view .LVU615
 1939 0070 0398     		ldr	r0, [sp, #12]
 1940              	.LVL170:
 496:Drivers/lvgl/src/misc/lv_txt.c **** }
 1941              		.loc 1 496 38 discriminator 1 view .LVU616
 1942 0072 DBF80020 		ldr	r2, [fp]
 1943 0076 2044     		add	r0, r0, r4
 1944 0078 0021     		movs	r1, #0
 1945 007a 9047     		blx	r2
 1946              	.LVL171:
 496:Drivers/lvgl/src/misc/lv_txt.c **** }
 1947              		.loc 1 496 38 discriminator 1 view .LVU617
 1948              	.LBE109:
 1949              	.LBE113:
 360:Drivers/lvgl/src/misc/lv_txt.c ****                 if(_lv_txt_is_cmd(&cmd_state, letter) != false) {
ARM GAS  /var/folders/lp/x54gwt890xv47sdkqj1k04q40000gn/T//ccf0N3ow.s 			page 60


 1950              		.loc 1 360 15 view .LVU618
 1951 007c 019B     		ldr	r3, [sp, #4]
 1952              	.LBB114:
 1953              	.LBB110:
 496:Drivers/lvgl/src/misc/lv_txt.c **** }
 1954              		.loc 1 496 38 discriminator 1 view .LVU619
 1955 007e 0246     		mov	r2, r0
 1956              	.LVL172:
 496:Drivers/lvgl/src/misc/lv_txt.c **** }
 1957              		.loc 1 496 38 discriminator 1 view .LVU620
 1958              	.LBE110:
 1959              	.LBE114:
 360:Drivers/lvgl/src/misc/lv_txt.c ****                 if(_lv_txt_is_cmd(&cmd_state, letter) != false) {
 1960              		.loc 1 360 13 is_stmt 1 view .LVU621
 360:Drivers/lvgl/src/misc/lv_txt.c ****                 if(_lv_txt_is_cmd(&cmd_state, letter) != false) {
 1961              		.loc 1 360 15 is_stmt 0 view .LVU622
 1962 0080 B9F1000F 		cmp	r9, #0
 1963 0084 DED0     		beq	.L208
 361:Drivers/lvgl/src/misc/lv_txt.c ****                     continue;
 1964              		.loc 1 361 17 is_stmt 1 view .LVU623
 1965              	.LVL173:
 1966              	.LBB115:
 382:Drivers/lvgl/src/misc/lv_txt.c **** {
 1967              		.loc 1 382 6 view .LVU624
 1968              	.LBB104:
 384:Drivers/lvgl/src/misc/lv_txt.c **** 
 1969              		.loc 1 384 5 view .LVU625
 386:Drivers/lvgl/src/misc/lv_txt.c ****         if(*state == LV_TEXT_CMD_STATE_WAIT) { /*Start char*/
 1970              		.loc 1 386 5 view .LVU626
 386:Drivers/lvgl/src/misc/lv_txt.c ****         if(*state == LV_TEXT_CMD_STATE_WAIT) { /*Start char*/
 1971              		.loc 1 386 7 is_stmt 0 view .LVU627
 1972 0086 232B     		cmp	r3, #35
 1973 0088 23D1     		bne	.L210
 387:Drivers/lvgl/src/misc/lv_txt.c ****             *state = LV_TEXT_CMD_STATE_PAR;
 1974              		.loc 1 387 9 is_stmt 1 view .LVU628
 387:Drivers/lvgl/src/misc/lv_txt.c ****             *state = LV_TEXT_CMD_STATE_PAR;
 1975              		.loc 1 387 11 is_stmt 0 view .LVU629
 1976 008a BAF1000F 		cmp	r10, #0
 1977 008e 0FD0     		beq	.L215
 392:Drivers/lvgl/src/misc/lv_txt.c ****             *state = LV_TEXT_CMD_STATE_WAIT;
 1978              		.loc 1 392 14 is_stmt 1 view .LVU630
 392:Drivers/lvgl/src/misc/lv_txt.c ****             *state = LV_TEXT_CMD_STATE_WAIT;
 1979              		.loc 1 392 16 is_stmt 0 view .LVU631
 1980 0090 BAF1010F 		cmp	r10, #1
 1981 0094 25D0     		beq	.L216
 396:Drivers/lvgl/src/misc/lv_txt.c ****             *state = LV_TEXT_CMD_STATE_WAIT;
 1982              		.loc 1 396 14 is_stmt 1 view .LVU632
 396:Drivers/lvgl/src/misc/lv_txt.c ****             *state = LV_TEXT_CMD_STATE_WAIT;
 1983              		.loc 1 396 16 is_stmt 0 view .LVU633
 1984 0096 BAF1020F 		cmp	r10, #2
 1985 009a D3D1     		bne	.L208
 397:Drivers/lvgl/src/misc/lv_txt.c ****             ret    = true;
 1986              		.loc 1 397 20 view .LVU634
 1987 009c 4FF0000A 		mov	r10, #0
 1988              	.LVL174:
 397:Drivers/lvgl/src/misc/lv_txt.c ****             ret    = true;
 1989              		.loc 1 397 20 view .LVU635
ARM GAS  /var/folders/lp/x54gwt890xv47sdkqj1k04q40000gn/T//ccf0N3ow.s 			page 61


 1990 00a0 DAE7     		b	.L209
 1991              	.LVL175:
 1992              	.L206:
 397:Drivers/lvgl/src/misc/lv_txt.c ****             ret    = true;
 1993              		.loc 1 397 20 view .LVU636
 1994              	.LBE104:
 1995              	.LBE115:
 1996              	.LBE120:
 346:Drivers/lvgl/src/misc/lv_txt.c ****     if(font == NULL) return 0;
 1997              		.loc 1 346 28 discriminator 1 view .LVU637
 1998 00a2 0025     		movs	r5, #0
 380:Drivers/lvgl/src/misc/lv_txt.c **** 
 1999              		.loc 1 380 1 view .LVU638
 2000 00a4 2846     		mov	r0, r5
 2001              	.LVL176:
 380:Drivers/lvgl/src/misc/lv_txt.c **** 
 2002              		.loc 1 380 1 view .LVU639
 2003 00a6 05B0     		add	sp, sp, #20
 2004              		.cfi_remember_state
 2005              		.cfi_def_cfa_offset 36
 2006              		@ sp needed
 2007 00a8 BDE8F08F 		pop	{r4, r5, r6, r7, r8, r9, r10, fp, pc}
 2008              	.LVL177:
 2009              	.L213:
 2010              		.cfi_restore_state
 2011              	.LBB121:
 2012              	.LBB116:
 2013              	.LBB111:
 496:Drivers/lvgl/src/misc/lv_txt.c **** }
 2014              		.loc 1 496 77 discriminator 2 view .LVU640
 2015 00ac 4A46     		mov	r2, r9
 2016 00ae C9E7     		b	.L208
 2017              	.LVL178:
 2018              	.L215:
 496:Drivers/lvgl/src/misc/lv_txt.c **** }
 2019              		.loc 1 496 77 discriminator 2 view .LVU641
 2020              	.LBE111:
 2021              	.LBE116:
 2022              	.LBE121:
 355:Drivers/lvgl/src/misc/lv_txt.c ****             uint32_t letter;
 2023              		.loc 1 355 17 view .LVU642
 2024 00b0 039B     		ldr	r3, [sp, #12]
 2025              	.LVL179:
 355:Drivers/lvgl/src/misc/lv_txt.c ****             uint32_t letter;
 2026              		.loc 1 355 17 view .LVU643
 2027 00b2 B342     		cmp	r3, r6
 2028              	.LBB122:
 2029              	.LBB117:
 2030              	.LBB105:
 2031 00b4 CA46     		mov	r10, r9
 2032              	.LVL180:
 355:Drivers/lvgl/src/misc/lv_txt.c ****             uint32_t letter;
 2033              		.loc 1 355 17 view .LVU644
 2034              	.LBE105:
 2035              	.LBE117:
 2036              	.LBE122:
 355:Drivers/lvgl/src/misc/lv_txt.c ****             uint32_t letter;
ARM GAS  /var/folders/lp/x54gwt890xv47sdkqj1k04q40000gn/T//ccf0N3ow.s 			page 62


 2037              		.loc 1 355 17 is_stmt 1 view .LVU645
 2038 00b6 D2D3     		bcc	.L212
 2039              	.L233:
 373:Drivers/lvgl/src/misc/lv_txt.c ****             width -= letter_space; /*Trim the last letter space. Important if the text is center
 2040              		.loc 1 373 9 view .LVU646
 374:Drivers/lvgl/src/misc/lv_txt.c ****                                       aligned*/
 2041              		.loc 1 374 13 view .LVU647
 373:Drivers/lvgl/src/misc/lv_txt.c ****             width -= letter_space; /*Trim the last letter space. Important if the text is center
 2042              		.loc 1 373 11 is_stmt 0 view .LVU648
 2043 00b8 002D     		cmp	r5, #0
 374:Drivers/lvgl/src/misc/lv_txt.c ****                                       aligned*/
 2044              		.loc 1 374 19 view .LVU649
 2045 00ba C4BF     		itt	gt
 2046 00bc A5EB0808 		subgt	r8, r5, r8
 2047 00c0 0FFA88F5 		sxthgt	r5, r8
 2048              	.LVL181:
 380:Drivers/lvgl/src/misc/lv_txt.c **** 
 2049              		.loc 1 380 1 view .LVU650
 2050 00c4 2846     		mov	r0, r5
 2051 00c6 05B0     		add	sp, sp, #20
 2052              		.cfi_remember_state
 2053              		.cfi_def_cfa_offset 36
 2054              		@ sp needed
 2055 00c8 BDE8F08F 		pop	{r4, r5, r6, r7, r8, r9, r10, fp, pc}
 2056              	.LVL182:
 2057              	.L211:
 2058              		.cfi_restore_state
 2059              	.LBB123:
 2060              	.LBB118:
 2061              	.LBB112:
 496:Drivers/lvgl/src/misc/lv_txt.c **** }
 2062              		.loc 1 496 77 discriminator 2 view .LVU651
 2063 00cc 4FF0010A 		mov	r10, #1
 2064              	.LVL183:
 496:Drivers/lvgl/src/misc/lv_txt.c **** }
 2065              		.loc 1 496 77 discriminator 2 view .LVU652
 2066 00d0 C2E7     		b	.L209
 2067              	.LVL184:
 2068              	.L210:
 496:Drivers/lvgl/src/misc/lv_txt.c **** }
 2069              		.loc 1 496 77 discriminator 2 view .LVU653
 2070              	.LBE112:
 2071              	.LBE118:
 2072              	.LBB119:
 2073              	.LBB106:
 403:Drivers/lvgl/src/misc/lv_txt.c ****         if(c == ' ') {
 2074              		.loc 1 403 5 is_stmt 1 view .LVU654
 403:Drivers/lvgl/src/misc/lv_txt.c ****         if(c == ' ') {
 2075              		.loc 1 403 7 is_stmt 0 view .LVU655
 2076 00d2 BAF1010F 		cmp	r10, #1
 2077 00d6 B5D1     		bne	.L208
 404:Drivers/lvgl/src/misc/lv_txt.c ****             *state = LV_TEXT_CMD_STATE_IN; /*After the parameter the text is in the command*/
 2078              		.loc 1 404 9 is_stmt 1 view .LVU656
 404:Drivers/lvgl/src/misc/lv_txt.c ****             *state = LV_TEXT_CMD_STATE_IN; /*After the parameter the text is in the command*/
 2079              		.loc 1 404 11 is_stmt 0 view .LVU657
 2080 00d8 202B     		cmp	r3, #32
 2081 00da F7D1     		bne	.L211
ARM GAS  /var/folders/lp/x54gwt890xv47sdkqj1k04q40000gn/T//ccf0N3ow.s 			page 63


 405:Drivers/lvgl/src/misc/lv_txt.c ****         }
 2082              		.loc 1 405 20 view .LVU658
 2083 00dc 4FF0020A 		mov	r10, #2
 2084              	.LVL185:
 405:Drivers/lvgl/src/misc/lv_txt.c ****         }
 2085              		.loc 1 405 20 view .LVU659
 2086 00e0 BAE7     		b	.L209
 2087              	.LVL186:
 2088              	.L216:
 393:Drivers/lvgl/src/misc/lv_txt.c ****         }
 2089              		.loc 1 393 20 view .LVU660
 2090 00e2 4FF0000A 		mov	r10, #0
 2091              	.LVL187:
 393:Drivers/lvgl/src/misc/lv_txt.c ****         }
 2092              		.loc 1 393 20 view .LVU661
 2093 00e6 ADE7     		b	.L208
 2094              	.L236:
 2095              		.align	2
 2096              	.L235:
 2097 00e8 00000000 		.word	_lv_txt_encoded_next
 2098              	.LBE106:
 2099              	.LBE119:
 2100              	.LBE123:
 2101              		.cfi_endproc
 2102              	.LFE58:
 2104              		.section	.text.lv_txt_get_size,"ax",%progbits
 2105              		.align	1
 2106              		.p2align 2,,3
 2107              		.global	lv_txt_get_size
 2108              		.syntax unified
 2109              		.thumb
 2110              		.thumb_func
 2112              	lv_txt_get_size:
 2113              	.LVL188:
 2114              	.LFB55:
  93:Drivers/lvgl/src/misc/lv_txt.c ****     size_res->x = 0;
 2115              		.loc 1 93 1 is_stmt 1 view -0
 2116              		.cfi_startproc
 2117              		@ args = 12, pretend = 0, frame = 16
 2118              		@ frame_needed = 0, uses_anonymous_args = 0
  94:Drivers/lvgl/src/misc/lv_txt.c ****     size_res->y = 0;
 2119              		.loc 1 94 5 view .LVU663
  95:Drivers/lvgl/src/misc/lv_txt.c **** 
 2120              		.loc 1 95 5 view .LVU664
  93:Drivers/lvgl/src/misc/lv_txt.c ****     size_res->x = 0;
 2121              		.loc 1 93 1 is_stmt 0 view .LVU665
 2122 0000 2DE9F04F 		push	{r4, r5, r6, r7, r8, r9, r10, fp, lr}
 2123              		.cfi_def_cfa_offset 36
 2124              		.cfi_offset 4, -36
 2125              		.cfi_offset 5, -32
 2126              		.cfi_offset 6, -28
 2127              		.cfi_offset 7, -24
 2128              		.cfi_offset 8, -20
 2129              		.cfi_offset 9, -16
 2130              		.cfi_offset 10, -12
 2131              		.cfi_offset 11, -8
 2132              		.cfi_offset 14, -4
ARM GAS  /var/folders/lp/x54gwt890xv47sdkqj1k04q40000gn/T//ccf0N3ow.s 			page 64


 2133 0004 87B0     		sub	sp, sp, #28
 2134              		.cfi_def_cfa_offset 64
  94:Drivers/lvgl/src/misc/lv_txt.c ****     size_res->y = 0;
 2135              		.loc 1 94 17 view .LVU666
 2136 0006 0025     		movs	r5, #0
  93:Drivers/lvgl/src/misc/lv_txt.c ****     size_res->x = 0;
 2137              		.loc 1 93 1 view .LVU667
 2138 0008 9B46     		mov	fp, r3
 2139 000a BDF94060 		ldrsh	r6, [sp, #64]
 2140 000e BDF94430 		ldrsh	r3, [sp, #68]
 2141              	.LVL189:
  93:Drivers/lvgl/src/misc/lv_txt.c ****     size_res->x = 0;
 2142              		.loc 1 93 1 view .LVU668
 2143 0012 9DF84890 		ldrb	r9, [sp, #72]	@ zero_extendqisi2
  94:Drivers/lvgl/src/misc/lv_txt.c ****     size_res->y = 0;
 2144              		.loc 1 94 17 view .LVU669
 2145 0016 0560     		str	r5, [r0]	@ unaligned
  97:Drivers/lvgl/src/misc/lv_txt.c ****     if(font == NULL) return;
 2146              		.loc 1 97 5 is_stmt 1 view .LVU670
  97:Drivers/lvgl/src/misc/lv_txt.c ****     if(font == NULL) return;
 2147              		.loc 1 97 7 is_stmt 0 view .LVU671
 2148 0018 0029     		cmp	r1, #0
 2149 001a 46D0     		beq	.L237
  98:Drivers/lvgl/src/misc/lv_txt.c **** 
 2150              		.loc 1 98 5 is_stmt 1 view .LVU672
 2151 001c 9246     		mov	r10, r2
  98:Drivers/lvgl/src/misc/lv_txt.c **** 
 2152              		.loc 1 98 7 is_stmt 0 view .LVU673
 2153 001e 002A     		cmp	r2, #0
 2154 0020 43D0     		beq	.L237
 100:Drivers/lvgl/src/misc/lv_txt.c **** 
 2155              		.loc 1 100 5 is_stmt 1 view .LVU674
 2156              	.LBB129:
 2157              	.LBB130:
 2158              		.file 3 "Drivers/lvgl/src/misc/../font/lv_font.h"
   1:Drivers/lvgl/src/misc/../font/lv_font.h **** /**
   2:Drivers/lvgl/src/misc/../font/lv_font.h ****  * @file lv_font.h
   3:Drivers/lvgl/src/misc/../font/lv_font.h ****  *
   4:Drivers/lvgl/src/misc/../font/lv_font.h ****  */
   5:Drivers/lvgl/src/misc/../font/lv_font.h **** 
   6:Drivers/lvgl/src/misc/../font/lv_font.h **** #ifndef LV_FONT_H
   7:Drivers/lvgl/src/misc/../font/lv_font.h **** #define LV_FONT_H
   8:Drivers/lvgl/src/misc/../font/lv_font.h **** 
   9:Drivers/lvgl/src/misc/../font/lv_font.h **** #ifdef __cplusplus
  10:Drivers/lvgl/src/misc/../font/lv_font.h **** extern "C" {
  11:Drivers/lvgl/src/misc/../font/lv_font.h **** #endif
  12:Drivers/lvgl/src/misc/../font/lv_font.h **** 
  13:Drivers/lvgl/src/misc/../font/lv_font.h **** /*********************
  14:Drivers/lvgl/src/misc/../font/lv_font.h ****  *      INCLUDES
  15:Drivers/lvgl/src/misc/../font/lv_font.h ****  *********************/
  16:Drivers/lvgl/src/misc/../font/lv_font.h **** #include "../lv_conf_internal.h"
  17:Drivers/lvgl/src/misc/../font/lv_font.h **** #include <stdint.h>
  18:Drivers/lvgl/src/misc/../font/lv_font.h **** #include <stddef.h>
  19:Drivers/lvgl/src/misc/../font/lv_font.h **** #include <stdbool.h>
  20:Drivers/lvgl/src/misc/../font/lv_font.h **** 
  21:Drivers/lvgl/src/misc/../font/lv_font.h **** #include "lv_symbol_def.h"
  22:Drivers/lvgl/src/misc/../font/lv_font.h **** #include "../misc/lv_area.h"
ARM GAS  /var/folders/lp/x54gwt890xv47sdkqj1k04q40000gn/T//ccf0N3ow.s 			page 65


  23:Drivers/lvgl/src/misc/../font/lv_font.h **** 
  24:Drivers/lvgl/src/misc/../font/lv_font.h **** /*********************
  25:Drivers/lvgl/src/misc/../font/lv_font.h ****  *      DEFINES
  26:Drivers/lvgl/src/misc/../font/lv_font.h ****  *********************/
  27:Drivers/lvgl/src/misc/../font/lv_font.h **** 
  28:Drivers/lvgl/src/misc/../font/lv_font.h **** /* imgfont identifier */
  29:Drivers/lvgl/src/misc/../font/lv_font.h **** #define LV_IMGFONT_BPP 9
  30:Drivers/lvgl/src/misc/../font/lv_font.h **** 
  31:Drivers/lvgl/src/misc/../font/lv_font.h **** /**********************
  32:Drivers/lvgl/src/misc/../font/lv_font.h ****  *      TYPEDEFS
  33:Drivers/lvgl/src/misc/../font/lv_font.h ****  **********************/
  34:Drivers/lvgl/src/misc/../font/lv_font.h **** 
  35:Drivers/lvgl/src/misc/../font/lv_font.h **** /*------------------
  36:Drivers/lvgl/src/misc/../font/lv_font.h ****  * General types
  37:Drivers/lvgl/src/misc/../font/lv_font.h ****  *-----------------*/
  38:Drivers/lvgl/src/misc/../font/lv_font.h **** 
  39:Drivers/lvgl/src/misc/../font/lv_font.h **** struct _lv_font_t;
  40:Drivers/lvgl/src/misc/../font/lv_font.h **** /** Describes the properties of a glyph.*/
  41:Drivers/lvgl/src/misc/../font/lv_font.h **** typedef struct {
  42:Drivers/lvgl/src/misc/../font/lv_font.h ****     const struct _lv_font_t *
  43:Drivers/lvgl/src/misc/../font/lv_font.h ****         resolved_font; /**< Pointer to a font where the glyph was actually found after handling fal
  44:Drivers/lvgl/src/misc/../font/lv_font.h ****     uint16_t adv_w; /**< The glyph needs this space. Draw the next glyph after this width.*/
  45:Drivers/lvgl/src/misc/../font/lv_font.h ****     uint16_t box_w; /**< Width of the glyph's bounding box*/
  46:Drivers/lvgl/src/misc/../font/lv_font.h ****     uint16_t box_h; /**< Height of the glyph's bounding box*/
  47:Drivers/lvgl/src/misc/../font/lv_font.h ****     int16_t ofs_x;  /**< x offset of the bounding box*/
  48:Drivers/lvgl/src/misc/../font/lv_font.h ****     int16_t ofs_y;  /**< y offset of the bounding box*/
  49:Drivers/lvgl/src/misc/../font/lv_font.h ****     uint8_t bpp: 4;  /**< Bit-per-pixel: 1, 2, 4, 8*/
  50:Drivers/lvgl/src/misc/../font/lv_font.h ****     uint8_t is_placeholder: 1; /** Glyph is missing. But placeholder will still be displayed */
  51:Drivers/lvgl/src/misc/../font/lv_font.h **** } lv_font_glyph_dsc_t;
  52:Drivers/lvgl/src/misc/../font/lv_font.h **** 
  53:Drivers/lvgl/src/misc/../font/lv_font.h **** /** The bitmaps might be upscaled by 3 to achieve subpixel rendering.*/
  54:Drivers/lvgl/src/misc/../font/lv_font.h **** enum {
  55:Drivers/lvgl/src/misc/../font/lv_font.h ****     LV_FONT_SUBPX_NONE,
  56:Drivers/lvgl/src/misc/../font/lv_font.h ****     LV_FONT_SUBPX_HOR,
  57:Drivers/lvgl/src/misc/../font/lv_font.h ****     LV_FONT_SUBPX_VER,
  58:Drivers/lvgl/src/misc/../font/lv_font.h ****     LV_FONT_SUBPX_BOTH,
  59:Drivers/lvgl/src/misc/../font/lv_font.h **** };
  60:Drivers/lvgl/src/misc/../font/lv_font.h **** 
  61:Drivers/lvgl/src/misc/../font/lv_font.h **** typedef uint8_t lv_font_subpx_t;
  62:Drivers/lvgl/src/misc/../font/lv_font.h **** 
  63:Drivers/lvgl/src/misc/../font/lv_font.h **** /** Describe the properties of a font*/
  64:Drivers/lvgl/src/misc/../font/lv_font.h **** typedef struct _lv_font_t {
  65:Drivers/lvgl/src/misc/../font/lv_font.h ****     /** Get a glyph's descriptor from a font*/
  66:Drivers/lvgl/src/misc/../font/lv_font.h ****     bool (*get_glyph_dsc)(const struct _lv_font_t *, lv_font_glyph_dsc_t *, uint32_t letter, uint32
  67:Drivers/lvgl/src/misc/../font/lv_font.h **** 
  68:Drivers/lvgl/src/misc/../font/lv_font.h ****     /** Get a glyph's bitmap from a font*/
  69:Drivers/lvgl/src/misc/../font/lv_font.h ****     const uint8_t * (*get_glyph_bitmap)(const struct _lv_font_t *, uint32_t);
  70:Drivers/lvgl/src/misc/../font/lv_font.h **** 
  71:Drivers/lvgl/src/misc/../font/lv_font.h ****     /*Pointer to the font in a font pack (must have the same line height)*/
  72:Drivers/lvgl/src/misc/../font/lv_font.h ****     lv_coord_t line_height;         /**< The real line height where any text fits*/
  73:Drivers/lvgl/src/misc/../font/lv_font.h ****     lv_coord_t base_line;           /**< Base line measured from the top of the line_height*/
  74:Drivers/lvgl/src/misc/../font/lv_font.h ****     uint8_t subpx  : 2;             /**< An element of `lv_font_subpx_t`*/
  75:Drivers/lvgl/src/misc/../font/lv_font.h **** 
  76:Drivers/lvgl/src/misc/../font/lv_font.h ****     int8_t underline_position;      /**< Distance between the top of the underline and base line (<
  77:Drivers/lvgl/src/misc/../font/lv_font.h ****     int8_t underline_thickness;     /**< Thickness of the underline*/
  78:Drivers/lvgl/src/misc/../font/lv_font.h **** 
  79:Drivers/lvgl/src/misc/../font/lv_font.h ****     const void * dsc;               /**< Store implementation specific or run_time data or caching 
ARM GAS  /var/folders/lp/x54gwt890xv47sdkqj1k04q40000gn/T//ccf0N3ow.s 			page 66


  80:Drivers/lvgl/src/misc/../font/lv_font.h ****     const struct _lv_font_t * fallback;   /**< Fallback font for missing glyph. Resolved recursivel
  81:Drivers/lvgl/src/misc/../font/lv_font.h **** #if LV_USE_USER_DATA
  82:Drivers/lvgl/src/misc/../font/lv_font.h ****     void * user_data;               /**< Custom user data for font.*/
  83:Drivers/lvgl/src/misc/../font/lv_font.h **** #endif
  84:Drivers/lvgl/src/misc/../font/lv_font.h **** } lv_font_t;
  85:Drivers/lvgl/src/misc/../font/lv_font.h **** 
  86:Drivers/lvgl/src/misc/../font/lv_font.h **** /**********************
  87:Drivers/lvgl/src/misc/../font/lv_font.h ****  * GLOBAL PROTOTYPES
  88:Drivers/lvgl/src/misc/../font/lv_font.h ****  **********************/
  89:Drivers/lvgl/src/misc/../font/lv_font.h **** 
  90:Drivers/lvgl/src/misc/../font/lv_font.h **** /**
  91:Drivers/lvgl/src/misc/../font/lv_font.h ****  * Return with the bitmap of a font.
  92:Drivers/lvgl/src/misc/../font/lv_font.h ****  * @param font_p pointer to a font
  93:Drivers/lvgl/src/misc/../font/lv_font.h ****  * @param letter a UNICODE character code
  94:Drivers/lvgl/src/misc/../font/lv_font.h ****  * @return pointer to the bitmap of the letter
  95:Drivers/lvgl/src/misc/../font/lv_font.h ****  */
  96:Drivers/lvgl/src/misc/../font/lv_font.h **** const uint8_t * lv_font_get_glyph_bitmap(const lv_font_t * font_p, uint32_t letter);
  97:Drivers/lvgl/src/misc/../font/lv_font.h **** 
  98:Drivers/lvgl/src/misc/../font/lv_font.h **** /**
  99:Drivers/lvgl/src/misc/../font/lv_font.h ****  * Get the descriptor of a glyph
 100:Drivers/lvgl/src/misc/../font/lv_font.h ****  * @param font_p pointer to font
 101:Drivers/lvgl/src/misc/../font/lv_font.h ****  * @param dsc_out store the result descriptor here
 102:Drivers/lvgl/src/misc/../font/lv_font.h ****  * @param letter a UNICODE letter code
 103:Drivers/lvgl/src/misc/../font/lv_font.h ****  * @param letter_next the next letter after `letter`. Used for kerning
 104:Drivers/lvgl/src/misc/../font/lv_font.h ****  * @return true: descriptor is successfully loaded into `dsc_out`.
 105:Drivers/lvgl/src/misc/../font/lv_font.h ****  *         false: the letter was not found, no data is loaded to `dsc_out`
 106:Drivers/lvgl/src/misc/../font/lv_font.h ****  */
 107:Drivers/lvgl/src/misc/../font/lv_font.h **** bool lv_font_get_glyph_dsc(const lv_font_t * font_p, lv_font_glyph_dsc_t * dsc_out, uint32_t letter
 108:Drivers/lvgl/src/misc/../font/lv_font.h ****                            uint32_t letter_next);
 109:Drivers/lvgl/src/misc/../font/lv_font.h **** 
 110:Drivers/lvgl/src/misc/../font/lv_font.h **** /**
 111:Drivers/lvgl/src/misc/../font/lv_font.h ****  * Get the width of a glyph with kerning
 112:Drivers/lvgl/src/misc/../font/lv_font.h ****  * @param font pointer to a font
 113:Drivers/lvgl/src/misc/../font/lv_font.h ****  * @param letter a UNICODE letter
 114:Drivers/lvgl/src/misc/../font/lv_font.h ****  * @param letter_next the next letter after `letter`. Used for kerning
 115:Drivers/lvgl/src/misc/../font/lv_font.h ****  * @return the width of the glyph
 116:Drivers/lvgl/src/misc/../font/lv_font.h ****  */
 117:Drivers/lvgl/src/misc/../font/lv_font.h **** uint16_t lv_font_get_glyph_width(const lv_font_t * font, uint32_t letter, uint32_t letter_next);
 118:Drivers/lvgl/src/misc/../font/lv_font.h **** 
 119:Drivers/lvgl/src/misc/../font/lv_font.h **** /**
 120:Drivers/lvgl/src/misc/../font/lv_font.h ****  * Get the line height of a font. All characters fit into this height
 121:Drivers/lvgl/src/misc/../font/lv_font.h ****  * @param font_p pointer to a font
 122:Drivers/lvgl/src/misc/../font/lv_font.h ****  * @return the height of a font
 123:Drivers/lvgl/src/misc/../font/lv_font.h ****  */
 124:Drivers/lvgl/src/misc/../font/lv_font.h **** static inline lv_coord_t lv_font_get_line_height(const lv_font_t * font_p)
 125:Drivers/lvgl/src/misc/../font/lv_font.h **** {
 126:Drivers/lvgl/src/misc/../font/lv_font.h ****     return font_p->line_height;
 2159              		.loc 3 126 18 is_stmt 0 view .LVU675
 2160 0022 B2F908E0 		ldrsh	lr, [r2, #8]
 2161 0026 0F46     		mov	r7, r1
 2162              	.LBE130:
 2163              	.LBE129:
 107:Drivers/lvgl/src/misc/lv_txt.c ****         new_line_start += _lv_txt_get_next_line(&text[line_start], font, letter_space, max_width, N
 2164              		.loc 1 107 28 view .LVU676
 2165 0028 0978     		ldrb	r1, [r1]	@ zero_extendqisi2
 2166              	.LVL190:
 107:Drivers/lvgl/src/misc/lv_txt.c ****         new_line_start += _lv_txt_get_next_line(&text[line_start], font, letter_space, max_width, N
ARM GAS  /var/folders/lp/x54gwt890xv47sdkqj1k04q40000gn/T//ccf0N3ow.s 			page 67


 2167              		.loc 1 107 28 view .LVU677
 2168 002a 0446     		mov	r4, r0
 100:Drivers/lvgl/src/misc/lv_txt.c **** 
 2169              		.loc 1 100 46 discriminator 1 view .LVU678
 2170 002c 19F0020F 		tst	r9, #2
 2171 0030 41F6FF70 		movw	r0, #8191
 2172              	.LVL191:
 100:Drivers/lvgl/src/misc/lv_txt.c **** 
 2173              		.loc 1 100 46 discriminator 1 view .LVU679
 2174 0034 18BF     		it	ne
 2175 0036 0346     		movne	r3, r0
 2176              	.LVL192:
 102:Drivers/lvgl/src/misc/lv_txt.c ****     uint32_t new_line_start = 0;
 2177              		.loc 1 102 5 is_stmt 1 view .LVU680
 103:Drivers/lvgl/src/misc/lv_txt.c ****     uint16_t letter_height = lv_font_get_line_height(font);
 2178              		.loc 1 103 5 view .LVU681
 104:Drivers/lvgl/src/misc/lv_txt.c **** 
 2179              		.loc 1 104 5 view .LVU682
 2180              	.LBB132:
 2181              	.LBI129:
 124:Drivers/lvgl/src/misc/../font/lv_font.h **** {
 2182              		.loc 3 124 26 view .LVU683
 2183              	.LBB131:
 2184              		.loc 3 126 5 view .LVU684
 2185              		.loc 3 126 5 is_stmt 0 view .LVU685
 2186              	.LBE131:
 2187              	.LBE132:
 104:Drivers/lvgl/src/misc/lv_txt.c **** 
 2188              		.loc 1 104 14 discriminator 1 view .LVU686
 2189 0038 1FFA8EF8 		uxth	r8, lr
 2190              	.LVL193:
 107:Drivers/lvgl/src/misc/lv_txt.c ****         new_line_start += _lv_txt_get_next_line(&text[line_start], font, letter_space, max_width, N
 2191              		.loc 1 107 5 is_stmt 1 view .LVU687
 107:Drivers/lvgl/src/misc/lv_txt.c ****         new_line_start += _lv_txt_get_next_line(&text[line_start], font, letter_space, max_width, N
 2192              		.loc 1 107 28 view .LVU688
 2193 003c 0029     		cmp	r1, #0
 2194 003e 48D0     		beq	.L246
 2195              	.LBB133:
 116:Drivers/lvgl/src/misc/lv_txt.c ****         }
 2196              		.loc 1 116 25 is_stmt 0 view .LVU689
 2197 0040 B1B2     		uxth	r1, r6
 2198 0042 06EB0802 		add	r2, r6, r8
 2199              	.LVL194:
 116:Drivers/lvgl/src/misc/lv_txt.c ****         }
 2200              		.loc 1 116 25 view .LVU690
 2201              	.LBE133:
 107:Drivers/lvgl/src/misc/lv_txt.c ****         new_line_start += _lv_txt_get_next_line(&text[line_start], font, letter_space, max_width, N
 2202              		.loc 1 107 15 view .LVU691
 2203 0046 CDE9033E 		strd	r3, lr, [sp, #12]
 2204 004a 8844     		add	r8, r8, r1
 2205              	.LVL195:
 107:Drivers/lvgl/src/misc/lv_txt.c ****         new_line_start += _lv_txt_get_next_line(&text[line_start], font, letter_space, max_width, N
 2206              		.loc 1 107 15 view .LVU692
 2207 004c 4B46     		mov	r3, r9
 2208              	.LVL196:
 107:Drivers/lvgl/src/misc/lv_txt.c ****         new_line_start += _lv_txt_get_next_line(&text[line_start], font, letter_space, max_width, N
 2209              		.loc 1 107 15 view .LVU693
ARM GAS  /var/folders/lp/x54gwt890xv47sdkqj1k04q40000gn/T//ccf0N3ow.s 			page 68


 2210 004e 3E46     		mov	r6, r7
 2211 0050 B946     		mov	r9, r7
 2212 0052 0292     		str	r2, [sp, #8]
 2213 0054 1FFA88F8 		uxth	r8, r8
 2214 0058 0591     		str	r1, [sp, #20]
 2215 005a 1F46     		mov	r7, r3
 2216              	.LVL197:
 107:Drivers/lvgl/src/misc/lv_txt.c ****         new_line_start += _lv_txt_get_next_line(&text[line_start], font, letter_space, max_width, N
 2217              		.loc 1 107 15 view .LVU694
 2218 005c 10E0     		b	.L243
 2219              	.LVL198:
 2220              	.L263:
 2221              	.LBB138:
 116:Drivers/lvgl/src/misc/lv_txt.c ****         }
 2222              		.loc 1 116 25 view .LVU695
 2223 005e 6280     		strh	r2, [r4, #2]	@ movhi
 120:Drivers/lvgl/src/misc/lv_txt.c ****                                                       flag);
 2224              		.loc 1 120 9 is_stmt 1 view .LVU696
 120:Drivers/lvgl/src/misc/lv_txt.c ****                                                       flag);
 2225              		.loc 1 120 38 is_stmt 0 view .LVU697
 2226 0060 5B46     		mov	r3, fp
 2227 0062 0097     		str	r7, [sp]
 2228 0064 5246     		mov	r2, r10
 2229 0066 FFF7FEFF 		bl	lv_txt_get_width
 2230              	.LVL199:
 123:Drivers/lvgl/src/misc/lv_txt.c ****         line_start  = new_line_start;
 2231              		.loc 1 123 9 is_stmt 1 view .LVU698
 123:Drivers/lvgl/src/misc/lv_txt.c ****         line_start  = new_line_start;
 2232              		.loc 1 123 23 is_stmt 0 view .LVU699
 2233 006a B4F90030 		ldrsh	r3, [r4]
 2234 006e 8342     		cmp	r3, r0
 2235 0070 B8BF     		it	lt
 2236 0072 0346     		movlt	r3, r0
 123:Drivers/lvgl/src/misc/lv_txt.c ****         line_start  = new_line_start;
 2237              		.loc 1 123 21 view .LVU700
 2238 0074 2380     		strh	r3, [r4]	@ movhi
 124:Drivers/lvgl/src/misc/lv_txt.c ****     }
 2239              		.loc 1 124 9 is_stmt 1 view .LVU701
 2240              	.LVL200:
 124:Drivers/lvgl/src/misc/lv_txt.c ****     }
 2241              		.loc 1 124 9 is_stmt 0 view .LVU702
 2242              	.LBE138:
 107:Drivers/lvgl/src/misc/lv_txt.c ****         new_line_start += _lv_txt_get_next_line(&text[line_start], font, letter_space, max_width, N
 2243              		.loc 1 107 28 is_stmt 1 view .LVU703
 2244 0076 19F80530 		ldrb	r3, [r9, r5]	@ zero_extendqisi2
 107:Drivers/lvgl/src/misc/lv_txt.c ****         new_line_start += _lv_txt_get_next_line(&text[line_start], font, letter_space, max_width, N
 2245              		.loc 1 107 15 is_stmt 0 view .LVU704
 2246 007a 09EB0506 		add	r6, r9, r5
 107:Drivers/lvgl/src/misc/lv_txt.c ****         new_line_start += _lv_txt_get_next_line(&text[line_start], font, letter_space, max_width, N
 2247              		.loc 1 107 28 view .LVU705
 2248 007e BBB1     		cbz	r3, .L262
 2249              	.LVL201:
 2250              	.L243:
 2251              	.LBB139:
 108:Drivers/lvgl/src/misc/lv_txt.c **** 
 2252              		.loc 1 108 9 is_stmt 1 view .LVU706
 2253              	.LBB134:
ARM GAS  /var/folders/lp/x54gwt890xv47sdkqj1k04q40000gn/T//ccf0N3ow.s 			page 69


 2254              	.LBI134:
 279:Drivers/lvgl/src/misc/lv_txt.c ****                                lv_coord_t letter_space, lv_coord_t max_width,
 2255              		.loc 1 279 10 view .LVU707
 2256              	.LBB135:
 283:Drivers/lvgl/src/misc/lv_txt.c **** 
 2257              		.loc 1 283 5 view .LVU708
 285:Drivers/lvgl/src/misc/lv_txt.c ****     if(txt[0] == '\0') return 0;
 2258              		.loc 1 285 5 view .LVU709
 286:Drivers/lvgl/src/misc/lv_txt.c ****     if(font == NULL) return 0;
 2259              		.loc 1 286 5 view .LVU710
 287:Drivers/lvgl/src/misc/lv_txt.c **** 
 2260              		.loc 1 287 5 view .LVU711
 2261 0080 0023     		movs	r3, #0
 2262 0082 CDE90037 		strd	r3, r7, [sp]
 2263 0086 5A46     		mov	r2, fp
 2264 0088 039B     		ldr	r3, [sp, #12]
 2265 008a 5146     		mov	r1, r10
 2266 008c 3046     		mov	r0, r6
 2267 008e FFF7FEFF 		bl	_lv_txt_get_next_line.part.0
 2268              	.LVL202:
 2269              	.LBE135:
 2270              	.LBE134:
 115:Drivers/lvgl/src/misc/lv_txt.c ****             size_res->y += line_space;
 2271              		.loc 1 115 13 view .LVU712
 116:Drivers/lvgl/src/misc/lv_txt.c ****         }
 2272              		.loc 1 116 13 view .LVU713
 110:Drivers/lvgl/src/misc/lv_txt.c ****             LV_LOG_WARN("lv_txt_get_size: integer overflow while calculating text height");
 2273              		.loc 1 110 35 is_stmt 0 view .LVU714
 2274 0092 B4F90230 		ldrsh	r3, [r4, #2]
 2275              	.LBB137:
 2276              	.LBB136:
 2277 0096 0146     		mov	r1, r0
 2278              	.LVL203:
 110:Drivers/lvgl/src/misc/lv_txt.c ****             LV_LOG_WARN("lv_txt_get_size: integer overflow while calculating text height");
 2279              		.loc 1 110 35 view .LVU715
 2280              	.LBE136:
 2281              	.LBE137:
 120:Drivers/lvgl/src/misc/lv_txt.c ****                                                       flag);
 2282              		.loc 1 120 38 view .LVU716
 2283 0098 3046     		mov	r0, r6
 110:Drivers/lvgl/src/misc/lv_txt.c ****             LV_LOG_WARN("lv_txt_get_size: integer overflow while calculating text height");
 2284              		.loc 1 110 70 view .LVU717
 2285 009a 029E     		ldr	r6, [sp, #8]
 116:Drivers/lvgl/src/misc/lv_txt.c ****         }
 2286              		.loc 1 116 25 view .LVU718
 2287 009c 08EB0302 		add	r2, r8, r3
 110:Drivers/lvgl/src/misc/lv_txt.c ****             LV_LOG_WARN("lv_txt_get_size: integer overflow while calculating text height");
 2288              		.loc 1 110 70 view .LVU719
 2289 00a0 3344     		add	r3, r3, r6
 110:Drivers/lvgl/src/misc/lv_txt.c ****             LV_LOG_WARN("lv_txt_get_size: integer overflow while calculating text height");
 2290              		.loc 1 110 11 view .LVU720
 2291 00a2 B3F5004F 		cmp	r3, #32768
 108:Drivers/lvgl/src/misc/lv_txt.c **** 
 2292              		.loc 1 108 24 discriminator 1 view .LVU721
 2293 00a6 0D44     		add	r5, r5, r1
 2294              	.LVL204:
 110:Drivers/lvgl/src/misc/lv_txt.c ****             LV_LOG_WARN("lv_txt_get_size: integer overflow while calculating text height");
ARM GAS  /var/folders/lp/x54gwt890xv47sdkqj1k04q40000gn/T//ccf0N3ow.s 			page 70


 2295              		.loc 1 110 9 is_stmt 1 view .LVU722
 110:Drivers/lvgl/src/misc/lv_txt.c ****             LV_LOG_WARN("lv_txt_get_size: integer overflow while calculating text height");
 2296              		.loc 1 110 11 is_stmt 0 view .LVU723
 2297 00a8 D9D3     		bcc	.L263
 2298              	.LVL205:
 2299              	.L237:
 110:Drivers/lvgl/src/misc/lv_txt.c ****             LV_LOG_WARN("lv_txt_get_size: integer overflow while calculating text height");
 2300              		.loc 1 110 11 view .LVU724
 2301              	.LBE139:
 137:Drivers/lvgl/src/misc/lv_txt.c **** 
 2302              		.loc 1 137 1 view .LVU725
 2303 00aa 07B0     		add	sp, sp, #28
 2304              		.cfi_remember_state
 2305              		.cfi_def_cfa_offset 36
 2306              		@ sp needed
 2307 00ac BDE8F08F 		pop	{r4, r5, r6, r7, r8, r9, r10, fp, pc}
 2308              	.LVL206:
 2309              	.L262:
 2310              		.cfi_restore_state
 128:Drivers/lvgl/src/misc/lv_txt.c ****         size_res->y += letter_height + line_space;
 2311              		.loc 1 128 5 is_stmt 1 view .LVU726
 129:Drivers/lvgl/src/misc/lv_txt.c ****     }
 2312              		.loc 1 129 17 is_stmt 0 view .LVU727
 2313 00b0 DDE904E1 		ldrd	lr, r1, [sp, #16]
 2314 00b4 B4F90230 		ldrsh	r3, [r4, #2]
 128:Drivers/lvgl/src/misc/lv_txt.c ****         size_res->y += letter_height + line_space;
 2315              		.loc 1 128 7 view .LVU728
 2316 00b8 2DB1     		cbz	r5, .L244
 128:Drivers/lvgl/src/misc/lv_txt.c ****         size_res->y += letter_height + line_space;
 2317              		.loc 1 128 34 discriminator 1 view .LVU729
 2318 00ba 16F8012C 		ldrb	r2, [r6, #-1]	@ zero_extendqisi2
 128:Drivers/lvgl/src/misc/lv_txt.c ****         size_res->y += letter_height + line_space;
 2319              		.loc 1 128 26 discriminator 1 view .LVU730
 2320 00be 0A2A     		cmp	r2, #10
 2321 00c0 0CD0     		beq	.L245
 128:Drivers/lvgl/src/misc/lv_txt.c ****         size_res->y += letter_height + line_space;
 2322              		.loc 1 128 59 discriminator 2 view .LVU731
 2323 00c2 0D2A     		cmp	r2, #13
 2324 00c4 0AD0     		beq	.L245
 2325              	.L244:
 133:Drivers/lvgl/src/misc/lv_txt.c ****         size_res->y = letter_height;
 2326              		.loc 1 133 5 is_stmt 1 view .LVU732
 133:Drivers/lvgl/src/misc/lv_txt.c ****         size_res->y = letter_height;
 2327              		.loc 1 133 7 is_stmt 0 view .LVU733
 2328 00c6 23B1     		cbz	r3, .L246
 2329              	.L264:
 136:Drivers/lvgl/src/misc/lv_txt.c **** }
 2330              		.loc 1 136 9 is_stmt 1 view .LVU734
 136:Drivers/lvgl/src/misc/lv_txt.c **** }
 2331              		.loc 1 136 21 is_stmt 0 view .LVU735
 2332 00c8 5B1A     		subs	r3, r3, r1
 2333 00ca 6380     		strh	r3, [r4, #2]	@ movhi
 137:Drivers/lvgl/src/misc/lv_txt.c **** 
 2334              		.loc 1 137 1 view .LVU736
 2335 00cc 07B0     		add	sp, sp, #28
 2336              		.cfi_remember_state
 2337              		.cfi_def_cfa_offset 36
ARM GAS  /var/folders/lp/x54gwt890xv47sdkqj1k04q40000gn/T//ccf0N3ow.s 			page 71


 2338              		@ sp needed
 2339 00ce BDE8F08F 		pop	{r4, r5, r6, r7, r8, r9, r10, fp, pc}
 2340              	.LVL207:
 2341              	.L246:
 2342              		.cfi_restore_state
 134:Drivers/lvgl/src/misc/lv_txt.c ****     else
 2343              		.loc 1 134 9 is_stmt 1 view .LVU737
 134:Drivers/lvgl/src/misc/lv_txt.c ****     else
 2344              		.loc 1 134 21 is_stmt 0 view .LVU738
 2345 00d2 A4F802E0 		strh	lr, [r4, #2]	@ movhi
 137:Drivers/lvgl/src/misc/lv_txt.c **** 
 2346              		.loc 1 137 1 view .LVU739
 2347 00d6 07B0     		add	sp, sp, #28
 2348              		.cfi_remember_state
 2349              		.cfi_def_cfa_offset 36
 2350              		@ sp needed
 2351 00d8 BDE8F08F 		pop	{r4, r5, r6, r7, r8, r9, r10, fp, pc}
 2352              	.LVL208:
 2353              	.L245:
 2354              		.cfi_restore_state
 129:Drivers/lvgl/src/misc/lv_txt.c ****     }
 2355              		.loc 1 129 9 is_stmt 1 view .LVU740
 129:Drivers/lvgl/src/misc/lv_txt.c ****     }
 2356              		.loc 1 129 21 is_stmt 0 view .LVU741
 2357 00dc 4344     		add	r3, r3, r8
 2358 00de 1BB2     		sxth	r3, r3
 133:Drivers/lvgl/src/misc/lv_txt.c ****         size_res->y = letter_height;
 2359              		.loc 1 133 5 is_stmt 1 view .LVU742
 133:Drivers/lvgl/src/misc/lv_txt.c ****         size_res->y = letter_height;
 2360              		.loc 1 133 7 is_stmt 0 view .LVU743
 2361 00e0 002B     		cmp	r3, #0
 2362 00e2 F1D1     		bne	.L264
 2363 00e4 F5E7     		b	.L246
 2364              		.cfi_endproc
 2365              	.LFE55:
 2367 00e6 00BF     		.section	.text._lv_txt_is_cmd,"ax",%progbits
 2368              		.align	1
 2369              		.p2align 2,,3
 2370              		.global	_lv_txt_is_cmd
 2371              		.syntax unified
 2372              		.thumb
 2373              		.thumb_func
 2375              	_lv_txt_is_cmd:
 2376              	.LVL209:
 2377              	.LFB59:
 383:Drivers/lvgl/src/misc/lv_txt.c ****     bool ret = false;
 2378              		.loc 1 383 1 is_stmt 1 view -0
 2379              		.cfi_startproc
 2380              		@ args = 0, pretend = 0, frame = 0
 2381              		@ frame_needed = 0, uses_anonymous_args = 0
 2382              		@ link register save eliminated.
 384:Drivers/lvgl/src/misc/lv_txt.c **** 
 2383              		.loc 1 384 5 view .LVU745
 386:Drivers/lvgl/src/misc/lv_txt.c ****         if(*state == LV_TEXT_CMD_STATE_WAIT) { /*Start char*/
 2384              		.loc 1 386 5 view .LVU746
 386:Drivers/lvgl/src/misc/lv_txt.c ****         if(*state == LV_TEXT_CMD_STATE_WAIT) { /*Start char*/
 2385              		.loc 1 386 7 is_stmt 0 view .LVU747
ARM GAS  /var/folders/lp/x54gwt890xv47sdkqj1k04q40000gn/T//ccf0N3ow.s 			page 72


 2386 0000 2329     		cmp	r1, #35
 387:Drivers/lvgl/src/misc/lv_txt.c ****             *state = LV_TEXT_CMD_STATE_PAR;
 2387              		.loc 1 387 12 view .LVU748
 2388 0002 0378     		ldrb	r3, [r0]	@ zero_extendqisi2
 386:Drivers/lvgl/src/misc/lv_txt.c ****         if(*state == LV_TEXT_CMD_STATE_WAIT) { /*Start char*/
 2389              		.loc 1 386 7 view .LVU749
 2390 0004 09D0     		beq	.L272
 403:Drivers/lvgl/src/misc/lv_txt.c ****         if(c == ' ') {
 2391              		.loc 1 403 5 is_stmt 1 view .LVU750
 403:Drivers/lvgl/src/misc/lv_txt.c ****         if(c == ' ') {
 2392              		.loc 1 403 7 is_stmt 0 view .LVU751
 2393 0006 012B     		cmp	r3, #1
 2394 0008 01D0     		beq	.L273
 2395              	.L271:
 384:Drivers/lvgl/src/misc/lv_txt.c **** 
 2396              		.loc 1 384 10 view .LVU752
 2397 000a 0020     		movs	r0, #0
 2398              	.LVL210:
 384:Drivers/lvgl/src/misc/lv_txt.c **** 
 2399              		.loc 1 384 10 view .LVU753
 2400 000c 7047     		bx	lr
 2401              	.LVL211:
 2402              	.L273:
 404:Drivers/lvgl/src/misc/lv_txt.c ****             *state = LV_TEXT_CMD_STATE_IN; /*After the parameter the text is in the command*/
 2403              		.loc 1 404 9 is_stmt 1 view .LVU754
 404:Drivers/lvgl/src/misc/lv_txt.c ****             *state = LV_TEXT_CMD_STATE_IN; /*After the parameter the text is in the command*/
 2404              		.loc 1 404 11 is_stmt 0 view .LVU755
 2405 000e 2029     		cmp	r1, #32
 2406 0010 06D1     		bne	.L268
 405:Drivers/lvgl/src/misc/lv_txt.c ****         }
 2407              		.loc 1 405 13 is_stmt 1 view .LVU756
 405:Drivers/lvgl/src/misc/lv_txt.c ****         }
 2408              		.loc 1 405 20 is_stmt 0 view .LVU757
 2409 0012 0223     		movs	r3, #2
 2410 0014 0370     		strb	r3, [r0]
 389:Drivers/lvgl/src/misc/lv_txt.c ****         }
 2411              		.loc 1 389 20 view .LVU758
 2412 0016 0120     		movs	r0, #1
 2413              	.LVL212:
 410:Drivers/lvgl/src/misc/lv_txt.c **** }
 2414              		.loc 1 410 5 is_stmt 1 view .LVU759
 411:Drivers/lvgl/src/misc/lv_txt.c **** 
 2415              		.loc 1 411 1 is_stmt 0 view .LVU760
 2416 0018 7047     		bx	lr
 2417              	.LVL213:
 2418              	.L272:
 387:Drivers/lvgl/src/misc/lv_txt.c ****             *state = LV_TEXT_CMD_STATE_PAR;
 2419              		.loc 1 387 9 is_stmt 1 view .LVU761
 387:Drivers/lvgl/src/misc/lv_txt.c ****             *state = LV_TEXT_CMD_STATE_PAR;
 2420              		.loc 1 387 11 is_stmt 0 view .LVU762
 2421 001a 1BB9     		cbnz	r3, .L267
 388:Drivers/lvgl/src/misc/lv_txt.c ****             ret    = true;
 2422              		.loc 1 388 13 is_stmt 1 view .LVU763
 388:Drivers/lvgl/src/misc/lv_txt.c ****             ret    = true;
 2423              		.loc 1 388 20 is_stmt 0 view .LVU764
 2424 001c 0123     		movs	r3, #1
 2425 001e 0370     		strb	r3, [r0]
ARM GAS  /var/folders/lp/x54gwt890xv47sdkqj1k04q40000gn/T//ccf0N3ow.s 			page 73


 389:Drivers/lvgl/src/misc/lv_txt.c ****         }
 2426              		.loc 1 389 13 is_stmt 1 view .LVU765
 2427              	.LVL214:
 403:Drivers/lvgl/src/misc/lv_txt.c ****         if(c == ' ') {
 2428              		.loc 1 403 5 view .LVU766
 404:Drivers/lvgl/src/misc/lv_txt.c ****             *state = LV_TEXT_CMD_STATE_IN; /*After the parameter the text is in the command*/
 2429              		.loc 1 404 9 view .LVU767
 2430              	.L268:
 389:Drivers/lvgl/src/misc/lv_txt.c ****         }
 2431              		.loc 1 389 20 is_stmt 0 view .LVU768
 2432 0020 0120     		movs	r0, #1
 2433              	.LVL215:
 410:Drivers/lvgl/src/misc/lv_txt.c **** }
 2434              		.loc 1 410 5 is_stmt 1 view .LVU769
 411:Drivers/lvgl/src/misc/lv_txt.c **** 
 2435              		.loc 1 411 1 is_stmt 0 view .LVU770
 2436 0022 7047     		bx	lr
 2437              	.LVL216:
 2438              	.L267:
 392:Drivers/lvgl/src/misc/lv_txt.c ****             *state = LV_TEXT_CMD_STATE_WAIT;
 2439              		.loc 1 392 14 is_stmt 1 view .LVU771
 392:Drivers/lvgl/src/misc/lv_txt.c ****             *state = LV_TEXT_CMD_STATE_WAIT;
 2440              		.loc 1 392 16 is_stmt 0 view .LVU772
 2441 0024 012B     		cmp	r3, #1
 2442 0026 04D0     		beq	.L274
 396:Drivers/lvgl/src/misc/lv_txt.c ****             *state = LV_TEXT_CMD_STATE_WAIT;
 2443              		.loc 1 396 14 is_stmt 1 view .LVU773
 396:Drivers/lvgl/src/misc/lv_txt.c ****             *state = LV_TEXT_CMD_STATE_WAIT;
 2444              		.loc 1 396 16 is_stmt 0 view .LVU774
 2445 0028 022B     		cmp	r3, #2
 2446 002a EED1     		bne	.L271
 397:Drivers/lvgl/src/misc/lv_txt.c ****             ret    = true;
 2447              		.loc 1 397 13 is_stmt 1 view .LVU775
 397:Drivers/lvgl/src/misc/lv_txt.c ****             ret    = true;
 2448              		.loc 1 397 20 is_stmt 0 view .LVU776
 2449 002c 0023     		movs	r3, #0
 2450 002e 0370     		strb	r3, [r0]
 398:Drivers/lvgl/src/misc/lv_txt.c ****         }
 2451              		.loc 1 398 13 is_stmt 1 view .LVU777
 2452              	.LVL217:
 403:Drivers/lvgl/src/misc/lv_txt.c ****         if(c == ' ') {
 2453              		.loc 1 403 5 view .LVU778
 404:Drivers/lvgl/src/misc/lv_txt.c ****             *state = LV_TEXT_CMD_STATE_IN; /*After the parameter the text is in the command*/
 2454              		.loc 1 404 9 view .LVU779
 2455 0030 F6E7     		b	.L268
 2456              	.LVL218:
 2457              	.L274:
 393:Drivers/lvgl/src/misc/lv_txt.c ****         }
 2458              		.loc 1 393 13 view .LVU780
 393:Drivers/lvgl/src/misc/lv_txt.c ****         }
 2459              		.loc 1 393 20 is_stmt 0 view .LVU781
 2460 0032 0023     		movs	r3, #0
 2461 0034 0370     		strb	r3, [r0]
 403:Drivers/lvgl/src/misc/lv_txt.c ****         if(c == ' ') {
 2462              		.loc 1 403 5 is_stmt 1 view .LVU782
 2463 0036 E8E7     		b	.L271
 2464              		.cfi_endproc
ARM GAS  /var/folders/lp/x54gwt890xv47sdkqj1k04q40000gn/T//ccf0N3ow.s 			page 74


 2465              	.LFE59:
 2467              		.section	.text._lv_txt_ins,"ax",%progbits
 2468              		.align	1
 2469              		.p2align 2,,3
 2470              		.global	_lv_txt_ins
 2471              		.syntax unified
 2472              		.thumb
 2473              		.thumb_func
 2475              	_lv_txt_ins:
 2476              	.LVL219:
 2477              	.LFB60:
 414:Drivers/lvgl/src/misc/lv_txt.c ****     if(txt_buf == NULL || ins_txt == NULL) return;
 2478              		.loc 1 414 1 view -0
 2479              		.cfi_startproc
 2480              		@ args = 0, pretend = 0, frame = 0
 2481              		@ frame_needed = 0, uses_anonymous_args = 0
 415:Drivers/lvgl/src/misc/lv_txt.c **** 
 2482              		.loc 1 415 5 view .LVU784
 415:Drivers/lvgl/src/misc/lv_txt.c **** 
 2483              		.loc 1 415 7 is_stmt 0 view .LVU785
 2484 0000 80B3     		cbz	r0, .L292
 414:Drivers/lvgl/src/misc/lv_txt.c ****     if(txt_buf == NULL || ins_txt == NULL) return;
 2485              		.loc 1 414 1 view .LVU786
 2486 0002 2DE9F041 		push	{r4, r5, r6, r7, r8, lr}
 2487              		.cfi_def_cfa_offset 24
 2488              		.cfi_offset 4, -24
 2489              		.cfi_offset 5, -20
 2490              		.cfi_offset 6, -16
 2491              		.cfi_offset 7, -12
 2492              		.cfi_offset 8, -8
 2493              		.cfi_offset 14, -4
 2494 0006 1646     		mov	r6, r2
 415:Drivers/lvgl/src/misc/lv_txt.c **** 
 2495              		.loc 1 415 24 discriminator 2 view .LVU787
 2496 0008 52B3     		cbz	r2, .L275
 417:Drivers/lvgl/src/misc/lv_txt.c ****     size_t ins_len = strlen(ins_txt);
 2497              		.loc 1 417 5 is_stmt 1 view .LVU788
 418:Drivers/lvgl/src/misc/lv_txt.c ****     if(ins_len == 0) return;
 2498              		.loc 1 418 5 view .LVU789
 2499 000a 0446     		mov	r4, r0
 418:Drivers/lvgl/src/misc/lv_txt.c ****     if(ins_len == 0) return;
 2500              		.loc 1 418 22 is_stmt 0 view .LVU790
 2501 000c 1046     		mov	r0, r2
 2502              	.LVL220:
 418:Drivers/lvgl/src/misc/lv_txt.c ****     if(ins_len == 0) return;
 2503              		.loc 1 418 22 view .LVU791
 2504 000e 0F46     		mov	r7, r1
 2505 0010 FFF7FEFF 		bl	strlen
 2506              	.LVL221:
 419:Drivers/lvgl/src/misc/lv_txt.c **** 
 2507              		.loc 1 419 5 is_stmt 1 view .LVU792
 419:Drivers/lvgl/src/misc/lv_txt.c **** 
 2508              		.loc 1 419 7 is_stmt 0 view .LVU793
 2509 0014 8046     		mov	r8, r0
 2510 0016 18B3     		cbz	r0, .L275
 417:Drivers/lvgl/src/misc/lv_txt.c ****     size_t ins_len = strlen(ins_txt);
 2511              		.loc 1 417 22 view .LVU794
ARM GAS  /var/folders/lp/x54gwt890xv47sdkqj1k04q40000gn/T//ccf0N3ow.s 			page 75


 2512 0018 2046     		mov	r0, r4
 2513              	.LVL222:
 417:Drivers/lvgl/src/misc/lv_txt.c ****     size_t ins_len = strlen(ins_txt);
 2514              		.loc 1 417 22 view .LVU795
 2515 001a FFF7FEFF 		bl	strlen
 2516              	.LVL223:
 422:Drivers/lvgl/src/misc/lv_txt.c **** 
 2517              		.loc 1 422 24 view .LVU796
 2518 001e 124B     		ldr	r3, .L295
 417:Drivers/lvgl/src/misc/lv_txt.c ****     size_t ins_len = strlen(ins_txt);
 2519              		.loc 1 417 22 view .LVU797
 2520 0020 0546     		mov	r5, r0
 421:Drivers/lvgl/src/misc/lv_txt.c ****     pos              = _lv_txt_encoded_get_byte_id(txt_buf, pos); /*Convert to byte index instead o
 2521              		.loc 1 421 5 is_stmt 1 view .LVU798
 422:Drivers/lvgl/src/misc/lv_txt.c **** 
 2522              		.loc 1 422 24 is_stmt 0 view .LVU799
 2523 0022 3946     		mov	r1, r7
 2524 0024 1B68     		ldr	r3, [r3]
 2525 0026 2046     		mov	r0, r4
 2526 0028 9847     		blx	r3
 2527              	.LVL224:
 421:Drivers/lvgl/src/misc/lv_txt.c ****     pos              = _lv_txt_encoded_get_byte_id(txt_buf, pos); /*Convert to byte index instead o
 2528              		.loc 1 421 12 view .LVU800
 2529 002a 05EB0807 		add	r7, r5, r8
 2530              	.LVL225:
 422:Drivers/lvgl/src/misc/lv_txt.c **** 
 2531              		.loc 1 422 5 is_stmt 1 view .LVU801
 425:Drivers/lvgl/src/misc/lv_txt.c ****     for(i = new_len; i >= pos + ins_len; i--) {
 2532              		.loc 1 425 5 view .LVU802
 426:Drivers/lvgl/src/misc/lv_txt.c ****         txt_buf[i] = txt_buf[i - ins_len];
 2533              		.loc 1 426 5 view .LVU803
 426:Drivers/lvgl/src/misc/lv_txt.c ****         txt_buf[i] = txt_buf[i - ins_len];
 2534              		.loc 1 426 24 discriminator 1 view .LVU804
 426:Drivers/lvgl/src/misc/lv_txt.c ****         txt_buf[i] = txt_buf[i - ins_len];
 2535              		.loc 1 426 31 is_stmt 0 discriminator 1 view .LVU805
 2536 002e 08EB000C 		add	ip, r8, r0
 426:Drivers/lvgl/src/misc/lv_txt.c ****         txt_buf[i] = txt_buf[i - ins_len];
 2537              		.loc 1 426 24 discriminator 1 view .LVU806
 2538 0032 6745     		cmp	r7, ip
 2539 0034 0BD3     		bcc	.L277
 2540 0036 7A1C     		adds	r2, r7, #1
 2541 0038 6319     		adds	r3, r4, r5
 2542 003a 2244     		add	r2, r2, r4
 2543 003c A8EB0405 		sub	r5, r8, r4
 2544              	.LVL226:
 2545              	.L278:
 427:Drivers/lvgl/src/misc/lv_txt.c ****     }
 2546              		.loc 1 427 9 is_stmt 1 view .LVU807
 427:Drivers/lvgl/src/misc/lv_txt.c ****     }
 2547              		.loc 1 427 29 is_stmt 0 view .LVU808
 2548 0040 13F80119 		ldrb	r1, [r3], #-1	@ zero_extendqisi2
 427:Drivers/lvgl/src/misc/lv_txt.c ****     }
 2549              		.loc 1 427 20 view .LVU809
 2550 0044 02F8011D 		strb	r1, [r2, #-1]!
 426:Drivers/lvgl/src/misc/lv_txt.c ****         txt_buf[i] = txt_buf[i - ins_len];
 2551              		.loc 1 426 43 is_stmt 1 discriminator 3 view .LVU810
 426:Drivers/lvgl/src/misc/lv_txt.c ****         txt_buf[i] = txt_buf[i - ins_len];
ARM GAS  /var/folders/lp/x54gwt890xv47sdkqj1k04q40000gn/T//ccf0N3ow.s 			page 76


 2552              		.loc 1 426 24 discriminator 1 view .LVU811
 2553 0048 E918     		adds	r1, r5, r3
 2554 004a 8C45     		cmp	ip, r1
 2555 004c F8D9     		bls	.L278
 2556              	.L277:
 431:Drivers/lvgl/src/misc/lv_txt.c **** }
 2557              		.loc 1 431 5 view .LVU812
 431:Drivers/lvgl/src/misc/lv_txt.c **** }
 2558              		.loc 1 431 29 is_stmt 0 view .LVU813
 2559 004e 2318     		adds	r3, r4, r0
 2560              	.LVL227:
 2561              	.LBB140:
 2562              	.LBI140:
 2563              		.file 4 "Drivers/lvgl/src/misc/../draw/../misc/lv_mem.h"
   1:Drivers/lvgl/src/misc/../draw/../misc/lv_mem.h **** /**
   2:Drivers/lvgl/src/misc/../draw/../misc/lv_mem.h ****  * @file lv_mem.h
   3:Drivers/lvgl/src/misc/../draw/../misc/lv_mem.h ****  *
   4:Drivers/lvgl/src/misc/../draw/../misc/lv_mem.h ****  */
   5:Drivers/lvgl/src/misc/../draw/../misc/lv_mem.h **** 
   6:Drivers/lvgl/src/misc/../draw/../misc/lv_mem.h **** #ifndef LV_MEM_H
   7:Drivers/lvgl/src/misc/../draw/../misc/lv_mem.h **** #define LV_MEM_H
   8:Drivers/lvgl/src/misc/../draw/../misc/lv_mem.h **** 
   9:Drivers/lvgl/src/misc/../draw/../misc/lv_mem.h **** #ifdef __cplusplus
  10:Drivers/lvgl/src/misc/../draw/../misc/lv_mem.h **** extern "C" {
  11:Drivers/lvgl/src/misc/../draw/../misc/lv_mem.h **** #endif
  12:Drivers/lvgl/src/misc/../draw/../misc/lv_mem.h **** 
  13:Drivers/lvgl/src/misc/../draw/../misc/lv_mem.h **** /*********************
  14:Drivers/lvgl/src/misc/../draw/../misc/lv_mem.h ****  *      INCLUDES
  15:Drivers/lvgl/src/misc/../draw/../misc/lv_mem.h ****  *********************/
  16:Drivers/lvgl/src/misc/../draw/../misc/lv_mem.h **** #include "../lv_conf_internal.h"
  17:Drivers/lvgl/src/misc/../draw/../misc/lv_mem.h **** 
  18:Drivers/lvgl/src/misc/../draw/../misc/lv_mem.h **** #include <stdint.h>
  19:Drivers/lvgl/src/misc/../draw/../misc/lv_mem.h **** #include <stddef.h>
  20:Drivers/lvgl/src/misc/../draw/../misc/lv_mem.h **** #include <string.h>
  21:Drivers/lvgl/src/misc/../draw/../misc/lv_mem.h **** 
  22:Drivers/lvgl/src/misc/../draw/../misc/lv_mem.h **** #include "lv_types.h"
  23:Drivers/lvgl/src/misc/../draw/../misc/lv_mem.h **** 
  24:Drivers/lvgl/src/misc/../draw/../misc/lv_mem.h **** /*********************
  25:Drivers/lvgl/src/misc/../draw/../misc/lv_mem.h ****  *      DEFINES
  26:Drivers/lvgl/src/misc/../draw/../misc/lv_mem.h ****  *********************/
  27:Drivers/lvgl/src/misc/../draw/../misc/lv_mem.h **** 
  28:Drivers/lvgl/src/misc/../draw/../misc/lv_mem.h **** /**********************
  29:Drivers/lvgl/src/misc/../draw/../misc/lv_mem.h ****  *      TYPEDEFS
  30:Drivers/lvgl/src/misc/../draw/../misc/lv_mem.h ****  **********************/
  31:Drivers/lvgl/src/misc/../draw/../misc/lv_mem.h **** 
  32:Drivers/lvgl/src/misc/../draw/../misc/lv_mem.h **** /**
  33:Drivers/lvgl/src/misc/../draw/../misc/lv_mem.h ****  * Heap information structure.
  34:Drivers/lvgl/src/misc/../draw/../misc/lv_mem.h ****  */
  35:Drivers/lvgl/src/misc/../draw/../misc/lv_mem.h **** typedef struct {
  36:Drivers/lvgl/src/misc/../draw/../misc/lv_mem.h ****     uint32_t total_size; /**< Total heap size*/
  37:Drivers/lvgl/src/misc/../draw/../misc/lv_mem.h ****     uint32_t free_cnt;
  38:Drivers/lvgl/src/misc/../draw/../misc/lv_mem.h ****     uint32_t free_size; /**< Size of available memory*/
  39:Drivers/lvgl/src/misc/../draw/../misc/lv_mem.h ****     uint32_t free_biggest_size;
  40:Drivers/lvgl/src/misc/../draw/../misc/lv_mem.h ****     uint32_t used_cnt;
  41:Drivers/lvgl/src/misc/../draw/../misc/lv_mem.h ****     uint32_t max_used; /**< Max size of Heap memory used*/
  42:Drivers/lvgl/src/misc/../draw/../misc/lv_mem.h ****     uint8_t used_pct; /**< Percentage used*/
  43:Drivers/lvgl/src/misc/../draw/../misc/lv_mem.h ****     uint8_t frag_pct; /**< Amount of fragmentation*/
ARM GAS  /var/folders/lp/x54gwt890xv47sdkqj1k04q40000gn/T//ccf0N3ow.s 			page 77


  44:Drivers/lvgl/src/misc/../draw/../misc/lv_mem.h **** } lv_mem_monitor_t;
  45:Drivers/lvgl/src/misc/../draw/../misc/lv_mem.h **** 
  46:Drivers/lvgl/src/misc/../draw/../misc/lv_mem.h **** typedef struct {
  47:Drivers/lvgl/src/misc/../draw/../misc/lv_mem.h ****     void * p;
  48:Drivers/lvgl/src/misc/../draw/../misc/lv_mem.h ****     uint16_t size;
  49:Drivers/lvgl/src/misc/../draw/../misc/lv_mem.h ****     uint8_t used : 1;
  50:Drivers/lvgl/src/misc/../draw/../misc/lv_mem.h **** } lv_mem_buf_t;
  51:Drivers/lvgl/src/misc/../draw/../misc/lv_mem.h **** 
  52:Drivers/lvgl/src/misc/../draw/../misc/lv_mem.h **** typedef lv_mem_buf_t lv_mem_buf_arr_t[LV_MEM_BUF_MAX_NUM];
  53:Drivers/lvgl/src/misc/../draw/../misc/lv_mem.h **** 
  54:Drivers/lvgl/src/misc/../draw/../misc/lv_mem.h **** /**********************
  55:Drivers/lvgl/src/misc/../draw/../misc/lv_mem.h ****  * GLOBAL PROTOTYPES
  56:Drivers/lvgl/src/misc/../draw/../misc/lv_mem.h ****  **********************/
  57:Drivers/lvgl/src/misc/../draw/../misc/lv_mem.h **** 
  58:Drivers/lvgl/src/misc/../draw/../misc/lv_mem.h **** /**
  59:Drivers/lvgl/src/misc/../draw/../misc/lv_mem.h ****  * Initialize the dyn_mem module (work memory and other variables)
  60:Drivers/lvgl/src/misc/../draw/../misc/lv_mem.h ****  */
  61:Drivers/lvgl/src/misc/../draw/../misc/lv_mem.h **** void lv_mem_init(void);
  62:Drivers/lvgl/src/misc/../draw/../misc/lv_mem.h **** 
  63:Drivers/lvgl/src/misc/../draw/../misc/lv_mem.h **** /**
  64:Drivers/lvgl/src/misc/../draw/../misc/lv_mem.h ****  * Clean up the memory buffer which frees all the allocated memories.
  65:Drivers/lvgl/src/misc/../draw/../misc/lv_mem.h ****  * @note It work only if `LV_MEM_CUSTOM == 0`
  66:Drivers/lvgl/src/misc/../draw/../misc/lv_mem.h ****  */
  67:Drivers/lvgl/src/misc/../draw/../misc/lv_mem.h **** void lv_mem_deinit(void);
  68:Drivers/lvgl/src/misc/../draw/../misc/lv_mem.h **** 
  69:Drivers/lvgl/src/misc/../draw/../misc/lv_mem.h **** /**
  70:Drivers/lvgl/src/misc/../draw/../misc/lv_mem.h ****  * Allocate a memory dynamically
  71:Drivers/lvgl/src/misc/../draw/../misc/lv_mem.h ****  * @param size size of the memory to allocate in bytes
  72:Drivers/lvgl/src/misc/../draw/../misc/lv_mem.h ****  * @return pointer to the allocated memory
  73:Drivers/lvgl/src/misc/../draw/../misc/lv_mem.h ****  */
  74:Drivers/lvgl/src/misc/../draw/../misc/lv_mem.h **** void * lv_mem_alloc(size_t size);
  75:Drivers/lvgl/src/misc/../draw/../misc/lv_mem.h **** 
  76:Drivers/lvgl/src/misc/../draw/../misc/lv_mem.h **** /**
  77:Drivers/lvgl/src/misc/../draw/../misc/lv_mem.h ****  * Free an allocated data
  78:Drivers/lvgl/src/misc/../draw/../misc/lv_mem.h ****  * @param data pointer to an allocated memory
  79:Drivers/lvgl/src/misc/../draw/../misc/lv_mem.h ****  */
  80:Drivers/lvgl/src/misc/../draw/../misc/lv_mem.h **** void lv_mem_free(void * data);
  81:Drivers/lvgl/src/misc/../draw/../misc/lv_mem.h **** 
  82:Drivers/lvgl/src/misc/../draw/../misc/lv_mem.h **** /**
  83:Drivers/lvgl/src/misc/../draw/../misc/lv_mem.h ****  * Reallocate a memory with a new size. The old content will be kept.
  84:Drivers/lvgl/src/misc/../draw/../misc/lv_mem.h ****  * @param data pointer to an allocated memory.
  85:Drivers/lvgl/src/misc/../draw/../misc/lv_mem.h ****  * Its content will be copied to the new memory block and freed
  86:Drivers/lvgl/src/misc/../draw/../misc/lv_mem.h ****  * @param new_size the desired new size in byte
  87:Drivers/lvgl/src/misc/../draw/../misc/lv_mem.h ****  * @return pointer to the new memory, NULL on failure
  88:Drivers/lvgl/src/misc/../draw/../misc/lv_mem.h ****  */
  89:Drivers/lvgl/src/misc/../draw/../misc/lv_mem.h **** void * lv_mem_realloc(void * data_p, size_t new_size);
  90:Drivers/lvgl/src/misc/../draw/../misc/lv_mem.h **** 
  91:Drivers/lvgl/src/misc/../draw/../misc/lv_mem.h **** /**
  92:Drivers/lvgl/src/misc/../draw/../misc/lv_mem.h ****  *
  93:Drivers/lvgl/src/misc/../draw/../misc/lv_mem.h ****  * @return
  94:Drivers/lvgl/src/misc/../draw/../misc/lv_mem.h ****  */
  95:Drivers/lvgl/src/misc/../draw/../misc/lv_mem.h **** lv_res_t lv_mem_test(void);
  96:Drivers/lvgl/src/misc/../draw/../misc/lv_mem.h **** 
  97:Drivers/lvgl/src/misc/../draw/../misc/lv_mem.h **** /**
  98:Drivers/lvgl/src/misc/../draw/../misc/lv_mem.h ****  * Give information about the work memory of dynamic allocation
  99:Drivers/lvgl/src/misc/../draw/../misc/lv_mem.h ****  * @param mon_p pointer to a lv_mem_monitor_t variable,
 100:Drivers/lvgl/src/misc/../draw/../misc/lv_mem.h ****  *              the result of the analysis will be stored here
ARM GAS  /var/folders/lp/x54gwt890xv47sdkqj1k04q40000gn/T//ccf0N3ow.s 			page 78


 101:Drivers/lvgl/src/misc/../draw/../misc/lv_mem.h ****  */
 102:Drivers/lvgl/src/misc/../draw/../misc/lv_mem.h **** void lv_mem_monitor(lv_mem_monitor_t * mon_p);
 103:Drivers/lvgl/src/misc/../draw/../misc/lv_mem.h **** 
 104:Drivers/lvgl/src/misc/../draw/../misc/lv_mem.h **** 
 105:Drivers/lvgl/src/misc/../draw/../misc/lv_mem.h **** /**
 106:Drivers/lvgl/src/misc/../draw/../misc/lv_mem.h ****  * Get a temporal buffer with the given size.
 107:Drivers/lvgl/src/misc/../draw/../misc/lv_mem.h ****  * @param size the required size
 108:Drivers/lvgl/src/misc/../draw/../misc/lv_mem.h ****  */
 109:Drivers/lvgl/src/misc/../draw/../misc/lv_mem.h **** void * lv_mem_buf_get(uint32_t size);
 110:Drivers/lvgl/src/misc/../draw/../misc/lv_mem.h **** 
 111:Drivers/lvgl/src/misc/../draw/../misc/lv_mem.h **** /**
 112:Drivers/lvgl/src/misc/../draw/../misc/lv_mem.h ****  * Release a memory buffer
 113:Drivers/lvgl/src/misc/../draw/../misc/lv_mem.h ****  * @param p buffer to release
 114:Drivers/lvgl/src/misc/../draw/../misc/lv_mem.h ****  */
 115:Drivers/lvgl/src/misc/../draw/../misc/lv_mem.h **** void lv_mem_buf_release(void * p);
 116:Drivers/lvgl/src/misc/../draw/../misc/lv_mem.h **** 
 117:Drivers/lvgl/src/misc/../draw/../misc/lv_mem.h **** /**
 118:Drivers/lvgl/src/misc/../draw/../misc/lv_mem.h ****  * Free all memory buffers
 119:Drivers/lvgl/src/misc/../draw/../misc/lv_mem.h ****  */
 120:Drivers/lvgl/src/misc/../draw/../misc/lv_mem.h **** void lv_mem_buf_free_all(void);
 121:Drivers/lvgl/src/misc/../draw/../misc/lv_mem.h **** 
 122:Drivers/lvgl/src/misc/../draw/../misc/lv_mem.h **** //! @cond Doxygen_Suppress
 123:Drivers/lvgl/src/misc/../draw/../misc/lv_mem.h **** 
 124:Drivers/lvgl/src/misc/../draw/../misc/lv_mem.h **** #if LV_MEMCPY_MEMSET_STD
 125:Drivers/lvgl/src/misc/../draw/../misc/lv_mem.h **** 
 126:Drivers/lvgl/src/misc/../draw/../misc/lv_mem.h **** /**
 127:Drivers/lvgl/src/misc/../draw/../misc/lv_mem.h ****  * Wrapper for the standard memcpy
 128:Drivers/lvgl/src/misc/../draw/../misc/lv_mem.h ****  * @param dst pointer to the destination buffer
 129:Drivers/lvgl/src/misc/../draw/../misc/lv_mem.h ****  * @param src pointer to the source buffer
 130:Drivers/lvgl/src/misc/../draw/../misc/lv_mem.h ****  * @param len number of byte to copy
 131:Drivers/lvgl/src/misc/../draw/../misc/lv_mem.h ****  */
 132:Drivers/lvgl/src/misc/../draw/../misc/lv_mem.h **** static inline void * lv_memcpy(void * dst, const void * src, size_t len)
 133:Drivers/lvgl/src/misc/../draw/../misc/lv_mem.h **** {
 134:Drivers/lvgl/src/misc/../draw/../misc/lv_mem.h ****     return memcpy(dst, src, len);
 135:Drivers/lvgl/src/misc/../draw/../misc/lv_mem.h **** }
 136:Drivers/lvgl/src/misc/../draw/../misc/lv_mem.h **** 
 137:Drivers/lvgl/src/misc/../draw/../misc/lv_mem.h **** /**
 138:Drivers/lvgl/src/misc/../draw/../misc/lv_mem.h ****  * Wrapper for the standard memcpy
 139:Drivers/lvgl/src/misc/../draw/../misc/lv_mem.h ****  * @param dst pointer to the destination buffer
 140:Drivers/lvgl/src/misc/../draw/../misc/lv_mem.h ****  * @param src pointer to the source buffer
 141:Drivers/lvgl/src/misc/../draw/../misc/lv_mem.h ****  * @param len number of byte to copy
 142:Drivers/lvgl/src/misc/../draw/../misc/lv_mem.h ****  */
 143:Drivers/lvgl/src/misc/../draw/../misc/lv_mem.h **** static inline void * lv_memcpy_small(void * dst, const void * src, size_t len)
 144:Drivers/lvgl/src/misc/../draw/../misc/lv_mem.h **** {
 145:Drivers/lvgl/src/misc/../draw/../misc/lv_mem.h ****     return memcpy(dst, src, len);
 146:Drivers/lvgl/src/misc/../draw/../misc/lv_mem.h **** }
 147:Drivers/lvgl/src/misc/../draw/../misc/lv_mem.h **** 
 148:Drivers/lvgl/src/misc/../draw/../misc/lv_mem.h **** /**
 149:Drivers/lvgl/src/misc/../draw/../misc/lv_mem.h ****  * Wrapper for the standard memset
 150:Drivers/lvgl/src/misc/../draw/../misc/lv_mem.h ****  * @param dst pointer to the destination buffer
 151:Drivers/lvgl/src/misc/../draw/../misc/lv_mem.h ****  * @param v value to set [0..255]
 152:Drivers/lvgl/src/misc/../draw/../misc/lv_mem.h ****  * @param len number of byte to set
 153:Drivers/lvgl/src/misc/../draw/../misc/lv_mem.h ****  */
 154:Drivers/lvgl/src/misc/../draw/../misc/lv_mem.h **** static inline void lv_memset(void * dst, uint8_t v, size_t len)
 155:Drivers/lvgl/src/misc/../draw/../misc/lv_mem.h **** {
 156:Drivers/lvgl/src/misc/../draw/../misc/lv_mem.h ****     memset(dst, v, len);
 157:Drivers/lvgl/src/misc/../draw/../misc/lv_mem.h **** }
ARM GAS  /var/folders/lp/x54gwt890xv47sdkqj1k04q40000gn/T//ccf0N3ow.s 			page 79


 158:Drivers/lvgl/src/misc/../draw/../misc/lv_mem.h **** 
 159:Drivers/lvgl/src/misc/../draw/../misc/lv_mem.h **** /**
 160:Drivers/lvgl/src/misc/../draw/../misc/lv_mem.h ****  * Wrapper for the standard memset with fixed 0x00 value
 161:Drivers/lvgl/src/misc/../draw/../misc/lv_mem.h ****  * @param dst pointer to the destination buffer
 162:Drivers/lvgl/src/misc/../draw/../misc/lv_mem.h ****  * @param len number of byte to set
 163:Drivers/lvgl/src/misc/../draw/../misc/lv_mem.h ****  */
 164:Drivers/lvgl/src/misc/../draw/../misc/lv_mem.h **** static inline void lv_memset_00(void * dst, size_t len)
 165:Drivers/lvgl/src/misc/../draw/../misc/lv_mem.h **** {
 166:Drivers/lvgl/src/misc/../draw/../misc/lv_mem.h ****     memset(dst, 0x00, len);
 167:Drivers/lvgl/src/misc/../draw/../misc/lv_mem.h **** }
 168:Drivers/lvgl/src/misc/../draw/../misc/lv_mem.h **** 
 169:Drivers/lvgl/src/misc/../draw/../misc/lv_mem.h **** /**
 170:Drivers/lvgl/src/misc/../draw/../misc/lv_mem.h ****  * Wrapper for the standard memset with fixed 0xFF value
 171:Drivers/lvgl/src/misc/../draw/../misc/lv_mem.h ****  * @param dst pointer to the destination buffer
 172:Drivers/lvgl/src/misc/../draw/../misc/lv_mem.h ****  * @param len number of byte to set
 173:Drivers/lvgl/src/misc/../draw/../misc/lv_mem.h ****  */
 174:Drivers/lvgl/src/misc/../draw/../misc/lv_mem.h **** static inline void lv_memset_ff(void * dst, size_t len)
 175:Drivers/lvgl/src/misc/../draw/../misc/lv_mem.h **** {
 176:Drivers/lvgl/src/misc/../draw/../misc/lv_mem.h ****     memset(dst, 0xFF, len);
 177:Drivers/lvgl/src/misc/../draw/../misc/lv_mem.h **** }
 178:Drivers/lvgl/src/misc/../draw/../misc/lv_mem.h **** 
 179:Drivers/lvgl/src/misc/../draw/../misc/lv_mem.h **** #else
 180:Drivers/lvgl/src/misc/../draw/../misc/lv_mem.h **** /**
 181:Drivers/lvgl/src/misc/../draw/../misc/lv_mem.h ****  * Same as `memcpy` but optimized for 4 byte operation.
 182:Drivers/lvgl/src/misc/../draw/../misc/lv_mem.h ****  * @param dst pointer to the destination buffer
 183:Drivers/lvgl/src/misc/../draw/../misc/lv_mem.h ****  * @param src pointer to the source buffer
 184:Drivers/lvgl/src/misc/../draw/../misc/lv_mem.h ****  * @param len number of byte to copy
 185:Drivers/lvgl/src/misc/../draw/../misc/lv_mem.h ****  */
 186:Drivers/lvgl/src/misc/../draw/../misc/lv_mem.h **** void * /* LV_ATTRIBUTE_FAST_MEM */ lv_memcpy(void * dst, const void * src, size_t len);
 187:Drivers/lvgl/src/misc/../draw/../misc/lv_mem.h **** 
 188:Drivers/lvgl/src/misc/../draw/../misc/lv_mem.h **** /**
 189:Drivers/lvgl/src/misc/../draw/../misc/lv_mem.h ****  * Same as `memcpy` but optimized to copy only a few bytes.
 190:Drivers/lvgl/src/misc/../draw/../misc/lv_mem.h ****  * @param dst pointer to the destination buffer
 191:Drivers/lvgl/src/misc/../draw/../misc/lv_mem.h ****  * @param src pointer to the source buffer
 192:Drivers/lvgl/src/misc/../draw/../misc/lv_mem.h ****  * @param len number of byte to copy
 193:Drivers/lvgl/src/misc/../draw/../misc/lv_mem.h ****  */
 194:Drivers/lvgl/src/misc/../draw/../misc/lv_mem.h **** static inline void * LV_ATTRIBUTE_FAST_MEM lv_memcpy_small(void * dst, const void * src, size_t len
 2564              		.loc 4 194 44 is_stmt 1 view .LVU814
 2565              	.LBB141:
 195:Drivers/lvgl/src/misc/../draw/../misc/lv_mem.h **** {
 196:Drivers/lvgl/src/misc/../draw/../misc/lv_mem.h ****     uint8_t * d8 = (uint8_t *)dst;
 2566              		.loc 4 196 5 view .LVU815
 197:Drivers/lvgl/src/misc/../draw/../misc/lv_mem.h ****     const uint8_t * s8 = (const uint8_t *)src;
 2567              		.loc 4 197 5 view .LVU816
 198:Drivers/lvgl/src/misc/../draw/../misc/lv_mem.h **** 
 199:Drivers/lvgl/src/misc/../draw/../misc/lv_mem.h ****     while(len) {
 2568              		.loc 4 199 5 view .LVU817
 2569              		.loc 4 199 11 view .LVU818
 2570 0050 721E     		subs	r2, r6, #1
 2571 0052 9844     		add	r8, r8, r3
 2572              	.LVL228:
 2573              	.L279:
 200:Drivers/lvgl/src/misc/../draw/../misc/lv_mem.h ****         *d8 = *s8;
 2574              		.loc 4 200 9 view .LVU819
 2575              		.loc 4 200 15 is_stmt 0 view .LVU820
 2576 0054 12F8011F 		ldrb	r1, [r2, #1]!	@ zero_extendqisi2
 2577              	.LVL229:
ARM GAS  /var/folders/lp/x54gwt890xv47sdkqj1k04q40000gn/T//ccf0N3ow.s 			page 80


 2578              		.loc 4 200 13 view .LVU821
 2579 0058 03F8011B 		strb	r1, [r3], #1
 2580              	.LVL230:
 201:Drivers/lvgl/src/misc/../draw/../misc/lv_mem.h ****         d8++;
 2581              		.loc 4 201 9 is_stmt 1 view .LVU822
 202:Drivers/lvgl/src/misc/../draw/../misc/lv_mem.h ****         s8++;
 2582              		.loc 4 202 9 view .LVU823
 203:Drivers/lvgl/src/misc/../draw/../misc/lv_mem.h ****         len--;
 2583              		.loc 4 203 9 view .LVU824
 199:Drivers/lvgl/src/misc/../draw/../misc/lv_mem.h ****         *d8 = *s8;
 2584              		.loc 4 199 11 view .LVU825
 2585 005c 4345     		cmp	r3, r8
 2586 005e F9D1     		bne	.L279
 2587              	.LVL231:
 2588              	.L275:
 199:Drivers/lvgl/src/misc/../draw/../misc/lv_mem.h ****         *d8 = *s8;
 2589              		.loc 4 199 11 is_stmt 0 view .LVU826
 2590              	.LBE141:
 2591              	.LBE140:
 432:Drivers/lvgl/src/misc/lv_txt.c **** 
 2592              		.loc 1 432 1 view .LVU827
 2593 0060 BDE8F081 		pop	{r4, r5, r6, r7, r8, pc}
 2594              	.LVL232:
 2595              	.L292:
 2596              		.cfi_def_cfa_offset 0
 2597              		.cfi_restore 4
 2598              		.cfi_restore 5
 2599              		.cfi_restore 6
 2600              		.cfi_restore 7
 2601              		.cfi_restore 8
 2602              		.cfi_restore 14
 432:Drivers/lvgl/src/misc/lv_txt.c **** 
 2603              		.loc 1 432 1 view .LVU828
 2604 0064 7047     		bx	lr
 2605              	.L296:
 2606 0066 00BF     		.align	2
 2607              	.L295:
 2608 0068 00000000 		.word	_lv_txt_encoded_get_byte_id
 2609              		.cfi_endproc
 2610              	.LFE60:
 2612              		.section	.text._lv_txt_cut,"ax",%progbits
 2613              		.align	1
 2614              		.p2align 2,,3
 2615              		.global	_lv_txt_cut
 2616              		.syntax unified
 2617              		.thumb
 2618              		.thumb_func
 2620              	_lv_txt_cut:
 2621              	.LVL233:
 2622              	.LFB61:
 435:Drivers/lvgl/src/misc/lv_txt.c ****     if(txt == NULL) return;
 2623              		.loc 1 435 1 is_stmt 1 view -0
 2624              		.cfi_startproc
 2625              		@ args = 0, pretend = 0, frame = 0
 2626              		@ frame_needed = 0, uses_anonymous_args = 0
 436:Drivers/lvgl/src/misc/lv_txt.c **** 
 2627              		.loc 1 436 5 view .LVU830
ARM GAS  /var/folders/lp/x54gwt890xv47sdkqj1k04q40000gn/T//ccf0N3ow.s 			page 81


 436:Drivers/lvgl/src/misc/lv_txt.c **** 
 2628              		.loc 1 436 7 is_stmt 0 view .LVU831
 2629 0000 18B3     		cbz	r0, .L305
 438:Drivers/lvgl/src/misc/lv_txt.c **** 
 2630              		.loc 1 438 5 is_stmt 1 view .LVU832
 435:Drivers/lvgl/src/misc/lv_txt.c ****     if(txt == NULL) return;
 2631              		.loc 1 435 1 is_stmt 0 view .LVU833
 2632 0002 2DE9F041 		push	{r4, r5, r6, r7, r8, lr}
 2633              		.cfi_def_cfa_offset 24
 2634              		.cfi_offset 4, -24
 2635              		.cfi_offset 5, -20
 2636              		.cfi_offset 6, -16
 2637              		.cfi_offset 7, -12
 2638              		.cfi_offset 8, -8
 2639              		.cfi_offset 14, -4
 2640 0006 9046     		mov	r8, r2
 2641 0008 0E46     		mov	r6, r1
 2642 000a 0546     		mov	r5, r0
 438:Drivers/lvgl/src/misc/lv_txt.c **** 
 2643              		.loc 1 438 22 view .LVU834
 2644 000c FFF7FEFF 		bl	strlen
 2645              	.LVL234:
 440:Drivers/lvgl/src/misc/lv_txt.c ****     len = _lv_txt_encoded_get_byte_id(&txt[pos], len);
 2646              		.loc 1 440 11 view .LVU835
 2647 0010 0E4F     		ldr	r7, .L308
 2648 0012 3146     		mov	r1, r6
 2649 0014 3B68     		ldr	r3, [r7]
 438:Drivers/lvgl/src/misc/lv_txt.c **** 
 2650              		.loc 1 438 22 view .LVU836
 2651 0016 0646     		mov	r6, r0
 2652              	.LVL235:
 440:Drivers/lvgl/src/misc/lv_txt.c ****     len = _lv_txt_encoded_get_byte_id(&txt[pos], len);
 2653              		.loc 1 440 5 is_stmt 1 view .LVU837
 440:Drivers/lvgl/src/misc/lv_txt.c ****     len = _lv_txt_encoded_get_byte_id(&txt[pos], len);
 2654              		.loc 1 440 11 is_stmt 0 view .LVU838
 2655 0018 2846     		mov	r0, r5
 2656              	.LVL236:
 440:Drivers/lvgl/src/misc/lv_txt.c ****     len = _lv_txt_encoded_get_byte_id(&txt[pos], len);
 2657              		.loc 1 440 11 view .LVU839
 2658 001a 9847     		blx	r3
 2659              	.LVL237:
 441:Drivers/lvgl/src/misc/lv_txt.c **** 
 2660              		.loc 1 441 11 view .LVU840
 2661 001c 3B68     		ldr	r3, [r7]
 440:Drivers/lvgl/src/misc/lv_txt.c ****     len = _lv_txt_encoded_get_byte_id(&txt[pos], len);
 2662              		.loc 1 440 11 view .LVU841
 2663 001e 0446     		mov	r4, r0
 2664              	.LVL238:
 441:Drivers/lvgl/src/misc/lv_txt.c **** 
 2665              		.loc 1 441 5 is_stmt 1 view .LVU842
 441:Drivers/lvgl/src/misc/lv_txt.c **** 
 2666              		.loc 1 441 11 is_stmt 0 view .LVU843
 2667 0020 4146     		mov	r1, r8
 2668 0022 2818     		adds	r0, r5, r0
 2669              	.LVL239:
 441:Drivers/lvgl/src/misc/lv_txt.c **** 
 2670              		.loc 1 441 11 view .LVU844
ARM GAS  /var/folders/lp/x54gwt890xv47sdkqj1k04q40000gn/T//ccf0N3ow.s 			page 82


 2671 0024 9847     		blx	r3
 2672              	.LVL240:
 444:Drivers/lvgl/src/misc/lv_txt.c ****     for(i = pos; i <= old_len - len; i++) {
 2673              		.loc 1 444 5 is_stmt 1 view .LVU845
 445:Drivers/lvgl/src/misc/lv_txt.c ****         txt[i] = txt[i + len];
 2674              		.loc 1 445 5 view .LVU846
 445:Drivers/lvgl/src/misc/lv_txt.c ****         txt[i] = txt[i + len];
 2675              		.loc 1 445 20 discriminator 1 view .LVU847
 445:Drivers/lvgl/src/misc/lv_txt.c ****         txt[i] = txt[i + len];
 2676              		.loc 1 445 31 is_stmt 0 discriminator 1 view .LVU848
 2677 0026 A6EB000C 		sub	ip, r6, r0
 445:Drivers/lvgl/src/misc/lv_txt.c ****         txt[i] = txt[i + len];
 2678              		.loc 1 445 20 discriminator 1 view .LVU849
 2679 002a 6445     		cmp	r4, ip
 2680 002c 0BD8     		bhi	.L297
 2681 002e 2318     		adds	r3, r4, r0
 2682 0030 621E     		subs	r2, r4, #1
 2683 0032 2B44     		add	r3, r3, r5
 2684 0034 2A44     		add	r2, r2, r5
 2685 0036 2C18     		adds	r4, r5, r0
 2686              	.LVL241:
 2687              	.L299:
 446:Drivers/lvgl/src/misc/lv_txt.c ****     }
 2688              		.loc 1 446 9 is_stmt 1 view .LVU850
 446:Drivers/lvgl/src/misc/lv_txt.c ****     }
 2689              		.loc 1 446 21 is_stmt 0 view .LVU851
 2690 0038 13F8011B 		ldrb	r1, [r3], #1	@ zero_extendqisi2
 2691              	.LVL242:
 446:Drivers/lvgl/src/misc/lv_txt.c ****     }
 2692              		.loc 1 446 16 view .LVU852
 2693 003c 02F8011F 		strb	r1, [r2, #1]!
 445:Drivers/lvgl/src/misc/lv_txt.c ****         txt[i] = txt[i + len];
 2694              		.loc 1 445 39 is_stmt 1 discriminator 3 view .LVU853
 2695              	.LVL243:
 445:Drivers/lvgl/src/misc/lv_txt.c ****         txt[i] = txt[i + len];
 2696              		.loc 1 445 20 discriminator 1 view .LVU854
 2697 0040 191B     		subs	r1, r3, r4
 2698 0042 8C45     		cmp	ip, r1
 2699 0044 F8D2     		bcs	.L299
 2700              	.LVL244:
 2701              	.L297:
 448:Drivers/lvgl/src/misc/lv_txt.c **** 
 2702              		.loc 1 448 1 is_stmt 0 view .LVU855
 2703 0046 BDE8F081 		pop	{r4, r5, r6, r7, r8, pc}
 2704              	.LVL245:
 2705              	.L305:
 2706              		.cfi_def_cfa_offset 0
 2707              		.cfi_restore 4
 2708              		.cfi_restore 5
 2709              		.cfi_restore 6
 2710              		.cfi_restore 7
 2711              		.cfi_restore 8
 2712              		.cfi_restore 14
 448:Drivers/lvgl/src/misc/lv_txt.c **** 
 2713              		.loc 1 448 1 view .LVU856
 2714 004a 7047     		bx	lr
 2715              	.L309:
ARM GAS  /var/folders/lp/x54gwt890xv47sdkqj1k04q40000gn/T//ccf0N3ow.s 			page 83


 2716              		.align	2
 2717              	.L308:
 2718 004c 00000000 		.word	_lv_txt_encoded_get_byte_id
 2719              		.cfi_endproc
 2720              	.LFE61:
 2722              		.section	.text._lv_txt_set_text_vfmt,"ax",%progbits
 2723              		.align	1
 2724              		.p2align 2,,3
 2725              		.global	_lv_txt_set_text_vfmt
 2726              		.syntax unified
 2727              		.thumb
 2728              		.thumb_func
 2730              	_lv_txt_set_text_vfmt:
 2731              	.LVL246:
 2732              	.LFB62:
 451:Drivers/lvgl/src/misc/lv_txt.c ****     /*Allocate space for the new text by using trick from C99 standard section 7.19.6.12*/
 2733              		.loc 1 451 1 is_stmt 1 view -0
 2734              		.cfi_startproc
 2735              		@ args = 0, pretend = 0, frame = 8
 2736              		@ frame_needed = 0, uses_anonymous_args = 0
 453:Drivers/lvgl/src/misc/lv_txt.c ****     va_copy(ap_copy, ap);
 2737              		.loc 1 453 5 view .LVU858
 454:Drivers/lvgl/src/misc/lv_txt.c ****     uint32_t len = lv_vsnprintf(NULL, 0, fmt, ap_copy);
 2738              		.loc 1 454 5 view .LVU859
 451:Drivers/lvgl/src/misc/lv_txt.c ****     /*Allocate space for the new text by using trick from C99 standard section 7.19.6.12*/
 2739              		.loc 1 451 1 is_stmt 0 view .LVU860
 2740 0000 2DE9F041 		push	{r4, r5, r6, r7, r8, lr}
 2741              		.cfi_def_cfa_offset 24
 2742              		.cfi_offset 4, -24
 2743              		.cfi_offset 5, -20
 2744              		.cfi_offset 6, -16
 2745              		.cfi_offset 7, -12
 2746              		.cfi_offset 8, -8
 2747              		.cfi_offset 14, -4
 2748 0004 0C46     		mov	r4, r1
 2749              	.LVL247:
 451:Drivers/lvgl/src/misc/lv_txt.c ****     /*Allocate space for the new text by using trick from C99 standard section 7.19.6.12*/
 2750              		.loc 1 451 1 view .LVU861
 2751 0006 82B0     		sub	sp, sp, #8
 2752              		.cfi_def_cfa_offset 32
 455:Drivers/lvgl/src/misc/lv_txt.c ****     va_end(ap_copy);
 2753              		.loc 1 455 20 view .LVU862
 2754 0008 0021     		movs	r1, #0
 2755 000a 0246     		mov	r2, r0
 451:Drivers/lvgl/src/misc/lv_txt.c ****     /*Allocate space for the new text by using trick from C99 standard section 7.19.6.12*/
 2756              		.loc 1 451 1 view .LVU863
 2757 000c 0746     		mov	r7, r0
 2758              	.LVL248:
 455:Drivers/lvgl/src/misc/lv_txt.c ****     va_end(ap_copy);
 2759              		.loc 1 455 20 view .LVU864
 2760 000e 2346     		mov	r3, r4
 2761 0010 0846     		mov	r0, r1
 2762              	.LVL249:
 454:Drivers/lvgl/src/misc/lv_txt.c ****     uint32_t len = lv_vsnprintf(NULL, 0, fmt, ap_copy);
 2763              		.loc 1 454 5 view .LVU865
 2764 0012 0194     		str	r4, [sp, #4]
 455:Drivers/lvgl/src/misc/lv_txt.c ****     va_end(ap_copy);
ARM GAS  /var/folders/lp/x54gwt890xv47sdkqj1k04q40000gn/T//ccf0N3ow.s 			page 84


 2765              		.loc 1 455 5 is_stmt 1 view .LVU866
 455:Drivers/lvgl/src/misc/lv_txt.c ****     va_end(ap_copy);
 2766              		.loc 1 455 20 is_stmt 0 view .LVU867
 2767 0014 FFF7FEFF 		bl	lv_vsnprintf
 2768              	.LVL250:
 480:Drivers/lvgl/src/misc/lv_txt.c ****     LV_ASSERT_MALLOC(text);
 2769              		.loc 1 480 29 view .LVU868
 2770 0018 00F10108 		add	r8, r0, #1
 455:Drivers/lvgl/src/misc/lv_txt.c ****     va_end(ap_copy);
 2771              		.loc 1 455 20 view .LVU869
 2772 001c 0646     		mov	r6, r0
 2773              	.LVL251:
 456:Drivers/lvgl/src/misc/lv_txt.c **** 
 2774              		.loc 1 456 5 is_stmt 1 view .LVU870
 458:Drivers/lvgl/src/misc/lv_txt.c **** #if LV_USE_ARABIC_PERSIAN_CHARS
 2775              		.loc 1 458 5 view .LVU871
 480:Drivers/lvgl/src/misc/lv_txt.c ****     LV_ASSERT_MALLOC(text);
 2776              		.loc 1 480 5 view .LVU872
 480:Drivers/lvgl/src/misc/lv_txt.c ****     LV_ASSERT_MALLOC(text);
 2777              		.loc 1 480 12 is_stmt 0 view .LVU873
 2778 001e 4046     		mov	r0, r8
 2779              	.LVL252:
 480:Drivers/lvgl/src/misc/lv_txt.c ****     LV_ASSERT_MALLOC(text);
 2780              		.loc 1 480 12 view .LVU874
 2781 0020 FFF7FEFF 		bl	lv_mem_alloc
 2782              	.LVL253:
 481:Drivers/lvgl/src/misc/lv_txt.c ****     if(text == NULL) {
 2783              		.loc 1 481 5 is_stmt 1 view .LVU875
 481:Drivers/lvgl/src/misc/lv_txt.c ****     if(text == NULL) {
 2784              		.loc 1 481 5 view .LVU876
 2785 0024 58B1     		cbz	r0, .L312
 487:Drivers/lvgl/src/misc/lv_txt.c **** #endif
 2786              		.loc 1 487 5 is_stmt 0 view .LVU877
 2787 0026 2346     		mov	r3, r4
 485:Drivers/lvgl/src/misc/lv_txt.c **** 
 2788              		.loc 1 485 15 view .LVU878
 2789 0028 0024     		movs	r4, #0
 2790              	.LVL254:
 485:Drivers/lvgl/src/misc/lv_txt.c **** 
 2791              		.loc 1 485 15 view .LVU879
 2792 002a 8455     		strb	r4, [r0, r6]
 487:Drivers/lvgl/src/misc/lv_txt.c **** #endif
 2793              		.loc 1 487 5 view .LVU880
 2794 002c 3A46     		mov	r2, r7
 2795 002e 4146     		mov	r1, r8
 2796 0030 0546     		mov	r5, r0
 481:Drivers/lvgl/src/misc/lv_txt.c ****     if(text == NULL) {
 2797              		.loc 1 481 5 is_stmt 1 discriminator 2 view .LVU881
 481:Drivers/lvgl/src/misc/lv_txt.c ****     if(text == NULL) {
 2798              		.loc 1 481 27 discriminator 2 view .LVU882
 482:Drivers/lvgl/src/misc/lv_txt.c ****         return NULL;
 2799              		.loc 1 482 5 view .LVU883
 485:Drivers/lvgl/src/misc/lv_txt.c **** 
 2800              		.loc 1 485 5 view .LVU884
 487:Drivers/lvgl/src/misc/lv_txt.c **** #endif
 2801              		.loc 1 487 5 view .LVU885
 2802 0032 FFF7FEFF 		bl	lv_vsnprintf
ARM GAS  /var/folders/lp/x54gwt890xv47sdkqj1k04q40000gn/T//ccf0N3ow.s 			page 85


 2803              	.LVL255:
 490:Drivers/lvgl/src/misc/lv_txt.c **** }
 2804              		.loc 1 490 5 view .LVU886
 491:Drivers/lvgl/src/misc/lv_txt.c **** 
 2805              		.loc 1 491 1 is_stmt 0 view .LVU887
 2806 0036 2846     		mov	r0, r5
 2807 0038 02B0     		add	sp, sp, #8
 2808              		.cfi_remember_state
 2809              		.cfi_def_cfa_offset 24
 2810              		@ sp needed
 2811 003a BDE8F081 		pop	{r4, r5, r6, r7, r8, pc}
 2812              	.LVL256:
 2813              	.L312:
 2814              		.cfi_restore_state
 481:Drivers/lvgl/src/misc/lv_txt.c ****     if(text == NULL) {
 2815              		.loc 1 481 5 is_stmt 1 discriminator 1 view .LVU888
 481:Drivers/lvgl/src/misc/lv_txt.c ****     if(text == NULL) {
 2816              		.loc 1 481 5 discriminator 1 view .LVU889
 481:Drivers/lvgl/src/misc/lv_txt.c ****     if(text == NULL) {
 2817              		.loc 1 481 5 discriminator 1 view .LVU890
 481:Drivers/lvgl/src/misc/lv_txt.c ****     if(text == NULL) {
 2818              		.loc 1 481 5 discriminator 1 view .LVU891
 481:Drivers/lvgl/src/misc/lv_txt.c ****     if(text == NULL) {
 2819              		.loc 1 481 5 discriminator 1 view .LVU892
 481:Drivers/lvgl/src/misc/lv_txt.c ****     if(text == NULL) {
 2820              		.loc 1 481 5 discriminator 1 view .LVU893
 481:Drivers/lvgl/src/misc/lv_txt.c ****     if(text == NULL) {
 2821              		.loc 1 481 5 discriminator 1 view .LVU894
 481:Drivers/lvgl/src/misc/lv_txt.c ****     if(text == NULL) {
 2822              		.loc 1 481 5 discriminator 1 view .LVU895
 481:Drivers/lvgl/src/misc/lv_txt.c ****     if(text == NULL) {
 2823              		.loc 1 481 5 discriminator 1 view .LVU896
 481:Drivers/lvgl/src/misc/lv_txt.c ****     if(text == NULL) {
 2824              		.loc 1 481 5 discriminator 1 view .LVU897
 2825 003e FEE7     		b	.L312
 2826              		.cfi_endproc
 2827              	.LFE62:
 2829              		.section	.text._lv_txt_encoded_letter_next_2,"ax",%progbits
 2830              		.align	1
 2831              		.p2align 2,,3
 2832              		.global	_lv_txt_encoded_letter_next_2
 2833              		.syntax unified
 2834              		.thumb
 2835              		.thumb_func
 2837              	_lv_txt_encoded_letter_next_2:
 2838              	.LVL257:
 2839              	.LFB63:
 494:Drivers/lvgl/src/misc/lv_txt.c ****     *letter = _lv_txt_encoded_next(txt, ofs);
 2840              		.loc 1 494 1 view -0
 2841              		.cfi_startproc
 2842              		@ args = 0, pretend = 0, frame = 0
 2843              		@ frame_needed = 0, uses_anonymous_args = 0
 495:Drivers/lvgl/src/misc/lv_txt.c ****     *letter_next = *letter != '\0' ? _lv_txt_encoded_next(&txt[*ofs], NULL) : 0;
 2844              		.loc 1 495 5 view .LVU899
 494:Drivers/lvgl/src/misc/lv_txt.c ****     *letter = _lv_txt_encoded_next(txt, ofs);
 2845              		.loc 1 494 1 is_stmt 0 view .LVU900
 2846 0000 2DE9F041 		push	{r4, r5, r6, r7, r8, lr}
ARM GAS  /var/folders/lp/x54gwt890xv47sdkqj1k04q40000gn/T//ccf0N3ow.s 			page 86


 2847              		.cfi_def_cfa_offset 24
 2848              		.cfi_offset 4, -24
 2849              		.cfi_offset 5, -20
 2850              		.cfi_offset 6, -16
 2851              		.cfi_offset 7, -12
 2852              		.cfi_offset 8, -8
 2853              		.cfi_offset 14, -4
 495:Drivers/lvgl/src/misc/lv_txt.c ****     *letter_next = *letter != '\0' ? _lv_txt_encoded_next(&txt[*ofs], NULL) : 0;
 2854              		.loc 1 495 15 view .LVU901
 2855 0004 DFF82880 		ldr	r8, .L320
 494:Drivers/lvgl/src/misc/lv_txt.c ****     *letter = _lv_txt_encoded_next(txt, ofs);
 2856              		.loc 1 494 1 view .LVU902
 2857 0008 0E46     		mov	r6, r1
 2858 000a 1C46     		mov	r4, r3
 495:Drivers/lvgl/src/misc/lv_txt.c ****     *letter_next = *letter != '\0' ? _lv_txt_encoded_next(&txt[*ofs], NULL) : 0;
 2859              		.loc 1 495 15 view .LVU903
 2860 000c 1946     		mov	r1, r3
 2861              	.LVL258:
 495:Drivers/lvgl/src/misc/lv_txt.c ****     *letter_next = *letter != '\0' ? _lv_txt_encoded_next(&txt[*ofs], NULL) : 0;
 2862              		.loc 1 495 15 view .LVU904
 2863 000e D8F80030 		ldr	r3, [r8]
 2864              	.LVL259:
 494:Drivers/lvgl/src/misc/lv_txt.c ****     *letter = _lv_txt_encoded_next(txt, ofs);
 2865              		.loc 1 494 1 view .LVU905
 2866 0012 0746     		mov	r7, r0
 2867 0014 1546     		mov	r5, r2
 495:Drivers/lvgl/src/misc/lv_txt.c ****     *letter_next = *letter != '\0' ? _lv_txt_encoded_next(&txt[*ofs], NULL) : 0;
 2868              		.loc 1 495 15 view .LVU906
 2869 0016 9847     		blx	r3
 2870              	.LVL260:
 495:Drivers/lvgl/src/misc/lv_txt.c ****     *letter_next = *letter != '\0' ? _lv_txt_encoded_next(&txt[*ofs], NULL) : 0;
 2871              		.loc 1 495 13 discriminator 1 view .LVU907
 2872 0018 3060     		str	r0, [r6]
 496:Drivers/lvgl/src/misc/lv_txt.c **** }
 2873              		.loc 1 496 5 is_stmt 1 view .LVU908
 496:Drivers/lvgl/src/misc/lv_txt.c **** }
 2874              		.loc 1 496 77 is_stmt 0 view .LVU909
 2875 001a 28B1     		cbz	r0, .L315
 496:Drivers/lvgl/src/misc/lv_txt.c **** }
 2876              		.loc 1 496 38 discriminator 1 view .LVU910
 2877 001c 2068     		ldr	r0, [r4]
 2878 001e D8F80030 		ldr	r3, [r8]
 2879 0022 0021     		movs	r1, #0
 2880 0024 3844     		add	r0, r0, r7
 2881 0026 9847     		blx	r3
 2882              	.LVL261:
 2883              	.L315:
 496:Drivers/lvgl/src/misc/lv_txt.c **** }
 2884              		.loc 1 496 18 discriminator 4 view .LVU911
 2885 0028 2860     		str	r0, [r5]
 497:Drivers/lvgl/src/misc/lv_txt.c **** 
 2886              		.loc 1 497 1 view .LVU912
 2887 002a BDE8F081 		pop	{r4, r5, r6, r7, r8, pc}
 2888              	.LVL262:
 2889              	.L321:
 497:Drivers/lvgl/src/misc/lv_txt.c **** 
 2890              		.loc 1 497 1 view .LVU913
ARM GAS  /var/folders/lp/x54gwt890xv47sdkqj1k04q40000gn/T//ccf0N3ow.s 			page 87


 2891 002e 00BF     		.align	2
 2892              	.L320:
 2893 0030 00000000 		.word	_lv_txt_encoded_next
 2894              		.cfi_endproc
 2895              	.LFE63:
 2897              		.global	_lv_txt_get_encoded_length
 2898              		.section	.data._lv_txt_get_encoded_length,"aw"
 2899              		.align	2
 2902              	_lv_txt_get_encoded_length:
 2903 0000 00000000 		.word	lv_txt_utf8_get_length
 2904              		.global	_lv_txt_encoded_get_char_id
 2905              		.section	.data._lv_txt_encoded_get_char_id,"aw"
 2906              		.align	2
 2909              	_lv_txt_encoded_get_char_id:
 2910 0000 00000000 		.word	lv_txt_utf8_get_char_id
 2911              		.global	_lv_txt_encoded_get_byte_id
 2912              		.section	.data._lv_txt_encoded_get_byte_id,"aw"
 2913              		.align	2
 2916              	_lv_txt_encoded_get_byte_id:
 2917 0000 00000000 		.word	lv_txt_utf8_get_byte_id
 2918              		.global	_lv_txt_encoded_prev
 2919              		.section	.data._lv_txt_encoded_prev,"aw"
 2920              		.align	2
 2923              	_lv_txt_encoded_prev:
 2924 0000 00000000 		.word	lv_txt_utf8_prev
 2925              		.global	_lv_txt_encoded_next
 2926              		.section	.data._lv_txt_encoded_next,"aw"
 2927              		.align	2
 2930              	_lv_txt_encoded_next:
 2931 0000 00000000 		.word	lv_txt_utf8_next
 2932              		.global	_lv_txt_encoded_conv_wc
 2933              		.section	.data._lv_txt_encoded_conv_wc,"aw"
 2934              		.align	2
 2937              	_lv_txt_encoded_conv_wc:
 2938 0000 00000000 		.word	lv_txt_utf8_conv_wc
 2939              		.global	_lv_txt_unicode_to_encoded
 2940              		.section	.data._lv_txt_unicode_to_encoded,"aw"
 2941              		.align	2
 2944              	_lv_txt_unicode_to_encoded:
 2945 0000 00000000 		.word	lv_txt_unicode_to_utf8
 2946              		.global	_lv_txt_encoded_size
 2947              		.section	.data._lv_txt_encoded_size,"aw"
 2948              		.align	2
 2951              	_lv_txt_encoded_size:
 2952 0000 00000000 		.word	lv_txt_utf8_size
 2953              		.text
 2954              	.Letext0:
 2955              		.file 5 "/Users/jr/Library/Application Support/Code/User/globalStorage/bmd.stm32-for-vscode/@xpack
 2956              		.file 6 "/Users/jr/Library/Application Support/Code/User/globalStorage/bmd.stm32-for-vscode/@xpack
 2957              		.file 7 "/Users/jr/Library/Application Support/Code/User/globalStorage/bmd.stm32-for-vscode/@xpack
 2958              		.file 8 "Drivers/lvgl/src/misc/lv_area.h"
 2959              		.file 9 "/Users/jr/Library/Application Support/Code/User/globalStorage/bmd.stm32-for-vscode/@xpack
 2960              		.file 10 "Drivers/lvgl/src/misc/lv_printf.h"
 2961              		.file 11 "/Users/jr/Library/Application Support/Code/User/globalStorage/bmd.stm32-for-vscode/@xpac
 2962              		.file 12 "<built-in>"
ARM GAS  /var/folders/lp/x54gwt890xv47sdkqj1k04q40000gn/T//ccf0N3ow.s 			page 88


DEFINED SYMBOLS
                            *ABS*:00000000 lv_txt.c
/var/folders/lp/x54gwt890xv47sdkqj1k04q40000gn/T//ccf0N3ow.s:21     .text.lv_txt_utf8_size:00000000 $t
/var/folders/lp/x54gwt890xv47sdkqj1k04q40000gn/T//ccf0N3ow.s:27     .text.lv_txt_utf8_size:00000000 lv_txt_utf8_size
/var/folders/lp/x54gwt890xv47sdkqj1k04q40000gn/T//ccf0N3ow.s:79     .text.lv_txt_utf8_conv_wc:00000000 $t
/var/folders/lp/x54gwt890xv47sdkqj1k04q40000gn/T//ccf0N3ow.s:85     .text.lv_txt_utf8_conv_wc:00000000 lv_txt_utf8_conv_wc
/var/folders/lp/x54gwt890xv47sdkqj1k04q40000gn/T//ccf0N3ow.s:137    .text.lv_txt_utf8_next:00000000 $t
/var/folders/lp/x54gwt890xv47sdkqj1k04q40000gn/T//ccf0N3ow.s:143    .text.lv_txt_utf8_next:00000000 lv_txt_utf8_next
/var/folders/lp/x54gwt890xv47sdkqj1k04q40000gn/T//ccf0N3ow.s:403    .text.lv_txt_utf8_prev:00000000 $t
/var/folders/lp/x54gwt890xv47sdkqj1k04q40000gn/T//ccf0N3ow.s:409    .text.lv_txt_utf8_prev:00000000 lv_txt_utf8_prev
/var/folders/lp/x54gwt890xv47sdkqj1k04q40000gn/T//ccf0N3ow.s:519    .text.lv_txt_utf8_prev:00000044 $d
/var/folders/lp/x54gwt890xv47sdkqj1k04q40000gn/T//ccf0N3ow.s:2951   .data._lv_txt_encoded_size:00000000 _lv_txt_encoded_size
/var/folders/lp/x54gwt890xv47sdkqj1k04q40000gn/T//ccf0N3ow.s:2930   .data._lv_txt_encoded_next:00000000 _lv_txt_encoded_next
/var/folders/lp/x54gwt890xv47sdkqj1k04q40000gn/T//ccf0N3ow.s:525    .text.lv_txt_utf8_get_byte_id:00000000 $t
/var/folders/lp/x54gwt890xv47sdkqj1k04q40000gn/T//ccf0N3ow.s:531    .text.lv_txt_utf8_get_byte_id:00000000 lv_txt_utf8_get_byte_id
/var/folders/lp/x54gwt890xv47sdkqj1k04q40000gn/T//ccf0N3ow.s:621    .text.lv_txt_utf8_get_byte_id:0000003c $d
/var/folders/lp/x54gwt890xv47sdkqj1k04q40000gn/T//ccf0N3ow.s:626    .text.lv_txt_utf8_get_char_id:00000000 $t
/var/folders/lp/x54gwt890xv47sdkqj1k04q40000gn/T//ccf0N3ow.s:632    .text.lv_txt_utf8_get_char_id:00000000 lv_txt_utf8_get_char_id
/var/folders/lp/x54gwt890xv47sdkqj1k04q40000gn/T//ccf0N3ow.s:702    .text.lv_txt_utf8_get_char_id:00000030 $d
/var/folders/lp/x54gwt890xv47sdkqj1k04q40000gn/T//ccf0N3ow.s:707    .text.lv_txt_utf8_get_length:00000000 $t
/var/folders/lp/x54gwt890xv47sdkqj1k04q40000gn/T//ccf0N3ow.s:713    .text.lv_txt_utf8_get_length:00000000 lv_txt_utf8_get_length
/var/folders/lp/x54gwt890xv47sdkqj1k04q40000gn/T//ccf0N3ow.s:784    .text.lv_txt_utf8_get_length:00000030 $d
/var/folders/lp/x54gwt890xv47sdkqj1k04q40000gn/T//ccf0N3ow.s:789    .text.lv_txt_unicode_to_utf8:00000000 $t
/var/folders/lp/x54gwt890xv47sdkqj1k04q40000gn/T//ccf0N3ow.s:795    .text.lv_txt_unicode_to_utf8:00000000 lv_txt_unicode_to_utf8
/var/folders/lp/x54gwt890xv47sdkqj1k04q40000gn/T//ccf0N3ow.s:915    .rodata._lv_txt_get_next_line.part.0.str1.4:00000000 $d
/var/folders/lp/x54gwt890xv47sdkqj1k04q40000gn/T//ccf0N3ow.s:919    .text._lv_txt_get_next_line.part.0:00000000 $t
/var/folders/lp/x54gwt890xv47sdkqj1k04q40000gn/T//ccf0N3ow.s:925    .text._lv_txt_get_next_line.part.0:00000000 _lv_txt_get_next_line.part.0
/var/folders/lp/x54gwt890xv47sdkqj1k04q40000gn/T//ccf0N3ow.s:1707   .text._lv_txt_get_next_line.part.0:00000278 $d
/var/folders/lp/x54gwt890xv47sdkqj1k04q40000gn/T//ccf0N3ow.s:1714   .text._lv_txt_get_next_line:00000000 $t
/var/folders/lp/x54gwt890xv47sdkqj1k04q40000gn/T//ccf0N3ow.s:1721   .text._lv_txt_get_next_line:00000000 _lv_txt_get_next_line
/var/folders/lp/x54gwt890xv47sdkqj1k04q40000gn/T//ccf0N3ow.s:1785   .text.lv_txt_get_width:00000000 $t
/var/folders/lp/x54gwt890xv47sdkqj1k04q40000gn/T//ccf0N3ow.s:1792   .text.lv_txt_get_width:00000000 lv_txt_get_width
/var/folders/lp/x54gwt890xv47sdkqj1k04q40000gn/T//ccf0N3ow.s:2097   .text.lv_txt_get_width:000000e8 $d
/var/folders/lp/x54gwt890xv47sdkqj1k04q40000gn/T//ccf0N3ow.s:2105   .text.lv_txt_get_size:00000000 $t
/var/folders/lp/x54gwt890xv47sdkqj1k04q40000gn/T//ccf0N3ow.s:2112   .text.lv_txt_get_size:00000000 lv_txt_get_size
/var/folders/lp/x54gwt890xv47sdkqj1k04q40000gn/T//ccf0N3ow.s:2368   .text._lv_txt_is_cmd:00000000 $t
/var/folders/lp/x54gwt890xv47sdkqj1k04q40000gn/T//ccf0N3ow.s:2375   .text._lv_txt_is_cmd:00000000 _lv_txt_is_cmd
/var/folders/lp/x54gwt890xv47sdkqj1k04q40000gn/T//ccf0N3ow.s:2468   .text._lv_txt_ins:00000000 $t
/var/folders/lp/x54gwt890xv47sdkqj1k04q40000gn/T//ccf0N3ow.s:2475   .text._lv_txt_ins:00000000 _lv_txt_ins
/var/folders/lp/x54gwt890xv47sdkqj1k04q40000gn/T//ccf0N3ow.s:2608   .text._lv_txt_ins:00000068 $d
/var/folders/lp/x54gwt890xv47sdkqj1k04q40000gn/T//ccf0N3ow.s:2916   .data._lv_txt_encoded_get_byte_id:00000000 _lv_txt_encoded_get_byte_id
/var/folders/lp/x54gwt890xv47sdkqj1k04q40000gn/T//ccf0N3ow.s:2613   .text._lv_txt_cut:00000000 $t
/var/folders/lp/x54gwt890xv47sdkqj1k04q40000gn/T//ccf0N3ow.s:2620   .text._lv_txt_cut:00000000 _lv_txt_cut
/var/folders/lp/x54gwt890xv47sdkqj1k04q40000gn/T//ccf0N3ow.s:2718   .text._lv_txt_cut:0000004c $d
/var/folders/lp/x54gwt890xv47sdkqj1k04q40000gn/T//ccf0N3ow.s:2723   .text._lv_txt_set_text_vfmt:00000000 $t
/var/folders/lp/x54gwt890xv47sdkqj1k04q40000gn/T//ccf0N3ow.s:2730   .text._lv_txt_set_text_vfmt:00000000 _lv_txt_set_text_vfmt
/var/folders/lp/x54gwt890xv47sdkqj1k04q40000gn/T//ccf0N3ow.s:2830   .text._lv_txt_encoded_letter_next_2:00000000 $t
/var/folders/lp/x54gwt890xv47sdkqj1k04q40000gn/T//ccf0N3ow.s:2837   .text._lv_txt_encoded_letter_next_2:00000000 _lv_txt_encoded_letter_next_2
/var/folders/lp/x54gwt890xv47sdkqj1k04q40000gn/T//ccf0N3ow.s:2893   .text._lv_txt_encoded_letter_next_2:00000030 $d
/var/folders/lp/x54gwt890xv47sdkqj1k04q40000gn/T//ccf0N3ow.s:2902   .data._lv_txt_get_encoded_length:00000000 _lv_txt_get_encoded_length
/var/folders/lp/x54gwt890xv47sdkqj1k04q40000gn/T//ccf0N3ow.s:2899   .data._lv_txt_get_encoded_length:00000000 $d
/var/folders/lp/x54gwt890xv47sdkqj1k04q40000gn/T//ccf0N3ow.s:2909   .data._lv_txt_encoded_get_char_id:00000000 _lv_txt_encoded_get_char_id
/var/folders/lp/x54gwt890xv47sdkqj1k04q40000gn/T//ccf0N3ow.s:2906   .data._lv_txt_encoded_get_char_id:00000000 $d
/var/folders/lp/x54gwt890xv47sdkqj1k04q40000gn/T//ccf0N3ow.s:2913   .data._lv_txt_encoded_get_byte_id:00000000 $d
/var/folders/lp/x54gwt890xv47sdkqj1k04q40000gn/T//ccf0N3ow.s:2923   .data._lv_txt_encoded_prev:00000000 _lv_txt_encoded_prev
/var/folders/lp/x54gwt890xv47sdkqj1k04q40000gn/T//ccf0N3ow.s:2920   .data._lv_txt_encoded_prev:00000000 $d
/var/folders/lp/x54gwt890xv47sdkqj1k04q40000gn/T//ccf0N3ow.s:2927   .data._lv_txt_encoded_next:00000000 $d
ARM GAS  /var/folders/lp/x54gwt890xv47sdkqj1k04q40000gn/T//ccf0N3ow.s 			page 89


/var/folders/lp/x54gwt890xv47sdkqj1k04q40000gn/T//ccf0N3ow.s:2937   .data._lv_txt_encoded_conv_wc:00000000 _lv_txt_encoded_conv_wc
/var/folders/lp/x54gwt890xv47sdkqj1k04q40000gn/T//ccf0N3ow.s:2934   .data._lv_txt_encoded_conv_wc:00000000 $d
/var/folders/lp/x54gwt890xv47sdkqj1k04q40000gn/T//ccf0N3ow.s:2944   .data._lv_txt_unicode_to_encoded:00000000 _lv_txt_unicode_to_encoded
/var/folders/lp/x54gwt890xv47sdkqj1k04q40000gn/T//ccf0N3ow.s:2941   .data._lv_txt_unicode_to_encoded:00000000 $d
/var/folders/lp/x54gwt890xv47sdkqj1k04q40000gn/T//ccf0N3ow.s:2948   .data._lv_txt_encoded_size:00000000 $d

UNDEFINED SYMBOLS
lv_font_get_glyph_width
strlen
lv_vsnprintf
lv_mem_alloc
