ARM GAS  /var/folders/lp/x54gwt890xv47sdkqj1k04q40000gn/T//cc6ygGfE.s 			page 1


   1              		.cpu cortex-m4
   2              		.arch armv7e-m
   3              		.fpu fpv4-sp-d16
   4              		.eabi_attribute 27, 1
   5              		.eabi_attribute 28, 1
   6              		.eabi_attribute 20, 1
   7              		.eabi_attribute 21, 1
   8              		.eabi_attribute 23, 3
   9              		.eabi_attribute 24, 1
  10              		.eabi_attribute 25, 1
  11              		.eabi_attribute 26, 1
  12              		.eabi_attribute 30, 2
  13              		.eabi_attribute 34, 1
  14              		.eabi_attribute 18, 4
  15              		.file	"lv_theme_mono.c"
  16              		.text
  17              	.Ltext0:
  18              		.cfi_sections	.debug_frame
  19              		.file 1 "Drivers/lvgl/src/extra/themes/mono/lv_theme_mono.c"
  20              		.section	.text.theme_apply,"ax",%progbits
  21              		.align	1
  22              		.p2align 2,,3
  23              		.syntax unified
  24              		.thumb
  25              		.thumb_func
  27              	theme_apply:
  28              	.LVL0:
  29              	.LFB207:
   1:Drivers/lvgl/src/extra/themes/mono/lv_theme_mono.c **** /**
   2:Drivers/lvgl/src/extra/themes/mono/lv_theme_mono.c ****  * @file lv_theme_mono.c
   3:Drivers/lvgl/src/extra/themes/mono/lv_theme_mono.c ****  *
   4:Drivers/lvgl/src/extra/themes/mono/lv_theme_mono.c ****  */
   5:Drivers/lvgl/src/extra/themes/mono/lv_theme_mono.c **** 
   6:Drivers/lvgl/src/extra/themes/mono/lv_theme_mono.c **** /*********************
   7:Drivers/lvgl/src/extra/themes/mono/lv_theme_mono.c ****  *      INCLUDES
   8:Drivers/lvgl/src/extra/themes/mono/lv_theme_mono.c ****  *********************/
   9:Drivers/lvgl/src/extra/themes/mono/lv_theme_mono.c **** #include "../../../lvgl.h"
  10:Drivers/lvgl/src/extra/themes/mono/lv_theme_mono.c **** 
  11:Drivers/lvgl/src/extra/themes/mono/lv_theme_mono.c **** #if LV_USE_THEME_MONO
  12:Drivers/lvgl/src/extra/themes/mono/lv_theme_mono.c **** 
  13:Drivers/lvgl/src/extra/themes/mono/lv_theme_mono.c **** #include "lv_theme_mono.h"
  14:Drivers/lvgl/src/extra/themes/mono/lv_theme_mono.c **** #include "../../../misc/lv_gc.h"
  15:Drivers/lvgl/src/extra/themes/mono/lv_theme_mono.c **** 
  16:Drivers/lvgl/src/extra/themes/mono/lv_theme_mono.c **** /*********************
  17:Drivers/lvgl/src/extra/themes/mono/lv_theme_mono.c ****  *      DEFINES
  18:Drivers/lvgl/src/extra/themes/mono/lv_theme_mono.c ****  *********************/
  19:Drivers/lvgl/src/extra/themes/mono/lv_theme_mono.c **** 
  20:Drivers/lvgl/src/extra/themes/mono/lv_theme_mono.c **** #define COLOR_FG      dark_bg ? lv_color_white() : lv_color_black()
  21:Drivers/lvgl/src/extra/themes/mono/lv_theme_mono.c **** #define COLOR_BG      dark_bg ? lv_color_black() : lv_color_white()
  22:Drivers/lvgl/src/extra/themes/mono/lv_theme_mono.c **** 
  23:Drivers/lvgl/src/extra/themes/mono/lv_theme_mono.c **** #define BORDER_W_NORMAL  1
  24:Drivers/lvgl/src/extra/themes/mono/lv_theme_mono.c **** #define BORDER_W_PR      3
  25:Drivers/lvgl/src/extra/themes/mono/lv_theme_mono.c **** #define BORDER_W_DIS     0
  26:Drivers/lvgl/src/extra/themes/mono/lv_theme_mono.c **** #define BORDER_W_FOCUS   1
  27:Drivers/lvgl/src/extra/themes/mono/lv_theme_mono.c **** #define BORDER_W_EDIT    2
  28:Drivers/lvgl/src/extra/themes/mono/lv_theme_mono.c **** #define PAD_DEF          4
  29:Drivers/lvgl/src/extra/themes/mono/lv_theme_mono.c **** 
ARM GAS  /var/folders/lp/x54gwt890xv47sdkqj1k04q40000gn/T//cc6ygGfE.s 			page 2


  30:Drivers/lvgl/src/extra/themes/mono/lv_theme_mono.c **** /**********************
  31:Drivers/lvgl/src/extra/themes/mono/lv_theme_mono.c ****  *      TYPEDEFS
  32:Drivers/lvgl/src/extra/themes/mono/lv_theme_mono.c ****  **********************/
  33:Drivers/lvgl/src/extra/themes/mono/lv_theme_mono.c **** typedef struct {
  34:Drivers/lvgl/src/extra/themes/mono/lv_theme_mono.c ****     lv_style_t scr;
  35:Drivers/lvgl/src/extra/themes/mono/lv_theme_mono.c ****     lv_style_t card;
  36:Drivers/lvgl/src/extra/themes/mono/lv_theme_mono.c ****     lv_style_t scrollbar;
  37:Drivers/lvgl/src/extra/themes/mono/lv_theme_mono.c ****     lv_style_t btn;
  38:Drivers/lvgl/src/extra/themes/mono/lv_theme_mono.c ****     lv_style_t pr;
  39:Drivers/lvgl/src/extra/themes/mono/lv_theme_mono.c ****     lv_style_t inv;
  40:Drivers/lvgl/src/extra/themes/mono/lv_theme_mono.c ****     lv_style_t disabled;
  41:Drivers/lvgl/src/extra/themes/mono/lv_theme_mono.c ****     lv_style_t focus;
  42:Drivers/lvgl/src/extra/themes/mono/lv_theme_mono.c ****     lv_style_t edit;
  43:Drivers/lvgl/src/extra/themes/mono/lv_theme_mono.c ****     lv_style_t pad_gap;
  44:Drivers/lvgl/src/extra/themes/mono/lv_theme_mono.c ****     lv_style_t pad_zero;
  45:Drivers/lvgl/src/extra/themes/mono/lv_theme_mono.c ****     lv_style_t no_radius;
  46:Drivers/lvgl/src/extra/themes/mono/lv_theme_mono.c ****     lv_style_t radius_circle;
  47:Drivers/lvgl/src/extra/themes/mono/lv_theme_mono.c ****     lv_style_t large_border;
  48:Drivers/lvgl/src/extra/themes/mono/lv_theme_mono.c ****     lv_style_t large_line_space;
  49:Drivers/lvgl/src/extra/themes/mono/lv_theme_mono.c ****     lv_style_t underline;
  50:Drivers/lvgl/src/extra/themes/mono/lv_theme_mono.c **** #if LV_USE_TEXTAREA
  51:Drivers/lvgl/src/extra/themes/mono/lv_theme_mono.c ****     lv_style_t ta_cursor;
  52:Drivers/lvgl/src/extra/themes/mono/lv_theme_mono.c **** #endif
  53:Drivers/lvgl/src/extra/themes/mono/lv_theme_mono.c **** } my_theme_styles_t;
  54:Drivers/lvgl/src/extra/themes/mono/lv_theme_mono.c **** 
  55:Drivers/lvgl/src/extra/themes/mono/lv_theme_mono.c **** 
  56:Drivers/lvgl/src/extra/themes/mono/lv_theme_mono.c **** /**********************
  57:Drivers/lvgl/src/extra/themes/mono/lv_theme_mono.c ****  *  STATIC PROTOTYPES
  58:Drivers/lvgl/src/extra/themes/mono/lv_theme_mono.c ****  **********************/
  59:Drivers/lvgl/src/extra/themes/mono/lv_theme_mono.c **** static void style_init_reset(lv_style_t * style);
  60:Drivers/lvgl/src/extra/themes/mono/lv_theme_mono.c **** static void theme_apply(lv_theme_t * th, lv_obj_t * obj);
  61:Drivers/lvgl/src/extra/themes/mono/lv_theme_mono.c **** 
  62:Drivers/lvgl/src/extra/themes/mono/lv_theme_mono.c **** /**********************
  63:Drivers/lvgl/src/extra/themes/mono/lv_theme_mono.c ****  *  STATIC VARIABLES
  64:Drivers/lvgl/src/extra/themes/mono/lv_theme_mono.c ****  **********************/
  65:Drivers/lvgl/src/extra/themes/mono/lv_theme_mono.c **** static my_theme_styles_t * styles;
  66:Drivers/lvgl/src/extra/themes/mono/lv_theme_mono.c **** static lv_theme_t theme;
  67:Drivers/lvgl/src/extra/themes/mono/lv_theme_mono.c **** static bool inited;
  68:Drivers/lvgl/src/extra/themes/mono/lv_theme_mono.c **** 
  69:Drivers/lvgl/src/extra/themes/mono/lv_theme_mono.c **** /**********************
  70:Drivers/lvgl/src/extra/themes/mono/lv_theme_mono.c ****  *      MACROS
  71:Drivers/lvgl/src/extra/themes/mono/lv_theme_mono.c ****  **********************/
  72:Drivers/lvgl/src/extra/themes/mono/lv_theme_mono.c **** 
  73:Drivers/lvgl/src/extra/themes/mono/lv_theme_mono.c **** /**********************
  74:Drivers/lvgl/src/extra/themes/mono/lv_theme_mono.c ****  *   STATIC FUNCTIONS
  75:Drivers/lvgl/src/extra/themes/mono/lv_theme_mono.c ****  **********************/
  76:Drivers/lvgl/src/extra/themes/mono/lv_theme_mono.c **** 
  77:Drivers/lvgl/src/extra/themes/mono/lv_theme_mono.c **** static void style_init(bool dark_bg, const lv_font_t * font)
  78:Drivers/lvgl/src/extra/themes/mono/lv_theme_mono.c **** {
  79:Drivers/lvgl/src/extra/themes/mono/lv_theme_mono.c ****     style_init_reset(&styles->scrollbar);
  80:Drivers/lvgl/src/extra/themes/mono/lv_theme_mono.c ****     lv_style_set_bg_opa(&styles->scrollbar, LV_OPA_COVER);
  81:Drivers/lvgl/src/extra/themes/mono/lv_theme_mono.c ****     lv_style_set_bg_color(&styles->scrollbar, COLOR_FG);
  82:Drivers/lvgl/src/extra/themes/mono/lv_theme_mono.c ****     lv_style_set_width(&styles->scrollbar,  PAD_DEF);
  83:Drivers/lvgl/src/extra/themes/mono/lv_theme_mono.c **** 
  84:Drivers/lvgl/src/extra/themes/mono/lv_theme_mono.c ****     style_init_reset(&styles->scr);
  85:Drivers/lvgl/src/extra/themes/mono/lv_theme_mono.c ****     lv_style_set_bg_opa(&styles->scr, LV_OPA_COVER);
  86:Drivers/lvgl/src/extra/themes/mono/lv_theme_mono.c ****     lv_style_set_bg_color(&styles->scr, COLOR_BG);
ARM GAS  /var/folders/lp/x54gwt890xv47sdkqj1k04q40000gn/T//cc6ygGfE.s 			page 3


  87:Drivers/lvgl/src/extra/themes/mono/lv_theme_mono.c ****     lv_style_set_text_color(&styles->scr, COLOR_FG);
  88:Drivers/lvgl/src/extra/themes/mono/lv_theme_mono.c ****     lv_style_set_pad_row(&styles->scr, PAD_DEF);
  89:Drivers/lvgl/src/extra/themes/mono/lv_theme_mono.c ****     lv_style_set_pad_column(&styles->scr, PAD_DEF);
  90:Drivers/lvgl/src/extra/themes/mono/lv_theme_mono.c ****     lv_style_set_text_font(&styles->scr, font);
  91:Drivers/lvgl/src/extra/themes/mono/lv_theme_mono.c **** 
  92:Drivers/lvgl/src/extra/themes/mono/lv_theme_mono.c ****     style_init_reset(&styles->card);
  93:Drivers/lvgl/src/extra/themes/mono/lv_theme_mono.c ****     lv_style_set_bg_opa(&styles->card, LV_OPA_COVER);
  94:Drivers/lvgl/src/extra/themes/mono/lv_theme_mono.c ****     lv_style_set_bg_color(&styles->card, COLOR_BG);
  95:Drivers/lvgl/src/extra/themes/mono/lv_theme_mono.c ****     lv_style_set_border_color(&styles->card, COLOR_FG);
  96:Drivers/lvgl/src/extra/themes/mono/lv_theme_mono.c ****     lv_style_set_radius(&styles->card, 2);
  97:Drivers/lvgl/src/extra/themes/mono/lv_theme_mono.c ****     lv_style_set_border_width(&styles->card, BORDER_W_NORMAL);
  98:Drivers/lvgl/src/extra/themes/mono/lv_theme_mono.c ****     lv_style_set_pad_all(&styles->card, PAD_DEF);
  99:Drivers/lvgl/src/extra/themes/mono/lv_theme_mono.c ****     lv_style_set_pad_gap(&styles->card, PAD_DEF);
 100:Drivers/lvgl/src/extra/themes/mono/lv_theme_mono.c ****     lv_style_set_text_color(&styles->card, COLOR_FG);
 101:Drivers/lvgl/src/extra/themes/mono/lv_theme_mono.c ****     lv_style_set_line_width(&styles->card, 2);
 102:Drivers/lvgl/src/extra/themes/mono/lv_theme_mono.c ****     lv_style_set_line_color(&styles->card, COLOR_FG);
 103:Drivers/lvgl/src/extra/themes/mono/lv_theme_mono.c ****     lv_style_set_arc_width(&styles->card, 2);
 104:Drivers/lvgl/src/extra/themes/mono/lv_theme_mono.c ****     lv_style_set_arc_color(&styles->card, COLOR_FG);
 105:Drivers/lvgl/src/extra/themes/mono/lv_theme_mono.c ****     lv_style_set_outline_color(&styles->card, COLOR_FG);
 106:Drivers/lvgl/src/extra/themes/mono/lv_theme_mono.c ****     lv_style_set_anim_time(&styles->card, 300);
 107:Drivers/lvgl/src/extra/themes/mono/lv_theme_mono.c **** 
 108:Drivers/lvgl/src/extra/themes/mono/lv_theme_mono.c ****     style_init_reset(&styles->pr);
 109:Drivers/lvgl/src/extra/themes/mono/lv_theme_mono.c ****     lv_style_set_border_width(&styles->pr, BORDER_W_PR);
 110:Drivers/lvgl/src/extra/themes/mono/lv_theme_mono.c **** 
 111:Drivers/lvgl/src/extra/themes/mono/lv_theme_mono.c ****     style_init_reset(&styles->inv);
 112:Drivers/lvgl/src/extra/themes/mono/lv_theme_mono.c ****     lv_style_set_bg_opa(&styles->inv, LV_OPA_COVER);
 113:Drivers/lvgl/src/extra/themes/mono/lv_theme_mono.c ****     lv_style_set_bg_color(&styles->inv, COLOR_FG);
 114:Drivers/lvgl/src/extra/themes/mono/lv_theme_mono.c ****     lv_style_set_border_color(&styles->inv, COLOR_BG);
 115:Drivers/lvgl/src/extra/themes/mono/lv_theme_mono.c ****     lv_style_set_line_color(&styles->inv, COLOR_BG);
 116:Drivers/lvgl/src/extra/themes/mono/lv_theme_mono.c ****     lv_style_set_arc_color(&styles->inv, COLOR_BG);
 117:Drivers/lvgl/src/extra/themes/mono/lv_theme_mono.c ****     lv_style_set_text_color(&styles->inv, COLOR_BG);
 118:Drivers/lvgl/src/extra/themes/mono/lv_theme_mono.c ****     lv_style_set_outline_color(&styles->inv, COLOR_BG);
 119:Drivers/lvgl/src/extra/themes/mono/lv_theme_mono.c **** 
 120:Drivers/lvgl/src/extra/themes/mono/lv_theme_mono.c ****     style_init_reset(&styles->disabled);
 121:Drivers/lvgl/src/extra/themes/mono/lv_theme_mono.c ****     lv_style_set_border_width(&styles->disabled, BORDER_W_DIS);
 122:Drivers/lvgl/src/extra/themes/mono/lv_theme_mono.c **** 
 123:Drivers/lvgl/src/extra/themes/mono/lv_theme_mono.c ****     style_init_reset(&styles->focus);
 124:Drivers/lvgl/src/extra/themes/mono/lv_theme_mono.c ****     lv_style_set_outline_width(&styles->focus, 1);
 125:Drivers/lvgl/src/extra/themes/mono/lv_theme_mono.c ****     lv_style_set_outline_pad(&styles->focus, BORDER_W_FOCUS);
 126:Drivers/lvgl/src/extra/themes/mono/lv_theme_mono.c **** 
 127:Drivers/lvgl/src/extra/themes/mono/lv_theme_mono.c ****     style_init_reset(&styles->edit);
 128:Drivers/lvgl/src/extra/themes/mono/lv_theme_mono.c ****     lv_style_set_outline_width(&styles->edit, BORDER_W_EDIT);
 129:Drivers/lvgl/src/extra/themes/mono/lv_theme_mono.c **** 
 130:Drivers/lvgl/src/extra/themes/mono/lv_theme_mono.c ****     style_init_reset(&styles->large_border);
 131:Drivers/lvgl/src/extra/themes/mono/lv_theme_mono.c ****     lv_style_set_border_width(&styles->large_border, BORDER_W_EDIT);
 132:Drivers/lvgl/src/extra/themes/mono/lv_theme_mono.c **** 
 133:Drivers/lvgl/src/extra/themes/mono/lv_theme_mono.c ****     style_init_reset(&styles->pad_gap);
 134:Drivers/lvgl/src/extra/themes/mono/lv_theme_mono.c ****     lv_style_set_pad_gap(&styles->pad_gap, PAD_DEF);
 135:Drivers/lvgl/src/extra/themes/mono/lv_theme_mono.c **** 
 136:Drivers/lvgl/src/extra/themes/mono/lv_theme_mono.c ****     style_init_reset(&styles->pad_zero);
 137:Drivers/lvgl/src/extra/themes/mono/lv_theme_mono.c ****     lv_style_set_pad_all(&styles->pad_zero, 0);
 138:Drivers/lvgl/src/extra/themes/mono/lv_theme_mono.c ****     lv_style_set_pad_gap(&styles->pad_zero, 0);
 139:Drivers/lvgl/src/extra/themes/mono/lv_theme_mono.c **** 
 140:Drivers/lvgl/src/extra/themes/mono/lv_theme_mono.c ****     style_init_reset(&styles->no_radius);
 141:Drivers/lvgl/src/extra/themes/mono/lv_theme_mono.c ****     lv_style_set_radius(&styles->no_radius, 0);
 142:Drivers/lvgl/src/extra/themes/mono/lv_theme_mono.c **** 
 143:Drivers/lvgl/src/extra/themes/mono/lv_theme_mono.c ****     style_init_reset(&styles->radius_circle);
ARM GAS  /var/folders/lp/x54gwt890xv47sdkqj1k04q40000gn/T//cc6ygGfE.s 			page 4


 144:Drivers/lvgl/src/extra/themes/mono/lv_theme_mono.c ****     lv_style_set_radius(&styles->radius_circle, LV_RADIUS_CIRCLE);
 145:Drivers/lvgl/src/extra/themes/mono/lv_theme_mono.c **** 
 146:Drivers/lvgl/src/extra/themes/mono/lv_theme_mono.c ****     style_init_reset(&styles->large_line_space);
 147:Drivers/lvgl/src/extra/themes/mono/lv_theme_mono.c ****     lv_style_set_text_line_space(&styles->large_line_space, 6);
 148:Drivers/lvgl/src/extra/themes/mono/lv_theme_mono.c **** 
 149:Drivers/lvgl/src/extra/themes/mono/lv_theme_mono.c ****     style_init_reset(&styles->underline);
 150:Drivers/lvgl/src/extra/themes/mono/lv_theme_mono.c ****     lv_style_set_text_decor(&styles->underline, LV_TEXT_DECOR_UNDERLINE);
 151:Drivers/lvgl/src/extra/themes/mono/lv_theme_mono.c **** 
 152:Drivers/lvgl/src/extra/themes/mono/lv_theme_mono.c **** #if LV_USE_TEXTAREA
 153:Drivers/lvgl/src/extra/themes/mono/lv_theme_mono.c ****     style_init_reset(&styles->ta_cursor);
 154:Drivers/lvgl/src/extra/themes/mono/lv_theme_mono.c ****     lv_style_set_border_side(&styles->ta_cursor, LV_BORDER_SIDE_LEFT);
 155:Drivers/lvgl/src/extra/themes/mono/lv_theme_mono.c ****     lv_style_set_border_color(&styles->ta_cursor, COLOR_FG);
 156:Drivers/lvgl/src/extra/themes/mono/lv_theme_mono.c ****     lv_style_set_border_width(&styles->ta_cursor, 2);
 157:Drivers/lvgl/src/extra/themes/mono/lv_theme_mono.c ****     lv_style_set_bg_opa(&styles->ta_cursor, LV_OPA_TRANSP);
 158:Drivers/lvgl/src/extra/themes/mono/lv_theme_mono.c ****     lv_style_set_anim_time(&styles->ta_cursor, 500);
 159:Drivers/lvgl/src/extra/themes/mono/lv_theme_mono.c **** #endif
 160:Drivers/lvgl/src/extra/themes/mono/lv_theme_mono.c **** }
 161:Drivers/lvgl/src/extra/themes/mono/lv_theme_mono.c **** 
 162:Drivers/lvgl/src/extra/themes/mono/lv_theme_mono.c **** 
 163:Drivers/lvgl/src/extra/themes/mono/lv_theme_mono.c **** /**********************
 164:Drivers/lvgl/src/extra/themes/mono/lv_theme_mono.c ****  *   GLOBAL FUNCTIONS
 165:Drivers/lvgl/src/extra/themes/mono/lv_theme_mono.c ****  **********************/
 166:Drivers/lvgl/src/extra/themes/mono/lv_theme_mono.c **** 
 167:Drivers/lvgl/src/extra/themes/mono/lv_theme_mono.c **** bool lv_theme_mono_is_inited(void)
 168:Drivers/lvgl/src/extra/themes/mono/lv_theme_mono.c **** {
 169:Drivers/lvgl/src/extra/themes/mono/lv_theme_mono.c ****     return  LV_GC_ROOT(_lv_theme_default_styles) == NULL ? false : true;
 170:Drivers/lvgl/src/extra/themes/mono/lv_theme_mono.c **** }
 171:Drivers/lvgl/src/extra/themes/mono/lv_theme_mono.c **** 
 172:Drivers/lvgl/src/extra/themes/mono/lv_theme_mono.c **** lv_theme_t * lv_theme_mono_init(lv_disp_t * disp, bool dark_bg, const lv_font_t * font)
 173:Drivers/lvgl/src/extra/themes/mono/lv_theme_mono.c **** {
 174:Drivers/lvgl/src/extra/themes/mono/lv_theme_mono.c **** 
 175:Drivers/lvgl/src/extra/themes/mono/lv_theme_mono.c ****     /*This trick is required only to avoid the garbage collection of
 176:Drivers/lvgl/src/extra/themes/mono/lv_theme_mono.c ****      *styles' data if LVGL is used in a binding (e.g. Micropython)
 177:Drivers/lvgl/src/extra/themes/mono/lv_theme_mono.c ****      *In a general case styles could be in simple `static lv_style_t my_style...` variables*/
 178:Drivers/lvgl/src/extra/themes/mono/lv_theme_mono.c ****     if(!inited) {
 179:Drivers/lvgl/src/extra/themes/mono/lv_theme_mono.c ****         inited = false;
 180:Drivers/lvgl/src/extra/themes/mono/lv_theme_mono.c ****         LV_GC_ROOT(_lv_theme_default_styles) = lv_mem_alloc(sizeof(my_theme_styles_t));
 181:Drivers/lvgl/src/extra/themes/mono/lv_theme_mono.c ****         styles = (my_theme_styles_t *)LV_GC_ROOT(_lv_theme_default_styles);
 182:Drivers/lvgl/src/extra/themes/mono/lv_theme_mono.c ****     }
 183:Drivers/lvgl/src/extra/themes/mono/lv_theme_mono.c **** 
 184:Drivers/lvgl/src/extra/themes/mono/lv_theme_mono.c ****     theme.disp = disp;
 185:Drivers/lvgl/src/extra/themes/mono/lv_theme_mono.c ****     theme.font_small = LV_FONT_DEFAULT;
 186:Drivers/lvgl/src/extra/themes/mono/lv_theme_mono.c ****     theme.font_normal = LV_FONT_DEFAULT;
 187:Drivers/lvgl/src/extra/themes/mono/lv_theme_mono.c ****     theme.font_large = LV_FONT_DEFAULT;
 188:Drivers/lvgl/src/extra/themes/mono/lv_theme_mono.c ****     theme.apply_cb = theme_apply;
 189:Drivers/lvgl/src/extra/themes/mono/lv_theme_mono.c **** 
 190:Drivers/lvgl/src/extra/themes/mono/lv_theme_mono.c ****     style_init(dark_bg, font);
 191:Drivers/lvgl/src/extra/themes/mono/lv_theme_mono.c **** 
 192:Drivers/lvgl/src/extra/themes/mono/lv_theme_mono.c ****     if(disp == NULL || lv_disp_get_theme(disp) == &theme) lv_obj_report_style_change(NULL);
 193:Drivers/lvgl/src/extra/themes/mono/lv_theme_mono.c **** 
 194:Drivers/lvgl/src/extra/themes/mono/lv_theme_mono.c ****     inited = true;
 195:Drivers/lvgl/src/extra/themes/mono/lv_theme_mono.c **** 
 196:Drivers/lvgl/src/extra/themes/mono/lv_theme_mono.c ****     return (lv_theme_t *)&theme;
 197:Drivers/lvgl/src/extra/themes/mono/lv_theme_mono.c **** }
 198:Drivers/lvgl/src/extra/themes/mono/lv_theme_mono.c **** 
 199:Drivers/lvgl/src/extra/themes/mono/lv_theme_mono.c **** 
 200:Drivers/lvgl/src/extra/themes/mono/lv_theme_mono.c **** static void theme_apply(lv_theme_t * th, lv_obj_t * obj)
ARM GAS  /var/folders/lp/x54gwt890xv47sdkqj1k04q40000gn/T//cc6ygGfE.s 			page 5


 201:Drivers/lvgl/src/extra/themes/mono/lv_theme_mono.c **** {
  30              		.loc 1 201 1 view -0
  31              		.cfi_startproc
  32              		@ args = 0, pretend = 0, frame = 0
  33              		@ frame_needed = 0, uses_anonymous_args = 0
 202:Drivers/lvgl/src/extra/themes/mono/lv_theme_mono.c ****     LV_UNUSED(th);
  34              		.loc 1 202 5 view .LVU1
 203:Drivers/lvgl/src/extra/themes/mono/lv_theme_mono.c **** 
 204:Drivers/lvgl/src/extra/themes/mono/lv_theme_mono.c ****     if(lv_obj_get_parent(obj) == NULL) {
  35              		.loc 1 204 5 view .LVU2
 201:Drivers/lvgl/src/extra/themes/mono/lv_theme_mono.c ****     LV_UNUSED(th);
  36              		.loc 1 201 1 is_stmt 0 view .LVU3
  37 0000 F8B5     		push	{r3, r4, r5, r6, r7, lr}
  38              		.cfi_def_cfa_offset 24
  39              		.cfi_offset 3, -24
  40              		.cfi_offset 4, -20
  41              		.cfi_offset 5, -16
  42              		.cfi_offset 6, -12
  43              		.cfi_offset 7, -8
  44              		.cfi_offset 14, -4
  45              		.loc 1 204 8 view .LVU4
  46 0002 0846     		mov	r0, r1
  47              	.LVL1:
 201:Drivers/lvgl/src/extra/themes/mono/lv_theme_mono.c ****     LV_UNUSED(th);
  48              		.loc 1 201 1 view .LVU5
  49 0004 0C46     		mov	r4, r1
  50              		.loc 1 204 8 view .LVU6
  51 0006 FFF7FEFF 		bl	lv_obj_get_parent
  52              	.LVL2:
  53              		.loc 1 204 7 discriminator 1 view .LVU7
  54 000a 0028     		cmp	r0, #0
  55 000c 00F0F980 		beq	.L56
 205:Drivers/lvgl/src/extra/themes/mono/lv_theme_mono.c ****         lv_obj_add_style(obj, &styles->scr, 0);
 206:Drivers/lvgl/src/extra/themes/mono/lv_theme_mono.c ****         lv_obj_add_style(obj, &styles->scrollbar, LV_PART_SCROLLBAR);
 207:Drivers/lvgl/src/extra/themes/mono/lv_theme_mono.c ****         return;
 208:Drivers/lvgl/src/extra/themes/mono/lv_theme_mono.c ****     }
 209:Drivers/lvgl/src/extra/themes/mono/lv_theme_mono.c **** 
 210:Drivers/lvgl/src/extra/themes/mono/lv_theme_mono.c ****     if(lv_obj_check_type(obj, &lv_obj_class)) {
  56              		.loc 1 210 5 is_stmt 1 view .LVU8
  57              		.loc 1 210 8 is_stmt 0 view .LVU9
  58 0010 B049     		ldr	r1, .L64
  59 0012 2046     		mov	r0, r4
  60 0014 FFF7FEFF 		bl	lv_obj_check_type
  61              	.LVL3:
  62              		.loc 1 210 7 discriminator 1 view .LVU10
  63 0018 0546     		mov	r5, r0
  64 001a 68BB     		cbnz	r0, .L57
 211:Drivers/lvgl/src/extra/themes/mono/lv_theme_mono.c **** #if LV_USE_TABVIEW
 212:Drivers/lvgl/src/extra/themes/mono/lv_theme_mono.c ****         lv_obj_t * parent = lv_obj_get_parent(obj);
 213:Drivers/lvgl/src/extra/themes/mono/lv_theme_mono.c ****         /*Tabview content area*/
 214:Drivers/lvgl/src/extra/themes/mono/lv_theme_mono.c ****         if(lv_obj_check_type(parent, &lv_tabview_class)) {
 215:Drivers/lvgl/src/extra/themes/mono/lv_theme_mono.c ****             return;
 216:Drivers/lvgl/src/extra/themes/mono/lv_theme_mono.c ****         }
 217:Drivers/lvgl/src/extra/themes/mono/lv_theme_mono.c ****         /*Tabview pages*/
 218:Drivers/lvgl/src/extra/themes/mono/lv_theme_mono.c ****         else if(lv_obj_check_type(lv_obj_get_parent(parent), &lv_tabview_class)) {
 219:Drivers/lvgl/src/extra/themes/mono/lv_theme_mono.c ****             lv_obj_add_style(obj, &styles->card, 0);
 220:Drivers/lvgl/src/extra/themes/mono/lv_theme_mono.c ****             lv_obj_add_style(obj, &styles->no_radius, 0);
ARM GAS  /var/folders/lp/x54gwt890xv47sdkqj1k04q40000gn/T//cc6ygGfE.s 			page 6


 221:Drivers/lvgl/src/extra/themes/mono/lv_theme_mono.c ****             lv_obj_add_style(obj, &styles->scrollbar, LV_PART_SCROLLBAR);
 222:Drivers/lvgl/src/extra/themes/mono/lv_theme_mono.c ****             return;
 223:Drivers/lvgl/src/extra/themes/mono/lv_theme_mono.c ****         }
 224:Drivers/lvgl/src/extra/themes/mono/lv_theme_mono.c **** #endif
 225:Drivers/lvgl/src/extra/themes/mono/lv_theme_mono.c **** 
 226:Drivers/lvgl/src/extra/themes/mono/lv_theme_mono.c **** #if LV_USE_WIN
 227:Drivers/lvgl/src/extra/themes/mono/lv_theme_mono.c ****         /*Header*/
 228:Drivers/lvgl/src/extra/themes/mono/lv_theme_mono.c ****         if(lv_obj_get_index(obj) == 0 && lv_obj_check_type(lv_obj_get_parent(obj), &lv_win_class)) 
 229:Drivers/lvgl/src/extra/themes/mono/lv_theme_mono.c ****             lv_obj_add_style(obj, &styles->card, 0);
 230:Drivers/lvgl/src/extra/themes/mono/lv_theme_mono.c ****             lv_obj_add_style(obj, &styles->no_radius, 0);
 231:Drivers/lvgl/src/extra/themes/mono/lv_theme_mono.c ****             return;
 232:Drivers/lvgl/src/extra/themes/mono/lv_theme_mono.c ****         }
 233:Drivers/lvgl/src/extra/themes/mono/lv_theme_mono.c ****         /*Content*/
 234:Drivers/lvgl/src/extra/themes/mono/lv_theme_mono.c ****         else if(lv_obj_get_index(obj) == 1 && lv_obj_check_type(lv_obj_get_parent(obj), &lv_win_cla
 235:Drivers/lvgl/src/extra/themes/mono/lv_theme_mono.c ****             lv_obj_add_style(obj, &styles->card, 0);
 236:Drivers/lvgl/src/extra/themes/mono/lv_theme_mono.c ****             lv_obj_add_style(obj, &styles->no_radius, 0);
 237:Drivers/lvgl/src/extra/themes/mono/lv_theme_mono.c ****             lv_obj_add_style(obj, &styles->scrollbar, LV_PART_SCROLLBAR);
 238:Drivers/lvgl/src/extra/themes/mono/lv_theme_mono.c ****             return;
 239:Drivers/lvgl/src/extra/themes/mono/lv_theme_mono.c ****         }
 240:Drivers/lvgl/src/extra/themes/mono/lv_theme_mono.c **** #endif
 241:Drivers/lvgl/src/extra/themes/mono/lv_theme_mono.c ****         lv_obj_add_style(obj, &styles->card, 0);
 242:Drivers/lvgl/src/extra/themes/mono/lv_theme_mono.c ****         lv_obj_add_style(obj, &styles->scrollbar, LV_PART_SCROLLBAR);
 243:Drivers/lvgl/src/extra/themes/mono/lv_theme_mono.c ****     }
 244:Drivers/lvgl/src/extra/themes/mono/lv_theme_mono.c **** #if LV_USE_BTN
 245:Drivers/lvgl/src/extra/themes/mono/lv_theme_mono.c ****     else if(lv_obj_check_type(obj, &lv_btn_class)) {
  65              		.loc 1 245 10 is_stmt 1 view .LVU11
  66              		.loc 1 245 13 is_stmt 0 view .LVU12
  67 001c AE49     		ldr	r1, .L64+4
  68 001e 2046     		mov	r0, r4
  69 0020 FFF7FEFF 		bl	lv_obj_check_type
  70              	.LVL4:
  71              		.loc 1 245 12 discriminator 1 view .LVU13
  72 0024 0646     		mov	r6, r0
  73 0026 0028     		cmp	r0, #0
  74 0028 64D0     		beq	.L9
 246:Drivers/lvgl/src/extra/themes/mono/lv_theme_mono.c ****         lv_obj_add_style(obj, &styles->card, 0);
  75              		.loc 1 246 9 is_stmt 1 view .LVU14
  76              		.loc 1 246 38 is_stmt 0 view .LVU15
  77 002a AC4E     		ldr	r6, .L64+8
  78              		.loc 1 246 9 view .LVU16
  79 002c 3168     		ldr	r1, [r6]
  80 002e 2A46     		mov	r2, r5
  81 0030 2046     		mov	r0, r4
  82 0032 0831     		adds	r1, r1, #8
  83 0034 FFF7FEFF 		bl	lv_obj_add_style
  84              	.LVL5:
 247:Drivers/lvgl/src/extra/themes/mono/lv_theme_mono.c ****         lv_obj_add_style(obj, &styles->pr, LV_STATE_PRESSED);
  85              		.loc 1 247 9 is_stmt 1 view .LVU17
  86 0038 3168     		ldr	r1, [r6]
  87 003a 2022     		movs	r2, #32
  88 003c 1144     		add	r1, r1, r2
  89 003e 2046     		mov	r0, r4
  90 0040 FFF7FEFF 		bl	lv_obj_add_style
  91              	.LVL6:
 248:Drivers/lvgl/src/extra/themes/mono/lv_theme_mono.c ****         lv_obj_add_style(obj, &styles->inv, LV_STATE_CHECKED);
  92              		.loc 1 248 9 view .LVU18
  93 0044 3168     		ldr	r1, [r6]
ARM GAS  /var/folders/lp/x54gwt890xv47sdkqj1k04q40000gn/T//cc6ygGfE.s 			page 7


  94 0046 0122     		movs	r2, #1
  95 0048 2046     		mov	r0, r4
  96 004a 2831     		adds	r1, r1, #40
  97 004c FFF7FEFF 		bl	lv_obj_add_style
  98              	.LVL7:
 249:Drivers/lvgl/src/extra/themes/mono/lv_theme_mono.c ****         lv_obj_add_style(obj, &styles->disabled, LV_STATE_DISABLED);
  99              		.loc 1 249 9 view .LVU19
 100 0050 3168     		ldr	r1, [r6]
 101 0052 8022     		movs	r2, #128
 102 0054 2046     		mov	r0, r4
 103 0056 3031     		adds	r1, r1, #48
 104              	.L46:
 250:Drivers/lvgl/src/extra/themes/mono/lv_theme_mono.c ****         lv_obj_add_style(obj, &styles->focus, LV_STATE_FOCUS_KEY);
 251:Drivers/lvgl/src/extra/themes/mono/lv_theme_mono.c ****         lv_obj_add_style(obj, &styles->edit, LV_STATE_EDITED);
 252:Drivers/lvgl/src/extra/themes/mono/lv_theme_mono.c ****     }
 253:Drivers/lvgl/src/extra/themes/mono/lv_theme_mono.c **** #endif
 254:Drivers/lvgl/src/extra/themes/mono/lv_theme_mono.c **** 
 255:Drivers/lvgl/src/extra/themes/mono/lv_theme_mono.c **** #if LV_USE_BTNMATRIX
 256:Drivers/lvgl/src/extra/themes/mono/lv_theme_mono.c ****     else if(lv_obj_check_type(obj, &lv_btnmatrix_class)) {
 257:Drivers/lvgl/src/extra/themes/mono/lv_theme_mono.c **** #if LV_USE_MSGBOX
 258:Drivers/lvgl/src/extra/themes/mono/lv_theme_mono.c ****         if(lv_obj_check_type(lv_obj_get_parent(obj), &lv_msgbox_class)) {
 259:Drivers/lvgl/src/extra/themes/mono/lv_theme_mono.c ****             lv_obj_add_style(obj, &styles->pad_gap, 0);
 260:Drivers/lvgl/src/extra/themes/mono/lv_theme_mono.c ****             lv_obj_add_style(obj, &styles->card, LV_PART_ITEMS);
 261:Drivers/lvgl/src/extra/themes/mono/lv_theme_mono.c ****             lv_obj_add_style(obj, &styles->pr, LV_PART_ITEMS | LV_STATE_PRESSED);
 262:Drivers/lvgl/src/extra/themes/mono/lv_theme_mono.c ****             lv_obj_add_style(obj, &styles->disabled, LV_PART_ITEMS | LV_STATE_DISABLED);
 263:Drivers/lvgl/src/extra/themes/mono/lv_theme_mono.c ****             lv_obj_add_style(obj, &styles->underline, LV_PART_ITEMS | LV_STATE_FOCUS_KEY);
 264:Drivers/lvgl/src/extra/themes/mono/lv_theme_mono.c ****             lv_obj_add_style(obj, &styles->large_border, LV_PART_ITEMS | LV_STATE_FOCUS_KEY);
 265:Drivers/lvgl/src/extra/themes/mono/lv_theme_mono.c ****             return;
 266:Drivers/lvgl/src/extra/themes/mono/lv_theme_mono.c ****         }
 267:Drivers/lvgl/src/extra/themes/mono/lv_theme_mono.c **** #endif
 268:Drivers/lvgl/src/extra/themes/mono/lv_theme_mono.c **** #if LV_USE_TABVIEW
 269:Drivers/lvgl/src/extra/themes/mono/lv_theme_mono.c ****         if(lv_obj_check_type(lv_obj_get_parent(obj), &lv_tabview_class)) {
 270:Drivers/lvgl/src/extra/themes/mono/lv_theme_mono.c ****             lv_obj_add_style(obj, &styles->pad_gap, 0);
 271:Drivers/lvgl/src/extra/themes/mono/lv_theme_mono.c ****             lv_obj_add_style(obj, &styles->card, LV_PART_ITEMS);
 272:Drivers/lvgl/src/extra/themes/mono/lv_theme_mono.c ****             lv_obj_add_style(obj, &styles->pr, LV_PART_ITEMS | LV_STATE_PRESSED);
 273:Drivers/lvgl/src/extra/themes/mono/lv_theme_mono.c ****             lv_obj_add_style(obj, &styles->inv, LV_PART_ITEMS | LV_STATE_CHECKED);
 274:Drivers/lvgl/src/extra/themes/mono/lv_theme_mono.c ****             lv_obj_add_style(obj, &styles->disabled, LV_PART_ITEMS | LV_STATE_DISABLED);
 275:Drivers/lvgl/src/extra/themes/mono/lv_theme_mono.c ****             lv_obj_add_style(obj, &styles->focus, LV_STATE_FOCUS_KEY);
 276:Drivers/lvgl/src/extra/themes/mono/lv_theme_mono.c ****             lv_obj_add_style(obj, &styles->underline, LV_PART_ITEMS | LV_STATE_FOCUS_KEY);
 277:Drivers/lvgl/src/extra/themes/mono/lv_theme_mono.c ****             lv_obj_add_style(obj, &styles->large_border, LV_PART_ITEMS | LV_STATE_FOCUS_KEY);
 278:Drivers/lvgl/src/extra/themes/mono/lv_theme_mono.c ****             return;
 279:Drivers/lvgl/src/extra/themes/mono/lv_theme_mono.c ****         }
 280:Drivers/lvgl/src/extra/themes/mono/lv_theme_mono.c **** #endif
 281:Drivers/lvgl/src/extra/themes/mono/lv_theme_mono.c ****         lv_obj_add_style(obj, &styles->card, 0);
 282:Drivers/lvgl/src/extra/themes/mono/lv_theme_mono.c ****         lv_obj_add_style(obj, &styles->focus, LV_STATE_FOCUS_KEY);
 283:Drivers/lvgl/src/extra/themes/mono/lv_theme_mono.c ****         lv_obj_add_style(obj, &styles->card, LV_PART_ITEMS);
 284:Drivers/lvgl/src/extra/themes/mono/lv_theme_mono.c ****         lv_obj_add_style(obj, &styles->pr, LV_PART_ITEMS | LV_STATE_PRESSED);
 285:Drivers/lvgl/src/extra/themes/mono/lv_theme_mono.c ****         lv_obj_add_style(obj, &styles->inv, LV_PART_ITEMS | LV_STATE_CHECKED);
 286:Drivers/lvgl/src/extra/themes/mono/lv_theme_mono.c ****         lv_obj_add_style(obj, &styles->disabled, LV_PART_ITEMS | LV_STATE_DISABLED);
 287:Drivers/lvgl/src/extra/themes/mono/lv_theme_mono.c ****         lv_obj_add_style(obj, &styles->underline, LV_PART_ITEMS | LV_STATE_FOCUS_KEY);
 288:Drivers/lvgl/src/extra/themes/mono/lv_theme_mono.c ****         lv_obj_add_style(obj, &styles->large_border, LV_PART_ITEMS | LV_STATE_FOCUS_KEY);
 289:Drivers/lvgl/src/extra/themes/mono/lv_theme_mono.c ****     }
 290:Drivers/lvgl/src/extra/themes/mono/lv_theme_mono.c **** #endif
 291:Drivers/lvgl/src/extra/themes/mono/lv_theme_mono.c **** 
 292:Drivers/lvgl/src/extra/themes/mono/lv_theme_mono.c **** #if LV_USE_BAR
 293:Drivers/lvgl/src/extra/themes/mono/lv_theme_mono.c ****     else if(lv_obj_check_type(obj, &lv_bar_class)) {
 294:Drivers/lvgl/src/extra/themes/mono/lv_theme_mono.c ****         lv_obj_add_style(obj, &styles->card, 0);
ARM GAS  /var/folders/lp/x54gwt890xv47sdkqj1k04q40000gn/T//cc6ygGfE.s 			page 8


 295:Drivers/lvgl/src/extra/themes/mono/lv_theme_mono.c ****         lv_obj_add_style(obj, &styles->pad_zero, 0);
 296:Drivers/lvgl/src/extra/themes/mono/lv_theme_mono.c ****         lv_obj_add_style(obj, &styles->inv, LV_PART_INDICATOR);
 297:Drivers/lvgl/src/extra/themes/mono/lv_theme_mono.c ****         lv_obj_add_style(obj, &styles->focus, LV_STATE_FOCUS_KEY);
 298:Drivers/lvgl/src/extra/themes/mono/lv_theme_mono.c ****     }
 299:Drivers/lvgl/src/extra/themes/mono/lv_theme_mono.c **** #endif
 300:Drivers/lvgl/src/extra/themes/mono/lv_theme_mono.c **** 
 301:Drivers/lvgl/src/extra/themes/mono/lv_theme_mono.c **** #if LV_USE_SLIDER
 302:Drivers/lvgl/src/extra/themes/mono/lv_theme_mono.c ****     else if(lv_obj_check_type(obj, &lv_slider_class)) {
 303:Drivers/lvgl/src/extra/themes/mono/lv_theme_mono.c ****         lv_obj_add_style(obj, &styles->card, 0);
 304:Drivers/lvgl/src/extra/themes/mono/lv_theme_mono.c ****         lv_obj_add_style(obj, &styles->pad_zero, 0);
 305:Drivers/lvgl/src/extra/themes/mono/lv_theme_mono.c ****         lv_obj_add_style(obj, &styles->inv, LV_PART_INDICATOR);
 306:Drivers/lvgl/src/extra/themes/mono/lv_theme_mono.c ****         lv_obj_add_style(obj, &styles->card, LV_PART_KNOB);
 307:Drivers/lvgl/src/extra/themes/mono/lv_theme_mono.c ****         lv_obj_add_style(obj, &styles->radius_circle, LV_PART_KNOB);
 308:Drivers/lvgl/src/extra/themes/mono/lv_theme_mono.c ****         lv_obj_add_style(obj, &styles->focus, LV_STATE_FOCUS_KEY);
 309:Drivers/lvgl/src/extra/themes/mono/lv_theme_mono.c ****         lv_obj_add_style(obj, &styles->edit, LV_STATE_EDITED);
 310:Drivers/lvgl/src/extra/themes/mono/lv_theme_mono.c ****     }
 311:Drivers/lvgl/src/extra/themes/mono/lv_theme_mono.c **** #endif
 312:Drivers/lvgl/src/extra/themes/mono/lv_theme_mono.c **** 
 313:Drivers/lvgl/src/extra/themes/mono/lv_theme_mono.c **** #if LV_USE_TABLE
 314:Drivers/lvgl/src/extra/themes/mono/lv_theme_mono.c ****     else if(lv_obj_check_type(obj, &lv_table_class)) {
 315:Drivers/lvgl/src/extra/themes/mono/lv_theme_mono.c ****         lv_obj_add_style(obj, &styles->scrollbar, LV_PART_SCROLLBAR);
 316:Drivers/lvgl/src/extra/themes/mono/lv_theme_mono.c ****         lv_obj_add_style(obj, &styles->card, LV_PART_ITEMS);
 317:Drivers/lvgl/src/extra/themes/mono/lv_theme_mono.c ****         lv_obj_add_style(obj, &styles->no_radius, LV_PART_ITEMS);
 318:Drivers/lvgl/src/extra/themes/mono/lv_theme_mono.c ****         lv_obj_add_style(obj, &styles->pr, LV_PART_ITEMS | LV_STATE_PRESSED);
 319:Drivers/lvgl/src/extra/themes/mono/lv_theme_mono.c ****         lv_obj_add_style(obj, &styles->focus, LV_STATE_FOCUS_KEY);
 320:Drivers/lvgl/src/extra/themes/mono/lv_theme_mono.c ****         lv_obj_add_style(obj, &styles->inv, LV_PART_ITEMS | LV_STATE_FOCUS_KEY);
 321:Drivers/lvgl/src/extra/themes/mono/lv_theme_mono.c ****         lv_obj_add_style(obj, &styles->edit, LV_STATE_EDITED);
 322:Drivers/lvgl/src/extra/themes/mono/lv_theme_mono.c ****     }
 323:Drivers/lvgl/src/extra/themes/mono/lv_theme_mono.c **** #endif
 324:Drivers/lvgl/src/extra/themes/mono/lv_theme_mono.c **** 
 325:Drivers/lvgl/src/extra/themes/mono/lv_theme_mono.c **** #if LV_USE_CHECKBOX
 326:Drivers/lvgl/src/extra/themes/mono/lv_theme_mono.c ****     else if(lv_obj_check_type(obj, &lv_checkbox_class)) {
 327:Drivers/lvgl/src/extra/themes/mono/lv_theme_mono.c ****         lv_obj_add_style(obj, &styles->pad_gap, LV_PART_MAIN);
 328:Drivers/lvgl/src/extra/themes/mono/lv_theme_mono.c ****         lv_obj_add_style(obj, &styles->card, LV_PART_INDICATOR);
 329:Drivers/lvgl/src/extra/themes/mono/lv_theme_mono.c ****         lv_obj_add_style(obj, &styles->disabled, LV_PART_INDICATOR | LV_STATE_DISABLED);
 330:Drivers/lvgl/src/extra/themes/mono/lv_theme_mono.c ****         lv_obj_add_style(obj, &styles->inv, LV_PART_INDICATOR | LV_STATE_CHECKED);
 331:Drivers/lvgl/src/extra/themes/mono/lv_theme_mono.c ****         lv_obj_add_style(obj, &styles->pr, LV_PART_INDICATOR | LV_STATE_PRESSED);
 105              		.loc 1 331 9 is_stmt 0 view .LVU20
 106 0058 FFF7FEFF 		bl	lv_obj_add_style
 107              	.LVL8:
 332:Drivers/lvgl/src/extra/themes/mono/lv_theme_mono.c ****         lv_obj_add_style(obj, &styles->focus, LV_STATE_FOCUS_KEY);
 108              		.loc 1 332 9 is_stmt 1 view .LVU21
 109 005c 3168     		ldr	r1, [r6]
 110 005e 2046     		mov	r0, r4
 111 0060 0422     		movs	r2, #4
 112 0062 3831     		adds	r1, r1, #56
 113 0064 FFF7FEFF 		bl	lv_obj_add_style
 114              	.LVL9:
 333:Drivers/lvgl/src/extra/themes/mono/lv_theme_mono.c ****         lv_obj_add_style(obj, &styles->edit, LV_STATE_EDITED);
 115              		.loc 1 333 9 view .LVU22
 116 0068 3168     		ldr	r1, [r6]
 117 006a 2046     		mov	r0, r4
 118 006c 0822     		movs	r2, #8
 334:Drivers/lvgl/src/extra/themes/mono/lv_theme_mono.c ****     }
 335:Drivers/lvgl/src/extra/themes/mono/lv_theme_mono.c **** #endif
 336:Drivers/lvgl/src/extra/themes/mono/lv_theme_mono.c **** 
 337:Drivers/lvgl/src/extra/themes/mono/lv_theme_mono.c **** #if LV_USE_SWITCH
ARM GAS  /var/folders/lp/x54gwt890xv47sdkqj1k04q40000gn/T//cc6ygGfE.s 			page 9


 338:Drivers/lvgl/src/extra/themes/mono/lv_theme_mono.c ****     else if(lv_obj_check_type(obj, &lv_switch_class)) {
 339:Drivers/lvgl/src/extra/themes/mono/lv_theme_mono.c ****         lv_obj_add_style(obj, &styles->card, 0);
 340:Drivers/lvgl/src/extra/themes/mono/lv_theme_mono.c ****         lv_obj_add_style(obj, &styles->radius_circle, 0);
 341:Drivers/lvgl/src/extra/themes/mono/lv_theme_mono.c ****         lv_obj_add_style(obj, &styles->pad_zero, 0);
 342:Drivers/lvgl/src/extra/themes/mono/lv_theme_mono.c ****         lv_obj_add_style(obj, &styles->inv, LV_PART_INDICATOR);
 343:Drivers/lvgl/src/extra/themes/mono/lv_theme_mono.c ****         lv_obj_add_style(obj, &styles->radius_circle, LV_PART_INDICATOR);
 344:Drivers/lvgl/src/extra/themes/mono/lv_theme_mono.c ****         lv_obj_add_style(obj, &styles->card, LV_PART_KNOB);
 345:Drivers/lvgl/src/extra/themes/mono/lv_theme_mono.c ****         lv_obj_add_style(obj, &styles->radius_circle, LV_PART_KNOB);
 346:Drivers/lvgl/src/extra/themes/mono/lv_theme_mono.c ****         lv_obj_add_style(obj, &styles->pad_zero, LV_PART_KNOB);
 347:Drivers/lvgl/src/extra/themes/mono/lv_theme_mono.c ****         lv_obj_add_style(obj, &styles->focus, LV_STATE_FOCUS_KEY);
 348:Drivers/lvgl/src/extra/themes/mono/lv_theme_mono.c ****         lv_obj_add_style(obj, &styles->edit, LV_STATE_EDITED);
 349:Drivers/lvgl/src/extra/themes/mono/lv_theme_mono.c ****     }
 350:Drivers/lvgl/src/extra/themes/mono/lv_theme_mono.c **** #endif
 351:Drivers/lvgl/src/extra/themes/mono/lv_theme_mono.c **** 
 352:Drivers/lvgl/src/extra/themes/mono/lv_theme_mono.c **** #if LV_USE_CHART
 353:Drivers/lvgl/src/extra/themes/mono/lv_theme_mono.c ****     else if(lv_obj_check_type(obj, &lv_chart_class)) {
 354:Drivers/lvgl/src/extra/themes/mono/lv_theme_mono.c ****         lv_obj_add_style(obj, &styles->card, 0);
 355:Drivers/lvgl/src/extra/themes/mono/lv_theme_mono.c ****         lv_obj_add_style(obj, &styles->scrollbar, LV_PART_SCROLLBAR);
 356:Drivers/lvgl/src/extra/themes/mono/lv_theme_mono.c ****         lv_obj_add_style(obj, &styles->card, LV_PART_ITEMS);
 357:Drivers/lvgl/src/extra/themes/mono/lv_theme_mono.c ****         lv_obj_add_style(obj, &styles->card, LV_PART_TICKS);
 358:Drivers/lvgl/src/extra/themes/mono/lv_theme_mono.c ****         lv_obj_add_style(obj, &styles->card, LV_PART_CURSOR);
 359:Drivers/lvgl/src/extra/themes/mono/lv_theme_mono.c ****         lv_obj_add_style(obj, &styles->focus, LV_STATE_FOCUS_KEY);
 360:Drivers/lvgl/src/extra/themes/mono/lv_theme_mono.c ****     }
 361:Drivers/lvgl/src/extra/themes/mono/lv_theme_mono.c **** #endif
 362:Drivers/lvgl/src/extra/themes/mono/lv_theme_mono.c **** 
 363:Drivers/lvgl/src/extra/themes/mono/lv_theme_mono.c **** #if LV_USE_ROLLER
 364:Drivers/lvgl/src/extra/themes/mono/lv_theme_mono.c ****     else if(lv_obj_check_type(obj, &lv_roller_class)) {
 365:Drivers/lvgl/src/extra/themes/mono/lv_theme_mono.c ****         lv_obj_add_style(obj, &styles->card, 0);
 366:Drivers/lvgl/src/extra/themes/mono/lv_theme_mono.c ****         lv_obj_add_style(obj, &styles->large_line_space, 0);
 367:Drivers/lvgl/src/extra/themes/mono/lv_theme_mono.c ****         lv_obj_add_style(obj, &styles->inv, LV_PART_SELECTED);
 368:Drivers/lvgl/src/extra/themes/mono/lv_theme_mono.c ****         lv_obj_add_style(obj, &styles->focus, LV_STATE_FOCUS_KEY);
 369:Drivers/lvgl/src/extra/themes/mono/lv_theme_mono.c ****         lv_obj_add_style(obj, &styles->edit, LV_STATE_EDITED);
 370:Drivers/lvgl/src/extra/themes/mono/lv_theme_mono.c ****     }
 371:Drivers/lvgl/src/extra/themes/mono/lv_theme_mono.c **** #endif
 372:Drivers/lvgl/src/extra/themes/mono/lv_theme_mono.c **** 
 373:Drivers/lvgl/src/extra/themes/mono/lv_theme_mono.c **** #if LV_USE_DROPDOWN
 374:Drivers/lvgl/src/extra/themes/mono/lv_theme_mono.c ****     else if(lv_obj_check_type(obj, &lv_dropdown_class)) {
 375:Drivers/lvgl/src/extra/themes/mono/lv_theme_mono.c ****         lv_obj_add_style(obj, &styles->card, 0);
 376:Drivers/lvgl/src/extra/themes/mono/lv_theme_mono.c ****         lv_obj_add_style(obj, &styles->pr, LV_STATE_PRESSED);
 377:Drivers/lvgl/src/extra/themes/mono/lv_theme_mono.c ****         lv_obj_add_style(obj, &styles->focus, LV_STATE_FOCUS_KEY);
 378:Drivers/lvgl/src/extra/themes/mono/lv_theme_mono.c ****         lv_obj_add_style(obj, &styles->edit, LV_STATE_EDITED);
 379:Drivers/lvgl/src/extra/themes/mono/lv_theme_mono.c ****     }
 380:Drivers/lvgl/src/extra/themes/mono/lv_theme_mono.c ****     else if(lv_obj_check_type(obj, &lv_dropdownlist_class)) {
 381:Drivers/lvgl/src/extra/themes/mono/lv_theme_mono.c ****         lv_obj_add_style(obj, &styles->card, 0);
 382:Drivers/lvgl/src/extra/themes/mono/lv_theme_mono.c ****         lv_obj_add_style(obj, &styles->large_line_space, 0);
 383:Drivers/lvgl/src/extra/themes/mono/lv_theme_mono.c ****         lv_obj_add_style(obj, &styles->scrollbar, LV_PART_SCROLLBAR);
 384:Drivers/lvgl/src/extra/themes/mono/lv_theme_mono.c ****         lv_obj_add_style(obj, &styles->inv, LV_PART_SELECTED | LV_STATE_CHECKED);
 385:Drivers/lvgl/src/extra/themes/mono/lv_theme_mono.c ****         lv_obj_add_style(obj, &styles->pr, LV_PART_SELECTED | LV_STATE_PRESSED);
 386:Drivers/lvgl/src/extra/themes/mono/lv_theme_mono.c ****         lv_obj_add_style(obj, &styles->focus, LV_STATE_FOCUS_KEY);
 387:Drivers/lvgl/src/extra/themes/mono/lv_theme_mono.c ****         lv_obj_add_style(obj, &styles->edit, LV_STATE_EDITED);
 388:Drivers/lvgl/src/extra/themes/mono/lv_theme_mono.c ****     }
 389:Drivers/lvgl/src/extra/themes/mono/lv_theme_mono.c **** #endif
 390:Drivers/lvgl/src/extra/themes/mono/lv_theme_mono.c **** 
 391:Drivers/lvgl/src/extra/themes/mono/lv_theme_mono.c **** #if LV_USE_ARC
 392:Drivers/lvgl/src/extra/themes/mono/lv_theme_mono.c ****     else if(lv_obj_check_type(obj, &lv_arc_class)) {
 393:Drivers/lvgl/src/extra/themes/mono/lv_theme_mono.c ****         lv_obj_add_style(obj, &styles->card, 0);
 394:Drivers/lvgl/src/extra/themes/mono/lv_theme_mono.c ****         lv_obj_add_style(obj, &styles->inv, LV_PART_INDICATOR);
ARM GAS  /var/folders/lp/x54gwt890xv47sdkqj1k04q40000gn/T//cc6ygGfE.s 			page 10


 395:Drivers/lvgl/src/extra/themes/mono/lv_theme_mono.c ****         lv_obj_add_style(obj, &styles->pad_zero, LV_PART_INDICATOR);
 396:Drivers/lvgl/src/extra/themes/mono/lv_theme_mono.c ****         lv_obj_add_style(obj, &styles->card, LV_PART_KNOB);
 397:Drivers/lvgl/src/extra/themes/mono/lv_theme_mono.c ****         lv_obj_add_style(obj, &styles->radius_circle, LV_PART_KNOB);
 398:Drivers/lvgl/src/extra/themes/mono/lv_theme_mono.c ****         lv_obj_add_style(obj, &styles->focus, LV_STATE_FOCUS_KEY);
 399:Drivers/lvgl/src/extra/themes/mono/lv_theme_mono.c ****         lv_obj_add_style(obj, &styles->edit, LV_STATE_EDITED);
 400:Drivers/lvgl/src/extra/themes/mono/lv_theme_mono.c ****     }
 401:Drivers/lvgl/src/extra/themes/mono/lv_theme_mono.c **** #endif
 402:Drivers/lvgl/src/extra/themes/mono/lv_theme_mono.c **** 
 403:Drivers/lvgl/src/extra/themes/mono/lv_theme_mono.c **** #if LV_USE_METER
 404:Drivers/lvgl/src/extra/themes/mono/lv_theme_mono.c ****     else if(lv_obj_check_type(obj, &lv_meter_class)) {
 405:Drivers/lvgl/src/extra/themes/mono/lv_theme_mono.c ****         lv_obj_add_style(obj, &styles->card, 0);
 406:Drivers/lvgl/src/extra/themes/mono/lv_theme_mono.c ****     }
 407:Drivers/lvgl/src/extra/themes/mono/lv_theme_mono.c **** #endif
 408:Drivers/lvgl/src/extra/themes/mono/lv_theme_mono.c **** 
 409:Drivers/lvgl/src/extra/themes/mono/lv_theme_mono.c **** #if LV_USE_TEXTAREA
 410:Drivers/lvgl/src/extra/themes/mono/lv_theme_mono.c ****     else if(lv_obj_check_type(obj, &lv_textarea_class)) {
 411:Drivers/lvgl/src/extra/themes/mono/lv_theme_mono.c ****         lv_obj_add_style(obj, &styles->card, 0);
 412:Drivers/lvgl/src/extra/themes/mono/lv_theme_mono.c ****         lv_obj_add_style(obj, &styles->scrollbar, LV_PART_SCROLLBAR);
 413:Drivers/lvgl/src/extra/themes/mono/lv_theme_mono.c ****         lv_obj_add_style(obj, &styles->ta_cursor, LV_PART_CURSOR | LV_STATE_FOCUSED);
 414:Drivers/lvgl/src/extra/themes/mono/lv_theme_mono.c ****         lv_obj_add_style(obj, &styles->focus, LV_STATE_FOCUSED);
 415:Drivers/lvgl/src/extra/themes/mono/lv_theme_mono.c ****         lv_obj_add_style(obj, &styles->edit, LV_STATE_EDITED);
 416:Drivers/lvgl/src/extra/themes/mono/lv_theme_mono.c ****     }
 417:Drivers/lvgl/src/extra/themes/mono/lv_theme_mono.c **** #endif
 418:Drivers/lvgl/src/extra/themes/mono/lv_theme_mono.c **** 
 419:Drivers/lvgl/src/extra/themes/mono/lv_theme_mono.c **** #if LV_USE_CALENDAR
 420:Drivers/lvgl/src/extra/themes/mono/lv_theme_mono.c ****     else if(lv_obj_check_type(obj, &lv_calendar_class)) {
 421:Drivers/lvgl/src/extra/themes/mono/lv_theme_mono.c ****         lv_obj_add_style(obj, &styles->card, 0);
 422:Drivers/lvgl/src/extra/themes/mono/lv_theme_mono.c ****         lv_obj_add_style(obj, &styles->no_radius, 0);
 423:Drivers/lvgl/src/extra/themes/mono/lv_theme_mono.c ****         lv_obj_add_style(obj, &styles->pr, LV_PART_ITEMS | LV_STATE_PRESSED);
 424:Drivers/lvgl/src/extra/themes/mono/lv_theme_mono.c ****         lv_obj_add_style(obj, &styles->disabled, LV_PART_ITEMS | LV_STATE_DISABLED);
 425:Drivers/lvgl/src/extra/themes/mono/lv_theme_mono.c ****         lv_obj_add_style(obj, &styles->focus, LV_STATE_FOCUS_KEY);
 426:Drivers/lvgl/src/extra/themes/mono/lv_theme_mono.c ****         lv_obj_add_style(obj, &styles->edit, LV_STATE_EDITED);
 427:Drivers/lvgl/src/extra/themes/mono/lv_theme_mono.c ****         lv_obj_add_style(obj, &styles->large_border, LV_PART_ITEMS | LV_STATE_FOCUS_KEY);
 428:Drivers/lvgl/src/extra/themes/mono/lv_theme_mono.c ****     }
 429:Drivers/lvgl/src/extra/themes/mono/lv_theme_mono.c **** #endif
 430:Drivers/lvgl/src/extra/themes/mono/lv_theme_mono.c **** 
 431:Drivers/lvgl/src/extra/themes/mono/lv_theme_mono.c **** #if LV_USE_KEYBOARD
 432:Drivers/lvgl/src/extra/themes/mono/lv_theme_mono.c ****     else if(lv_obj_check_type(obj, &lv_keyboard_class)) {
 433:Drivers/lvgl/src/extra/themes/mono/lv_theme_mono.c ****         lv_obj_add_style(obj, &styles->card, 0);
 434:Drivers/lvgl/src/extra/themes/mono/lv_theme_mono.c ****         lv_obj_add_style(obj, &styles->card, LV_PART_ITEMS);
 435:Drivers/lvgl/src/extra/themes/mono/lv_theme_mono.c ****         lv_obj_add_style(obj, &styles->pr, LV_PART_ITEMS | LV_STATE_PRESSED);
 436:Drivers/lvgl/src/extra/themes/mono/lv_theme_mono.c ****         lv_obj_add_style(obj, &styles->inv, LV_PART_ITEMS | LV_STATE_CHECKED);
 437:Drivers/lvgl/src/extra/themes/mono/lv_theme_mono.c ****         lv_obj_add_style(obj, &styles->focus, LV_STATE_FOCUS_KEY);
 438:Drivers/lvgl/src/extra/themes/mono/lv_theme_mono.c ****         lv_obj_add_style(obj, &styles->edit, LV_STATE_EDITED);
 439:Drivers/lvgl/src/extra/themes/mono/lv_theme_mono.c ****         lv_obj_add_style(obj, &styles->large_border, LV_PART_ITEMS | LV_STATE_EDITED);
 440:Drivers/lvgl/src/extra/themes/mono/lv_theme_mono.c ****     }
 441:Drivers/lvgl/src/extra/themes/mono/lv_theme_mono.c **** #endif
 442:Drivers/lvgl/src/extra/themes/mono/lv_theme_mono.c **** #if LV_USE_LIST
 443:Drivers/lvgl/src/extra/themes/mono/lv_theme_mono.c ****     else if(lv_obj_check_type(obj, &lv_list_class)) {
 444:Drivers/lvgl/src/extra/themes/mono/lv_theme_mono.c ****         lv_obj_add_style(obj, &styles->card, 0);
 445:Drivers/lvgl/src/extra/themes/mono/lv_theme_mono.c ****         lv_obj_add_style(obj, &styles->scrollbar, LV_PART_SCROLLBAR);
 446:Drivers/lvgl/src/extra/themes/mono/lv_theme_mono.c ****         return;
 447:Drivers/lvgl/src/extra/themes/mono/lv_theme_mono.c ****     }
 448:Drivers/lvgl/src/extra/themes/mono/lv_theme_mono.c ****     else if(lv_obj_check_type(obj, &lv_list_text_class)) {
 449:Drivers/lvgl/src/extra/themes/mono/lv_theme_mono.c **** 
 450:Drivers/lvgl/src/extra/themes/mono/lv_theme_mono.c ****     }
 451:Drivers/lvgl/src/extra/themes/mono/lv_theme_mono.c ****     else if(lv_obj_check_type(obj, &lv_list_btn_class)) {
ARM GAS  /var/folders/lp/x54gwt890xv47sdkqj1k04q40000gn/T//cc6ygGfE.s 			page 11


 452:Drivers/lvgl/src/extra/themes/mono/lv_theme_mono.c ****         lv_obj_add_style(obj, &styles->card, 0);
 453:Drivers/lvgl/src/extra/themes/mono/lv_theme_mono.c ****         lv_obj_add_style(obj, &styles->pr, LV_STATE_PRESSED);
 454:Drivers/lvgl/src/extra/themes/mono/lv_theme_mono.c ****         lv_obj_add_style(obj, &styles->focus, LV_STATE_FOCUS_KEY);
 455:Drivers/lvgl/src/extra/themes/mono/lv_theme_mono.c ****         lv_obj_add_style(obj, &styles->large_border, LV_STATE_EDITED);
 456:Drivers/lvgl/src/extra/themes/mono/lv_theme_mono.c **** 
 457:Drivers/lvgl/src/extra/themes/mono/lv_theme_mono.c ****     }
 458:Drivers/lvgl/src/extra/themes/mono/lv_theme_mono.c **** #endif
 459:Drivers/lvgl/src/extra/themes/mono/lv_theme_mono.c **** #if LV_USE_MSGBOX
 460:Drivers/lvgl/src/extra/themes/mono/lv_theme_mono.c ****     else if(lv_obj_check_type(obj, &lv_msgbox_class)) {
 461:Drivers/lvgl/src/extra/themes/mono/lv_theme_mono.c ****         lv_obj_add_style(obj, &styles->card, 0);
 462:Drivers/lvgl/src/extra/themes/mono/lv_theme_mono.c ****         return;
 463:Drivers/lvgl/src/extra/themes/mono/lv_theme_mono.c ****     }
 464:Drivers/lvgl/src/extra/themes/mono/lv_theme_mono.c **** #endif
 465:Drivers/lvgl/src/extra/themes/mono/lv_theme_mono.c **** #if LV_USE_SPINBOX
 466:Drivers/lvgl/src/extra/themes/mono/lv_theme_mono.c ****     else if(lv_obj_check_type(obj, &lv_spinbox_class)) {
 467:Drivers/lvgl/src/extra/themes/mono/lv_theme_mono.c ****         lv_obj_add_style(obj, &styles->card, 0);
 468:Drivers/lvgl/src/extra/themes/mono/lv_theme_mono.c ****         lv_obj_add_style(obj, &styles->inv, LV_PART_CURSOR);
 469:Drivers/lvgl/src/extra/themes/mono/lv_theme_mono.c ****         lv_obj_add_style(obj, &styles->focus, LV_STATE_FOCUS_KEY);
 470:Drivers/lvgl/src/extra/themes/mono/lv_theme_mono.c ****         lv_obj_add_style(obj, &styles->edit, LV_STATE_EDITED);
 471:Drivers/lvgl/src/extra/themes/mono/lv_theme_mono.c ****     }
 472:Drivers/lvgl/src/extra/themes/mono/lv_theme_mono.c **** #endif
 473:Drivers/lvgl/src/extra/themes/mono/lv_theme_mono.c **** #if LV_USE_TILEVIEW
 474:Drivers/lvgl/src/extra/themes/mono/lv_theme_mono.c ****     else if(lv_obj_check_type(obj, &lv_tileview_class)) {
 475:Drivers/lvgl/src/extra/themes/mono/lv_theme_mono.c ****         lv_obj_add_style(obj, &styles->scr, 0);
 476:Drivers/lvgl/src/extra/themes/mono/lv_theme_mono.c ****         lv_obj_add_style(obj, &styles->scrollbar, LV_PART_SCROLLBAR);
 477:Drivers/lvgl/src/extra/themes/mono/lv_theme_mono.c ****     }
 478:Drivers/lvgl/src/extra/themes/mono/lv_theme_mono.c ****     else if(lv_obj_check_type(obj, &lv_tileview_tile_class)) {
 479:Drivers/lvgl/src/extra/themes/mono/lv_theme_mono.c ****         lv_obj_add_style(obj, &styles->scrollbar, LV_PART_SCROLLBAR);
 480:Drivers/lvgl/src/extra/themes/mono/lv_theme_mono.c ****     }
 481:Drivers/lvgl/src/extra/themes/mono/lv_theme_mono.c **** #endif
 482:Drivers/lvgl/src/extra/themes/mono/lv_theme_mono.c **** 
 483:Drivers/lvgl/src/extra/themes/mono/lv_theme_mono.c **** #if LV_USE_LED
 484:Drivers/lvgl/src/extra/themes/mono/lv_theme_mono.c ****     else if(lv_obj_check_type(obj, &lv_led_class)) {
 485:Drivers/lvgl/src/extra/themes/mono/lv_theme_mono.c ****         lv_obj_add_style(obj, &styles->card, 0);
 486:Drivers/lvgl/src/extra/themes/mono/lv_theme_mono.c ****     }
 487:Drivers/lvgl/src/extra/themes/mono/lv_theme_mono.c **** #endif
 488:Drivers/lvgl/src/extra/themes/mono/lv_theme_mono.c **** }
 119              		.loc 1 488 1 is_stmt 0 view .LVU23
 120 006e BDE8F840 		pop	{r3, r4, r5, r6, r7, lr}
 121              		.cfi_remember_state
 122              		.cfi_restore 14
 123              		.cfi_restore 7
 124              		.cfi_restore 6
 125              		.cfi_restore 5
 126              		.cfi_restore 4
 127              		.cfi_restore 3
 128              		.cfi_def_cfa_offset 0
 129              	.LVL10:
 333:Drivers/lvgl/src/extra/themes/mono/lv_theme_mono.c ****         lv_obj_add_style(obj, &styles->edit, LV_STATE_EDITED);
 130              		.loc 1 333 9 view .LVU24
 131 0072 4031     		adds	r1, r1, #64
 132 0074 FFF7FEBF 		b	lv_obj_add_style
 133              	.LVL11:
 134              	.L57:
 135              		.cfi_restore_state
 136              	.LBB70:
 212:Drivers/lvgl/src/extra/themes/mono/lv_theme_mono.c ****         /*Tabview content area*/
ARM GAS  /var/folders/lp/x54gwt890xv47sdkqj1k04q40000gn/T//cc6ygGfE.s 			page 12


 137              		.loc 1 212 9 is_stmt 1 view .LVU25
 212:Drivers/lvgl/src/extra/themes/mono/lv_theme_mono.c ****         /*Tabview content area*/
 138              		.loc 1 212 29 is_stmt 0 view .LVU26
 139 0078 2046     		mov	r0, r4
 140 007a FFF7FEFF 		bl	lv_obj_get_parent
 141              	.LVL12:
 214:Drivers/lvgl/src/extra/themes/mono/lv_theme_mono.c ****             return;
 142              		.loc 1 214 12 view .LVU27
 143 007e 9849     		ldr	r1, .L64+12
 212:Drivers/lvgl/src/extra/themes/mono/lv_theme_mono.c ****         /*Tabview content area*/
 144              		.loc 1 212 29 view .LVU28
 145 0080 0646     		mov	r6, r0
 146              	.LVL13:
 214:Drivers/lvgl/src/extra/themes/mono/lv_theme_mono.c ****             return;
 147              		.loc 1 214 9 is_stmt 1 view .LVU29
 214:Drivers/lvgl/src/extra/themes/mono/lv_theme_mono.c ****             return;
 148              		.loc 1 214 12 is_stmt 0 view .LVU30
 149 0082 FFF7FEFF 		bl	lv_obj_check_type
 150              	.LVL14:
 214:Drivers/lvgl/src/extra/themes/mono/lv_theme_mono.c ****             return;
 151              		.loc 1 214 11 discriminator 1 view .LVU31
 152 0086 0546     		mov	r5, r0
 153 0088 98BB     		cbnz	r0, .L1
 218:Drivers/lvgl/src/extra/themes/mono/lv_theme_mono.c ****             lv_obj_add_style(obj, &styles->card, 0);
 154              		.loc 1 218 14 is_stmt 1 view .LVU32
 218:Drivers/lvgl/src/extra/themes/mono/lv_theme_mono.c ****             lv_obj_add_style(obj, &styles->card, 0);
 155              		.loc 1 218 35 is_stmt 0 view .LVU33
 156 008a 3046     		mov	r0, r6
 157 008c FFF7FEFF 		bl	lv_obj_get_parent
 158              	.LVL15:
 218:Drivers/lvgl/src/extra/themes/mono/lv_theme_mono.c ****             lv_obj_add_style(obj, &styles->card, 0);
 159              		.loc 1 218 17 discriminator 1 view .LVU34
 160 0090 9349     		ldr	r1, .L64+12
 161 0092 FFF7FEFF 		bl	lv_obj_check_type
 162              	.LVL16:
 218:Drivers/lvgl/src/extra/themes/mono/lv_theme_mono.c ****             lv_obj_add_style(obj, &styles->card, 0);
 163              		.loc 1 218 16 discriminator 2 view .LVU35
 164 0096 0028     		cmp	r0, #0
 165 0098 40F09D80 		bne	.L58
 228:Drivers/lvgl/src/extra/themes/mono/lv_theme_mono.c ****             lv_obj_add_style(obj, &styles->card, 0);
 166              		.loc 1 228 9 is_stmt 1 view .LVU36
 228:Drivers/lvgl/src/extra/themes/mono/lv_theme_mono.c ****             lv_obj_add_style(obj, &styles->card, 0);
 167              		.loc 1 228 12 is_stmt 0 view .LVU37
 168 009c 2046     		mov	r0, r4
 169 009e FFF7FEFF 		bl	lv_obj_get_index
 170              	.LVL17:
 228:Drivers/lvgl/src/extra/themes/mono/lv_theme_mono.c ****             lv_obj_add_style(obj, &styles->card, 0);
 171              		.loc 1 228 11 discriminator 1 view .LVU38
 172 00a2 0546     		mov	r5, r0
 173 00a4 40B9     		cbnz	r0, .L7
 228:Drivers/lvgl/src/extra/themes/mono/lv_theme_mono.c ****             lv_obj_add_style(obj, &styles->card, 0);
 174              		.loc 1 228 60 discriminator 1 view .LVU39
 175 00a6 2046     		mov	r0, r4
 176 00a8 FFF7FEFF 		bl	lv_obj_get_parent
 177              	.LVL18:
 228:Drivers/lvgl/src/extra/themes/mono/lv_theme_mono.c ****             lv_obj_add_style(obj, &styles->card, 0);
 178              		.loc 1 228 42 discriminator 1 view .LVU40
ARM GAS  /var/folders/lp/x54gwt890xv47sdkqj1k04q40000gn/T//cc6ygGfE.s 			page 13


 179 00ac 8D49     		ldr	r1, .L64+16
 180 00ae FFF7FEFF 		bl	lv_obj_check_type
 181              	.LVL19:
 228:Drivers/lvgl/src/extra/themes/mono/lv_theme_mono.c ****             lv_obj_add_style(obj, &styles->card, 0);
 182              		.loc 1 228 39 discriminator 2 view .LVU41
 183 00b2 0028     		cmp	r0, #0
 184 00b4 40F08781 		bne	.L59
 185              	.L7:
 234:Drivers/lvgl/src/extra/themes/mono/lv_theme_mono.c ****             lv_obj_add_style(obj, &styles->card, 0);
 186              		.loc 1 234 14 is_stmt 1 view .LVU42
 234:Drivers/lvgl/src/extra/themes/mono/lv_theme_mono.c ****             lv_obj_add_style(obj, &styles->card, 0);
 187              		.loc 1 234 17 is_stmt 0 view .LVU43
 188 00b8 2046     		mov	r0, r4
 189 00ba FFF7FEFF 		bl	lv_obj_get_index
 190              	.LVL20:
 234:Drivers/lvgl/src/extra/themes/mono/lv_theme_mono.c ****             lv_obj_add_style(obj, &styles->card, 0);
 191              		.loc 1 234 16 discriminator 1 view .LVU44
 192 00be 0128     		cmp	r0, #1
 235:Drivers/lvgl/src/extra/themes/mono/lv_theme_mono.c ****             lv_obj_add_style(obj, &styles->no_radius, 0);
 193              		.loc 1 235 42 view .LVU45
 194 00c0 864D     		ldr	r5, .L64+8
 234:Drivers/lvgl/src/extra/themes/mono/lv_theme_mono.c ****             lv_obj_add_style(obj, &styles->card, 0);
 195              		.loc 1 234 16 discriminator 1 view .LVU46
 196 00c2 00F05981 		beq	.L60
 197              	.L8:
 241:Drivers/lvgl/src/extra/themes/mono/lv_theme_mono.c ****         lv_obj_add_style(obj, &styles->scrollbar, LV_PART_SCROLLBAR);
 198              		.loc 1 241 9 is_stmt 1 view .LVU47
 199 00c6 2968     		ldr	r1, [r5]
 200 00c8 0022     		movs	r2, #0
 201 00ca 2046     		mov	r0, r4
 202 00cc 0831     		adds	r1, r1, #8
 203              	.LVL21:
 204              	.L44:
 236:Drivers/lvgl/src/extra/themes/mono/lv_theme_mono.c ****             lv_obj_add_style(obj, &styles->scrollbar, LV_PART_SCROLLBAR);
 205              		.loc 1 236 13 is_stmt 0 view .LVU48
 206 00ce FFF7FEFF 		bl	lv_obj_add_style
 207              	.LVL22:
 237:Drivers/lvgl/src/extra/themes/mono/lv_theme_mono.c ****             return;
 208              		.loc 1 237 13 is_stmt 1 view .LVU49
 209 00d2 2968     		ldr	r1, [r5]
 210 00d4 2046     		mov	r0, r4
 211 00d6 4FF48032 		mov	r2, #65536
 212              	.LBE70:
 213              		.loc 1 488 1 is_stmt 0 view .LVU50
 214 00da BDE8F840 		pop	{r3, r4, r5, r6, r7, lr}
 215              		.cfi_remember_state
 216              		.cfi_restore 14
 217              		.cfi_restore 7
 218              		.cfi_restore 6
 219              		.cfi_restore 5
 220              		.cfi_restore 4
 221              		.cfi_restore 3
 222              		.cfi_def_cfa_offset 0
 223              	.LVL23:
 224              	.LBB71:
 237:Drivers/lvgl/src/extra/themes/mono/lv_theme_mono.c ****             return;
 225              		.loc 1 237 13 view .LVU51
ARM GAS  /var/folders/lp/x54gwt890xv47sdkqj1k04q40000gn/T//cc6ygGfE.s 			page 14


 226 00de 1031     		adds	r1, r1, #16
 227 00e0 FFF7FEBF 		b	lv_obj_add_style
 228              	.LVL24:
 229              	.L33:
 230              		.cfi_restore_state
 237:Drivers/lvgl/src/extra/themes/mono/lv_theme_mono.c ****             return;
 231              		.loc 1 237 13 view .LVU52
 232              	.LBE71:
 484:Drivers/lvgl/src/extra/themes/mono/lv_theme_mono.c ****         lv_obj_add_style(obj, &styles->card, 0);
 233              		.loc 1 484 10 is_stmt 1 view .LVU53
 484:Drivers/lvgl/src/extra/themes/mono/lv_theme_mono.c ****         lv_obj_add_style(obj, &styles->card, 0);
 234              		.loc 1 484 13 is_stmt 0 view .LVU54
 235 00e4 8049     		ldr	r1, .L64+20
 236 00e6 2046     		mov	r0, r4
 237 00e8 FFF7FEFF 		bl	lv_obj_check_type
 238              	.LVL25:
 484:Drivers/lvgl/src/extra/themes/mono/lv_theme_mono.c ****         lv_obj_add_style(obj, &styles->card, 0);
 239              		.loc 1 484 12 discriminator 1 view .LVU55
 240 00ec 0028     		cmp	r0, #0
 241 00ee 40F0B982 		bne	.L47
 242              	.L1:
 243              		.loc 1 488 1 view .LVU56
 244 00f2 F8BD     		pop	{r3, r4, r5, r6, r7, pc}
 245              	.LVL26:
 246              	.L9:
 256:Drivers/lvgl/src/extra/themes/mono/lv_theme_mono.c **** #if LV_USE_MSGBOX
 247              		.loc 1 256 10 is_stmt 1 view .LVU57
 256:Drivers/lvgl/src/extra/themes/mono/lv_theme_mono.c **** #if LV_USE_MSGBOX
 248              		.loc 1 256 13 is_stmt 0 view .LVU58
 249 00f4 7D49     		ldr	r1, .L64+24
 250 00f6 2046     		mov	r0, r4
 251 00f8 FFF7FEFF 		bl	lv_obj_check_type
 252              	.LVL27:
 256:Drivers/lvgl/src/extra/themes/mono/lv_theme_mono.c **** #if LV_USE_MSGBOX
 253              		.loc 1 256 12 discriminator 1 view .LVU59
 254 00fc 0546     		mov	r5, r0
 255 00fe 0028     		cmp	r0, #0
 256 0100 46D0     		beq	.L10
 258:Drivers/lvgl/src/extra/themes/mono/lv_theme_mono.c ****             lv_obj_add_style(obj, &styles->pad_gap, 0);
 257              		.loc 1 258 9 is_stmt 1 view .LVU60
 258:Drivers/lvgl/src/extra/themes/mono/lv_theme_mono.c ****             lv_obj_add_style(obj, &styles->pad_gap, 0);
 258              		.loc 1 258 30 is_stmt 0 view .LVU61
 259 0102 2046     		mov	r0, r4
 260 0104 FFF7FEFF 		bl	lv_obj_get_parent
 261              	.LVL28:
 258:Drivers/lvgl/src/extra/themes/mono/lv_theme_mono.c ****             lv_obj_add_style(obj, &styles->pad_gap, 0);
 262              		.loc 1 258 12 discriminator 1 view .LVU62
 263 0108 7949     		ldr	r1, .L64+28
 264 010a FFF7FEFF 		bl	lv_obj_check_type
 265              	.LVL29:
 258:Drivers/lvgl/src/extra/themes/mono/lv_theme_mono.c ****             lv_obj_add_style(obj, &styles->pad_gap, 0);
 266              		.loc 1 258 11 discriminator 2 view .LVU63
 267 010e 0546     		mov	r5, r0
 268 0110 0028     		cmp	r0, #0
 269 0112 40F04581 		bne	.L61
 269:Drivers/lvgl/src/extra/themes/mono/lv_theme_mono.c ****             lv_obj_add_style(obj, &styles->pad_gap, 0);
 270              		.loc 1 269 9 is_stmt 1 view .LVU64
ARM GAS  /var/folders/lp/x54gwt890xv47sdkqj1k04q40000gn/T//cc6ygGfE.s 			page 15


 269:Drivers/lvgl/src/extra/themes/mono/lv_theme_mono.c ****             lv_obj_add_style(obj, &styles->pad_gap, 0);
 271              		.loc 1 269 30 is_stmt 0 view .LVU65
 272 0116 2046     		mov	r0, r4
 273 0118 FFF7FEFF 		bl	lv_obj_get_parent
 274              	.LVL30:
 269:Drivers/lvgl/src/extra/themes/mono/lv_theme_mono.c ****             lv_obj_add_style(obj, &styles->pad_gap, 0);
 275              		.loc 1 269 12 discriminator 1 view .LVU66
 276 011c 7049     		ldr	r1, .L64+12
 277 011e FFF7FEFF 		bl	lv_obj_check_type
 278              	.LVL31:
 269:Drivers/lvgl/src/extra/themes/mono/lv_theme_mono.c ****             lv_obj_add_style(obj, &styles->pad_gap, 0);
 279              		.loc 1 269 11 discriminator 2 view .LVU67
 280 0122 0246     		mov	r2, r0
 281 0124 0028     		cmp	r0, #0
 282 0126 40F0F380 		bne	.L62
 281:Drivers/lvgl/src/extra/themes/mono/lv_theme_mono.c ****         lv_obj_add_style(obj, &styles->focus, LV_STATE_FOCUS_KEY);
 283              		.loc 1 281 9 is_stmt 1 view .LVU68
 281:Drivers/lvgl/src/extra/themes/mono/lv_theme_mono.c ****         lv_obj_add_style(obj, &styles->focus, LV_STATE_FOCUS_KEY);
 284              		.loc 1 281 38 is_stmt 0 view .LVU69
 285 012a 6C4D     		ldr	r5, .L64+8
 281:Drivers/lvgl/src/extra/themes/mono/lv_theme_mono.c ****         lv_obj_add_style(obj, &styles->focus, LV_STATE_FOCUS_KEY);
 286              		.loc 1 281 9 view .LVU70
 287 012c 2968     		ldr	r1, [r5]
 288 012e 2046     		mov	r0, r4
 289 0130 0831     		adds	r1, r1, #8
 290 0132 FFF7FEFF 		bl	lv_obj_add_style
 291              	.LVL32:
 282:Drivers/lvgl/src/extra/themes/mono/lv_theme_mono.c ****         lv_obj_add_style(obj, &styles->card, LV_PART_ITEMS);
 292              		.loc 1 282 9 is_stmt 1 view .LVU71
 293 0136 2968     		ldr	r1, [r5]
 294 0138 0422     		movs	r2, #4
 295 013a 2046     		mov	r0, r4
 296 013c 3831     		adds	r1, r1, #56
 297 013e FFF7FEFF 		bl	lv_obj_add_style
 298              	.LVL33:
 283:Drivers/lvgl/src/extra/themes/mono/lv_theme_mono.c ****         lv_obj_add_style(obj, &styles->pr, LV_PART_ITEMS | LV_STATE_PRESSED);
 299              		.loc 1 283 9 view .LVU72
 300 0142 2968     		ldr	r1, [r5]
 301 0144 4FF4A022 		mov	r2, #327680
 302 0148 2046     		mov	r0, r4
 303 014a 0831     		adds	r1, r1, #8
 304 014c FFF7FEFF 		bl	lv_obj_add_style
 305              	.LVL34:
 284:Drivers/lvgl/src/extra/themes/mono/lv_theme_mono.c ****         lv_obj_add_style(obj, &styles->inv, LV_PART_ITEMS | LV_STATE_CHECKED);
 306              		.loc 1 284 9 view .LVU73
 307 0150 2968     		ldr	r1, [r5]
 308 0152 684A     		ldr	r2, .L64+32
 309 0154 2046     		mov	r0, r4
 310 0156 2031     		adds	r1, r1, #32
 311 0158 FFF7FEFF 		bl	lv_obj_add_style
 312              	.LVL35:
 285:Drivers/lvgl/src/extra/themes/mono/lv_theme_mono.c ****         lv_obj_add_style(obj, &styles->disabled, LV_PART_ITEMS | LV_STATE_DISABLED);
 313              		.loc 1 285 9 view .LVU74
 314 015c 2968     		ldr	r1, [r5]
 315 015e 664A     		ldr	r2, .L64+36
 316 0160 2046     		mov	r0, r4
 317 0162 2831     		adds	r1, r1, #40
ARM GAS  /var/folders/lp/x54gwt890xv47sdkqj1k04q40000gn/T//cc6ygGfE.s 			page 16


 318              	.LVL36:
 319              	.L53:
 285:Drivers/lvgl/src/extra/themes/mono/lv_theme_mono.c ****         lv_obj_add_style(obj, &styles->disabled, LV_PART_ITEMS | LV_STATE_DISABLED);
 320              		.loc 1 285 9 is_stmt 0 view .LVU75
 321 0164 FFF7FEFF 		bl	lv_obj_add_style
 322              	.LVL37:
 286:Drivers/lvgl/src/extra/themes/mono/lv_theme_mono.c ****         lv_obj_add_style(obj, &styles->underline, LV_PART_ITEMS | LV_STATE_FOCUS_KEY);
 323              		.loc 1 286 9 is_stmt 1 view .LVU76
 324 0168 2968     		ldr	r1, [r5]
 325 016a 644A     		ldr	r2, .L64+40
 326 016c 2046     		mov	r0, r4
 327 016e 3031     		adds	r1, r1, #48
 328 0170 FFF7FEFF 		bl	lv_obj_add_style
 329              	.LVL38:
 287:Drivers/lvgl/src/extra/themes/mono/lv_theme_mono.c ****         lv_obj_add_style(obj, &styles->large_border, LV_PART_ITEMS | LV_STATE_FOCUS_KEY);
 330              		.loc 1 287 9 view .LVU77
 331 0174 2968     		ldr	r1, [r5]
 332 0176 624A     		ldr	r2, .L64+44
 333 0178 2046     		mov	r0, r4
 334 017a 7831     		adds	r1, r1, #120
 335 017c FFF7FEFF 		bl	lv_obj_add_style
 336              	.LVL39:
 288:Drivers/lvgl/src/extra/themes/mono/lv_theme_mono.c ****     }
 337              		.loc 1 288 9 view .LVU78
 338 0180 5F4A     		ldr	r2, .L64+44
 339              	.L48:
 455:Drivers/lvgl/src/extra/themes/mono/lv_theme_mono.c **** 
 340              		.loc 1 455 9 is_stmt 0 view .LVU79
 341 0182 2968     		ldr	r1, [r5]
 342 0184 2046     		mov	r0, r4
 343 0186 6831     		adds	r1, r1, #104
 344              		.loc 1 488 1 view .LVU80
 345 0188 BDE8F840 		pop	{r3, r4, r5, r6, r7, lr}
 346              		.cfi_remember_state
 347              		.cfi_restore 14
 348              		.cfi_restore 7
 349              		.cfi_restore 6
 350              		.cfi_restore 5
 351              		.cfi_restore 4
 352              		.cfi_restore 3
 353              		.cfi_def_cfa_offset 0
 354              	.LVL40:
 455:Drivers/lvgl/src/extra/themes/mono/lv_theme_mono.c **** 
 355              		.loc 1 455 9 view .LVU81
 356 018c FFF7FEBF 		b	lv_obj_add_style
 357              	.LVL41:
 358              	.L10:
 359              		.cfi_restore_state
 293:Drivers/lvgl/src/extra/themes/mono/lv_theme_mono.c ****         lv_obj_add_style(obj, &styles->card, 0);
 360              		.loc 1 293 10 is_stmt 1 view .LVU82
 293:Drivers/lvgl/src/extra/themes/mono/lv_theme_mono.c ****         lv_obj_add_style(obj, &styles->card, 0);
 361              		.loc 1 293 13 is_stmt 0 view .LVU83
 362 0190 5C49     		ldr	r1, .L64+48
 363 0192 2046     		mov	r0, r4
 364 0194 FFF7FEFF 		bl	lv_obj_check_type
 365              	.LVL42:
 293:Drivers/lvgl/src/extra/themes/mono/lv_theme_mono.c ****         lv_obj_add_style(obj, &styles->card, 0);
ARM GAS  /var/folders/lp/x54gwt890xv47sdkqj1k04q40000gn/T//cc6ygGfE.s 			page 17


 366              		.loc 1 293 12 discriminator 1 view .LVU84
 367 0198 0646     		mov	r6, r0
 368 019a 0028     		cmp	r0, #0
 369 019c 36D0     		beq	.L13
 294:Drivers/lvgl/src/extra/themes/mono/lv_theme_mono.c ****         lv_obj_add_style(obj, &styles->pad_zero, 0);
 370              		.loc 1 294 9 is_stmt 1 view .LVU85
 294:Drivers/lvgl/src/extra/themes/mono/lv_theme_mono.c ****         lv_obj_add_style(obj, &styles->pad_zero, 0);
 371              		.loc 1 294 38 is_stmt 0 view .LVU86
 372 019e 4F4E     		ldr	r6, .L64+8
 294:Drivers/lvgl/src/extra/themes/mono/lv_theme_mono.c ****         lv_obj_add_style(obj, &styles->pad_zero, 0);
 373              		.loc 1 294 9 view .LVU87
 374 01a0 3168     		ldr	r1, [r6]
 375 01a2 2A46     		mov	r2, r5
 376 01a4 2046     		mov	r0, r4
 377 01a6 0831     		adds	r1, r1, #8
 378 01a8 FFF7FEFF 		bl	lv_obj_add_style
 379              	.LVL43:
 295:Drivers/lvgl/src/extra/themes/mono/lv_theme_mono.c ****         lv_obj_add_style(obj, &styles->inv, LV_PART_INDICATOR);
 380              		.loc 1 295 9 is_stmt 1 view .LVU88
 381 01ac 3168     		ldr	r1, [r6]
 382 01ae 2A46     		mov	r2, r5
 383 01b0 2046     		mov	r0, r4
 384 01b2 5031     		adds	r1, r1, #80
 385 01b4 FFF7FEFF 		bl	lv_obj_add_style
 386              	.LVL44:
 296:Drivers/lvgl/src/extra/themes/mono/lv_theme_mono.c ****         lv_obj_add_style(obj, &styles->focus, LV_STATE_FOCUS_KEY);
 387              		.loc 1 296 9 view .LVU89
 388 01b8 3168     		ldr	r1, [r6]
 389 01ba 2046     		mov	r0, r4
 390 01bc 4FF40032 		mov	r2, #131072
 391 01c0 2831     		adds	r1, r1, #40
 392 01c2 FFF7FEFF 		bl	lv_obj_add_style
 393              	.LVL45:
 297:Drivers/lvgl/src/extra/themes/mono/lv_theme_mono.c ****     }
 394              		.loc 1 297 9 view .LVU90
 395 01c6 3168     		ldr	r1, [r6]
 396 01c8 2046     		mov	r0, r4
 397 01ca 0422     		movs	r2, #4
 398              		.loc 1 488 1 is_stmt 0 view .LVU91
 399 01cc BDE8F840 		pop	{r3, r4, r5, r6, r7, lr}
 400              		.cfi_remember_state
 401              		.cfi_restore 14
 402              		.cfi_restore 7
 403              		.cfi_restore 6
 404              		.cfi_restore 5
 405              		.cfi_restore 4
 406              		.cfi_restore 3
 407              		.cfi_def_cfa_offset 0
 408              	.LVL46:
 297:Drivers/lvgl/src/extra/themes/mono/lv_theme_mono.c ****     }
 409              		.loc 1 297 9 view .LVU92
 410 01d0 3831     		adds	r1, r1, #56
 411 01d2 FFF7FEBF 		b	lv_obj_add_style
 412              	.LVL47:
 413              	.L58:
 414              		.cfi_restore_state
 415              	.LBB72:
ARM GAS  /var/folders/lp/x54gwt890xv47sdkqj1k04q40000gn/T//cc6ygGfE.s 			page 18


 219:Drivers/lvgl/src/extra/themes/mono/lv_theme_mono.c ****             lv_obj_add_style(obj, &styles->no_radius, 0);
 416              		.loc 1 219 13 is_stmt 1 view .LVU93
 219:Drivers/lvgl/src/extra/themes/mono/lv_theme_mono.c ****             lv_obj_add_style(obj, &styles->no_radius, 0);
 417              		.loc 1 219 42 is_stmt 0 view .LVU94
 418 01d6 414E     		ldr	r6, .L64+8
 419              	.LVL48:
 219:Drivers/lvgl/src/extra/themes/mono/lv_theme_mono.c ****             lv_obj_add_style(obj, &styles->no_radius, 0);
 420              		.loc 1 219 13 view .LVU95
 421 01d8 3168     		ldr	r1, [r6]
 422 01da 2A46     		mov	r2, r5
 423 01dc 0831     		adds	r1, r1, #8
 424 01de 2046     		mov	r0, r4
 425 01e0 FFF7FEFF 		bl	lv_obj_add_style
 426              	.LVL49:
 220:Drivers/lvgl/src/extra/themes/mono/lv_theme_mono.c ****             lv_obj_add_style(obj, &styles->scrollbar, LV_PART_SCROLLBAR);
 427              		.loc 1 220 13 is_stmt 1 view .LVU96
 428 01e4 3168     		ldr	r1, [r6]
 429 01e6 2A46     		mov	r2, r5
 430 01e8 5831     		adds	r1, r1, #88
 431 01ea 2046     		mov	r0, r4
 432              	.LVL50:
 433              	.L45:
 220:Drivers/lvgl/src/extra/themes/mono/lv_theme_mono.c ****             lv_obj_add_style(obj, &styles->scrollbar, LV_PART_SCROLLBAR);
 434              		.loc 1 220 13 is_stmt 0 view .LVU97
 435              	.LBE72:
 444:Drivers/lvgl/src/extra/themes/mono/lv_theme_mono.c ****         lv_obj_add_style(obj, &styles->scrollbar, LV_PART_SCROLLBAR);
 436              		.loc 1 444 9 view .LVU98
 437 01ec FFF7FEFF 		bl	lv_obj_add_style
 438              	.LVL51:
 445:Drivers/lvgl/src/extra/themes/mono/lv_theme_mono.c ****         return;
 439              		.loc 1 445 9 is_stmt 1 view .LVU99
 440 01f0 3168     		ldr	r1, [r6]
 441 01f2 2046     		mov	r0, r4
 442 01f4 4FF48032 		mov	r2, #65536
 443              		.loc 1 488 1 is_stmt 0 view .LVU100
 444 01f8 BDE8F840 		pop	{r3, r4, r5, r6, r7, lr}
 445              		.cfi_remember_state
 446              		.cfi_restore 14
 447              		.cfi_restore 7
 448              		.cfi_restore 6
 449              		.cfi_restore 5
 450              		.cfi_restore 4
 451              		.cfi_restore 3
 452              		.cfi_def_cfa_offset 0
 453              	.LVL52:
 445:Drivers/lvgl/src/extra/themes/mono/lv_theme_mono.c ****         return;
 454              		.loc 1 445 9 view .LVU101
 455 01fc 1031     		adds	r1, r1, #16
 456 01fe FFF7FEBF 		b	lv_obj_add_style
 457              	.LVL53:
 458              	.L56:
 459              		.cfi_restore_state
 205:Drivers/lvgl/src/extra/themes/mono/lv_theme_mono.c ****         lv_obj_add_style(obj, &styles->scrollbar, LV_PART_SCROLLBAR);
 460              		.loc 1 205 9 is_stmt 1 view .LVU102
 205:Drivers/lvgl/src/extra/themes/mono/lv_theme_mono.c ****         lv_obj_add_style(obj, &styles->scrollbar, LV_PART_SCROLLBAR);
 461              		.loc 1 205 38 is_stmt 0 view .LVU103
 462 0202 364D     		ldr	r5, .L64+8
ARM GAS  /var/folders/lp/x54gwt890xv47sdkqj1k04q40000gn/T//cc6ygGfE.s 			page 19


 205:Drivers/lvgl/src/extra/themes/mono/lv_theme_mono.c ****         lv_obj_add_style(obj, &styles->scrollbar, LV_PART_SCROLLBAR);
 463              		.loc 1 205 9 view .LVU104
 464 0204 0246     		mov	r2, r0
 465 0206 2968     		ldr	r1, [r5]
 466 0208 2046     		mov	r0, r4
 467 020a 60E7     		b	.L44
 468              	.L13:
 302:Drivers/lvgl/src/extra/themes/mono/lv_theme_mono.c ****         lv_obj_add_style(obj, &styles->card, 0);
 469              		.loc 1 302 10 is_stmt 1 view .LVU105
 302:Drivers/lvgl/src/extra/themes/mono/lv_theme_mono.c ****         lv_obj_add_style(obj, &styles->card, 0);
 470              		.loc 1 302 13 is_stmt 0 view .LVU106
 471 020c 3E49     		ldr	r1, .L64+52
 472 020e 2046     		mov	r0, r4
 473 0210 FFF7FEFF 		bl	lv_obj_check_type
 474              	.LVL54:
 302:Drivers/lvgl/src/extra/themes/mono/lv_theme_mono.c ****         lv_obj_add_style(obj, &styles->card, 0);
 475              		.loc 1 302 12 discriminator 1 view .LVU107
 476 0214 30B3     		cbz	r0, .L14
 303:Drivers/lvgl/src/extra/themes/mono/lv_theme_mono.c ****         lv_obj_add_style(obj, &styles->pad_zero, 0);
 477              		.loc 1 303 9 is_stmt 1 view .LVU108
 303:Drivers/lvgl/src/extra/themes/mono/lv_theme_mono.c ****         lv_obj_add_style(obj, &styles->pad_zero, 0);
 478              		.loc 1 303 38 is_stmt 0 view .LVU109
 479 0216 314D     		ldr	r5, .L64+8
 303:Drivers/lvgl/src/extra/themes/mono/lv_theme_mono.c ****         lv_obj_add_style(obj, &styles->pad_zero, 0);
 480              		.loc 1 303 9 view .LVU110
 481 0218 2968     		ldr	r1, [r5]
 482 021a 3246     		mov	r2, r6
 483 021c 0831     		adds	r1, r1, #8
 484 021e 2046     		mov	r0, r4
 485 0220 FFF7FEFF 		bl	lv_obj_add_style
 486              	.LVL55:
 304:Drivers/lvgl/src/extra/themes/mono/lv_theme_mono.c ****         lv_obj_add_style(obj, &styles->inv, LV_PART_INDICATOR);
 487              		.loc 1 304 9 is_stmt 1 view .LVU111
 488 0224 2968     		ldr	r1, [r5]
 489 0226 3246     		mov	r2, r6
 490 0228 5031     		adds	r1, r1, #80
 491 022a 2046     		mov	r0, r4
 492 022c FFF7FEFF 		bl	lv_obj_add_style
 493              	.LVL56:
 305:Drivers/lvgl/src/extra/themes/mono/lv_theme_mono.c ****         lv_obj_add_style(obj, &styles->card, LV_PART_KNOB);
 494              		.loc 1 305 9 view .LVU112
 495 0230 2968     		ldr	r1, [r5]
 496 0232 4FF40032 		mov	r2, #131072
 497 0236 2046     		mov	r0, r4
 498 0238 2831     		adds	r1, r1, #40
 499              	.LVL57:
 500              	.L54:
 395:Drivers/lvgl/src/extra/themes/mono/lv_theme_mono.c ****         lv_obj_add_style(obj, &styles->card, LV_PART_KNOB);
 501              		.loc 1 395 9 is_stmt 0 view .LVU113
 502 023a FFF7FEFF 		bl	lv_obj_add_style
 503              	.LVL58:
 396:Drivers/lvgl/src/extra/themes/mono/lv_theme_mono.c ****         lv_obj_add_style(obj, &styles->radius_circle, LV_PART_KNOB);
 504              		.loc 1 396 9 is_stmt 1 view .LVU114
 505 023e 2968     		ldr	r1, [r5]
 506 0240 4FF44032 		mov	r2, #196608
 507 0244 2046     		mov	r0, r4
 508 0246 0831     		adds	r1, r1, #8
ARM GAS  /var/folders/lp/x54gwt890xv47sdkqj1k04q40000gn/T//cc6ygGfE.s 			page 20


 509 0248 FFF7FEFF 		bl	lv_obj_add_style
 510              	.LVL59:
 397:Drivers/lvgl/src/extra/themes/mono/lv_theme_mono.c ****         lv_obj_add_style(obj, &styles->focus, LV_STATE_FOCUS_KEY);
 511              		.loc 1 397 9 view .LVU115
 512 024c 2968     		ldr	r1, [r5]
 513 024e 4FF44032 		mov	r2, #196608
 514 0252 2046     		mov	r0, r4
 515 0254 6031     		adds	r1, r1, #96
 516              	.LVL60:
 517              	.L50:
 468:Drivers/lvgl/src/extra/themes/mono/lv_theme_mono.c ****         lv_obj_add_style(obj, &styles->focus, LV_STATE_FOCUS_KEY);
 518              		.loc 1 468 9 is_stmt 0 view .LVU116
 519 0256 FFF7FEFF 		bl	lv_obj_add_style
 520              	.LVL61:
 469:Drivers/lvgl/src/extra/themes/mono/lv_theme_mono.c ****         lv_obj_add_style(obj, &styles->edit, LV_STATE_EDITED);
 521              		.loc 1 469 9 is_stmt 1 view .LVU117
 522 025a 0422     		movs	r2, #4
 523              	.L49:
 524 025c 2968     		ldr	r1, [r5]
 525 025e 2046     		mov	r0, r4
 526 0260 3831     		adds	r1, r1, #56
 527 0262 2DE0     		b	.L52
 528              	.L14:
 314:Drivers/lvgl/src/extra/themes/mono/lv_theme_mono.c ****         lv_obj_add_style(obj, &styles->scrollbar, LV_PART_SCROLLBAR);
 529              		.loc 1 314 10 view .LVU118
 314:Drivers/lvgl/src/extra/themes/mono/lv_theme_mono.c ****         lv_obj_add_style(obj, &styles->scrollbar, LV_PART_SCROLLBAR);
 530              		.loc 1 314 13 is_stmt 0 view .LVU119
 531 0264 2949     		ldr	r1, .L64+56
 532 0266 2046     		mov	r0, r4
 533 0268 FFF7FEFF 		bl	lv_obj_check_type
 534              	.LVL62:
 314:Drivers/lvgl/src/extra/themes/mono/lv_theme_mono.c ****         lv_obj_add_style(obj, &styles->scrollbar, LV_PART_SCROLLBAR);
 535              		.loc 1 314 12 discriminator 1 view .LVU120
 536 026c 0546     		mov	r5, r0
 537 026e 0028     		cmp	r0, #0
 538 0270 00F0B880 		beq	.L15
 315:Drivers/lvgl/src/extra/themes/mono/lv_theme_mono.c ****         lv_obj_add_style(obj, &styles->card, LV_PART_ITEMS);
 539              		.loc 1 315 9 is_stmt 1 view .LVU121
 315:Drivers/lvgl/src/extra/themes/mono/lv_theme_mono.c ****         lv_obj_add_style(obj, &styles->card, LV_PART_ITEMS);
 540              		.loc 1 315 38 is_stmt 0 view .LVU122
 541 0274 194D     		ldr	r5, .L64+8
 315:Drivers/lvgl/src/extra/themes/mono/lv_theme_mono.c ****         lv_obj_add_style(obj, &styles->card, LV_PART_ITEMS);
 542              		.loc 1 315 9 view .LVU123
 543 0276 2968     		ldr	r1, [r5]
 544 0278 4FF48032 		mov	r2, #65536
 545 027c 2046     		mov	r0, r4
 546 027e 1031     		adds	r1, r1, #16
 547 0280 FFF7FEFF 		bl	lv_obj_add_style
 548              	.LVL63:
 316:Drivers/lvgl/src/extra/themes/mono/lv_theme_mono.c ****         lv_obj_add_style(obj, &styles->no_radius, LV_PART_ITEMS);
 549              		.loc 1 316 9 is_stmt 1 view .LVU124
 550 0284 2968     		ldr	r1, [r5]
 551 0286 4FF4A022 		mov	r2, #327680
 552 028a 2046     		mov	r0, r4
 553 028c 0831     		adds	r1, r1, #8
 554 028e FFF7FEFF 		bl	lv_obj_add_style
 555              	.LVL64:
ARM GAS  /var/folders/lp/x54gwt890xv47sdkqj1k04q40000gn/T//cc6ygGfE.s 			page 21


 317:Drivers/lvgl/src/extra/themes/mono/lv_theme_mono.c ****         lv_obj_add_style(obj, &styles->pr, LV_PART_ITEMS | LV_STATE_PRESSED);
 556              		.loc 1 317 9 view .LVU125
 557 0292 2968     		ldr	r1, [r5]
 558 0294 4FF4A022 		mov	r2, #327680
 559 0298 2046     		mov	r0, r4
 560 029a 5831     		adds	r1, r1, #88
 561 029c FFF7FEFF 		bl	lv_obj_add_style
 562              	.LVL65:
 318:Drivers/lvgl/src/extra/themes/mono/lv_theme_mono.c ****         lv_obj_add_style(obj, &styles->focus, LV_STATE_FOCUS_KEY);
 563              		.loc 1 318 9 view .LVU126
 564 02a0 2968     		ldr	r1, [r5]
 565 02a2 144A     		ldr	r2, .L64+32
 566 02a4 2046     		mov	r0, r4
 567 02a6 2031     		adds	r1, r1, #32
 568 02a8 FFF7FEFF 		bl	lv_obj_add_style
 569              	.LVL66:
 319:Drivers/lvgl/src/extra/themes/mono/lv_theme_mono.c ****         lv_obj_add_style(obj, &styles->inv, LV_PART_ITEMS | LV_STATE_FOCUS_KEY);
 570              		.loc 1 319 9 view .LVU127
 571 02ac 2968     		ldr	r1, [r5]
 572 02ae 0422     		movs	r2, #4
 573 02b0 2046     		mov	r0, r4
 574 02b2 3831     		adds	r1, r1, #56
 575 02b4 FFF7FEFF 		bl	lv_obj_add_style
 576              	.LVL67:
 320:Drivers/lvgl/src/extra/themes/mono/lv_theme_mono.c ****         lv_obj_add_style(obj, &styles->edit, LV_STATE_EDITED);
 577              		.loc 1 320 9 view .LVU128
 578 02b8 2968     		ldr	r1, [r5]
 579 02ba 114A     		ldr	r2, .L64+44
 580 02bc 2046     		mov	r0, r4
 581 02be 2831     		adds	r1, r1, #40
 582              	.LVL68:
 583              	.L52:
 469:Drivers/lvgl/src/extra/themes/mono/lv_theme_mono.c ****         lv_obj_add_style(obj, &styles->edit, LV_STATE_EDITED);
 584              		.loc 1 469 9 is_stmt 0 view .LVU129
 585 02c0 FFF7FEFF 		bl	lv_obj_add_style
 586              	.LVL69:
 470:Drivers/lvgl/src/extra/themes/mono/lv_theme_mono.c ****     }
 587              		.loc 1 470 9 is_stmt 1 view .LVU130
 588 02c4 2968     		ldr	r1, [r5]
 589 02c6 2046     		mov	r0, r4
 590 02c8 0822     		movs	r2, #8
 591              		.loc 1 488 1 is_stmt 0 view .LVU131
 592 02ca BDE8F840 		pop	{r3, r4, r5, r6, r7, lr}
 593              		.cfi_remember_state
 594              		.cfi_restore 14
 595              		.cfi_restore 7
 596              		.cfi_restore 6
 597              		.cfi_restore 5
 598              		.cfi_restore 4
 599              		.cfi_restore 3
 600              		.cfi_def_cfa_offset 0
 601              	.LVL70:
 470:Drivers/lvgl/src/extra/themes/mono/lv_theme_mono.c ****     }
 602              		.loc 1 470 9 view .LVU132
 603 02ce 4031     		adds	r1, r1, #64
 604 02d0 FFF7FEBF 		b	lv_obj_add_style
 605              	.LVL71:
ARM GAS  /var/folders/lp/x54gwt890xv47sdkqj1k04q40000gn/T//cc6ygGfE.s 			page 22


 606              	.L65:
 470:Drivers/lvgl/src/extra/themes/mono/lv_theme_mono.c ****     }
 607              		.loc 1 470 9 view .LVU133
 608              		.align	2
 609              	.L64:
 610 02d4 00000000 		.word	lv_obj_class
 611 02d8 00000000 		.word	lv_btn_class
 612 02dc 00000000 		.word	styles
 613 02e0 00000000 		.word	lv_tabview_class
 614 02e4 00000000 		.word	lv_win_class
 615 02e8 00000000 		.word	lv_led_class
 616 02ec 00000000 		.word	lv_btnmatrix_class
 617 02f0 00000000 		.word	lv_msgbox_class
 618 02f4 20000500 		.word	327712
 619 02f8 01000500 		.word	327681
 620 02fc 80000500 		.word	327808
 621 0300 04000500 		.word	327684
 622 0304 00000000 		.word	lv_bar_class
 623 0308 00000000 		.word	lv_slider_class
 624 030c 00000000 		.word	lv_table_class
 625              	.LVL72:
 626              	.L62:
 627              		.cfi_restore_state
 270:Drivers/lvgl/src/extra/themes/mono/lv_theme_mono.c ****             lv_obj_add_style(obj, &styles->card, LV_PART_ITEMS);
 628              		.loc 1 270 13 is_stmt 1 view .LVU134
 270:Drivers/lvgl/src/extra/themes/mono/lv_theme_mono.c ****             lv_obj_add_style(obj, &styles->card, LV_PART_ITEMS);
 629              		.loc 1 270 42 is_stmt 0 view .LVU135
 630 0310 B14E     		ldr	r6, .L66
 270:Drivers/lvgl/src/extra/themes/mono/lv_theme_mono.c ****             lv_obj_add_style(obj, &styles->card, LV_PART_ITEMS);
 631              		.loc 1 270 13 view .LVU136
 632 0312 3168     		ldr	r1, [r6]
 633 0314 2A46     		mov	r2, r5
 634 0316 2046     		mov	r0, r4
 635 0318 4831     		adds	r1, r1, #72
 636 031a FFF7FEFF 		bl	lv_obj_add_style
 637              	.LVL73:
 271:Drivers/lvgl/src/extra/themes/mono/lv_theme_mono.c ****             lv_obj_add_style(obj, &styles->pr, LV_PART_ITEMS | LV_STATE_PRESSED);
 638              		.loc 1 271 13 is_stmt 1 view .LVU137
 639 031e 3168     		ldr	r1, [r6]
 640 0320 2046     		mov	r0, r4
 641 0322 4FF4A022 		mov	r2, #327680
 642 0326 0831     		adds	r1, r1, #8
 643 0328 FFF7FEFF 		bl	lv_obj_add_style
 644              	.LVL74:
 272:Drivers/lvgl/src/extra/themes/mono/lv_theme_mono.c ****             lv_obj_add_style(obj, &styles->inv, LV_PART_ITEMS | LV_STATE_CHECKED);
 645              		.loc 1 272 13 view .LVU138
 646 032c 3168     		ldr	r1, [r6]
 647 032e AB4A     		ldr	r2, .L66+4
 648 0330 2046     		mov	r0, r4
 649 0332 2031     		adds	r1, r1, #32
 650 0334 FFF7FEFF 		bl	lv_obj_add_style
 651              	.LVL75:
 273:Drivers/lvgl/src/extra/themes/mono/lv_theme_mono.c ****             lv_obj_add_style(obj, &styles->disabled, LV_PART_ITEMS | LV_STATE_DISABLED);
 652              		.loc 1 273 13 view .LVU139
 653 0338 3168     		ldr	r1, [r6]
 654 033a A94A     		ldr	r2, .L66+8
 655 033c 2046     		mov	r0, r4
ARM GAS  /var/folders/lp/x54gwt890xv47sdkqj1k04q40000gn/T//cc6ygGfE.s 			page 23


 656 033e 2831     		adds	r1, r1, #40
 657 0340 FFF7FEFF 		bl	lv_obj_add_style
 658              	.LVL76:
 274:Drivers/lvgl/src/extra/themes/mono/lv_theme_mono.c ****             lv_obj_add_style(obj, &styles->focus, LV_STATE_FOCUS_KEY);
 659              		.loc 1 274 13 view .LVU140
 660 0344 3168     		ldr	r1, [r6]
 661 0346 A74A     		ldr	r2, .L66+12
 662 0348 2046     		mov	r0, r4
 663 034a 3031     		adds	r1, r1, #48
 664 034c FFF7FEFF 		bl	lv_obj_add_style
 665              	.LVL77:
 275:Drivers/lvgl/src/extra/themes/mono/lv_theme_mono.c ****             lv_obj_add_style(obj, &styles->underline, LV_PART_ITEMS | LV_STATE_FOCUS_KEY);
 666              		.loc 1 275 13 view .LVU141
 667 0350 3168     		ldr	r1, [r6]
 668 0352 2046     		mov	r0, r4
 669 0354 0422     		movs	r2, #4
 670 0356 3831     		adds	r1, r1, #56
 671 0358 FFF7FEFF 		bl	lv_obj_add_style
 672              	.LVL78:
 276:Drivers/lvgl/src/extra/themes/mono/lv_theme_mono.c ****             lv_obj_add_style(obj, &styles->large_border, LV_PART_ITEMS | LV_STATE_FOCUS_KEY);
 673              		.loc 1 276 13 view .LVU142
 674 035c 3168     		ldr	r1, [r6]
 675 035e A24A     		ldr	r2, .L66+16
 676 0360 2046     		mov	r0, r4
 677 0362 7831     		adds	r1, r1, #120
 678 0364 FFF7FEFF 		bl	lv_obj_add_style
 679              	.LVL79:
 277:Drivers/lvgl/src/extra/themes/mono/lv_theme_mono.c ****             return;
 680              		.loc 1 277 13 view .LVU143
 681 0368 3168     		ldr	r1, [r6]
 682 036a 9F4A     		ldr	r2, .L66+16
 683 036c 2046     		mov	r0, r4
 684 036e 6831     		adds	r1, r1, #104
 685              		.loc 1 488 1 is_stmt 0 view .LVU144
 686 0370 BDE8F840 		pop	{r3, r4, r5, r6, r7, lr}
 687              		.cfi_remember_state
 688              		.cfi_restore 14
 689              		.cfi_restore 7
 690              		.cfi_restore 6
 691              		.cfi_restore 5
 692              		.cfi_restore 4
 693              		.cfi_restore 3
 694              		.cfi_def_cfa_offset 0
 695              	.LVL80:
 277:Drivers/lvgl/src/extra/themes/mono/lv_theme_mono.c ****             return;
 696              		.loc 1 277 13 view .LVU145
 697 0374 FFF7FEBF 		b	lv_obj_add_style
 698              	.LVL81:
 699              	.L60:
 700              		.cfi_restore_state
 701              	.LBB73:
 234:Drivers/lvgl/src/extra/themes/mono/lv_theme_mono.c ****             lv_obj_add_style(obj, &styles->card, 0);
 702              		.loc 1 234 65 discriminator 1 view .LVU146
 703 0378 2046     		mov	r0, r4
 704 037a FFF7FEFF 		bl	lv_obj_get_parent
 705              	.LVL82:
 234:Drivers/lvgl/src/extra/themes/mono/lv_theme_mono.c ****             lv_obj_add_style(obj, &styles->card, 0);
ARM GAS  /var/folders/lp/x54gwt890xv47sdkqj1k04q40000gn/T//cc6ygGfE.s 			page 24


 706              		.loc 1 234 47 discriminator 1 view .LVU147
 707 037e 9B49     		ldr	r1, .L66+20
 708 0380 FFF7FEFF 		bl	lv_obj_check_type
 709              	.LVL83:
 234:Drivers/lvgl/src/extra/themes/mono/lv_theme_mono.c ****             lv_obj_add_style(obj, &styles->card, 0);
 710              		.loc 1 234 44 discriminator 2 view .LVU148
 711 0384 0028     		cmp	r0, #0
 712 0386 3FF49EAE 		beq	.L8
 235:Drivers/lvgl/src/extra/themes/mono/lv_theme_mono.c ****             lv_obj_add_style(obj, &styles->no_radius, 0);
 713              		.loc 1 235 13 is_stmt 1 view .LVU149
 714 038a 2968     		ldr	r1, [r5]
 715 038c 0022     		movs	r2, #0
 716 038e 2046     		mov	r0, r4
 717 0390 0831     		adds	r1, r1, #8
 718 0392 FFF7FEFF 		bl	lv_obj_add_style
 719              	.LVL84:
 236:Drivers/lvgl/src/extra/themes/mono/lv_theme_mono.c ****             lv_obj_add_style(obj, &styles->scrollbar, LV_PART_SCROLLBAR);
 720              		.loc 1 236 13 view .LVU150
 721 0396 2968     		ldr	r1, [r5]
 722 0398 0022     		movs	r2, #0
 723 039a 2046     		mov	r0, r4
 724 039c 5831     		adds	r1, r1, #88
 725 039e 96E6     		b	.L44
 726              	.LVL85:
 727              	.L61:
 236:Drivers/lvgl/src/extra/themes/mono/lv_theme_mono.c ****             lv_obj_add_style(obj, &styles->scrollbar, LV_PART_SCROLLBAR);
 728              		.loc 1 236 13 is_stmt 0 view .LVU151
 729              	.LBE73:
 259:Drivers/lvgl/src/extra/themes/mono/lv_theme_mono.c ****             lv_obj_add_style(obj, &styles->card, LV_PART_ITEMS);
 730              		.loc 1 259 13 is_stmt 1 view .LVU152
 259:Drivers/lvgl/src/extra/themes/mono/lv_theme_mono.c ****             lv_obj_add_style(obj, &styles->card, LV_PART_ITEMS);
 731              		.loc 1 259 42 is_stmt 0 view .LVU153
 732 03a0 8D4D     		ldr	r5, .L66
 259:Drivers/lvgl/src/extra/themes/mono/lv_theme_mono.c ****             lv_obj_add_style(obj, &styles->card, LV_PART_ITEMS);
 733              		.loc 1 259 13 view .LVU154
 734 03a2 2968     		ldr	r1, [r5]
 735 03a4 3246     		mov	r2, r6
 736 03a6 2046     		mov	r0, r4
 737 03a8 4831     		adds	r1, r1, #72
 738 03aa FFF7FEFF 		bl	lv_obj_add_style
 739              	.LVL86:
 260:Drivers/lvgl/src/extra/themes/mono/lv_theme_mono.c ****             lv_obj_add_style(obj, &styles->pr, LV_PART_ITEMS | LV_STATE_PRESSED);
 740              		.loc 1 260 13 is_stmt 1 view .LVU155
 741 03ae 2968     		ldr	r1, [r5]
 742 03b0 4FF4A022 		mov	r2, #327680
 743 03b4 2046     		mov	r0, r4
 744 03b6 0831     		adds	r1, r1, #8
 745 03b8 FFF7FEFF 		bl	lv_obj_add_style
 746              	.LVL87:
 261:Drivers/lvgl/src/extra/themes/mono/lv_theme_mono.c ****             lv_obj_add_style(obj, &styles->disabled, LV_PART_ITEMS | LV_STATE_DISABLED);
 747              		.loc 1 261 13 view .LVU156
 748 03bc 2968     		ldr	r1, [r5]
 749 03be 874A     		ldr	r2, .L66+4
 750 03c0 2046     		mov	r0, r4
 751 03c2 2031     		adds	r1, r1, #32
 752 03c4 CEE6     		b	.L53
 753              	.LVL88:
ARM GAS  /var/folders/lp/x54gwt890xv47sdkqj1k04q40000gn/T//cc6ygGfE.s 			page 25


 754              	.L59:
 755              	.LBB74:
 229:Drivers/lvgl/src/extra/themes/mono/lv_theme_mono.c ****             lv_obj_add_style(obj, &styles->no_radius, 0);
 756              		.loc 1 229 13 view .LVU157
 229:Drivers/lvgl/src/extra/themes/mono/lv_theme_mono.c ****             lv_obj_add_style(obj, &styles->no_radius, 0);
 757              		.loc 1 229 42 is_stmt 0 view .LVU158
 758 03c6 844E     		ldr	r6, .L66
 759              	.LVL89:
 229:Drivers/lvgl/src/extra/themes/mono/lv_theme_mono.c ****             lv_obj_add_style(obj, &styles->no_radius, 0);
 760              		.loc 1 229 13 view .LVU159
 761 03c8 3168     		ldr	r1, [r6]
 762 03ca 2A46     		mov	r2, r5
 763 03cc 2046     		mov	r0, r4
 764 03ce 0831     		adds	r1, r1, #8
 765 03d0 FFF7FEFF 		bl	lv_obj_add_style
 766              	.LVL90:
 230:Drivers/lvgl/src/extra/themes/mono/lv_theme_mono.c ****             return;
 767              		.loc 1 230 13 is_stmt 1 view .LVU160
 768 03d4 3168     		ldr	r1, [r6]
 769 03d6 2A46     		mov	r2, r5
 770 03d8 2046     		mov	r0, r4
 771 03da 5831     		adds	r1, r1, #88
 772              	.LBE74:
 773              		.loc 1 488 1 is_stmt 0 view .LVU161
 774 03dc BDE8F840 		pop	{r3, r4, r5, r6, r7, lr}
 775              		.cfi_remember_state
 776              		.cfi_restore 14
 777              		.cfi_restore 7
 778              		.cfi_restore 6
 779              		.cfi_restore 5
 780              		.cfi_restore 4
 781              		.cfi_restore 3
 782              		.cfi_def_cfa_offset 0
 783              	.LVL91:
 784              	.LBB75:
 230:Drivers/lvgl/src/extra/themes/mono/lv_theme_mono.c ****             return;
 785              		.loc 1 230 13 view .LVU162
 786 03e0 FFF7FEBF 		b	lv_obj_add_style
 787              	.LVL92:
 788              	.L15:
 789              		.cfi_restore_state
 230:Drivers/lvgl/src/extra/themes/mono/lv_theme_mono.c ****             return;
 790              		.loc 1 230 13 view .LVU163
 791              	.LBE75:
 326:Drivers/lvgl/src/extra/themes/mono/lv_theme_mono.c ****         lv_obj_add_style(obj, &styles->pad_gap, LV_PART_MAIN);
 792              		.loc 1 326 10 is_stmt 1 view .LVU164
 326:Drivers/lvgl/src/extra/themes/mono/lv_theme_mono.c ****         lv_obj_add_style(obj, &styles->pad_gap, LV_PART_MAIN);
 793              		.loc 1 326 13 is_stmt 0 view .LVU165
 794 03e4 8249     		ldr	r1, .L66+24
 795 03e6 2046     		mov	r0, r4
 796 03e8 FFF7FEFF 		bl	lv_obj_check_type
 797              	.LVL93:
 326:Drivers/lvgl/src/extra/themes/mono/lv_theme_mono.c ****         lv_obj_add_style(obj, &styles->pad_gap, LV_PART_MAIN);
 798              		.loc 1 326 12 discriminator 1 view .LVU166
 799 03ec 0646     		mov	r6, r0
 800 03ee F0B1     		cbz	r0, .L16
 327:Drivers/lvgl/src/extra/themes/mono/lv_theme_mono.c ****         lv_obj_add_style(obj, &styles->card, LV_PART_INDICATOR);
ARM GAS  /var/folders/lp/x54gwt890xv47sdkqj1k04q40000gn/T//cc6ygGfE.s 			page 26


 801              		.loc 1 327 9 is_stmt 1 view .LVU167
 327:Drivers/lvgl/src/extra/themes/mono/lv_theme_mono.c ****         lv_obj_add_style(obj, &styles->card, LV_PART_INDICATOR);
 802              		.loc 1 327 38 is_stmt 0 view .LVU168
 803 03f0 794E     		ldr	r6, .L66
 327:Drivers/lvgl/src/extra/themes/mono/lv_theme_mono.c ****         lv_obj_add_style(obj, &styles->card, LV_PART_INDICATOR);
 804              		.loc 1 327 9 view .LVU169
 805 03f2 3168     		ldr	r1, [r6]
 806 03f4 2A46     		mov	r2, r5
 807 03f6 2046     		mov	r0, r4
 808 03f8 4831     		adds	r1, r1, #72
 809 03fa FFF7FEFF 		bl	lv_obj_add_style
 810              	.LVL94:
 328:Drivers/lvgl/src/extra/themes/mono/lv_theme_mono.c ****         lv_obj_add_style(obj, &styles->disabled, LV_PART_INDICATOR | LV_STATE_DISABLED);
 811              		.loc 1 328 9 is_stmt 1 view .LVU170
 812 03fe 3168     		ldr	r1, [r6]
 813 0400 4FF40032 		mov	r2, #131072
 814 0404 2046     		mov	r0, r4
 815 0406 0831     		adds	r1, r1, #8
 816 0408 FFF7FEFF 		bl	lv_obj_add_style
 817              	.LVL95:
 329:Drivers/lvgl/src/extra/themes/mono/lv_theme_mono.c ****         lv_obj_add_style(obj, &styles->inv, LV_PART_INDICATOR | LV_STATE_CHECKED);
 818              		.loc 1 329 9 view .LVU171
 819 040c 3168     		ldr	r1, [r6]
 820 040e 794A     		ldr	r2, .L66+28
 821 0410 2046     		mov	r0, r4
 822 0412 3031     		adds	r1, r1, #48
 823 0414 FFF7FEFF 		bl	lv_obj_add_style
 824              	.LVL96:
 330:Drivers/lvgl/src/extra/themes/mono/lv_theme_mono.c ****         lv_obj_add_style(obj, &styles->pr, LV_PART_INDICATOR | LV_STATE_PRESSED);
 825              		.loc 1 330 9 view .LVU172
 826 0418 3168     		ldr	r1, [r6]
 827 041a 774A     		ldr	r2, .L66+32
 828 041c 2046     		mov	r0, r4
 829 041e 2831     		adds	r1, r1, #40
 830 0420 FFF7FEFF 		bl	lv_obj_add_style
 831              	.LVL97:
 331:Drivers/lvgl/src/extra/themes/mono/lv_theme_mono.c ****         lv_obj_add_style(obj, &styles->focus, LV_STATE_FOCUS_KEY);
 832              		.loc 1 331 9 view .LVU173
 833 0424 3168     		ldr	r1, [r6]
 834 0426 754A     		ldr	r2, .L66+36
 835 0428 2046     		mov	r0, r4
 836 042a 2031     		adds	r1, r1, #32
 837 042c 14E6     		b	.L46
 838              	.L16:
 338:Drivers/lvgl/src/extra/themes/mono/lv_theme_mono.c ****         lv_obj_add_style(obj, &styles->card, 0);
 839              		.loc 1 338 10 view .LVU174
 338:Drivers/lvgl/src/extra/themes/mono/lv_theme_mono.c ****         lv_obj_add_style(obj, &styles->card, 0);
 840              		.loc 1 338 13 is_stmt 0 view .LVU175
 841 042e 7449     		ldr	r1, .L66+40
 842 0430 2046     		mov	r0, r4
 843 0432 FFF7FEFF 		bl	lv_obj_check_type
 844              	.LVL98:
 338:Drivers/lvgl/src/extra/themes/mono/lv_theme_mono.c ****         lv_obj_add_style(obj, &styles->card, 0);
 845              		.loc 1 338 12 discriminator 1 view .LVU176
 846 0436 A0B3     		cbz	r0, .L17
 339:Drivers/lvgl/src/extra/themes/mono/lv_theme_mono.c ****         lv_obj_add_style(obj, &styles->radius_circle, 0);
 847              		.loc 1 339 9 is_stmt 1 view .LVU177
ARM GAS  /var/folders/lp/x54gwt890xv47sdkqj1k04q40000gn/T//cc6ygGfE.s 			page 27


 339:Drivers/lvgl/src/extra/themes/mono/lv_theme_mono.c ****         lv_obj_add_style(obj, &styles->radius_circle, 0);
 848              		.loc 1 339 38 is_stmt 0 view .LVU178
 849 0438 674D     		ldr	r5, .L66
 339:Drivers/lvgl/src/extra/themes/mono/lv_theme_mono.c ****         lv_obj_add_style(obj, &styles->radius_circle, 0);
 850              		.loc 1 339 9 view .LVU179
 851 043a 2968     		ldr	r1, [r5]
 852 043c 3246     		mov	r2, r6
 853 043e 0831     		adds	r1, r1, #8
 854 0440 2046     		mov	r0, r4
 855 0442 FFF7FEFF 		bl	lv_obj_add_style
 856              	.LVL99:
 340:Drivers/lvgl/src/extra/themes/mono/lv_theme_mono.c ****         lv_obj_add_style(obj, &styles->pad_zero, 0);
 857              		.loc 1 340 9 is_stmt 1 view .LVU180
 858 0446 2968     		ldr	r1, [r5]
 859 0448 3246     		mov	r2, r6
 860 044a 6031     		adds	r1, r1, #96
 861 044c 2046     		mov	r0, r4
 862 044e FFF7FEFF 		bl	lv_obj_add_style
 863              	.LVL100:
 341:Drivers/lvgl/src/extra/themes/mono/lv_theme_mono.c ****         lv_obj_add_style(obj, &styles->inv, LV_PART_INDICATOR);
 864              		.loc 1 341 9 view .LVU181
 865 0452 2968     		ldr	r1, [r5]
 866 0454 3246     		mov	r2, r6
 867 0456 5031     		adds	r1, r1, #80
 868 0458 2046     		mov	r0, r4
 869 045a FFF7FEFF 		bl	lv_obj_add_style
 870              	.LVL101:
 342:Drivers/lvgl/src/extra/themes/mono/lv_theme_mono.c ****         lv_obj_add_style(obj, &styles->radius_circle, LV_PART_INDICATOR);
 871              		.loc 1 342 9 view .LVU182
 872 045e 2968     		ldr	r1, [r5]
 873 0460 4FF40032 		mov	r2, #131072
 874 0464 2046     		mov	r0, r4
 875 0466 2831     		adds	r1, r1, #40
 876 0468 FFF7FEFF 		bl	lv_obj_add_style
 877              	.LVL102:
 343:Drivers/lvgl/src/extra/themes/mono/lv_theme_mono.c ****         lv_obj_add_style(obj, &styles->card, LV_PART_KNOB);
 878              		.loc 1 343 9 view .LVU183
 879 046c 2968     		ldr	r1, [r5]
 880 046e 4FF40032 		mov	r2, #131072
 881 0472 2046     		mov	r0, r4
 882 0474 6031     		adds	r1, r1, #96
 883 0476 FFF7FEFF 		bl	lv_obj_add_style
 884              	.LVL103:
 344:Drivers/lvgl/src/extra/themes/mono/lv_theme_mono.c ****         lv_obj_add_style(obj, &styles->radius_circle, LV_PART_KNOB);
 885              		.loc 1 344 9 view .LVU184
 886 047a 2968     		ldr	r1, [r5]
 887 047c 4FF44032 		mov	r2, #196608
 888 0480 2046     		mov	r0, r4
 889 0482 0831     		adds	r1, r1, #8
 890 0484 FFF7FEFF 		bl	lv_obj_add_style
 891              	.LVL104:
 345:Drivers/lvgl/src/extra/themes/mono/lv_theme_mono.c ****         lv_obj_add_style(obj, &styles->pad_zero, LV_PART_KNOB);
 892              		.loc 1 345 9 view .LVU185
 893 0488 2968     		ldr	r1, [r5]
 894 048a 4FF44032 		mov	r2, #196608
 895 048e 2046     		mov	r0, r4
 896 0490 6031     		adds	r1, r1, #96
ARM GAS  /var/folders/lp/x54gwt890xv47sdkqj1k04q40000gn/T//cc6ygGfE.s 			page 28


 897 0492 FFF7FEFF 		bl	lv_obj_add_style
 898              	.LVL105:
 346:Drivers/lvgl/src/extra/themes/mono/lv_theme_mono.c ****         lv_obj_add_style(obj, &styles->focus, LV_STATE_FOCUS_KEY);
 899              		.loc 1 346 9 view .LVU186
 900 0496 2968     		ldr	r1, [r5]
 901 0498 4FF44032 		mov	r2, #196608
 902 049c 2046     		mov	r0, r4
 903 049e 5031     		adds	r1, r1, #80
 904 04a0 D9E6     		b	.L50
 905              	.L17:
 353:Drivers/lvgl/src/extra/themes/mono/lv_theme_mono.c ****         lv_obj_add_style(obj, &styles->card, 0);
 906              		.loc 1 353 10 view .LVU187
 353:Drivers/lvgl/src/extra/themes/mono/lv_theme_mono.c ****         lv_obj_add_style(obj, &styles->card, 0);
 907              		.loc 1 353 13 is_stmt 0 view .LVU188
 908 04a2 5849     		ldr	r1, .L66+44
 909 04a4 2046     		mov	r0, r4
 910 04a6 FFF7FEFF 		bl	lv_obj_check_type
 911              	.LVL106:
 353:Drivers/lvgl/src/extra/themes/mono/lv_theme_mono.c ****         lv_obj_add_style(obj, &styles->card, 0);
 912              		.loc 1 353 12 discriminator 1 view .LVU189
 913 04aa 50B3     		cbz	r0, .L18
 354:Drivers/lvgl/src/extra/themes/mono/lv_theme_mono.c ****         lv_obj_add_style(obj, &styles->scrollbar, LV_PART_SCROLLBAR);
 914              		.loc 1 354 9 is_stmt 1 view .LVU190
 354:Drivers/lvgl/src/extra/themes/mono/lv_theme_mono.c ****         lv_obj_add_style(obj, &styles->scrollbar, LV_PART_SCROLLBAR);
 915              		.loc 1 354 38 is_stmt 0 view .LVU191
 916 04ac 4A4D     		ldr	r5, .L66
 354:Drivers/lvgl/src/extra/themes/mono/lv_theme_mono.c ****         lv_obj_add_style(obj, &styles->scrollbar, LV_PART_SCROLLBAR);
 917              		.loc 1 354 9 view .LVU192
 918 04ae 2968     		ldr	r1, [r5]
 919 04b0 2046     		mov	r0, r4
 920 04b2 0022     		movs	r2, #0
 921 04b4 0831     		adds	r1, r1, #8
 922 04b6 FFF7FEFF 		bl	lv_obj_add_style
 923              	.LVL107:
 355:Drivers/lvgl/src/extra/themes/mono/lv_theme_mono.c ****         lv_obj_add_style(obj, &styles->card, LV_PART_ITEMS);
 924              		.loc 1 355 9 is_stmt 1 view .LVU193
 925 04ba 2968     		ldr	r1, [r5]
 926 04bc 2046     		mov	r0, r4
 927 04be 4FF48032 		mov	r2, #65536
 928 04c2 1031     		adds	r1, r1, #16
 929 04c4 FFF7FEFF 		bl	lv_obj_add_style
 930              	.LVL108:
 356:Drivers/lvgl/src/extra/themes/mono/lv_theme_mono.c ****         lv_obj_add_style(obj, &styles->card, LV_PART_TICKS);
 931              		.loc 1 356 9 view .LVU194
 932 04c8 2968     		ldr	r1, [r5]
 933 04ca 2046     		mov	r0, r4
 934 04cc 4FF4A022 		mov	r2, #327680
 935 04d0 0831     		adds	r1, r1, #8
 936 04d2 FFF7FEFF 		bl	lv_obj_add_style
 937              	.LVL109:
 357:Drivers/lvgl/src/extra/themes/mono/lv_theme_mono.c ****         lv_obj_add_style(obj, &styles->card, LV_PART_CURSOR);
 938              		.loc 1 357 9 view .LVU195
 939 04d6 2968     		ldr	r1, [r5]
 940 04d8 2046     		mov	r0, r4
 941 04da 4FF4C022 		mov	r2, #393216
 942 04de 0831     		adds	r1, r1, #8
 943 04e0 FFF7FEFF 		bl	lv_obj_add_style
ARM GAS  /var/folders/lp/x54gwt890xv47sdkqj1k04q40000gn/T//cc6ygGfE.s 			page 29


 944              	.LVL110:
 358:Drivers/lvgl/src/extra/themes/mono/lv_theme_mono.c ****         lv_obj_add_style(obj, &styles->focus, LV_STATE_FOCUS_KEY);
 945              		.loc 1 358 9 view .LVU196
 946 04e4 2968     		ldr	r1, [r5]
 947 04e6 2046     		mov	r0, r4
 948 04e8 4FF4E022 		mov	r2, #458752
 949 04ec 0831     		adds	r1, r1, #8
 950 04ee FFF7FEFF 		bl	lv_obj_add_style
 951              	.LVL111:
 359:Drivers/lvgl/src/extra/themes/mono/lv_theme_mono.c ****     }
 952              		.loc 1 359 9 view .LVU197
 953 04f2 2968     		ldr	r1, [r5]
 954 04f4 2046     		mov	r0, r4
 955 04f6 0422     		movs	r2, #4
 956              		.loc 1 488 1 is_stmt 0 view .LVU198
 957 04f8 BDE8F840 		pop	{r3, r4, r5, r6, r7, lr}
 958              		.cfi_remember_state
 959              		.cfi_restore 14
 960              		.cfi_restore 7
 961              		.cfi_restore 6
 962              		.cfi_restore 5
 963              		.cfi_restore 4
 964              		.cfi_restore 3
 965              		.cfi_def_cfa_offset 0
 966              	.LVL112:
 359:Drivers/lvgl/src/extra/themes/mono/lv_theme_mono.c ****     }
 967              		.loc 1 359 9 view .LVU199
 968 04fc 3831     		adds	r1, r1, #56
 969 04fe FFF7FEBF 		b	lv_obj_add_style
 970              	.LVL113:
 971              	.L18:
 972              		.cfi_restore_state
 364:Drivers/lvgl/src/extra/themes/mono/lv_theme_mono.c ****         lv_obj_add_style(obj, &styles->card, 0);
 973              		.loc 1 364 10 is_stmt 1 view .LVU200
 364:Drivers/lvgl/src/extra/themes/mono/lv_theme_mono.c ****         lv_obj_add_style(obj, &styles->card, 0);
 974              		.loc 1 364 13 is_stmt 0 view .LVU201
 975 0502 4149     		ldr	r1, .L66+48
 976 0504 2046     		mov	r0, r4
 977 0506 FFF7FEFF 		bl	lv_obj_check_type
 978              	.LVL114:
 364:Drivers/lvgl/src/extra/themes/mono/lv_theme_mono.c ****         lv_obj_add_style(obj, &styles->card, 0);
 979              		.loc 1 364 12 discriminator 1 view .LVU202
 980 050a 0746     		mov	r7, r0
 981 050c 90B1     		cbz	r0, .L19
 365:Drivers/lvgl/src/extra/themes/mono/lv_theme_mono.c ****         lv_obj_add_style(obj, &styles->large_line_space, 0);
 982              		.loc 1 365 9 is_stmt 1 view .LVU203
 365:Drivers/lvgl/src/extra/themes/mono/lv_theme_mono.c ****         lv_obj_add_style(obj, &styles->large_line_space, 0);
 983              		.loc 1 365 38 is_stmt 0 view .LVU204
 984 050e 324D     		ldr	r5, .L66
 365:Drivers/lvgl/src/extra/themes/mono/lv_theme_mono.c ****         lv_obj_add_style(obj, &styles->large_line_space, 0);
 985              		.loc 1 365 9 view .LVU205
 986 0510 2968     		ldr	r1, [r5]
 987 0512 0022     		movs	r2, #0
 988 0514 2046     		mov	r0, r4
 989 0516 0831     		adds	r1, r1, #8
 990 0518 FFF7FEFF 		bl	lv_obj_add_style
 991              	.LVL115:
ARM GAS  /var/folders/lp/x54gwt890xv47sdkqj1k04q40000gn/T//cc6ygGfE.s 			page 30


 366:Drivers/lvgl/src/extra/themes/mono/lv_theme_mono.c ****         lv_obj_add_style(obj, &styles->inv, LV_PART_SELECTED);
 992              		.loc 1 366 9 is_stmt 1 view .LVU206
 993 051c 2968     		ldr	r1, [r5]
 994 051e 0022     		movs	r2, #0
 995 0520 2046     		mov	r0, r4
 996 0522 7031     		adds	r1, r1, #112
 997 0524 FFF7FEFF 		bl	lv_obj_add_style
 998              	.LVL116:
 367:Drivers/lvgl/src/extra/themes/mono/lv_theme_mono.c ****         lv_obj_add_style(obj, &styles->focus, LV_STATE_FOCUS_KEY);
 999              		.loc 1 367 9 view .LVU207
 1000 0528 4FF48022 		mov	r2, #262144
 1001              	.L51:
 468:Drivers/lvgl/src/extra/themes/mono/lv_theme_mono.c ****         lv_obj_add_style(obj, &styles->focus, LV_STATE_FOCUS_KEY);
 1002              		.loc 1 468 9 is_stmt 0 view .LVU208
 1003 052c 2968     		ldr	r1, [r5]
 1004 052e 2046     		mov	r0, r4
 1005 0530 2831     		adds	r1, r1, #40
 1006 0532 90E6     		b	.L50
 1007              	.L19:
 374:Drivers/lvgl/src/extra/themes/mono/lv_theme_mono.c ****         lv_obj_add_style(obj, &styles->card, 0);
 1008              		.loc 1 374 10 is_stmt 1 view .LVU209
 374:Drivers/lvgl/src/extra/themes/mono/lv_theme_mono.c ****         lv_obj_add_style(obj, &styles->card, 0);
 1009              		.loc 1 374 13 is_stmt 0 view .LVU210
 1010 0534 3549     		ldr	r1, .L66+52
 1011 0536 2046     		mov	r0, r4
 1012 0538 FFF7FEFF 		bl	lv_obj_check_type
 1013              	.LVL117:
 374:Drivers/lvgl/src/extra/themes/mono/lv_theme_mono.c ****         lv_obj_add_style(obj, &styles->card, 0);
 1014              		.loc 1 374 12 discriminator 1 view .LVU211
 1015 053c 0646     		mov	r6, r0
 1016 053e 58B1     		cbz	r0, .L20
 375:Drivers/lvgl/src/extra/themes/mono/lv_theme_mono.c ****         lv_obj_add_style(obj, &styles->pr, LV_STATE_PRESSED);
 1017              		.loc 1 375 9 is_stmt 1 view .LVU212
 375:Drivers/lvgl/src/extra/themes/mono/lv_theme_mono.c ****         lv_obj_add_style(obj, &styles->pr, LV_STATE_PRESSED);
 1018              		.loc 1 375 38 is_stmt 0 view .LVU213
 1019 0540 254D     		ldr	r5, .L66
 375:Drivers/lvgl/src/extra/themes/mono/lv_theme_mono.c ****         lv_obj_add_style(obj, &styles->pr, LV_STATE_PRESSED);
 1020              		.loc 1 375 9 view .LVU214
 1021 0542 2968     		ldr	r1, [r5]
 1022 0544 3A46     		mov	r2, r7
 1023 0546 2046     		mov	r0, r4
 1024 0548 0831     		adds	r1, r1, #8
 1025 054a FFF7FEFF 		bl	lv_obj_add_style
 1026              	.LVL118:
 376:Drivers/lvgl/src/extra/themes/mono/lv_theme_mono.c ****         lv_obj_add_style(obj, &styles->focus, LV_STATE_FOCUS_KEY);
 1027              		.loc 1 376 9 is_stmt 1 view .LVU215
 1028 054e 2968     		ldr	r1, [r5]
 1029 0550 2022     		movs	r2, #32
 1030 0552 2046     		mov	r0, r4
 1031 0554 1144     		add	r1, r1, r2
 1032 0556 7EE6     		b	.L50
 1033              	.L20:
 380:Drivers/lvgl/src/extra/themes/mono/lv_theme_mono.c ****         lv_obj_add_style(obj, &styles->card, 0);
 1034              		.loc 1 380 10 view .LVU216
 380:Drivers/lvgl/src/extra/themes/mono/lv_theme_mono.c ****         lv_obj_add_style(obj, &styles->card, 0);
 1035              		.loc 1 380 13 is_stmt 0 view .LVU217
 1036 0558 2D49     		ldr	r1, .L66+56
ARM GAS  /var/folders/lp/x54gwt890xv47sdkqj1k04q40000gn/T//cc6ygGfE.s 			page 31


 1037 055a 2046     		mov	r0, r4
 1038 055c FFF7FEFF 		bl	lv_obj_check_type
 1039              	.LVL119:
 380:Drivers/lvgl/src/extra/themes/mono/lv_theme_mono.c ****         lv_obj_add_style(obj, &styles->card, 0);
 1040              		.loc 1 380 12 discriminator 1 view .LVU218
 1041 0560 0746     		mov	r7, r0
 1042 0562 F0B1     		cbz	r0, .L21
 381:Drivers/lvgl/src/extra/themes/mono/lv_theme_mono.c ****         lv_obj_add_style(obj, &styles->large_line_space, 0);
 1043              		.loc 1 381 9 is_stmt 1 view .LVU219
 381:Drivers/lvgl/src/extra/themes/mono/lv_theme_mono.c ****         lv_obj_add_style(obj, &styles->large_line_space, 0);
 1044              		.loc 1 381 38 is_stmt 0 view .LVU220
 1045 0564 1C4D     		ldr	r5, .L66
 381:Drivers/lvgl/src/extra/themes/mono/lv_theme_mono.c ****         lv_obj_add_style(obj, &styles->large_line_space, 0);
 1046              		.loc 1 381 9 view .LVU221
 1047 0566 2968     		ldr	r1, [r5]
 1048 0568 3246     		mov	r2, r6
 1049 056a 0831     		adds	r1, r1, #8
 1050 056c 2046     		mov	r0, r4
 1051 056e FFF7FEFF 		bl	lv_obj_add_style
 1052              	.LVL120:
 382:Drivers/lvgl/src/extra/themes/mono/lv_theme_mono.c ****         lv_obj_add_style(obj, &styles->scrollbar, LV_PART_SCROLLBAR);
 1053              		.loc 1 382 9 is_stmt 1 view .LVU222
 1054 0572 2968     		ldr	r1, [r5]
 1055 0574 3246     		mov	r2, r6
 1056 0576 7031     		adds	r1, r1, #112
 1057 0578 2046     		mov	r0, r4
 1058 057a FFF7FEFF 		bl	lv_obj_add_style
 1059              	.LVL121:
 383:Drivers/lvgl/src/extra/themes/mono/lv_theme_mono.c ****         lv_obj_add_style(obj, &styles->inv, LV_PART_SELECTED | LV_STATE_CHECKED);
 1060              		.loc 1 383 9 view .LVU223
 1061 057e 2968     		ldr	r1, [r5]
 1062 0580 4FF48032 		mov	r2, #65536
 1063 0584 2046     		mov	r0, r4
 1064 0586 1031     		adds	r1, r1, #16
 1065 0588 FFF7FEFF 		bl	lv_obj_add_style
 1066              	.LVL122:
 384:Drivers/lvgl/src/extra/themes/mono/lv_theme_mono.c ****         lv_obj_add_style(obj, &styles->pr, LV_PART_SELECTED | LV_STATE_PRESSED);
 1067              		.loc 1 384 9 view .LVU224
 1068 058c 2968     		ldr	r1, [r5]
 1069 058e 214A     		ldr	r2, .L66+60
 1070 0590 2046     		mov	r0, r4
 1071 0592 2831     		adds	r1, r1, #40
 1072 0594 FFF7FEFF 		bl	lv_obj_add_style
 1073              	.LVL123:
 385:Drivers/lvgl/src/extra/themes/mono/lv_theme_mono.c ****         lv_obj_add_style(obj, &styles->focus, LV_STATE_FOCUS_KEY);
 1074              		.loc 1 385 9 view .LVU225
 1075 0598 2968     		ldr	r1, [r5]
 1076 059a 1F4A     		ldr	r2, .L66+64
 1077 059c 2046     		mov	r0, r4
 1078 059e 2031     		adds	r1, r1, #32
 1079 05a0 59E6     		b	.L50
 1080              	.L21:
 392:Drivers/lvgl/src/extra/themes/mono/lv_theme_mono.c ****         lv_obj_add_style(obj, &styles->card, 0);
 1081              		.loc 1 392 10 view .LVU226
 392:Drivers/lvgl/src/extra/themes/mono/lv_theme_mono.c ****         lv_obj_add_style(obj, &styles->card, 0);
 1082              		.loc 1 392 13 is_stmt 0 view .LVU227
 1083 05a2 1E49     		ldr	r1, .L66+68
ARM GAS  /var/folders/lp/x54gwt890xv47sdkqj1k04q40000gn/T//cc6ygGfE.s 			page 32


 1084 05a4 2046     		mov	r0, r4
 1085 05a6 FFF7FEFF 		bl	lv_obj_check_type
 1086              	.LVL124:
 392:Drivers/lvgl/src/extra/themes/mono/lv_theme_mono.c ****         lv_obj_add_style(obj, &styles->card, 0);
 1087              		.loc 1 392 12 discriminator 1 view .LVU228
 1088 05aa 0546     		mov	r5, r0
 1089 05ac C0B3     		cbz	r0, .L22
 393:Drivers/lvgl/src/extra/themes/mono/lv_theme_mono.c ****         lv_obj_add_style(obj, &styles->inv, LV_PART_INDICATOR);
 1090              		.loc 1 393 9 is_stmt 1 view .LVU229
 393:Drivers/lvgl/src/extra/themes/mono/lv_theme_mono.c ****         lv_obj_add_style(obj, &styles->inv, LV_PART_INDICATOR);
 1091              		.loc 1 393 38 is_stmt 0 view .LVU230
 1092 05ae 0A4D     		ldr	r5, .L66
 393:Drivers/lvgl/src/extra/themes/mono/lv_theme_mono.c ****         lv_obj_add_style(obj, &styles->inv, LV_PART_INDICATOR);
 1093              		.loc 1 393 9 view .LVU231
 1094 05b0 2968     		ldr	r1, [r5]
 1095 05b2 3A46     		mov	r2, r7
 1096 05b4 2046     		mov	r0, r4
 1097 05b6 0831     		adds	r1, r1, #8
 1098 05b8 FFF7FEFF 		bl	lv_obj_add_style
 1099              	.LVL125:
 394:Drivers/lvgl/src/extra/themes/mono/lv_theme_mono.c ****         lv_obj_add_style(obj, &styles->pad_zero, LV_PART_INDICATOR);
 1100              		.loc 1 394 9 is_stmt 1 view .LVU232
 1101 05bc 2968     		ldr	r1, [r5]
 1102 05be 4FF40032 		mov	r2, #131072
 1103 05c2 2046     		mov	r0, r4
 1104 05c4 2831     		adds	r1, r1, #40
 1105 05c6 FFF7FEFF 		bl	lv_obj_add_style
 1106              	.LVL126:
 395:Drivers/lvgl/src/extra/themes/mono/lv_theme_mono.c ****         lv_obj_add_style(obj, &styles->card, LV_PART_KNOB);
 1107              		.loc 1 395 9 view .LVU233
 1108 05ca 2968     		ldr	r1, [r5]
 1109 05cc 4FF40032 		mov	r2, #131072
 1110 05d0 2046     		mov	r0, r4
 1111 05d2 5031     		adds	r1, r1, #80
 1112 05d4 31E6     		b	.L54
 1113              	.L67:
 1114 05d6 00BF     		.align	2
 1115              	.L66:
 1116 05d8 00000000 		.word	styles
 1117 05dc 20000500 		.word	327712
 1118 05e0 01000500 		.word	327681
 1119 05e4 80000500 		.word	327808
 1120 05e8 04000500 		.word	327684
 1121 05ec 00000000 		.word	lv_win_class
 1122 05f0 00000000 		.word	lv_checkbox_class
 1123 05f4 80000200 		.word	131200
 1124 05f8 01000200 		.word	131073
 1125 05fc 20000200 		.word	131104
 1126 0600 00000000 		.word	lv_switch_class
 1127 0604 00000000 		.word	lv_chart_class
 1128 0608 00000000 		.word	lv_roller_class
 1129 060c 00000000 		.word	lv_dropdown_class
 1130 0610 00000000 		.word	lv_dropdownlist_class
 1131 0614 01000400 		.word	262145
 1132 0618 20000400 		.word	262176
 1133 061c 00000000 		.word	lv_arc_class
 1134              	.L22:
ARM GAS  /var/folders/lp/x54gwt890xv47sdkqj1k04q40000gn/T//cc6ygGfE.s 			page 33


 404:Drivers/lvgl/src/extra/themes/mono/lv_theme_mono.c ****         lv_obj_add_style(obj, &styles->card, 0);
 1135              		.loc 1 404 10 view .LVU234
 404:Drivers/lvgl/src/extra/themes/mono/lv_theme_mono.c ****         lv_obj_add_style(obj, &styles->card, 0);
 1136              		.loc 1 404 13 is_stmt 0 view .LVU235
 1137 0620 7349     		ldr	r1, .L68
 1138 0622 2046     		mov	r0, r4
 1139 0624 FFF7FEFF 		bl	lv_obj_check_type
 1140              	.LVL127:
 404:Drivers/lvgl/src/extra/themes/mono/lv_theme_mono.c ****         lv_obj_add_style(obj, &styles->card, 0);
 1141              		.loc 1 404 12 discriminator 1 view .LVU236
 1142 0628 0746     		mov	r7, r0
 1143 062a D8B9     		cbnz	r0, .L47
 410:Drivers/lvgl/src/extra/themes/mono/lv_theme_mono.c ****         lv_obj_add_style(obj, &styles->card, 0);
 1144              		.loc 1 410 10 is_stmt 1 view .LVU237
 410:Drivers/lvgl/src/extra/themes/mono/lv_theme_mono.c ****         lv_obj_add_style(obj, &styles->card, 0);
 1145              		.loc 1 410 13 is_stmt 0 view .LVU238
 1146 062c 7149     		ldr	r1, .L68+4
 1147 062e 2046     		mov	r0, r4
 1148 0630 FFF7FEFF 		bl	lv_obj_check_type
 1149              	.LVL128:
 410:Drivers/lvgl/src/extra/themes/mono/lv_theme_mono.c ****         lv_obj_add_style(obj, &styles->card, 0);
 1150              		.loc 1 410 12 discriminator 1 view .LVU239
 1151 0634 0646     		mov	r6, r0
 1152 0636 F0B1     		cbz	r0, .L24
 411:Drivers/lvgl/src/extra/themes/mono/lv_theme_mono.c ****         lv_obj_add_style(obj, &styles->scrollbar, LV_PART_SCROLLBAR);
 1153              		.loc 1 411 9 is_stmt 1 view .LVU240
 411:Drivers/lvgl/src/extra/themes/mono/lv_theme_mono.c ****         lv_obj_add_style(obj, &styles->scrollbar, LV_PART_SCROLLBAR);
 1154              		.loc 1 411 38 is_stmt 0 view .LVU241
 1155 0638 6F4D     		ldr	r5, .L68+8
 411:Drivers/lvgl/src/extra/themes/mono/lv_theme_mono.c ****         lv_obj_add_style(obj, &styles->scrollbar, LV_PART_SCROLLBAR);
 1156              		.loc 1 411 9 view .LVU242
 1157 063a 2968     		ldr	r1, [r5]
 1158 063c 3A46     		mov	r2, r7
 1159 063e 2046     		mov	r0, r4
 1160 0640 0831     		adds	r1, r1, #8
 1161 0642 FFF7FEFF 		bl	lv_obj_add_style
 1162              	.LVL129:
 412:Drivers/lvgl/src/extra/themes/mono/lv_theme_mono.c ****         lv_obj_add_style(obj, &styles->ta_cursor, LV_PART_CURSOR | LV_STATE_FOCUSED);
 1163              		.loc 1 412 9 is_stmt 1 view .LVU243
 1164 0646 2968     		ldr	r1, [r5]
 1165 0648 4FF48032 		mov	r2, #65536
 1166 064c 2046     		mov	r0, r4
 1167 064e 1031     		adds	r1, r1, #16
 1168 0650 FFF7FEFF 		bl	lv_obj_add_style
 1169              	.LVL130:
 413:Drivers/lvgl/src/extra/themes/mono/lv_theme_mono.c ****         lv_obj_add_style(obj, &styles->focus, LV_STATE_FOCUSED);
 1170              		.loc 1 413 9 view .LVU244
 1171 0654 2968     		ldr	r1, [r5]
 1172 0656 694A     		ldr	r2, .L68+12
 1173 0658 2046     		mov	r0, r4
 1174 065a 8031     		adds	r1, r1, #128
 1175 065c FFF7FEFF 		bl	lv_obj_add_style
 1176              	.LVL131:
 414:Drivers/lvgl/src/extra/themes/mono/lv_theme_mono.c ****         lv_obj_add_style(obj, &styles->edit, LV_STATE_EDITED);
 1177              		.loc 1 414 9 view .LVU245
 1178 0660 0222     		movs	r2, #2
 1179 0662 FBE5     		b	.L49
ARM GAS  /var/folders/lp/x54gwt890xv47sdkqj1k04q40000gn/T//cc6ygGfE.s 			page 34


 1180              	.L47:
 485:Drivers/lvgl/src/extra/themes/mono/lv_theme_mono.c ****     }
 1181              		.loc 1 485 9 view .LVU246
 485:Drivers/lvgl/src/extra/themes/mono/lv_theme_mono.c ****     }
 1182              		.loc 1 485 38 is_stmt 0 view .LVU247
 1183 0664 644B     		ldr	r3, .L68+8
 485:Drivers/lvgl/src/extra/themes/mono/lv_theme_mono.c ****     }
 1184              		.loc 1 485 9 view .LVU248
 1185 0666 1968     		ldr	r1, [r3]
 1186 0668 2A46     		mov	r2, r5
 1187 066a 2046     		mov	r0, r4
 1188 066c 0831     		adds	r1, r1, #8
 1189              		.loc 1 488 1 view .LVU249
 1190 066e BDE8F840 		pop	{r3, r4, r5, r6, r7, lr}
 1191              		.cfi_remember_state
 1192              		.cfi_restore 14
 1193              		.cfi_restore 7
 1194              		.cfi_restore 6
 1195              		.cfi_restore 5
 1196              		.cfi_restore 4
 1197              		.cfi_restore 3
 1198              		.cfi_def_cfa_offset 0
 1199              	.LVL132:
 485:Drivers/lvgl/src/extra/themes/mono/lv_theme_mono.c ****     }
 1200              		.loc 1 485 9 view .LVU250
 1201 0672 FFF7FEBF 		b	lv_obj_add_style
 1202              	.LVL133:
 1203              	.L24:
 1204              		.cfi_restore_state
 420:Drivers/lvgl/src/extra/themes/mono/lv_theme_mono.c ****         lv_obj_add_style(obj, &styles->card, 0);
 1205              		.loc 1 420 10 is_stmt 1 view .LVU251
 420:Drivers/lvgl/src/extra/themes/mono/lv_theme_mono.c ****         lv_obj_add_style(obj, &styles->card, 0);
 1206              		.loc 1 420 13 is_stmt 0 view .LVU252
 1207 0676 6249     		ldr	r1, .L68+16
 1208 0678 2046     		mov	r0, r4
 1209 067a FFF7FEFF 		bl	lv_obj_check_type
 1210              	.LVL134:
 420:Drivers/lvgl/src/extra/themes/mono/lv_theme_mono.c ****         lv_obj_add_style(obj, &styles->card, 0);
 1211              		.loc 1 420 12 discriminator 1 view .LVU253
 1212 067e 0746     		mov	r7, r0
 1213 0680 30B3     		cbz	r0, .L25
 421:Drivers/lvgl/src/extra/themes/mono/lv_theme_mono.c ****         lv_obj_add_style(obj, &styles->no_radius, 0);
 1214              		.loc 1 421 9 is_stmt 1 view .LVU254
 421:Drivers/lvgl/src/extra/themes/mono/lv_theme_mono.c ****         lv_obj_add_style(obj, &styles->no_radius, 0);
 1215              		.loc 1 421 38 is_stmt 0 view .LVU255
 1216 0682 5D4D     		ldr	r5, .L68+8
 421:Drivers/lvgl/src/extra/themes/mono/lv_theme_mono.c ****         lv_obj_add_style(obj, &styles->no_radius, 0);
 1217              		.loc 1 421 9 view .LVU256
 1218 0684 2968     		ldr	r1, [r5]
 1219 0686 3246     		mov	r2, r6
 1220 0688 0831     		adds	r1, r1, #8
 1221 068a 2046     		mov	r0, r4
 1222 068c FFF7FEFF 		bl	lv_obj_add_style
 1223              	.LVL135:
 422:Drivers/lvgl/src/extra/themes/mono/lv_theme_mono.c ****         lv_obj_add_style(obj, &styles->pr, LV_PART_ITEMS | LV_STATE_PRESSED);
 1224              		.loc 1 422 9 is_stmt 1 view .LVU257
 1225 0690 2968     		ldr	r1, [r5]
ARM GAS  /var/folders/lp/x54gwt890xv47sdkqj1k04q40000gn/T//cc6ygGfE.s 			page 35


 1226 0692 3246     		mov	r2, r6
 1227 0694 5831     		adds	r1, r1, #88
 1228 0696 2046     		mov	r0, r4
 1229 0698 FFF7FEFF 		bl	lv_obj_add_style
 1230              	.LVL136:
 423:Drivers/lvgl/src/extra/themes/mono/lv_theme_mono.c ****         lv_obj_add_style(obj, &styles->disabled, LV_PART_ITEMS | LV_STATE_DISABLED);
 1231              		.loc 1 423 9 view .LVU258
 1232 069c 2968     		ldr	r1, [r5]
 1233 069e 594A     		ldr	r2, .L68+20
 1234 06a0 2046     		mov	r0, r4
 1235 06a2 2031     		adds	r1, r1, #32
 1236 06a4 FFF7FEFF 		bl	lv_obj_add_style
 1237              	.LVL137:
 424:Drivers/lvgl/src/extra/themes/mono/lv_theme_mono.c ****         lv_obj_add_style(obj, &styles->focus, LV_STATE_FOCUS_KEY);
 1238              		.loc 1 424 9 view .LVU259
 1239 06a8 2968     		ldr	r1, [r5]
 1240 06aa 574A     		ldr	r2, .L68+24
 1241 06ac 2046     		mov	r0, r4
 1242 06ae 3031     		adds	r1, r1, #48
 1243 06b0 FFF7FEFF 		bl	lv_obj_add_style
 1244              	.LVL138:
 425:Drivers/lvgl/src/extra/themes/mono/lv_theme_mono.c ****         lv_obj_add_style(obj, &styles->edit, LV_STATE_EDITED);
 1245              		.loc 1 425 9 view .LVU260
 1246 06b4 2968     		ldr	r1, [r5]
 1247 06b6 0422     		movs	r2, #4
 1248 06b8 2046     		mov	r0, r4
 1249 06ba 3831     		adds	r1, r1, #56
 1250 06bc FFF7FEFF 		bl	lv_obj_add_style
 1251              	.LVL139:
 426:Drivers/lvgl/src/extra/themes/mono/lv_theme_mono.c ****         lv_obj_add_style(obj, &styles->large_border, LV_PART_ITEMS | LV_STATE_FOCUS_KEY);
 1252              		.loc 1 426 9 view .LVU261
 1253 06c0 2968     		ldr	r1, [r5]
 1254 06c2 0822     		movs	r2, #8
 1255 06c4 2046     		mov	r0, r4
 1256 06c6 4031     		adds	r1, r1, #64
 1257 06c8 FFF7FEFF 		bl	lv_obj_add_style
 1258              	.LVL140:
 427:Drivers/lvgl/src/extra/themes/mono/lv_theme_mono.c ****     }
 1259              		.loc 1 427 9 view .LVU262
 1260 06cc 4F4A     		ldr	r2, .L68+28
 1261 06ce 58E5     		b	.L48
 1262              	.L25:
 432:Drivers/lvgl/src/extra/themes/mono/lv_theme_mono.c ****         lv_obj_add_style(obj, &styles->card, 0);
 1263              		.loc 1 432 10 view .LVU263
 432:Drivers/lvgl/src/extra/themes/mono/lv_theme_mono.c ****         lv_obj_add_style(obj, &styles->card, 0);
 1264              		.loc 1 432 13 is_stmt 0 view .LVU264
 1265 06d0 4F49     		ldr	r1, .L68+32
 1266 06d2 2046     		mov	r0, r4
 1267 06d4 FFF7FEFF 		bl	lv_obj_check_type
 1268              	.LVL141:
 432:Drivers/lvgl/src/extra/themes/mono/lv_theme_mono.c ****         lv_obj_add_style(obj, &styles->card, 0);
 1269              		.loc 1 432 12 discriminator 1 view .LVU265
 1270 06d8 0546     		mov	r5, r0
 1271 06da 38B3     		cbz	r0, .L26
 433:Drivers/lvgl/src/extra/themes/mono/lv_theme_mono.c ****         lv_obj_add_style(obj, &styles->card, LV_PART_ITEMS);
 1272              		.loc 1 433 9 is_stmt 1 view .LVU266
 433:Drivers/lvgl/src/extra/themes/mono/lv_theme_mono.c ****         lv_obj_add_style(obj, &styles->card, LV_PART_ITEMS);
ARM GAS  /var/folders/lp/x54gwt890xv47sdkqj1k04q40000gn/T//cc6ygGfE.s 			page 36


 1273              		.loc 1 433 38 is_stmt 0 view .LVU267
 1274 06dc 464D     		ldr	r5, .L68+8
 433:Drivers/lvgl/src/extra/themes/mono/lv_theme_mono.c ****         lv_obj_add_style(obj, &styles->card, LV_PART_ITEMS);
 1275              		.loc 1 433 9 view .LVU268
 1276 06de 2968     		ldr	r1, [r5]
 1277 06e0 3A46     		mov	r2, r7
 1278 06e2 2046     		mov	r0, r4
 1279 06e4 0831     		adds	r1, r1, #8
 1280 06e6 FFF7FEFF 		bl	lv_obj_add_style
 1281              	.LVL142:
 434:Drivers/lvgl/src/extra/themes/mono/lv_theme_mono.c ****         lv_obj_add_style(obj, &styles->pr, LV_PART_ITEMS | LV_STATE_PRESSED);
 1282              		.loc 1 434 9 is_stmt 1 view .LVU269
 1283 06ea 2968     		ldr	r1, [r5]
 1284 06ec 4FF4A022 		mov	r2, #327680
 1285 06f0 2046     		mov	r0, r4
 1286 06f2 0831     		adds	r1, r1, #8
 1287 06f4 FFF7FEFF 		bl	lv_obj_add_style
 1288              	.LVL143:
 435:Drivers/lvgl/src/extra/themes/mono/lv_theme_mono.c ****         lv_obj_add_style(obj, &styles->inv, LV_PART_ITEMS | LV_STATE_CHECKED);
 1289              		.loc 1 435 9 view .LVU270
 1290 06f8 2968     		ldr	r1, [r5]
 1291 06fa 424A     		ldr	r2, .L68+20
 1292 06fc 2046     		mov	r0, r4
 1293 06fe 2031     		adds	r1, r1, #32
 1294 0700 FFF7FEFF 		bl	lv_obj_add_style
 1295              	.LVL144:
 436:Drivers/lvgl/src/extra/themes/mono/lv_theme_mono.c ****         lv_obj_add_style(obj, &styles->focus, LV_STATE_FOCUS_KEY);
 1296              		.loc 1 436 9 view .LVU271
 1297 0704 2968     		ldr	r1, [r5]
 1298 0706 434A     		ldr	r2, .L68+36
 1299 0708 2046     		mov	r0, r4
 1300 070a 2831     		adds	r1, r1, #40
 1301 070c FFF7FEFF 		bl	lv_obj_add_style
 1302              	.LVL145:
 437:Drivers/lvgl/src/extra/themes/mono/lv_theme_mono.c ****         lv_obj_add_style(obj, &styles->edit, LV_STATE_EDITED);
 1303              		.loc 1 437 9 view .LVU272
 1304 0710 2968     		ldr	r1, [r5]
 1305 0712 0422     		movs	r2, #4
 1306 0714 2046     		mov	r0, r4
 1307 0716 3831     		adds	r1, r1, #56
 1308 0718 FFF7FEFF 		bl	lv_obj_add_style
 1309              	.LVL146:
 438:Drivers/lvgl/src/extra/themes/mono/lv_theme_mono.c ****         lv_obj_add_style(obj, &styles->large_border, LV_PART_ITEMS | LV_STATE_EDITED);
 1310              		.loc 1 438 9 view .LVU273
 1311 071c 2968     		ldr	r1, [r5]
 1312 071e 0822     		movs	r2, #8
 1313 0720 2046     		mov	r0, r4
 1314 0722 4031     		adds	r1, r1, #64
 1315 0724 FFF7FEFF 		bl	lv_obj_add_style
 1316              	.LVL147:
 439:Drivers/lvgl/src/extra/themes/mono/lv_theme_mono.c ****     }
 1317              		.loc 1 439 9 view .LVU274
 1318 0728 3B4A     		ldr	r2, .L68+40
 1319 072a 2AE5     		b	.L48
 1320              	.L26:
 443:Drivers/lvgl/src/extra/themes/mono/lv_theme_mono.c ****         lv_obj_add_style(obj, &styles->card, 0);
 1321              		.loc 1 443 10 view .LVU275
ARM GAS  /var/folders/lp/x54gwt890xv47sdkqj1k04q40000gn/T//cc6ygGfE.s 			page 37


 443:Drivers/lvgl/src/extra/themes/mono/lv_theme_mono.c ****         lv_obj_add_style(obj, &styles->card, 0);
 1322              		.loc 1 443 13 is_stmt 0 view .LVU276
 1323 072c 3B49     		ldr	r1, .L68+44
 1324 072e 2046     		mov	r0, r4
 1325 0730 FFF7FEFF 		bl	lv_obj_check_type
 1326              	.LVL148:
 443:Drivers/lvgl/src/extra/themes/mono/lv_theme_mono.c ****         lv_obj_add_style(obj, &styles->card, 0);
 1327              		.loc 1 443 12 discriminator 1 view .LVU277
 1328 0734 08BB     		cbnz	r0, .L63
 448:Drivers/lvgl/src/extra/themes/mono/lv_theme_mono.c **** 
 1329              		.loc 1 448 10 is_stmt 1 view .LVU278
 448:Drivers/lvgl/src/extra/themes/mono/lv_theme_mono.c **** 
 1330              		.loc 1 448 13 is_stmt 0 view .LVU279
 1331 0736 3A49     		ldr	r1, .L68+48
 1332 0738 2046     		mov	r0, r4
 1333 073a FFF7FEFF 		bl	lv_obj_check_type
 1334              	.LVL149:
 448:Drivers/lvgl/src/extra/themes/mono/lv_theme_mono.c **** 
 1335              		.loc 1 448 12 discriminator 1 view .LVU280
 1336 073e 0028     		cmp	r0, #0
 1337 0740 7FF4D7AC 		bne	.L1
 451:Drivers/lvgl/src/extra/themes/mono/lv_theme_mono.c ****         lv_obj_add_style(obj, &styles->card, 0);
 1338              		.loc 1 451 10 is_stmt 1 view .LVU281
 451:Drivers/lvgl/src/extra/themes/mono/lv_theme_mono.c ****         lv_obj_add_style(obj, &styles->card, 0);
 1339              		.loc 1 451 13 is_stmt 0 view .LVU282
 1340 0744 3749     		ldr	r1, .L68+52
 1341 0746 2046     		mov	r0, r4
 1342 0748 FFF7FEFF 		bl	lv_obj_check_type
 1343              	.LVL150:
 451:Drivers/lvgl/src/extra/themes/mono/lv_theme_mono.c ****         lv_obj_add_style(obj, &styles->card, 0);
 1344              		.loc 1 451 12 discriminator 1 view .LVU283
 1345 074c 0546     		mov	r5, r0
 1346 074e D0B1     		cbz	r0, .L29
 452:Drivers/lvgl/src/extra/themes/mono/lv_theme_mono.c ****         lv_obj_add_style(obj, &styles->pr, LV_STATE_PRESSED);
 1347              		.loc 1 452 9 is_stmt 1 view .LVU284
 452:Drivers/lvgl/src/extra/themes/mono/lv_theme_mono.c ****         lv_obj_add_style(obj, &styles->pr, LV_STATE_PRESSED);
 1348              		.loc 1 452 38 is_stmt 0 view .LVU285
 1349 0750 294D     		ldr	r5, .L68+8
 452:Drivers/lvgl/src/extra/themes/mono/lv_theme_mono.c ****         lv_obj_add_style(obj, &styles->pr, LV_STATE_PRESSED);
 1350              		.loc 1 452 9 view .LVU286
 1351 0752 2968     		ldr	r1, [r5]
 1352 0754 0022     		movs	r2, #0
 1353 0756 2046     		mov	r0, r4
 1354 0758 0831     		adds	r1, r1, #8
 1355 075a FFF7FEFF 		bl	lv_obj_add_style
 1356              	.LVL151:
 453:Drivers/lvgl/src/extra/themes/mono/lv_theme_mono.c ****         lv_obj_add_style(obj, &styles->focus, LV_STATE_FOCUS_KEY);
 1357              		.loc 1 453 9 is_stmt 1 view .LVU287
 1358 075e 2968     		ldr	r1, [r5]
 1359 0760 2022     		movs	r2, #32
 1360 0762 1144     		add	r1, r1, r2
 1361 0764 2046     		mov	r0, r4
 1362 0766 FFF7FEFF 		bl	lv_obj_add_style
 1363              	.LVL152:
 454:Drivers/lvgl/src/extra/themes/mono/lv_theme_mono.c ****         lv_obj_add_style(obj, &styles->large_border, LV_STATE_EDITED);
 1364              		.loc 1 454 9 view .LVU288
 1365 076a 2968     		ldr	r1, [r5]
ARM GAS  /var/folders/lp/x54gwt890xv47sdkqj1k04q40000gn/T//cc6ygGfE.s 			page 38


 1366 076c 0422     		movs	r2, #4
 1367 076e 2046     		mov	r0, r4
 1368 0770 3831     		adds	r1, r1, #56
 1369 0772 FFF7FEFF 		bl	lv_obj_add_style
 1370              	.LVL153:
 455:Drivers/lvgl/src/extra/themes/mono/lv_theme_mono.c **** 
 1371              		.loc 1 455 9 view .LVU289
 1372 0776 0822     		movs	r2, #8
 1373 0778 03E5     		b	.L48
 1374              	.L63:
 444:Drivers/lvgl/src/extra/themes/mono/lv_theme_mono.c ****         lv_obj_add_style(obj, &styles->scrollbar, LV_PART_SCROLLBAR);
 1375              		.loc 1 444 9 view .LVU290
 444:Drivers/lvgl/src/extra/themes/mono/lv_theme_mono.c ****         lv_obj_add_style(obj, &styles->scrollbar, LV_PART_SCROLLBAR);
 1376              		.loc 1 444 38 is_stmt 0 view .LVU291
 1377 077a 1F4E     		ldr	r6, .L68+8
 444:Drivers/lvgl/src/extra/themes/mono/lv_theme_mono.c ****         lv_obj_add_style(obj, &styles->scrollbar, LV_PART_SCROLLBAR);
 1378              		.loc 1 444 9 view .LVU292
 1379 077c 3168     		ldr	r1, [r6]
 1380 077e 2A46     		mov	r2, r5
 1381 0780 2046     		mov	r0, r4
 1382 0782 0831     		adds	r1, r1, #8
 1383 0784 32E5     		b	.L45
 1384              	.L29:
 460:Drivers/lvgl/src/extra/themes/mono/lv_theme_mono.c ****         lv_obj_add_style(obj, &styles->card, 0);
 1385              		.loc 1 460 10 is_stmt 1 view .LVU293
 460:Drivers/lvgl/src/extra/themes/mono/lv_theme_mono.c ****         lv_obj_add_style(obj, &styles->card, 0);
 1386              		.loc 1 460 13 is_stmt 0 view .LVU294
 1387 0786 2849     		ldr	r1, .L68+56
 1388 0788 2046     		mov	r0, r4
 1389 078a FFF7FEFF 		bl	lv_obj_check_type
 1390              	.LVL154:
 460:Drivers/lvgl/src/extra/themes/mono/lv_theme_mono.c ****         lv_obj_add_style(obj, &styles->card, 0);
 1391              		.loc 1 460 12 discriminator 1 view .LVU295
 1392 078e 0646     		mov	r6, r0
 1393 0790 0028     		cmp	r0, #0
 1394 0792 7FF467AF 		bne	.L47
 466:Drivers/lvgl/src/extra/themes/mono/lv_theme_mono.c ****         lv_obj_add_style(obj, &styles->card, 0);
 1395              		.loc 1 466 10 is_stmt 1 view .LVU296
 466:Drivers/lvgl/src/extra/themes/mono/lv_theme_mono.c ****         lv_obj_add_style(obj, &styles->card, 0);
 1396              		.loc 1 466 13 is_stmt 0 view .LVU297
 1397 0796 2549     		ldr	r1, .L68+60
 1398 0798 2046     		mov	r0, r4
 1399 079a FFF7FEFF 		bl	lv_obj_check_type
 1400              	.LVL155:
 466:Drivers/lvgl/src/extra/themes/mono/lv_theme_mono.c ****         lv_obj_add_style(obj, &styles->card, 0);
 1401              		.loc 1 466 12 discriminator 1 view .LVU298
 1402 079e 0546     		mov	r5, r0
 1403 07a0 48B1     		cbz	r0, .L31
 467:Drivers/lvgl/src/extra/themes/mono/lv_theme_mono.c ****         lv_obj_add_style(obj, &styles->inv, LV_PART_CURSOR);
 1404              		.loc 1 467 9 is_stmt 1 view .LVU299
 467:Drivers/lvgl/src/extra/themes/mono/lv_theme_mono.c ****         lv_obj_add_style(obj, &styles->inv, LV_PART_CURSOR);
 1405              		.loc 1 467 38 is_stmt 0 view .LVU300
 1406 07a2 154D     		ldr	r5, .L68+8
 467:Drivers/lvgl/src/extra/themes/mono/lv_theme_mono.c ****         lv_obj_add_style(obj, &styles->inv, LV_PART_CURSOR);
 1407              		.loc 1 467 9 view .LVU301
 1408 07a4 2968     		ldr	r1, [r5]
 1409 07a6 3246     		mov	r2, r6
ARM GAS  /var/folders/lp/x54gwt890xv47sdkqj1k04q40000gn/T//cc6ygGfE.s 			page 39


 1410 07a8 2046     		mov	r0, r4
 1411 07aa 0831     		adds	r1, r1, #8
 1412 07ac FFF7FEFF 		bl	lv_obj_add_style
 1413              	.LVL156:
 468:Drivers/lvgl/src/extra/themes/mono/lv_theme_mono.c ****         lv_obj_add_style(obj, &styles->focus, LV_STATE_FOCUS_KEY);
 1414              		.loc 1 468 9 is_stmt 1 view .LVU302
 1415 07b0 4FF4E022 		mov	r2, #458752
 1416 07b4 BAE6     		b	.L51
 1417              	.L31:
 474:Drivers/lvgl/src/extra/themes/mono/lv_theme_mono.c ****         lv_obj_add_style(obj, &styles->scr, 0);
 1418              		.loc 1 474 10 view .LVU303
 474:Drivers/lvgl/src/extra/themes/mono/lv_theme_mono.c ****         lv_obj_add_style(obj, &styles->scr, 0);
 1419              		.loc 1 474 13 is_stmt 0 view .LVU304
 1420 07b6 1E49     		ldr	r1, .L68+64
 1421 07b8 2046     		mov	r0, r4
 1422 07ba FFF7FEFF 		bl	lv_obj_check_type
 1423              	.LVL157:
 474:Drivers/lvgl/src/extra/themes/mono/lv_theme_mono.c ****         lv_obj_add_style(obj, &styles->scr, 0);
 1424              		.loc 1 474 12 discriminator 1 view .LVU305
 1425 07be 20B1     		cbz	r0, .L32
 475:Drivers/lvgl/src/extra/themes/mono/lv_theme_mono.c ****         lv_obj_add_style(obj, &styles->scrollbar, LV_PART_SCROLLBAR);
 1426              		.loc 1 475 9 is_stmt 1 view .LVU306
 475:Drivers/lvgl/src/extra/themes/mono/lv_theme_mono.c ****         lv_obj_add_style(obj, &styles->scrollbar, LV_PART_SCROLLBAR);
 1427              		.loc 1 475 38 is_stmt 0 view .LVU307
 1428 07c0 0D4E     		ldr	r6, .L68+8
 475:Drivers/lvgl/src/extra/themes/mono/lv_theme_mono.c ****         lv_obj_add_style(obj, &styles->scrollbar, LV_PART_SCROLLBAR);
 1429              		.loc 1 475 9 view .LVU308
 1430 07c2 2A46     		mov	r2, r5
 1431 07c4 3168     		ldr	r1, [r6]
 1432 07c6 2046     		mov	r0, r4
 1433 07c8 10E5     		b	.L45
 1434              	.L32:
 478:Drivers/lvgl/src/extra/themes/mono/lv_theme_mono.c ****         lv_obj_add_style(obj, &styles->scrollbar, LV_PART_SCROLLBAR);
 1435              		.loc 1 478 10 is_stmt 1 view .LVU309
 478:Drivers/lvgl/src/extra/themes/mono/lv_theme_mono.c ****         lv_obj_add_style(obj, &styles->scrollbar, LV_PART_SCROLLBAR);
 1436              		.loc 1 478 13 is_stmt 0 view .LVU310
 1437 07ca 1A49     		ldr	r1, .L68+68
 1438 07cc 2046     		mov	r0, r4
 1439 07ce FFF7FEFF 		bl	lv_obj_check_type
 1440              	.LVL158:
 478:Drivers/lvgl/src/extra/themes/mono/lv_theme_mono.c ****         lv_obj_add_style(obj, &styles->scrollbar, LV_PART_SCROLLBAR);
 1441              		.loc 1 478 12 discriminator 1 view .LVU311
 1442 07d2 0546     		mov	r5, r0
 1443 07d4 0028     		cmp	r0, #0
 1444 07d6 3FF485AC 		beq	.L33
 479:Drivers/lvgl/src/extra/themes/mono/lv_theme_mono.c ****     }
 1445              		.loc 1 479 9 is_stmt 1 view .LVU312
 479:Drivers/lvgl/src/extra/themes/mono/lv_theme_mono.c ****     }
 1446              		.loc 1 479 38 is_stmt 0 view .LVU313
 1447 07da 074B     		ldr	r3, .L68+8
 479:Drivers/lvgl/src/extra/themes/mono/lv_theme_mono.c ****     }
 1448              		.loc 1 479 9 view .LVU314
 1449 07dc 1968     		ldr	r1, [r3]
 1450 07de 2046     		mov	r0, r4
 1451 07e0 4FF48032 		mov	r2, #65536
 1452              		.loc 1 488 1 view .LVU315
 1453 07e4 BDE8F840 		pop	{r3, r4, r5, r6, r7, lr}
ARM GAS  /var/folders/lp/x54gwt890xv47sdkqj1k04q40000gn/T//cc6ygGfE.s 			page 40


 1454              		.cfi_restore 14
 1455              		.cfi_restore 7
 1456              		.cfi_restore 6
 1457              		.cfi_restore 5
 1458              		.cfi_restore 4
 1459              		.cfi_restore 3
 1460              		.cfi_def_cfa_offset 0
 1461              	.LVL159:
 479:Drivers/lvgl/src/extra/themes/mono/lv_theme_mono.c ****     }
 1462              		.loc 1 479 9 view .LVU316
 1463 07e8 1031     		adds	r1, r1, #16
 1464 07ea FFF7FEBF 		b	lv_obj_add_style
 1465              	.LVL160:
 1466              	.L69:
 479:Drivers/lvgl/src/extra/themes/mono/lv_theme_mono.c ****     }
 1467              		.loc 1 479 9 view .LVU317
 1468 07ee 00BF     		.align	2
 1469              	.L68:
 1470 07f0 00000000 		.word	lv_meter_class
 1471 07f4 00000000 		.word	lv_textarea_class
 1472 07f8 00000000 		.word	styles
 1473 07fc 02000700 		.word	458754
 1474 0800 00000000 		.word	lv_calendar_class
 1475 0804 20000500 		.word	327712
 1476 0808 80000500 		.word	327808
 1477 080c 04000500 		.word	327684
 1478 0810 00000000 		.word	lv_keyboard_class
 1479 0814 01000500 		.word	327681
 1480 0818 08000500 		.word	327688
 1481 081c 00000000 		.word	lv_list_class
 1482 0820 00000000 		.word	lv_list_text_class
 1483 0824 00000000 		.word	lv_list_btn_class
 1484 0828 00000000 		.word	lv_msgbox_class
 1485 082c 00000000 		.word	lv_spinbox_class
 1486 0830 00000000 		.word	lv_tileview_class
 1487 0834 00000000 		.word	lv_tileview_tile_class
 1488              		.cfi_endproc
 1489              	.LFE207:
 1491              		.section	.text.lv_theme_mono_is_inited,"ax",%progbits
 1492              		.align	1
 1493              		.p2align 2,,3
 1494              		.global	lv_theme_mono_is_inited
 1495              		.syntax unified
 1496              		.thumb
 1497              		.thumb_func
 1499              	lv_theme_mono_is_inited:
 1500              	.LFB205:
 168:Drivers/lvgl/src/extra/themes/mono/lv_theme_mono.c ****     return  LV_GC_ROOT(_lv_theme_default_styles) == NULL ? false : true;
 1501              		.loc 1 168 1 is_stmt 1 view -0
 1502              		.cfi_startproc
 1503              		@ args = 0, pretend = 0, frame = 0
 1504              		@ frame_needed = 0, uses_anonymous_args = 0
 1505              		@ link register save eliminated.
 169:Drivers/lvgl/src/extra/themes/mono/lv_theme_mono.c **** }
 1506              		.loc 1 169 5 view .LVU319
 169:Drivers/lvgl/src/extra/themes/mono/lv_theme_mono.c **** }
 1507              		.loc 1 169 66 is_stmt 0 view .LVU320
ARM GAS  /var/folders/lp/x54gwt890xv47sdkqj1k04q40000gn/T//cc6ygGfE.s 			page 41


 1508 0000 024B     		ldr	r3, .L71
 1509 0002 1868     		ldr	r0, [r3]
 170:Drivers/lvgl/src/extra/themes/mono/lv_theme_mono.c **** 
 1510              		.loc 1 170 1 view .LVU321
 1511 0004 0038     		subs	r0, r0, #0
 1512 0006 18BF     		it	ne
 1513 0008 0120     		movne	r0, #1
 1514 000a 7047     		bx	lr
 1515              	.L72:
 1516              		.align	2
 1517              	.L71:
 1518 000c 00000000 		.word	_lv_theme_default_styles
 1519              		.cfi_endproc
 1520              	.LFE205:
 1522              		.section	.text.lv_theme_mono_init,"ax",%progbits
 1523              		.align	1
 1524              		.p2align 2,,3
 1525              		.global	lv_theme_mono_init
 1526              		.syntax unified
 1527              		.thumb
 1528              		.thumb_func
 1530              	lv_theme_mono_init:
 1531              	.LVL161:
 1532              	.LFB206:
 173:Drivers/lvgl/src/extra/themes/mono/lv_theme_mono.c **** 
 1533              		.loc 1 173 1 is_stmt 1 view -0
 1534              		.cfi_startproc
 1535              		@ args = 0, pretend = 0, frame = 0
 1536              		@ frame_needed = 0, uses_anonymous_args = 0
 173:Drivers/lvgl/src/extra/themes/mono/lv_theme_mono.c **** 
 1537              		.loc 1 173 1 is_stmt 0 view .LVU323
 1538 0000 2DE9F84F 		push	{r3, r4, r5, r6, r7, r8, r9, r10, fp, lr}
 1539              		.cfi_def_cfa_offset 40
 1540              		.cfi_offset 3, -40
 1541              		.cfi_offset 4, -36
 1542              		.cfi_offset 5, -32
 1543              		.cfi_offset 6, -28
 1544              		.cfi_offset 7, -24
 1545              		.cfi_offset 8, -20
 1546              		.cfi_offset 9, -16
 1547              		.cfi_offset 10, -12
 1548              		.cfi_offset 11, -8
 1549              		.cfi_offset 14, -4
 178:Drivers/lvgl/src/extra/themes/mono/lv_theme_mono.c ****         inited = false;
 1550              		.loc 1 178 8 view .LVU324
 1551 0004 D34D     		ldr	r5, .L122
 1552 0006 D44F     		ldr	r7, .L122+4
 178:Drivers/lvgl/src/extra/themes/mono/lv_theme_mono.c ****         inited = false;
 1553              		.loc 1 178 5 is_stmt 1 view .LVU325
 178:Drivers/lvgl/src/extra/themes/mono/lv_theme_mono.c ****         inited = false;
 1554              		.loc 1 178 7 is_stmt 0 view .LVU326
 1555 0008 2B78     		ldrb	r3, [r5]	@ zero_extendqisi2
 173:Drivers/lvgl/src/extra/themes/mono/lv_theme_mono.c **** 
 1556              		.loc 1 173 1 view .LVU327
 1557 000a 8246     		mov	r10, r0
 1558 000c 0E46     		mov	r6, r1
 1559 000e 9346     		mov	fp, r2
ARM GAS  /var/folders/lp/x54gwt890xv47sdkqj1k04q40000gn/T//cc6ygGfE.s 			page 42


 178:Drivers/lvgl/src/extra/themes/mono/lv_theme_mono.c ****         inited = false;
 1560              		.loc 1 178 7 view .LVU328
 1561 0010 002B     		cmp	r3, #0
 1562 0012 00F08682 		beq	.L74
 184:Drivers/lvgl/src/extra/themes/mono/lv_theme_mono.c ****     theme.font_small = LV_FONT_DEFAULT;
 1563              		.loc 1 184 16 view .LVU329
 1564 0016 DFF84C93 		ldr	r9, .L122+16
 1565              	.LBB184:
 1566              	.LBB185:
  79:Drivers/lvgl/src/extra/themes/mono/lv_theme_mono.c ****     lv_style_set_bg_opa(&styles->scrollbar, LV_OPA_COVER);
 1567              		.loc 1 79 29 view .LVU330
 1568 001a D04C     		ldr	r4, .L122+8
 1569              	.LBE185:
 1570              	.LBE184:
 184:Drivers/lvgl/src/extra/themes/mono/lv_theme_mono.c ****     theme.font_small = LV_FONT_DEFAULT;
 1571              		.loc 1 184 16 view .LVU331
 1572 001c C9F80C00 		str	r0, [r9, #12]
 185:Drivers/lvgl/src/extra/themes/mono/lv_theme_mono.c ****     theme.font_normal = LV_FONT_DEFAULT;
 1573              		.loc 1 185 22 view .LVU332
 1574 0020 C9E90577 		strd	r7, r7, [r9, #20]
 1575              	.LBB319:
 1576              	.LBB312:
  79:Drivers/lvgl/src/extra/themes/mono/lv_theme_mono.c ****     lv_style_set_bg_opa(&styles->scrollbar, LV_OPA_COVER);
 1577              		.loc 1 79 29 view .LVU333
 1578 0024 2068     		ldr	r0, [r4]
 1579              	.LVL162:
  79:Drivers/lvgl/src/extra/themes/mono/lv_theme_mono.c ****     lv_style_set_bg_opa(&styles->scrollbar, LV_OPA_COVER);
 1580              		.loc 1 79 29 view .LVU334
 1581              	.LBE312:
 1582              	.LBE319:
 184:Drivers/lvgl/src/extra/themes/mono/lv_theme_mono.c ****     theme.font_small = LV_FONT_DEFAULT;
 1583              		.loc 1 184 5 is_stmt 1 view .LVU335
 185:Drivers/lvgl/src/extra/themes/mono/lv_theme_mono.c ****     theme.font_normal = LV_FONT_DEFAULT;
 1584              		.loc 1 185 5 view .LVU336
 186:Drivers/lvgl/src/extra/themes/mono/lv_theme_mono.c ****     theme.font_large = LV_FONT_DEFAULT;
 1585              		.loc 1 186 5 view .LVU337
 187:Drivers/lvgl/src/extra/themes/mono/lv_theme_mono.c ****     theme.apply_cb = theme_apply;
 1586              		.loc 1 187 5 view .LVU338
 188:Drivers/lvgl/src/extra/themes/mono/lv_theme_mono.c **** 
 1587              		.loc 1 188 5 view .LVU339
 188:Drivers/lvgl/src/extra/themes/mono/lv_theme_mono.c **** 
 1588              		.loc 1 188 20 is_stmt 0 view .LVU340
 1589 0026 CE4B     		ldr	r3, .L122+12
 187:Drivers/lvgl/src/extra/themes/mono/lv_theme_mono.c ****     theme.apply_cb = theme_apply;
 1590              		.loc 1 187 22 view .LVU341
 1591 0028 C9F81C70 		str	r7, [r9, #28]
 1592              	.LBB320:
 1593              	.LBB313:
  79:Drivers/lvgl/src/extra/themes/mono/lv_theme_mono.c ****     lv_style_set_bg_opa(&styles->scrollbar, LV_OPA_COVER);
 1594              		.loc 1 79 5 view .LVU342
 1595 002c 1030     		adds	r0, r0, #16
 1596              	.LBE313:
 1597              	.LBE320:
 188:Drivers/lvgl/src/extra/themes/mono/lv_theme_mono.c **** 
 1598              		.loc 1 188 20 view .LVU343
 1599 002e C9F80030 		str	r3, [r9]
 190:Drivers/lvgl/src/extra/themes/mono/lv_theme_mono.c **** 
ARM GAS  /var/folders/lp/x54gwt890xv47sdkqj1k04q40000gn/T//cc6ygGfE.s 			page 43


 1600              		.loc 1 190 5 is_stmt 1 view .LVU344
 1601              	.LVL163:
 1602              	.LBB321:
 1603              	.LBI184:
  77:Drivers/lvgl/src/extra/themes/mono/lv_theme_mono.c **** {
 1604              		.loc 1 77 13 view .LVU345
 1605              	.LBB314:
  79:Drivers/lvgl/src/extra/themes/mono/lv_theme_mono.c ****     lv_style_set_bg_opa(&styles->scrollbar, LV_OPA_COVER);
 1606              		.loc 1 79 5 view .LVU346
 1607              	.LBB186:
 1608              	.LBI186:
 489:Drivers/lvgl/src/extra/themes/mono/lv_theme_mono.c **** 
 490:Drivers/lvgl/src/extra/themes/mono/lv_theme_mono.c **** /**********************
 491:Drivers/lvgl/src/extra/themes/mono/lv_theme_mono.c ****  *   STATIC FUNCTIONS
 492:Drivers/lvgl/src/extra/themes/mono/lv_theme_mono.c ****  **********************/
 493:Drivers/lvgl/src/extra/themes/mono/lv_theme_mono.c **** 
 494:Drivers/lvgl/src/extra/themes/mono/lv_theme_mono.c **** static void style_init_reset(lv_style_t * style)
 1609              		.loc 1 494 13 view .LVU347
 1610              	.LBB187:
 495:Drivers/lvgl/src/extra/themes/mono/lv_theme_mono.c **** {
 496:Drivers/lvgl/src/extra/themes/mono/lv_theme_mono.c ****     if(inited) {
 1611              		.loc 1 496 5 view .LVU348
 1612              	.L75:
 497:Drivers/lvgl/src/extra/themes/mono/lv_theme_mono.c ****         lv_style_reset(style);
 1613              		.loc 1 497 9 view .LVU349
 1614 0032 FFF7FEFF 		bl	lv_style_reset
 1615              	.LVL164:
 1616              	.L77:
 1617              		.loc 1 497 9 is_stmt 0 view .LVU350
 1618              	.LBE187:
 1619              	.LBE186:
  80:Drivers/lvgl/src/extra/themes/mono/lv_theme_mono.c ****     lv_style_set_bg_color(&styles->scrollbar, COLOR_FG);
 1620              		.loc 1 80 5 is_stmt 1 view .LVU351
 1621 0036 2068     		ldr	r0, [r4]
 1622 0038 FF21     		movs	r1, #255
 1623 003a 1030     		adds	r0, r0, #16
 1624 003c FFF7FEFF 		bl	lv_style_set_bg_opa
 1625              	.LVL165:
  81:Drivers/lvgl/src/extra/themes/mono/lv_theme_mono.c ****     lv_style_set_width(&styles->scrollbar,  PAD_DEF);
 1626              		.loc 1 81 5 view .LVU352
 1627 0040 002E     		cmp	r6, #0
 1628 0042 0CBF     		ite	eq
 1629 0044 3746     		moveq	r7, r6
 1630 0046 0727     		movne	r7, #7
 1631 0048 4FF00001 		mov	r1, #0	@ movhi
 1632 004c 0CBF     		ite	eq
 1633 004e B046     		moveq	r8, r6
 1634 0050 4FF01F08 		movne	r8, #31
 1635 0054 67F30201 		bfi	r1, r7, #0, #3
 1636 0058 2068     		ldr	r0, [r4]
 1637 005a 68F3C701 		bfi	r1, r8, #3, #5
 1638 005e 68F30C21 		bfi	r1, r8, #8, #5
 1639 0062 67F34F31 		bfi	r1, r7, #13, #3
 1640 0066 1030     		adds	r0, r0, #16
  81:Drivers/lvgl/src/extra/themes/mono/lv_theme_mono.c ****     lv_style_set_width(&styles->scrollbar,  PAD_DEF);
 1641              		.loc 1 81 5 is_stmt 0 discriminator 4 view .LVU353
 1642 0068 FFF7FEFF 		bl	lv_style_set_bg_color
ARM GAS  /var/folders/lp/x54gwt890xv47sdkqj1k04q40000gn/T//cc6ygGfE.s 			page 44


 1643              	.LVL166:
  82:Drivers/lvgl/src/extra/themes/mono/lv_theme_mono.c **** 
 1644              		.loc 1 82 5 is_stmt 1 view .LVU354
 1645 006c 2068     		ldr	r0, [r4]
 1646 006e 0421     		movs	r1, #4
 1647 0070 1030     		adds	r0, r0, #16
 1648 0072 FFF7FEFF 		bl	lv_style_set_width
 1649              	.LVL167:
  84:Drivers/lvgl/src/extra/themes/mono/lv_theme_mono.c ****     lv_style_set_bg_opa(&styles->scr, LV_OPA_COVER);
 1650              		.loc 1 84 5 view .LVU355
 1651              	.LBB190:
 1652              	.LBB191:
 496:Drivers/lvgl/src/extra/themes/mono/lv_theme_mono.c ****         lv_style_reset(style);
 1653              		.loc 1 496 7 is_stmt 0 view .LVU356
 1654 0076 2B78     		ldrb	r3, [r5]	@ zero_extendqisi2
 1655              	.LBE191:
 1656              	.LBE190:
  84:Drivers/lvgl/src/extra/themes/mono/lv_theme_mono.c ****     lv_style_set_bg_opa(&styles->scr, LV_OPA_COVER);
 1657              		.loc 1 84 5 view .LVU357
 1658 0078 2068     		ldr	r0, [r4]
 1659              	.LVL168:
 1660              	.LBB194:
 1661              	.LBI190:
 494:Drivers/lvgl/src/extra/themes/mono/lv_theme_mono.c **** {
 1662              		.loc 1 494 13 is_stmt 1 view .LVU358
 1663              	.LBB192:
 496:Drivers/lvgl/src/extra/themes/mono/lv_theme_mono.c ****         lv_style_reset(style);
 1664              		.loc 1 496 5 view .LVU359
 496:Drivers/lvgl/src/extra/themes/mono/lv_theme_mono.c ****         lv_style_reset(style);
 1665              		.loc 1 496 7 is_stmt 0 view .LVU360
 1666 007a 002B     		cmp	r3, #0
 1667 007c 00F04E82 		beq	.L79
 1668              		.loc 1 497 9 is_stmt 1 view .LVU361
 1669 0080 FFF7FEFF 		bl	lv_style_reset
 1670              	.LVL169:
 1671              	.L80:
 1672              		.loc 1 497 9 is_stmt 0 view .LVU362
 1673              	.LBE192:
 1674              	.LBE194:
  85:Drivers/lvgl/src/extra/themes/mono/lv_theme_mono.c ****     lv_style_set_bg_color(&styles->scr, COLOR_BG);
 1675              		.loc 1 85 5 is_stmt 1 view .LVU363
 1676 0084 2068     		ldr	r0, [r4]
 1677 0086 FF21     		movs	r1, #255
 1678 0088 FFF7FEFF 		bl	lv_style_set_bg_opa
 1679              	.LVL170:
  86:Drivers/lvgl/src/extra/themes/mono/lv_theme_mono.c ****     lv_style_set_text_color(&styles->scr, COLOR_FG);
 1680              		.loc 1 86 5 view .LVU364
 1681 008c 2068     		ldr	r0, [r4]
 1682 008e 002E     		cmp	r6, #0
 1683 0090 00F03E82 		beq	.L81
  86:Drivers/lvgl/src/extra/themes/mono/lv_theme_mono.c ****     lv_style_set_text_color(&styles->scr, COLOR_FG);
 1684              		.loc 1 86 5 is_stmt 0 discriminator 4 view .LVU365
 1685 0094 4FF00001 		mov	r1, #0	@ movhi
 1686 0098 FFF7FEFF 		bl	lv_style_set_bg_color
 1687              	.LVL171:
  87:Drivers/lvgl/src/extra/themes/mono/lv_theme_mono.c ****     lv_style_set_pad_row(&styles->scr, PAD_DEF);
 1688              		.loc 1 87 5 is_stmt 1 view .LVU366
ARM GAS  /var/folders/lp/x54gwt890xv47sdkqj1k04q40000gn/T//cc6ygGfE.s 			page 45


 1689 009c 2068     		ldr	r0, [r4]
 1690              	.LBB195:
 1691              	.LBI195:
 1692              		.file 2 "Drivers/lvgl/src/extra/themes/mono/../../../../src/hal/../draw/../misc/lv_color.h"
   1:Drivers/lvgl/src/extra/themes/mono/../../../../src/hal/../draw/../misc/lv_color.h **** /**
   2:Drivers/lvgl/src/extra/themes/mono/../../../../src/hal/../draw/../misc/lv_color.h ****  * @file lv_color.h
   3:Drivers/lvgl/src/extra/themes/mono/../../../../src/hal/../draw/../misc/lv_color.h ****  *
   4:Drivers/lvgl/src/extra/themes/mono/../../../../src/hal/../draw/../misc/lv_color.h ****  */
   5:Drivers/lvgl/src/extra/themes/mono/../../../../src/hal/../draw/../misc/lv_color.h **** 
   6:Drivers/lvgl/src/extra/themes/mono/../../../../src/hal/../draw/../misc/lv_color.h **** #ifndef LV_COLOR_H
   7:Drivers/lvgl/src/extra/themes/mono/../../../../src/hal/../draw/../misc/lv_color.h **** #define LV_COLOR_H
   8:Drivers/lvgl/src/extra/themes/mono/../../../../src/hal/../draw/../misc/lv_color.h **** 
   9:Drivers/lvgl/src/extra/themes/mono/../../../../src/hal/../draw/../misc/lv_color.h **** #ifdef __cplusplus
  10:Drivers/lvgl/src/extra/themes/mono/../../../../src/hal/../draw/../misc/lv_color.h **** extern "C" {
  11:Drivers/lvgl/src/extra/themes/mono/../../../../src/hal/../draw/../misc/lv_color.h **** #endif
  12:Drivers/lvgl/src/extra/themes/mono/../../../../src/hal/../draw/../misc/lv_color.h **** 
  13:Drivers/lvgl/src/extra/themes/mono/../../../../src/hal/../draw/../misc/lv_color.h **** /*********************
  14:Drivers/lvgl/src/extra/themes/mono/../../../../src/hal/../draw/../misc/lv_color.h ****  *      INCLUDES
  15:Drivers/lvgl/src/extra/themes/mono/../../../../src/hal/../draw/../misc/lv_color.h ****  *********************/
  16:Drivers/lvgl/src/extra/themes/mono/../../../../src/hal/../draw/../misc/lv_color.h **** #include "../lv_conf_internal.h"
  17:Drivers/lvgl/src/extra/themes/mono/../../../../src/hal/../draw/../misc/lv_color.h **** #include "lv_assert.h"
  18:Drivers/lvgl/src/extra/themes/mono/../../../../src/hal/../draw/../misc/lv_color.h **** #include "lv_math.h"
  19:Drivers/lvgl/src/extra/themes/mono/../../../../src/hal/../draw/../misc/lv_color.h **** #include "lv_types.h"
  20:Drivers/lvgl/src/extra/themes/mono/../../../../src/hal/../draw/../misc/lv_color.h **** 
  21:Drivers/lvgl/src/extra/themes/mono/../../../../src/hal/../draw/../misc/lv_color.h **** /*Error checking*/
  22:Drivers/lvgl/src/extra/themes/mono/../../../../src/hal/../draw/../misc/lv_color.h **** #if LV_COLOR_DEPTH == 24
  23:Drivers/lvgl/src/extra/themes/mono/../../../../src/hal/../draw/../misc/lv_color.h **** #error "LV_COLOR_DEPTH 24 is deprecated. Use LV_COLOR_DEPTH 32 instead (lv_conf.h)"
  24:Drivers/lvgl/src/extra/themes/mono/../../../../src/hal/../draw/../misc/lv_color.h **** #endif
  25:Drivers/lvgl/src/extra/themes/mono/../../../../src/hal/../draw/../misc/lv_color.h **** 
  26:Drivers/lvgl/src/extra/themes/mono/../../../../src/hal/../draw/../misc/lv_color.h **** #if LV_COLOR_DEPTH != 16 && LV_COLOR_16_SWAP != 0
  27:Drivers/lvgl/src/extra/themes/mono/../../../../src/hal/../draw/../misc/lv_color.h **** #error "LV_COLOR_16_SWAP requires LV_COLOR_DEPTH == 16. Set it in lv_conf.h"
  28:Drivers/lvgl/src/extra/themes/mono/../../../../src/hal/../draw/../misc/lv_color.h **** #endif
  29:Drivers/lvgl/src/extra/themes/mono/../../../../src/hal/../draw/../misc/lv_color.h **** 
  30:Drivers/lvgl/src/extra/themes/mono/../../../../src/hal/../draw/../misc/lv_color.h **** #include <stdint.h>
  31:Drivers/lvgl/src/extra/themes/mono/../../../../src/hal/../draw/../misc/lv_color.h **** 
  32:Drivers/lvgl/src/extra/themes/mono/../../../../src/hal/../draw/../misc/lv_color.h **** /*********************
  33:Drivers/lvgl/src/extra/themes/mono/../../../../src/hal/../draw/../misc/lv_color.h ****  *      DEFINES
  34:Drivers/lvgl/src/extra/themes/mono/../../../../src/hal/../draw/../misc/lv_color.h ****  *********************/
  35:Drivers/lvgl/src/extra/themes/mono/../../../../src/hal/../draw/../misc/lv_color.h **** LV_EXPORT_CONST_INT(LV_COLOR_DEPTH);
  36:Drivers/lvgl/src/extra/themes/mono/../../../../src/hal/../draw/../misc/lv_color.h **** LV_EXPORT_CONST_INT(LV_COLOR_16_SWAP);
  37:Drivers/lvgl/src/extra/themes/mono/../../../../src/hal/../draw/../misc/lv_color.h **** 
  38:Drivers/lvgl/src/extra/themes/mono/../../../../src/hal/../draw/../misc/lv_color.h **** /**
  39:Drivers/lvgl/src/extra/themes/mono/../../../../src/hal/../draw/../misc/lv_color.h ****  * Opacity percentages.
  40:Drivers/lvgl/src/extra/themes/mono/../../../../src/hal/../draw/../misc/lv_color.h ****  */
  41:Drivers/lvgl/src/extra/themes/mono/../../../../src/hal/../draw/../misc/lv_color.h **** enum {
  42:Drivers/lvgl/src/extra/themes/mono/../../../../src/hal/../draw/../misc/lv_color.h ****     LV_OPA_TRANSP = 0,
  43:Drivers/lvgl/src/extra/themes/mono/../../../../src/hal/../draw/../misc/lv_color.h ****     LV_OPA_0      = 0,
  44:Drivers/lvgl/src/extra/themes/mono/../../../../src/hal/../draw/../misc/lv_color.h ****     LV_OPA_10     = 25,
  45:Drivers/lvgl/src/extra/themes/mono/../../../../src/hal/../draw/../misc/lv_color.h ****     LV_OPA_20     = 51,
  46:Drivers/lvgl/src/extra/themes/mono/../../../../src/hal/../draw/../misc/lv_color.h ****     LV_OPA_30     = 76,
  47:Drivers/lvgl/src/extra/themes/mono/../../../../src/hal/../draw/../misc/lv_color.h ****     LV_OPA_40     = 102,
  48:Drivers/lvgl/src/extra/themes/mono/../../../../src/hal/../draw/../misc/lv_color.h ****     LV_OPA_50     = 127,
  49:Drivers/lvgl/src/extra/themes/mono/../../../../src/hal/../draw/../misc/lv_color.h ****     LV_OPA_60     = 153,
  50:Drivers/lvgl/src/extra/themes/mono/../../../../src/hal/../draw/../misc/lv_color.h ****     LV_OPA_70     = 178,
  51:Drivers/lvgl/src/extra/themes/mono/../../../../src/hal/../draw/../misc/lv_color.h ****     LV_OPA_80     = 204,
  52:Drivers/lvgl/src/extra/themes/mono/../../../../src/hal/../draw/../misc/lv_color.h ****     LV_OPA_90     = 229,
  53:Drivers/lvgl/src/extra/themes/mono/../../../../src/hal/../draw/../misc/lv_color.h ****     LV_OPA_100    = 255,
ARM GAS  /var/folders/lp/x54gwt890xv47sdkqj1k04q40000gn/T//cc6ygGfE.s 			page 46


  54:Drivers/lvgl/src/extra/themes/mono/../../../../src/hal/../draw/../misc/lv_color.h ****     LV_OPA_COVER  = 255,
  55:Drivers/lvgl/src/extra/themes/mono/../../../../src/hal/../draw/../misc/lv_color.h **** };
  56:Drivers/lvgl/src/extra/themes/mono/../../../../src/hal/../draw/../misc/lv_color.h **** 
  57:Drivers/lvgl/src/extra/themes/mono/../../../../src/hal/../draw/../misc/lv_color.h **** #define LV_OPA_MIN 2    /*Opacities below this will be transparent*/
  58:Drivers/lvgl/src/extra/themes/mono/../../../../src/hal/../draw/../misc/lv_color.h **** #define LV_OPA_MAX 253  /*Opacities above this will fully cover*/
  59:Drivers/lvgl/src/extra/themes/mono/../../../../src/hal/../draw/../misc/lv_color.h **** 
  60:Drivers/lvgl/src/extra/themes/mono/../../../../src/hal/../draw/../misc/lv_color.h **** #if LV_COLOR_DEPTH == 1
  61:Drivers/lvgl/src/extra/themes/mono/../../../../src/hal/../draw/../misc/lv_color.h **** #define LV_COLOR_SIZE 8
  62:Drivers/lvgl/src/extra/themes/mono/../../../../src/hal/../draw/../misc/lv_color.h **** #elif LV_COLOR_DEPTH == 8
  63:Drivers/lvgl/src/extra/themes/mono/../../../../src/hal/../draw/../misc/lv_color.h **** #define LV_COLOR_SIZE 8
  64:Drivers/lvgl/src/extra/themes/mono/../../../../src/hal/../draw/../misc/lv_color.h **** #elif LV_COLOR_DEPTH == 16
  65:Drivers/lvgl/src/extra/themes/mono/../../../../src/hal/../draw/../misc/lv_color.h **** #define LV_COLOR_SIZE 16
  66:Drivers/lvgl/src/extra/themes/mono/../../../../src/hal/../draw/../misc/lv_color.h **** #elif LV_COLOR_DEPTH == 32
  67:Drivers/lvgl/src/extra/themes/mono/../../../../src/hal/../draw/../misc/lv_color.h **** #define LV_COLOR_SIZE 32
  68:Drivers/lvgl/src/extra/themes/mono/../../../../src/hal/../draw/../misc/lv_color.h **** #else
  69:Drivers/lvgl/src/extra/themes/mono/../../../../src/hal/../draw/../misc/lv_color.h **** #error "Invalid LV_COLOR_DEPTH in lv_conf.h! Set it to 1, 8, 16 or 32!"
  70:Drivers/lvgl/src/extra/themes/mono/../../../../src/hal/../draw/../misc/lv_color.h **** #endif
  71:Drivers/lvgl/src/extra/themes/mono/../../../../src/hal/../draw/../misc/lv_color.h **** 
  72:Drivers/lvgl/src/extra/themes/mono/../../../../src/hal/../draw/../misc/lv_color.h **** #if defined(__cplusplus) && !defined(_LV_COLOR_HAS_MODERN_CPP)
  73:Drivers/lvgl/src/extra/themes/mono/../../../../src/hal/../draw/../misc/lv_color.h **** /**
  74:Drivers/lvgl/src/extra/themes/mono/../../../../src/hal/../draw/../misc/lv_color.h **** * MSVC compiler's definition of the __cplusplus indicating 199711L regardless to C++ standard versi
  75:Drivers/lvgl/src/extra/themes/mono/../../../../src/hal/../draw/../misc/lv_color.h **** * see https://devblogs.microsoft.com/cppblog/msvc-now-correctly-reports-cplusplus
  76:Drivers/lvgl/src/extra/themes/mono/../../../../src/hal/../draw/../misc/lv_color.h **** * so we use _MSC_VER macro instead of __cplusplus
  77:Drivers/lvgl/src/extra/themes/mono/../../../../src/hal/../draw/../misc/lv_color.h **** */
  78:Drivers/lvgl/src/extra/themes/mono/../../../../src/hal/../draw/../misc/lv_color.h **** #ifdef _MSC_VER
  79:Drivers/lvgl/src/extra/themes/mono/../../../../src/hal/../draw/../misc/lv_color.h **** #if _MSC_VER >= 1900 /*Visual Studio 2015*/
  80:Drivers/lvgl/src/extra/themes/mono/../../../../src/hal/../draw/../misc/lv_color.h **** #define _LV_COLOR_HAS_MODERN_CPP 1
  81:Drivers/lvgl/src/extra/themes/mono/../../../../src/hal/../draw/../misc/lv_color.h **** #endif
  82:Drivers/lvgl/src/extra/themes/mono/../../../../src/hal/../draw/../misc/lv_color.h **** #else
  83:Drivers/lvgl/src/extra/themes/mono/../../../../src/hal/../draw/../misc/lv_color.h **** #if __cplusplus >= 201103L
  84:Drivers/lvgl/src/extra/themes/mono/../../../../src/hal/../draw/../misc/lv_color.h **** #define _LV_COLOR_HAS_MODERN_CPP 1
  85:Drivers/lvgl/src/extra/themes/mono/../../../../src/hal/../draw/../misc/lv_color.h **** #endif
  86:Drivers/lvgl/src/extra/themes/mono/../../../../src/hal/../draw/../misc/lv_color.h **** #endif
  87:Drivers/lvgl/src/extra/themes/mono/../../../../src/hal/../draw/../misc/lv_color.h **** #endif /*__cplusplus*/
  88:Drivers/lvgl/src/extra/themes/mono/../../../../src/hal/../draw/../misc/lv_color.h **** 
  89:Drivers/lvgl/src/extra/themes/mono/../../../../src/hal/../draw/../misc/lv_color.h **** #ifndef _LV_COLOR_HAS_MODERN_CPP
  90:Drivers/lvgl/src/extra/themes/mono/../../../../src/hal/../draw/../misc/lv_color.h **** #define _LV_COLOR_HAS_MODERN_CPP 0
  91:Drivers/lvgl/src/extra/themes/mono/../../../../src/hal/../draw/../misc/lv_color.h **** #endif
  92:Drivers/lvgl/src/extra/themes/mono/../../../../src/hal/../draw/../misc/lv_color.h **** 
  93:Drivers/lvgl/src/extra/themes/mono/../../../../src/hal/../draw/../misc/lv_color.h **** #if _LV_COLOR_HAS_MODERN_CPP
  94:Drivers/lvgl/src/extra/themes/mono/../../../../src/hal/../draw/../misc/lv_color.h **** /*Fix msvc compiler error C4576 inside C++ code*/
  95:Drivers/lvgl/src/extra/themes/mono/../../../../src/hal/../draw/../misc/lv_color.h **** #define _LV_COLOR_MAKE_TYPE_HELPER lv_color_t
  96:Drivers/lvgl/src/extra/themes/mono/../../../../src/hal/../draw/../misc/lv_color.h **** #else
  97:Drivers/lvgl/src/extra/themes/mono/../../../../src/hal/../draw/../misc/lv_color.h **** #define _LV_COLOR_MAKE_TYPE_HELPER (lv_color_t)
  98:Drivers/lvgl/src/extra/themes/mono/../../../../src/hal/../draw/../misc/lv_color.h **** #endif
  99:Drivers/lvgl/src/extra/themes/mono/../../../../src/hal/../draw/../misc/lv_color.h **** 
 100:Drivers/lvgl/src/extra/themes/mono/../../../../src/hal/../draw/../misc/lv_color.h **** /*---------------------------------------
 101:Drivers/lvgl/src/extra/themes/mono/../../../../src/hal/../draw/../misc/lv_color.h ****  * Macros for all existing color depths
 102:Drivers/lvgl/src/extra/themes/mono/../../../../src/hal/../draw/../misc/lv_color.h ****  * to set/get values of the color channels
 103:Drivers/lvgl/src/extra/themes/mono/../../../../src/hal/../draw/../misc/lv_color.h ****  *------------------------------------------*/
 104:Drivers/lvgl/src/extra/themes/mono/../../../../src/hal/../draw/../misc/lv_color.h **** # define LV_COLOR_SET_R1(c, v) (c).ch.red = (uint8_t)((v) & 0x1)
 105:Drivers/lvgl/src/extra/themes/mono/../../../../src/hal/../draw/../misc/lv_color.h **** # define LV_COLOR_SET_G1(c, v) (c).ch.green = (uint8_t)((v) & 0x1)
 106:Drivers/lvgl/src/extra/themes/mono/../../../../src/hal/../draw/../misc/lv_color.h **** # define LV_COLOR_SET_B1(c, v) (c).ch.blue = (uint8_t)((v) & 0x1)
 107:Drivers/lvgl/src/extra/themes/mono/../../../../src/hal/../draw/../misc/lv_color.h **** # define LV_COLOR_SET_A1(c, v) do {} while(0)
 108:Drivers/lvgl/src/extra/themes/mono/../../../../src/hal/../draw/../misc/lv_color.h **** 
 109:Drivers/lvgl/src/extra/themes/mono/../../../../src/hal/../draw/../misc/lv_color.h **** # define LV_COLOR_GET_R1(c) (c).ch.red
 110:Drivers/lvgl/src/extra/themes/mono/../../../../src/hal/../draw/../misc/lv_color.h **** # define LV_COLOR_GET_G1(c) (c).ch.green
ARM GAS  /var/folders/lp/x54gwt890xv47sdkqj1k04q40000gn/T//cc6ygGfE.s 			page 47


 111:Drivers/lvgl/src/extra/themes/mono/../../../../src/hal/../draw/../misc/lv_color.h **** # define LV_COLOR_GET_B1(c) (c).ch.blue
 112:Drivers/lvgl/src/extra/themes/mono/../../../../src/hal/../draw/../misc/lv_color.h **** # define LV_COLOR_GET_A1(c) 0xFF
 113:Drivers/lvgl/src/extra/themes/mono/../../../../src/hal/../draw/../misc/lv_color.h **** 
 114:Drivers/lvgl/src/extra/themes/mono/../../../../src/hal/../draw/../misc/lv_color.h **** # define _LV_COLOR_ZERO_INITIALIZER1 {0x00}
 115:Drivers/lvgl/src/extra/themes/mono/../../../../src/hal/../draw/../misc/lv_color.h **** # define LV_COLOR_MAKE1(r8, g8, b8)  {(uint8_t)((b8 >> 7) | (g8 >> 7) | (r8 >> 7))}
 116:Drivers/lvgl/src/extra/themes/mono/../../../../src/hal/../draw/../misc/lv_color.h **** 
 117:Drivers/lvgl/src/extra/themes/mono/../../../../src/hal/../draw/../misc/lv_color.h **** # define LV_COLOR_SET_R8(c, v) (c).ch.red = (uint8_t)((v) & 0x7U)
 118:Drivers/lvgl/src/extra/themes/mono/../../../../src/hal/../draw/../misc/lv_color.h **** # define LV_COLOR_SET_G8(c, v) (c).ch.green = (uint8_t)((v) & 0x7U)
 119:Drivers/lvgl/src/extra/themes/mono/../../../../src/hal/../draw/../misc/lv_color.h **** # define LV_COLOR_SET_B8(c, v) (c).ch.blue = (uint8_t)((v) & 0x3U)
 120:Drivers/lvgl/src/extra/themes/mono/../../../../src/hal/../draw/../misc/lv_color.h **** # define LV_COLOR_SET_A8(c, v) do {} while(0)
 121:Drivers/lvgl/src/extra/themes/mono/../../../../src/hal/../draw/../misc/lv_color.h **** 
 122:Drivers/lvgl/src/extra/themes/mono/../../../../src/hal/../draw/../misc/lv_color.h **** # define LV_COLOR_GET_R8(c) (c).ch.red
 123:Drivers/lvgl/src/extra/themes/mono/../../../../src/hal/../draw/../misc/lv_color.h **** # define LV_COLOR_GET_G8(c) (c).ch.green
 124:Drivers/lvgl/src/extra/themes/mono/../../../../src/hal/../draw/../misc/lv_color.h **** # define LV_COLOR_GET_B8(c) (c).ch.blue
 125:Drivers/lvgl/src/extra/themes/mono/../../../../src/hal/../draw/../misc/lv_color.h **** # define LV_COLOR_GET_A8(c) 0xFF
 126:Drivers/lvgl/src/extra/themes/mono/../../../../src/hal/../draw/../misc/lv_color.h **** 
 127:Drivers/lvgl/src/extra/themes/mono/../../../../src/hal/../draw/../misc/lv_color.h **** # define _LV_COLOR_ZERO_INITIALIZER8 {{0x00, 0x00, 0x00}}
 128:Drivers/lvgl/src/extra/themes/mono/../../../../src/hal/../draw/../misc/lv_color.h **** # define LV_COLOR_MAKE8(r8, g8, b8) {{(uint8_t)((b8 >> 6) & 0x3U), (uint8_t)((g8 >> 5) & 0x7U), (ui
 129:Drivers/lvgl/src/extra/themes/mono/../../../../src/hal/../draw/../misc/lv_color.h **** 
 130:Drivers/lvgl/src/extra/themes/mono/../../../../src/hal/../draw/../misc/lv_color.h **** # define LV_COLOR_SET_R16(c, v) (c).ch.red = (uint8_t)((v) & 0x1FU)
 131:Drivers/lvgl/src/extra/themes/mono/../../../../src/hal/../draw/../misc/lv_color.h **** #if LV_COLOR_16_SWAP == 0
 132:Drivers/lvgl/src/extra/themes/mono/../../../../src/hal/../draw/../misc/lv_color.h **** # define LV_COLOR_SET_G16(c, v) (c).ch.green = (uint8_t)((v) & 0x3FU)
 133:Drivers/lvgl/src/extra/themes/mono/../../../../src/hal/../draw/../misc/lv_color.h **** #else
 134:Drivers/lvgl/src/extra/themes/mono/../../../../src/hal/../draw/../misc/lv_color.h **** # define LV_COLOR_SET_G16(c, v) {(c).ch.green_h = (uint8_t)(((v) >> 3) & 0x7); (c).ch.green_l = (ui
 135:Drivers/lvgl/src/extra/themes/mono/../../../../src/hal/../draw/../misc/lv_color.h **** #endif
 136:Drivers/lvgl/src/extra/themes/mono/../../../../src/hal/../draw/../misc/lv_color.h **** # define LV_COLOR_SET_B16(c, v) (c).ch.blue = (uint8_t)((v) & 0x1FU)
 137:Drivers/lvgl/src/extra/themes/mono/../../../../src/hal/../draw/../misc/lv_color.h **** # define LV_COLOR_SET_A16(c, v) do {} while(0)
 138:Drivers/lvgl/src/extra/themes/mono/../../../../src/hal/../draw/../misc/lv_color.h **** 
 139:Drivers/lvgl/src/extra/themes/mono/../../../../src/hal/../draw/../misc/lv_color.h **** # define LV_COLOR_GET_R16(c) (c).ch.red
 140:Drivers/lvgl/src/extra/themes/mono/../../../../src/hal/../draw/../misc/lv_color.h **** #if LV_COLOR_16_SWAP == 0
 141:Drivers/lvgl/src/extra/themes/mono/../../../../src/hal/../draw/../misc/lv_color.h **** # define LV_COLOR_GET_G16(c) (c).ch.green
 142:Drivers/lvgl/src/extra/themes/mono/../../../../src/hal/../draw/../misc/lv_color.h **** #else
 143:Drivers/lvgl/src/extra/themes/mono/../../../../src/hal/../draw/../misc/lv_color.h **** # define LV_COLOR_GET_G16(c) (((c).ch.green_h << 3) + (c).ch.green_l)
 144:Drivers/lvgl/src/extra/themes/mono/../../../../src/hal/../draw/../misc/lv_color.h **** #endif
 145:Drivers/lvgl/src/extra/themes/mono/../../../../src/hal/../draw/../misc/lv_color.h **** # define LV_COLOR_GET_B16(c) (c).ch.blue
 146:Drivers/lvgl/src/extra/themes/mono/../../../../src/hal/../draw/../misc/lv_color.h **** # define LV_COLOR_GET_A16(c) 0xFF
 147:Drivers/lvgl/src/extra/themes/mono/../../../../src/hal/../draw/../misc/lv_color.h **** 
 148:Drivers/lvgl/src/extra/themes/mono/../../../../src/hal/../draw/../misc/lv_color.h **** #if LV_COLOR_16_SWAP == 0
 149:Drivers/lvgl/src/extra/themes/mono/../../../../src/hal/../draw/../misc/lv_color.h **** # define _LV_COLOR_ZERO_INITIALIZER16  {{0x00, 0x00, 0x00}}
 150:Drivers/lvgl/src/extra/themes/mono/../../../../src/hal/../draw/../misc/lv_color.h **** # define LV_COLOR_MAKE16(r8, g8, b8) {{(uint8_t)((b8 >> 3) & 0x1FU), (uint8_t)((g8 >> 2) & 0x3FU), 
 151:Drivers/lvgl/src/extra/themes/mono/../../../../src/hal/../draw/../misc/lv_color.h **** #else
 152:Drivers/lvgl/src/extra/themes/mono/../../../../src/hal/../draw/../misc/lv_color.h **** # define _LV_COLOR_ZERO_INITIALIZER16 {{0x00, 0x00, 0x00, 0x00}}
 153:Drivers/lvgl/src/extra/themes/mono/../../../../src/hal/../draw/../misc/lv_color.h **** # define LV_COLOR_MAKE16(r8, g8, b8) {{(uint8_t)((g8 >> 5) & 0x7U), (uint8_t)((r8 >> 3) & 0x1FU), (
 154:Drivers/lvgl/src/extra/themes/mono/../../../../src/hal/../draw/../misc/lv_color.h **** #endif
 155:Drivers/lvgl/src/extra/themes/mono/../../../../src/hal/../draw/../misc/lv_color.h **** 
 156:Drivers/lvgl/src/extra/themes/mono/../../../../src/hal/../draw/../misc/lv_color.h **** # define LV_COLOR_SET_R32(c, v) (c).ch.red = (uint8_t)((v) & 0xFF)
 157:Drivers/lvgl/src/extra/themes/mono/../../../../src/hal/../draw/../misc/lv_color.h **** # define LV_COLOR_SET_G32(c, v) (c).ch.green = (uint8_t)((v) & 0xFF)
 158:Drivers/lvgl/src/extra/themes/mono/../../../../src/hal/../draw/../misc/lv_color.h **** # define LV_COLOR_SET_B32(c, v) (c).ch.blue = (uint8_t)((v) & 0xFF)
 159:Drivers/lvgl/src/extra/themes/mono/../../../../src/hal/../draw/../misc/lv_color.h **** # define LV_COLOR_SET_A32(c, v) (c).ch.alpha = (uint8_t)((v) & 0xFF)
 160:Drivers/lvgl/src/extra/themes/mono/../../../../src/hal/../draw/../misc/lv_color.h **** 
 161:Drivers/lvgl/src/extra/themes/mono/../../../../src/hal/../draw/../misc/lv_color.h **** # define LV_COLOR_GET_R32(c) (c).ch.red
 162:Drivers/lvgl/src/extra/themes/mono/../../../../src/hal/../draw/../misc/lv_color.h **** # define LV_COLOR_GET_G32(c) (c).ch.green
 163:Drivers/lvgl/src/extra/themes/mono/../../../../src/hal/../draw/../misc/lv_color.h **** # define LV_COLOR_GET_B32(c) (c).ch.blue
 164:Drivers/lvgl/src/extra/themes/mono/../../../../src/hal/../draw/../misc/lv_color.h **** # define LV_COLOR_GET_A32(c) (c).ch.alpha
 165:Drivers/lvgl/src/extra/themes/mono/../../../../src/hal/../draw/../misc/lv_color.h **** 
 166:Drivers/lvgl/src/extra/themes/mono/../../../../src/hal/../draw/../misc/lv_color.h **** # define _LV_COLOR_ZERO_INITIALIZER32  {{0x00, 0x00, 0x00, 0x00}}
 167:Drivers/lvgl/src/extra/themes/mono/../../../../src/hal/../draw/../misc/lv_color.h **** # define LV_COLOR_MAKE32(r8, g8, b8) {{b8, g8, r8, 0xff}} /*Fix 0xff alpha*/
ARM GAS  /var/folders/lp/x54gwt890xv47sdkqj1k04q40000gn/T//cc6ygGfE.s 			page 48


 168:Drivers/lvgl/src/extra/themes/mono/../../../../src/hal/../draw/../misc/lv_color.h **** 
 169:Drivers/lvgl/src/extra/themes/mono/../../../../src/hal/../draw/../misc/lv_color.h **** /*---------------------------------------
 170:Drivers/lvgl/src/extra/themes/mono/../../../../src/hal/../draw/../misc/lv_color.h ****  * Macros for the current color depth
 171:Drivers/lvgl/src/extra/themes/mono/../../../../src/hal/../draw/../misc/lv_color.h ****  * to set/get values of the color channels
 172:Drivers/lvgl/src/extra/themes/mono/../../../../src/hal/../draw/../misc/lv_color.h ****  *------------------------------------------*/
 173:Drivers/lvgl/src/extra/themes/mono/../../../../src/hal/../draw/../misc/lv_color.h **** #define LV_COLOR_SET_R(c, v) LV_CONCAT(LV_COLOR_SET_R, LV_COLOR_DEPTH)(c, v)
 174:Drivers/lvgl/src/extra/themes/mono/../../../../src/hal/../draw/../misc/lv_color.h **** #define LV_COLOR_SET_G(c, v) LV_CONCAT(LV_COLOR_SET_G, LV_COLOR_DEPTH)(c, v)
 175:Drivers/lvgl/src/extra/themes/mono/../../../../src/hal/../draw/../misc/lv_color.h **** #define LV_COLOR_SET_B(c, v) LV_CONCAT(LV_COLOR_SET_B, LV_COLOR_DEPTH)(c, v)
 176:Drivers/lvgl/src/extra/themes/mono/../../../../src/hal/../draw/../misc/lv_color.h **** #define LV_COLOR_SET_A(c, v) LV_CONCAT(LV_COLOR_SET_A, LV_COLOR_DEPTH)(c, v)
 177:Drivers/lvgl/src/extra/themes/mono/../../../../src/hal/../draw/../misc/lv_color.h **** 
 178:Drivers/lvgl/src/extra/themes/mono/../../../../src/hal/../draw/../misc/lv_color.h **** #define LV_COLOR_GET_R(c) LV_CONCAT(LV_COLOR_GET_R, LV_COLOR_DEPTH)(c)
 179:Drivers/lvgl/src/extra/themes/mono/../../../../src/hal/../draw/../misc/lv_color.h **** #define LV_COLOR_GET_G(c) LV_CONCAT(LV_COLOR_GET_G, LV_COLOR_DEPTH)(c)
 180:Drivers/lvgl/src/extra/themes/mono/../../../../src/hal/../draw/../misc/lv_color.h **** #define LV_COLOR_GET_B(c) LV_CONCAT(LV_COLOR_GET_B, LV_COLOR_DEPTH)(c)
 181:Drivers/lvgl/src/extra/themes/mono/../../../../src/hal/../draw/../misc/lv_color.h **** #define LV_COLOR_GET_A(c) LV_CONCAT(LV_COLOR_GET_A, LV_COLOR_DEPTH)(c)
 182:Drivers/lvgl/src/extra/themes/mono/../../../../src/hal/../draw/../misc/lv_color.h **** 
 183:Drivers/lvgl/src/extra/themes/mono/../../../../src/hal/../draw/../misc/lv_color.h **** #define _LV_COLOR_ZERO_INITIALIZER LV_CONCAT(_LV_COLOR_ZERO_INITIALIZER, LV_COLOR_DEPTH)
 184:Drivers/lvgl/src/extra/themes/mono/../../../../src/hal/../draw/../misc/lv_color.h **** #define LV_COLOR_MAKE(r8, g8, b8) LV_CONCAT(LV_COLOR_MAKE, LV_COLOR_DEPTH)(r8, g8, b8)
 185:Drivers/lvgl/src/extra/themes/mono/../../../../src/hal/../draw/../misc/lv_color.h **** 
 186:Drivers/lvgl/src/extra/themes/mono/../../../../src/hal/../draw/../misc/lv_color.h **** /**********************
 187:Drivers/lvgl/src/extra/themes/mono/../../../../src/hal/../draw/../misc/lv_color.h ****  *      TYPEDEFS
 188:Drivers/lvgl/src/extra/themes/mono/../../../../src/hal/../draw/../misc/lv_color.h ****  **********************/
 189:Drivers/lvgl/src/extra/themes/mono/../../../../src/hal/../draw/../misc/lv_color.h **** 
 190:Drivers/lvgl/src/extra/themes/mono/../../../../src/hal/../draw/../misc/lv_color.h **** typedef union {
 191:Drivers/lvgl/src/extra/themes/mono/../../../../src/hal/../draw/../misc/lv_color.h ****     uint8_t full; /*must be declared first to set all bits of byte via initializer list*/
 192:Drivers/lvgl/src/extra/themes/mono/../../../../src/hal/../draw/../misc/lv_color.h ****     union {
 193:Drivers/lvgl/src/extra/themes/mono/../../../../src/hal/../draw/../misc/lv_color.h ****         uint8_t blue : 1;
 194:Drivers/lvgl/src/extra/themes/mono/../../../../src/hal/../draw/../misc/lv_color.h ****         uint8_t green : 1;
 195:Drivers/lvgl/src/extra/themes/mono/../../../../src/hal/../draw/../misc/lv_color.h ****         uint8_t red : 1;
 196:Drivers/lvgl/src/extra/themes/mono/../../../../src/hal/../draw/../misc/lv_color.h ****     } ch;
 197:Drivers/lvgl/src/extra/themes/mono/../../../../src/hal/../draw/../misc/lv_color.h **** } lv_color1_t;
 198:Drivers/lvgl/src/extra/themes/mono/../../../../src/hal/../draw/../misc/lv_color.h **** 
 199:Drivers/lvgl/src/extra/themes/mono/../../../../src/hal/../draw/../misc/lv_color.h **** typedef union {
 200:Drivers/lvgl/src/extra/themes/mono/../../../../src/hal/../draw/../misc/lv_color.h ****     struct {
 201:Drivers/lvgl/src/extra/themes/mono/../../../../src/hal/../draw/../misc/lv_color.h ****         uint8_t blue : 2;
 202:Drivers/lvgl/src/extra/themes/mono/../../../../src/hal/../draw/../misc/lv_color.h ****         uint8_t green : 3;
 203:Drivers/lvgl/src/extra/themes/mono/../../../../src/hal/../draw/../misc/lv_color.h ****         uint8_t red : 3;
 204:Drivers/lvgl/src/extra/themes/mono/../../../../src/hal/../draw/../misc/lv_color.h ****     } ch;
 205:Drivers/lvgl/src/extra/themes/mono/../../../../src/hal/../draw/../misc/lv_color.h ****     uint8_t full;
 206:Drivers/lvgl/src/extra/themes/mono/../../../../src/hal/../draw/../misc/lv_color.h **** } lv_color8_t;
 207:Drivers/lvgl/src/extra/themes/mono/../../../../src/hal/../draw/../misc/lv_color.h **** 
 208:Drivers/lvgl/src/extra/themes/mono/../../../../src/hal/../draw/../misc/lv_color.h **** typedef union {
 209:Drivers/lvgl/src/extra/themes/mono/../../../../src/hal/../draw/../misc/lv_color.h ****     struct {
 210:Drivers/lvgl/src/extra/themes/mono/../../../../src/hal/../draw/../misc/lv_color.h **** #if LV_COLOR_16_SWAP == 0
 211:Drivers/lvgl/src/extra/themes/mono/../../../../src/hal/../draw/../misc/lv_color.h ****         uint16_t blue : 5;
 212:Drivers/lvgl/src/extra/themes/mono/../../../../src/hal/../draw/../misc/lv_color.h ****         uint16_t green : 6;
 213:Drivers/lvgl/src/extra/themes/mono/../../../../src/hal/../draw/../misc/lv_color.h ****         uint16_t red : 5;
 214:Drivers/lvgl/src/extra/themes/mono/../../../../src/hal/../draw/../misc/lv_color.h **** #else
 215:Drivers/lvgl/src/extra/themes/mono/../../../../src/hal/../draw/../misc/lv_color.h ****         uint16_t green_h : 3;
 216:Drivers/lvgl/src/extra/themes/mono/../../../../src/hal/../draw/../misc/lv_color.h ****         uint16_t red : 5;
 217:Drivers/lvgl/src/extra/themes/mono/../../../../src/hal/../draw/../misc/lv_color.h ****         uint16_t blue : 5;
 218:Drivers/lvgl/src/extra/themes/mono/../../../../src/hal/../draw/../misc/lv_color.h ****         uint16_t green_l : 3;
 219:Drivers/lvgl/src/extra/themes/mono/../../../../src/hal/../draw/../misc/lv_color.h **** #endif
 220:Drivers/lvgl/src/extra/themes/mono/../../../../src/hal/../draw/../misc/lv_color.h ****     } ch;
 221:Drivers/lvgl/src/extra/themes/mono/../../../../src/hal/../draw/../misc/lv_color.h ****     uint16_t full;
 222:Drivers/lvgl/src/extra/themes/mono/../../../../src/hal/../draw/../misc/lv_color.h **** } lv_color16_t;
 223:Drivers/lvgl/src/extra/themes/mono/../../../../src/hal/../draw/../misc/lv_color.h **** 
 224:Drivers/lvgl/src/extra/themes/mono/../../../../src/hal/../draw/../misc/lv_color.h **** typedef union {
ARM GAS  /var/folders/lp/x54gwt890xv47sdkqj1k04q40000gn/T//cc6ygGfE.s 			page 49


 225:Drivers/lvgl/src/extra/themes/mono/../../../../src/hal/../draw/../misc/lv_color.h ****     struct {
 226:Drivers/lvgl/src/extra/themes/mono/../../../../src/hal/../draw/../misc/lv_color.h ****         uint8_t blue;
 227:Drivers/lvgl/src/extra/themes/mono/../../../../src/hal/../draw/../misc/lv_color.h ****         uint8_t green;
 228:Drivers/lvgl/src/extra/themes/mono/../../../../src/hal/../draw/../misc/lv_color.h ****         uint8_t red;
 229:Drivers/lvgl/src/extra/themes/mono/../../../../src/hal/../draw/../misc/lv_color.h ****         uint8_t alpha;
 230:Drivers/lvgl/src/extra/themes/mono/../../../../src/hal/../draw/../misc/lv_color.h ****     } ch;
 231:Drivers/lvgl/src/extra/themes/mono/../../../../src/hal/../draw/../misc/lv_color.h ****     uint32_t full;
 232:Drivers/lvgl/src/extra/themes/mono/../../../../src/hal/../draw/../misc/lv_color.h **** } lv_color32_t;
 233:Drivers/lvgl/src/extra/themes/mono/../../../../src/hal/../draw/../misc/lv_color.h **** 
 234:Drivers/lvgl/src/extra/themes/mono/../../../../src/hal/../draw/../misc/lv_color.h **** typedef LV_CONCAT3(uint, LV_COLOR_SIZE, _t) lv_color_int_t;
 235:Drivers/lvgl/src/extra/themes/mono/../../../../src/hal/../draw/../misc/lv_color.h **** typedef LV_CONCAT3(lv_color, LV_COLOR_DEPTH, _t) lv_color_t;
 236:Drivers/lvgl/src/extra/themes/mono/../../../../src/hal/../draw/../misc/lv_color.h **** 
 237:Drivers/lvgl/src/extra/themes/mono/../../../../src/hal/../draw/../misc/lv_color.h **** typedef struct {
 238:Drivers/lvgl/src/extra/themes/mono/../../../../src/hal/../draw/../misc/lv_color.h ****     uint16_t h;
 239:Drivers/lvgl/src/extra/themes/mono/../../../../src/hal/../draw/../misc/lv_color.h ****     uint8_t s;
 240:Drivers/lvgl/src/extra/themes/mono/../../../../src/hal/../draw/../misc/lv_color.h ****     uint8_t v;
 241:Drivers/lvgl/src/extra/themes/mono/../../../../src/hal/../draw/../misc/lv_color.h **** } lv_color_hsv_t;
 242:Drivers/lvgl/src/extra/themes/mono/../../../../src/hal/../draw/../misc/lv_color.h **** 
 243:Drivers/lvgl/src/extra/themes/mono/../../../../src/hal/../draw/../misc/lv_color.h **** //! @cond Doxygen_Suppress
 244:Drivers/lvgl/src/extra/themes/mono/../../../../src/hal/../draw/../misc/lv_color.h **** /*No idea where the guard is required but else throws warnings in the docs*/
 245:Drivers/lvgl/src/extra/themes/mono/../../../../src/hal/../draw/../misc/lv_color.h **** typedef uint8_t lv_opa_t;
 246:Drivers/lvgl/src/extra/themes/mono/../../../../src/hal/../draw/../misc/lv_color.h **** //! @endcond
 247:Drivers/lvgl/src/extra/themes/mono/../../../../src/hal/../draw/../misc/lv_color.h **** 
 248:Drivers/lvgl/src/extra/themes/mono/../../../../src/hal/../draw/../misc/lv_color.h **** struct _lv_color_filter_dsc_t;
 249:Drivers/lvgl/src/extra/themes/mono/../../../../src/hal/../draw/../misc/lv_color.h **** 
 250:Drivers/lvgl/src/extra/themes/mono/../../../../src/hal/../draw/../misc/lv_color.h **** typedef lv_color_t (*lv_color_filter_cb_t)(const struct _lv_color_filter_dsc_t *, lv_color_t, lv_op
 251:Drivers/lvgl/src/extra/themes/mono/../../../../src/hal/../draw/../misc/lv_color.h **** 
 252:Drivers/lvgl/src/extra/themes/mono/../../../../src/hal/../draw/../misc/lv_color.h **** typedef struct _lv_color_filter_dsc_t {
 253:Drivers/lvgl/src/extra/themes/mono/../../../../src/hal/../draw/../misc/lv_color.h ****     lv_color_filter_cb_t filter_cb;
 254:Drivers/lvgl/src/extra/themes/mono/../../../../src/hal/../draw/../misc/lv_color.h ****     void * user_data;
 255:Drivers/lvgl/src/extra/themes/mono/../../../../src/hal/../draw/../misc/lv_color.h **** } lv_color_filter_dsc_t;
 256:Drivers/lvgl/src/extra/themes/mono/../../../../src/hal/../draw/../misc/lv_color.h **** 
 257:Drivers/lvgl/src/extra/themes/mono/../../../../src/hal/../draw/../misc/lv_color.h **** 
 258:Drivers/lvgl/src/extra/themes/mono/../../../../src/hal/../draw/../misc/lv_color.h **** typedef enum {
 259:Drivers/lvgl/src/extra/themes/mono/../../../../src/hal/../draw/../misc/lv_color.h ****     LV_PALETTE_RED,
 260:Drivers/lvgl/src/extra/themes/mono/../../../../src/hal/../draw/../misc/lv_color.h ****     LV_PALETTE_PINK,
 261:Drivers/lvgl/src/extra/themes/mono/../../../../src/hal/../draw/../misc/lv_color.h ****     LV_PALETTE_PURPLE,
 262:Drivers/lvgl/src/extra/themes/mono/../../../../src/hal/../draw/../misc/lv_color.h ****     LV_PALETTE_DEEP_PURPLE,
 263:Drivers/lvgl/src/extra/themes/mono/../../../../src/hal/../draw/../misc/lv_color.h ****     LV_PALETTE_INDIGO,
 264:Drivers/lvgl/src/extra/themes/mono/../../../../src/hal/../draw/../misc/lv_color.h ****     LV_PALETTE_BLUE,
 265:Drivers/lvgl/src/extra/themes/mono/../../../../src/hal/../draw/../misc/lv_color.h ****     LV_PALETTE_LIGHT_BLUE,
 266:Drivers/lvgl/src/extra/themes/mono/../../../../src/hal/../draw/../misc/lv_color.h ****     LV_PALETTE_CYAN,
 267:Drivers/lvgl/src/extra/themes/mono/../../../../src/hal/../draw/../misc/lv_color.h ****     LV_PALETTE_TEAL,
 268:Drivers/lvgl/src/extra/themes/mono/../../../../src/hal/../draw/../misc/lv_color.h ****     LV_PALETTE_GREEN,
 269:Drivers/lvgl/src/extra/themes/mono/../../../../src/hal/../draw/../misc/lv_color.h ****     LV_PALETTE_LIGHT_GREEN,
 270:Drivers/lvgl/src/extra/themes/mono/../../../../src/hal/../draw/../misc/lv_color.h ****     LV_PALETTE_LIME,
 271:Drivers/lvgl/src/extra/themes/mono/../../../../src/hal/../draw/../misc/lv_color.h ****     LV_PALETTE_YELLOW,
 272:Drivers/lvgl/src/extra/themes/mono/../../../../src/hal/../draw/../misc/lv_color.h ****     LV_PALETTE_AMBER,
 273:Drivers/lvgl/src/extra/themes/mono/../../../../src/hal/../draw/../misc/lv_color.h ****     LV_PALETTE_ORANGE,
 274:Drivers/lvgl/src/extra/themes/mono/../../../../src/hal/../draw/../misc/lv_color.h ****     LV_PALETTE_DEEP_ORANGE,
 275:Drivers/lvgl/src/extra/themes/mono/../../../../src/hal/../draw/../misc/lv_color.h ****     LV_PALETTE_BROWN,
 276:Drivers/lvgl/src/extra/themes/mono/../../../../src/hal/../draw/../misc/lv_color.h ****     LV_PALETTE_BLUE_GREY,
 277:Drivers/lvgl/src/extra/themes/mono/../../../../src/hal/../draw/../misc/lv_color.h ****     LV_PALETTE_GREY,
 278:Drivers/lvgl/src/extra/themes/mono/../../../../src/hal/../draw/../misc/lv_color.h ****     _LV_PALETTE_LAST,
 279:Drivers/lvgl/src/extra/themes/mono/../../../../src/hal/../draw/../misc/lv_color.h ****     LV_PALETTE_NONE = 0xff,
 280:Drivers/lvgl/src/extra/themes/mono/../../../../src/hal/../draw/../misc/lv_color.h **** } lv_palette_t;
 281:Drivers/lvgl/src/extra/themes/mono/../../../../src/hal/../draw/../misc/lv_color.h **** 
ARM GAS  /var/folders/lp/x54gwt890xv47sdkqj1k04q40000gn/T//cc6ygGfE.s 			page 50


 282:Drivers/lvgl/src/extra/themes/mono/../../../../src/hal/../draw/../misc/lv_color.h **** /**********************
 283:Drivers/lvgl/src/extra/themes/mono/../../../../src/hal/../draw/../misc/lv_color.h ****  * GLOBAL PROTOTYPES
 284:Drivers/lvgl/src/extra/themes/mono/../../../../src/hal/../draw/../misc/lv_color.h ****  **********************/
 285:Drivers/lvgl/src/extra/themes/mono/../../../../src/hal/../draw/../misc/lv_color.h **** 
 286:Drivers/lvgl/src/extra/themes/mono/../../../../src/hal/../draw/../misc/lv_color.h **** /*In color conversations:
 287:Drivers/lvgl/src/extra/themes/mono/../../../../src/hal/../draw/../misc/lv_color.h ****  * - When converting to bigger color type the LSB weight of 1 LSB is calculated
 288:Drivers/lvgl/src/extra/themes/mono/../../../../src/hal/../draw/../misc/lv_color.h ****  *   E.g. 16 bit Red has 5 bits
 289:Drivers/lvgl/src/extra/themes/mono/../../../../src/hal/../draw/../misc/lv_color.h ****  *         8 bit Red has 3 bits
 290:Drivers/lvgl/src/extra/themes/mono/../../../../src/hal/../draw/../misc/lv_color.h ****  *        ----------------------
 291:Drivers/lvgl/src/extra/themes/mono/../../../../src/hal/../draw/../misc/lv_color.h ****  *        8 bit red LSB = (2^5 - 1) / (2^3 - 1) = 31 / 7 = 4
 292:Drivers/lvgl/src/extra/themes/mono/../../../../src/hal/../draw/../misc/lv_color.h ****  *
 293:Drivers/lvgl/src/extra/themes/mono/../../../../src/hal/../draw/../misc/lv_color.h ****  * - When calculating to smaller color type simply shift out the LSBs
 294:Drivers/lvgl/src/extra/themes/mono/../../../../src/hal/../draw/../misc/lv_color.h ****  *   E.g.  8 bit Red has 3 bits
 295:Drivers/lvgl/src/extra/themes/mono/../../../../src/hal/../draw/../misc/lv_color.h ****  *        16 bit Red has 5 bits
 296:Drivers/lvgl/src/extra/themes/mono/../../../../src/hal/../draw/../misc/lv_color.h ****  *        ----------------------
 297:Drivers/lvgl/src/extra/themes/mono/../../../../src/hal/../draw/../misc/lv_color.h ****  *         Shift right with 5 - 3 = 2
 298:Drivers/lvgl/src/extra/themes/mono/../../../../src/hal/../draw/../misc/lv_color.h ****  */
 299:Drivers/lvgl/src/extra/themes/mono/../../../../src/hal/../draw/../misc/lv_color.h **** static inline uint8_t lv_color_to1(lv_color_t color)
 300:Drivers/lvgl/src/extra/themes/mono/../../../../src/hal/../draw/../misc/lv_color.h **** {
 301:Drivers/lvgl/src/extra/themes/mono/../../../../src/hal/../draw/../misc/lv_color.h **** #if LV_COLOR_DEPTH == 1
 302:Drivers/lvgl/src/extra/themes/mono/../../../../src/hal/../draw/../misc/lv_color.h ****     return color.full;
 303:Drivers/lvgl/src/extra/themes/mono/../../../../src/hal/../draw/../misc/lv_color.h **** #elif LV_COLOR_DEPTH == 8
 304:Drivers/lvgl/src/extra/themes/mono/../../../../src/hal/../draw/../misc/lv_color.h ****     if((LV_COLOR_GET_R(color) & 0x4) || (LV_COLOR_GET_G(color) & 0x4) || (LV_COLOR_GET_B(color) & 0
 305:Drivers/lvgl/src/extra/themes/mono/../../../../src/hal/../draw/../misc/lv_color.h ****         return 1;
 306:Drivers/lvgl/src/extra/themes/mono/../../../../src/hal/../draw/../misc/lv_color.h ****     }
 307:Drivers/lvgl/src/extra/themes/mono/../../../../src/hal/../draw/../misc/lv_color.h ****     else {
 308:Drivers/lvgl/src/extra/themes/mono/../../../../src/hal/../draw/../misc/lv_color.h ****         return 0;
 309:Drivers/lvgl/src/extra/themes/mono/../../../../src/hal/../draw/../misc/lv_color.h ****     }
 310:Drivers/lvgl/src/extra/themes/mono/../../../../src/hal/../draw/../misc/lv_color.h **** #elif LV_COLOR_DEPTH == 16
 311:Drivers/lvgl/src/extra/themes/mono/../../../../src/hal/../draw/../misc/lv_color.h ****     if((LV_COLOR_GET_R(color) & 0x10) || (LV_COLOR_GET_G(color) & 0x20) || (LV_COLOR_GET_B(color) &
 312:Drivers/lvgl/src/extra/themes/mono/../../../../src/hal/../draw/../misc/lv_color.h ****         return 1;
 313:Drivers/lvgl/src/extra/themes/mono/../../../../src/hal/../draw/../misc/lv_color.h ****     }
 314:Drivers/lvgl/src/extra/themes/mono/../../../../src/hal/../draw/../misc/lv_color.h ****     else {
 315:Drivers/lvgl/src/extra/themes/mono/../../../../src/hal/../draw/../misc/lv_color.h ****         return 0;
 316:Drivers/lvgl/src/extra/themes/mono/../../../../src/hal/../draw/../misc/lv_color.h ****     }
 317:Drivers/lvgl/src/extra/themes/mono/../../../../src/hal/../draw/../misc/lv_color.h **** #elif LV_COLOR_DEPTH == 32
 318:Drivers/lvgl/src/extra/themes/mono/../../../../src/hal/../draw/../misc/lv_color.h ****     if((LV_COLOR_GET_R(color) & 0x80) || (LV_COLOR_GET_G(color) & 0x80) || (LV_COLOR_GET_B(color) &
 319:Drivers/lvgl/src/extra/themes/mono/../../../../src/hal/../draw/../misc/lv_color.h ****         return 1;
 320:Drivers/lvgl/src/extra/themes/mono/../../../../src/hal/../draw/../misc/lv_color.h ****     }
 321:Drivers/lvgl/src/extra/themes/mono/../../../../src/hal/../draw/../misc/lv_color.h ****     else {
 322:Drivers/lvgl/src/extra/themes/mono/../../../../src/hal/../draw/../misc/lv_color.h ****         return 0;
 323:Drivers/lvgl/src/extra/themes/mono/../../../../src/hal/../draw/../misc/lv_color.h ****     }
 324:Drivers/lvgl/src/extra/themes/mono/../../../../src/hal/../draw/../misc/lv_color.h **** #endif
 325:Drivers/lvgl/src/extra/themes/mono/../../../../src/hal/../draw/../misc/lv_color.h **** }
 326:Drivers/lvgl/src/extra/themes/mono/../../../../src/hal/../draw/../misc/lv_color.h **** 
 327:Drivers/lvgl/src/extra/themes/mono/../../../../src/hal/../draw/../misc/lv_color.h **** static inline uint8_t lv_color_to8(lv_color_t color)
 328:Drivers/lvgl/src/extra/themes/mono/../../../../src/hal/../draw/../misc/lv_color.h **** {
 329:Drivers/lvgl/src/extra/themes/mono/../../../../src/hal/../draw/../misc/lv_color.h **** #if LV_COLOR_DEPTH == 1
 330:Drivers/lvgl/src/extra/themes/mono/../../../../src/hal/../draw/../misc/lv_color.h ****     if(color.full == 0)
 331:Drivers/lvgl/src/extra/themes/mono/../../../../src/hal/../draw/../misc/lv_color.h ****         return 0;
 332:Drivers/lvgl/src/extra/themes/mono/../../../../src/hal/../draw/../misc/lv_color.h ****     else
 333:Drivers/lvgl/src/extra/themes/mono/../../../../src/hal/../draw/../misc/lv_color.h ****         return 0xFF;
 334:Drivers/lvgl/src/extra/themes/mono/../../../../src/hal/../draw/../misc/lv_color.h **** #elif LV_COLOR_DEPTH == 8
 335:Drivers/lvgl/src/extra/themes/mono/../../../../src/hal/../draw/../misc/lv_color.h ****     return color.full;
 336:Drivers/lvgl/src/extra/themes/mono/../../../../src/hal/../draw/../misc/lv_color.h **** #elif LV_COLOR_DEPTH == 16
 337:Drivers/lvgl/src/extra/themes/mono/../../../../src/hal/../draw/../misc/lv_color.h ****     lv_color8_t ret;
 338:Drivers/lvgl/src/extra/themes/mono/../../../../src/hal/../draw/../misc/lv_color.h ****     LV_COLOR_SET_R8(ret, LV_COLOR_GET_R(color) >> 2); /*5 - 3  = 2*/
ARM GAS  /var/folders/lp/x54gwt890xv47sdkqj1k04q40000gn/T//cc6ygGfE.s 			page 51


 339:Drivers/lvgl/src/extra/themes/mono/../../../../src/hal/../draw/../misc/lv_color.h ****     LV_COLOR_SET_G8(ret, LV_COLOR_GET_G(color) >> 3); /*6 - 3  = 3*/
 340:Drivers/lvgl/src/extra/themes/mono/../../../../src/hal/../draw/../misc/lv_color.h ****     LV_COLOR_SET_B8(ret, LV_COLOR_GET_B(color) >> 3); /*5 - 2  = 3*/
 341:Drivers/lvgl/src/extra/themes/mono/../../../../src/hal/../draw/../misc/lv_color.h ****     return ret.full;
 342:Drivers/lvgl/src/extra/themes/mono/../../../../src/hal/../draw/../misc/lv_color.h **** #elif LV_COLOR_DEPTH == 32
 343:Drivers/lvgl/src/extra/themes/mono/../../../../src/hal/../draw/../misc/lv_color.h ****     lv_color8_t ret;
 344:Drivers/lvgl/src/extra/themes/mono/../../../../src/hal/../draw/../misc/lv_color.h ****     LV_COLOR_SET_R8(ret, LV_COLOR_GET_R(color) >> 5); /*8 - 3  = 5*/
 345:Drivers/lvgl/src/extra/themes/mono/../../../../src/hal/../draw/../misc/lv_color.h ****     LV_COLOR_SET_G8(ret, LV_COLOR_GET_G(color) >> 5); /*8 - 3  = 5*/
 346:Drivers/lvgl/src/extra/themes/mono/../../../../src/hal/../draw/../misc/lv_color.h ****     LV_COLOR_SET_B8(ret, LV_COLOR_GET_B(color) >> 6); /*8 - 2  = 6*/
 347:Drivers/lvgl/src/extra/themes/mono/../../../../src/hal/../draw/../misc/lv_color.h ****     return ret.full;
 348:Drivers/lvgl/src/extra/themes/mono/../../../../src/hal/../draw/../misc/lv_color.h **** #endif
 349:Drivers/lvgl/src/extra/themes/mono/../../../../src/hal/../draw/../misc/lv_color.h **** }
 350:Drivers/lvgl/src/extra/themes/mono/../../../../src/hal/../draw/../misc/lv_color.h **** 
 351:Drivers/lvgl/src/extra/themes/mono/../../../../src/hal/../draw/../misc/lv_color.h **** static inline uint16_t lv_color_to16(lv_color_t color)
 352:Drivers/lvgl/src/extra/themes/mono/../../../../src/hal/../draw/../misc/lv_color.h **** {
 353:Drivers/lvgl/src/extra/themes/mono/../../../../src/hal/../draw/../misc/lv_color.h **** #if LV_COLOR_DEPTH == 1
 354:Drivers/lvgl/src/extra/themes/mono/../../../../src/hal/../draw/../misc/lv_color.h ****     if(color.full == 0)
 355:Drivers/lvgl/src/extra/themes/mono/../../../../src/hal/../draw/../misc/lv_color.h ****         return 0;
 356:Drivers/lvgl/src/extra/themes/mono/../../../../src/hal/../draw/../misc/lv_color.h ****     else
 357:Drivers/lvgl/src/extra/themes/mono/../../../../src/hal/../draw/../misc/lv_color.h ****         return 0xFFFF;
 358:Drivers/lvgl/src/extra/themes/mono/../../../../src/hal/../draw/../misc/lv_color.h **** #elif LV_COLOR_DEPTH == 8
 359:Drivers/lvgl/src/extra/themes/mono/../../../../src/hal/../draw/../misc/lv_color.h ****     lv_color16_t ret;
 360:Drivers/lvgl/src/extra/themes/mono/../../../../src/hal/../draw/../misc/lv_color.h ****     LV_COLOR_SET_R16(ret, LV_COLOR_GET_R(color) * 4);  /*(2^5 - 1)/(2^3 - 1) = 31/7 = 4*/
 361:Drivers/lvgl/src/extra/themes/mono/../../../../src/hal/../draw/../misc/lv_color.h ****     LV_COLOR_SET_G16(ret, LV_COLOR_GET_G(color) * 9);  /*(2^6 - 1)/(2^3 - 1) = 63/7 = 9*/
 362:Drivers/lvgl/src/extra/themes/mono/../../../../src/hal/../draw/../misc/lv_color.h ****     LV_COLOR_SET_B16(ret, LV_COLOR_GET_B(color) * 10); /*(2^5 - 1)/(2^2 - 1) = 31/3 = 10*/
 363:Drivers/lvgl/src/extra/themes/mono/../../../../src/hal/../draw/../misc/lv_color.h ****     return ret.full;
 364:Drivers/lvgl/src/extra/themes/mono/../../../../src/hal/../draw/../misc/lv_color.h **** #elif LV_COLOR_DEPTH == 16
 365:Drivers/lvgl/src/extra/themes/mono/../../../../src/hal/../draw/../misc/lv_color.h ****     return color.full;
 366:Drivers/lvgl/src/extra/themes/mono/../../../../src/hal/../draw/../misc/lv_color.h **** #elif LV_COLOR_DEPTH == 32
 367:Drivers/lvgl/src/extra/themes/mono/../../../../src/hal/../draw/../misc/lv_color.h ****     lv_color16_t ret;
 368:Drivers/lvgl/src/extra/themes/mono/../../../../src/hal/../draw/../misc/lv_color.h ****     LV_COLOR_SET_R16(ret, LV_COLOR_GET_R(color) >> 3); /*8 - 5  = 3*/
 369:Drivers/lvgl/src/extra/themes/mono/../../../../src/hal/../draw/../misc/lv_color.h ****     LV_COLOR_SET_G16(ret, LV_COLOR_GET_G(color) >> 2); /*8 - 6  = 2*/
 370:Drivers/lvgl/src/extra/themes/mono/../../../../src/hal/../draw/../misc/lv_color.h ****     LV_COLOR_SET_B16(ret, LV_COLOR_GET_B(color) >> 3); /*8 - 5  = 3*/
 371:Drivers/lvgl/src/extra/themes/mono/../../../../src/hal/../draw/../misc/lv_color.h ****     return ret.full;
 372:Drivers/lvgl/src/extra/themes/mono/../../../../src/hal/../draw/../misc/lv_color.h **** #endif
 373:Drivers/lvgl/src/extra/themes/mono/../../../../src/hal/../draw/../misc/lv_color.h **** }
 374:Drivers/lvgl/src/extra/themes/mono/../../../../src/hal/../draw/../misc/lv_color.h **** 
 375:Drivers/lvgl/src/extra/themes/mono/../../../../src/hal/../draw/../misc/lv_color.h **** static inline uint32_t lv_color_to32(lv_color_t color)
 376:Drivers/lvgl/src/extra/themes/mono/../../../../src/hal/../draw/../misc/lv_color.h **** {
 377:Drivers/lvgl/src/extra/themes/mono/../../../../src/hal/../draw/../misc/lv_color.h **** #if LV_COLOR_DEPTH == 1
 378:Drivers/lvgl/src/extra/themes/mono/../../../../src/hal/../draw/../misc/lv_color.h ****     if(color.full == 0)
 379:Drivers/lvgl/src/extra/themes/mono/../../../../src/hal/../draw/../misc/lv_color.h ****         return 0xFF000000;
 380:Drivers/lvgl/src/extra/themes/mono/../../../../src/hal/../draw/../misc/lv_color.h ****     else
 381:Drivers/lvgl/src/extra/themes/mono/../../../../src/hal/../draw/../misc/lv_color.h ****         return 0xFFFFFFFF;
 382:Drivers/lvgl/src/extra/themes/mono/../../../../src/hal/../draw/../misc/lv_color.h **** #elif LV_COLOR_DEPTH == 8
 383:Drivers/lvgl/src/extra/themes/mono/../../../../src/hal/../draw/../misc/lv_color.h ****     lv_color32_t ret;
 384:Drivers/lvgl/src/extra/themes/mono/../../../../src/hal/../draw/../misc/lv_color.h ****     LV_COLOR_SET_R32(ret, LV_COLOR_GET_R(color) * 36); /*(2^8 - 1)/(2^3 - 1) = 255/7 = 36*/
 385:Drivers/lvgl/src/extra/themes/mono/../../../../src/hal/../draw/../misc/lv_color.h ****     LV_COLOR_SET_G32(ret, LV_COLOR_GET_G(color) * 36); /*(2^8 - 1)/(2^3 - 1) = 255/7 = 36*/
 386:Drivers/lvgl/src/extra/themes/mono/../../../../src/hal/../draw/../misc/lv_color.h ****     LV_COLOR_SET_B32(ret, LV_COLOR_GET_B(color) * 85); /*(2^8 - 1)/(2^2 - 1) = 255/3 = 85*/
 387:Drivers/lvgl/src/extra/themes/mono/../../../../src/hal/../draw/../misc/lv_color.h ****     LV_COLOR_SET_A32(ret, 0xFF);
 388:Drivers/lvgl/src/extra/themes/mono/../../../../src/hal/../draw/../misc/lv_color.h ****     return ret.full;
 389:Drivers/lvgl/src/extra/themes/mono/../../../../src/hal/../draw/../misc/lv_color.h **** #elif LV_COLOR_DEPTH == 16
 390:Drivers/lvgl/src/extra/themes/mono/../../../../src/hal/../draw/../misc/lv_color.h ****     /**
 391:Drivers/lvgl/src/extra/themes/mono/../../../../src/hal/../draw/../misc/lv_color.h ****      * The floating point math for conversion is:
 392:Drivers/lvgl/src/extra/themes/mono/../../../../src/hal/../draw/../misc/lv_color.h ****      *  valueto = valuefrom * ( (2^bitsto - 1) / (float)(2^bitsfrom - 1) )
 393:Drivers/lvgl/src/extra/themes/mono/../../../../src/hal/../draw/../misc/lv_color.h ****      * The faster integer math for conversion is:
 394:Drivers/lvgl/src/extra/themes/mono/../../../../src/hal/../draw/../misc/lv_color.h ****      *  valueto = ( valuefrom * multiplier + adder ) >> divisor
 395:Drivers/lvgl/src/extra/themes/mono/../../../../src/hal/../draw/../misc/lv_color.h ****      *   multiplier = FLOOR( ( (2^bitsto - 1) << divisor ) / (float)(2^bitsfrom - 1) )
ARM GAS  /var/folders/lp/x54gwt890xv47sdkqj1k04q40000gn/T//cc6ygGfE.s 			page 52


 396:Drivers/lvgl/src/extra/themes/mono/../../../../src/hal/../draw/../misc/lv_color.h ****      *
 397:Drivers/lvgl/src/extra/themes/mono/../../../../src/hal/../draw/../misc/lv_color.h ****      * Find the first divisor where ( adder >> divisor ) <= 0
 398:Drivers/lvgl/src/extra/themes/mono/../../../../src/hal/../draw/../misc/lv_color.h ****      *
 399:Drivers/lvgl/src/extra/themes/mono/../../../../src/hal/../draw/../misc/lv_color.h ****      * 5-bit to 8-bit: ( 31 * multiplier + adder ) >> divisor = 255
 400:Drivers/lvgl/src/extra/themes/mono/../../../../src/hal/../draw/../misc/lv_color.h ****      * divisor  multiplier  adder  min (0)  max (31)
 401:Drivers/lvgl/src/extra/themes/mono/../../../../src/hal/../draw/../misc/lv_color.h ****      *       0           8      7        7       255
 402:Drivers/lvgl/src/extra/themes/mono/../../../../src/hal/../draw/../misc/lv_color.h ****      *       1          16     14        7       255
 403:Drivers/lvgl/src/extra/themes/mono/../../../../src/hal/../draw/../misc/lv_color.h ****      *       2          32     28        7       255
 404:Drivers/lvgl/src/extra/themes/mono/../../../../src/hal/../draw/../misc/lv_color.h ****      *       3          65     25        3       255
 405:Drivers/lvgl/src/extra/themes/mono/../../../../src/hal/../draw/../misc/lv_color.h ****      *       4         131     19        1       255
 406:Drivers/lvgl/src/extra/themes/mono/../../../../src/hal/../draw/../misc/lv_color.h ****      *       5         263      7        0       255
 407:Drivers/lvgl/src/extra/themes/mono/../../../../src/hal/../draw/../misc/lv_color.h ****      *
 408:Drivers/lvgl/src/extra/themes/mono/../../../../src/hal/../draw/../misc/lv_color.h ****      * 6-bit to 8-bit: 255 = ( 63 * multiplier + adder ) >> divisor
 409:Drivers/lvgl/src/extra/themes/mono/../../../../src/hal/../draw/../misc/lv_color.h ****      * divisor  multiplier  adder  min (0)  max (63)
 410:Drivers/lvgl/src/extra/themes/mono/../../../../src/hal/../draw/../misc/lv_color.h ****      *       0           4      3        3       255
 411:Drivers/lvgl/src/extra/themes/mono/../../../../src/hal/../draw/../misc/lv_color.h ****      *       1           8      6        3       255
 412:Drivers/lvgl/src/extra/themes/mono/../../../../src/hal/../draw/../misc/lv_color.h ****      *       2          16     12        3       255
 413:Drivers/lvgl/src/extra/themes/mono/../../../../src/hal/../draw/../misc/lv_color.h ****      *       3          32     24        3       255
 414:Drivers/lvgl/src/extra/themes/mono/../../../../src/hal/../draw/../misc/lv_color.h ****      *       4          64     48        3       255
 415:Drivers/lvgl/src/extra/themes/mono/../../../../src/hal/../draw/../misc/lv_color.h ****      *       5         129     33        1       255
 416:Drivers/lvgl/src/extra/themes/mono/../../../../src/hal/../draw/../misc/lv_color.h ****      *       6         259      3        0       255
 417:Drivers/lvgl/src/extra/themes/mono/../../../../src/hal/../draw/../misc/lv_color.h ****      */
 418:Drivers/lvgl/src/extra/themes/mono/../../../../src/hal/../draw/../misc/lv_color.h **** 
 419:Drivers/lvgl/src/extra/themes/mono/../../../../src/hal/../draw/../misc/lv_color.h ****     lv_color32_t ret;
 420:Drivers/lvgl/src/extra/themes/mono/../../../../src/hal/../draw/../misc/lv_color.h ****     LV_COLOR_SET_R32(ret, (LV_COLOR_GET_R(color) * 263 + 7) >> 5);
 421:Drivers/lvgl/src/extra/themes/mono/../../../../src/hal/../draw/../misc/lv_color.h ****     LV_COLOR_SET_G32(ret, (LV_COLOR_GET_G(color) * 259 + 3) >> 6);
 422:Drivers/lvgl/src/extra/themes/mono/../../../../src/hal/../draw/../misc/lv_color.h ****     LV_COLOR_SET_B32(ret, (LV_COLOR_GET_B(color) * 263 + 7) >> 5);
 423:Drivers/lvgl/src/extra/themes/mono/../../../../src/hal/../draw/../misc/lv_color.h ****     LV_COLOR_SET_A32(ret, 0xFF);
 424:Drivers/lvgl/src/extra/themes/mono/../../../../src/hal/../draw/../misc/lv_color.h ****     return ret.full;
 425:Drivers/lvgl/src/extra/themes/mono/../../../../src/hal/../draw/../misc/lv_color.h **** #elif LV_COLOR_DEPTH == 32
 426:Drivers/lvgl/src/extra/themes/mono/../../../../src/hal/../draw/../misc/lv_color.h ****     return color.full;
 427:Drivers/lvgl/src/extra/themes/mono/../../../../src/hal/../draw/../misc/lv_color.h **** #endif
 428:Drivers/lvgl/src/extra/themes/mono/../../../../src/hal/../draw/../misc/lv_color.h **** }
 429:Drivers/lvgl/src/extra/themes/mono/../../../../src/hal/../draw/../misc/lv_color.h **** 
 430:Drivers/lvgl/src/extra/themes/mono/../../../../src/hal/../draw/../misc/lv_color.h **** //! @cond Doxygen_Suppress
 431:Drivers/lvgl/src/extra/themes/mono/../../../../src/hal/../draw/../misc/lv_color.h **** 
 432:Drivers/lvgl/src/extra/themes/mono/../../../../src/hal/../draw/../misc/lv_color.h **** /**
 433:Drivers/lvgl/src/extra/themes/mono/../../../../src/hal/../draw/../misc/lv_color.h ****  * Mix two colors with a given ratio.
 434:Drivers/lvgl/src/extra/themes/mono/../../../../src/hal/../draw/../misc/lv_color.h ****  * @param c1 the first color to mix (usually the foreground)
 435:Drivers/lvgl/src/extra/themes/mono/../../../../src/hal/../draw/../misc/lv_color.h ****  * @param c2 the second color to mix (usually the background)
 436:Drivers/lvgl/src/extra/themes/mono/../../../../src/hal/../draw/../misc/lv_color.h ****  * @param mix The ratio of the colors. 0: full `c2`, 255: full `c1`, 127: half `c1` and half`c2`
 437:Drivers/lvgl/src/extra/themes/mono/../../../../src/hal/../draw/../misc/lv_color.h ****  * @return the mixed color
 438:Drivers/lvgl/src/extra/themes/mono/../../../../src/hal/../draw/../misc/lv_color.h ****  */
 439:Drivers/lvgl/src/extra/themes/mono/../../../../src/hal/../draw/../misc/lv_color.h **** static inline lv_color_t LV_ATTRIBUTE_FAST_MEM lv_color_mix(lv_color_t c1, lv_color_t c2, uint8_t m
 440:Drivers/lvgl/src/extra/themes/mono/../../../../src/hal/../draw/../misc/lv_color.h **** {
 441:Drivers/lvgl/src/extra/themes/mono/../../../../src/hal/../draw/../misc/lv_color.h ****     lv_color_t ret;
 442:Drivers/lvgl/src/extra/themes/mono/../../../../src/hal/../draw/../misc/lv_color.h **** 
 443:Drivers/lvgl/src/extra/themes/mono/../../../../src/hal/../draw/../misc/lv_color.h **** #if LV_COLOR_DEPTH == 16 && LV_COLOR_MIX_ROUND_OFS == 0
 444:Drivers/lvgl/src/extra/themes/mono/../../../../src/hal/../draw/../misc/lv_color.h **** #if LV_COLOR_16_SWAP == 1
 445:Drivers/lvgl/src/extra/themes/mono/../../../../src/hal/../draw/../misc/lv_color.h ****     c1.full = c1.full << 8 | c1.full >> 8;
 446:Drivers/lvgl/src/extra/themes/mono/../../../../src/hal/../draw/../misc/lv_color.h ****     c2.full = c2.full << 8 | c2.full >> 8;
 447:Drivers/lvgl/src/extra/themes/mono/../../../../src/hal/../draw/../misc/lv_color.h **** #endif
 448:Drivers/lvgl/src/extra/themes/mono/../../../../src/hal/../draw/../misc/lv_color.h ****     /*Source: https://stackoverflow.com/a/50012418/1999969*/
 449:Drivers/lvgl/src/extra/themes/mono/../../../../src/hal/../draw/../misc/lv_color.h ****     mix = (uint32_t)((uint32_t)mix + 4) >> 3;
 450:Drivers/lvgl/src/extra/themes/mono/../../../../src/hal/../draw/../misc/lv_color.h ****     uint32_t bg = (uint32_t)((uint32_t)c2.full | ((uint32_t)c2.full << 16)) &
 451:Drivers/lvgl/src/extra/themes/mono/../../../../src/hal/../draw/../misc/lv_color.h ****                   0x7E0F81F; /*0b00000111111000001111100000011111*/
 452:Drivers/lvgl/src/extra/themes/mono/../../../../src/hal/../draw/../misc/lv_color.h ****     uint32_t fg = (uint32_t)((uint32_t)c1.full | ((uint32_t)c1.full << 16)) & 0x7E0F81F;
ARM GAS  /var/folders/lp/x54gwt890xv47sdkqj1k04q40000gn/T//cc6ygGfE.s 			page 53


 453:Drivers/lvgl/src/extra/themes/mono/../../../../src/hal/../draw/../misc/lv_color.h ****     uint32_t result = ((((fg - bg) * mix) >> 5) + bg) & 0x7E0F81F;
 454:Drivers/lvgl/src/extra/themes/mono/../../../../src/hal/../draw/../misc/lv_color.h ****     ret.full = (uint16_t)((result >> 16) | result);
 455:Drivers/lvgl/src/extra/themes/mono/../../../../src/hal/../draw/../misc/lv_color.h **** #if LV_COLOR_16_SWAP == 1
 456:Drivers/lvgl/src/extra/themes/mono/../../../../src/hal/../draw/../misc/lv_color.h ****     ret.full = ret.full << 8 | ret.full >> 8;
 457:Drivers/lvgl/src/extra/themes/mono/../../../../src/hal/../draw/../misc/lv_color.h **** #endif
 458:Drivers/lvgl/src/extra/themes/mono/../../../../src/hal/../draw/../misc/lv_color.h **** #elif LV_COLOR_DEPTH != 1
 459:Drivers/lvgl/src/extra/themes/mono/../../../../src/hal/../draw/../misc/lv_color.h ****     /*LV_COLOR_DEPTH == 8, 16 or 32*/
 460:Drivers/lvgl/src/extra/themes/mono/../../../../src/hal/../draw/../misc/lv_color.h ****     LV_COLOR_SET_R(ret, LV_UDIV255((uint16_t)LV_COLOR_GET_R(c1) * mix + LV_COLOR_GET_R(c2) *
 461:Drivers/lvgl/src/extra/themes/mono/../../../../src/hal/../draw/../misc/lv_color.h ****                                    (255 - mix) + LV_COLOR_MIX_ROUND_OFS));
 462:Drivers/lvgl/src/extra/themes/mono/../../../../src/hal/../draw/../misc/lv_color.h ****     LV_COLOR_SET_G(ret, LV_UDIV255((uint16_t)LV_COLOR_GET_G(c1) * mix + LV_COLOR_GET_G(c2) *
 463:Drivers/lvgl/src/extra/themes/mono/../../../../src/hal/../draw/../misc/lv_color.h ****                                    (255 - mix) + LV_COLOR_MIX_ROUND_OFS));
 464:Drivers/lvgl/src/extra/themes/mono/../../../../src/hal/../draw/../misc/lv_color.h ****     LV_COLOR_SET_B(ret, LV_UDIV255((uint16_t)LV_COLOR_GET_B(c1) * mix + LV_COLOR_GET_B(c2) *
 465:Drivers/lvgl/src/extra/themes/mono/../../../../src/hal/../draw/../misc/lv_color.h ****                                    (255 - mix) + LV_COLOR_MIX_ROUND_OFS));
 466:Drivers/lvgl/src/extra/themes/mono/../../../../src/hal/../draw/../misc/lv_color.h ****     LV_COLOR_SET_A(ret, 0xFF);
 467:Drivers/lvgl/src/extra/themes/mono/../../../../src/hal/../draw/../misc/lv_color.h **** #else
 468:Drivers/lvgl/src/extra/themes/mono/../../../../src/hal/../draw/../misc/lv_color.h ****     /*LV_COLOR_DEPTH == 1*/
 469:Drivers/lvgl/src/extra/themes/mono/../../../../src/hal/../draw/../misc/lv_color.h ****     ret.full = mix > LV_OPA_50 ? c1.full : c2.full;
 470:Drivers/lvgl/src/extra/themes/mono/../../../../src/hal/../draw/../misc/lv_color.h **** #endif
 471:Drivers/lvgl/src/extra/themes/mono/../../../../src/hal/../draw/../misc/lv_color.h **** 
 472:Drivers/lvgl/src/extra/themes/mono/../../../../src/hal/../draw/../misc/lv_color.h ****     return ret;
 473:Drivers/lvgl/src/extra/themes/mono/../../../../src/hal/../draw/../misc/lv_color.h **** }
 474:Drivers/lvgl/src/extra/themes/mono/../../../../src/hal/../draw/../misc/lv_color.h **** 
 475:Drivers/lvgl/src/extra/themes/mono/../../../../src/hal/../draw/../misc/lv_color.h **** static inline void LV_ATTRIBUTE_FAST_MEM lv_color_premult(lv_color_t c, uint8_t mix, uint16_t * out
 476:Drivers/lvgl/src/extra/themes/mono/../../../../src/hal/../draw/../misc/lv_color.h **** {
 477:Drivers/lvgl/src/extra/themes/mono/../../../../src/hal/../draw/../misc/lv_color.h **** #if LV_COLOR_DEPTH != 1
 478:Drivers/lvgl/src/extra/themes/mono/../../../../src/hal/../draw/../misc/lv_color.h ****     out[0] = (uint16_t)LV_COLOR_GET_R(c) * mix;
 479:Drivers/lvgl/src/extra/themes/mono/../../../../src/hal/../draw/../misc/lv_color.h ****     out[1] = (uint16_t)LV_COLOR_GET_G(c) * mix;
 480:Drivers/lvgl/src/extra/themes/mono/../../../../src/hal/../draw/../misc/lv_color.h ****     out[2] = (uint16_t)LV_COLOR_GET_B(c) * mix;
 481:Drivers/lvgl/src/extra/themes/mono/../../../../src/hal/../draw/../misc/lv_color.h **** #else
 482:Drivers/lvgl/src/extra/themes/mono/../../../../src/hal/../draw/../misc/lv_color.h ****     (void) mix;
 483:Drivers/lvgl/src/extra/themes/mono/../../../../src/hal/../draw/../misc/lv_color.h ****     /*Pre-multiplication can't be used with 1 bpp*/
 484:Drivers/lvgl/src/extra/themes/mono/../../../../src/hal/../draw/../misc/lv_color.h ****     out[0] = LV_COLOR_GET_R(c);
 485:Drivers/lvgl/src/extra/themes/mono/../../../../src/hal/../draw/../misc/lv_color.h ****     out[1] = LV_COLOR_GET_G(c);
 486:Drivers/lvgl/src/extra/themes/mono/../../../../src/hal/../draw/../misc/lv_color.h ****     out[2] = LV_COLOR_GET_B(c);
 487:Drivers/lvgl/src/extra/themes/mono/../../../../src/hal/../draw/../misc/lv_color.h **** #endif
 488:Drivers/lvgl/src/extra/themes/mono/../../../../src/hal/../draw/../misc/lv_color.h **** 
 489:Drivers/lvgl/src/extra/themes/mono/../../../../src/hal/../draw/../misc/lv_color.h **** }
 490:Drivers/lvgl/src/extra/themes/mono/../../../../src/hal/../draw/../misc/lv_color.h **** 
 491:Drivers/lvgl/src/extra/themes/mono/../../../../src/hal/../draw/../misc/lv_color.h **** /**
 492:Drivers/lvgl/src/extra/themes/mono/../../../../src/hal/../draw/../misc/lv_color.h ****  * Mix two colors with a given ratio. It runs faster then `lv_color_mix` but requires some pre comp
 493:Drivers/lvgl/src/extra/themes/mono/../../../../src/hal/../draw/../misc/lv_color.h ****  * @param premult_c1 The first color. Should be preprocessed with `lv_color_premult(c1)`
 494:Drivers/lvgl/src/extra/themes/mono/../../../../src/hal/../draw/../misc/lv_color.h ****  * @param c2 The second color. As it is no pre computation required on it
 495:Drivers/lvgl/src/extra/themes/mono/../../../../src/hal/../draw/../misc/lv_color.h ****  * @param mix The ratio of the colors. 0: full `c1`, 255: full `c2`, 127: half `c1` and half `c2`.
 496:Drivers/lvgl/src/extra/themes/mono/../../../../src/hal/../draw/../misc/lv_color.h ****  *            Should be modified like mix = `255 - mix`
 497:Drivers/lvgl/src/extra/themes/mono/../../../../src/hal/../draw/../misc/lv_color.h ****  * @return the mixed color
 498:Drivers/lvgl/src/extra/themes/mono/../../../../src/hal/../draw/../misc/lv_color.h ****  * @note 255 won't give clearly `c1`.
 499:Drivers/lvgl/src/extra/themes/mono/../../../../src/hal/../draw/../misc/lv_color.h ****  */
 500:Drivers/lvgl/src/extra/themes/mono/../../../../src/hal/../draw/../misc/lv_color.h **** static inline lv_color_t LV_ATTRIBUTE_FAST_MEM lv_color_mix_premult(uint16_t * premult_c1, lv_color
 501:Drivers/lvgl/src/extra/themes/mono/../../../../src/hal/../draw/../misc/lv_color.h **** {
 502:Drivers/lvgl/src/extra/themes/mono/../../../../src/hal/../draw/../misc/lv_color.h ****     lv_color_t ret;
 503:Drivers/lvgl/src/extra/themes/mono/../../../../src/hal/../draw/../misc/lv_color.h **** #if LV_COLOR_DEPTH != 1
 504:Drivers/lvgl/src/extra/themes/mono/../../../../src/hal/../draw/../misc/lv_color.h ****     /*LV_COLOR_DEPTH == 8 or 32*/
 505:Drivers/lvgl/src/extra/themes/mono/../../../../src/hal/../draw/../misc/lv_color.h ****     LV_COLOR_SET_R(ret, LV_UDIV255(premult_c1[0] + LV_COLOR_GET_R(c2) * mix + LV_COLOR_MIX_ROUND_OF
 506:Drivers/lvgl/src/extra/themes/mono/../../../../src/hal/../draw/../misc/lv_color.h ****     LV_COLOR_SET_G(ret, LV_UDIV255(premult_c1[1] + LV_COLOR_GET_G(c2) * mix + LV_COLOR_MIX_ROUND_OF
 507:Drivers/lvgl/src/extra/themes/mono/../../../../src/hal/../draw/../misc/lv_color.h ****     LV_COLOR_SET_B(ret, LV_UDIV255(premult_c1[2] + LV_COLOR_GET_B(c2) * mix + LV_COLOR_MIX_ROUND_OF
 508:Drivers/lvgl/src/extra/themes/mono/../../../../src/hal/../draw/../misc/lv_color.h ****     LV_COLOR_SET_A(ret, 0xFF);
 509:Drivers/lvgl/src/extra/themes/mono/../../../../src/hal/../draw/../misc/lv_color.h **** #else
ARM GAS  /var/folders/lp/x54gwt890xv47sdkqj1k04q40000gn/T//cc6ygGfE.s 			page 54


 510:Drivers/lvgl/src/extra/themes/mono/../../../../src/hal/../draw/../misc/lv_color.h ****     /*LV_COLOR_DEPTH == 1*/
 511:Drivers/lvgl/src/extra/themes/mono/../../../../src/hal/../draw/../misc/lv_color.h ****     /*Restore color1*/
 512:Drivers/lvgl/src/extra/themes/mono/../../../../src/hal/../draw/../misc/lv_color.h ****     lv_color_t c1;
 513:Drivers/lvgl/src/extra/themes/mono/../../../../src/hal/../draw/../misc/lv_color.h ****     LV_COLOR_SET_R(c1, premult_c1[0]);
 514:Drivers/lvgl/src/extra/themes/mono/../../../../src/hal/../draw/../misc/lv_color.h ****     LV_COLOR_SET_G(c1, premult_c1[1]);
 515:Drivers/lvgl/src/extra/themes/mono/../../../../src/hal/../draw/../misc/lv_color.h ****     LV_COLOR_SET_B(c1, premult_c1[2]);
 516:Drivers/lvgl/src/extra/themes/mono/../../../../src/hal/../draw/../misc/lv_color.h ****     ret.full = mix > LV_OPA_50 ? c2.full : c1.full;
 517:Drivers/lvgl/src/extra/themes/mono/../../../../src/hal/../draw/../misc/lv_color.h **** #endif
 518:Drivers/lvgl/src/extra/themes/mono/../../../../src/hal/../draw/../misc/lv_color.h **** 
 519:Drivers/lvgl/src/extra/themes/mono/../../../../src/hal/../draw/../misc/lv_color.h ****     return ret;
 520:Drivers/lvgl/src/extra/themes/mono/../../../../src/hal/../draw/../misc/lv_color.h **** }
 521:Drivers/lvgl/src/extra/themes/mono/../../../../src/hal/../draw/../misc/lv_color.h **** 
 522:Drivers/lvgl/src/extra/themes/mono/../../../../src/hal/../draw/../misc/lv_color.h **** /**
 523:Drivers/lvgl/src/extra/themes/mono/../../../../src/hal/../draw/../misc/lv_color.h ****  * Mix two colors. Both color can have alpha value.
 524:Drivers/lvgl/src/extra/themes/mono/../../../../src/hal/../draw/../misc/lv_color.h ****  * @param bg_color background color
 525:Drivers/lvgl/src/extra/themes/mono/../../../../src/hal/../draw/../misc/lv_color.h ****  * @param bg_opa alpha of the background color
 526:Drivers/lvgl/src/extra/themes/mono/../../../../src/hal/../draw/../misc/lv_color.h ****  * @param fg_color foreground color
 527:Drivers/lvgl/src/extra/themes/mono/../../../../src/hal/../draw/../misc/lv_color.h ****  * @param fg_opa alpha of the foreground color
 528:Drivers/lvgl/src/extra/themes/mono/../../../../src/hal/../draw/../misc/lv_color.h ****  * @param res_color the result color
 529:Drivers/lvgl/src/extra/themes/mono/../../../../src/hal/../draw/../misc/lv_color.h ****  * @param res_opa the result opacity
 530:Drivers/lvgl/src/extra/themes/mono/../../../../src/hal/../draw/../misc/lv_color.h ****  */
 531:Drivers/lvgl/src/extra/themes/mono/../../../../src/hal/../draw/../misc/lv_color.h **** static inline void LV_ATTRIBUTE_FAST_MEM lv_color_mix_with_alpha(lv_color_t bg_color, lv_opa_t bg_o
 532:Drivers/lvgl/src/extra/themes/mono/../../../../src/hal/../draw/../misc/lv_color.h ****                                                                  lv_color_t fg_color, lv_opa_t fg_o
 533:Drivers/lvgl/src/extra/themes/mono/../../../../src/hal/../draw/../misc/lv_color.h ****                                                                  lv_color_t * res_color, lv_opa_t *
 534:Drivers/lvgl/src/extra/themes/mono/../../../../src/hal/../draw/../misc/lv_color.h **** {
 535:Drivers/lvgl/src/extra/themes/mono/../../../../src/hal/../draw/../misc/lv_color.h ****     /*Pick the foreground if it's fully opaque or the Background is fully transparent*/
 536:Drivers/lvgl/src/extra/themes/mono/../../../../src/hal/../draw/../misc/lv_color.h ****     if(fg_opa >= LV_OPA_MAX || bg_opa <= LV_OPA_MIN) {
 537:Drivers/lvgl/src/extra/themes/mono/../../../../src/hal/../draw/../misc/lv_color.h ****         res_color->full = fg_color.full;
 538:Drivers/lvgl/src/extra/themes/mono/../../../../src/hal/../draw/../misc/lv_color.h ****         *res_opa = fg_opa;
 539:Drivers/lvgl/src/extra/themes/mono/../../../../src/hal/../draw/../misc/lv_color.h ****     }
 540:Drivers/lvgl/src/extra/themes/mono/../../../../src/hal/../draw/../misc/lv_color.h ****     /*Transparent foreground: use the Background*/
 541:Drivers/lvgl/src/extra/themes/mono/../../../../src/hal/../draw/../misc/lv_color.h ****     else if(fg_opa <= LV_OPA_MIN) {
 542:Drivers/lvgl/src/extra/themes/mono/../../../../src/hal/../draw/../misc/lv_color.h ****         res_color->full = bg_color.full;
 543:Drivers/lvgl/src/extra/themes/mono/../../../../src/hal/../draw/../misc/lv_color.h ****         *res_opa = bg_opa;
 544:Drivers/lvgl/src/extra/themes/mono/../../../../src/hal/../draw/../misc/lv_color.h ****     }
 545:Drivers/lvgl/src/extra/themes/mono/../../../../src/hal/../draw/../misc/lv_color.h ****     /*Opaque background: use simple mix*/
 546:Drivers/lvgl/src/extra/themes/mono/../../../../src/hal/../draw/../misc/lv_color.h ****     else if(bg_opa >= LV_OPA_MAX) {
 547:Drivers/lvgl/src/extra/themes/mono/../../../../src/hal/../draw/../misc/lv_color.h ****         *res_color = lv_color_mix(fg_color, bg_color, fg_opa);
 548:Drivers/lvgl/src/extra/themes/mono/../../../../src/hal/../draw/../misc/lv_color.h ****         *res_opa = LV_OPA_COVER;
 549:Drivers/lvgl/src/extra/themes/mono/../../../../src/hal/../draw/../misc/lv_color.h ****     }
 550:Drivers/lvgl/src/extra/themes/mono/../../../../src/hal/../draw/../misc/lv_color.h ****     /*Both colors have alpha. Expensive calculation need to be applied*/
 551:Drivers/lvgl/src/extra/themes/mono/../../../../src/hal/../draw/../misc/lv_color.h ****     else {
 552:Drivers/lvgl/src/extra/themes/mono/../../../../src/hal/../draw/../misc/lv_color.h ****         /*Save the parameters and the result. If they will be asked again don't compute again*/
 553:Drivers/lvgl/src/extra/themes/mono/../../../../src/hal/../draw/../misc/lv_color.h ****         static lv_opa_t fg_opa_save     = 0;
 554:Drivers/lvgl/src/extra/themes/mono/../../../../src/hal/../draw/../misc/lv_color.h ****         static lv_opa_t bg_opa_save     = 0;
 555:Drivers/lvgl/src/extra/themes/mono/../../../../src/hal/../draw/../misc/lv_color.h ****         static lv_color_t fg_color_save = _LV_COLOR_ZERO_INITIALIZER;
 556:Drivers/lvgl/src/extra/themes/mono/../../../../src/hal/../draw/../misc/lv_color.h ****         static lv_color_t bg_color_save = _LV_COLOR_ZERO_INITIALIZER;
 557:Drivers/lvgl/src/extra/themes/mono/../../../../src/hal/../draw/../misc/lv_color.h ****         static lv_color_t res_color_saved = _LV_COLOR_ZERO_INITIALIZER;
 558:Drivers/lvgl/src/extra/themes/mono/../../../../src/hal/../draw/../misc/lv_color.h ****         static lv_opa_t res_opa_saved = 0;
 559:Drivers/lvgl/src/extra/themes/mono/../../../../src/hal/../draw/../misc/lv_color.h **** 
 560:Drivers/lvgl/src/extra/themes/mono/../../../../src/hal/../draw/../misc/lv_color.h ****         if(fg_opa != fg_opa_save || bg_opa != bg_opa_save || fg_color.full != fg_color_save.full ||
 561:Drivers/lvgl/src/extra/themes/mono/../../../../src/hal/../draw/../misc/lv_color.h ****            bg_color.full != bg_color_save.full) {
 562:Drivers/lvgl/src/extra/themes/mono/../../../../src/hal/../draw/../misc/lv_color.h ****             fg_opa_save        = fg_opa;
 563:Drivers/lvgl/src/extra/themes/mono/../../../../src/hal/../draw/../misc/lv_color.h ****             bg_opa_save        = bg_opa;
 564:Drivers/lvgl/src/extra/themes/mono/../../../../src/hal/../draw/../misc/lv_color.h ****             fg_color_save.full = fg_color.full;
 565:Drivers/lvgl/src/extra/themes/mono/../../../../src/hal/../draw/../misc/lv_color.h ****             bg_color_save.full = bg_color.full;
 566:Drivers/lvgl/src/extra/themes/mono/../../../../src/hal/../draw/../misc/lv_color.h ****             /*Info:
ARM GAS  /var/folders/lp/x54gwt890xv47sdkqj1k04q40000gn/T//cc6ygGfE.s 			page 55


 567:Drivers/lvgl/src/extra/themes/mono/../../../../src/hal/../draw/../misc/lv_color.h ****              * https://en.wikipedia.org/wiki/Alpha_compositing#Analytical_derivation_of_the_over_op
 568:Drivers/lvgl/src/extra/themes/mono/../../../../src/hal/../draw/../misc/lv_color.h ****             res_opa_saved = 255 - ((uint16_t)((uint16_t)(255 - fg_opa) * (255 - bg_opa)) >> 8);
 569:Drivers/lvgl/src/extra/themes/mono/../../../../src/hal/../draw/../misc/lv_color.h ****             LV_ASSERT(res_opa_saved != 0);
 570:Drivers/lvgl/src/extra/themes/mono/../../../../src/hal/../draw/../misc/lv_color.h ****             lv_opa_t ratio = (uint16_t)((uint16_t)fg_opa * 255) / res_opa_saved;
 571:Drivers/lvgl/src/extra/themes/mono/../../../../src/hal/../draw/../misc/lv_color.h ****             res_color_saved = lv_color_mix(fg_color, bg_color, ratio);
 572:Drivers/lvgl/src/extra/themes/mono/../../../../src/hal/../draw/../misc/lv_color.h **** 
 573:Drivers/lvgl/src/extra/themes/mono/../../../../src/hal/../draw/../misc/lv_color.h ****         }
 574:Drivers/lvgl/src/extra/themes/mono/../../../../src/hal/../draw/../misc/lv_color.h **** 
 575:Drivers/lvgl/src/extra/themes/mono/../../../../src/hal/../draw/../misc/lv_color.h ****         res_color->full = res_color_saved.full;
 576:Drivers/lvgl/src/extra/themes/mono/../../../../src/hal/../draw/../misc/lv_color.h ****         *res_opa = res_opa_saved;
 577:Drivers/lvgl/src/extra/themes/mono/../../../../src/hal/../draw/../misc/lv_color.h ****     }
 578:Drivers/lvgl/src/extra/themes/mono/../../../../src/hal/../draw/../misc/lv_color.h **** }
 579:Drivers/lvgl/src/extra/themes/mono/../../../../src/hal/../draw/../misc/lv_color.h **** 
 580:Drivers/lvgl/src/extra/themes/mono/../../../../src/hal/../draw/../misc/lv_color.h **** //! @endcond
 581:Drivers/lvgl/src/extra/themes/mono/../../../../src/hal/../draw/../misc/lv_color.h **** 
 582:Drivers/lvgl/src/extra/themes/mono/../../../../src/hal/../draw/../misc/lv_color.h **** /**
 583:Drivers/lvgl/src/extra/themes/mono/../../../../src/hal/../draw/../misc/lv_color.h ****  * Get the brightness of a color
 584:Drivers/lvgl/src/extra/themes/mono/../../../../src/hal/../draw/../misc/lv_color.h ****  * @param color a color
 585:Drivers/lvgl/src/extra/themes/mono/../../../../src/hal/../draw/../misc/lv_color.h ****  * @return the brightness [0..255]
 586:Drivers/lvgl/src/extra/themes/mono/../../../../src/hal/../draw/../misc/lv_color.h ****  */
 587:Drivers/lvgl/src/extra/themes/mono/../../../../src/hal/../draw/../misc/lv_color.h **** static inline uint8_t lv_color_brightness(lv_color_t color)
 588:Drivers/lvgl/src/extra/themes/mono/../../../../src/hal/../draw/../misc/lv_color.h **** {
 589:Drivers/lvgl/src/extra/themes/mono/../../../../src/hal/../draw/../misc/lv_color.h ****     lv_color32_t c32;
 590:Drivers/lvgl/src/extra/themes/mono/../../../../src/hal/../draw/../misc/lv_color.h ****     c32.full        = lv_color_to32(color);
 591:Drivers/lvgl/src/extra/themes/mono/../../../../src/hal/../draw/../misc/lv_color.h ****     uint16_t bright = (uint16_t)(3u * LV_COLOR_GET_R32(c32) + LV_COLOR_GET_B32(c32) + 4u * LV_COLOR
 592:Drivers/lvgl/src/extra/themes/mono/../../../../src/hal/../draw/../misc/lv_color.h ****     return (uint8_t)(bright >> 3);
 593:Drivers/lvgl/src/extra/themes/mono/../../../../src/hal/../draw/../misc/lv_color.h **** }
 594:Drivers/lvgl/src/extra/themes/mono/../../../../src/hal/../draw/../misc/lv_color.h **** 
 595:Drivers/lvgl/src/extra/themes/mono/../../../../src/hal/../draw/../misc/lv_color.h **** static inline lv_color_t lv_color_make(uint8_t r, uint8_t g, uint8_t b)
 596:Drivers/lvgl/src/extra/themes/mono/../../../../src/hal/../draw/../misc/lv_color.h **** {
 597:Drivers/lvgl/src/extra/themes/mono/../../../../src/hal/../draw/../misc/lv_color.h ****     return _LV_COLOR_MAKE_TYPE_HELPER LV_COLOR_MAKE(r, g, b);
 598:Drivers/lvgl/src/extra/themes/mono/../../../../src/hal/../draw/../misc/lv_color.h **** }
 599:Drivers/lvgl/src/extra/themes/mono/../../../../src/hal/../draw/../misc/lv_color.h **** 
 600:Drivers/lvgl/src/extra/themes/mono/../../../../src/hal/../draw/../misc/lv_color.h **** static inline lv_color_t lv_color_hex(uint32_t c)
 601:Drivers/lvgl/src/extra/themes/mono/../../../../src/hal/../draw/../misc/lv_color.h **** {
 602:Drivers/lvgl/src/extra/themes/mono/../../../../src/hal/../draw/../misc/lv_color.h **** #if LV_COLOR_DEPTH == 16
 603:Drivers/lvgl/src/extra/themes/mono/../../../../src/hal/../draw/../misc/lv_color.h ****     lv_color_t r;
 604:Drivers/lvgl/src/extra/themes/mono/../../../../src/hal/../draw/../misc/lv_color.h **** #if LV_COLOR_16_SWAP == 0
 605:Drivers/lvgl/src/extra/themes/mono/../../../../src/hal/../draw/../misc/lv_color.h ****     /* Convert a 4 bytes per pixel in format ARGB32 to R5G6B5 format
 606:Drivers/lvgl/src/extra/themes/mono/../../../../src/hal/../draw/../misc/lv_color.h ****         naive way (by calling lv_color_make with components):
 607:Drivers/lvgl/src/extra/themes/mono/../../../../src/hal/../draw/../misc/lv_color.h ****                     r = ((c & 0xFF0000) >> 19)
 608:Drivers/lvgl/src/extra/themes/mono/../../../../src/hal/../draw/../misc/lv_color.h ****                     g = ((c & 0xFF00) >> 10)
 609:Drivers/lvgl/src/extra/themes/mono/../../../../src/hal/../draw/../misc/lv_color.h ****                     b = ((c & 0xFF) >> 3)
 610:Drivers/lvgl/src/extra/themes/mono/../../../../src/hal/../draw/../misc/lv_color.h ****                     rgb565 = (r << 11) | (g << 5) | b
 611:Drivers/lvgl/src/extra/themes/mono/../../../../src/hal/../draw/../misc/lv_color.h ****         That's 3 mask, 5 bitshift and 2 or operations
 612:Drivers/lvgl/src/extra/themes/mono/../../../../src/hal/../draw/../misc/lv_color.h **** 
 613:Drivers/lvgl/src/extra/themes/mono/../../../../src/hal/../draw/../misc/lv_color.h ****         A bit better:
 614:Drivers/lvgl/src/extra/themes/mono/../../../../src/hal/../draw/../misc/lv_color.h ****                     r = ((c & 0xF80000) >> 8)
 615:Drivers/lvgl/src/extra/themes/mono/../../../../src/hal/../draw/../misc/lv_color.h ****                     g = ((c & 0xFC00) >> 5)
 616:Drivers/lvgl/src/extra/themes/mono/../../../../src/hal/../draw/../misc/lv_color.h ****                     b = ((c & 0xFF) >> 3)
 617:Drivers/lvgl/src/extra/themes/mono/../../../../src/hal/../draw/../misc/lv_color.h ****                     rgb565 = r | g | b
 618:Drivers/lvgl/src/extra/themes/mono/../../../../src/hal/../draw/../misc/lv_color.h ****         That's 3 mask, 3 bitshifts and 2 or operations */
 619:Drivers/lvgl/src/extra/themes/mono/../../../../src/hal/../draw/../misc/lv_color.h ****     r.full = (uint16_t)(((c & 0xF80000) >> 8) | ((c & 0xFC00) >> 5) | ((c & 0xFF) >> 3));
 620:Drivers/lvgl/src/extra/themes/mono/../../../../src/hal/../draw/../misc/lv_color.h **** #else
 621:Drivers/lvgl/src/extra/themes/mono/../../../../src/hal/../draw/../misc/lv_color.h ****     /* We want: rrrr rrrr GGGg gggg bbbb bbbb => gggb bbbb rrrr rGGG */
 622:Drivers/lvgl/src/extra/themes/mono/../../../../src/hal/../draw/../misc/lv_color.h ****     r.full = (uint16_t)(((c & 0xF80000) >> 16) | ((c & 0xFC00) >> 13) | ((c & 0x1C00) << 3) | ((c &
 623:Drivers/lvgl/src/extra/themes/mono/../../../../src/hal/../draw/../misc/lv_color.h **** #endif
ARM GAS  /var/folders/lp/x54gwt890xv47sdkqj1k04q40000gn/T//cc6ygGfE.s 			page 56


 624:Drivers/lvgl/src/extra/themes/mono/../../../../src/hal/../draw/../misc/lv_color.h ****     return r;
 625:Drivers/lvgl/src/extra/themes/mono/../../../../src/hal/../draw/../misc/lv_color.h **** #elif LV_COLOR_DEPTH == 32
 626:Drivers/lvgl/src/extra/themes/mono/../../../../src/hal/../draw/../misc/lv_color.h ****     lv_color_t r;
 627:Drivers/lvgl/src/extra/themes/mono/../../../../src/hal/../draw/../misc/lv_color.h ****     r.full = c | 0xFF000000;
 628:Drivers/lvgl/src/extra/themes/mono/../../../../src/hal/../draw/../misc/lv_color.h ****     return r;
 629:Drivers/lvgl/src/extra/themes/mono/../../../../src/hal/../draw/../misc/lv_color.h **** #else /*LV_COLOR_DEPTH == 8*/
 630:Drivers/lvgl/src/extra/themes/mono/../../../../src/hal/../draw/../misc/lv_color.h ****     return lv_color_make((uint8_t)((c >> 16) & 0xFF), (uint8_t)((c >> 8) & 0xFF), (uint8_t)(c & 0xF
 631:Drivers/lvgl/src/extra/themes/mono/../../../../src/hal/../draw/../misc/lv_color.h **** #endif
 632:Drivers/lvgl/src/extra/themes/mono/../../../../src/hal/../draw/../misc/lv_color.h **** }
 633:Drivers/lvgl/src/extra/themes/mono/../../../../src/hal/../draw/../misc/lv_color.h **** 
 634:Drivers/lvgl/src/extra/themes/mono/../../../../src/hal/../draw/../misc/lv_color.h **** static inline lv_color_t lv_color_hex3(uint32_t c)
 635:Drivers/lvgl/src/extra/themes/mono/../../../../src/hal/../draw/../misc/lv_color.h **** {
 636:Drivers/lvgl/src/extra/themes/mono/../../../../src/hal/../draw/../misc/lv_color.h ****     return lv_color_make((uint8_t)(((c >> 4) & 0xF0) | ((c >> 8) & 0xF)), (uint8_t)((c & 0xF0) | ((
 637:Drivers/lvgl/src/extra/themes/mono/../../../../src/hal/../draw/../misc/lv_color.h ****                          (uint8_t)((c & 0xF) | ((c & 0xF) << 4)));
 638:Drivers/lvgl/src/extra/themes/mono/../../../../src/hal/../draw/../misc/lv_color.h **** }
 639:Drivers/lvgl/src/extra/themes/mono/../../../../src/hal/../draw/../misc/lv_color.h **** 
 640:Drivers/lvgl/src/extra/themes/mono/../../../../src/hal/../draw/../misc/lv_color.h **** static inline void lv_color_filter_dsc_init(lv_color_filter_dsc_t * dsc, lv_color_filter_cb_t cb)
 641:Drivers/lvgl/src/extra/themes/mono/../../../../src/hal/../draw/../misc/lv_color.h **** {
 642:Drivers/lvgl/src/extra/themes/mono/../../../../src/hal/../draw/../misc/lv_color.h ****     dsc->filter_cb = cb;
 643:Drivers/lvgl/src/extra/themes/mono/../../../../src/hal/../draw/../misc/lv_color.h **** }
 644:Drivers/lvgl/src/extra/themes/mono/../../../../src/hal/../draw/../misc/lv_color.h **** 
 645:Drivers/lvgl/src/extra/themes/mono/../../../../src/hal/../draw/../misc/lv_color.h **** //! @cond Doxygen_Suppress
 646:Drivers/lvgl/src/extra/themes/mono/../../../../src/hal/../draw/../misc/lv_color.h **** //!
 647:Drivers/lvgl/src/extra/themes/mono/../../../../src/hal/../draw/../misc/lv_color.h **** void /* LV_ATTRIBUTE_FAST_MEM */ lv_color_fill(lv_color_t * buf, lv_color_t color, uint32_t px_num)
 648:Drivers/lvgl/src/extra/themes/mono/../../../../src/hal/../draw/../misc/lv_color.h **** 
 649:Drivers/lvgl/src/extra/themes/mono/../../../../src/hal/../draw/../misc/lv_color.h **** //! @endcond
 650:Drivers/lvgl/src/extra/themes/mono/../../../../src/hal/../draw/../misc/lv_color.h **** lv_color_t lv_color_lighten(lv_color_t c, lv_opa_t lvl);
 651:Drivers/lvgl/src/extra/themes/mono/../../../../src/hal/../draw/../misc/lv_color.h **** 
 652:Drivers/lvgl/src/extra/themes/mono/../../../../src/hal/../draw/../misc/lv_color.h **** lv_color_t lv_color_darken(lv_color_t c, lv_opa_t lvl);
 653:Drivers/lvgl/src/extra/themes/mono/../../../../src/hal/../draw/../misc/lv_color.h **** 
 654:Drivers/lvgl/src/extra/themes/mono/../../../../src/hal/../draw/../misc/lv_color.h **** lv_color_t lv_color_change_lightness(lv_color_t c, lv_opa_t lvl);
 655:Drivers/lvgl/src/extra/themes/mono/../../../../src/hal/../draw/../misc/lv_color.h **** 
 656:Drivers/lvgl/src/extra/themes/mono/../../../../src/hal/../draw/../misc/lv_color.h **** /**
 657:Drivers/lvgl/src/extra/themes/mono/../../../../src/hal/../draw/../misc/lv_color.h ****  * Convert a HSV color to RGB
 658:Drivers/lvgl/src/extra/themes/mono/../../../../src/hal/../draw/../misc/lv_color.h ****  * @param h hue [0..359]
 659:Drivers/lvgl/src/extra/themes/mono/../../../../src/hal/../draw/../misc/lv_color.h ****  * @param s saturation [0..100]
 660:Drivers/lvgl/src/extra/themes/mono/../../../../src/hal/../draw/../misc/lv_color.h ****  * @param v value [0..100]
 661:Drivers/lvgl/src/extra/themes/mono/../../../../src/hal/../draw/../misc/lv_color.h ****  * @return the given RGB color in RGB (with LV_COLOR_DEPTH depth)
 662:Drivers/lvgl/src/extra/themes/mono/../../../../src/hal/../draw/../misc/lv_color.h ****  */
 663:Drivers/lvgl/src/extra/themes/mono/../../../../src/hal/../draw/../misc/lv_color.h **** lv_color_t lv_color_hsv_to_rgb(uint16_t h, uint8_t s, uint8_t v);
 664:Drivers/lvgl/src/extra/themes/mono/../../../../src/hal/../draw/../misc/lv_color.h **** 
 665:Drivers/lvgl/src/extra/themes/mono/../../../../src/hal/../draw/../misc/lv_color.h **** /**
 666:Drivers/lvgl/src/extra/themes/mono/../../../../src/hal/../draw/../misc/lv_color.h ****  * Convert a 32-bit RGB color to HSV
 667:Drivers/lvgl/src/extra/themes/mono/../../../../src/hal/../draw/../misc/lv_color.h ****  * @param r8 8-bit red
 668:Drivers/lvgl/src/extra/themes/mono/../../../../src/hal/../draw/../misc/lv_color.h ****  * @param g8 8-bit green
 669:Drivers/lvgl/src/extra/themes/mono/../../../../src/hal/../draw/../misc/lv_color.h ****  * @param b8 8-bit blue
 670:Drivers/lvgl/src/extra/themes/mono/../../../../src/hal/../draw/../misc/lv_color.h ****  * @return the given RGB color in HSV
 671:Drivers/lvgl/src/extra/themes/mono/../../../../src/hal/../draw/../misc/lv_color.h ****  */
 672:Drivers/lvgl/src/extra/themes/mono/../../../../src/hal/../draw/../misc/lv_color.h **** lv_color_hsv_t lv_color_rgb_to_hsv(uint8_t r8, uint8_t g8, uint8_t b8);
 673:Drivers/lvgl/src/extra/themes/mono/../../../../src/hal/../draw/../misc/lv_color.h **** 
 674:Drivers/lvgl/src/extra/themes/mono/../../../../src/hal/../draw/../misc/lv_color.h **** /**
 675:Drivers/lvgl/src/extra/themes/mono/../../../../src/hal/../draw/../misc/lv_color.h ****  * Convert a color to HSV
 676:Drivers/lvgl/src/extra/themes/mono/../../../../src/hal/../draw/../misc/lv_color.h ****  * @param color color
 677:Drivers/lvgl/src/extra/themes/mono/../../../../src/hal/../draw/../misc/lv_color.h ****  * @return the given color in HSV
 678:Drivers/lvgl/src/extra/themes/mono/../../../../src/hal/../draw/../misc/lv_color.h ****  */
 679:Drivers/lvgl/src/extra/themes/mono/../../../../src/hal/../draw/../misc/lv_color.h **** lv_color_hsv_t lv_color_to_hsv(lv_color_t color);
 680:Drivers/lvgl/src/extra/themes/mono/../../../../src/hal/../draw/../misc/lv_color.h **** 
ARM GAS  /var/folders/lp/x54gwt890xv47sdkqj1k04q40000gn/T//cc6ygGfE.s 			page 57


 681:Drivers/lvgl/src/extra/themes/mono/../../../../src/hal/../draw/../misc/lv_color.h **** /**
 682:Drivers/lvgl/src/extra/themes/mono/../../../../src/hal/../draw/../misc/lv_color.h ****  * Just a wrapper around LV_COLOR_CHROMA_KEY because it might be more convenient to use a function 
 683:Drivers/lvgl/src/extra/themes/mono/../../../../src/hal/../draw/../misc/lv_color.h ****  * @return LV_COLOR_CHROMA_KEY
 684:Drivers/lvgl/src/extra/themes/mono/../../../../src/hal/../draw/../misc/lv_color.h ****  */
 685:Drivers/lvgl/src/extra/themes/mono/../../../../src/hal/../draw/../misc/lv_color.h **** static inline lv_color_t lv_color_chroma_key(void)
 686:Drivers/lvgl/src/extra/themes/mono/../../../../src/hal/../draw/../misc/lv_color.h **** {
 687:Drivers/lvgl/src/extra/themes/mono/../../../../src/hal/../draw/../misc/lv_color.h ****     return LV_COLOR_CHROMA_KEY;
 688:Drivers/lvgl/src/extra/themes/mono/../../../../src/hal/../draw/../misc/lv_color.h **** }
 689:Drivers/lvgl/src/extra/themes/mono/../../../../src/hal/../draw/../misc/lv_color.h **** 
 690:Drivers/lvgl/src/extra/themes/mono/../../../../src/hal/../draw/../misc/lv_color.h **** /**********************
 691:Drivers/lvgl/src/extra/themes/mono/../../../../src/hal/../draw/../misc/lv_color.h ****  *  PREDEFINED COLORS
 692:Drivers/lvgl/src/extra/themes/mono/../../../../src/hal/../draw/../misc/lv_color.h ****  **********************/
 693:Drivers/lvgl/src/extra/themes/mono/../../../../src/hal/../draw/../misc/lv_color.h **** /*Source: https://vuetifyjs.com/en/styles/colors/#material-colors*/
 694:Drivers/lvgl/src/extra/themes/mono/../../../../src/hal/../draw/../misc/lv_color.h **** 
 695:Drivers/lvgl/src/extra/themes/mono/../../../../src/hal/../draw/../misc/lv_color.h **** lv_color_t lv_palette_main(lv_palette_t p);
 696:Drivers/lvgl/src/extra/themes/mono/../../../../src/hal/../draw/../misc/lv_color.h **** static inline lv_color_t lv_color_white(void)
 1693              		.loc 2 696 26 view .LVU367
 1694              	.LBB196:
 697:Drivers/lvgl/src/extra/themes/mono/../../../../src/hal/../draw/../misc/lv_color.h **** {
 698:Drivers/lvgl/src/extra/themes/mono/../../../../src/hal/../draw/../misc/lv_color.h ****     return lv_color_make(0xff, 0xff, 0xff);
 1695              		.loc 2 698 5 view .LVU368
 1696              	.L82:
 1697 009e 4FF00001 		mov	r1, #0	@ movhi
 1698 00a2 67F30201 		bfi	r1, r7, #0, #3
 1699 00a6 68F3C701 		bfi	r1, r8, #3, #5
 1700 00aa 68F30C21 		bfi	r1, r8, #8, #5
 1701 00ae 67F34F31 		bfi	r1, r7, #13, #3
 1702              	.LBE196:
 1703              	.LBE195:
  87:Drivers/lvgl/src/extra/themes/mono/lv_theme_mono.c ****     lv_style_set_pad_row(&styles->scr, PAD_DEF);
 1704              		.loc 1 87 5 is_stmt 0 discriminator 4 view .LVU369
 1705 00b2 FFF7FEFF 		bl	lv_style_set_text_color
 1706              	.LVL172:
  88:Drivers/lvgl/src/extra/themes/mono/lv_theme_mono.c ****     lv_style_set_pad_column(&styles->scr, PAD_DEF);
 1707              		.loc 1 88 5 is_stmt 1 view .LVU370
 1708 00b6 2068     		ldr	r0, [r4]
 1709 00b8 0421     		movs	r1, #4
 1710 00ba FFF7FEFF 		bl	lv_style_set_pad_row
 1711              	.LVL173:
  89:Drivers/lvgl/src/extra/themes/mono/lv_theme_mono.c ****     lv_style_set_text_font(&styles->scr, font);
 1712              		.loc 1 89 5 view .LVU371
 1713 00be 2068     		ldr	r0, [r4]
 1714 00c0 0421     		movs	r1, #4
 1715 00c2 FFF7FEFF 		bl	lv_style_set_pad_column
 1716              	.LVL174:
  90:Drivers/lvgl/src/extra/themes/mono/lv_theme_mono.c **** 
 1717              		.loc 1 90 5 view .LVU372
 1718 00c6 2068     		ldr	r0, [r4]
 1719 00c8 5946     		mov	r1, fp
 1720 00ca FFF7FEFF 		bl	lv_style_set_text_font
 1721              	.LVL175:
  92:Drivers/lvgl/src/extra/themes/mono/lv_theme_mono.c ****     lv_style_set_bg_opa(&styles->card, LV_OPA_COVER);
 1722              		.loc 1 92 5 view .LVU373
 1723 00ce 2068     		ldr	r0, [r4]
 1724              	.LBB197:
 1725              	.LBB198:
 496:Drivers/lvgl/src/extra/themes/mono/lv_theme_mono.c ****         lv_style_reset(style);
ARM GAS  /var/folders/lp/x54gwt890xv47sdkqj1k04q40000gn/T//cc6ygGfE.s 			page 58


 1726              		.loc 1 496 7 is_stmt 0 view .LVU374
 1727 00d0 2B78     		ldrb	r3, [r5]	@ zero_extendqisi2
 1728              	.LBE198:
 1729              	.LBE197:
  92:Drivers/lvgl/src/extra/themes/mono/lv_theme_mono.c ****     lv_style_set_bg_opa(&styles->card, LV_OPA_COVER);
 1730              		.loc 1 92 5 view .LVU375
 1731 00d2 0830     		adds	r0, r0, #8
 1732              	.LVL176:
 1733              	.LBB201:
 1734              	.LBI197:
 494:Drivers/lvgl/src/extra/themes/mono/lv_theme_mono.c **** {
 1735              		.loc 1 494 13 is_stmt 1 view .LVU376
 1736              	.LBB199:
 496:Drivers/lvgl/src/extra/themes/mono/lv_theme_mono.c ****         lv_style_reset(style);
 1737              		.loc 1 496 5 view .LVU377
 496:Drivers/lvgl/src/extra/themes/mono/lv_theme_mono.c ****         lv_style_reset(style);
 1738              		.loc 1 496 7 is_stmt 0 view .LVU378
 1739 00d4 002B     		cmp	r3, #0
 1740 00d6 00F01882 		beq	.L83
 1741              		.loc 1 497 9 is_stmt 1 view .LVU379
 1742 00da FFF7FEFF 		bl	lv_style_reset
 1743              	.LVL177:
 1744              	.L84:
 1745              		.loc 1 497 9 is_stmt 0 view .LVU380
 1746              	.LBE199:
 1747              	.LBE201:
  93:Drivers/lvgl/src/extra/themes/mono/lv_theme_mono.c ****     lv_style_set_bg_color(&styles->card, COLOR_BG);
 1748              		.loc 1 93 5 is_stmt 1 view .LVU381
 1749 00de 2068     		ldr	r0, [r4]
 1750 00e0 FF21     		movs	r1, #255
 1751 00e2 0830     		adds	r0, r0, #8
 1752 00e4 FFF7FEFF 		bl	lv_style_set_bg_opa
 1753              	.LVL178:
  94:Drivers/lvgl/src/extra/themes/mono/lv_theme_mono.c ****     lv_style_set_border_color(&styles->card, COLOR_FG);
 1754              		.loc 1 94 5 view .LVU382
 1755 00e8 2068     		ldr	r0, [r4]
 1756 00ea 0830     		adds	r0, r0, #8
 1757 00ec 002E     		cmp	r6, #0
 1758 00ee 00F00582 		beq	.L85
  94:Drivers/lvgl/src/extra/themes/mono/lv_theme_mono.c ****     lv_style_set_border_color(&styles->card, COLOR_FG);
 1759              		.loc 1 94 5 is_stmt 0 discriminator 4 view .LVU383
 1760 00f2 4FF00001 		mov	r1, #0	@ movhi
 1761 00f6 FFF7FEFF 		bl	lv_style_set_bg_color
 1762              	.LVL179:
  95:Drivers/lvgl/src/extra/themes/mono/lv_theme_mono.c ****     lv_style_set_radius(&styles->card, 2);
 1763              		.loc 1 95 5 is_stmt 1 view .LVU384
 1764 00fa 2068     		ldr	r0, [r4]
 1765 00fc 0830     		adds	r0, r0, #8
 1766              	.LBB202:
 1767              	.LBI202:
 696:Drivers/lvgl/src/extra/themes/mono/../../../../src/hal/../draw/../misc/lv_color.h **** {
 1768              		.loc 2 696 26 view .LVU385
 1769              	.LBB203:
 1770              		.loc 2 698 5 view .LVU386
 1771              	.L86:
 1772 00fe 4FF00001 		mov	r1, #0	@ movhi
 1773 0102 67F30201 		bfi	r1, r7, #0, #3
ARM GAS  /var/folders/lp/x54gwt890xv47sdkqj1k04q40000gn/T//cc6ygGfE.s 			page 59


 1774 0106 68F3C701 		bfi	r1, r8, #3, #5
 1775 010a 68F30C21 		bfi	r1, r8, #8, #5
 1776 010e 67F34F31 		bfi	r1, r7, #13, #3
 1777              	.LBE203:
 1778              	.LBE202:
  95:Drivers/lvgl/src/extra/themes/mono/lv_theme_mono.c ****     lv_style_set_radius(&styles->card, 2);
 1779              		.loc 1 95 5 is_stmt 0 discriminator 4 view .LVU387
 1780 0112 FFF7FEFF 		bl	lv_style_set_border_color
 1781              	.LVL180:
  96:Drivers/lvgl/src/extra/themes/mono/lv_theme_mono.c ****     lv_style_set_border_width(&styles->card, BORDER_W_NORMAL);
 1782              		.loc 1 96 5 is_stmt 1 view .LVU388
 1783 0116 2068     		ldr	r0, [r4]
 1784 0118 0221     		movs	r1, #2
 1785 011a 0830     		adds	r0, r0, #8
 1786 011c FFF7FEFF 		bl	lv_style_set_radius
 1787              	.LVL181:
  97:Drivers/lvgl/src/extra/themes/mono/lv_theme_mono.c ****     lv_style_set_pad_all(&styles->card, PAD_DEF);
 1788              		.loc 1 97 5 view .LVU389
 1789 0120 2068     		ldr	r0, [r4]
 1790 0122 0121     		movs	r1, #1
 1791 0124 0830     		adds	r0, r0, #8
 1792 0126 FFF7FEFF 		bl	lv_style_set_border_width
 1793              	.LVL182:
  98:Drivers/lvgl/src/extra/themes/mono/lv_theme_mono.c ****     lv_style_set_pad_gap(&styles->card, PAD_DEF);
 1794              		.loc 1 98 5 view .LVU390
 1795 012a 2368     		ldr	r3, [r4]
 1796 012c 03F1080B 		add	fp, r3, #8
 1797              	.LVL183:
 1798              	.LBB204:
 1799              	.LBI204:
 1800              		.file 3 "Drivers/lvgl/src/extra/themes/mono/../../../../src/hal/../draw/../misc/lv_style.h"
   1:Drivers/lvgl/src/extra/themes/mono/../../../../src/hal/../draw/../misc/lv_style.h **** /**
   2:Drivers/lvgl/src/extra/themes/mono/../../../../src/hal/../draw/../misc/lv_style.h ****  * @file lv_style.h
   3:Drivers/lvgl/src/extra/themes/mono/../../../../src/hal/../draw/../misc/lv_style.h ****  *
   4:Drivers/lvgl/src/extra/themes/mono/../../../../src/hal/../draw/../misc/lv_style.h ****  */
   5:Drivers/lvgl/src/extra/themes/mono/../../../../src/hal/../draw/../misc/lv_style.h **** 
