ARM GAS  /var/folders/0z/tsy30v1j4xl4_7kw94k978ww0000gn/T//ccpjA8w7.s 			page 1


   1              		.cpu cortex-m4
   2              		.arch armv7e-m
   3              		.fpu fpv4-sp-d16
   4              		.eabi_attribute 27, 1
   5              		.eabi_attribute 28, 1
   6              		.eabi_attribute 20, 1
   7              		.eabi_attribute 21, 1
   8              		.eabi_attribute 23, 3
   9              		.eabi_attribute 24, 1
  10              		.eabi_attribute 25, 1
  11              		.eabi_attribute 26, 1
  12              		.eabi_attribute 30, 2
  13              		.eabi_attribute 34, 1
  14              		.eabi_attribute 18, 4
  15              		.file	"lv_tileview.c"
  16              		.text
  17              	.Ltext0:
  18              		.cfi_sections	.debug_frame
  19              		.section	.text.lv_tileview_constructor,"ax",%progbits
  20              		.align	1
  21              		.p2align 2,,3
  22              		.syntax unified
  23              		.thumb
  24              		.thumb_func
  26              	lv_tileview_constructor:
  27              	.LVL0:
  28              	.LFB166:
  29              		.file 1 "Drivers/lvgl/src/extra/widgets/tileview/lv_tileview.c"
   1:Drivers/lvgl/src/extra/widgets/tileview/lv_tileview.c **** /**
   2:Drivers/lvgl/src/extra/widgets/tileview/lv_tileview.c ****  * @file lv_tileview.c
   3:Drivers/lvgl/src/extra/widgets/tileview/lv_tileview.c ****  *
   4:Drivers/lvgl/src/extra/widgets/tileview/lv_tileview.c ****  */
   5:Drivers/lvgl/src/extra/widgets/tileview/lv_tileview.c **** 
   6:Drivers/lvgl/src/extra/widgets/tileview/lv_tileview.c **** /*********************
   7:Drivers/lvgl/src/extra/widgets/tileview/lv_tileview.c ****  *      INCLUDES
   8:Drivers/lvgl/src/extra/widgets/tileview/lv_tileview.c ****  *********************/
   9:Drivers/lvgl/src/extra/widgets/tileview/lv_tileview.c **** #include "lv_tileview.h"
  10:Drivers/lvgl/src/extra/widgets/tileview/lv_tileview.c **** #include "../../../core/lv_indev.h"
  11:Drivers/lvgl/src/extra/widgets/tileview/lv_tileview.c **** #if LV_USE_TILEVIEW
  12:Drivers/lvgl/src/extra/widgets/tileview/lv_tileview.c **** 
  13:Drivers/lvgl/src/extra/widgets/tileview/lv_tileview.c **** /*********************
  14:Drivers/lvgl/src/extra/widgets/tileview/lv_tileview.c ****  *      DEFINES
  15:Drivers/lvgl/src/extra/widgets/tileview/lv_tileview.c ****  *********************/
  16:Drivers/lvgl/src/extra/widgets/tileview/lv_tileview.c **** 
  17:Drivers/lvgl/src/extra/widgets/tileview/lv_tileview.c **** /**********************
  18:Drivers/lvgl/src/extra/widgets/tileview/lv_tileview.c ****  *      TYPEDEFS
  19:Drivers/lvgl/src/extra/widgets/tileview/lv_tileview.c ****  **********************/
  20:Drivers/lvgl/src/extra/widgets/tileview/lv_tileview.c **** 
  21:Drivers/lvgl/src/extra/widgets/tileview/lv_tileview.c **** /**********************
  22:Drivers/lvgl/src/extra/widgets/tileview/lv_tileview.c ****  *  STATIC PROTOTYPES
  23:Drivers/lvgl/src/extra/widgets/tileview/lv_tileview.c ****  **********************/
  24:Drivers/lvgl/src/extra/widgets/tileview/lv_tileview.c **** static void lv_tileview_constructor(const lv_obj_class_t * class_p, lv_obj_t * obj);
  25:Drivers/lvgl/src/extra/widgets/tileview/lv_tileview.c **** static void lv_tileview_tile_constructor(const lv_obj_class_t * class_p, lv_obj_t * obj);
  26:Drivers/lvgl/src/extra/widgets/tileview/lv_tileview.c **** static void tileview_event_cb(lv_event_t * e);
  27:Drivers/lvgl/src/extra/widgets/tileview/lv_tileview.c **** 
  28:Drivers/lvgl/src/extra/widgets/tileview/lv_tileview.c **** /**********************
  29:Drivers/lvgl/src/extra/widgets/tileview/lv_tileview.c ****  *  STATIC VARIABLES
ARM GAS  /var/folders/0z/tsy30v1j4xl4_7kw94k978ww0000gn/T//ccpjA8w7.s 			page 2


  30:Drivers/lvgl/src/extra/widgets/tileview/lv_tileview.c ****  **********************/
  31:Drivers/lvgl/src/extra/widgets/tileview/lv_tileview.c **** 
  32:Drivers/lvgl/src/extra/widgets/tileview/lv_tileview.c **** const lv_obj_class_t lv_tileview_class = {.constructor_cb = lv_tileview_constructor,
  33:Drivers/lvgl/src/extra/widgets/tileview/lv_tileview.c ****                                           .base_class = &lv_obj_class,
  34:Drivers/lvgl/src/extra/widgets/tileview/lv_tileview.c ****                                           .instance_size = sizeof(lv_tileview_t)
  35:Drivers/lvgl/src/extra/widgets/tileview/lv_tileview.c ****                                          };
  36:Drivers/lvgl/src/extra/widgets/tileview/lv_tileview.c **** 
  37:Drivers/lvgl/src/extra/widgets/tileview/lv_tileview.c **** const lv_obj_class_t lv_tileview_tile_class = {.constructor_cb = lv_tileview_tile_constructor,
  38:Drivers/lvgl/src/extra/widgets/tileview/lv_tileview.c ****                                                .base_class = &lv_obj_class,
  39:Drivers/lvgl/src/extra/widgets/tileview/lv_tileview.c ****                                                .instance_size = sizeof(lv_tileview_tile_t)
  40:Drivers/lvgl/src/extra/widgets/tileview/lv_tileview.c ****                                               };
  41:Drivers/lvgl/src/extra/widgets/tileview/lv_tileview.c **** 
  42:Drivers/lvgl/src/extra/widgets/tileview/lv_tileview.c **** static lv_dir_t create_dir;
  43:Drivers/lvgl/src/extra/widgets/tileview/lv_tileview.c **** static uint32_t create_col_id;
  44:Drivers/lvgl/src/extra/widgets/tileview/lv_tileview.c **** static uint32_t create_row_id;
  45:Drivers/lvgl/src/extra/widgets/tileview/lv_tileview.c **** 
  46:Drivers/lvgl/src/extra/widgets/tileview/lv_tileview.c **** /**********************
  47:Drivers/lvgl/src/extra/widgets/tileview/lv_tileview.c ****  *      MACROS
  48:Drivers/lvgl/src/extra/widgets/tileview/lv_tileview.c ****  **********************/
  49:Drivers/lvgl/src/extra/widgets/tileview/lv_tileview.c **** 
  50:Drivers/lvgl/src/extra/widgets/tileview/lv_tileview.c **** /**********************
  51:Drivers/lvgl/src/extra/widgets/tileview/lv_tileview.c ****  *   GLOBAL FUNCTIONS
  52:Drivers/lvgl/src/extra/widgets/tileview/lv_tileview.c ****  **********************/
  53:Drivers/lvgl/src/extra/widgets/tileview/lv_tileview.c **** 
  54:Drivers/lvgl/src/extra/widgets/tileview/lv_tileview.c **** lv_obj_t * lv_tileview_create(lv_obj_t * parent)
  55:Drivers/lvgl/src/extra/widgets/tileview/lv_tileview.c **** {
  56:Drivers/lvgl/src/extra/widgets/tileview/lv_tileview.c ****     LV_LOG_INFO("begin");
  57:Drivers/lvgl/src/extra/widgets/tileview/lv_tileview.c ****     lv_obj_t * obj = lv_obj_class_create_obj(&lv_tileview_class, parent);
  58:Drivers/lvgl/src/extra/widgets/tileview/lv_tileview.c ****     lv_obj_class_init_obj(obj);
  59:Drivers/lvgl/src/extra/widgets/tileview/lv_tileview.c ****     return obj;
  60:Drivers/lvgl/src/extra/widgets/tileview/lv_tileview.c **** }
  61:Drivers/lvgl/src/extra/widgets/tileview/lv_tileview.c **** 
  62:Drivers/lvgl/src/extra/widgets/tileview/lv_tileview.c **** /*======================
  63:Drivers/lvgl/src/extra/widgets/tileview/lv_tileview.c ****  * Add/remove functions
  64:Drivers/lvgl/src/extra/widgets/tileview/lv_tileview.c ****  *=====================*/
  65:Drivers/lvgl/src/extra/widgets/tileview/lv_tileview.c **** 
  66:Drivers/lvgl/src/extra/widgets/tileview/lv_tileview.c **** lv_obj_t * lv_tileview_add_tile(lv_obj_t * tv, uint8_t col_id, uint8_t row_id, lv_dir_t dir)
  67:Drivers/lvgl/src/extra/widgets/tileview/lv_tileview.c **** {
  68:Drivers/lvgl/src/extra/widgets/tileview/lv_tileview.c ****     LV_LOG_INFO("begin");
  69:Drivers/lvgl/src/extra/widgets/tileview/lv_tileview.c ****     create_dir = dir;
  70:Drivers/lvgl/src/extra/widgets/tileview/lv_tileview.c ****     create_col_id = col_id;
  71:Drivers/lvgl/src/extra/widgets/tileview/lv_tileview.c ****     create_row_id = row_id;
  72:Drivers/lvgl/src/extra/widgets/tileview/lv_tileview.c **** 
  73:Drivers/lvgl/src/extra/widgets/tileview/lv_tileview.c ****     lv_obj_t * obj = lv_obj_class_create_obj(&lv_tileview_tile_class, tv);
  74:Drivers/lvgl/src/extra/widgets/tileview/lv_tileview.c ****     lv_obj_class_init_obj(obj);
  75:Drivers/lvgl/src/extra/widgets/tileview/lv_tileview.c ****     return obj;
  76:Drivers/lvgl/src/extra/widgets/tileview/lv_tileview.c **** }
  77:Drivers/lvgl/src/extra/widgets/tileview/lv_tileview.c **** 
  78:Drivers/lvgl/src/extra/widgets/tileview/lv_tileview.c **** void lv_obj_set_tile(lv_obj_t * obj, lv_obj_t * tile_obj, lv_anim_enable_t anim_en)
  79:Drivers/lvgl/src/extra/widgets/tileview/lv_tileview.c **** {
  80:Drivers/lvgl/src/extra/widgets/tileview/lv_tileview.c ****     lv_coord_t tx = lv_obj_get_x(tile_obj);
  81:Drivers/lvgl/src/extra/widgets/tileview/lv_tileview.c ****     lv_coord_t ty = lv_obj_get_y(tile_obj);
  82:Drivers/lvgl/src/extra/widgets/tileview/lv_tileview.c **** 
  83:Drivers/lvgl/src/extra/widgets/tileview/lv_tileview.c ****     lv_tileview_tile_t * tile = (lv_tileview_tile_t *)tile_obj;
  84:Drivers/lvgl/src/extra/widgets/tileview/lv_tileview.c ****     lv_tileview_t * tv = (lv_tileview_t *) obj;
  85:Drivers/lvgl/src/extra/widgets/tileview/lv_tileview.c ****     tv->tile_act = (lv_obj_t *)tile;
  86:Drivers/lvgl/src/extra/widgets/tileview/lv_tileview.c **** 
ARM GAS  /var/folders/0z/tsy30v1j4xl4_7kw94k978ww0000gn/T//ccpjA8w7.s 			page 3


  87:Drivers/lvgl/src/extra/widgets/tileview/lv_tileview.c ****     lv_obj_set_scroll_dir(obj, tile->dir);
  88:Drivers/lvgl/src/extra/widgets/tileview/lv_tileview.c ****     lv_obj_scroll_to(obj, tx, ty, anim_en);
  89:Drivers/lvgl/src/extra/widgets/tileview/lv_tileview.c **** }
  90:Drivers/lvgl/src/extra/widgets/tileview/lv_tileview.c **** 
  91:Drivers/lvgl/src/extra/widgets/tileview/lv_tileview.c **** void lv_obj_set_tile_id(lv_obj_t * tv, uint32_t col_id, uint32_t row_id, lv_anim_enable_t anim_en)
  92:Drivers/lvgl/src/extra/widgets/tileview/lv_tileview.c **** {
  93:Drivers/lvgl/src/extra/widgets/tileview/lv_tileview.c ****     lv_obj_update_layout(tv);
  94:Drivers/lvgl/src/extra/widgets/tileview/lv_tileview.c **** 
  95:Drivers/lvgl/src/extra/widgets/tileview/lv_tileview.c ****     lv_coord_t w = lv_obj_get_content_width(tv);
  96:Drivers/lvgl/src/extra/widgets/tileview/lv_tileview.c ****     lv_coord_t h = lv_obj_get_content_height(tv);
  97:Drivers/lvgl/src/extra/widgets/tileview/lv_tileview.c **** 
  98:Drivers/lvgl/src/extra/widgets/tileview/lv_tileview.c ****     lv_coord_t tx = col_id * w;
  99:Drivers/lvgl/src/extra/widgets/tileview/lv_tileview.c ****     lv_coord_t ty = row_id * h;
 100:Drivers/lvgl/src/extra/widgets/tileview/lv_tileview.c **** 
 101:Drivers/lvgl/src/extra/widgets/tileview/lv_tileview.c ****     uint32_t i;
 102:Drivers/lvgl/src/extra/widgets/tileview/lv_tileview.c ****     for(i = 0; i < lv_obj_get_child_cnt(tv); i++) {
 103:Drivers/lvgl/src/extra/widgets/tileview/lv_tileview.c ****         lv_obj_t * tile_obj = lv_obj_get_child(tv, i);
 104:Drivers/lvgl/src/extra/widgets/tileview/lv_tileview.c ****         lv_coord_t x = lv_obj_get_x(tile_obj);
 105:Drivers/lvgl/src/extra/widgets/tileview/lv_tileview.c ****         lv_coord_t y = lv_obj_get_y(tile_obj);
 106:Drivers/lvgl/src/extra/widgets/tileview/lv_tileview.c ****         if(x == tx && y == ty) {
 107:Drivers/lvgl/src/extra/widgets/tileview/lv_tileview.c ****             lv_obj_set_tile(tv, tile_obj, anim_en);
 108:Drivers/lvgl/src/extra/widgets/tileview/lv_tileview.c ****             return;
 109:Drivers/lvgl/src/extra/widgets/tileview/lv_tileview.c ****         }
 110:Drivers/lvgl/src/extra/widgets/tileview/lv_tileview.c ****     }
 111:Drivers/lvgl/src/extra/widgets/tileview/lv_tileview.c **** 
 112:Drivers/lvgl/src/extra/widgets/tileview/lv_tileview.c ****     LV_LOG_WARN("No tile found with at (%d,%d) index", (int)col_id, (int)row_id);
 113:Drivers/lvgl/src/extra/widgets/tileview/lv_tileview.c **** }
 114:Drivers/lvgl/src/extra/widgets/tileview/lv_tileview.c **** 
 115:Drivers/lvgl/src/extra/widgets/tileview/lv_tileview.c **** lv_obj_t * lv_tileview_get_tile_act(lv_obj_t * obj)
 116:Drivers/lvgl/src/extra/widgets/tileview/lv_tileview.c **** {
 117:Drivers/lvgl/src/extra/widgets/tileview/lv_tileview.c ****     lv_tileview_t * tv = (lv_tileview_t *) obj;
 118:Drivers/lvgl/src/extra/widgets/tileview/lv_tileview.c ****     return tv->tile_act;
 119:Drivers/lvgl/src/extra/widgets/tileview/lv_tileview.c **** }
 120:Drivers/lvgl/src/extra/widgets/tileview/lv_tileview.c **** 
 121:Drivers/lvgl/src/extra/widgets/tileview/lv_tileview.c **** /**********************
 122:Drivers/lvgl/src/extra/widgets/tileview/lv_tileview.c ****  *   STATIC FUNCTIONS
 123:Drivers/lvgl/src/extra/widgets/tileview/lv_tileview.c ****  **********************/
 124:Drivers/lvgl/src/extra/widgets/tileview/lv_tileview.c **** 
 125:Drivers/lvgl/src/extra/widgets/tileview/lv_tileview.c **** static void lv_tileview_constructor(const lv_obj_class_t * class_p, lv_obj_t * obj)
 126:Drivers/lvgl/src/extra/widgets/tileview/lv_tileview.c **** {
  30              		.loc 1 126 1 view -0
  31              		.cfi_startproc
  32              		@ args = 0, pretend = 0, frame = 0
  33              		@ frame_needed = 0, uses_anonymous_args = 0
 127:Drivers/lvgl/src/extra/widgets/tileview/lv_tileview.c ****     LV_UNUSED(class_p);
  34              		.loc 1 127 5 view .LVU1
 128:Drivers/lvgl/src/extra/widgets/tileview/lv_tileview.c ****     lv_obj_set_size(obj, LV_PCT(100), LV_PCT(100));
  35              		.loc 1 128 5 view .LVU2
 126:Drivers/lvgl/src/extra/widgets/tileview/lv_tileview.c ****     LV_UNUSED(class_p);
  36              		.loc 1 126 1 is_stmt 0 view .LVU3
  37 0000 10B5     		push	{r4, lr}
  38              		.cfi_def_cfa_offset 8
  39              		.cfi_offset 4, -8
  40              		.cfi_offset 14, -4
  41              		.loc 1 128 5 view .LVU4
  42 0002 42F26402 		movw	r2, #8292
 126:Drivers/lvgl/src/extra/widgets/tileview/lv_tileview.c ****     LV_UNUSED(class_p);
ARM GAS  /var/folders/0z/tsy30v1j4xl4_7kw94k978ww0000gn/T//ccpjA8w7.s 			page 4


  43              		.loc 1 126 1 view .LVU5
  44 0006 0C46     		mov	r4, r1
  45              		.loc 1 128 5 view .LVU6
  46 0008 2046     		mov	r0, r4
  47              	.LVL1:
  48              		.loc 1 128 5 view .LVU7
  49 000a 1146     		mov	r1, r2
  50              	.LVL2:
  51              		.loc 1 128 5 view .LVU8
  52 000c FFF7FEFF 		bl	lv_obj_set_size
  53              	.LVL3:
 129:Drivers/lvgl/src/extra/widgets/tileview/lv_tileview.c ****     lv_obj_add_event_cb(obj, tileview_event_cb, LV_EVENT_ALL, NULL);
  54              		.loc 1 129 5 is_stmt 1 view .LVU9
  55 0010 0023     		movs	r3, #0
  56 0012 1A46     		mov	r2, r3
  57 0014 0849     		ldr	r1, .L4
  58 0016 2046     		mov	r0, r4
  59 0018 FFF7FEFF 		bl	lv_obj_add_event_cb
  60              	.LVL4:
 130:Drivers/lvgl/src/extra/widgets/tileview/lv_tileview.c ****     lv_obj_add_flag(obj, LV_OBJ_FLAG_SCROLL_ONE);
  61              		.loc 1 130 5 view .LVU10
  62 001c 2046     		mov	r0, r4
  63 001e 8021     		movs	r1, #128
  64 0020 FFF7FEFF 		bl	lv_obj_add_flag
  65              	.LVL5:
 131:Drivers/lvgl/src/extra/widgets/tileview/lv_tileview.c ****     lv_obj_set_scroll_snap_x(obj, LV_SCROLL_SNAP_CENTER);
  66              		.loc 1 131 5 view .LVU11
  67 0024 2046     		mov	r0, r4
  68 0026 0321     		movs	r1, #3
  69 0028 FFF7FEFF 		bl	lv_obj_set_scroll_snap_x
  70              	.LVL6:
 132:Drivers/lvgl/src/extra/widgets/tileview/lv_tileview.c ****     lv_obj_set_scroll_snap_y(obj, LV_SCROLL_SNAP_CENTER);
  71              		.loc 1 132 5 view .LVU12
  72 002c 2046     		mov	r0, r4
  73 002e 0321     		movs	r1, #3
 133:Drivers/lvgl/src/extra/widgets/tileview/lv_tileview.c **** 
 134:Drivers/lvgl/src/extra/widgets/tileview/lv_tileview.c **** }
  74              		.loc 1 134 1 is_stmt 0 view .LVU13
  75 0030 BDE81040 		pop	{r4, lr}
  76              		.cfi_restore 14
  77              		.cfi_restore 4
  78              		.cfi_def_cfa_offset 0
  79              	.LVL7:
 132:Drivers/lvgl/src/extra/widgets/tileview/lv_tileview.c ****     lv_obj_set_scroll_snap_y(obj, LV_SCROLL_SNAP_CENTER);
  80              		.loc 1 132 5 view .LVU14
  81 0034 FFF7FEBF 		b	lv_obj_set_scroll_snap_y
  82              	.LVL8:
  83              	.L5:
 132:Drivers/lvgl/src/extra/widgets/tileview/lv_tileview.c ****     lv_obj_set_scroll_snap_y(obj, LV_SCROLL_SNAP_CENTER);
  84              		.loc 1 132 5 view .LVU15
  85              		.align	2
  86              	.L4:
  87 0038 00000000 		.word	tileview_event_cb
  88              		.cfi_endproc
  89              	.LFE166:
  91              		.section	.text.tileview_event_cb,"ax",%progbits
  92              		.align	1
ARM GAS  /var/folders/0z/tsy30v1j4xl4_7kw94k978ww0000gn/T//ccpjA8w7.s 			page 5


  93              		.p2align 2,,3
  94              		.syntax unified
  95              		.thumb
  96              		.thumb_func
  98              	tileview_event_cb:
  99              	.LVL9:
 100              	.LFB168:
 135:Drivers/lvgl/src/extra/widgets/tileview/lv_tileview.c **** 
 136:Drivers/lvgl/src/extra/widgets/tileview/lv_tileview.c **** static void lv_tileview_tile_constructor(const lv_obj_class_t * class_p, lv_obj_t * obj)
 137:Drivers/lvgl/src/extra/widgets/tileview/lv_tileview.c **** {
 138:Drivers/lvgl/src/extra/widgets/tileview/lv_tileview.c **** 
 139:Drivers/lvgl/src/extra/widgets/tileview/lv_tileview.c ****     LV_UNUSED(class_p);
 140:Drivers/lvgl/src/extra/widgets/tileview/lv_tileview.c ****     lv_obj_t * parent = lv_obj_get_parent(obj);
 141:Drivers/lvgl/src/extra/widgets/tileview/lv_tileview.c ****     lv_obj_set_size(obj, LV_PCT(100), LV_PCT(100));
 142:Drivers/lvgl/src/extra/widgets/tileview/lv_tileview.c ****     lv_obj_update_layout(obj);  /*Be sure the size is correct*/
 143:Drivers/lvgl/src/extra/widgets/tileview/lv_tileview.c ****     lv_obj_set_pos(obj, create_col_id * lv_obj_get_content_width(parent),
 144:Drivers/lvgl/src/extra/widgets/tileview/lv_tileview.c ****                    create_row_id * lv_obj_get_content_height(parent));
 145:Drivers/lvgl/src/extra/widgets/tileview/lv_tileview.c **** 
 146:Drivers/lvgl/src/extra/widgets/tileview/lv_tileview.c ****     lv_tileview_tile_t * tile = (lv_tileview_tile_t *)obj;
 147:Drivers/lvgl/src/extra/widgets/tileview/lv_tileview.c ****     tile->dir = create_dir;
 148:Drivers/lvgl/src/extra/widgets/tileview/lv_tileview.c **** 
 149:Drivers/lvgl/src/extra/widgets/tileview/lv_tileview.c ****     if(create_col_id == 0 && create_row_id == 0) {
 150:Drivers/lvgl/src/extra/widgets/tileview/lv_tileview.c ****         lv_obj_set_scroll_dir(parent, create_dir);
 151:Drivers/lvgl/src/extra/widgets/tileview/lv_tileview.c ****     }
 152:Drivers/lvgl/src/extra/widgets/tileview/lv_tileview.c **** }
 153:Drivers/lvgl/src/extra/widgets/tileview/lv_tileview.c **** 
 154:Drivers/lvgl/src/extra/widgets/tileview/lv_tileview.c **** static void tileview_event_cb(lv_event_t * e)
 155:Drivers/lvgl/src/extra/widgets/tileview/lv_tileview.c **** {
 101              		.loc 1 155 1 is_stmt 1 view -0
 102              		.cfi_startproc
 103              		@ args = 0, pretend = 0, frame = 8
 104              		@ frame_needed = 0, uses_anonymous_args = 0
 156:Drivers/lvgl/src/extra/widgets/tileview/lv_tileview.c ****     lv_event_code_t code = lv_event_get_code(e);
 105              		.loc 1 156 5 view .LVU17
 155:Drivers/lvgl/src/extra/widgets/tileview/lv_tileview.c ****     lv_event_code_t code = lv_event_get_code(e);
 106              		.loc 1 155 1 is_stmt 0 view .LVU18
 107 0000 2DE9F043 		push	{r4, r5, r6, r7, r8, r9, lr}
 108              		.cfi_def_cfa_offset 28
 109              		.cfi_offset 4, -28
 110              		.cfi_offset 5, -24
 111              		.cfi_offset 6, -20
 112              		.cfi_offset 7, -16
 113              		.cfi_offset 8, -12
 114              		.cfi_offset 9, -8
 115              		.cfi_offset 14, -4
 116 0004 83B0     		sub	sp, sp, #12
 117              		.cfi_def_cfa_offset 40
 155:Drivers/lvgl/src/extra/widgets/tileview/lv_tileview.c ****     lv_event_code_t code = lv_event_get_code(e);
 118              		.loc 1 155 1 view .LVU19
 119 0006 0546     		mov	r5, r0
 120              		.loc 1 156 28 view .LVU20
 121 0008 FFF7FEFF 		bl	lv_event_get_code
 122              	.LVL10:
 123              		.loc 1 156 28 view .LVU21
 124 000c 0446     		mov	r4, r0
 157:Drivers/lvgl/src/extra/widgets/tileview/lv_tileview.c ****     lv_obj_t * obj = lv_event_get_target(e);
 125              		.loc 1 157 22 view .LVU22
ARM GAS  /var/folders/0z/tsy30v1j4xl4_7kw94k978ww0000gn/T//ccpjA8w7.s 			page 6


 126 000e 2846     		mov	r0, r5
 127              	.LVL11:
 128              		.loc 1 157 5 is_stmt 1 view .LVU23
 129              		.loc 1 157 22 is_stmt 0 view .LVU24
 130 0010 FFF7FEFF 		bl	lv_event_get_target
 131              	.LVL12:
 158:Drivers/lvgl/src/extra/widgets/tileview/lv_tileview.c ****     lv_tileview_t * tv = (lv_tileview_t *) obj;
 132              		.loc 1 158 5 is_stmt 1 view .LVU25
 159:Drivers/lvgl/src/extra/widgets/tileview/lv_tileview.c **** 
 160:Drivers/lvgl/src/extra/widgets/tileview/lv_tileview.c ****     if(code == LV_EVENT_SCROLL_END) {
 133              		.loc 1 160 5 view .LVU26
 134              		.loc 1 160 7 is_stmt 0 view .LVU27
 135 0014 0A2C     		cmp	r4, #10
 136 0016 02D0     		beq	.L17
 137              	.LVL13:
 138              	.L6:
 161:Drivers/lvgl/src/extra/widgets/tileview/lv_tileview.c ****         lv_indev_t * indev = lv_indev_get_act();
 162:Drivers/lvgl/src/extra/widgets/tileview/lv_tileview.c ****         if(indev && indev->proc.state == LV_INDEV_STATE_PRESSED) {
 163:Drivers/lvgl/src/extra/widgets/tileview/lv_tileview.c ****             return;
 164:Drivers/lvgl/src/extra/widgets/tileview/lv_tileview.c ****         }
 165:Drivers/lvgl/src/extra/widgets/tileview/lv_tileview.c **** 
 166:Drivers/lvgl/src/extra/widgets/tileview/lv_tileview.c ****         lv_coord_t w = lv_obj_get_content_width(obj);
 167:Drivers/lvgl/src/extra/widgets/tileview/lv_tileview.c ****         lv_coord_t h = lv_obj_get_content_height(obj);
 168:Drivers/lvgl/src/extra/widgets/tileview/lv_tileview.c **** 
 169:Drivers/lvgl/src/extra/widgets/tileview/lv_tileview.c ****         lv_point_t scroll_end;
 170:Drivers/lvgl/src/extra/widgets/tileview/lv_tileview.c ****         lv_obj_get_scroll_end(obj, &scroll_end);
 171:Drivers/lvgl/src/extra/widgets/tileview/lv_tileview.c ****         lv_coord_t left = scroll_end.x;
 172:Drivers/lvgl/src/extra/widgets/tileview/lv_tileview.c ****         lv_coord_t top = scroll_end.y;
 173:Drivers/lvgl/src/extra/widgets/tileview/lv_tileview.c **** 
 174:Drivers/lvgl/src/extra/widgets/tileview/lv_tileview.c ****         lv_coord_t tx = ((left + (w / 2)) / w) * w;
 175:Drivers/lvgl/src/extra/widgets/tileview/lv_tileview.c ****         lv_coord_t ty = ((top + (h / 2)) / h) * h;
 176:Drivers/lvgl/src/extra/widgets/tileview/lv_tileview.c **** 
 177:Drivers/lvgl/src/extra/widgets/tileview/lv_tileview.c ****         lv_dir_t dir = LV_DIR_ALL;
 178:Drivers/lvgl/src/extra/widgets/tileview/lv_tileview.c ****         uint32_t i;
 179:Drivers/lvgl/src/extra/widgets/tileview/lv_tileview.c ****         for(i = 0; i < lv_obj_get_child_cnt(obj); i++) {
 180:Drivers/lvgl/src/extra/widgets/tileview/lv_tileview.c ****             lv_obj_t * tile_obj = lv_obj_get_child(obj, i);
 181:Drivers/lvgl/src/extra/widgets/tileview/lv_tileview.c ****             lv_coord_t x = lv_obj_get_x(tile_obj);
 182:Drivers/lvgl/src/extra/widgets/tileview/lv_tileview.c ****             lv_coord_t y = lv_obj_get_y(tile_obj);
 183:Drivers/lvgl/src/extra/widgets/tileview/lv_tileview.c ****             if(x == tx && y == ty) {
 184:Drivers/lvgl/src/extra/widgets/tileview/lv_tileview.c ****                 lv_tileview_tile_t * tile = (lv_tileview_tile_t *)tile_obj;
 185:Drivers/lvgl/src/extra/widgets/tileview/lv_tileview.c ****                 tv->tile_act = (lv_obj_t *)tile;
 186:Drivers/lvgl/src/extra/widgets/tileview/lv_tileview.c ****                 dir = tile->dir;
 187:Drivers/lvgl/src/extra/widgets/tileview/lv_tileview.c ****                 lv_event_send(obj, LV_EVENT_VALUE_CHANGED, NULL);
 188:Drivers/lvgl/src/extra/widgets/tileview/lv_tileview.c ****                 break;
 189:Drivers/lvgl/src/extra/widgets/tileview/lv_tileview.c ****             }
 190:Drivers/lvgl/src/extra/widgets/tileview/lv_tileview.c ****         }
 191:Drivers/lvgl/src/extra/widgets/tileview/lv_tileview.c ****         lv_obj_set_scroll_dir(obj, dir);
 192:Drivers/lvgl/src/extra/widgets/tileview/lv_tileview.c ****     }
 193:Drivers/lvgl/src/extra/widgets/tileview/lv_tileview.c **** }
 139              		.loc 1 193 1 view .LVU28
 140 0018 03B0     		add	sp, sp, #12
 141              		.cfi_remember_state
 142              		.cfi_def_cfa_offset 28
 143              		@ sp needed
 144 001a BDE8F083 		pop	{r4, r5, r6, r7, r8, r9, pc}
 145              	.LVL14:
 146              	.L17:
ARM GAS  /var/folders/0z/tsy30v1j4xl4_7kw94k978ww0000gn/T//ccpjA8w7.s 			page 7


 147              		.cfi_restore_state
 148              	.LBB2:
 161:Drivers/lvgl/src/extra/widgets/tileview/lv_tileview.c ****         lv_indev_t * indev = lv_indev_get_act();
 149              		.loc 1 161 9 is_stmt 1 view .LVU29
 150 001e 0746     		mov	r7, r0
 161:Drivers/lvgl/src/extra/widgets/tileview/lv_tileview.c ****         lv_indev_t * indev = lv_indev_get_act();
 151              		.loc 1 161 30 is_stmt 0 view .LVU30
 152 0020 FFF7FEFF 		bl	lv_indev_get_act
 153              	.LVL15:
 162:Drivers/lvgl/src/extra/widgets/tileview/lv_tileview.c ****             return;
 154              		.loc 1 162 9 is_stmt 1 view .LVU31
 162:Drivers/lvgl/src/extra/widgets/tileview/lv_tileview.c ****             return;
 155              		.loc 1 162 11 is_stmt 0 view .LVU32
 156 0024 10B1     		cbz	r0, .L8
 162:Drivers/lvgl/src/extra/widgets/tileview/lv_tileview.c ****             return;
 157              		.loc 1 162 18 discriminator 1 view .LVU33
 158 0026 0379     		ldrb	r3, [r0, #4]	@ zero_extendqisi2
 159 0028 012B     		cmp	r3, #1
 160 002a F5D0     		beq	.L6
 161              	.L8:
 166:Drivers/lvgl/src/extra/widgets/tileview/lv_tileview.c ****         lv_coord_t h = lv_obj_get_content_height(obj);
 162              		.loc 1 166 9 is_stmt 1 view .LVU34
 166:Drivers/lvgl/src/extra/widgets/tileview/lv_tileview.c ****         lv_coord_t h = lv_obj_get_content_height(obj);
 163              		.loc 1 166 24 is_stmt 0 view .LVU35
 164 002c 3846     		mov	r0, r7
 165              	.LVL16:
 166:Drivers/lvgl/src/extra/widgets/tileview/lv_tileview.c ****         lv_coord_t h = lv_obj_get_content_height(obj);
 166              		.loc 1 166 24 view .LVU36
 167 002e FFF7FEFF 		bl	lv_obj_get_content_width
 168              	.LVL17:
 169 0032 0546     		mov	r5, r0
 170              	.LVL18:
 167:Drivers/lvgl/src/extra/widgets/tileview/lv_tileview.c **** 
 171              		.loc 1 167 24 view .LVU37
 172 0034 3846     		mov	r0, r7
 173              	.LVL19:
 167:Drivers/lvgl/src/extra/widgets/tileview/lv_tileview.c **** 
 174              		.loc 1 167 9 is_stmt 1 view .LVU38
 167:Drivers/lvgl/src/extra/widgets/tileview/lv_tileview.c **** 
 175              		.loc 1 167 24 is_stmt 0 view .LVU39
 176 0036 FFF7FEFF 		bl	lv_obj_get_content_height
 177              	.LVL20:
 170:Drivers/lvgl/src/extra/widgets/tileview/lv_tileview.c ****         lv_coord_t left = scroll_end.x;
 178              		.loc 1 170 9 view .LVU40
 179 003a 01A9     		add	r1, sp, #4
 167:Drivers/lvgl/src/extra/widgets/tileview/lv_tileview.c **** 
 180              		.loc 1 167 24 view .LVU41
 181 003c 0446     		mov	r4, r0
 182              	.LVL21:
 169:Drivers/lvgl/src/extra/widgets/tileview/lv_tileview.c ****         lv_obj_get_scroll_end(obj, &scroll_end);
 183              		.loc 1 169 9 is_stmt 1 view .LVU42
 170:Drivers/lvgl/src/extra/widgets/tileview/lv_tileview.c ****         lv_coord_t left = scroll_end.x;
 184              		.loc 1 170 9 view .LVU43
 185 003e 3846     		mov	r0, r7
 186 0040 FFF7FEFF 		bl	lv_obj_get_scroll_end
 187              	.LVL22:
 171:Drivers/lvgl/src/extra/widgets/tileview/lv_tileview.c ****         lv_coord_t top = scroll_end.y;
ARM GAS  /var/folders/0z/tsy30v1j4xl4_7kw94k978ww0000gn/T//ccpjA8w7.s 			page 8


 188              		.loc 1 171 9 view .LVU44
 172:Drivers/lvgl/src/extra/widgets/tileview/lv_tileview.c **** 
 189              		.loc 1 172 9 view .LVU45
 174:Drivers/lvgl/src/extra/widgets/tileview/lv_tileview.c ****         lv_coord_t ty = ((top + (h / 2)) / h) * h;
 190              		.loc 1 174 9 view .LVU46
 174:Drivers/lvgl/src/extra/widgets/tileview/lv_tileview.c ****         lv_coord_t ty = ((top + (h / 2)) / h) * h;
 191              		.loc 1 174 32 is_stmt 0 view .LVU47
 192 0044 BDF90480 		ldrsh	r8, [sp, #4]
 175:Drivers/lvgl/src/extra/widgets/tileview/lv_tileview.c **** 
 193              		.loc 1 175 31 view .LVU48
 194 0048 BDF90690 		ldrsh	r9, [sp, #6]
 174:Drivers/lvgl/src/extra/widgets/tileview/lv_tileview.c ****         lv_coord_t ty = ((top + (h / 2)) / h) * h;
 195              		.loc 1 174 37 view .LVU49
 196 004c 05EBD573 		add	r3, r5, r5, lsr #31
 197 0050 43F34F03 		sbfx	r3, r3, #1, #16
 174:Drivers/lvgl/src/extra/widgets/tileview/lv_tileview.c ****         lv_coord_t ty = ((top + (h / 2)) / h) * h;
 198              		.loc 1 174 32 view .LVU50
 199 0054 9844     		add	r8, r8, r3
 175:Drivers/lvgl/src/extra/widgets/tileview/lv_tileview.c **** 
 200              		.loc 1 175 36 view .LVU51
 201 0056 04EBD473 		add	r3, r4, r4, lsr #31
 202 005a 43F34F03 		sbfx	r3, r3, #1, #16
 175:Drivers/lvgl/src/extra/widgets/tileview/lv_tileview.c **** 
 203              		.loc 1 175 31 view .LVU52
 204 005e 9944     		add	r9, r9, r3
 174:Drivers/lvgl/src/extra/widgets/tileview/lv_tileview.c ****         lv_coord_t ty = ((top + (h / 2)) / h) * h;
 205              		.loc 1 174 43 view .LVU53
 206 0060 98FBF5F8 		sdiv	r8, r8, r5
 175:Drivers/lvgl/src/extra/widgets/tileview/lv_tileview.c **** 
 207              		.loc 1 175 42 view .LVU54
 208 0064 99FBF4F9 		sdiv	r9, r9, r4
 174:Drivers/lvgl/src/extra/widgets/tileview/lv_tileview.c ****         lv_coord_t ty = ((top + (h / 2)) / h) * h;
 209              		.loc 1 174 20 view .LVU55
 210 0068 18FB05F8 		smulbb	r8, r8, r5
 175:Drivers/lvgl/src/extra/widgets/tileview/lv_tileview.c **** 
 211              		.loc 1 175 20 view .LVU56
 212 006c 19FB04F0 		smulbb	r0, r9, r4
 174:Drivers/lvgl/src/extra/widgets/tileview/lv_tileview.c ****         lv_coord_t ty = ((top + (h / 2)) / h) * h;
 213              		.loc 1 174 20 view .LVU57
 214 0070 0FFA88F8 		sxth	r8, r8
 215              	.LVL23:
 175:Drivers/lvgl/src/extra/widgets/tileview/lv_tileview.c **** 
 216              		.loc 1 175 9 is_stmt 1 view .LVU58
 175:Drivers/lvgl/src/extra/widgets/tileview/lv_tileview.c **** 
 217              		.loc 1 175 20 is_stmt 0 view .LVU59
 218 0074 0FFA80F9 		sxth	r9, r0
 219              	.LVL24:
 177:Drivers/lvgl/src/extra/widgets/tileview/lv_tileview.c ****         uint32_t i;
 220              		.loc 1 177 9 is_stmt 1 view .LVU60
 178:Drivers/lvgl/src/extra/widgets/tileview/lv_tileview.c ****         for(i = 0; i < lv_obj_get_child_cnt(obj); i++) {
 221              		.loc 1 178 9 view .LVU61
 179:Drivers/lvgl/src/extra/widgets/tileview/lv_tileview.c ****             lv_obj_t * tile_obj = lv_obj_get_child(obj, i);
 222              		.loc 1 179 9 view .LVU62
 179:Drivers/lvgl/src/extra/widgets/tileview/lv_tileview.c ****             lv_obj_t * tile_obj = lv_obj_get_child(obj, i);
 223              		.loc 1 179 15 is_stmt 0 view .LVU63
 224 0078 0024     		movs	r4, #0
 225              	.LVL25:
ARM GAS  /var/folders/0z/tsy30v1j4xl4_7kw94k978ww0000gn/T//ccpjA8w7.s 			page 9


 179:Drivers/lvgl/src/extra/widgets/tileview/lv_tileview.c ****             lv_obj_t * tile_obj = lv_obj_get_child(obj, i);
 226              		.loc 1 179 9 view .LVU64
 227 007a 00E0     		b	.L9
 228              	.LVL26:
 229              	.L10:
 179:Drivers/lvgl/src/extra/widgets/tileview/lv_tileview.c ****             lv_obj_t * tile_obj = lv_obj_get_child(obj, i);
 230              		.loc 1 179 52 discriminator 2 view .LVU65
 231 007c 0134     		adds	r4, r4, #1
 232              	.LVL27:
 233              	.L9:
 179:Drivers/lvgl/src/extra/widgets/tileview/lv_tileview.c ****             lv_obj_t * tile_obj = lv_obj_get_child(obj, i);
 234              		.loc 1 179 22 is_stmt 1 discriminator 1 view .LVU66
 179:Drivers/lvgl/src/extra/widgets/tileview/lv_tileview.c ****             lv_obj_t * tile_obj = lv_obj_get_child(obj, i);
 235              		.loc 1 179 24 is_stmt 0 discriminator 1 view .LVU67
 236 007e 3846     		mov	r0, r7
 237 0080 FFF7FEFF 		bl	lv_obj_get_child_cnt
 238              	.LVL28:
 239              	.LBB3:
 180:Drivers/lvgl/src/extra/widgets/tileview/lv_tileview.c ****             lv_coord_t x = lv_obj_get_x(tile_obj);
 240              		.loc 1 180 13 is_stmt 1 discriminator 1 view .LVU68
 241              	.LBE3:
 179:Drivers/lvgl/src/extra/widgets/tileview/lv_tileview.c ****             lv_obj_t * tile_obj = lv_obj_get_child(obj, i);
 242              		.loc 1 179 24 is_stmt 0 discriminator 1 view .LVU69
 243 0084 0346     		mov	r3, r0
 179:Drivers/lvgl/src/extra/widgets/tileview/lv_tileview.c ****             lv_obj_t * tile_obj = lv_obj_get_child(obj, i);
 244              		.loc 1 179 22 discriminator 1 view .LVU70
 245 0086 A342     		cmp	r3, r4
 246              	.LBB5:
 180:Drivers/lvgl/src/extra/widgets/tileview/lv_tileview.c ****             lv_coord_t x = lv_obj_get_x(tile_obj);
 247              		.loc 1 180 35 discriminator 1 view .LVU71
 248 0088 2146     		mov	r1, r4
 249 008a 3846     		mov	r0, r7
 250              	.LBE5:
 179:Drivers/lvgl/src/extra/widgets/tileview/lv_tileview.c ****             lv_obj_t * tile_obj = lv_obj_get_child(obj, i);
 251              		.loc 1 179 22 discriminator 1 view .LVU72
 252 008c 15D9     		bls	.L18
 253              	.LVL29:
 254              	.LBB6:
 180:Drivers/lvgl/src/extra/widgets/tileview/lv_tileview.c ****             lv_coord_t x = lv_obj_get_x(tile_obj);
 255              		.loc 1 180 35 view .LVU73
 256 008e FFF7FEFF 		bl	lv_obj_get_child
 257              	.LVL30:
 180:Drivers/lvgl/src/extra/widgets/tileview/lv_tileview.c ****             lv_coord_t x = lv_obj_get_x(tile_obj);
 258              		.loc 1 180 35 view .LVU74
 259 0092 0546     		mov	r5, r0
 260              	.LVL31:
 181:Drivers/lvgl/src/extra/widgets/tileview/lv_tileview.c ****             lv_coord_t y = lv_obj_get_y(tile_obj);
 261              		.loc 1 181 13 is_stmt 1 view .LVU75
 181:Drivers/lvgl/src/extra/widgets/tileview/lv_tileview.c ****             lv_coord_t y = lv_obj_get_y(tile_obj);
 262              		.loc 1 181 28 is_stmt 0 view .LVU76
 263 0094 FFF7FEFF 		bl	lv_obj_get_x
 264              	.LVL32:
 181:Drivers/lvgl/src/extra/widgets/tileview/lv_tileview.c ****             lv_coord_t y = lv_obj_get_y(tile_obj);
 265              		.loc 1 181 28 view .LVU77
 266 0098 0646     		mov	r6, r0
 182:Drivers/lvgl/src/extra/widgets/tileview/lv_tileview.c ****             if(x == tx && y == ty) {
 267              		.loc 1 182 28 view .LVU78
ARM GAS  /var/folders/0z/tsy30v1j4xl4_7kw94k978ww0000gn/T//ccpjA8w7.s 			page 10


 268 009a 2846     		mov	r0, r5
 269              	.LVL33:
 182:Drivers/lvgl/src/extra/widgets/tileview/lv_tileview.c ****             if(x == tx && y == ty) {
 270              		.loc 1 182 13 is_stmt 1 view .LVU79
 182:Drivers/lvgl/src/extra/widgets/tileview/lv_tileview.c ****             if(x == tx && y == ty) {
 271              		.loc 1 182 28 is_stmt 0 view .LVU80
 272 009c FFF7FEFF 		bl	lv_obj_get_y
 273              	.LVL34:
 274              	.LBE6:
 179:Drivers/lvgl/src/extra/widgets/tileview/lv_tileview.c ****             lv_obj_t * tile_obj = lv_obj_get_child(obj, i);
 275              		.loc 1 179 52 is_stmt 1 view .LVU81
 276              	.LBB7:
 183:Drivers/lvgl/src/extra/widgets/tileview/lv_tileview.c ****                 lv_tileview_tile_t * tile = (lv_tileview_tile_t *)tile_obj;
 277              		.loc 1 183 13 view .LVU82
 183:Drivers/lvgl/src/extra/widgets/tileview/lv_tileview.c ****                 lv_tileview_tile_t * tile = (lv_tileview_tile_t *)tile_obj;
 278              		.loc 1 183 15 is_stmt 0 view .LVU83
 279 00a0 B045     		cmp	r8, r6
 280 00a2 EBD1     		bne	.L10
 183:Drivers/lvgl/src/extra/widgets/tileview/lv_tileview.c ****                 lv_tileview_tile_t * tile = (lv_tileview_tile_t *)tile_obj;
 281              		.loc 1 183 24 discriminator 1 view .LVU84
 282 00a4 8145     		cmp	r9, r0
 283 00a6 E9D1     		bne	.L10
 284              	.LBB4:
 184:Drivers/lvgl/src/extra/widgets/tileview/lv_tileview.c ****                 tv->tile_act = (lv_obj_t *)tile;
 285              		.loc 1 184 17 is_stmt 1 view .LVU85
 286              	.LVL35:
 185:Drivers/lvgl/src/extra/widgets/tileview/lv_tileview.c ****                 dir = tile->dir;
 287              		.loc 1 185 17 view .LVU86
 185:Drivers/lvgl/src/extra/widgets/tileview/lv_tileview.c ****                 dir = tile->dir;
 288              		.loc 1 185 30 is_stmt 0 view .LVU87
 289 00a8 7D62     		str	r5, [r7, #36]
 186:Drivers/lvgl/src/extra/widgets/tileview/lv_tileview.c ****                 lv_event_send(obj, LV_EVENT_VALUE_CHANGED, NULL);
 290              		.loc 1 186 17 is_stmt 1 view .LVU88
 187:Drivers/lvgl/src/extra/widgets/tileview/lv_tileview.c ****                 break;
 291              		.loc 1 187 17 is_stmt 0 view .LVU89
 292 00aa 0022     		movs	r2, #0
 293 00ac 1C21     		movs	r1, #28
 294 00ae 3846     		mov	r0, r7
 295              	.LVL36:
 186:Drivers/lvgl/src/extra/widgets/tileview/lv_tileview.c ****                 lv_event_send(obj, LV_EVENT_VALUE_CHANGED, NULL);
 296              		.loc 1 186 21 view .LVU90
 297 00b0 95F82440 		ldrb	r4, [r5, #36]	@ zero_extendqisi2
 298              	.LVL37:
 187:Drivers/lvgl/src/extra/widgets/tileview/lv_tileview.c ****                 break;
 299              		.loc 1 187 17 is_stmt 1 view .LVU91
 300 00b4 FFF7FEFF 		bl	lv_event_send
 301              	.LVL38:
 188:Drivers/lvgl/src/extra/widgets/tileview/lv_tileview.c ****             }
 302              		.loc 1 188 17 view .LVU92
 303 00b8 00E0     		b	.L11
 304              	.LVL39:
 305              	.L18:
 188:Drivers/lvgl/src/extra/widgets/tileview/lv_tileview.c ****             }
 306              		.loc 1 188 17 is_stmt 0 view .LVU93
 307              	.LBE4:
 308              	.LBE7:
 177:Drivers/lvgl/src/extra/widgets/tileview/lv_tileview.c ****         uint32_t i;
ARM GAS  /var/folders/0z/tsy30v1j4xl4_7kw94k978ww0000gn/T//ccpjA8w7.s 			page 11


 309              		.loc 1 177 18 view .LVU94
 310 00ba 0F24     		movs	r4, #15
 311              	.LVL40:
 312              	.L11:
 191:Drivers/lvgl/src/extra/widgets/tileview/lv_tileview.c ****     }
 313              		.loc 1 191 9 is_stmt 1 view .LVU95
 314 00bc 2146     		mov	r1, r4
 315 00be 3846     		mov	r0, r7
 316 00c0 FFF7FEFF 		bl	lv_obj_set_scroll_dir
 317              	.LVL41:
 318              	.LBE2:
 319              		.loc 1 193 1 is_stmt 0 view .LVU96
 320 00c4 03B0     		add	sp, sp, #12
 321              		.cfi_def_cfa_offset 28
 322              		@ sp needed
 323 00c6 BDE8F083 		pop	{r4, r5, r6, r7, r8, r9, pc}
 324              		.loc 1 193 1 view .LVU97
 325              		.cfi_endproc
 326              	.LFE168:
 328 00ca 00BF     		.section	.text.lv_tileview_tile_constructor,"ax",%progbits
 329              		.align	1
 330              		.p2align 2,,3
 331              		.syntax unified
 332              		.thumb
 333              		.thumb_func
 335              	lv_tileview_tile_constructor:
 336              	.LVL42:
 337              	.LFB167:
 137:Drivers/lvgl/src/extra/widgets/tileview/lv_tileview.c **** 
 338              		.loc 1 137 1 is_stmt 1 view -0
 339              		.cfi_startproc
 340              		@ args = 0, pretend = 0, frame = 8
 341              		@ frame_needed = 0, uses_anonymous_args = 0
 139:Drivers/lvgl/src/extra/widgets/tileview/lv_tileview.c ****     lv_obj_t * parent = lv_obj_get_parent(obj);
 342              		.loc 1 139 5 view .LVU99
 140:Drivers/lvgl/src/extra/widgets/tileview/lv_tileview.c ****     lv_obj_set_size(obj, LV_PCT(100), LV_PCT(100));
 343              		.loc 1 140 5 view .LVU100
 137:Drivers/lvgl/src/extra/widgets/tileview/lv_tileview.c **** 
 344              		.loc 1 137 1 is_stmt 0 view .LVU101
 345 0000 F0B5     		push	{r4, r5, r6, r7, lr}
 346              		.cfi_def_cfa_offset 20
 347              		.cfi_offset 4, -20
 348              		.cfi_offset 5, -16
 349              		.cfi_offset 6, -12
 350              		.cfi_offset 7, -8
 351              		.cfi_offset 14, -4
 140:Drivers/lvgl/src/extra/widgets/tileview/lv_tileview.c ****     lv_obj_set_size(obj, LV_PCT(100), LV_PCT(100));
 352              		.loc 1 140 25 view .LVU102
 353 0002 0846     		mov	r0, r1
 354              	.LVL43:
 137:Drivers/lvgl/src/extra/widgets/tileview/lv_tileview.c **** 
 355              		.loc 1 137 1 view .LVU103
 356 0004 83B0     		sub	sp, sp, #12
 357              		.cfi_def_cfa_offset 32
 137:Drivers/lvgl/src/extra/widgets/tileview/lv_tileview.c **** 
 358              		.loc 1 137 1 view .LVU104
 359 0006 0C46     		mov	r4, r1
ARM GAS  /var/folders/0z/tsy30v1j4xl4_7kw94k978ww0000gn/T//ccpjA8w7.s 			page 12


 140:Drivers/lvgl/src/extra/widgets/tileview/lv_tileview.c ****     lv_obj_set_size(obj, LV_PCT(100), LV_PCT(100));
 360              		.loc 1 140 25 view .LVU105
 361 0008 FFF7FEFF 		bl	lv_obj_get_parent
 362              	.LVL44:
 141:Drivers/lvgl/src/extra/widgets/tileview/lv_tileview.c ****     lv_obj_update_layout(obj);  /*Be sure the size is correct*/
 363              		.loc 1 141 5 view .LVU106
 364 000c 42F26402 		movw	r2, #8292
 365 0010 1146     		mov	r1, r2
 140:Drivers/lvgl/src/extra/widgets/tileview/lv_tileview.c ****     lv_obj_set_size(obj, LV_PCT(100), LV_PCT(100));
 366              		.loc 1 140 25 view .LVU107
 367 0012 0546     		mov	r5, r0
 141:Drivers/lvgl/src/extra/widgets/tileview/lv_tileview.c ****     lv_obj_update_layout(obj);  /*Be sure the size is correct*/
 368              		.loc 1 141 5 view .LVU108
 369 0014 2046     		mov	r0, r4
 370              	.LVL45:
 141:Drivers/lvgl/src/extra/widgets/tileview/lv_tileview.c ****     lv_obj_update_layout(obj);  /*Be sure the size is correct*/
 371              		.loc 1 141 5 is_stmt 1 view .LVU109
 372 0016 FFF7FEFF 		bl	lv_obj_set_size
 373              	.LVL46:
 142:Drivers/lvgl/src/extra/widgets/tileview/lv_tileview.c ****     lv_obj_set_pos(obj, create_col_id * lv_obj_get_content_width(parent),
 374              		.loc 1 142 5 view .LVU110
 375 001a 2046     		mov	r0, r4
 376 001c FFF7FEFF 		bl	lv_obj_update_layout
 377              	.LVL47:
 143:Drivers/lvgl/src/extra/widgets/tileview/lv_tileview.c ****                    create_row_id * lv_obj_get_content_height(parent));
 378              		.loc 1 143 5 view .LVU111
 379 0020 124F     		ldr	r7, .L23
 380 0022 134E     		ldr	r6, .L23+4
 143:Drivers/lvgl/src/extra/widgets/tileview/lv_tileview.c ****                    create_row_id * lv_obj_get_content_height(parent));
 381              		.loc 1 143 41 is_stmt 0 view .LVU112
 382 0024 2846     		mov	r0, r5
 383 0026 FFF7FEFF 		bl	lv_obj_get_content_width
 384              	.LVL48:
 143:Drivers/lvgl/src/extra/widgets/tileview/lv_tileview.c ****                    create_row_id * lv_obj_get_content_height(parent));
 385              		.loc 1 143 5 view .LVU113
 386 002a 3968     		ldr	r1, [r7]
 387 002c 11FB00F1 		smulbb	r1, r1, r0
 388 0030 09B2     		sxth	r1, r1
 144:Drivers/lvgl/src/extra/widgets/tileview/lv_tileview.c **** 
 389              		.loc 1 144 36 view .LVU114
 390 0032 2846     		mov	r0, r5
 143:Drivers/lvgl/src/extra/widgets/tileview/lv_tileview.c ****                    create_row_id * lv_obj_get_content_height(parent));
 391              		.loc 1 143 5 view .LVU115
 392 0034 0191     		str	r1, [sp, #4]
 144:Drivers/lvgl/src/extra/widgets/tileview/lv_tileview.c **** 
 393              		.loc 1 144 36 view .LVU116
 394 0036 FFF7FEFF 		bl	lv_obj_get_content_height
 395              	.LVL49:
 143:Drivers/lvgl/src/extra/widgets/tileview/lv_tileview.c ****                    create_row_id * lv_obj_get_content_height(parent));
 396              		.loc 1 143 5 view .LVU117
 397 003a 3268     		ldr	r2, [r6]
 398 003c 0199     		ldr	r1, [sp, #4]
 144:Drivers/lvgl/src/extra/widgets/tileview/lv_tileview.c **** 
 399              		.loc 1 144 36 view .LVU118
 400 003e 0346     		mov	r3, r0
 143:Drivers/lvgl/src/extra/widgets/tileview/lv_tileview.c ****                    create_row_id * lv_obj_get_content_height(parent));
 401              		.loc 1 143 5 view .LVU119
ARM GAS  /var/folders/0z/tsy30v1j4xl4_7kw94k978ww0000gn/T//ccpjA8w7.s 			page 13


 402 0040 12FB03F2 		smulbb	r2, r2, r3
 403 0044 12B2     		sxth	r2, r2
 404 0046 2046     		mov	r0, r4
 405 0048 FFF7FEFF 		bl	lv_obj_set_pos
 406              	.LVL50:
 146:Drivers/lvgl/src/extra/widgets/tileview/lv_tileview.c ****     tile->dir = create_dir;
 407              		.loc 1 146 5 is_stmt 1 view .LVU120
 147:Drivers/lvgl/src/extra/widgets/tileview/lv_tileview.c **** 
 408              		.loc 1 147 5 view .LVU121
 147:Drivers/lvgl/src/extra/widgets/tileview/lv_tileview.c **** 
 409              		.loc 1 147 15 is_stmt 0 view .LVU122
 410 004c 0949     		ldr	r1, .L23+8
 149:Drivers/lvgl/src/extra/widgets/tileview/lv_tileview.c ****         lv_obj_set_scroll_dir(parent, create_dir);
 411              		.loc 1 149 27 view .LVU123
 412 004e 3B68     		ldr	r3, [r7]
 413 0050 3268     		ldr	r2, [r6]
 147:Drivers/lvgl/src/extra/widgets/tileview/lv_tileview.c **** 
 414              		.loc 1 147 15 view .LVU124
 415 0052 0978     		ldrb	r1, [r1]	@ zero_extendqisi2
 416 0054 84F82410 		strb	r1, [r4, #36]
 149:Drivers/lvgl/src/extra/widgets/tileview/lv_tileview.c ****         lv_obj_set_scroll_dir(parent, create_dir);
 417              		.loc 1 149 5 is_stmt 1 view .LVU125
 149:Drivers/lvgl/src/extra/widgets/tileview/lv_tileview.c ****         lv_obj_set_scroll_dir(parent, create_dir);
 418              		.loc 1 149 27 is_stmt 0 view .LVU126
 419 0058 1343     		orrs	r3, r3, r2
 420 005a 01D0     		beq	.L22
 152:Drivers/lvgl/src/extra/widgets/tileview/lv_tileview.c **** 
 421              		.loc 1 152 1 view .LVU127
 422 005c 03B0     		add	sp, sp, #12
 423              		.cfi_remember_state
 424              		.cfi_def_cfa_offset 20
 425              		@ sp needed
 426 005e F0BD     		pop	{r4, r5, r6, r7, pc}
 427              	.LVL51:
 428              	.L22:
 429              		.cfi_restore_state
 150:Drivers/lvgl/src/extra/widgets/tileview/lv_tileview.c ****     }
 430              		.loc 1 150 9 is_stmt 1 view .LVU128
 431 0060 2846     		mov	r0, r5
 152:Drivers/lvgl/src/extra/widgets/tileview/lv_tileview.c **** 
 432              		.loc 1 152 1 is_stmt 0 view .LVU129
 433 0062 03B0     		add	sp, sp, #12
 434              		.cfi_def_cfa_offset 20
 435              		@ sp needed
 436 0064 BDE8F040 		pop	{r4, r5, r6, r7, lr}
 437              		.cfi_restore 14
 438              		.cfi_restore 7
 439              		.cfi_restore 6
 440              		.cfi_restore 5
 441              		.cfi_restore 4
 442              		.cfi_def_cfa_offset 0
 443              	.LVL52:
 150:Drivers/lvgl/src/extra/widgets/tileview/lv_tileview.c ****     }
 444              		.loc 1 150 9 view .LVU130
 445 0068 FFF7FEBF 		b	lv_obj_set_scroll_dir
 446              	.LVL53:
 447              	.L24:
ARM GAS  /var/folders/0z/tsy30v1j4xl4_7kw94k978ww0000gn/T//ccpjA8w7.s 			page 14


 150:Drivers/lvgl/src/extra/widgets/tileview/lv_tileview.c ****     }
 448              		.loc 1 150 9 view .LVU131
 449              		.align	2
 450              	.L23:
 451 006c 00000000 		.word	.LANCHOR0
 452 0070 00000000 		.word	.LANCHOR1
 453 0074 00000000 		.word	.LANCHOR2
 454              		.cfi_endproc
 455              	.LFE167:
 457              		.section	.text.lv_tileview_create,"ax",%progbits
 458              		.align	1
 459              		.p2align 2,,3
 460              		.global	lv_tileview_create
 461              		.syntax unified
 462              		.thumb
 463              		.thumb_func
 465              	lv_tileview_create:
 466              	.LVL54:
 467              	.LFB161:
  55:Drivers/lvgl/src/extra/widgets/tileview/lv_tileview.c ****     LV_LOG_INFO("begin");
 468              		.loc 1 55 1 is_stmt 1 view -0
 469              		.cfi_startproc
 470              		@ args = 0, pretend = 0, frame = 0
 471              		@ frame_needed = 0, uses_anonymous_args = 0
  56:Drivers/lvgl/src/extra/widgets/tileview/lv_tileview.c ****     lv_obj_t * obj = lv_obj_class_create_obj(&lv_tileview_class, parent);
 472              		.loc 1 56 5 view .LVU133
  56:Drivers/lvgl/src/extra/widgets/tileview/lv_tileview.c ****     lv_obj_t * obj = lv_obj_class_create_obj(&lv_tileview_class, parent);
 473              		.loc 1 56 5 view .LVU134
  56:Drivers/lvgl/src/extra/widgets/tileview/lv_tileview.c ****     lv_obj_t * obj = lv_obj_class_create_obj(&lv_tileview_class, parent);
 474              		.loc 1 56 5 view .LVU135
  57:Drivers/lvgl/src/extra/widgets/tileview/lv_tileview.c ****     lv_obj_class_init_obj(obj);
 475              		.loc 1 57 5 view .LVU136
  55:Drivers/lvgl/src/extra/widgets/tileview/lv_tileview.c ****     LV_LOG_INFO("begin");
 476              		.loc 1 55 1 is_stmt 0 view .LVU137
 477 0000 10B5     		push	{r4, lr}
 478              		.cfi_def_cfa_offset 8
 479              		.cfi_offset 4, -8
 480              		.cfi_offset 14, -4
  55:Drivers/lvgl/src/extra/widgets/tileview/lv_tileview.c ****     LV_LOG_INFO("begin");
 481              		.loc 1 55 1 view .LVU138
 482 0002 0146     		mov	r1, r0
  57:Drivers/lvgl/src/extra/widgets/tileview/lv_tileview.c ****     lv_obj_class_init_obj(obj);
 483              		.loc 1 57 22 view .LVU139
 484 0004 0348     		ldr	r0, .L27
 485              	.LVL55:
  57:Drivers/lvgl/src/extra/widgets/tileview/lv_tileview.c ****     lv_obj_class_init_obj(obj);
 486              		.loc 1 57 22 view .LVU140
 487 0006 FFF7FEFF 		bl	lv_obj_class_create_obj
 488              	.LVL56:
  57:Drivers/lvgl/src/extra/widgets/tileview/lv_tileview.c ****     lv_obj_class_init_obj(obj);
 489              		.loc 1 57 22 view .LVU141
 490 000a 0446     		mov	r4, r0
 491              	.LVL57:
  58:Drivers/lvgl/src/extra/widgets/tileview/lv_tileview.c ****     return obj;
 492              		.loc 1 58 5 is_stmt 1 view .LVU142
 493 000c FFF7FEFF 		bl	lv_obj_class_init_obj
 494              	.LVL58:
ARM GAS  /var/folders/0z/tsy30v1j4xl4_7kw94k978ww0000gn/T//ccpjA8w7.s 			page 15


  59:Drivers/lvgl/src/extra/widgets/tileview/lv_tileview.c **** }
 495              		.loc 1 59 5 view .LVU143
  60:Drivers/lvgl/src/extra/widgets/tileview/lv_tileview.c **** 
 496              		.loc 1 60 1 is_stmt 0 view .LVU144
 497 0010 2046     		mov	r0, r4
 498 0012 10BD     		pop	{r4, pc}
 499              	.LVL59:
 500              	.L28:
  60:Drivers/lvgl/src/extra/widgets/tileview/lv_tileview.c **** 
 501              		.loc 1 60 1 view .LVU145
 502              		.align	2
 503              	.L27:
 504 0014 00000000 		.word	.LANCHOR3
 505              		.cfi_endproc
 506              	.LFE161:
 508              		.section	.text.lv_tileview_add_tile,"ax",%progbits
 509              		.align	1
 510              		.p2align 2,,3
 511              		.global	lv_tileview_add_tile
 512              		.syntax unified
 513              		.thumb
 514              		.thumb_func
 516              	lv_tileview_add_tile:
 517              	.LVL60:
 518              	.LFB162:
  67:Drivers/lvgl/src/extra/widgets/tileview/lv_tileview.c ****     LV_LOG_INFO("begin");
 519              		.loc 1 67 1 is_stmt 1 view -0
 520              		.cfi_startproc
 521              		@ args = 0, pretend = 0, frame = 0
 522              		@ frame_needed = 0, uses_anonymous_args = 0
  68:Drivers/lvgl/src/extra/widgets/tileview/lv_tileview.c ****     create_dir = dir;
 523              		.loc 1 68 5 view .LVU147
  68:Drivers/lvgl/src/extra/widgets/tileview/lv_tileview.c ****     create_dir = dir;
 524              		.loc 1 68 5 view .LVU148
  68:Drivers/lvgl/src/extra/widgets/tileview/lv_tileview.c ****     create_dir = dir;
 525              		.loc 1 68 5 view .LVU149
  69:Drivers/lvgl/src/extra/widgets/tileview/lv_tileview.c ****     create_col_id = col_id;
 526              		.loc 1 69 5 view .LVU150
  67:Drivers/lvgl/src/extra/widgets/tileview/lv_tileview.c ****     LV_LOG_INFO("begin");
 527              		.loc 1 67 1 is_stmt 0 view .LVU151
 528 0000 38B5     		push	{r3, r4, r5, lr}
 529              		.cfi_def_cfa_offset 16
 530              		.cfi_offset 3, -16
 531              		.cfi_offset 4, -12
 532              		.cfi_offset 5, -8
 533              		.cfi_offset 14, -4
  69:Drivers/lvgl/src/extra/widgets/tileview/lv_tileview.c ****     create_col_id = col_id;
 534              		.loc 1 69 16 view .LVU152
 535 0002 084D     		ldr	r5, .L31
  67:Drivers/lvgl/src/extra/widgets/tileview/lv_tileview.c ****     LV_LOG_INFO("begin");
 536              		.loc 1 67 1 view .LVU153
 537 0004 0C46     		mov	r4, r1
  73:Drivers/lvgl/src/extra/widgets/tileview/lv_tileview.c ****     lv_obj_class_init_obj(obj);
 538              		.loc 1 73 22 view .LVU154
 539 0006 0146     		mov	r1, r0
 540              	.LVL61:
  70:Drivers/lvgl/src/extra/widgets/tileview/lv_tileview.c ****     create_row_id = row_id;
ARM GAS  /var/folders/0z/tsy30v1j4xl4_7kw94k978ww0000gn/T//ccpjA8w7.s 			page 16


 541              		.loc 1 70 19 view .LVU155
 542 0008 0748     		ldr	r0, .L31+4
 543              	.LVL62:
  69:Drivers/lvgl/src/extra/widgets/tileview/lv_tileview.c ****     create_col_id = col_id;
 544              		.loc 1 69 16 view .LVU156
 545 000a 2B70     		strb	r3, [r5]
  70:Drivers/lvgl/src/extra/widgets/tileview/lv_tileview.c ****     create_row_id = row_id;
 546              		.loc 1 70 5 is_stmt 1 view .LVU157
  71:Drivers/lvgl/src/extra/widgets/tileview/lv_tileview.c **** 
 547              		.loc 1 71 19 is_stmt 0 view .LVU158
 548 000c 074B     		ldr	r3, .L31+8
 549              	.LVL63:
  70:Drivers/lvgl/src/extra/widgets/tileview/lv_tileview.c ****     create_row_id = row_id;
 550              		.loc 1 70 19 view .LVU159
 551 000e 0460     		str	r4, [r0]
  71:Drivers/lvgl/src/extra/widgets/tileview/lv_tileview.c **** 
 552              		.loc 1 71 5 is_stmt 1 view .LVU160
  73:Drivers/lvgl/src/extra/widgets/tileview/lv_tileview.c ****     lv_obj_class_init_obj(obj);
 553              		.loc 1 73 22 is_stmt 0 view .LVU161
 554 0010 0748     		ldr	r0, .L31+12
  71:Drivers/lvgl/src/extra/widgets/tileview/lv_tileview.c **** 
 555              		.loc 1 71 19 view .LVU162
 556 0012 1A60     		str	r2, [r3]
  73:Drivers/lvgl/src/extra/widgets/tileview/lv_tileview.c ****     lv_obj_class_init_obj(obj);
 557              		.loc 1 73 5 is_stmt 1 view .LVU163
  73:Drivers/lvgl/src/extra/widgets/tileview/lv_tileview.c ****     lv_obj_class_init_obj(obj);
 558              		.loc 1 73 22 is_stmt 0 view .LVU164
 559 0014 FFF7FEFF 		bl	lv_obj_class_create_obj
 560              	.LVL64:
  73:Drivers/lvgl/src/extra/widgets/tileview/lv_tileview.c ****     lv_obj_class_init_obj(obj);
 561              		.loc 1 73 22 view .LVU165
 562 0018 0446     		mov	r4, r0
 563              	.LVL65:
  74:Drivers/lvgl/src/extra/widgets/tileview/lv_tileview.c ****     return obj;
 564              		.loc 1 74 5 is_stmt 1 view .LVU166
 565 001a FFF7FEFF 		bl	lv_obj_class_init_obj
 566              	.LVL66:
  75:Drivers/lvgl/src/extra/widgets/tileview/lv_tileview.c **** }
 567              		.loc 1 75 5 view .LVU167
  76:Drivers/lvgl/src/extra/widgets/tileview/lv_tileview.c **** 
 568              		.loc 1 76 1 is_stmt 0 view .LVU168
 569 001e 2046     		mov	r0, r4
 570 0020 38BD     		pop	{r3, r4, r5, pc}
 571              	.LVL67:
 572              	.L32:
  76:Drivers/lvgl/src/extra/widgets/tileview/lv_tileview.c **** 
 573              		.loc 1 76 1 view .LVU169
 574 0022 00BF     		.align	2
 575              	.L31:
 576 0024 00000000 		.word	.LANCHOR2
 577 0028 00000000 		.word	.LANCHOR0
 578 002c 00000000 		.word	.LANCHOR1
 579 0030 00000000 		.word	.LANCHOR4
 580              		.cfi_endproc
 581              	.LFE162:
 583              		.section	.text.lv_obj_set_tile,"ax",%progbits
 584              		.align	1
ARM GAS  /var/folders/0z/tsy30v1j4xl4_7kw94k978ww0000gn/T//ccpjA8w7.s 			page 17


 585              		.p2align 2,,3
 586              		.global	lv_obj_set_tile
 587              		.syntax unified
 588              		.thumb
 589              		.thumb_func
 591              	lv_obj_set_tile:
 592              	.LVL68:
 593              	.LFB163:
  79:Drivers/lvgl/src/extra/widgets/tileview/lv_tileview.c ****     lv_coord_t tx = lv_obj_get_x(tile_obj);
 594              		.loc 1 79 1 is_stmt 1 view -0
 595              		.cfi_startproc
 596              		@ args = 0, pretend = 0, frame = 8
 597              		@ frame_needed = 0, uses_anonymous_args = 0
  80:Drivers/lvgl/src/extra/widgets/tileview/lv_tileview.c ****     lv_coord_t ty = lv_obj_get_y(tile_obj);
 598              		.loc 1 80 5 view .LVU171
  79:Drivers/lvgl/src/extra/widgets/tileview/lv_tileview.c ****     lv_coord_t tx = lv_obj_get_x(tile_obj);
 599              		.loc 1 79 1 is_stmt 0 view .LVU172
 600 0000 70B5     		push	{r4, r5, r6, lr}
 601              		.cfi_def_cfa_offset 16
 602              		.cfi_offset 4, -16
 603              		.cfi_offset 5, -12
 604              		.cfi_offset 6, -8
 605              		.cfi_offset 14, -4
 606 0002 82B0     		sub	sp, sp, #8
 607              		.cfi_def_cfa_offset 24
  79:Drivers/lvgl/src/extra/widgets/tileview/lv_tileview.c ****     lv_coord_t tx = lv_obj_get_x(tile_obj);
 608              		.loc 1 79 1 view .LVU173
 609 0004 0546     		mov	r5, r0
  80:Drivers/lvgl/src/extra/widgets/tileview/lv_tileview.c ****     lv_coord_t ty = lv_obj_get_y(tile_obj);
 610              		.loc 1 80 21 view .LVU174
 611 0006 0846     		mov	r0, r1
 612              	.LVL69:
  79:Drivers/lvgl/src/extra/widgets/tileview/lv_tileview.c ****     lv_coord_t tx = lv_obj_get_x(tile_obj);
 613              		.loc 1 79 1 view .LVU175
 614 0008 0C46     		mov	r4, r1
 615 000a 0192     		str	r2, [sp, #4]
  80:Drivers/lvgl/src/extra/widgets/tileview/lv_tileview.c ****     lv_coord_t ty = lv_obj_get_y(tile_obj);
 616              		.loc 1 80 21 view .LVU176
 617 000c FFF7FEFF 		bl	lv_obj_get_x
 618              	.LVL70:
  80:Drivers/lvgl/src/extra/widgets/tileview/lv_tileview.c ****     lv_coord_t ty = lv_obj_get_y(tile_obj);
 619              		.loc 1 80 21 view .LVU177
 620 0010 0646     		mov	r6, r0
  81:Drivers/lvgl/src/extra/widgets/tileview/lv_tileview.c **** 
 621              		.loc 1 81 21 view .LVU178
 622 0012 2046     		mov	r0, r4
 623              	.LVL71:
  81:Drivers/lvgl/src/extra/widgets/tileview/lv_tileview.c **** 
 624              		.loc 1 81 5 is_stmt 1 view .LVU179
  81:Drivers/lvgl/src/extra/widgets/tileview/lv_tileview.c **** 
 625              		.loc 1 81 21 is_stmt 0 view .LVU180
 626 0014 FFF7FEFF 		bl	lv_obj_get_y
 627              	.LVL72:
  85:Drivers/lvgl/src/extra/widgets/tileview/lv_tileview.c **** 
 628              		.loc 1 85 18 view .LVU181
 629 0018 6C62     		str	r4, [r5, #36]
  87:Drivers/lvgl/src/extra/widgets/tileview/lv_tileview.c ****     lv_obj_scroll_to(obj, tx, ty, anim_en);
ARM GAS  /var/folders/0z/tsy30v1j4xl4_7kw94k978ww0000gn/T//ccpjA8w7.s 			page 18


 630              		.loc 1 87 5 view .LVU182
 631 001a 94F82410 		ldrb	r1, [r4, #36]	@ zero_extendqisi2
  81:Drivers/lvgl/src/extra/widgets/tileview/lv_tileview.c **** 
 632              		.loc 1 81 21 view .LVU183
 633 001e 0090     		str	r0, [sp]
 634              	.LVL73:
  83:Drivers/lvgl/src/extra/widgets/tileview/lv_tileview.c ****     lv_tileview_t * tv = (lv_tileview_t *) obj;
 635              		.loc 1 83 5 is_stmt 1 view .LVU184
  84:Drivers/lvgl/src/extra/widgets/tileview/lv_tileview.c ****     tv->tile_act = (lv_obj_t *)tile;
 636              		.loc 1 84 5 view .LVU185
  85:Drivers/lvgl/src/extra/widgets/tileview/lv_tileview.c **** 
 637              		.loc 1 85 5 view .LVU186
  87:Drivers/lvgl/src/extra/widgets/tileview/lv_tileview.c ****     lv_obj_scroll_to(obj, tx, ty, anim_en);
 638              		.loc 1 87 5 view .LVU187
 639 0020 2846     		mov	r0, r5
 640 0022 FFF7FEFF 		bl	lv_obj_set_scroll_dir
 641              	.LVL74:
  88:Drivers/lvgl/src/extra/widgets/tileview/lv_tileview.c **** }
 642              		.loc 1 88 5 view .LVU188
 643 0026 DDE90023 		ldrd	r2, r3, [sp]
 644 002a 3146     		mov	r1, r6
 645 002c 2846     		mov	r0, r5
  89:Drivers/lvgl/src/extra/widgets/tileview/lv_tileview.c **** 
 646              		.loc 1 89 1 is_stmt 0 view .LVU189
 647 002e 02B0     		add	sp, sp, #8
 648              		.cfi_def_cfa_offset 16
 649              	.LVL75:
  89:Drivers/lvgl/src/extra/widgets/tileview/lv_tileview.c **** 
 650              		.loc 1 89 1 view .LVU190
 651              		@ sp needed
 652 0030 BDE87040 		pop	{r4, r5, r6, lr}
 653              		.cfi_restore 14
 654              		.cfi_restore 6
 655              		.cfi_restore 5
 656              		.cfi_restore 4
 657              		.cfi_def_cfa_offset 0
 658              	.LVL76:
  88:Drivers/lvgl/src/extra/widgets/tileview/lv_tileview.c **** }
 659              		.loc 1 88 5 view .LVU191
 660 0034 FFF7FEBF 		b	lv_obj_scroll_to
 661              	.LVL77:
  88:Drivers/lvgl/src/extra/widgets/tileview/lv_tileview.c **** }
 662              		.loc 1 88 5 view .LVU192
 663              		.cfi_endproc
 664              	.LFE163:
 666              		.section	.text.lv_obj_set_tile_id,"ax",%progbits
 667              		.align	1
 668              		.p2align 2,,3
 669              		.global	lv_obj_set_tile_id
 670              		.syntax unified
 671              		.thumb
 672              		.thumb_func
 674              	lv_obj_set_tile_id:
 675              	.LVL78:
 676              	.LFB164:
  92:Drivers/lvgl/src/extra/widgets/tileview/lv_tileview.c ****     lv_obj_update_layout(tv);
 677              		.loc 1 92 1 is_stmt 1 view -0
ARM GAS  /var/folders/0z/tsy30v1j4xl4_7kw94k978ww0000gn/T//ccpjA8w7.s 			page 19


 678              		.cfi_startproc
 679              		@ args = 0, pretend = 0, frame = 8
 680              		@ frame_needed = 0, uses_anonymous_args = 0
  93:Drivers/lvgl/src/extra/widgets/tileview/lv_tileview.c **** 
 681              		.loc 1 93 5 view .LVU194
  92:Drivers/lvgl/src/extra/widgets/tileview/lv_tileview.c ****     lv_obj_update_layout(tv);
 682              		.loc 1 92 1 is_stmt 0 view .LVU195
 683 0000 2DE9F047 		push	{r4, r5, r6, r7, r8, r9, r10, lr}
 684              		.cfi_def_cfa_offset 32
 685              		.cfi_offset 4, -32
 686              		.cfi_offset 5, -28
 687              		.cfi_offset 6, -24
 688              		.cfi_offset 7, -20
 689              		.cfi_offset 8, -16
 690              		.cfi_offset 9, -12
 691              		.cfi_offset 10, -8
 692              		.cfi_offset 14, -4
 693 0004 0746     		mov	r7, r0
 694 0006 82B0     		sub	sp, sp, #8
 695              		.cfi_def_cfa_offset 40
  92:Drivers/lvgl/src/extra/widgets/tileview/lv_tileview.c ****     lv_obj_update_layout(tv);
 696              		.loc 1 92 1 view .LVU196
 697 0008 1446     		mov	r4, r2
 698 000a 0D46     		mov	r5, r1
 699 000c 9A46     		mov	r10, r3
  93:Drivers/lvgl/src/extra/widgets/tileview/lv_tileview.c **** 
 700              		.loc 1 93 5 view .LVU197
 701 000e FFF7FEFF 		bl	lv_obj_update_layout
 702              	.LVL79:
  95:Drivers/lvgl/src/extra/widgets/tileview/lv_tileview.c ****     lv_coord_t h = lv_obj_get_content_height(tv);
 703              		.loc 1 95 5 is_stmt 1 view .LVU198
  95:Drivers/lvgl/src/extra/widgets/tileview/lv_tileview.c ****     lv_coord_t h = lv_obj_get_content_height(tv);
 704              		.loc 1 95 20 is_stmt 0 view .LVU199
 705 0012 3846     		mov	r0, r7
 706 0014 FFF7FEFF 		bl	lv_obj_get_content_width
 707              	.LVL80:
 708 0018 8046     		mov	r8, r0
 709              	.LVL81:
  96:Drivers/lvgl/src/extra/widgets/tileview/lv_tileview.c **** 
 710              		.loc 1 96 5 is_stmt 1 view .LVU200
  96:Drivers/lvgl/src/extra/widgets/tileview/lv_tileview.c **** 
 711              		.loc 1 96 20 is_stmt 0 view .LVU201
 712 001a 3846     		mov	r0, r7
 713 001c FFF7FEFF 		bl	lv_obj_get_content_height
 714              	.LVL82:
  98:Drivers/lvgl/src/extra/widgets/tileview/lv_tileview.c ****     lv_coord_t ty = row_id * h;
 715              		.loc 1 98 5 is_stmt 1 view .LVU202
  98:Drivers/lvgl/src/extra/widgets/tileview/lv_tileview.c ****     lv_coord_t ty = row_id * h;
 716              		.loc 1 98 16 is_stmt 0 view .LVU203
 717 0020 18FB05F8 		smulbb	r8, r8, r5
 718              	.LVL83:
  99:Drivers/lvgl/src/extra/widgets/tileview/lv_tileview.c **** 
 719              		.loc 1 99 16 view .LVU204
 720 0024 10FB04F0 		smulbb	r0, r0, r4
 721              	.LVL84:
  98:Drivers/lvgl/src/extra/widgets/tileview/lv_tileview.c ****     lv_coord_t ty = row_id * h;
 722              		.loc 1 98 16 view .LVU205
ARM GAS  /var/folders/0z/tsy30v1j4xl4_7kw94k978ww0000gn/T//ccpjA8w7.s 			page 20


 723 0028 0FFA88F8 		sxth	r8, r8
 724              	.LVL85:
  99:Drivers/lvgl/src/extra/widgets/tileview/lv_tileview.c **** 
 725              		.loc 1 99 5 is_stmt 1 view .LVU206
  99:Drivers/lvgl/src/extra/widgets/tileview/lv_tileview.c **** 
 726              		.loc 1 99 16 is_stmt 0 view .LVU207
 727 002c 0FFA80F9 		sxth	r9, r0
 728              	.LVL86:
 101:Drivers/lvgl/src/extra/widgets/tileview/lv_tileview.c ****     for(i = 0; i < lv_obj_get_child_cnt(tv); i++) {
 729              		.loc 1 101 5 is_stmt 1 view .LVU208
 102:Drivers/lvgl/src/extra/widgets/tileview/lv_tileview.c ****         lv_obj_t * tile_obj = lv_obj_get_child(tv, i);
 730              		.loc 1 102 5 view .LVU209
 102:Drivers/lvgl/src/extra/widgets/tileview/lv_tileview.c ****         lv_obj_t * tile_obj = lv_obj_get_child(tv, i);
 731              		.loc 1 102 11 is_stmt 0 view .LVU210
 732 0030 0024     		movs	r4, #0
 733              	.LVL87:
 102:Drivers/lvgl/src/extra/widgets/tileview/lv_tileview.c ****         lv_obj_t * tile_obj = lv_obj_get_child(tv, i);
 734              		.loc 1 102 5 view .LVU211
 735 0032 00E0     		b	.L36
 736              	.LVL88:
 737              	.L37:
 102:Drivers/lvgl/src/extra/widgets/tileview/lv_tileview.c ****         lv_obj_t * tile_obj = lv_obj_get_child(tv, i);
 738              		.loc 1 102 47 discriminator 2 view .LVU212
 739 0034 0134     		adds	r4, r4, #1
 740              	.LVL89:
 741              	.L36:
 102:Drivers/lvgl/src/extra/widgets/tileview/lv_tileview.c ****         lv_obj_t * tile_obj = lv_obj_get_child(tv, i);
 742              		.loc 1 102 18 is_stmt 1 discriminator 1 view .LVU213
 102:Drivers/lvgl/src/extra/widgets/tileview/lv_tileview.c ****         lv_obj_t * tile_obj = lv_obj_get_child(tv, i);
 743              		.loc 1 102 20 is_stmt 0 discriminator 1 view .LVU214
 744 0036 3846     		mov	r0, r7
 745 0038 FFF7FEFF 		bl	lv_obj_get_child_cnt
 746              	.LVL90:
 747              	.LBB11:
 103:Drivers/lvgl/src/extra/widgets/tileview/lv_tileview.c ****         lv_coord_t x = lv_obj_get_x(tile_obj);
 748              		.loc 1 103 9 is_stmt 1 discriminator 1 view .LVU215
 749              	.LBE11:
 102:Drivers/lvgl/src/extra/widgets/tileview/lv_tileview.c ****         lv_obj_t * tile_obj = lv_obj_get_child(tv, i);
 750              		.loc 1 102 20 is_stmt 0 discriminator 1 view .LVU216
 751 003c 0346     		mov	r3, r0
 102:Drivers/lvgl/src/extra/widgets/tileview/lv_tileview.c ****         lv_obj_t * tile_obj = lv_obj_get_child(tv, i);
 752              		.loc 1 102 18 discriminator 1 view .LVU217
 753 003e A342     		cmp	r3, r4
 754              	.LBB16:
 103:Drivers/lvgl/src/extra/widgets/tileview/lv_tileview.c ****         lv_coord_t x = lv_obj_get_x(tile_obj);
 755              		.loc 1 103 31 discriminator 1 view .LVU218
 756 0040 2146     		mov	r1, r4
 757 0042 3846     		mov	r0, r7
 758              	.LBE16:
 102:Drivers/lvgl/src/extra/widgets/tileview/lv_tileview.c ****         lv_obj_t * tile_obj = lv_obj_get_child(tv, i);
 759              		.loc 1 102 18 discriminator 1 view .LVU219
 760 0044 23D9     		bls	.L40
 761              	.LVL91:
 762              	.LBB17:
 103:Drivers/lvgl/src/extra/widgets/tileview/lv_tileview.c ****         lv_coord_t x = lv_obj_get_x(tile_obj);
 763              		.loc 1 103 31 view .LVU220
 764 0046 FFF7FEFF 		bl	lv_obj_get_child
ARM GAS  /var/folders/0z/tsy30v1j4xl4_7kw94k978ww0000gn/T//ccpjA8w7.s 			page 21


 765              	.LVL92:
 103:Drivers/lvgl/src/extra/widgets/tileview/lv_tileview.c ****         lv_coord_t x = lv_obj_get_x(tile_obj);
 766              		.loc 1 103 31 view .LVU221
 767 004a 0546     		mov	r5, r0
 768              	.LVL93:
 104:Drivers/lvgl/src/extra/widgets/tileview/lv_tileview.c ****         lv_coord_t y = lv_obj_get_y(tile_obj);
 769              		.loc 1 104 9 is_stmt 1 view .LVU222
 104:Drivers/lvgl/src/extra/widgets/tileview/lv_tileview.c ****         lv_coord_t y = lv_obj_get_y(tile_obj);
 770              		.loc 1 104 24 is_stmt 0 view .LVU223
 771 004c FFF7FEFF 		bl	lv_obj_get_x
 772              	.LVL94:
 104:Drivers/lvgl/src/extra/widgets/tileview/lv_tileview.c ****         lv_coord_t y = lv_obj_get_y(tile_obj);
 773              		.loc 1 104 24 view .LVU224
 774 0050 0646     		mov	r6, r0
 105:Drivers/lvgl/src/extra/widgets/tileview/lv_tileview.c ****         if(x == tx && y == ty) {
 775              		.loc 1 105 24 view .LVU225
 776 0052 2846     		mov	r0, r5
 777              	.LVL95:
 105:Drivers/lvgl/src/extra/widgets/tileview/lv_tileview.c ****         if(x == tx && y == ty) {
 778              		.loc 1 105 9 is_stmt 1 view .LVU226
 105:Drivers/lvgl/src/extra/widgets/tileview/lv_tileview.c ****         if(x == tx && y == ty) {
 779              		.loc 1 105 24 is_stmt 0 view .LVU227
 780 0054 FFF7FEFF 		bl	lv_obj_get_y
 781              	.LVL96:
 782              	.LBE17:
 102:Drivers/lvgl/src/extra/widgets/tileview/lv_tileview.c ****         lv_obj_t * tile_obj = lv_obj_get_child(tv, i);
 783              		.loc 1 102 47 is_stmt 1 view .LVU228
 784              	.LBB18:
 106:Drivers/lvgl/src/extra/widgets/tileview/lv_tileview.c ****             lv_obj_set_tile(tv, tile_obj, anim_en);
 785              		.loc 1 106 9 view .LVU229
 106:Drivers/lvgl/src/extra/widgets/tileview/lv_tileview.c ****             lv_obj_set_tile(tv, tile_obj, anim_en);
 786              		.loc 1 106 11 is_stmt 0 view .LVU230
 787 0058 B045     		cmp	r8, r6
 788 005a EBD1     		bne	.L37
 106:Drivers/lvgl/src/extra/widgets/tileview/lv_tileview.c ****             lv_obj_set_tile(tv, tile_obj, anim_en);
 789              		.loc 1 106 20 discriminator 1 view .LVU231
 790 005c 8145     		cmp	r9, r0
 791 005e E9D1     		bne	.L37
 107:Drivers/lvgl/src/extra/widgets/tileview/lv_tileview.c ****             return;
 792              		.loc 1 107 13 is_stmt 1 view .LVU232
 793              	.LVL97:
 794              	.LBB12:
 795              	.LBI12:
  78:Drivers/lvgl/src/extra/widgets/tileview/lv_tileview.c **** {
 796              		.loc 1 78 6 view .LVU233
 797              	.LBB13:
  80:Drivers/lvgl/src/extra/widgets/tileview/lv_tileview.c ****     lv_coord_t ty = lv_obj_get_y(tile_obj);
 798              		.loc 1 80 5 view .LVU234
  80:Drivers/lvgl/src/extra/widgets/tileview/lv_tileview.c ****     lv_coord_t ty = lv_obj_get_y(tile_obj);
 799              		.loc 1 80 21 is_stmt 0 view .LVU235
 800 0060 2846     		mov	r0, r5
 801              	.LVL98:
  80:Drivers/lvgl/src/extra/widgets/tileview/lv_tileview.c ****     lv_coord_t ty = lv_obj_get_y(tile_obj);
 802              		.loc 1 80 21 view .LVU236
 803 0062 FFF7FEFF 		bl	lv_obj_get_x
 804              	.LVL99:
 805 0066 0446     		mov	r4, r0
ARM GAS  /var/folders/0z/tsy30v1j4xl4_7kw94k978ww0000gn/T//ccpjA8w7.s 			page 22


 806              	.LVL100:
  81:Drivers/lvgl/src/extra/widgets/tileview/lv_tileview.c **** 
 807              		.loc 1 81 21 view .LVU237
 808 0068 2846     		mov	r0, r5
 809              	.LVL101:
  81:Drivers/lvgl/src/extra/widgets/tileview/lv_tileview.c **** 
 810              		.loc 1 81 5 is_stmt 1 view .LVU238
  81:Drivers/lvgl/src/extra/widgets/tileview/lv_tileview.c **** 
 811              		.loc 1 81 21 is_stmt 0 view .LVU239
 812 006a FFF7FEFF 		bl	lv_obj_get_y
 813              	.LVL102:
  85:Drivers/lvgl/src/extra/widgets/tileview/lv_tileview.c **** 
 814              		.loc 1 85 18 view .LVU240
 815 006e 7D62     		str	r5, [r7, #36]
  87:Drivers/lvgl/src/extra/widgets/tileview/lv_tileview.c ****     lv_obj_scroll_to(obj, tx, ty, anim_en);
 816              		.loc 1 87 5 view .LVU241
 817 0070 95F82410 		ldrb	r1, [r5, #36]	@ zero_extendqisi2
  81:Drivers/lvgl/src/extra/widgets/tileview/lv_tileview.c **** 
 818              		.loc 1 81 21 view .LVU242
 819 0074 0190     		str	r0, [sp, #4]
 820              	.LVL103:
  83:Drivers/lvgl/src/extra/widgets/tileview/lv_tileview.c ****     lv_tileview_t * tv = (lv_tileview_t *) obj;
 821              		.loc 1 83 5 is_stmt 1 view .LVU243
  84:Drivers/lvgl/src/extra/widgets/tileview/lv_tileview.c ****     tv->tile_act = (lv_obj_t *)tile;
 822              		.loc 1 84 5 view .LVU244
  85:Drivers/lvgl/src/extra/widgets/tileview/lv_tileview.c **** 
 823              		.loc 1 85 5 view .LVU245
  87:Drivers/lvgl/src/extra/widgets/tileview/lv_tileview.c ****     lv_obj_scroll_to(obj, tx, ty, anim_en);
 824              		.loc 1 87 5 view .LVU246
 825 0076 3846     		mov	r0, r7
 826 0078 FFF7FEFF 		bl	lv_obj_set_scroll_dir
 827              	.LVL104:
  88:Drivers/lvgl/src/extra/widgets/tileview/lv_tileview.c **** }
 828              		.loc 1 88 5 view .LVU247
 829 007c 019A     		ldr	r2, [sp, #4]
 830 007e 5346     		mov	r3, r10
 831 0080 2146     		mov	r1, r4
 832 0082 3846     		mov	r0, r7
 833              	.LBE13:
 834              	.LBE12:
 835              	.LBE18:
 113:Drivers/lvgl/src/extra/widgets/tileview/lv_tileview.c **** 
 836              		.loc 1 113 1 is_stmt 0 view .LVU248
 837 0084 02B0     		add	sp, sp, #8
 838              		.cfi_remember_state
 839              		.cfi_def_cfa_offset 32
 840              		@ sp needed
 841 0086 BDE8F047 		pop	{r4, r5, r6, r7, r8, r9, r10, lr}
 842              		.cfi_restore 14
 843              		.cfi_restore 10
 844              		.cfi_restore 9
 845              		.cfi_restore 8
 846              		.cfi_restore 7
 847              		.cfi_restore 6
 848              		.cfi_restore 5
 849              		.cfi_restore 4
 850              		.cfi_def_cfa_offset 0
ARM GAS  /var/folders/0z/tsy30v1j4xl4_7kw94k978ww0000gn/T//ccpjA8w7.s 			page 23


 851              	.LVL105:
 852              	.LBB19:
 853              	.LBB15:
 854              	.LBB14:
  88:Drivers/lvgl/src/extra/widgets/tileview/lv_tileview.c **** }
 855              		.loc 1 88 5 view .LVU249
 856 008a FFF7FEBF 		b	lv_obj_scroll_to
 857              	.LVL106:
 858              	.L40:
 859              		.cfi_restore_state
  88:Drivers/lvgl/src/extra/widgets/tileview/lv_tileview.c **** }
 860              		.loc 1 88 5 view .LVU250
 861              	.LBE14:
 862              	.LBE15:
 863              	.LBE19:
 113:Drivers/lvgl/src/extra/widgets/tileview/lv_tileview.c **** 
 864              		.loc 1 113 1 view .LVU251
 865 008e 02B0     		add	sp, sp, #8
 866              		.cfi_def_cfa_offset 32
 867              		@ sp needed
 868 0090 BDE8F087 		pop	{r4, r5, r6, r7, r8, r9, r10, pc}
 113:Drivers/lvgl/src/extra/widgets/tileview/lv_tileview.c **** 
 869              		.loc 1 113 1 view .LVU252
 870              		.cfi_endproc
 871              	.LFE164:
 873              		.section	.text.lv_tileview_get_tile_act,"ax",%progbits
 874              		.align	1
 875              		.p2align 2,,3
 876              		.global	lv_tileview_get_tile_act
 877              		.syntax unified
 878              		.thumb
 879              		.thumb_func
 881              	lv_tileview_get_tile_act:
 882              	.LVL107:
 883              	.LFB165:
 116:Drivers/lvgl/src/extra/widgets/tileview/lv_tileview.c ****     lv_tileview_t * tv = (lv_tileview_t *) obj;
 884              		.loc 1 116 1 is_stmt 1 view -0
 885              		.cfi_startproc
 886              		@ args = 0, pretend = 0, frame = 0
 887              		@ frame_needed = 0, uses_anonymous_args = 0
 888              		@ link register save eliminated.
 117:Drivers/lvgl/src/extra/widgets/tileview/lv_tileview.c ****     return tv->tile_act;
 889              		.loc 1 117 5 view .LVU254
 118:Drivers/lvgl/src/extra/widgets/tileview/lv_tileview.c **** }
 890              		.loc 1 118 5 view .LVU255
 119:Drivers/lvgl/src/extra/widgets/tileview/lv_tileview.c **** 
 891              		.loc 1 119 1 is_stmt 0 view .LVU256
 892 0000 406A     		ldr	r0, [r0, #36]
 893              	.LVL108:
 119:Drivers/lvgl/src/extra/widgets/tileview/lv_tileview.c **** 
 894              		.loc 1 119 1 view .LVU257
 895 0002 7047     		bx	lr
 896              		.cfi_endproc
 897              	.LFE165:
 899              		.global	lv_tileview_tile_class
 900              		.global	lv_tileview_class
 901              		.section	.bss.create_col_id,"aw",%nobits
ARM GAS  /var/folders/0z/tsy30v1j4xl4_7kw94k978ww0000gn/T//ccpjA8w7.s 			page 24


 902              		.align	2
 903              		.set	.LANCHOR0,. + 0
 906              	create_col_id:
 907 0000 00000000 		.space	4
 908              		.section	.bss.create_dir,"aw",%nobits
 909              		.set	.LANCHOR2,. + 0
 912              	create_dir:
 913 0000 00       		.space	1
 914              		.section	.bss.create_row_id,"aw",%nobits
 915              		.align	2
 916              		.set	.LANCHOR1,. + 0
 919              	create_row_id:
 920 0000 00000000 		.space	4
 921              		.section	.rodata.lv_tileview_class,"a"
 922              		.align	2
 923              		.set	.LANCHOR3,. + 0
 926              	lv_tileview_class:
 927 0000 00000000 		.word	lv_obj_class
 928 0004 00000000 		.word	lv_tileview_constructor
 929 0008 00000000 		.space	16
 929      00000000 
 929      00000000 
 929      00000000 
 930 0018 80       		.byte	128
 931 0019 02       		.byte	2
 932 001a 00       		.byte	0
 933 001b 00       		.space	1
 934              		.section	.rodata.lv_tileview_tile_class,"a"
 935              		.align	2
 936              		.set	.LANCHOR4,. + 0
 939              	lv_tileview_tile_class:
 940 0000 00000000 		.word	lv_obj_class
 941 0004 00000000 		.word	lv_tileview_tile_constructor
 942 0008 00000000 		.space	16
 942      00000000 
 942      00000000 
 942      00000000 
 943 0018 80       		.byte	128
 944 0019 02       		.byte	2
 945 001a 00       		.byte	0
 946 001b 00       		.space	1
 947              		.text
 948              	.Letext0:
 949              		.file 2 "/Users/johannes/Library/Application Support/Code/User/globalStorage/bmd.stm32-for-vscode/
 950              		.file 3 "/Users/johannes/Library/Application Support/Code/User/globalStorage/bmd.stm32-for-vscode/
 951              		.file 4 "/Users/johannes/Library/Application Support/Code/User/globalStorage/bmd.stm32-for-vscode/
 952              		.file 5 "Drivers/lvgl/src/extra/widgets/tileview/../../../core/../misc/../font/../misc/lv_area.h"
 953              		.file 6 "Drivers/lvgl/src/extra/widgets/tileview/../../../core/../misc/../font/lv_font.h"
 954              		.file 7 "Drivers/lvgl/src/extra/widgets/tileview/../../../core/../misc/lv_types.h"
 955              		.file 8 "Drivers/lvgl/src/extra/widgets/tileview/../../../core/../misc/lv_color.h"
 956              		.file 9 "Drivers/lvgl/src/extra/widgets/tileview/../../../core/../misc/lv_anim.h"
 957              		.file 10 "Drivers/lvgl/src/extra/widgets/tileview/../../../core/../misc/lv_txt.h"
 958              		.file 11 "Drivers/lvgl/src/extra/widgets/tileview/../../../core/../misc/lv_bidi.h"
 959              		.file 12 "Drivers/lvgl/src/extra/widgets/tileview/../../../core/../misc/lv_style.h"
 960              		.file 13 "Drivers/lvgl/src/extra/widgets/tileview/../../../core/../hal/../draw/lv_img_buf.h"
 961              		.file 14 "Drivers/lvgl/src/extra/widgets/tileview/../../../core/lv_obj.h"
 962              		.file 15 "Drivers/lvgl/src/extra/widgets/tileview/../../../core/../hal/../draw/lv_draw_rect.h"
ARM GAS  /var/folders/0z/tsy30v1j4xl4_7kw94k978ww0000gn/T//ccpjA8w7.s 			page 25


 963              		.file 16 "Drivers/lvgl/src/extra/widgets/tileview/../../../core/../hal/../draw/lv_draw_label.h"
 964              		.file 17 "Drivers/lvgl/src/extra/widgets/tileview/../../../core/../hal/../draw/lv_draw_img.h"
 965              		.file 18 "Drivers/lvgl/src/extra/widgets/tileview/../../../core/../hal/../draw/lv_draw_line.h"
 966              		.file 19 "Drivers/lvgl/src/extra/widgets/tileview/../../../core/../hal/../draw/lv_draw_arc.h"
 967              		.file 20 "Drivers/lvgl/src/extra/widgets/tileview/../../../core/../hal/../draw/lv_draw_layer.h"
 968              		.file 21 "Drivers/lvgl/src/extra/widgets/tileview/../../../core/../hal/../draw/lv_draw.h"
 969              		.file 22 "Drivers/lvgl/src/extra/widgets/tileview/../../../core/../hal/../misc/lv_ll.h"
 970              		.file 23 "Drivers/lvgl/src/extra/widgets/tileview/../../../core/../hal/../misc/lv_timer.h"
 971              		.file 24 "Drivers/lvgl/src/extra/widgets/tileview/../../../core/../hal/lv_hal_disp.h"
 972              		.file 25 "Drivers/lvgl/src/extra/widgets/tileview/../../../core/../hal/lv_hal_indev.h"
 973              		.file 26 "Drivers/lvgl/src/extra/widgets/tileview/../../../core/lv_group.h"
 974              		.file 27 "Drivers/lvgl/src/extra/widgets/tileview/../../../core/lv_obj_scroll.h"
 975              		.file 28 "Drivers/lvgl/src/extra/widgets/tileview/../../../core/lv_obj_style.h"
 976              		.file 29 "Drivers/lvgl/src/extra/widgets/tileview/../../../core/lv_obj_class.h"
 977              		.file 30 "Drivers/lvgl/src/extra/widgets/tileview/../../../core/lv_event.h"
 978              		.file 31 "Drivers/lvgl/src/extra/widgets/tileview/lv_tileview.h"
 979              		.file 32 "Drivers/lvgl/src/extra/widgets/tileview/../../../core/../hal/../draw/sw/../../core/lv_ob
 980              		.file 33 "Drivers/lvgl/src/extra/widgets/tileview/../../../core/lv_obj_tree.h"
 981              		.file 34 "Drivers/lvgl/src/extra/widgets/tileview/../../../core/lv_indev.h"
ARM GAS  /var/folders/0z/tsy30v1j4xl4_7kw94k978ww0000gn/T//ccpjA8w7.s 			page 26


DEFINED SYMBOLS
                            *ABS*:0000000000000000 lv_tileview.c
/var/folders/0z/tsy30v1j4xl4_7kw94k978ww0000gn/T//ccpjA8w7.s:20     .text.lv_tileview_constructor:0000000000000000 $t
/var/folders/0z/tsy30v1j4xl4_7kw94k978ww0000gn/T//ccpjA8w7.s:26     .text.lv_tileview_constructor:0000000000000000 lv_tileview_constructor
/var/folders/0z/tsy30v1j4xl4_7kw94k978ww0000gn/T//ccpjA8w7.s:87     .text.lv_tileview_constructor:0000000000000038 $d
/var/folders/0z/tsy30v1j4xl4_7kw94k978ww0000gn/T//ccpjA8w7.s:98     .text.tileview_event_cb:0000000000000000 tileview_event_cb
/var/folders/0z/tsy30v1j4xl4_7kw94k978ww0000gn/T//ccpjA8w7.s:92     .text.tileview_event_cb:0000000000000000 $t
/var/folders/0z/tsy30v1j4xl4_7kw94k978ww0000gn/T//ccpjA8w7.s:329    .text.lv_tileview_tile_constructor:0000000000000000 $t
/var/folders/0z/tsy30v1j4xl4_7kw94k978ww0000gn/T//ccpjA8w7.s:335    .text.lv_tileview_tile_constructor:0000000000000000 lv_tileview_tile_constructor
/var/folders/0z/tsy30v1j4xl4_7kw94k978ww0000gn/T//ccpjA8w7.s:451    .text.lv_tileview_tile_constructor:000000000000006c $d
/var/folders/0z/tsy30v1j4xl4_7kw94k978ww0000gn/T//ccpjA8w7.s:458    .text.lv_tileview_create:0000000000000000 $t
/var/folders/0z/tsy30v1j4xl4_7kw94k978ww0000gn/T//ccpjA8w7.s:465    .text.lv_tileview_create:0000000000000000 lv_tileview_create
/var/folders/0z/tsy30v1j4xl4_7kw94k978ww0000gn/T//ccpjA8w7.s:504    .text.lv_tileview_create:0000000000000014 $d
/var/folders/0z/tsy30v1j4xl4_7kw94k978ww0000gn/T//ccpjA8w7.s:509    .text.lv_tileview_add_tile:0000000000000000 $t
/var/folders/0z/tsy30v1j4xl4_7kw94k978ww0000gn/T//ccpjA8w7.s:516    .text.lv_tileview_add_tile:0000000000000000 lv_tileview_add_tile
/var/folders/0z/tsy30v1j4xl4_7kw94k978ww0000gn/T//ccpjA8w7.s:576    .text.lv_tileview_add_tile:0000000000000024 $d
/var/folders/0z/tsy30v1j4xl4_7kw94k978ww0000gn/T//ccpjA8w7.s:584    .text.lv_obj_set_tile:0000000000000000 $t
/var/folders/0z/tsy30v1j4xl4_7kw94k978ww0000gn/T//ccpjA8w7.s:591    .text.lv_obj_set_tile:0000000000000000 lv_obj_set_tile
/var/folders/0z/tsy30v1j4xl4_7kw94k978ww0000gn/T//ccpjA8w7.s:667    .text.lv_obj_set_tile_id:0000000000000000 $t
/var/folders/0z/tsy30v1j4xl4_7kw94k978ww0000gn/T//ccpjA8w7.s:674    .text.lv_obj_set_tile_id:0000000000000000 lv_obj_set_tile_id
/var/folders/0z/tsy30v1j4xl4_7kw94k978ww0000gn/T//ccpjA8w7.s:874    .text.lv_tileview_get_tile_act:0000000000000000 $t
/var/folders/0z/tsy30v1j4xl4_7kw94k978ww0000gn/T//ccpjA8w7.s:881    .text.lv_tileview_get_tile_act:0000000000000000 lv_tileview_get_tile_act
/var/folders/0z/tsy30v1j4xl4_7kw94k978ww0000gn/T//ccpjA8w7.s:939    .rodata.lv_tileview_tile_class:0000000000000000 lv_tileview_tile_class
/var/folders/0z/tsy30v1j4xl4_7kw94k978ww0000gn/T//ccpjA8w7.s:926    .rodata.lv_tileview_class:0000000000000000 lv_tileview_class
/var/folders/0z/tsy30v1j4xl4_7kw94k978ww0000gn/T//ccpjA8w7.s:902    .bss.create_col_id:0000000000000000 $d
/var/folders/0z/tsy30v1j4xl4_7kw94k978ww0000gn/T//ccpjA8w7.s:906    .bss.create_col_id:0000000000000000 create_col_id
/var/folders/0z/tsy30v1j4xl4_7kw94k978ww0000gn/T//ccpjA8w7.s:912    .bss.create_dir:0000000000000000 create_dir
/var/folders/0z/tsy30v1j4xl4_7kw94k978ww0000gn/T//ccpjA8w7.s:913    .bss.create_dir:0000000000000000 $d
/var/folders/0z/tsy30v1j4xl4_7kw94k978ww0000gn/T//ccpjA8w7.s:915    .bss.create_row_id:0000000000000000 $d
/var/folders/0z/tsy30v1j4xl4_7kw94k978ww0000gn/T//ccpjA8w7.s:919    .bss.create_row_id:0000000000000000 create_row_id
/var/folders/0z/tsy30v1j4xl4_7kw94k978ww0000gn/T//ccpjA8w7.s:922    .rodata.lv_tileview_class:0000000000000000 $d
/var/folders/0z/tsy30v1j4xl4_7kw94k978ww0000gn/T//ccpjA8w7.s:935    .rodata.lv_tileview_tile_class:0000000000000000 $d

UNDEFINED SYMBOLS
lv_obj_set_size
lv_obj_add_event_cb
lv_obj_add_flag
lv_obj_set_scroll_snap_x
lv_obj_set_scroll_snap_y
lv_event_get_code
lv_event_get_target
lv_indev_get_act
lv_obj_get_content_width
lv_obj_get_content_height
lv_obj_get_scroll_end
lv_obj_get_child_cnt
lv_obj_get_child
lv_obj_get_x
lv_obj_get_y
lv_event_send
lv_obj_set_scroll_dir
lv_obj_get_parent
lv_obj_update_layout
lv_obj_set_pos
lv_obj_class_create_obj
lv_obj_class_init_obj
lv_obj_scroll_to
ARM GAS  /var/folders/0z/tsy30v1j4xl4_7kw94k978ww0000gn/T//ccpjA8w7.s 			page 27


lv_obj_class
