ARM GAS  /var/folders/lp/x54gwt890xv47sdkqj1k04q40000gn/T//ccyJ1brm.s 			page 1


   1              		.cpu cortex-m4
   2              		.arch armv7e-m
   3              		.fpu fpv4-sp-d16
   4              		.eabi_attribute 27, 1
   5              		.eabi_attribute 28, 1
   6              		.eabi_attribute 20, 1
   7              		.eabi_attribute 21, 1
   8              		.eabi_attribute 23, 3
   9              		.eabi_attribute 24, 1
  10              		.eabi_attribute 25, 1
  11              		.eabi_attribute 26, 1
  12              		.eabi_attribute 30, 2
  13              		.eabi_attribute 34, 1
  14              		.eabi_attribute 18, 4
  15              		.file	"lv_tileview.c"
  16              		.text
  17              	.Ltext0:
  18              		.cfi_sections	.debug_frame
  19              		.file 1 "Drivers/lvgl/src/extra/widgets/tileview/lv_tileview.c"
  20              		.section	.text.lv_tileview_constructor,"ax",%progbits
  21              		.align	1
  22              		.p2align 2,,3
  23              		.syntax unified
  24              		.thumb
  25              		.thumb_func
  27              	lv_tileview_constructor:
  28              	.LVL0:
  29              	.LFB166:
   1:Drivers/lvgl/src/extra/widgets/tileview/lv_tileview.c **** /**
   2:Drivers/lvgl/src/extra/widgets/tileview/lv_tileview.c ****  * @file lv_tileview.c
   3:Drivers/lvgl/src/extra/widgets/tileview/lv_tileview.c ****  *
   4:Drivers/lvgl/src/extra/widgets/tileview/lv_tileview.c ****  */
   5:Drivers/lvgl/src/extra/widgets/tileview/lv_tileview.c **** 
   6:Drivers/lvgl/src/extra/widgets/tileview/lv_tileview.c **** /*********************
   7:Drivers/lvgl/src/extra/widgets/tileview/lv_tileview.c ****  *      INCLUDES
   8:Drivers/lvgl/src/extra/widgets/tileview/lv_tileview.c ****  *********************/
   9:Drivers/lvgl/src/extra/widgets/tileview/lv_tileview.c **** #include "lv_tileview.h"
  10:Drivers/lvgl/src/extra/widgets/tileview/lv_tileview.c **** #include "../../../core/lv_indev.h"
  11:Drivers/lvgl/src/extra/widgets/tileview/lv_tileview.c **** #if LV_USE_TILEVIEW
  12:Drivers/lvgl/src/extra/widgets/tileview/lv_tileview.c **** 
  13:Drivers/lvgl/src/extra/widgets/tileview/lv_tileview.c **** /*********************
  14:Drivers/lvgl/src/extra/widgets/tileview/lv_tileview.c ****  *      DEFINES
  15:Drivers/lvgl/src/extra/widgets/tileview/lv_tileview.c ****  *********************/
  16:Drivers/lvgl/src/extra/widgets/tileview/lv_tileview.c **** 
  17:Drivers/lvgl/src/extra/widgets/tileview/lv_tileview.c **** /**********************
  18:Drivers/lvgl/src/extra/widgets/tileview/lv_tileview.c ****  *      TYPEDEFS
  19:Drivers/lvgl/src/extra/widgets/tileview/lv_tileview.c ****  **********************/
  20:Drivers/lvgl/src/extra/widgets/tileview/lv_tileview.c **** 
  21:Drivers/lvgl/src/extra/widgets/tileview/lv_tileview.c **** /**********************
  22:Drivers/lvgl/src/extra/widgets/tileview/lv_tileview.c ****  *  STATIC PROTOTYPES
  23:Drivers/lvgl/src/extra/widgets/tileview/lv_tileview.c ****  **********************/
  24:Drivers/lvgl/src/extra/widgets/tileview/lv_tileview.c **** static void lv_tileview_constructor(const lv_obj_class_t * class_p, lv_obj_t * obj);
  25:Drivers/lvgl/src/extra/widgets/tileview/lv_tileview.c **** static void lv_tileview_tile_constructor(const lv_obj_class_t * class_p, lv_obj_t * obj);
  26:Drivers/lvgl/src/extra/widgets/tileview/lv_tileview.c **** static void tileview_event_cb(lv_event_t * e);
  27:Drivers/lvgl/src/extra/widgets/tileview/lv_tileview.c **** 
  28:Drivers/lvgl/src/extra/widgets/tileview/lv_tileview.c **** /**********************
  29:Drivers/lvgl/src/extra/widgets/tileview/lv_tileview.c ****  *  STATIC VARIABLES
ARM GAS  /var/folders/lp/x54gwt890xv47sdkqj1k04q40000gn/T//ccyJ1brm.s 			page 2


  30:Drivers/lvgl/src/extra/widgets/tileview/lv_tileview.c ****  **********************/
  31:Drivers/lvgl/src/extra/widgets/tileview/lv_tileview.c **** 
  32:Drivers/lvgl/src/extra/widgets/tileview/lv_tileview.c **** const lv_obj_class_t lv_tileview_class = {.constructor_cb = lv_tileview_constructor,
  33:Drivers/lvgl/src/extra/widgets/tileview/lv_tileview.c ****                                           .base_class = &lv_obj_class,
  34:Drivers/lvgl/src/extra/widgets/tileview/lv_tileview.c ****                                           .instance_size = sizeof(lv_tileview_t)
  35:Drivers/lvgl/src/extra/widgets/tileview/lv_tileview.c ****                                          };
  36:Drivers/lvgl/src/extra/widgets/tileview/lv_tileview.c **** 
  37:Drivers/lvgl/src/extra/widgets/tileview/lv_tileview.c **** const lv_obj_class_t lv_tileview_tile_class = {.constructor_cb = lv_tileview_tile_constructor,
  38:Drivers/lvgl/src/extra/widgets/tileview/lv_tileview.c ****                                                .base_class = &lv_obj_class,
  39:Drivers/lvgl/src/extra/widgets/tileview/lv_tileview.c ****                                                .instance_size = sizeof(lv_tileview_tile_t)
  40:Drivers/lvgl/src/extra/widgets/tileview/lv_tileview.c ****                                               };
  41:Drivers/lvgl/src/extra/widgets/tileview/lv_tileview.c **** 
  42:Drivers/lvgl/src/extra/widgets/tileview/lv_tileview.c **** static lv_dir_t create_dir;
  43:Drivers/lvgl/src/extra/widgets/tileview/lv_tileview.c **** static uint32_t create_col_id;
  44:Drivers/lvgl/src/extra/widgets/tileview/lv_tileview.c **** static uint32_t create_row_id;
  45:Drivers/lvgl/src/extra/widgets/tileview/lv_tileview.c **** 
  46:Drivers/lvgl/src/extra/widgets/tileview/lv_tileview.c **** /**********************
  47:Drivers/lvgl/src/extra/widgets/tileview/lv_tileview.c ****  *      MACROS
  48:Drivers/lvgl/src/extra/widgets/tileview/lv_tileview.c ****  **********************/
  49:Drivers/lvgl/src/extra/widgets/tileview/lv_tileview.c **** 
  50:Drivers/lvgl/src/extra/widgets/tileview/lv_tileview.c **** /**********************
  51:Drivers/lvgl/src/extra/widgets/tileview/lv_tileview.c ****  *   GLOBAL FUNCTIONS
  52:Drivers/lvgl/src/extra/widgets/tileview/lv_tileview.c ****  **********************/
  53:Drivers/lvgl/src/extra/widgets/tileview/lv_tileview.c **** 
  54:Drivers/lvgl/src/extra/widgets/tileview/lv_tileview.c **** lv_obj_t * lv_tileview_create(lv_obj_t * parent)
  55:Drivers/lvgl/src/extra/widgets/tileview/lv_tileview.c **** {
  56:Drivers/lvgl/src/extra/widgets/tileview/lv_tileview.c ****     LV_LOG_INFO("begin");
  57:Drivers/lvgl/src/extra/widgets/tileview/lv_tileview.c ****     lv_obj_t * obj = lv_obj_class_create_obj(&lv_tileview_class, parent);
  58:Drivers/lvgl/src/extra/widgets/tileview/lv_tileview.c ****     lv_obj_class_init_obj(obj);
  59:Drivers/lvgl/src/extra/widgets/tileview/lv_tileview.c ****     return obj;
  60:Drivers/lvgl/src/extra/widgets/tileview/lv_tileview.c **** }
  61:Drivers/lvgl/src/extra/widgets/tileview/lv_tileview.c **** 
  62:Drivers/lvgl/src/extra/widgets/tileview/lv_tileview.c **** /*======================
  63:Drivers/lvgl/src/extra/widgets/tileview/lv_tileview.c ****  * Add/remove functions
  64:Drivers/lvgl/src/extra/widgets/tileview/lv_tileview.c ****  *=====================*/
  65:Drivers/lvgl/src/extra/widgets/tileview/lv_tileview.c **** 
  66:Drivers/lvgl/src/extra/widgets/tileview/lv_tileview.c **** lv_obj_t * lv_tileview_add_tile(lv_obj_t * tv, uint8_t col_id, uint8_t row_id, lv_dir_t dir)
  67:Drivers/lvgl/src/extra/widgets/tileview/lv_tileview.c **** {
  68:Drivers/lvgl/src/extra/widgets/tileview/lv_tileview.c ****     LV_LOG_INFO("begin");
  69:Drivers/lvgl/src/extra/widgets/tileview/lv_tileview.c ****     create_dir = dir;
  70:Drivers/lvgl/src/extra/widgets/tileview/lv_tileview.c ****     create_col_id = col_id;
  71:Drivers/lvgl/src/extra/widgets/tileview/lv_tileview.c ****     create_row_id = row_id;
  72:Drivers/lvgl/src/extra/widgets/tileview/lv_tileview.c **** 
  73:Drivers/lvgl/src/extra/widgets/tileview/lv_tileview.c ****     lv_obj_t * obj = lv_obj_class_create_obj(&lv_tileview_tile_class, tv);
  74:Drivers/lvgl/src/extra/widgets/tileview/lv_tileview.c ****     lv_obj_class_init_obj(obj);
  75:Drivers/lvgl/src/extra/widgets/tileview/lv_tileview.c ****     return obj;
  76:Drivers/lvgl/src/extra/widgets/tileview/lv_tileview.c **** }
  77:Drivers/lvgl/src/extra/widgets/tileview/lv_tileview.c **** 
  78:Drivers/lvgl/src/extra/widgets/tileview/lv_tileview.c **** void lv_obj_set_tile(lv_obj_t * obj, lv_obj_t * tile_obj, lv_anim_enable_t anim_en)
  79:Drivers/lvgl/src/extra/widgets/tileview/lv_tileview.c **** {
  80:Drivers/lvgl/src/extra/widgets/tileview/lv_tileview.c ****     lv_coord_t tx = lv_obj_get_x(tile_obj);
  81:Drivers/lvgl/src/extra/widgets/tileview/lv_tileview.c ****     lv_coord_t ty = lv_obj_get_y(tile_obj);
  82:Drivers/lvgl/src/extra/widgets/tileview/lv_tileview.c **** 
  83:Drivers/lvgl/src/extra/widgets/tileview/lv_tileview.c ****     lv_tileview_tile_t * tile = (lv_tileview_tile_t *)tile_obj;
  84:Drivers/lvgl/src/extra/widgets/tileview/lv_tileview.c ****     lv_tileview_t * tv = (lv_tileview_t *) obj;
  85:Drivers/lvgl/src/extra/widgets/tileview/lv_tileview.c ****     tv->tile_act = (lv_obj_t *)tile;
  86:Drivers/lvgl/src/extra/widgets/tileview/lv_tileview.c **** 
ARM GAS  /var/folders/lp/x54gwt890xv47sdkqj1k04q40000gn/T//ccyJ1brm.s 			page 3


  87:Drivers/lvgl/src/extra/widgets/tileview/lv_tileview.c ****     lv_obj_set_scroll_dir(obj, tile->dir);
  88:Drivers/lvgl/src/extra/widgets/tileview/lv_tileview.c ****     lv_obj_scroll_to(obj, tx, ty, anim_en);
  89:Drivers/lvgl/src/extra/widgets/tileview/lv_tileview.c **** }
  90:Drivers/lvgl/src/extra/widgets/tileview/lv_tileview.c **** 
  91:Drivers/lvgl/src/extra/widgets/tileview/lv_tileview.c **** void lv_obj_set_tile_id(lv_obj_t * tv, uint32_t col_id, uint32_t row_id, lv_anim_enable_t anim_en)
  92:Drivers/lvgl/src/extra/widgets/tileview/lv_tileview.c **** {
  93:Drivers/lvgl/src/extra/widgets/tileview/lv_tileview.c ****     lv_obj_update_layout(tv);
  94:Drivers/lvgl/src/extra/widgets/tileview/lv_tileview.c **** 
  95:Drivers/lvgl/src/extra/widgets/tileview/lv_tileview.c ****     lv_coord_t w = lv_obj_get_content_width(tv);
  96:Drivers/lvgl/src/extra/widgets/tileview/lv_tileview.c ****     lv_coord_t h = lv_obj_get_content_height(tv);
  97:Drivers/lvgl/src/extra/widgets/tileview/lv_tileview.c **** 
  98:Drivers/lvgl/src/extra/widgets/tileview/lv_tileview.c ****     lv_coord_t tx = col_id * w;
  99:Drivers/lvgl/src/extra/widgets/tileview/lv_tileview.c ****     lv_coord_t ty = row_id * h;
 100:Drivers/lvgl/src/extra/widgets/tileview/lv_tileview.c **** 
 101:Drivers/lvgl/src/extra/widgets/tileview/lv_tileview.c ****     uint32_t i;
 102:Drivers/lvgl/src/extra/widgets/tileview/lv_tileview.c ****     for(i = 0; i < lv_obj_get_child_cnt(tv); i++) {
 103:Drivers/lvgl/src/extra/widgets/tileview/lv_tileview.c ****         lv_obj_t * tile_obj = lv_obj_get_child(tv, i);
 104:Drivers/lvgl/src/extra/widgets/tileview/lv_tileview.c ****         lv_coord_t x = lv_obj_get_x(tile_obj);
 105:Drivers/lvgl/src/extra/widgets/tileview/lv_tileview.c ****         lv_coord_t y = lv_obj_get_y(tile_obj);
 106:Drivers/lvgl/src/extra/widgets/tileview/lv_tileview.c ****         if(x == tx && y == ty) {
 107:Drivers/lvgl/src/extra/widgets/tileview/lv_tileview.c ****             lv_obj_set_tile(tv, tile_obj, anim_en);
 108:Drivers/lvgl/src/extra/widgets/tileview/lv_tileview.c ****             return;
 109:Drivers/lvgl/src/extra/widgets/tileview/lv_tileview.c ****         }
 110:Drivers/lvgl/src/extra/widgets/tileview/lv_tileview.c ****     }
 111:Drivers/lvgl/src/extra/widgets/tileview/lv_tileview.c **** 
 112:Drivers/lvgl/src/extra/widgets/tileview/lv_tileview.c ****     LV_LOG_WARN("No tile found with at (%d,%d) index", (int)col_id, (int)row_id);
 113:Drivers/lvgl/src/extra/widgets/tileview/lv_tileview.c **** }
 114:Drivers/lvgl/src/extra/widgets/tileview/lv_tileview.c **** 
 115:Drivers/lvgl/src/extra/widgets/tileview/lv_tileview.c **** lv_obj_t * lv_tileview_get_tile_act(lv_obj_t * obj)
 116:Drivers/lvgl/src/extra/widgets/tileview/lv_tileview.c **** {
 117:Drivers/lvgl/src/extra/widgets/tileview/lv_tileview.c ****     lv_tileview_t * tv = (lv_tileview_t *) obj;
 118:Drivers/lvgl/src/extra/widgets/tileview/lv_tileview.c ****     return tv->tile_act;
 119:Drivers/lvgl/src/extra/widgets/tileview/lv_tileview.c **** }
 120:Drivers/lvgl/src/extra/widgets/tileview/lv_tileview.c **** 
 121:Drivers/lvgl/src/extra/widgets/tileview/lv_tileview.c **** /**********************
 122:Drivers/lvgl/src/extra/widgets/tileview/lv_tileview.c ****  *   STATIC FUNCTIONS
 123:Drivers/lvgl/src/extra/widgets/tileview/lv_tileview.c ****  **********************/
 124:Drivers/lvgl/src/extra/widgets/tileview/lv_tileview.c **** 
 125:Drivers/lvgl/src/extra/widgets/tileview/lv_tileview.c **** static void lv_tileview_constructor(const lv_obj_class_t * class_p, lv_obj_t * obj)
 126:Drivers/lvgl/src/extra/widgets/tileview/lv_tileview.c **** {
  30              		.loc 1 126 1 view -0
  31              		.cfi_startproc
  32              		@ args = 0, pretend = 0, frame = 0
  33              		@ frame_needed = 0, uses_anonymous_args = 0
 127:Drivers/lvgl/src/extra/widgets/tileview/lv_tileview.c ****     LV_UNUSED(class_p);
  34              		.loc 1 127 5 view .LVU1
 128:Drivers/lvgl/src/extra/widgets/tileview/lv_tileview.c ****     lv_obj_set_size(obj, LV_PCT(100), LV_PCT(100));
  35              		.loc 1 128 5 view .LVU2
 126:Drivers/lvgl/src/extra/widgets/tileview/lv_tileview.c ****     LV_UNUSED(class_p);
  36              		.loc 1 126 1 is_stmt 0 view .LVU3
  37 0000 10B5     		push	{r4, lr}
  38              		.cfi_def_cfa_offset 8
  39              		.cfi_offset 4, -8
  40              		.cfi_offset 14, -4
  41              		.loc 1 128 5 view .LVU4
  42 0002 42F26402 		movw	r2, #8292
 126:Drivers/lvgl/src/extra/widgets/tileview/lv_tileview.c ****     LV_UNUSED(class_p);
ARM GAS  /var/folders/lp/x54gwt890xv47sdkqj1k04q40000gn/T//ccyJ1brm.s 			page 4


  43              		.loc 1 126 1 view .LVU5
  44 0006 0C46     		mov	r4, r1
  45              		.loc 1 128 5 view .LVU6
  46 0008 2046     		mov	r0, r4
  47              	.LVL1:
  48              		.loc 1 128 5 view .LVU7
  49 000a 1146     		mov	r1, r2
  50              	.LVL2:
  51              		.loc 1 128 5 view .LVU8
  52 000c FFF7FEFF 		bl	lv_obj_set_size
  53              	.LVL3:
 129:Drivers/lvgl/src/extra/widgets/tileview/lv_tileview.c ****     lv_obj_add_event_cb(obj, tileview_event_cb, LV_EVENT_ALL, NULL);
  54              		.loc 1 129 5 is_stmt 1 view .LVU9
  55 0010 0023     		movs	r3, #0
  56 0012 1A46     		mov	r2, r3
  57 0014 0849     		ldr	r1, .L4
  58 0016 2046     		mov	r0, r4
  59 0018 FFF7FEFF 		bl	lv_obj_add_event_cb
  60              	.LVL4:
 130:Drivers/lvgl/src/extra/widgets/tileview/lv_tileview.c ****     lv_obj_add_flag(obj, LV_OBJ_FLAG_SCROLL_ONE);
  61              		.loc 1 130 5 view .LVU10
  62 001c 2046     		mov	r0, r4
  63 001e 8021     		movs	r1, #128
  64 0020 FFF7FEFF 		bl	lv_obj_add_flag
  65              	.LVL5:
 131:Drivers/lvgl/src/extra/widgets/tileview/lv_tileview.c ****     lv_obj_set_scroll_snap_x(obj, LV_SCROLL_SNAP_CENTER);
  66              		.loc 1 131 5 view .LVU11
  67 0024 2046     		mov	r0, r4
  68 0026 0321     		movs	r1, #3
  69 0028 FFF7FEFF 		bl	lv_obj_set_scroll_snap_x
  70              	.LVL6:
 132:Drivers/lvgl/src/extra/widgets/tileview/lv_tileview.c ****     lv_obj_set_scroll_snap_y(obj, LV_SCROLL_SNAP_CENTER);
  71              		.loc 1 132 5 view .LVU12
  72 002c 2046     		mov	r0, r4
  73 002e 0321     		movs	r1, #3
 133:Drivers/lvgl/src/extra/widgets/tileview/lv_tileview.c **** 
 134:Drivers/lvgl/src/extra/widgets/tileview/lv_tileview.c **** }
  74              		.loc 1 134 1 is_stmt 0 view .LVU13
  75 0030 BDE81040 		pop	{r4, lr}
  76              		.cfi_restore 14
  77              		.cfi_restore 4
  78              		.cfi_def_cfa_offset 0
  79              	.LVL7:
 132:Drivers/lvgl/src/extra/widgets/tileview/lv_tileview.c ****     lv_obj_set_scroll_snap_y(obj, LV_SCROLL_SNAP_CENTER);
  80              		.loc 1 132 5 view .LVU14
  81 0034 FFF7FEBF 		b	lv_obj_set_scroll_snap_y
  82              	.LVL8:
  83              	.L5:
 132:Drivers/lvgl/src/extra/widgets/tileview/lv_tileview.c ****     lv_obj_set_scroll_snap_y(obj, LV_SCROLL_SNAP_CENTER);
  84              		.loc 1 132 5 view .LVU15
  85              		.align	2
  86              	.L4:
  87 0038 00000000 		.word	tileview_event_cb
  88              		.cfi_endproc
  89              	.LFE166:
  91              		.section	.text.tileview_event_cb,"ax",%progbits
  92              		.align	1
ARM GAS  /var/folders/lp/x54gwt890xv47sdkqj1k04q40000gn/T//ccyJ1brm.s 			page 5


  93              		.p2align 2,,3
  94              		.syntax unified
  95              		.thumb
  96              		.thumb_func
  98              	tileview_event_cb:
  99              	.LVL9:
 100              	.LFB168:
 135:Drivers/lvgl/src/extra/widgets/tileview/lv_tileview.c **** 
 136:Drivers/lvgl/src/extra/widgets/tileview/lv_tileview.c **** static void lv_tileview_tile_constructor(const lv_obj_class_t * class_p, lv_obj_t * obj)
 137:Drivers/lvgl/src/extra/widgets/tileview/lv_tileview.c **** {
 138:Drivers/lvgl/src/extra/widgets/tileview/lv_tileview.c **** 
 139:Drivers/lvgl/src/extra/widgets/tileview/lv_tileview.c ****     LV_UNUSED(class_p);
 140:Drivers/lvgl/src/extra/widgets/tileview/lv_tileview.c ****     lv_obj_t * parent = lv_obj_get_parent(obj);
 141:Drivers/lvgl/src/extra/widgets/tileview/lv_tileview.c ****     lv_obj_set_size(obj, LV_PCT(100), LV_PCT(100));
 142:Drivers/lvgl/src/extra/widgets/tileview/lv_tileview.c ****     lv_obj_update_layout(obj);  /*Be sure the size is correct*/
 143:Drivers/lvgl/src/extra/widgets/tileview/lv_tileview.c ****     lv_obj_set_pos(obj, create_col_id * lv_obj_get_content_width(parent),
 144:Drivers/lvgl/src/extra/widgets/tileview/lv_tileview.c ****                    create_row_id * lv_obj_get_content_height(parent));
 145:Drivers/lvgl/src/extra/widgets/tileview/lv_tileview.c **** 
 146:Drivers/lvgl/src/extra/widgets/tileview/lv_tileview.c ****     lv_tileview_tile_t * tile = (lv_tileview_tile_t *)obj;
 147:Drivers/lvgl/src/extra/widgets/tileview/lv_tileview.c ****     tile->dir = create_dir;
 148:Drivers/lvgl/src/extra/widgets/tileview/lv_tileview.c **** 
 149:Drivers/lvgl/src/extra/widgets/tileview/lv_tileview.c ****     if(create_col_id == 0 && create_row_id == 0) {
 150:Drivers/lvgl/src/extra/widgets/tileview/lv_tileview.c ****         lv_obj_set_scroll_dir(parent, create_dir);
 151:Drivers/lvgl/src/extra/widgets/tileview/lv_tileview.c ****     }
 152:Drivers/lvgl/src/extra/widgets/tileview/lv_tileview.c **** }
 153:Drivers/lvgl/src/extra/widgets/tileview/lv_tileview.c **** 
 154:Drivers/lvgl/src/extra/widgets/tileview/lv_tileview.c **** static void tileview_event_cb(lv_event_t * e)
 155:Drivers/lvgl/src/extra/widgets/tileview/lv_tileview.c **** {
 101              		.loc 1 155 1 is_stmt 1 view -0
 102              		.cfi_startproc
 103              		@ args = 0, pretend = 0, frame = 8
 104              		@ frame_needed = 0, uses_anonymous_args = 0
 156:Drivers/lvgl/src/extra/widgets/tileview/lv_tileview.c ****     lv_event_code_t code = lv_event_get_code(e);
 105              		.loc 1 156 5 view .LVU17
 155:Drivers/lvgl/src/extra/widgets/tileview/lv_tileview.c ****     lv_event_code_t code = lv_event_get_code(e);
 106              		.loc 1 155 1 is_stmt 0 view .LVU18
 107 0000 2DE9F043 		push	{r4, r5, r6, r7, r8, r9, lr}
 108              		.cfi_def_cfa_offset 28
 109              		.cfi_offset 4, -28
 110              		.cfi_offset 5, -24
 111              		.cfi_offset 6, -20
 112              		.cfi_offset 7, -16
 113              		.cfi_offset 8, -12
 114              		.cfi_offset 9, -8
 115              		.cfi_offset 14, -4
 116 0004 83B0     		sub	sp, sp, #12
 117              		.cfi_def_cfa_offset 40
 155:Drivers/lvgl/src/extra/widgets/tileview/lv_tileview.c ****     lv_event_code_t code = lv_event_get_code(e);
 118              		.loc 1 155 1 view .LVU19
 119 0006 0546     		mov	r5, r0
 120              		.loc 1 156 28 view .LVU20
 121 0008 FFF7FEFF 		bl	lv_event_get_code
 122              	.LVL10:
 123              		.loc 1 156 28 view .LVU21
 124 000c 0446     		mov	r4, r0
 125              	.LVL11:
 157:Drivers/lvgl/src/extra/widgets/tileview/lv_tileview.c ****     lv_obj_t * obj = lv_event_get_target(e);
ARM GAS  /var/folders/lp/x54gwt890xv47sdkqj1k04q40000gn/T//ccyJ1brm.s 			page 6


 126              		.loc 1 157 5 is_stmt 1 view .LVU22
 127              		.loc 1 157 22 is_stmt 0 view .LVU23
 128 000e 2846     		mov	r0, r5
 129 0010 FFF7FEFF 		bl	lv_event_get_target
 130              	.LVL12:
 158:Drivers/lvgl/src/extra/widgets/tileview/lv_tileview.c ****     lv_tileview_t * tv = (lv_tileview_t *) obj;
 131              		.loc 1 158 5 is_stmt 1 view .LVU24
 159:Drivers/lvgl/src/extra/widgets/tileview/lv_tileview.c **** 
 160:Drivers/lvgl/src/extra/widgets/tileview/lv_tileview.c ****     if(code == LV_EVENT_SCROLL_END) {
 132              		.loc 1 160 5 view .LVU25
 133              		.loc 1 160 7 is_stmt 0 view .LVU26
 134 0014 0A2C     		cmp	r4, #10
 135 0016 02D0     		beq	.L17
 136              	.LVL13:
 137              	.L6:
 161:Drivers/lvgl/src/extra/widgets/tileview/lv_tileview.c ****         lv_indev_t * indev = lv_indev_get_act();
 162:Drivers/lvgl/src/extra/widgets/tileview/lv_tileview.c ****         if(indev && indev->proc.state == LV_INDEV_STATE_PRESSED) {
 163:Drivers/lvgl/src/extra/widgets/tileview/lv_tileview.c ****             return;
 164:Drivers/lvgl/src/extra/widgets/tileview/lv_tileview.c ****         }
 165:Drivers/lvgl/src/extra/widgets/tileview/lv_tileview.c **** 
 166:Drivers/lvgl/src/extra/widgets/tileview/lv_tileview.c ****         lv_coord_t w = lv_obj_get_content_width(obj);
 167:Drivers/lvgl/src/extra/widgets/tileview/lv_tileview.c ****         lv_coord_t h = lv_obj_get_content_height(obj);
 168:Drivers/lvgl/src/extra/widgets/tileview/lv_tileview.c **** 
 169:Drivers/lvgl/src/extra/widgets/tileview/lv_tileview.c ****         lv_point_t scroll_end;
 170:Drivers/lvgl/src/extra/widgets/tileview/lv_tileview.c ****         lv_obj_get_scroll_end(obj, &scroll_end);
 171:Drivers/lvgl/src/extra/widgets/tileview/lv_tileview.c ****         lv_coord_t left = scroll_end.x;
 172:Drivers/lvgl/src/extra/widgets/tileview/lv_tileview.c ****         lv_coord_t top = scroll_end.y;
 173:Drivers/lvgl/src/extra/widgets/tileview/lv_tileview.c **** 
 174:Drivers/lvgl/src/extra/widgets/tileview/lv_tileview.c ****         lv_coord_t tx = ((left + (w / 2)) / w) * w;
 175:Drivers/lvgl/src/extra/widgets/tileview/lv_tileview.c ****         lv_coord_t ty = ((top + (h / 2)) / h) * h;
 176:Drivers/lvgl/src/extra/widgets/tileview/lv_tileview.c **** 
 177:Drivers/lvgl/src/extra/widgets/tileview/lv_tileview.c ****         lv_dir_t dir = LV_DIR_ALL;
 178:Drivers/lvgl/src/extra/widgets/tileview/lv_tileview.c ****         uint32_t i;
 179:Drivers/lvgl/src/extra/widgets/tileview/lv_tileview.c ****         for(i = 0; i < lv_obj_get_child_cnt(obj); i++) {
 180:Drivers/lvgl/src/extra/widgets/tileview/lv_tileview.c ****             lv_obj_t * tile_obj = lv_obj_get_child(obj, i);
 181:Drivers/lvgl/src/extra/widgets/tileview/lv_tileview.c ****             lv_coord_t x = lv_obj_get_x(tile_obj);
 182:Drivers/lvgl/src/extra/widgets/tileview/lv_tileview.c ****             lv_coord_t y = lv_obj_get_y(tile_obj);
 183:Drivers/lvgl/src/extra/widgets/tileview/lv_tileview.c ****             if(x == tx && y == ty) {
 184:Drivers/lvgl/src/extra/widgets/tileview/lv_tileview.c ****                 lv_tileview_tile_t * tile = (lv_tileview_tile_t *)tile_obj;
 185:Drivers/lvgl/src/extra/widgets/tileview/lv_tileview.c ****                 tv->tile_act = (lv_obj_t *)tile;
 186:Drivers/lvgl/src/extra/widgets/tileview/lv_tileview.c ****                 dir = tile->dir;
 187:Drivers/lvgl/src/extra/widgets/tileview/lv_tileview.c ****                 lv_event_send(obj, LV_EVENT_VALUE_CHANGED, NULL);
 188:Drivers/lvgl/src/extra/widgets/tileview/lv_tileview.c ****                 break;
 189:Drivers/lvgl/src/extra/widgets/tileview/lv_tileview.c ****             }
 190:Drivers/lvgl/src/extra/widgets/tileview/lv_tileview.c ****         }
 191:Drivers/lvgl/src/extra/widgets/tileview/lv_tileview.c ****         lv_obj_set_scroll_dir(obj, dir);
 192:Drivers/lvgl/src/extra/widgets/tileview/lv_tileview.c ****     }
 193:Drivers/lvgl/src/extra/widgets/tileview/lv_tileview.c **** }
 138              		.loc 1 193 1 view .LVU27
 139 0018 03B0     		add	sp, sp, #12
 140              		.cfi_remember_state
 141              		.cfi_def_cfa_offset 28
 142              		@ sp needed
 143 001a BDE8F083 		pop	{r4, r5, r6, r7, r8, r9, pc}
 144              	.LVL14:
 145              	.L17:
 146              		.cfi_restore_state
ARM GAS  /var/folders/lp/x54gwt890xv47sdkqj1k04q40000gn/T//ccyJ1brm.s 			page 7


 147              	.LBB2:
 161:Drivers/lvgl/src/extra/widgets/tileview/lv_tileview.c ****         lv_indev_t * indev = lv_indev_get_act();
 148              		.loc 1 161 9 is_stmt 1 view .LVU28
 149 001e 0746     		mov	r7, r0
 161:Drivers/lvgl/src/extra/widgets/tileview/lv_tileview.c ****         lv_indev_t * indev = lv_indev_get_act();
 150              		.loc 1 161 30 is_stmt 0 view .LVU29
 151 0020 FFF7FEFF 		bl	lv_indev_get_act
 152              	.LVL15:
 162:Drivers/lvgl/src/extra/widgets/tileview/lv_tileview.c ****             return;
 153              		.loc 1 162 9 is_stmt 1 view .LVU30
 162:Drivers/lvgl/src/extra/widgets/tileview/lv_tileview.c ****             return;
 154              		.loc 1 162 11 is_stmt 0 view .LVU31
 155 0024 10B1     		cbz	r0, .L8
 162:Drivers/lvgl/src/extra/widgets/tileview/lv_tileview.c ****             return;
 156              		.loc 1 162 18 discriminator 1 view .LVU32
 157 0026 0379     		ldrb	r3, [r0, #4]	@ zero_extendqisi2
 158 0028 012B     		cmp	r3, #1
 159 002a F5D0     		beq	.L6
 160              	.L8:
 166:Drivers/lvgl/src/extra/widgets/tileview/lv_tileview.c ****         lv_coord_t h = lv_obj_get_content_height(obj);
 161              		.loc 1 166 9 is_stmt 1 view .LVU33
 166:Drivers/lvgl/src/extra/widgets/tileview/lv_tileview.c ****         lv_coord_t h = lv_obj_get_content_height(obj);
 162              		.loc 1 166 24 is_stmt 0 view .LVU34
 163 002c 3846     		mov	r0, r7
 164              	.LVL16:
 166:Drivers/lvgl/src/extra/widgets/tileview/lv_tileview.c ****         lv_coord_t h = lv_obj_get_content_height(obj);
 165              		.loc 1 166 24 view .LVU35
 166 002e FFF7FEFF 		bl	lv_obj_get_content_width
 167              	.LVL17:
 168 0032 0546     		mov	r5, r0
 169              	.LVL18:
 167:Drivers/lvgl/src/extra/widgets/tileview/lv_tileview.c **** 
 170              		.loc 1 167 9 is_stmt 1 view .LVU36
 167:Drivers/lvgl/src/extra/widgets/tileview/lv_tileview.c **** 
 171              		.loc 1 167 24 is_stmt 0 view .LVU37
 172 0034 3846     		mov	r0, r7
 173 0036 FFF7FEFF 		bl	lv_obj_get_content_height
 174              	.LVL19:
 170:Drivers/lvgl/src/extra/widgets/tileview/lv_tileview.c ****         lv_coord_t left = scroll_end.x;
 175              		.loc 1 170 9 view .LVU38
 176 003a 01A9     		add	r1, sp, #4
 167:Drivers/lvgl/src/extra/widgets/tileview/lv_tileview.c **** 
 177              		.loc 1 167 24 view .LVU39
 178 003c 0446     		mov	r4, r0
 179              	.LVL20:
 169:Drivers/lvgl/src/extra/widgets/tileview/lv_tileview.c ****         lv_obj_get_scroll_end(obj, &scroll_end);
 180              		.loc 1 169 9 is_stmt 1 view .LVU40
 170:Drivers/lvgl/src/extra/widgets/tileview/lv_tileview.c ****         lv_coord_t left = scroll_end.x;
 181              		.loc 1 170 9 view .LVU41
 182 003e 3846     		mov	r0, r7
 183 0040 FFF7FEFF 		bl	lv_obj_get_scroll_end
 184              	.LVL21:
 171:Drivers/lvgl/src/extra/widgets/tileview/lv_tileview.c ****         lv_coord_t top = scroll_end.y;
 185              		.loc 1 171 9 view .LVU42
 172:Drivers/lvgl/src/extra/widgets/tileview/lv_tileview.c **** 
 186              		.loc 1 172 9 view .LVU43
 174:Drivers/lvgl/src/extra/widgets/tileview/lv_tileview.c ****         lv_coord_t ty = ((top + (h / 2)) / h) * h;
ARM GAS  /var/folders/lp/x54gwt890xv47sdkqj1k04q40000gn/T//ccyJ1brm.s 			page 8


 187              		.loc 1 174 9 view .LVU44
 174:Drivers/lvgl/src/extra/widgets/tileview/lv_tileview.c ****         lv_coord_t ty = ((top + (h / 2)) / h) * h;
 188              		.loc 1 174 32 is_stmt 0 view .LVU45
 189 0044 BDF90480 		ldrsh	r8, [sp, #4]
 175:Drivers/lvgl/src/extra/widgets/tileview/lv_tileview.c **** 
 190              		.loc 1 175 31 view .LVU46
 191 0048 BDF90690 		ldrsh	r9, [sp, #6]
 174:Drivers/lvgl/src/extra/widgets/tileview/lv_tileview.c ****         lv_coord_t ty = ((top + (h / 2)) / h) * h;
 192              		.loc 1 174 37 view .LVU47
 193 004c 05EBD573 		add	r3, r5, r5, lsr #31
 194 0050 43F34F03 		sbfx	r3, r3, #1, #16
 174:Drivers/lvgl/src/extra/widgets/tileview/lv_tileview.c ****         lv_coord_t ty = ((top + (h / 2)) / h) * h;
 195              		.loc 1 174 32 view .LVU48
 196 0054 9844     		add	r8, r8, r3
 175:Drivers/lvgl/src/extra/widgets/tileview/lv_tileview.c **** 
 197              		.loc 1 175 36 view .LVU49
 198 0056 04EBD473 		add	r3, r4, r4, lsr #31
 199 005a 43F34F03 		sbfx	r3, r3, #1, #16
 175:Drivers/lvgl/src/extra/widgets/tileview/lv_tileview.c **** 
 200              		.loc 1 175 31 view .LVU50
 201 005e 9944     		add	r9, r9, r3
 174:Drivers/lvgl/src/extra/widgets/tileview/lv_tileview.c ****         lv_coord_t ty = ((top + (h / 2)) / h) * h;
 202              		.loc 1 174 43 view .LVU51
 203 0060 98FBF5F8 		sdiv	r8, r8, r5
 175:Drivers/lvgl/src/extra/widgets/tileview/lv_tileview.c **** 
 204              		.loc 1 175 42 view .LVU52
 205 0064 99FBF4F9 		sdiv	r9, r9, r4
 174:Drivers/lvgl/src/extra/widgets/tileview/lv_tileview.c ****         lv_coord_t ty = ((top + (h / 2)) / h) * h;
 206              		.loc 1 174 20 view .LVU53
 207 0068 18FB05F8 		smulbb	r8, r8, r5
 175:Drivers/lvgl/src/extra/widgets/tileview/lv_tileview.c **** 
 208              		.loc 1 175 20 view .LVU54
 209 006c 19FB04F9 		smulbb	r9, r9, r4
 174:Drivers/lvgl/src/extra/widgets/tileview/lv_tileview.c ****         lv_coord_t ty = ((top + (h / 2)) / h) * h;
 210              		.loc 1 174 20 view .LVU55
 211 0070 0FFA88F8 		sxth	r8, r8
 212              	.LVL22:
 175:Drivers/lvgl/src/extra/widgets/tileview/lv_tileview.c **** 
 213              		.loc 1 175 9 is_stmt 1 view .LVU56
 175:Drivers/lvgl/src/extra/widgets/tileview/lv_tileview.c **** 
 214              		.loc 1 175 20 is_stmt 0 view .LVU57
 215 0074 0FFA89F9 		sxth	r9, r9
 216              	.LVL23:
 177:Drivers/lvgl/src/extra/widgets/tileview/lv_tileview.c ****         uint32_t i;
 217              		.loc 1 177 9 is_stmt 1 view .LVU58
 178:Drivers/lvgl/src/extra/widgets/tileview/lv_tileview.c ****         for(i = 0; i < lv_obj_get_child_cnt(obj); i++) {
 218              		.loc 1 178 9 view .LVU59
 179:Drivers/lvgl/src/extra/widgets/tileview/lv_tileview.c ****             lv_obj_t * tile_obj = lv_obj_get_child(obj, i);
 219              		.loc 1 179 9 view .LVU60
 179:Drivers/lvgl/src/extra/widgets/tileview/lv_tileview.c ****             lv_obj_t * tile_obj = lv_obj_get_child(obj, i);
 220              		.loc 1 179 15 is_stmt 0 view .LVU61
 221 0078 0024     		movs	r4, #0
 222              	.LVL24:
 179:Drivers/lvgl/src/extra/widgets/tileview/lv_tileview.c ****             lv_obj_t * tile_obj = lv_obj_get_child(obj, i);
 223              		.loc 1 179 9 view .LVU62
 224 007a 00E0     		b	.L9
 225              	.LVL25:
ARM GAS  /var/folders/lp/x54gwt890xv47sdkqj1k04q40000gn/T//ccyJ1brm.s 			page 9


 226              	.L10:
 179:Drivers/lvgl/src/extra/widgets/tileview/lv_tileview.c ****             lv_obj_t * tile_obj = lv_obj_get_child(obj, i);
 227              		.loc 1 179 52 discriminator 2 view .LVU63
 228 007c 0134     		adds	r4, r4, #1
 229              	.LVL26:
 230              	.L9:
 179:Drivers/lvgl/src/extra/widgets/tileview/lv_tileview.c ****             lv_obj_t * tile_obj = lv_obj_get_child(obj, i);
 231              		.loc 1 179 22 is_stmt 1 discriminator 1 view .LVU64
 179:Drivers/lvgl/src/extra/widgets/tileview/lv_tileview.c ****             lv_obj_t * tile_obj = lv_obj_get_child(obj, i);
 232              		.loc 1 179 24 is_stmt 0 discriminator 1 view .LVU65
 233 007e 3846     		mov	r0, r7
 234 0080 FFF7FEFF 		bl	lv_obj_get_child_cnt
 235              	.LVL27:
 236              	.LBB3:
 180:Drivers/lvgl/src/extra/widgets/tileview/lv_tileview.c ****             lv_coord_t x = lv_obj_get_x(tile_obj);
 237              		.loc 1 180 13 is_stmt 1 view .LVU66
 238              	.LBE3:
 179:Drivers/lvgl/src/extra/widgets/tileview/lv_tileview.c ****             lv_obj_t * tile_obj = lv_obj_get_child(obj, i);
 239              		.loc 1 179 24 is_stmt 0 discriminator 1 view .LVU67
 240 0084 0346     		mov	r3, r0
 179:Drivers/lvgl/src/extra/widgets/tileview/lv_tileview.c ****             lv_obj_t * tile_obj = lv_obj_get_child(obj, i);
 241              		.loc 1 179 22 discriminator 1 view .LVU68
 242 0086 A342     		cmp	r3, r4
 243              	.LBB5:
 180:Drivers/lvgl/src/extra/widgets/tileview/lv_tileview.c ****             lv_coord_t x = lv_obj_get_x(tile_obj);
 244              		.loc 1 180 35 view .LVU69
 245 0088 2146     		mov	r1, r4
 246 008a 3846     		mov	r0, r7
 247              	.LBE5:
 179:Drivers/lvgl/src/extra/widgets/tileview/lv_tileview.c ****             lv_obj_t * tile_obj = lv_obj_get_child(obj, i);
 248              		.loc 1 179 22 discriminator 1 view .LVU70
 249 008c 15D9     		bls	.L18
 250              	.LVL28:
 251              	.LBB6:
 180:Drivers/lvgl/src/extra/widgets/tileview/lv_tileview.c ****             lv_coord_t x = lv_obj_get_x(tile_obj);
 252              		.loc 1 180 35 view .LVU71
 253 008e FFF7FEFF 		bl	lv_obj_get_child
 254              	.LVL29:
 180:Drivers/lvgl/src/extra/widgets/tileview/lv_tileview.c ****             lv_coord_t x = lv_obj_get_x(tile_obj);
 255              		.loc 1 180 35 view .LVU72
 256 0092 0546     		mov	r5, r0
 257              	.LVL30:
 181:Drivers/lvgl/src/extra/widgets/tileview/lv_tileview.c ****             lv_coord_t y = lv_obj_get_y(tile_obj);
 258              		.loc 1 181 13 is_stmt 1 view .LVU73
 181:Drivers/lvgl/src/extra/widgets/tileview/lv_tileview.c ****             lv_coord_t y = lv_obj_get_y(tile_obj);
 259              		.loc 1 181 28 is_stmt 0 view .LVU74
 260 0094 FFF7FEFF 		bl	lv_obj_get_x
 261              	.LVL31:
 181:Drivers/lvgl/src/extra/widgets/tileview/lv_tileview.c ****             lv_coord_t y = lv_obj_get_y(tile_obj);
 262              		.loc 1 181 28 view .LVU75
 263 0098 0646     		mov	r6, r0
 264              	.LVL32:
 182:Drivers/lvgl/src/extra/widgets/tileview/lv_tileview.c ****             if(x == tx && y == ty) {
 265              		.loc 1 182 13 is_stmt 1 view .LVU76
 182:Drivers/lvgl/src/extra/widgets/tileview/lv_tileview.c ****             if(x == tx && y == ty) {
 266              		.loc 1 182 28 is_stmt 0 view .LVU77
 267 009a 2846     		mov	r0, r5
ARM GAS  /var/folders/lp/x54gwt890xv47sdkqj1k04q40000gn/T//ccyJ1brm.s 			page 10


 268 009c FFF7FEFF 		bl	lv_obj_get_y
 269              	.LVL33:
 270              	.LBE6:
 179:Drivers/lvgl/src/extra/widgets/tileview/lv_tileview.c ****             lv_obj_t * tile_obj = lv_obj_get_child(obj, i);
 271              		.loc 1 179 52 is_stmt 1 discriminator 2 view .LVU78
 272              	.LBB7:
 183:Drivers/lvgl/src/extra/widgets/tileview/lv_tileview.c ****                 lv_tileview_tile_t * tile = (lv_tileview_tile_t *)tile_obj;
 273              		.loc 1 183 13 view .LVU79
 183:Drivers/lvgl/src/extra/widgets/tileview/lv_tileview.c ****                 lv_tileview_tile_t * tile = (lv_tileview_tile_t *)tile_obj;
 274              		.loc 1 183 15 is_stmt 0 view .LVU80
 275 00a0 B045     		cmp	r8, r6
 276 00a2 EBD1     		bne	.L10
 183:Drivers/lvgl/src/extra/widgets/tileview/lv_tileview.c ****                 lv_tileview_tile_t * tile = (lv_tileview_tile_t *)tile_obj;
 277              		.loc 1 183 24 discriminator 1 view .LVU81
 278 00a4 8145     		cmp	r9, r0
 279 00a6 E9D1     		bne	.L10
 280              	.LBB4:
 184:Drivers/lvgl/src/extra/widgets/tileview/lv_tileview.c ****                 tv->tile_act = (lv_obj_t *)tile;
 281              		.loc 1 184 17 is_stmt 1 view .LVU82
 282              	.LVL34:
 185:Drivers/lvgl/src/extra/widgets/tileview/lv_tileview.c ****                 dir = tile->dir;
 283              		.loc 1 185 17 view .LVU83
 185:Drivers/lvgl/src/extra/widgets/tileview/lv_tileview.c ****                 dir = tile->dir;
 284              		.loc 1 185 30 is_stmt 0 view .LVU84
 285 00a8 7D62     		str	r5, [r7, #36]
 186:Drivers/lvgl/src/extra/widgets/tileview/lv_tileview.c ****                 lv_event_send(obj, LV_EVENT_VALUE_CHANGED, NULL);
 286              		.loc 1 186 17 is_stmt 1 view .LVU85
 187:Drivers/lvgl/src/extra/widgets/tileview/lv_tileview.c ****                 break;
 287              		.loc 1 187 17 is_stmt 0 view .LVU86
 288 00aa 0022     		movs	r2, #0
 289 00ac 1C21     		movs	r1, #28
 290 00ae 3846     		mov	r0, r7
 291              	.LVL35:
 186:Drivers/lvgl/src/extra/widgets/tileview/lv_tileview.c ****                 lv_event_send(obj, LV_EVENT_VALUE_CHANGED, NULL);
 292              		.loc 1 186 21 view .LVU87
 293 00b0 95F82440 		ldrb	r4, [r5, #36]	@ zero_extendqisi2
 294              	.LVL36:
 187:Drivers/lvgl/src/extra/widgets/tileview/lv_tileview.c ****                 break;
 295              		.loc 1 187 17 is_stmt 1 view .LVU88
 296 00b4 FFF7FEFF 		bl	lv_event_send
 297              	.LVL37:
 188:Drivers/lvgl/src/extra/widgets/tileview/lv_tileview.c ****             }
 298              		.loc 1 188 17 view .LVU89
 299 00b8 00E0     		b	.L11
 300              	.LVL38:
 301              	.L18:
 188:Drivers/lvgl/src/extra/widgets/tileview/lv_tileview.c ****             }
 302              		.loc 1 188 17 is_stmt 0 view .LVU90
 303              	.LBE4:
 304              	.LBE7:
 177:Drivers/lvgl/src/extra/widgets/tileview/lv_tileview.c ****         uint32_t i;
 305              		.loc 1 177 18 view .LVU91
 306 00ba 0F24     		movs	r4, #15
 307              	.LVL39:
 308              	.L11:
 191:Drivers/lvgl/src/extra/widgets/tileview/lv_tileview.c ****     }
 309              		.loc 1 191 9 is_stmt 1 view .LVU92
ARM GAS  /var/folders/lp/x54gwt890xv47sdkqj1k04q40000gn/T//ccyJ1brm.s 			page 11


 310 00bc 2146     		mov	r1, r4
 311 00be 3846     		mov	r0, r7
 312 00c0 FFF7FEFF 		bl	lv_obj_set_scroll_dir
 313              	.LVL40:
 314              	.LBE2:
 315              		.loc 1 193 1 is_stmt 0 view .LVU93
 316 00c4 03B0     		add	sp, sp, #12
 317              		.cfi_def_cfa_offset 28
 318              		@ sp needed
 319 00c6 BDE8F083 		pop	{r4, r5, r6, r7, r8, r9, pc}
 320              		.loc 1 193 1 view .LVU94
 321              		.cfi_endproc
 322              	.LFE168:
 324 00ca 00BF     		.section	.text.lv_tileview_tile_constructor,"ax",%progbits
 325              		.align	1
 326              		.p2align 2,,3
 327              		.syntax unified
 328              		.thumb
 329              		.thumb_func
 331              	lv_tileview_tile_constructor:
 332              	.LVL41:
 333              	.LFB167:
 137:Drivers/lvgl/src/extra/widgets/tileview/lv_tileview.c **** 
 334              		.loc 1 137 1 is_stmt 1 view -0
 335              		.cfi_startproc
 336              		@ args = 0, pretend = 0, frame = 0
 337              		@ frame_needed = 0, uses_anonymous_args = 0
 139:Drivers/lvgl/src/extra/widgets/tileview/lv_tileview.c ****     lv_obj_t * parent = lv_obj_get_parent(obj);
 338              		.loc 1 139 5 view .LVU96
 140:Drivers/lvgl/src/extra/widgets/tileview/lv_tileview.c ****     lv_obj_set_size(obj, LV_PCT(100), LV_PCT(100));
 339              		.loc 1 140 5 view .LVU97
 137:Drivers/lvgl/src/extra/widgets/tileview/lv_tileview.c **** 
 340              		.loc 1 137 1 is_stmt 0 view .LVU98
 341 0000 F8B5     		push	{r3, r4, r5, r6, r7, lr}
 342              		.cfi_def_cfa_offset 24
 343              		.cfi_offset 3, -24
 344              		.cfi_offset 4, -20
 345              		.cfi_offset 5, -16
 346              		.cfi_offset 6, -12
 347              		.cfi_offset 7, -8
 348              		.cfi_offset 14, -4
 140:Drivers/lvgl/src/extra/widgets/tileview/lv_tileview.c ****     lv_obj_set_size(obj, LV_PCT(100), LV_PCT(100));
 349              		.loc 1 140 25 view .LVU99
 350 0002 0846     		mov	r0, r1
 351              	.LVL42:
 137:Drivers/lvgl/src/extra/widgets/tileview/lv_tileview.c **** 
 352              		.loc 1 137 1 view .LVU100
 353 0004 0C46     		mov	r4, r1
 140:Drivers/lvgl/src/extra/widgets/tileview/lv_tileview.c ****     lv_obj_set_size(obj, LV_PCT(100), LV_PCT(100));
 354              		.loc 1 140 25 view .LVU101
 355 0006 FFF7FEFF 		bl	lv_obj_get_parent
 356              	.LVL43:
 141:Drivers/lvgl/src/extra/widgets/tileview/lv_tileview.c ****     lv_obj_update_layout(obj);  /*Be sure the size is correct*/
 357              		.loc 1 141 5 view .LVU102
 358 000a 42F26402 		movw	r2, #8292
 359 000e 1146     		mov	r1, r2
 140:Drivers/lvgl/src/extra/widgets/tileview/lv_tileview.c ****     lv_obj_set_size(obj, LV_PCT(100), LV_PCT(100));
ARM GAS  /var/folders/lp/x54gwt890xv47sdkqj1k04q40000gn/T//ccyJ1brm.s 			page 12


 360              		.loc 1 140 25 view .LVU103
 361 0010 0646     		mov	r6, r0
 141:Drivers/lvgl/src/extra/widgets/tileview/lv_tileview.c ****     lv_obj_update_layout(obj);  /*Be sure the size is correct*/
 362              		.loc 1 141 5 view .LVU104
 363 0012 2046     		mov	r0, r4
 364              	.LVL44:
 141:Drivers/lvgl/src/extra/widgets/tileview/lv_tileview.c ****     lv_obj_update_layout(obj);  /*Be sure the size is correct*/
 365              		.loc 1 141 5 is_stmt 1 view .LVU105
 366 0014 FFF7FEFF 		bl	lv_obj_set_size
 367              	.LVL45:
 142:Drivers/lvgl/src/extra/widgets/tileview/lv_tileview.c ****     lv_obj_set_pos(obj, create_col_id * lv_obj_get_content_width(parent),
 368              		.loc 1 142 5 view .LVU106
 369 0018 2046     		mov	r0, r4
 370 001a FFF7FEFF 		bl	lv_obj_update_layout
 371              	.LVL46:
 143:Drivers/lvgl/src/extra/widgets/tileview/lv_tileview.c ****                    create_row_id * lv_obj_get_content_height(parent));
 372              		.loc 1 143 5 view .LVU107
 143:Drivers/lvgl/src/extra/widgets/tileview/lv_tileview.c ****                    create_row_id * lv_obj_get_content_height(parent));
 373              		.loc 1 143 5 is_stmt 0 discriminator 1 view .LVU108
 374 001e 114F     		ldr	r7, .L23
 143:Drivers/lvgl/src/extra/widgets/tileview/lv_tileview.c ****                    create_row_id * lv_obj_get_content_height(parent));
 375              		.loc 1 143 41 view .LVU109
 376 0020 3046     		mov	r0, r6
 377 0022 FFF7FEFF 		bl	lv_obj_get_content_width
 378              	.LVL47:
 143:Drivers/lvgl/src/extra/widgets/tileview/lv_tileview.c ****                    create_row_id * lv_obj_get_content_height(parent));
 379              		.loc 1 143 5 discriminator 1 view .LVU110
 380 0026 3968     		ldr	r1, [r7]
 381 0028 11FB00F1 		smulbb	r1, r1, r0
 382 002c 0DB2     		sxth	r5, r1
 144:Drivers/lvgl/src/extra/widgets/tileview/lv_tileview.c **** 
 383              		.loc 1 144 36 view .LVU111
 384 002e 3046     		mov	r0, r6
 385 0030 FFF7FEFF 		bl	lv_obj_get_content_height
 386              	.LVL48:
 143:Drivers/lvgl/src/extra/widgets/tileview/lv_tileview.c ****                    create_row_id * lv_obj_get_content_height(parent));
 387              		.loc 1 143 5 view .LVU112
 388 0034 2946     		mov	r1, r5
 389 0036 0C4D     		ldr	r5, .L23+4
 390 0038 2A68     		ldr	r2, [r5]
 144:Drivers/lvgl/src/extra/widgets/tileview/lv_tileview.c **** 
 391              		.loc 1 144 36 view .LVU113
 392 003a 0346     		mov	r3, r0
 143:Drivers/lvgl/src/extra/widgets/tileview/lv_tileview.c ****                    create_row_id * lv_obj_get_content_height(parent));
 393              		.loc 1 143 5 view .LVU114
 394 003c 12FB03F2 		smulbb	r2, r2, r3
 395 0040 12B2     		sxth	r2, r2
 396 0042 2046     		mov	r0, r4
 397 0044 FFF7FEFF 		bl	lv_obj_set_pos
 398              	.LVL49:
 146:Drivers/lvgl/src/extra/widgets/tileview/lv_tileview.c ****     tile->dir = create_dir;
 399              		.loc 1 146 5 is_stmt 1 view .LVU115
 147:Drivers/lvgl/src/extra/widgets/tileview/lv_tileview.c **** 
 400              		.loc 1 147 5 view .LVU116
 147:Drivers/lvgl/src/extra/widgets/tileview/lv_tileview.c **** 
 401              		.loc 1 147 15 is_stmt 0 view .LVU117
 402 0048 0849     		ldr	r1, .L23+8
ARM GAS  /var/folders/lp/x54gwt890xv47sdkqj1k04q40000gn/T//ccyJ1brm.s 			page 13


 149:Drivers/lvgl/src/extra/widgets/tileview/lv_tileview.c ****         lv_obj_set_scroll_dir(parent, create_dir);
 403              		.loc 1 149 27 discriminator 1 view .LVU118
 404 004a 3B68     		ldr	r3, [r7]
 405 004c 2A68     		ldr	r2, [r5]
 147:Drivers/lvgl/src/extra/widgets/tileview/lv_tileview.c **** 
 406              		.loc 1 147 15 view .LVU119
 407 004e 0978     		ldrb	r1, [r1]	@ zero_extendqisi2
 408 0050 84F82410 		strb	r1, [r4, #36]
 149:Drivers/lvgl/src/extra/widgets/tileview/lv_tileview.c ****         lv_obj_set_scroll_dir(parent, create_dir);
 409              		.loc 1 149 5 is_stmt 1 view .LVU120
 149:Drivers/lvgl/src/extra/widgets/tileview/lv_tileview.c ****         lv_obj_set_scroll_dir(parent, create_dir);
 410              		.loc 1 149 27 is_stmt 0 discriminator 1 view .LVU121
 411 0054 1343     		orrs	r3, r3, r2
 412 0056 00D0     		beq	.L22
 152:Drivers/lvgl/src/extra/widgets/tileview/lv_tileview.c **** 
 413              		.loc 1 152 1 view .LVU122
 414 0058 F8BD     		pop	{r3, r4, r5, r6, r7, pc}
 415              	.LVL50:
 416              	.L22:
 150:Drivers/lvgl/src/extra/widgets/tileview/lv_tileview.c ****     }
 417              		.loc 1 150 9 is_stmt 1 view .LVU123
 418 005a 3046     		mov	r0, r6
 152:Drivers/lvgl/src/extra/widgets/tileview/lv_tileview.c **** 
 419              		.loc 1 152 1 is_stmt 0 view .LVU124
 420 005c BDE8F840 		pop	{r3, r4, r5, r6, r7, lr}
 421              		.cfi_restore 14
 422              		.cfi_restore 7
 423              		.cfi_restore 6
 424              		.cfi_restore 5
 425              		.cfi_restore 4
 426              		.cfi_restore 3
 427              		.cfi_def_cfa_offset 0
 428              	.LVL51:
 150:Drivers/lvgl/src/extra/widgets/tileview/lv_tileview.c ****     }
 429              		.loc 1 150 9 view .LVU125
 430 0060 FFF7FEBF 		b	lv_obj_set_scroll_dir
 431              	.LVL52:
 432              	.L24:
 150:Drivers/lvgl/src/extra/widgets/tileview/lv_tileview.c ****     }
 433              		.loc 1 150 9 view .LVU126
 434              		.align	2
 435              	.L23:
 436 0064 00000000 		.word	create_col_id
 437 0068 00000000 		.word	create_row_id
 438 006c 00000000 		.word	create_dir
 439              		.cfi_endproc
 440              	.LFE167:
 442              		.section	.text.lv_tileview_create,"ax",%progbits
 443              		.align	1
 444              		.p2align 2,,3
 445              		.global	lv_tileview_create
 446              		.syntax unified
 447              		.thumb
 448              		.thumb_func
 450              	lv_tileview_create:
 451              	.LVL53:
 452              	.LFB161:
ARM GAS  /var/folders/lp/x54gwt890xv47sdkqj1k04q40000gn/T//ccyJ1brm.s 			page 14


  55:Drivers/lvgl/src/extra/widgets/tileview/lv_tileview.c ****     LV_LOG_INFO("begin");
 453              		.loc 1 55 1 is_stmt 1 view -0
 454              		.cfi_startproc
 455              		@ args = 0, pretend = 0, frame = 0
 456              		@ frame_needed = 0, uses_anonymous_args = 0
  56:Drivers/lvgl/src/extra/widgets/tileview/lv_tileview.c ****     lv_obj_t * obj = lv_obj_class_create_obj(&lv_tileview_class, parent);
 457              		.loc 1 56 5 view .LVU128
  56:Drivers/lvgl/src/extra/widgets/tileview/lv_tileview.c ****     lv_obj_t * obj = lv_obj_class_create_obj(&lv_tileview_class, parent);
 458              		.loc 1 56 5 view .LVU129
  56:Drivers/lvgl/src/extra/widgets/tileview/lv_tileview.c ****     lv_obj_t * obj = lv_obj_class_create_obj(&lv_tileview_class, parent);
 459              		.loc 1 56 5 view .LVU130
  57:Drivers/lvgl/src/extra/widgets/tileview/lv_tileview.c ****     lv_obj_class_init_obj(obj);
 460              		.loc 1 57 5 view .LVU131
  55:Drivers/lvgl/src/extra/widgets/tileview/lv_tileview.c ****     LV_LOG_INFO("begin");
 461              		.loc 1 55 1 is_stmt 0 view .LVU132
 462 0000 10B5     		push	{r4, lr}
 463              		.cfi_def_cfa_offset 8
 464              		.cfi_offset 4, -8
 465              		.cfi_offset 14, -4
  55:Drivers/lvgl/src/extra/widgets/tileview/lv_tileview.c ****     LV_LOG_INFO("begin");
 466              		.loc 1 55 1 view .LVU133
 467 0002 0146     		mov	r1, r0
  57:Drivers/lvgl/src/extra/widgets/tileview/lv_tileview.c ****     lv_obj_class_init_obj(obj);
 468              		.loc 1 57 22 view .LVU134
 469 0004 0348     		ldr	r0, .L27
 470              	.LVL54:
  57:Drivers/lvgl/src/extra/widgets/tileview/lv_tileview.c ****     lv_obj_class_init_obj(obj);
 471              		.loc 1 57 22 view .LVU135
 472 0006 FFF7FEFF 		bl	lv_obj_class_create_obj
 473              	.LVL55:
  57:Drivers/lvgl/src/extra/widgets/tileview/lv_tileview.c ****     lv_obj_class_init_obj(obj);
 474              		.loc 1 57 22 view .LVU136
 475 000a 0446     		mov	r4, r0
 476              	.LVL56:
  58:Drivers/lvgl/src/extra/widgets/tileview/lv_tileview.c ****     return obj;
 477              		.loc 1 58 5 is_stmt 1 view .LVU137
 478 000c FFF7FEFF 		bl	lv_obj_class_init_obj
 479              	.LVL57:
  59:Drivers/lvgl/src/extra/widgets/tileview/lv_tileview.c **** }
 480              		.loc 1 59 5 view .LVU138
  60:Drivers/lvgl/src/extra/widgets/tileview/lv_tileview.c **** 
 481              		.loc 1 60 1 is_stmt 0 view .LVU139
 482 0010 2046     		mov	r0, r4
 483 0012 10BD     		pop	{r4, pc}
 484              	.LVL58:
 485              	.L28:
  60:Drivers/lvgl/src/extra/widgets/tileview/lv_tileview.c **** 
 486              		.loc 1 60 1 view .LVU140
 487              		.align	2
 488              	.L27:
 489 0014 00000000 		.word	lv_tileview_class
 490              		.cfi_endproc
 491              	.LFE161:
 493              		.section	.text.lv_tileview_add_tile,"ax",%progbits
 494              		.align	1
 495              		.p2align 2,,3
 496              		.global	lv_tileview_add_tile
ARM GAS  /var/folders/lp/x54gwt890xv47sdkqj1k04q40000gn/T//ccyJ1brm.s 			page 15


 497              		.syntax unified
 498              		.thumb
 499              		.thumb_func
 501              	lv_tileview_add_tile:
 502              	.LVL59:
 503              	.LFB162:
  67:Drivers/lvgl/src/extra/widgets/tileview/lv_tileview.c ****     LV_LOG_INFO("begin");
 504              		.loc 1 67 1 is_stmt 1 view -0
 505              		.cfi_startproc
 506              		@ args = 0, pretend = 0, frame = 0
 507              		@ frame_needed = 0, uses_anonymous_args = 0
  68:Drivers/lvgl/src/extra/widgets/tileview/lv_tileview.c ****     create_dir = dir;
 508              		.loc 1 68 5 view .LVU142
  68:Drivers/lvgl/src/extra/widgets/tileview/lv_tileview.c ****     create_dir = dir;
 509              		.loc 1 68 5 view .LVU143
  68:Drivers/lvgl/src/extra/widgets/tileview/lv_tileview.c ****     create_dir = dir;
 510              		.loc 1 68 5 view .LVU144
  69:Drivers/lvgl/src/extra/widgets/tileview/lv_tileview.c ****     create_col_id = col_id;
 511              		.loc 1 69 5 view .LVU145
  67:Drivers/lvgl/src/extra/widgets/tileview/lv_tileview.c ****     LV_LOG_INFO("begin");
 512              		.loc 1 67 1 is_stmt 0 view .LVU146
 513 0000 38B5     		push	{r3, r4, r5, lr}
 514              		.cfi_def_cfa_offset 16
 515              		.cfi_offset 3, -16
 516              		.cfi_offset 4, -12
 517              		.cfi_offset 5, -8
 518              		.cfi_offset 14, -4
  69:Drivers/lvgl/src/extra/widgets/tileview/lv_tileview.c ****     create_col_id = col_id;
 519              		.loc 1 69 16 view .LVU147
 520 0002 084D     		ldr	r5, .L31
  67:Drivers/lvgl/src/extra/widgets/tileview/lv_tileview.c ****     LV_LOG_INFO("begin");
 521              		.loc 1 67 1 view .LVU148
 522 0004 0C46     		mov	r4, r1
  73:Drivers/lvgl/src/extra/widgets/tileview/lv_tileview.c ****     lv_obj_class_init_obj(obj);
 523              		.loc 1 73 22 view .LVU149
 524 0006 0146     		mov	r1, r0
 525              	.LVL60:
  70:Drivers/lvgl/src/extra/widgets/tileview/lv_tileview.c ****     create_row_id = row_id;
 526              		.loc 1 70 19 view .LVU150
 527 0008 0748     		ldr	r0, .L31+4
 528              	.LVL61:
  69:Drivers/lvgl/src/extra/widgets/tileview/lv_tileview.c ****     create_col_id = col_id;
 529              		.loc 1 69 16 view .LVU151
 530 000a 2B70     		strb	r3, [r5]
  70:Drivers/lvgl/src/extra/widgets/tileview/lv_tileview.c ****     create_row_id = row_id;
 531              		.loc 1 70 5 is_stmt 1 view .LVU152
  71:Drivers/lvgl/src/extra/widgets/tileview/lv_tileview.c **** 
 532              		.loc 1 71 19 is_stmt 0 view .LVU153
 533 000c 074B     		ldr	r3, .L31+8
 534              	.LVL62:
  70:Drivers/lvgl/src/extra/widgets/tileview/lv_tileview.c ****     create_row_id = row_id;
 535              		.loc 1 70 19 view .LVU154
 536 000e 0460     		str	r4, [r0]
  71:Drivers/lvgl/src/extra/widgets/tileview/lv_tileview.c **** 
 537              		.loc 1 71 5 is_stmt 1 view .LVU155
  73:Drivers/lvgl/src/extra/widgets/tileview/lv_tileview.c ****     lv_obj_class_init_obj(obj);
 538              		.loc 1 73 22 is_stmt 0 view .LVU156
ARM GAS  /var/folders/lp/x54gwt890xv47sdkqj1k04q40000gn/T//ccyJ1brm.s 			page 16


 539 0010 0748     		ldr	r0, .L31+12
  71:Drivers/lvgl/src/extra/widgets/tileview/lv_tileview.c **** 
 540              		.loc 1 71 19 view .LVU157
 541 0012 1A60     		str	r2, [r3]
  73:Drivers/lvgl/src/extra/widgets/tileview/lv_tileview.c ****     lv_obj_class_init_obj(obj);
 542              		.loc 1 73 5 is_stmt 1 view .LVU158
  73:Drivers/lvgl/src/extra/widgets/tileview/lv_tileview.c ****     lv_obj_class_init_obj(obj);
 543              		.loc 1 73 22 is_stmt 0 view .LVU159
 544 0014 FFF7FEFF 		bl	lv_obj_class_create_obj
 545              	.LVL63:
  73:Drivers/lvgl/src/extra/widgets/tileview/lv_tileview.c ****     lv_obj_class_init_obj(obj);
 546              		.loc 1 73 22 view .LVU160
 547 0018 0446     		mov	r4, r0
 548              	.LVL64:
  74:Drivers/lvgl/src/extra/widgets/tileview/lv_tileview.c ****     return obj;
 549              		.loc 1 74 5 is_stmt 1 view .LVU161
 550 001a FFF7FEFF 		bl	lv_obj_class_init_obj
 551              	.LVL65:
  75:Drivers/lvgl/src/extra/widgets/tileview/lv_tileview.c **** }
 552              		.loc 1 75 5 view .LVU162
  76:Drivers/lvgl/src/extra/widgets/tileview/lv_tileview.c **** 
 553              		.loc 1 76 1 is_stmt 0 view .LVU163
 554 001e 2046     		mov	r0, r4
 555 0020 38BD     		pop	{r3, r4, r5, pc}
 556              	.LVL66:
 557              	.L32:
  76:Drivers/lvgl/src/extra/widgets/tileview/lv_tileview.c **** 
 558              		.loc 1 76 1 view .LVU164
 559 0022 00BF     		.align	2
 560              	.L31:
 561 0024 00000000 		.word	create_dir
 562 0028 00000000 		.word	create_col_id
 563 002c 00000000 		.word	create_row_id
 564 0030 00000000 		.word	lv_tileview_tile_class
 565              		.cfi_endproc
 566              	.LFE162:
 568              		.section	.text.lv_obj_set_tile,"ax",%progbits
 569              		.align	1
 570              		.p2align 2,,3
 571              		.global	lv_obj_set_tile
 572              		.syntax unified
 573              		.thumb
 574              		.thumb_func
 576              	lv_obj_set_tile:
 577              	.LVL67:
 578              	.LFB163:
  79:Drivers/lvgl/src/extra/widgets/tileview/lv_tileview.c ****     lv_coord_t tx = lv_obj_get_x(tile_obj);
 579              		.loc 1 79 1 is_stmt 1 view -0
 580              		.cfi_startproc
 581              		@ args = 0, pretend = 0, frame = 0
 582              		@ frame_needed = 0, uses_anonymous_args = 0
  80:Drivers/lvgl/src/extra/widgets/tileview/lv_tileview.c ****     lv_coord_t ty = lv_obj_get_y(tile_obj);
 583              		.loc 1 80 5 view .LVU166
  79:Drivers/lvgl/src/extra/widgets/tileview/lv_tileview.c ****     lv_coord_t tx = lv_obj_get_x(tile_obj);
 584              		.loc 1 79 1 is_stmt 0 view .LVU167
 585 0000 2DE9F041 		push	{r4, r5, r6, r7, r8, lr}
 586              		.cfi_def_cfa_offset 24
ARM GAS  /var/folders/lp/x54gwt890xv47sdkqj1k04q40000gn/T//ccyJ1brm.s 			page 17


 587              		.cfi_offset 4, -24
 588              		.cfi_offset 5, -20
 589              		.cfi_offset 6, -16
 590              		.cfi_offset 7, -12
 591              		.cfi_offset 8, -8
 592              		.cfi_offset 14, -4
  79:Drivers/lvgl/src/extra/widgets/tileview/lv_tileview.c ****     lv_coord_t tx = lv_obj_get_x(tile_obj);
 593              		.loc 1 79 1 view .LVU168
 594 0004 0546     		mov	r5, r0
  80:Drivers/lvgl/src/extra/widgets/tileview/lv_tileview.c ****     lv_coord_t ty = lv_obj_get_y(tile_obj);
 595              		.loc 1 80 21 view .LVU169
 596 0006 0846     		mov	r0, r1
 597              	.LVL68:
  79:Drivers/lvgl/src/extra/widgets/tileview/lv_tileview.c ****     lv_coord_t tx = lv_obj_get_x(tile_obj);
 598              		.loc 1 79 1 view .LVU170
 599 0008 0C46     		mov	r4, r1
 600 000a 9046     		mov	r8, r2
  80:Drivers/lvgl/src/extra/widgets/tileview/lv_tileview.c ****     lv_coord_t ty = lv_obj_get_y(tile_obj);
 601              		.loc 1 80 21 view .LVU171
 602 000c FFF7FEFF 		bl	lv_obj_get_x
 603              	.LVL69:
  80:Drivers/lvgl/src/extra/widgets/tileview/lv_tileview.c ****     lv_coord_t ty = lv_obj_get_y(tile_obj);
 604              		.loc 1 80 21 view .LVU172
 605 0010 0646     		mov	r6, r0
 606              	.LVL70:
  81:Drivers/lvgl/src/extra/widgets/tileview/lv_tileview.c **** 
 607              		.loc 1 81 5 is_stmt 1 view .LVU173
  81:Drivers/lvgl/src/extra/widgets/tileview/lv_tileview.c **** 
 608              		.loc 1 81 21 is_stmt 0 view .LVU174
 609 0012 2046     		mov	r0, r4
 610 0014 FFF7FEFF 		bl	lv_obj_get_y
 611              	.LVL71:
  85:Drivers/lvgl/src/extra/widgets/tileview/lv_tileview.c **** 
 612              		.loc 1 85 18 view .LVU175
 613 0018 6C62     		str	r4, [r5, #36]
  87:Drivers/lvgl/src/extra/widgets/tileview/lv_tileview.c ****     lv_obj_scroll_to(obj, tx, ty, anim_en);
 614              		.loc 1 87 5 view .LVU176
 615 001a 94F82410 		ldrb	r1, [r4, #36]	@ zero_extendqisi2
  81:Drivers/lvgl/src/extra/widgets/tileview/lv_tileview.c **** 
 616              		.loc 1 81 21 view .LVU177
 617 001e 0746     		mov	r7, r0
 618              	.LVL72:
  83:Drivers/lvgl/src/extra/widgets/tileview/lv_tileview.c ****     lv_tileview_t * tv = (lv_tileview_t *) obj;
 619              		.loc 1 83 5 is_stmt 1 view .LVU178
  84:Drivers/lvgl/src/extra/widgets/tileview/lv_tileview.c ****     tv->tile_act = (lv_obj_t *)tile;
 620              		.loc 1 84 5 view .LVU179
  85:Drivers/lvgl/src/extra/widgets/tileview/lv_tileview.c **** 
 621              		.loc 1 85 5 view .LVU180
  87:Drivers/lvgl/src/extra/widgets/tileview/lv_tileview.c ****     lv_obj_scroll_to(obj, tx, ty, anim_en);
 622              		.loc 1 87 5 view .LVU181
 623 0020 2846     		mov	r0, r5
 624 0022 FFF7FEFF 		bl	lv_obj_set_scroll_dir
 625              	.LVL73:
  88:Drivers/lvgl/src/extra/widgets/tileview/lv_tileview.c **** }
 626              		.loc 1 88 5 view .LVU182
 627 0026 4346     		mov	r3, r8
 628 0028 3A46     		mov	r2, r7
ARM GAS  /var/folders/lp/x54gwt890xv47sdkqj1k04q40000gn/T//ccyJ1brm.s 			page 18


 629 002a 3146     		mov	r1, r6
 630 002c 2846     		mov	r0, r5
  89:Drivers/lvgl/src/extra/widgets/tileview/lv_tileview.c **** 
 631              		.loc 1 89 1 is_stmt 0 view .LVU183
 632 002e BDE8F041 		pop	{r4, r5, r6, r7, r8, lr}
 633              		.cfi_restore 14
 634              		.cfi_restore 8
 635              		.cfi_restore 7
 636              		.cfi_restore 6
 637              		.cfi_restore 5
 638              		.cfi_restore 4
 639              		.cfi_def_cfa_offset 0
 640              	.LVL74:
  88:Drivers/lvgl/src/extra/widgets/tileview/lv_tileview.c **** }
 641              		.loc 1 88 5 view .LVU184
 642 0032 FFF7FEBF 		b	lv_obj_scroll_to
 643              	.LVL75:
  88:Drivers/lvgl/src/extra/widgets/tileview/lv_tileview.c **** }
 644              		.loc 1 88 5 view .LVU185
 645              		.cfi_endproc
 646              	.LFE163:
 648 0036 00BF     		.section	.text.lv_obj_set_tile_id,"ax",%progbits
 649              		.align	1
 650              		.p2align 2,,3
 651              		.global	lv_obj_set_tile_id
 652              		.syntax unified
 653              		.thumb
 654              		.thumb_func
 656              	lv_obj_set_tile_id:
 657              	.LVL76:
 658              	.LFB164:
  92:Drivers/lvgl/src/extra/widgets/tileview/lv_tileview.c ****     lv_obj_update_layout(tv);
 659              		.loc 1 92 1 is_stmt 1 view -0
 660              		.cfi_startproc
 661              		@ args = 0, pretend = 0, frame = 0
 662              		@ frame_needed = 0, uses_anonymous_args = 0
  93:Drivers/lvgl/src/extra/widgets/tileview/lv_tileview.c **** 
 663              		.loc 1 93 5 view .LVU187
  92:Drivers/lvgl/src/extra/widgets/tileview/lv_tileview.c ****     lv_obj_update_layout(tv);
 664              		.loc 1 92 1 is_stmt 0 view .LVU188
 665 0000 2DE9F047 		push	{r4, r5, r6, r7, r8, r9, r10, lr}
 666              		.cfi_def_cfa_offset 32
 667              		.cfi_offset 4, -32
 668              		.cfi_offset 5, -28
 669              		.cfi_offset 6, -24
 670              		.cfi_offset 7, -20
 671              		.cfi_offset 8, -16
 672              		.cfi_offset 9, -12
 673              		.cfi_offset 10, -8
 674              		.cfi_offset 14, -4
  92:Drivers/lvgl/src/extra/widgets/tileview/lv_tileview.c ****     lv_obj_update_layout(tv);
 675              		.loc 1 92 1 view .LVU189
 676 0004 0746     		mov	r7, r0
 677 0006 0D46     		mov	r5, r1
 678 0008 9146     		mov	r9, r2
 679 000a 9A46     		mov	r10, r3
  93:Drivers/lvgl/src/extra/widgets/tileview/lv_tileview.c **** 
ARM GAS  /var/folders/lp/x54gwt890xv47sdkqj1k04q40000gn/T//ccyJ1brm.s 			page 19


 680              		.loc 1 93 5 view .LVU190
 681 000c FFF7FEFF 		bl	lv_obj_update_layout
 682              	.LVL77:
  95:Drivers/lvgl/src/extra/widgets/tileview/lv_tileview.c ****     lv_coord_t h = lv_obj_get_content_height(tv);
 683              		.loc 1 95 5 is_stmt 1 view .LVU191
  95:Drivers/lvgl/src/extra/widgets/tileview/lv_tileview.c ****     lv_coord_t h = lv_obj_get_content_height(tv);
 684              		.loc 1 95 20 is_stmt 0 view .LVU192
 685 0010 3846     		mov	r0, r7
 686 0012 FFF7FEFF 		bl	lv_obj_get_content_width
 687              	.LVL78:
 688 0016 8046     		mov	r8, r0
 689              	.LVL79:
  96:Drivers/lvgl/src/extra/widgets/tileview/lv_tileview.c **** 
 690              		.loc 1 96 5 is_stmt 1 view .LVU193
  96:Drivers/lvgl/src/extra/widgets/tileview/lv_tileview.c **** 
 691              		.loc 1 96 20 is_stmt 0 view .LVU194
 692 0018 3846     		mov	r0, r7
 693 001a FFF7FEFF 		bl	lv_obj_get_content_height
 694              	.LVL80:
  98:Drivers/lvgl/src/extra/widgets/tileview/lv_tileview.c ****     lv_coord_t ty = row_id * h;
 695              		.loc 1 98 5 is_stmt 1 view .LVU195
  98:Drivers/lvgl/src/extra/widgets/tileview/lv_tileview.c ****     lv_coord_t ty = row_id * h;
 696              		.loc 1 98 16 is_stmt 0 view .LVU196
 697 001e 18FB05F8 		smulbb	r8, r8, r5
 698              	.LVL81:
  99:Drivers/lvgl/src/extra/widgets/tileview/lv_tileview.c **** 
 699              		.loc 1 99 16 view .LVU197
 700 0022 10FB09F9 		smulbb	r9, r0, r9
 701              	.LVL82:
  98:Drivers/lvgl/src/extra/widgets/tileview/lv_tileview.c ****     lv_coord_t ty = row_id * h;
 702              		.loc 1 98 16 view .LVU198
 703 0026 0FFA88F8 		sxth	r8, r8
 704              	.LVL83:
  99:Drivers/lvgl/src/extra/widgets/tileview/lv_tileview.c **** 
 705              		.loc 1 99 5 is_stmt 1 view .LVU199
  99:Drivers/lvgl/src/extra/widgets/tileview/lv_tileview.c **** 
 706              		.loc 1 99 16 is_stmt 0 view .LVU200
 707 002a 0FFA89F9 		sxth	r9, r9
 708              	.LVL84:
 101:Drivers/lvgl/src/extra/widgets/tileview/lv_tileview.c ****     for(i = 0; i < lv_obj_get_child_cnt(tv); i++) {
 709              		.loc 1 101 5 is_stmt 1 view .LVU201
 102:Drivers/lvgl/src/extra/widgets/tileview/lv_tileview.c ****         lv_obj_t * tile_obj = lv_obj_get_child(tv, i);
 710              		.loc 1 102 5 view .LVU202
 102:Drivers/lvgl/src/extra/widgets/tileview/lv_tileview.c ****         lv_obj_t * tile_obj = lv_obj_get_child(tv, i);
 711              		.loc 1 102 11 is_stmt 0 view .LVU203
 712 002e 0024     		movs	r4, #0
 102:Drivers/lvgl/src/extra/widgets/tileview/lv_tileview.c ****         lv_obj_t * tile_obj = lv_obj_get_child(tv, i);
 713              		.loc 1 102 5 view .LVU204
 714 0030 00E0     		b	.L36
 715              	.LVL85:
 716              	.L37:
 102:Drivers/lvgl/src/extra/widgets/tileview/lv_tileview.c ****         lv_obj_t * tile_obj = lv_obj_get_child(tv, i);
 717              		.loc 1 102 47 discriminator 2 view .LVU205
 718 0032 0134     		adds	r4, r4, #1
 719              	.LVL86:
 720              	.L36:
 102:Drivers/lvgl/src/extra/widgets/tileview/lv_tileview.c ****         lv_obj_t * tile_obj = lv_obj_get_child(tv, i);
ARM GAS  /var/folders/lp/x54gwt890xv47sdkqj1k04q40000gn/T//ccyJ1brm.s 			page 20


 721              		.loc 1 102 18 is_stmt 1 discriminator 1 view .LVU206
 102:Drivers/lvgl/src/extra/widgets/tileview/lv_tileview.c ****         lv_obj_t * tile_obj = lv_obj_get_child(tv, i);
 722              		.loc 1 102 20 is_stmt 0 discriminator 1 view .LVU207
 723 0034 3846     		mov	r0, r7
 724 0036 FFF7FEFF 		bl	lv_obj_get_child_cnt
 725              	.LVL87:
 726              	.LBB11:
 103:Drivers/lvgl/src/extra/widgets/tileview/lv_tileview.c ****         lv_coord_t x = lv_obj_get_x(tile_obj);
 727              		.loc 1 103 9 is_stmt 1 view .LVU208
 728              	.LBE11:
 102:Drivers/lvgl/src/extra/widgets/tileview/lv_tileview.c ****         lv_obj_t * tile_obj = lv_obj_get_child(tv, i);
 729              		.loc 1 102 20 is_stmt 0 discriminator 1 view .LVU209
 730 003a 0346     		mov	r3, r0
 102:Drivers/lvgl/src/extra/widgets/tileview/lv_tileview.c ****         lv_obj_t * tile_obj = lv_obj_get_child(tv, i);
 731              		.loc 1 102 18 discriminator 1 view .LVU210
 732 003c A342     		cmp	r3, r4
 733              	.LBB16:
 103:Drivers/lvgl/src/extra/widgets/tileview/lv_tileview.c ****         lv_coord_t x = lv_obj_get_x(tile_obj);
 734              		.loc 1 103 31 view .LVU211
 735 003e 2146     		mov	r1, r4
 736 0040 3846     		mov	r0, r7
 737              	.LBE16:
 102:Drivers/lvgl/src/extra/widgets/tileview/lv_tileview.c ****         lv_obj_t * tile_obj = lv_obj_get_child(tv, i);
 738              		.loc 1 102 18 discriminator 1 view .LVU212
 739 0042 22D9     		bls	.L40
 740              	.LVL88:
 741              	.LBB17:
 103:Drivers/lvgl/src/extra/widgets/tileview/lv_tileview.c ****         lv_coord_t x = lv_obj_get_x(tile_obj);
 742              		.loc 1 103 31 view .LVU213
 743 0044 FFF7FEFF 		bl	lv_obj_get_child
 744              	.LVL89:
 103:Drivers/lvgl/src/extra/widgets/tileview/lv_tileview.c ****         lv_coord_t x = lv_obj_get_x(tile_obj);
 745              		.loc 1 103 31 view .LVU214
 746 0048 0546     		mov	r5, r0
 747              	.LVL90:
 104:Drivers/lvgl/src/extra/widgets/tileview/lv_tileview.c ****         lv_coord_t y = lv_obj_get_y(tile_obj);
 748              		.loc 1 104 9 is_stmt 1 view .LVU215
 104:Drivers/lvgl/src/extra/widgets/tileview/lv_tileview.c ****         lv_coord_t y = lv_obj_get_y(tile_obj);
 749              		.loc 1 104 24 is_stmt 0 view .LVU216
 750 004a FFF7FEFF 		bl	lv_obj_get_x
 751              	.LVL91:
 104:Drivers/lvgl/src/extra/widgets/tileview/lv_tileview.c ****         lv_coord_t y = lv_obj_get_y(tile_obj);
 752              		.loc 1 104 24 view .LVU217
 753 004e 0646     		mov	r6, r0
 754              	.LVL92:
 105:Drivers/lvgl/src/extra/widgets/tileview/lv_tileview.c ****         if(x == tx && y == ty) {
 755              		.loc 1 105 9 is_stmt 1 view .LVU218
 105:Drivers/lvgl/src/extra/widgets/tileview/lv_tileview.c ****         if(x == tx && y == ty) {
 756              		.loc 1 105 24 is_stmt 0 view .LVU219
 757 0050 2846     		mov	r0, r5
 758 0052 FFF7FEFF 		bl	lv_obj_get_y
 759              	.LVL93:
 760              	.LBE17:
 102:Drivers/lvgl/src/extra/widgets/tileview/lv_tileview.c ****         lv_obj_t * tile_obj = lv_obj_get_child(tv, i);
 761              		.loc 1 102 47 is_stmt 1 discriminator 2 view .LVU220
 762              	.LBB18:
 106:Drivers/lvgl/src/extra/widgets/tileview/lv_tileview.c ****             lv_obj_set_tile(tv, tile_obj, anim_en);
ARM GAS  /var/folders/lp/x54gwt890xv47sdkqj1k04q40000gn/T//ccyJ1brm.s 			page 21


 763              		.loc 1 106 9 view .LVU221
 106:Drivers/lvgl/src/extra/widgets/tileview/lv_tileview.c ****             lv_obj_set_tile(tv, tile_obj, anim_en);
 764              		.loc 1 106 11 is_stmt 0 view .LVU222
 765 0056 B045     		cmp	r8, r6
 766 0058 EBD1     		bne	.L37
 106:Drivers/lvgl/src/extra/widgets/tileview/lv_tileview.c ****             lv_obj_set_tile(tv, tile_obj, anim_en);
 767              		.loc 1 106 20 discriminator 1 view .LVU223
 768 005a 8145     		cmp	r9, r0
 769 005c E9D1     		bne	.L37
 107:Drivers/lvgl/src/extra/widgets/tileview/lv_tileview.c ****             return;
 770              		.loc 1 107 13 is_stmt 1 view .LVU224
 771              	.LVL94:
 772              	.LBB12:
 773              	.LBI12:
  78:Drivers/lvgl/src/extra/widgets/tileview/lv_tileview.c **** {
 774              		.loc 1 78 6 view .LVU225
 775              	.LBB13:
  80:Drivers/lvgl/src/extra/widgets/tileview/lv_tileview.c ****     lv_coord_t ty = lv_obj_get_y(tile_obj);
 776              		.loc 1 80 5 view .LVU226
  80:Drivers/lvgl/src/extra/widgets/tileview/lv_tileview.c ****     lv_coord_t ty = lv_obj_get_y(tile_obj);
 777              		.loc 1 80 21 is_stmt 0 view .LVU227
 778 005e 2846     		mov	r0, r5
 779              	.LVL95:
  80:Drivers/lvgl/src/extra/widgets/tileview/lv_tileview.c ****     lv_coord_t ty = lv_obj_get_y(tile_obj);
 780              		.loc 1 80 21 view .LVU228
 781 0060 FFF7FEFF 		bl	lv_obj_get_x
 782              	.LVL96:
 783 0064 0446     		mov	r4, r0
 784              	.LVL97:
  81:Drivers/lvgl/src/extra/widgets/tileview/lv_tileview.c **** 
 785              		.loc 1 81 5 is_stmt 1 view .LVU229
  81:Drivers/lvgl/src/extra/widgets/tileview/lv_tileview.c **** 
 786              		.loc 1 81 21 is_stmt 0 view .LVU230
 787 0066 2846     		mov	r0, r5
 788 0068 FFF7FEFF 		bl	lv_obj_get_y
 789              	.LVL98:
  85:Drivers/lvgl/src/extra/widgets/tileview/lv_tileview.c **** 
 790              		.loc 1 85 18 view .LVU231
 791 006c 7D62     		str	r5, [r7, #36]
  87:Drivers/lvgl/src/extra/widgets/tileview/lv_tileview.c ****     lv_obj_scroll_to(obj, tx, ty, anim_en);
 792              		.loc 1 87 5 view .LVU232
 793 006e 95F82410 		ldrb	r1, [r5, #36]	@ zero_extendqisi2
  81:Drivers/lvgl/src/extra/widgets/tileview/lv_tileview.c **** 
 794              		.loc 1 81 21 view .LVU233
 795 0072 0646     		mov	r6, r0
 796              	.LVL99:
  83:Drivers/lvgl/src/extra/widgets/tileview/lv_tileview.c ****     lv_tileview_t * tv = (lv_tileview_t *) obj;
 797              		.loc 1 83 5 is_stmt 1 view .LVU234
  84:Drivers/lvgl/src/extra/widgets/tileview/lv_tileview.c ****     tv->tile_act = (lv_obj_t *)tile;
 798              		.loc 1 84 5 view .LVU235
  85:Drivers/lvgl/src/extra/widgets/tileview/lv_tileview.c **** 
 799              		.loc 1 85 5 view .LVU236
  87:Drivers/lvgl/src/extra/widgets/tileview/lv_tileview.c ****     lv_obj_scroll_to(obj, tx, ty, anim_en);
 800              		.loc 1 87 5 view .LVU237
 801 0074 3846     		mov	r0, r7
 802 0076 FFF7FEFF 		bl	lv_obj_set_scroll_dir
 803              	.LVL100:
ARM GAS  /var/folders/lp/x54gwt890xv47sdkqj1k04q40000gn/T//ccyJ1brm.s 			page 22


  88:Drivers/lvgl/src/extra/widgets/tileview/lv_tileview.c **** }
 804              		.loc 1 88 5 view .LVU238
 805 007a 5346     		mov	r3, r10
 806 007c 3246     		mov	r2, r6
 807 007e 2146     		mov	r1, r4
 808 0080 3846     		mov	r0, r7
 809              	.LBE13:
 810              	.LBE12:
 811              	.LBE18:
 113:Drivers/lvgl/src/extra/widgets/tileview/lv_tileview.c **** 
 812              		.loc 1 113 1 is_stmt 0 view .LVU239
 813 0082 BDE8F047 		pop	{r4, r5, r6, r7, r8, r9, r10, lr}
 814              		.cfi_remember_state
 815              		.cfi_restore 14
 816              		.cfi_restore 10
 817              		.cfi_restore 9
 818              		.cfi_restore 8
 819              		.cfi_restore 7
 820              		.cfi_restore 6
 821              		.cfi_restore 5
 822              		.cfi_restore 4
 823              		.cfi_def_cfa_offset 0
 824              	.LVL101:
 825              	.LBB19:
 826              	.LBB15:
 827              	.LBB14:
  88:Drivers/lvgl/src/extra/widgets/tileview/lv_tileview.c **** }
 828              		.loc 1 88 5 view .LVU240
 829 0086 FFF7FEBF 		b	lv_obj_scroll_to
 830              	.LVL102:
 831              	.L40:
 832              		.cfi_restore_state
  88:Drivers/lvgl/src/extra/widgets/tileview/lv_tileview.c **** }
 833              		.loc 1 88 5 view .LVU241
 834              	.LBE14:
 835              	.LBE15:
 836              	.LBE19:
 113:Drivers/lvgl/src/extra/widgets/tileview/lv_tileview.c **** 
 837              		.loc 1 113 1 view .LVU242
 838 008a BDE8F087 		pop	{r4, r5, r6, r7, r8, r9, r10, pc}
 113:Drivers/lvgl/src/extra/widgets/tileview/lv_tileview.c **** 
 839              		.loc 1 113 1 view .LVU243
 840              		.cfi_endproc
 841              	.LFE164:
 843 008e 00BF     		.section	.text.lv_tileview_get_tile_act,"ax",%progbits
 844              		.align	1
 845              		.p2align 2,,3
 846              		.global	lv_tileview_get_tile_act
 847              		.syntax unified
 848              		.thumb
 849              		.thumb_func
 851              	lv_tileview_get_tile_act:
 852              	.LVL103:
 853              	.LFB165:
 116:Drivers/lvgl/src/extra/widgets/tileview/lv_tileview.c ****     lv_tileview_t * tv = (lv_tileview_t *) obj;
 854              		.loc 1 116 1 is_stmt 1 view -0
 855              		.cfi_startproc
ARM GAS  /var/folders/lp/x54gwt890xv47sdkqj1k04q40000gn/T//ccyJ1brm.s 			page 23


 856              		@ args = 0, pretend = 0, frame = 0
 857              		@ frame_needed = 0, uses_anonymous_args = 0
 858              		@ link register save eliminated.
 117:Drivers/lvgl/src/extra/widgets/tileview/lv_tileview.c ****     return tv->tile_act;
 859              		.loc 1 117 5 view .LVU245
 118:Drivers/lvgl/src/extra/widgets/tileview/lv_tileview.c **** }
 860              		.loc 1 118 5 view .LVU246
 119:Drivers/lvgl/src/extra/widgets/tileview/lv_tileview.c **** 
 861              		.loc 1 119 1 is_stmt 0 view .LVU247
 862 0000 406A     		ldr	r0, [r0, #36]
 863              	.LVL104:
 119:Drivers/lvgl/src/extra/widgets/tileview/lv_tileview.c **** 
 864              		.loc 1 119 1 view .LVU248
 865 0002 7047     		bx	lr
 866              		.cfi_endproc
 867              	.LFE165:
 869              		.section	.bss.create_row_id,"aw",%nobits
 870              		.align	2
 873              	create_row_id:
 874 0000 00000000 		.space	4
 875              		.section	.bss.create_col_id,"aw",%nobits
 876              		.align	2
 879              	create_col_id:
 880 0000 00000000 		.space	4
 881              		.section	.bss.create_dir,"aw",%nobits
 884              	create_dir:
 885 0000 00       		.space	1
 886              		.global	lv_tileview_tile_class
 887              		.section	.rodata.lv_tileview_tile_class,"a"
 888              		.align	2
 891              	lv_tileview_tile_class:
 892 0000 00000000 		.word	lv_obj_class
 893 0004 00000000 		.word	lv_tileview_tile_constructor
 894 0008 00000000 		.space	16
 894      00000000 
 894      00000000 
 894      00000000 
 895 0018 80       		.byte	128
 896 0019 02       		.byte	2
 897 001a 00       		.byte	0
 898 001b 00       		.space	1
 899              		.global	lv_tileview_class
 900              		.section	.rodata.lv_tileview_class,"a"
 901              		.align	2
 904              	lv_tileview_class:
 905 0000 00000000 		.word	lv_obj_class
 906 0004 00000000 		.word	lv_tileview_constructor
 907 0008 00000000 		.space	16
 907      00000000 
 907      00000000 
 907      00000000 
 908 0018 80       		.byte	128
 909 0019 02       		.byte	2
 910 001a 00       		.byte	0
 911 001b 00       		.space	1
 912              		.text
 913              	.Letext0:
ARM GAS  /var/folders/lp/x54gwt890xv47sdkqj1k04q40000gn/T//ccyJ1brm.s 			page 24


 914              		.file 2 "/Users/jr/Library/Application Support/Code/User/globalStorage/bmd.stm32-for-vscode/@xpack
 915              		.file 3 "/Users/jr/Library/Application Support/Code/User/globalStorage/bmd.stm32-for-vscode/@xpack
 916              		.file 4 "/Users/jr/Library/Application Support/Code/User/globalStorage/bmd.stm32-for-vscode/@xpack
 917              		.file 5 "Drivers/lvgl/src/extra/widgets/tileview/../../../core/../misc/../font/../misc/lv_area.h"
 918              		.file 6 "Drivers/lvgl/src/extra/widgets/tileview/../../../core/../misc/../font/lv_font.h"
 919              		.file 7 "Drivers/lvgl/src/extra/widgets/tileview/../../../core/../misc/lv_types.h"
 920              		.file 8 "Drivers/lvgl/src/extra/widgets/tileview/../../../core/../misc/lv_color.h"
 921              		.file 9 "Drivers/lvgl/src/extra/widgets/tileview/../../../core/../misc/lv_anim.h"
 922              		.file 10 "Drivers/lvgl/src/extra/widgets/tileview/../../../core/../misc/lv_txt.h"
 923              		.file 11 "Drivers/lvgl/src/extra/widgets/tileview/../../../core/../misc/lv_bidi.h"
 924              		.file 12 "Drivers/lvgl/src/extra/widgets/tileview/../../../core/../misc/lv_style.h"
 925              		.file 13 "Drivers/lvgl/src/extra/widgets/tileview/../../../core/../hal/../draw/lv_img_buf.h"
 926              		.file 14 "Drivers/lvgl/src/extra/widgets/tileview/../../../core/lv_obj.h"
 927              		.file 15 "Drivers/lvgl/src/extra/widgets/tileview/../../../core/../hal/../draw/lv_draw_rect.h"
 928              		.file 16 "Drivers/lvgl/src/extra/widgets/tileview/../../../core/../hal/../draw/lv_draw_label.h"
 929              		.file 17 "Drivers/lvgl/src/extra/widgets/tileview/../../../core/../hal/../draw/lv_draw_img.h"
 930              		.file 18 "Drivers/lvgl/src/extra/widgets/tileview/../../../core/../hal/../draw/lv_draw_line.h"
 931              		.file 19 "Drivers/lvgl/src/extra/widgets/tileview/../../../core/../hal/../draw/lv_draw_arc.h"
 932              		.file 20 "Drivers/lvgl/src/extra/widgets/tileview/../../../core/../hal/../draw/lv_draw_layer.h"
 933              		.file 21 "Drivers/lvgl/src/extra/widgets/tileview/../../../core/../hal/../draw/lv_draw.h"
 934              		.file 22 "Drivers/lvgl/src/extra/widgets/tileview/../../../core/../hal/../misc/lv_ll.h"
 935              		.file 23 "Drivers/lvgl/src/extra/widgets/tileview/../../../core/../hal/../misc/lv_timer.h"
 936              		.file 24 "Drivers/lvgl/src/extra/widgets/tileview/../../../core/../hal/lv_hal_disp.h"
 937              		.file 25 "Drivers/lvgl/src/extra/widgets/tileview/../../../core/../hal/lv_hal_indev.h"
 938              		.file 26 "Drivers/lvgl/src/extra/widgets/tileview/../../../core/lv_group.h"
 939              		.file 27 "Drivers/lvgl/src/extra/widgets/tileview/../../../core/lv_obj_scroll.h"
 940              		.file 28 "Drivers/lvgl/src/extra/widgets/tileview/../../../core/lv_obj_style.h"
 941              		.file 29 "Drivers/lvgl/src/extra/widgets/tileview/../../../core/lv_obj_class.h"
 942              		.file 30 "Drivers/lvgl/src/extra/widgets/tileview/../../../core/lv_event.h"
 943              		.file 31 "Drivers/lvgl/src/extra/widgets/tileview/lv_tileview.h"
 944              		.file 32 "Drivers/lvgl/src/extra/widgets/tileview/../../../core/../hal/../draw/sw/../../core/lv_ob
 945              		.file 33 "Drivers/lvgl/src/extra/widgets/tileview/../../../core/lv_obj_tree.h"
 946              		.file 34 "Drivers/lvgl/src/extra/widgets/tileview/../../../core/lv_indev.h"
ARM GAS  /var/folders/lp/x54gwt890xv47sdkqj1k04q40000gn/T//ccyJ1brm.s 			page 25

