ARM GAS  /var/folders/0z/tsy30v1j4xl4_7kw94k978ww0000gn/T//ccM2UjO5.s 			page 1


   1              		.cpu cortex-m4
   2              		.arch armv7e-m
   3              		.fpu fpv4-sp-d16
   4              		.eabi_attribute 27, 1
   5              		.eabi_attribute 28, 1
   6              		.eabi_attribute 20, 1
   7              		.eabi_attribute 21, 1
   8              		.eabi_attribute 23, 3
   9              		.eabi_attribute 24, 1
  10              		.eabi_attribute 25, 1
  11              		.eabi_attribute 26, 1
  12              		.eabi_attribute 30, 2
  13              		.eabi_attribute 34, 1
  14              		.eabi_attribute 18, 4
  15              		.file	"lv_theme_mono.c"
  16              		.text
  17              	.Ltext0:
  18              		.cfi_sections	.debug_frame
  19              		.section	.text.theme_apply,"ax",%progbits
  20              		.align	1
  21              		.p2align 2,,3
  22              		.syntax unified
  23              		.thumb
  24              		.thumb_func
  26              	theme_apply:
  27              	.LVL0:
  28              	.LFB207:
  29              		.file 1 "Drivers/lvgl/src/extra/themes/mono/lv_theme_mono.c"
   1:Drivers/lvgl/src/extra/themes/mono/lv_theme_mono.c **** /**
   2:Drivers/lvgl/src/extra/themes/mono/lv_theme_mono.c ****  * @file lv_theme_mono.c
   3:Drivers/lvgl/src/extra/themes/mono/lv_theme_mono.c ****  *
   4:Drivers/lvgl/src/extra/themes/mono/lv_theme_mono.c ****  */
   5:Drivers/lvgl/src/extra/themes/mono/lv_theme_mono.c **** 
   6:Drivers/lvgl/src/extra/themes/mono/lv_theme_mono.c **** /*********************
   7:Drivers/lvgl/src/extra/themes/mono/lv_theme_mono.c ****  *      INCLUDES
   8:Drivers/lvgl/src/extra/themes/mono/lv_theme_mono.c ****  *********************/
   9:Drivers/lvgl/src/extra/themes/mono/lv_theme_mono.c **** #include "../../../lvgl.h"
  10:Drivers/lvgl/src/extra/themes/mono/lv_theme_mono.c **** 
  11:Drivers/lvgl/src/extra/themes/mono/lv_theme_mono.c **** #if LV_USE_THEME_MONO
  12:Drivers/lvgl/src/extra/themes/mono/lv_theme_mono.c **** 
  13:Drivers/lvgl/src/extra/themes/mono/lv_theme_mono.c **** #include "lv_theme_mono.h"
  14:Drivers/lvgl/src/extra/themes/mono/lv_theme_mono.c **** #include "../../../misc/lv_gc.h"
  15:Drivers/lvgl/src/extra/themes/mono/lv_theme_mono.c **** 
  16:Drivers/lvgl/src/extra/themes/mono/lv_theme_mono.c **** /*********************
  17:Drivers/lvgl/src/extra/themes/mono/lv_theme_mono.c ****  *      DEFINES
  18:Drivers/lvgl/src/extra/themes/mono/lv_theme_mono.c ****  *********************/
  19:Drivers/lvgl/src/extra/themes/mono/lv_theme_mono.c **** 
  20:Drivers/lvgl/src/extra/themes/mono/lv_theme_mono.c **** #define COLOR_FG      dark_bg ? lv_color_white() : lv_color_black()
  21:Drivers/lvgl/src/extra/themes/mono/lv_theme_mono.c **** #define COLOR_BG      dark_bg ? lv_color_black() : lv_color_white()
  22:Drivers/lvgl/src/extra/themes/mono/lv_theme_mono.c **** 
  23:Drivers/lvgl/src/extra/themes/mono/lv_theme_mono.c **** #define BORDER_W_NORMAL  1
  24:Drivers/lvgl/src/extra/themes/mono/lv_theme_mono.c **** #define BORDER_W_PR      3
  25:Drivers/lvgl/src/extra/themes/mono/lv_theme_mono.c **** #define BORDER_W_DIS     0
  26:Drivers/lvgl/src/extra/themes/mono/lv_theme_mono.c **** #define BORDER_W_FOCUS   1
  27:Drivers/lvgl/src/extra/themes/mono/lv_theme_mono.c **** #define BORDER_W_EDIT    2
  28:Drivers/lvgl/src/extra/themes/mono/lv_theme_mono.c **** #define PAD_DEF          4
  29:Drivers/lvgl/src/extra/themes/mono/lv_theme_mono.c **** 
ARM GAS  /var/folders/0z/tsy30v1j4xl4_7kw94k978ww0000gn/T//ccM2UjO5.s 			page 2


  30:Drivers/lvgl/src/extra/themes/mono/lv_theme_mono.c **** /**********************
  31:Drivers/lvgl/src/extra/themes/mono/lv_theme_mono.c ****  *      TYPEDEFS
  32:Drivers/lvgl/src/extra/themes/mono/lv_theme_mono.c ****  **********************/
  33:Drivers/lvgl/src/extra/themes/mono/lv_theme_mono.c **** typedef struct {
  34:Drivers/lvgl/src/extra/themes/mono/lv_theme_mono.c ****     lv_style_t scr;
  35:Drivers/lvgl/src/extra/themes/mono/lv_theme_mono.c ****     lv_style_t card;
  36:Drivers/lvgl/src/extra/themes/mono/lv_theme_mono.c ****     lv_style_t scrollbar;
  37:Drivers/lvgl/src/extra/themes/mono/lv_theme_mono.c ****     lv_style_t btn;
  38:Drivers/lvgl/src/extra/themes/mono/lv_theme_mono.c ****     lv_style_t pr;
  39:Drivers/lvgl/src/extra/themes/mono/lv_theme_mono.c ****     lv_style_t inv;
  40:Drivers/lvgl/src/extra/themes/mono/lv_theme_mono.c ****     lv_style_t disabled;
  41:Drivers/lvgl/src/extra/themes/mono/lv_theme_mono.c ****     lv_style_t focus;
  42:Drivers/lvgl/src/extra/themes/mono/lv_theme_mono.c ****     lv_style_t edit;
  43:Drivers/lvgl/src/extra/themes/mono/lv_theme_mono.c ****     lv_style_t pad_gap;
  44:Drivers/lvgl/src/extra/themes/mono/lv_theme_mono.c ****     lv_style_t pad_zero;
  45:Drivers/lvgl/src/extra/themes/mono/lv_theme_mono.c ****     lv_style_t no_radius;
  46:Drivers/lvgl/src/extra/themes/mono/lv_theme_mono.c ****     lv_style_t radius_circle;
  47:Drivers/lvgl/src/extra/themes/mono/lv_theme_mono.c ****     lv_style_t large_border;
  48:Drivers/lvgl/src/extra/themes/mono/lv_theme_mono.c ****     lv_style_t large_line_space;
  49:Drivers/lvgl/src/extra/themes/mono/lv_theme_mono.c ****     lv_style_t underline;
  50:Drivers/lvgl/src/extra/themes/mono/lv_theme_mono.c **** #if LV_USE_TEXTAREA
  51:Drivers/lvgl/src/extra/themes/mono/lv_theme_mono.c ****     lv_style_t ta_cursor;
  52:Drivers/lvgl/src/extra/themes/mono/lv_theme_mono.c **** #endif
  53:Drivers/lvgl/src/extra/themes/mono/lv_theme_mono.c **** } my_theme_styles_t;
  54:Drivers/lvgl/src/extra/themes/mono/lv_theme_mono.c **** 
  55:Drivers/lvgl/src/extra/themes/mono/lv_theme_mono.c **** 
  56:Drivers/lvgl/src/extra/themes/mono/lv_theme_mono.c **** /**********************
  57:Drivers/lvgl/src/extra/themes/mono/lv_theme_mono.c ****  *  STATIC PROTOTYPES
  58:Drivers/lvgl/src/extra/themes/mono/lv_theme_mono.c ****  **********************/
  59:Drivers/lvgl/src/extra/themes/mono/lv_theme_mono.c **** static void style_init_reset(lv_style_t * style);
  60:Drivers/lvgl/src/extra/themes/mono/lv_theme_mono.c **** static void theme_apply(lv_theme_t * th, lv_obj_t * obj);
  61:Drivers/lvgl/src/extra/themes/mono/lv_theme_mono.c **** 
  62:Drivers/lvgl/src/extra/themes/mono/lv_theme_mono.c **** /**********************
  63:Drivers/lvgl/src/extra/themes/mono/lv_theme_mono.c ****  *  STATIC VARIABLES
  64:Drivers/lvgl/src/extra/themes/mono/lv_theme_mono.c ****  **********************/
  65:Drivers/lvgl/src/extra/themes/mono/lv_theme_mono.c **** static my_theme_styles_t * styles;
  66:Drivers/lvgl/src/extra/themes/mono/lv_theme_mono.c **** static lv_theme_t theme;
  67:Drivers/lvgl/src/extra/themes/mono/lv_theme_mono.c **** static bool inited;
  68:Drivers/lvgl/src/extra/themes/mono/lv_theme_mono.c **** 
  69:Drivers/lvgl/src/extra/themes/mono/lv_theme_mono.c **** /**********************
  70:Drivers/lvgl/src/extra/themes/mono/lv_theme_mono.c ****  *      MACROS
  71:Drivers/lvgl/src/extra/themes/mono/lv_theme_mono.c ****  **********************/
  72:Drivers/lvgl/src/extra/themes/mono/lv_theme_mono.c **** 
  73:Drivers/lvgl/src/extra/themes/mono/lv_theme_mono.c **** /**********************
  74:Drivers/lvgl/src/extra/themes/mono/lv_theme_mono.c ****  *   STATIC FUNCTIONS
  75:Drivers/lvgl/src/extra/themes/mono/lv_theme_mono.c ****  **********************/
  76:Drivers/lvgl/src/extra/themes/mono/lv_theme_mono.c **** 
  77:Drivers/lvgl/src/extra/themes/mono/lv_theme_mono.c **** static void style_init(bool dark_bg, const lv_font_t * font)
  78:Drivers/lvgl/src/extra/themes/mono/lv_theme_mono.c **** {
  79:Drivers/lvgl/src/extra/themes/mono/lv_theme_mono.c ****     style_init_reset(&styles->scrollbar);
  80:Drivers/lvgl/src/extra/themes/mono/lv_theme_mono.c ****     lv_style_set_bg_opa(&styles->scrollbar, LV_OPA_COVER);
  81:Drivers/lvgl/src/extra/themes/mono/lv_theme_mono.c ****     lv_style_set_bg_color(&styles->scrollbar, COLOR_FG);
  82:Drivers/lvgl/src/extra/themes/mono/lv_theme_mono.c ****     lv_style_set_width(&styles->scrollbar,  PAD_DEF);
  83:Drivers/lvgl/src/extra/themes/mono/lv_theme_mono.c **** 
  84:Drivers/lvgl/src/extra/themes/mono/lv_theme_mono.c ****     style_init_reset(&styles->scr);
  85:Drivers/lvgl/src/extra/themes/mono/lv_theme_mono.c ****     lv_style_set_bg_opa(&styles->scr, LV_OPA_COVER);
  86:Drivers/lvgl/src/extra/themes/mono/lv_theme_mono.c ****     lv_style_set_bg_color(&styles->scr, COLOR_BG);
ARM GAS  /var/folders/0z/tsy30v1j4xl4_7kw94k978ww0000gn/T//ccM2UjO5.s 			page 3


  87:Drivers/lvgl/src/extra/themes/mono/lv_theme_mono.c ****     lv_style_set_text_color(&styles->scr, COLOR_FG);
  88:Drivers/lvgl/src/extra/themes/mono/lv_theme_mono.c ****     lv_style_set_pad_row(&styles->scr, PAD_DEF);
  89:Drivers/lvgl/src/extra/themes/mono/lv_theme_mono.c ****     lv_style_set_pad_column(&styles->scr, PAD_DEF);
  90:Drivers/lvgl/src/extra/themes/mono/lv_theme_mono.c ****     lv_style_set_text_font(&styles->scr, font);
  91:Drivers/lvgl/src/extra/themes/mono/lv_theme_mono.c **** 
  92:Drivers/lvgl/src/extra/themes/mono/lv_theme_mono.c ****     style_init_reset(&styles->card);
  93:Drivers/lvgl/src/extra/themes/mono/lv_theme_mono.c ****     lv_style_set_bg_opa(&styles->card, LV_OPA_COVER);
  94:Drivers/lvgl/src/extra/themes/mono/lv_theme_mono.c ****     lv_style_set_bg_color(&styles->card, COLOR_BG);
  95:Drivers/lvgl/src/extra/themes/mono/lv_theme_mono.c ****     lv_style_set_border_color(&styles->card, COLOR_FG);
  96:Drivers/lvgl/src/extra/themes/mono/lv_theme_mono.c ****     lv_style_set_radius(&styles->card, 2);
  97:Drivers/lvgl/src/extra/themes/mono/lv_theme_mono.c ****     lv_style_set_border_width(&styles->card, BORDER_W_NORMAL);
  98:Drivers/lvgl/src/extra/themes/mono/lv_theme_mono.c ****     lv_style_set_pad_all(&styles->card, PAD_DEF);
  99:Drivers/lvgl/src/extra/themes/mono/lv_theme_mono.c ****     lv_style_set_pad_gap(&styles->card, PAD_DEF);
 100:Drivers/lvgl/src/extra/themes/mono/lv_theme_mono.c ****     lv_style_set_text_color(&styles->card, COLOR_FG);
 101:Drivers/lvgl/src/extra/themes/mono/lv_theme_mono.c ****     lv_style_set_line_width(&styles->card, 2);
 102:Drivers/lvgl/src/extra/themes/mono/lv_theme_mono.c ****     lv_style_set_line_color(&styles->card, COLOR_FG);
 103:Drivers/lvgl/src/extra/themes/mono/lv_theme_mono.c ****     lv_style_set_arc_width(&styles->card, 2);
 104:Drivers/lvgl/src/extra/themes/mono/lv_theme_mono.c ****     lv_style_set_arc_color(&styles->card, COLOR_FG);
 105:Drivers/lvgl/src/extra/themes/mono/lv_theme_mono.c ****     lv_style_set_outline_color(&styles->card, COLOR_FG);
 106:Drivers/lvgl/src/extra/themes/mono/lv_theme_mono.c ****     lv_style_set_anim_time(&styles->card, 300);
 107:Drivers/lvgl/src/extra/themes/mono/lv_theme_mono.c **** 
 108:Drivers/lvgl/src/extra/themes/mono/lv_theme_mono.c ****     style_init_reset(&styles->pr);
 109:Drivers/lvgl/src/extra/themes/mono/lv_theme_mono.c ****     lv_style_set_border_width(&styles->pr, BORDER_W_PR);
 110:Drivers/lvgl/src/extra/themes/mono/lv_theme_mono.c **** 
 111:Drivers/lvgl/src/extra/themes/mono/lv_theme_mono.c ****     style_init_reset(&styles->inv);
 112:Drivers/lvgl/src/extra/themes/mono/lv_theme_mono.c ****     lv_style_set_bg_opa(&styles->inv, LV_OPA_COVER);
 113:Drivers/lvgl/src/extra/themes/mono/lv_theme_mono.c ****     lv_style_set_bg_color(&styles->inv, COLOR_FG);
 114:Drivers/lvgl/src/extra/themes/mono/lv_theme_mono.c ****     lv_style_set_border_color(&styles->inv, COLOR_BG);
 115:Drivers/lvgl/src/extra/themes/mono/lv_theme_mono.c ****     lv_style_set_line_color(&styles->inv, COLOR_BG);
 116:Drivers/lvgl/src/extra/themes/mono/lv_theme_mono.c ****     lv_style_set_arc_color(&styles->inv, COLOR_BG);
 117:Drivers/lvgl/src/extra/themes/mono/lv_theme_mono.c ****     lv_style_set_text_color(&styles->inv, COLOR_BG);
 118:Drivers/lvgl/src/extra/themes/mono/lv_theme_mono.c ****     lv_style_set_outline_color(&styles->inv, COLOR_BG);
 119:Drivers/lvgl/src/extra/themes/mono/lv_theme_mono.c **** 
 120:Drivers/lvgl/src/extra/themes/mono/lv_theme_mono.c ****     style_init_reset(&styles->disabled);
 121:Drivers/lvgl/src/extra/themes/mono/lv_theme_mono.c ****     lv_style_set_border_width(&styles->disabled, BORDER_W_DIS);
 122:Drivers/lvgl/src/extra/themes/mono/lv_theme_mono.c **** 
 123:Drivers/lvgl/src/extra/themes/mono/lv_theme_mono.c ****     style_init_reset(&styles->focus);
 124:Drivers/lvgl/src/extra/themes/mono/lv_theme_mono.c ****     lv_style_set_outline_width(&styles->focus, 1);
 125:Drivers/lvgl/src/extra/themes/mono/lv_theme_mono.c ****     lv_style_set_outline_pad(&styles->focus, BORDER_W_FOCUS);
 126:Drivers/lvgl/src/extra/themes/mono/lv_theme_mono.c **** 
 127:Drivers/lvgl/src/extra/themes/mono/lv_theme_mono.c ****     style_init_reset(&styles->edit);
 128:Drivers/lvgl/src/extra/themes/mono/lv_theme_mono.c ****     lv_style_set_outline_width(&styles->edit, BORDER_W_EDIT);
 129:Drivers/lvgl/src/extra/themes/mono/lv_theme_mono.c **** 
 130:Drivers/lvgl/src/extra/themes/mono/lv_theme_mono.c ****     style_init_reset(&styles->large_border);
 131:Drivers/lvgl/src/extra/themes/mono/lv_theme_mono.c ****     lv_style_set_border_width(&styles->large_border, BORDER_W_EDIT);
 132:Drivers/lvgl/src/extra/themes/mono/lv_theme_mono.c **** 
 133:Drivers/lvgl/src/extra/themes/mono/lv_theme_mono.c ****     style_init_reset(&styles->pad_gap);
 134:Drivers/lvgl/src/extra/themes/mono/lv_theme_mono.c ****     lv_style_set_pad_gap(&styles->pad_gap, PAD_DEF);
 135:Drivers/lvgl/src/extra/themes/mono/lv_theme_mono.c **** 
 136:Drivers/lvgl/src/extra/themes/mono/lv_theme_mono.c ****     style_init_reset(&styles->pad_zero);
 137:Drivers/lvgl/src/extra/themes/mono/lv_theme_mono.c ****     lv_style_set_pad_all(&styles->pad_zero, 0);
 138:Drivers/lvgl/src/extra/themes/mono/lv_theme_mono.c ****     lv_style_set_pad_gap(&styles->pad_zero, 0);
 139:Drivers/lvgl/src/extra/themes/mono/lv_theme_mono.c **** 
 140:Drivers/lvgl/src/extra/themes/mono/lv_theme_mono.c ****     style_init_reset(&styles->no_radius);
 141:Drivers/lvgl/src/extra/themes/mono/lv_theme_mono.c ****     lv_style_set_radius(&styles->no_radius, 0);
 142:Drivers/lvgl/src/extra/themes/mono/lv_theme_mono.c **** 
 143:Drivers/lvgl/src/extra/themes/mono/lv_theme_mono.c ****     style_init_reset(&styles->radius_circle);
ARM GAS  /var/folders/0z/tsy30v1j4xl4_7kw94k978ww0000gn/T//ccM2UjO5.s 			page 4


 144:Drivers/lvgl/src/extra/themes/mono/lv_theme_mono.c ****     lv_style_set_radius(&styles->radius_circle, LV_RADIUS_CIRCLE);
 145:Drivers/lvgl/src/extra/themes/mono/lv_theme_mono.c **** 
 146:Drivers/lvgl/src/extra/themes/mono/lv_theme_mono.c ****     style_init_reset(&styles->large_line_space);
 147:Drivers/lvgl/src/extra/themes/mono/lv_theme_mono.c ****     lv_style_set_text_line_space(&styles->large_line_space, 6);
 148:Drivers/lvgl/src/extra/themes/mono/lv_theme_mono.c **** 
 149:Drivers/lvgl/src/extra/themes/mono/lv_theme_mono.c ****     style_init_reset(&styles->underline);
 150:Drivers/lvgl/src/extra/themes/mono/lv_theme_mono.c ****     lv_style_set_text_decor(&styles->underline, LV_TEXT_DECOR_UNDERLINE);
 151:Drivers/lvgl/src/extra/themes/mono/lv_theme_mono.c **** 
 152:Drivers/lvgl/src/extra/themes/mono/lv_theme_mono.c **** #if LV_USE_TEXTAREA
 153:Drivers/lvgl/src/extra/themes/mono/lv_theme_mono.c ****     style_init_reset(&styles->ta_cursor);
 154:Drivers/lvgl/src/extra/themes/mono/lv_theme_mono.c ****     lv_style_set_border_side(&styles->ta_cursor, LV_BORDER_SIDE_LEFT);
 155:Drivers/lvgl/src/extra/themes/mono/lv_theme_mono.c ****     lv_style_set_border_color(&styles->ta_cursor, COLOR_FG);
 156:Drivers/lvgl/src/extra/themes/mono/lv_theme_mono.c ****     lv_style_set_border_width(&styles->ta_cursor, 2);
 157:Drivers/lvgl/src/extra/themes/mono/lv_theme_mono.c ****     lv_style_set_bg_opa(&styles->ta_cursor, LV_OPA_TRANSP);
 158:Drivers/lvgl/src/extra/themes/mono/lv_theme_mono.c ****     lv_style_set_anim_time(&styles->ta_cursor, 500);
 159:Drivers/lvgl/src/extra/themes/mono/lv_theme_mono.c **** #endif
 160:Drivers/lvgl/src/extra/themes/mono/lv_theme_mono.c **** }
 161:Drivers/lvgl/src/extra/themes/mono/lv_theme_mono.c **** 
 162:Drivers/lvgl/src/extra/themes/mono/lv_theme_mono.c **** 
 163:Drivers/lvgl/src/extra/themes/mono/lv_theme_mono.c **** /**********************
 164:Drivers/lvgl/src/extra/themes/mono/lv_theme_mono.c ****  *   GLOBAL FUNCTIONS
 165:Drivers/lvgl/src/extra/themes/mono/lv_theme_mono.c ****  **********************/
 166:Drivers/lvgl/src/extra/themes/mono/lv_theme_mono.c **** 
 167:Drivers/lvgl/src/extra/themes/mono/lv_theme_mono.c **** bool lv_theme_mono_is_inited(void)
 168:Drivers/lvgl/src/extra/themes/mono/lv_theme_mono.c **** {
 169:Drivers/lvgl/src/extra/themes/mono/lv_theme_mono.c ****     return  LV_GC_ROOT(_lv_theme_default_styles) == NULL ? false : true;
 170:Drivers/lvgl/src/extra/themes/mono/lv_theme_mono.c **** }
 171:Drivers/lvgl/src/extra/themes/mono/lv_theme_mono.c **** 
 172:Drivers/lvgl/src/extra/themes/mono/lv_theme_mono.c **** lv_theme_t * lv_theme_mono_init(lv_disp_t * disp, bool dark_bg, const lv_font_t * font)
 173:Drivers/lvgl/src/extra/themes/mono/lv_theme_mono.c **** {
 174:Drivers/lvgl/src/extra/themes/mono/lv_theme_mono.c **** 
 175:Drivers/lvgl/src/extra/themes/mono/lv_theme_mono.c ****     /*This trick is required only to avoid the garbage collection of
 176:Drivers/lvgl/src/extra/themes/mono/lv_theme_mono.c ****      *styles' data if LVGL is used in a binding (e.g. Micropython)
 177:Drivers/lvgl/src/extra/themes/mono/lv_theme_mono.c ****      *In a general case styles could be in simple `static lv_style_t my_style...` variables*/
 178:Drivers/lvgl/src/extra/themes/mono/lv_theme_mono.c ****     if(!inited) {
 179:Drivers/lvgl/src/extra/themes/mono/lv_theme_mono.c ****         inited = false;
 180:Drivers/lvgl/src/extra/themes/mono/lv_theme_mono.c ****         LV_GC_ROOT(_lv_theme_default_styles) = lv_mem_alloc(sizeof(my_theme_styles_t));
 181:Drivers/lvgl/src/extra/themes/mono/lv_theme_mono.c ****         styles = (my_theme_styles_t *)LV_GC_ROOT(_lv_theme_default_styles);
 182:Drivers/lvgl/src/extra/themes/mono/lv_theme_mono.c ****     }
 183:Drivers/lvgl/src/extra/themes/mono/lv_theme_mono.c **** 
 184:Drivers/lvgl/src/extra/themes/mono/lv_theme_mono.c ****     theme.disp = disp;
 185:Drivers/lvgl/src/extra/themes/mono/lv_theme_mono.c ****     theme.font_small = LV_FONT_DEFAULT;
 186:Drivers/lvgl/src/extra/themes/mono/lv_theme_mono.c ****     theme.font_normal = LV_FONT_DEFAULT;
 187:Drivers/lvgl/src/extra/themes/mono/lv_theme_mono.c ****     theme.font_large = LV_FONT_DEFAULT;
 188:Drivers/lvgl/src/extra/themes/mono/lv_theme_mono.c ****     theme.apply_cb = theme_apply;
 189:Drivers/lvgl/src/extra/themes/mono/lv_theme_mono.c **** 
 190:Drivers/lvgl/src/extra/themes/mono/lv_theme_mono.c ****     style_init(dark_bg, font);
 191:Drivers/lvgl/src/extra/themes/mono/lv_theme_mono.c **** 
 192:Drivers/lvgl/src/extra/themes/mono/lv_theme_mono.c ****     if(disp == NULL || lv_disp_get_theme(disp) == &theme) lv_obj_report_style_change(NULL);
 193:Drivers/lvgl/src/extra/themes/mono/lv_theme_mono.c **** 
 194:Drivers/lvgl/src/extra/themes/mono/lv_theme_mono.c ****     inited = true;
 195:Drivers/lvgl/src/extra/themes/mono/lv_theme_mono.c **** 
 196:Drivers/lvgl/src/extra/themes/mono/lv_theme_mono.c ****     return (lv_theme_t *)&theme;
 197:Drivers/lvgl/src/extra/themes/mono/lv_theme_mono.c **** }
 198:Drivers/lvgl/src/extra/themes/mono/lv_theme_mono.c **** 
 199:Drivers/lvgl/src/extra/themes/mono/lv_theme_mono.c **** 
 200:Drivers/lvgl/src/extra/themes/mono/lv_theme_mono.c **** static void theme_apply(lv_theme_t * th, lv_obj_t * obj)
ARM GAS  /var/folders/0z/tsy30v1j4xl4_7kw94k978ww0000gn/T//ccM2UjO5.s 			page 5


 201:Drivers/lvgl/src/extra/themes/mono/lv_theme_mono.c **** {
  30              		.loc 1 201 1 view -0
  31              		.cfi_startproc
  32              		@ args = 0, pretend = 0, frame = 8
  33              		@ frame_needed = 0, uses_anonymous_args = 0
 202:Drivers/lvgl/src/extra/themes/mono/lv_theme_mono.c ****     LV_UNUSED(th);
  34              		.loc 1 202 5 view .LVU1
 203:Drivers/lvgl/src/extra/themes/mono/lv_theme_mono.c **** 
 204:Drivers/lvgl/src/extra/themes/mono/lv_theme_mono.c ****     if(lv_obj_get_parent(obj) == NULL) {
  35              		.loc 1 204 5 view .LVU2
 201:Drivers/lvgl/src/extra/themes/mono/lv_theme_mono.c ****     LV_UNUSED(th);
  36              		.loc 1 201 1 is_stmt 0 view .LVU3
  37 0000 F0B5     		push	{r4, r5, r6, r7, lr}
  38              		.cfi_def_cfa_offset 20
  39              		.cfi_offset 4, -20
  40              		.cfi_offset 5, -16
  41              		.cfi_offset 6, -12
  42              		.cfi_offset 7, -8
  43              		.cfi_offset 14, -4
  44              		.loc 1 204 8 view .LVU4
  45 0002 0846     		mov	r0, r1
  46              	.LVL1:
 201:Drivers/lvgl/src/extra/themes/mono/lv_theme_mono.c ****     LV_UNUSED(th);
  47              		.loc 1 201 1 view .LVU5
  48 0004 83B0     		sub	sp, sp, #12
  49              		.cfi_def_cfa_offset 32
 201:Drivers/lvgl/src/extra/themes/mono/lv_theme_mono.c ****     LV_UNUSED(th);
  50              		.loc 1 201 1 view .LVU6
  51 0006 0C46     		mov	r4, r1
  52              		.loc 1 204 8 view .LVU7
  53 0008 FFF7FEFF 		bl	lv_obj_get_parent
  54              	.LVL2:
  55              		.loc 1 204 7 view .LVU8
  56 000c 0028     		cmp	r0, #0
  57 000e 00F0F280 		beq	.L58
 205:Drivers/lvgl/src/extra/themes/mono/lv_theme_mono.c ****         lv_obj_add_style(obj, &styles->scr, 0);
 206:Drivers/lvgl/src/extra/themes/mono/lv_theme_mono.c ****         lv_obj_add_style(obj, &styles->scrollbar, LV_PART_SCROLLBAR);
 207:Drivers/lvgl/src/extra/themes/mono/lv_theme_mono.c ****         return;
 208:Drivers/lvgl/src/extra/themes/mono/lv_theme_mono.c ****     }
 209:Drivers/lvgl/src/extra/themes/mono/lv_theme_mono.c **** 
 210:Drivers/lvgl/src/extra/themes/mono/lv_theme_mono.c ****     if(lv_obj_check_type(obj, &lv_obj_class)) {
  58              		.loc 1 210 5 is_stmt 1 view .LVU9
  59              		.loc 1 210 8 is_stmt 0 view .LVU10
  60 0012 C449     		ldr	r1, .L66
  61 0014 2046     		mov	r0, r4
  62 0016 FFF7FEFF 		bl	lv_obj_check_type
  63              	.LVL3:
  64              		.loc 1 210 7 view .LVU11
  65 001a 0546     		mov	r5, r0
  66 001c 70BB     		cbnz	r0, .L59
 211:Drivers/lvgl/src/extra/themes/mono/lv_theme_mono.c **** #if LV_USE_TABVIEW
 212:Drivers/lvgl/src/extra/themes/mono/lv_theme_mono.c ****         lv_obj_t * parent = lv_obj_get_parent(obj);
 213:Drivers/lvgl/src/extra/themes/mono/lv_theme_mono.c ****         /*Tabview content area*/
 214:Drivers/lvgl/src/extra/themes/mono/lv_theme_mono.c ****         if(lv_obj_check_type(parent, &lv_tabview_class)) {
 215:Drivers/lvgl/src/extra/themes/mono/lv_theme_mono.c ****             return;
 216:Drivers/lvgl/src/extra/themes/mono/lv_theme_mono.c ****         }
 217:Drivers/lvgl/src/extra/themes/mono/lv_theme_mono.c ****         /*Tabview pages*/
ARM GAS  /var/folders/0z/tsy30v1j4xl4_7kw94k978ww0000gn/T//ccM2UjO5.s 			page 6


 218:Drivers/lvgl/src/extra/themes/mono/lv_theme_mono.c ****         else if(lv_obj_check_type(lv_obj_get_parent(parent), &lv_tabview_class)) {
 219:Drivers/lvgl/src/extra/themes/mono/lv_theme_mono.c ****             lv_obj_add_style(obj, &styles->card, 0);
 220:Drivers/lvgl/src/extra/themes/mono/lv_theme_mono.c ****             lv_obj_add_style(obj, &styles->no_radius, 0);
 221:Drivers/lvgl/src/extra/themes/mono/lv_theme_mono.c ****             lv_obj_add_style(obj, &styles->scrollbar, LV_PART_SCROLLBAR);
 222:Drivers/lvgl/src/extra/themes/mono/lv_theme_mono.c ****             return;
 223:Drivers/lvgl/src/extra/themes/mono/lv_theme_mono.c ****         }
 224:Drivers/lvgl/src/extra/themes/mono/lv_theme_mono.c **** #endif
 225:Drivers/lvgl/src/extra/themes/mono/lv_theme_mono.c **** 
 226:Drivers/lvgl/src/extra/themes/mono/lv_theme_mono.c **** #if LV_USE_WIN
 227:Drivers/lvgl/src/extra/themes/mono/lv_theme_mono.c ****         /*Header*/
 228:Drivers/lvgl/src/extra/themes/mono/lv_theme_mono.c ****         if(lv_obj_get_index(obj) == 0 && lv_obj_check_type(lv_obj_get_parent(obj), &lv_win_class)) 
 229:Drivers/lvgl/src/extra/themes/mono/lv_theme_mono.c ****             lv_obj_add_style(obj, &styles->card, 0);
 230:Drivers/lvgl/src/extra/themes/mono/lv_theme_mono.c ****             lv_obj_add_style(obj, &styles->no_radius, 0);
 231:Drivers/lvgl/src/extra/themes/mono/lv_theme_mono.c ****             return;
 232:Drivers/lvgl/src/extra/themes/mono/lv_theme_mono.c ****         }
 233:Drivers/lvgl/src/extra/themes/mono/lv_theme_mono.c ****         /*Content*/
 234:Drivers/lvgl/src/extra/themes/mono/lv_theme_mono.c ****         else if(lv_obj_get_index(obj) == 1 && lv_obj_check_type(lv_obj_get_parent(obj), &lv_win_cla
 235:Drivers/lvgl/src/extra/themes/mono/lv_theme_mono.c ****             lv_obj_add_style(obj, &styles->card, 0);
 236:Drivers/lvgl/src/extra/themes/mono/lv_theme_mono.c ****             lv_obj_add_style(obj, &styles->no_radius, 0);
 237:Drivers/lvgl/src/extra/themes/mono/lv_theme_mono.c ****             lv_obj_add_style(obj, &styles->scrollbar, LV_PART_SCROLLBAR);
 238:Drivers/lvgl/src/extra/themes/mono/lv_theme_mono.c ****             return;
 239:Drivers/lvgl/src/extra/themes/mono/lv_theme_mono.c ****         }
 240:Drivers/lvgl/src/extra/themes/mono/lv_theme_mono.c **** #endif
 241:Drivers/lvgl/src/extra/themes/mono/lv_theme_mono.c ****         lv_obj_add_style(obj, &styles->card, 0);
 242:Drivers/lvgl/src/extra/themes/mono/lv_theme_mono.c ****         lv_obj_add_style(obj, &styles->scrollbar, LV_PART_SCROLLBAR);
 243:Drivers/lvgl/src/extra/themes/mono/lv_theme_mono.c ****     }
 244:Drivers/lvgl/src/extra/themes/mono/lv_theme_mono.c **** #if LV_USE_BTN
 245:Drivers/lvgl/src/extra/themes/mono/lv_theme_mono.c ****     else if(lv_obj_check_type(obj, &lv_btn_class)) {
  67              		.loc 1 245 10 is_stmt 1 view .LVU12
  68              		.loc 1 245 13 is_stmt 0 view .LVU13
  69 001e C249     		ldr	r1, .L66+4
  70 0020 2046     		mov	r0, r4
  71 0022 FFF7FEFF 		bl	lv_obj_check_type
  72              	.LVL4:
  73              		.loc 1 245 12 view .LVU14
  74 0026 0646     		mov	r6, r0
  75 0028 0028     		cmp	r0, #0
  76 002a 67D0     		beq	.L9
 246:Drivers/lvgl/src/extra/themes/mono/lv_theme_mono.c ****         lv_obj_add_style(obj, &styles->card, 0);
  77              		.loc 1 246 9 is_stmt 1 view .LVU15
  78              		.loc 1 246 38 is_stmt 0 view .LVU16
  79 002c BF4E     		ldr	r6, .L66+8
  80              		.loc 1 246 9 view .LVU17
  81 002e 3168     		ldr	r1, [r6]
  82 0030 2A46     		mov	r2, r5
  83 0032 2046     		mov	r0, r4
  84 0034 0831     		adds	r1, r1, #8
  85 0036 FFF7FEFF 		bl	lv_obj_add_style
  86              	.LVL5:
 247:Drivers/lvgl/src/extra/themes/mono/lv_theme_mono.c ****         lv_obj_add_style(obj, &styles->pr, LV_STATE_PRESSED);
  87              		.loc 1 247 9 is_stmt 1 view .LVU18
  88 003a 3168     		ldr	r1, [r6]
  89 003c 2022     		movs	r2, #32
  90 003e 1144     		add	r1, r1, r2
  91 0040 2046     		mov	r0, r4
  92 0042 FFF7FEFF 		bl	lv_obj_add_style
  93              	.LVL6:
ARM GAS  /var/folders/0z/tsy30v1j4xl4_7kw94k978ww0000gn/T//ccM2UjO5.s 			page 7


 248:Drivers/lvgl/src/extra/themes/mono/lv_theme_mono.c ****         lv_obj_add_style(obj, &styles->inv, LV_STATE_CHECKED);
  94              		.loc 1 248 9 view .LVU19
  95 0046 3168     		ldr	r1, [r6]
  96 0048 0122     		movs	r2, #1
  97 004a 2831     		adds	r1, r1, #40
  98 004c 2046     		mov	r0, r4
  99 004e FFF7FEFF 		bl	lv_obj_add_style
 100              	.LVL7:
 249:Drivers/lvgl/src/extra/themes/mono/lv_theme_mono.c ****         lv_obj_add_style(obj, &styles->disabled, LV_STATE_DISABLED);
 101              		.loc 1 249 9 view .LVU20
 102 0052 3168     		ldr	r1, [r6]
 103 0054 8022     		movs	r2, #128
 104 0056 3031     		adds	r1, r1, #48
 105              	.L49:
 250:Drivers/lvgl/src/extra/themes/mono/lv_theme_mono.c ****         lv_obj_add_style(obj, &styles->focus, LV_STATE_FOCUS_KEY);
 251:Drivers/lvgl/src/extra/themes/mono/lv_theme_mono.c ****         lv_obj_add_style(obj, &styles->edit, LV_STATE_EDITED);
 252:Drivers/lvgl/src/extra/themes/mono/lv_theme_mono.c ****     }
 253:Drivers/lvgl/src/extra/themes/mono/lv_theme_mono.c **** #endif
 254:Drivers/lvgl/src/extra/themes/mono/lv_theme_mono.c **** 
 255:Drivers/lvgl/src/extra/themes/mono/lv_theme_mono.c **** #if LV_USE_BTNMATRIX
 256:Drivers/lvgl/src/extra/themes/mono/lv_theme_mono.c ****     else if(lv_obj_check_type(obj, &lv_btnmatrix_class)) {
 257:Drivers/lvgl/src/extra/themes/mono/lv_theme_mono.c **** #if LV_USE_MSGBOX
 258:Drivers/lvgl/src/extra/themes/mono/lv_theme_mono.c ****         if(lv_obj_check_type(lv_obj_get_parent(obj), &lv_msgbox_class)) {
 259:Drivers/lvgl/src/extra/themes/mono/lv_theme_mono.c ****             lv_obj_add_style(obj, &styles->pad_gap, 0);
 260:Drivers/lvgl/src/extra/themes/mono/lv_theme_mono.c ****             lv_obj_add_style(obj, &styles->card, LV_PART_ITEMS);
 261:Drivers/lvgl/src/extra/themes/mono/lv_theme_mono.c ****             lv_obj_add_style(obj, &styles->pr, LV_PART_ITEMS | LV_STATE_PRESSED);
 262:Drivers/lvgl/src/extra/themes/mono/lv_theme_mono.c ****             lv_obj_add_style(obj, &styles->disabled, LV_PART_ITEMS | LV_STATE_DISABLED);
 263:Drivers/lvgl/src/extra/themes/mono/lv_theme_mono.c ****             lv_obj_add_style(obj, &styles->underline, LV_PART_ITEMS | LV_STATE_FOCUS_KEY);
 264:Drivers/lvgl/src/extra/themes/mono/lv_theme_mono.c ****             lv_obj_add_style(obj, &styles->large_border, LV_PART_ITEMS | LV_STATE_FOCUS_KEY);
 265:Drivers/lvgl/src/extra/themes/mono/lv_theme_mono.c ****             return;
 266:Drivers/lvgl/src/extra/themes/mono/lv_theme_mono.c ****         }
 267:Drivers/lvgl/src/extra/themes/mono/lv_theme_mono.c **** #endif
 268:Drivers/lvgl/src/extra/themes/mono/lv_theme_mono.c **** #if LV_USE_TABVIEW
 269:Drivers/lvgl/src/extra/themes/mono/lv_theme_mono.c ****         if(lv_obj_check_type(lv_obj_get_parent(obj), &lv_tabview_class)) {
 270:Drivers/lvgl/src/extra/themes/mono/lv_theme_mono.c ****             lv_obj_add_style(obj, &styles->pad_gap, 0);
 271:Drivers/lvgl/src/extra/themes/mono/lv_theme_mono.c ****             lv_obj_add_style(obj, &styles->card, LV_PART_ITEMS);
 272:Drivers/lvgl/src/extra/themes/mono/lv_theme_mono.c ****             lv_obj_add_style(obj, &styles->pr, LV_PART_ITEMS | LV_STATE_PRESSED);
 273:Drivers/lvgl/src/extra/themes/mono/lv_theme_mono.c ****             lv_obj_add_style(obj, &styles->inv, LV_PART_ITEMS | LV_STATE_CHECKED);
 274:Drivers/lvgl/src/extra/themes/mono/lv_theme_mono.c ****             lv_obj_add_style(obj, &styles->disabled, LV_PART_ITEMS | LV_STATE_DISABLED);
 275:Drivers/lvgl/src/extra/themes/mono/lv_theme_mono.c ****             lv_obj_add_style(obj, &styles->focus, LV_STATE_FOCUS_KEY);
 276:Drivers/lvgl/src/extra/themes/mono/lv_theme_mono.c ****             lv_obj_add_style(obj, &styles->underline, LV_PART_ITEMS | LV_STATE_FOCUS_KEY);
 277:Drivers/lvgl/src/extra/themes/mono/lv_theme_mono.c ****             lv_obj_add_style(obj, &styles->large_border, LV_PART_ITEMS | LV_STATE_FOCUS_KEY);
 278:Drivers/lvgl/src/extra/themes/mono/lv_theme_mono.c ****             return;
 279:Drivers/lvgl/src/extra/themes/mono/lv_theme_mono.c ****         }
 280:Drivers/lvgl/src/extra/themes/mono/lv_theme_mono.c **** #endif
 281:Drivers/lvgl/src/extra/themes/mono/lv_theme_mono.c ****         lv_obj_add_style(obj, &styles->card, 0);
 282:Drivers/lvgl/src/extra/themes/mono/lv_theme_mono.c ****         lv_obj_add_style(obj, &styles->focus, LV_STATE_FOCUS_KEY);
 283:Drivers/lvgl/src/extra/themes/mono/lv_theme_mono.c ****         lv_obj_add_style(obj, &styles->card, LV_PART_ITEMS);
 284:Drivers/lvgl/src/extra/themes/mono/lv_theme_mono.c ****         lv_obj_add_style(obj, &styles->pr, LV_PART_ITEMS | LV_STATE_PRESSED);
 285:Drivers/lvgl/src/extra/themes/mono/lv_theme_mono.c ****         lv_obj_add_style(obj, &styles->inv, LV_PART_ITEMS | LV_STATE_CHECKED);
 286:Drivers/lvgl/src/extra/themes/mono/lv_theme_mono.c ****         lv_obj_add_style(obj, &styles->disabled, LV_PART_ITEMS | LV_STATE_DISABLED);
 287:Drivers/lvgl/src/extra/themes/mono/lv_theme_mono.c ****         lv_obj_add_style(obj, &styles->underline, LV_PART_ITEMS | LV_STATE_FOCUS_KEY);
 288:Drivers/lvgl/src/extra/themes/mono/lv_theme_mono.c ****         lv_obj_add_style(obj, &styles->large_border, LV_PART_ITEMS | LV_STATE_FOCUS_KEY);
 289:Drivers/lvgl/src/extra/themes/mono/lv_theme_mono.c ****     }
 290:Drivers/lvgl/src/extra/themes/mono/lv_theme_mono.c **** #endif
 291:Drivers/lvgl/src/extra/themes/mono/lv_theme_mono.c **** 
 292:Drivers/lvgl/src/extra/themes/mono/lv_theme_mono.c **** #if LV_USE_BAR
ARM GAS  /var/folders/0z/tsy30v1j4xl4_7kw94k978ww0000gn/T//ccM2UjO5.s 			page 8


 293:Drivers/lvgl/src/extra/themes/mono/lv_theme_mono.c ****     else if(lv_obj_check_type(obj, &lv_bar_class)) {
 294:Drivers/lvgl/src/extra/themes/mono/lv_theme_mono.c ****         lv_obj_add_style(obj, &styles->card, 0);
 295:Drivers/lvgl/src/extra/themes/mono/lv_theme_mono.c ****         lv_obj_add_style(obj, &styles->pad_zero, 0);
 296:Drivers/lvgl/src/extra/themes/mono/lv_theme_mono.c ****         lv_obj_add_style(obj, &styles->inv, LV_PART_INDICATOR);
 297:Drivers/lvgl/src/extra/themes/mono/lv_theme_mono.c ****         lv_obj_add_style(obj, &styles->focus, LV_STATE_FOCUS_KEY);
 298:Drivers/lvgl/src/extra/themes/mono/lv_theme_mono.c ****     }
 299:Drivers/lvgl/src/extra/themes/mono/lv_theme_mono.c **** #endif
 300:Drivers/lvgl/src/extra/themes/mono/lv_theme_mono.c **** 
 301:Drivers/lvgl/src/extra/themes/mono/lv_theme_mono.c **** #if LV_USE_SLIDER
 302:Drivers/lvgl/src/extra/themes/mono/lv_theme_mono.c ****     else if(lv_obj_check_type(obj, &lv_slider_class)) {
 303:Drivers/lvgl/src/extra/themes/mono/lv_theme_mono.c ****         lv_obj_add_style(obj, &styles->card, 0);
 304:Drivers/lvgl/src/extra/themes/mono/lv_theme_mono.c ****         lv_obj_add_style(obj, &styles->pad_zero, 0);
 305:Drivers/lvgl/src/extra/themes/mono/lv_theme_mono.c ****         lv_obj_add_style(obj, &styles->inv, LV_PART_INDICATOR);
 306:Drivers/lvgl/src/extra/themes/mono/lv_theme_mono.c ****         lv_obj_add_style(obj, &styles->card, LV_PART_KNOB);
 307:Drivers/lvgl/src/extra/themes/mono/lv_theme_mono.c ****         lv_obj_add_style(obj, &styles->radius_circle, LV_PART_KNOB);
 308:Drivers/lvgl/src/extra/themes/mono/lv_theme_mono.c ****         lv_obj_add_style(obj, &styles->focus, LV_STATE_FOCUS_KEY);
 309:Drivers/lvgl/src/extra/themes/mono/lv_theme_mono.c ****         lv_obj_add_style(obj, &styles->edit, LV_STATE_EDITED);
 310:Drivers/lvgl/src/extra/themes/mono/lv_theme_mono.c ****     }
 311:Drivers/lvgl/src/extra/themes/mono/lv_theme_mono.c **** #endif
 312:Drivers/lvgl/src/extra/themes/mono/lv_theme_mono.c **** 
 313:Drivers/lvgl/src/extra/themes/mono/lv_theme_mono.c **** #if LV_USE_TABLE
 314:Drivers/lvgl/src/extra/themes/mono/lv_theme_mono.c ****     else if(lv_obj_check_type(obj, &lv_table_class)) {
 315:Drivers/lvgl/src/extra/themes/mono/lv_theme_mono.c ****         lv_obj_add_style(obj, &styles->scrollbar, LV_PART_SCROLLBAR);
 316:Drivers/lvgl/src/extra/themes/mono/lv_theme_mono.c ****         lv_obj_add_style(obj, &styles->card, LV_PART_ITEMS);
 317:Drivers/lvgl/src/extra/themes/mono/lv_theme_mono.c ****         lv_obj_add_style(obj, &styles->no_radius, LV_PART_ITEMS);
 318:Drivers/lvgl/src/extra/themes/mono/lv_theme_mono.c ****         lv_obj_add_style(obj, &styles->pr, LV_PART_ITEMS | LV_STATE_PRESSED);
 319:Drivers/lvgl/src/extra/themes/mono/lv_theme_mono.c ****         lv_obj_add_style(obj, &styles->focus, LV_STATE_FOCUS_KEY);
 320:Drivers/lvgl/src/extra/themes/mono/lv_theme_mono.c ****         lv_obj_add_style(obj, &styles->inv, LV_PART_ITEMS | LV_STATE_FOCUS_KEY);
 321:Drivers/lvgl/src/extra/themes/mono/lv_theme_mono.c ****         lv_obj_add_style(obj, &styles->edit, LV_STATE_EDITED);
 322:Drivers/lvgl/src/extra/themes/mono/lv_theme_mono.c ****     }
 323:Drivers/lvgl/src/extra/themes/mono/lv_theme_mono.c **** #endif
 324:Drivers/lvgl/src/extra/themes/mono/lv_theme_mono.c **** 
 325:Drivers/lvgl/src/extra/themes/mono/lv_theme_mono.c **** #if LV_USE_CHECKBOX
 326:Drivers/lvgl/src/extra/themes/mono/lv_theme_mono.c ****     else if(lv_obj_check_type(obj, &lv_checkbox_class)) {
 327:Drivers/lvgl/src/extra/themes/mono/lv_theme_mono.c ****         lv_obj_add_style(obj, &styles->pad_gap, LV_PART_MAIN);
 328:Drivers/lvgl/src/extra/themes/mono/lv_theme_mono.c ****         lv_obj_add_style(obj, &styles->card, LV_PART_INDICATOR);
 329:Drivers/lvgl/src/extra/themes/mono/lv_theme_mono.c ****         lv_obj_add_style(obj, &styles->disabled, LV_PART_INDICATOR | LV_STATE_DISABLED);
 330:Drivers/lvgl/src/extra/themes/mono/lv_theme_mono.c ****         lv_obj_add_style(obj, &styles->inv, LV_PART_INDICATOR | LV_STATE_CHECKED);
 331:Drivers/lvgl/src/extra/themes/mono/lv_theme_mono.c ****         lv_obj_add_style(obj, &styles->pr, LV_PART_INDICATOR | LV_STATE_PRESSED);
 106              		.loc 1 331 9 is_stmt 0 view .LVU21
 107 0058 2046     		mov	r0, r4
 108 005a FFF7FEFF 		bl	lv_obj_add_style
 109              	.LVL8:
 332:Drivers/lvgl/src/extra/themes/mono/lv_theme_mono.c ****         lv_obj_add_style(obj, &styles->focus, LV_STATE_FOCUS_KEY);
 110              		.loc 1 332 9 is_stmt 1 view .LVU22
 111 005e 3168     		ldr	r1, [r6]
 112 0060 0422     		movs	r2, #4
 113 0062 3831     		adds	r1, r1, #56
 114 0064 2046     		mov	r0, r4
 115 0066 FFF7FEFF 		bl	lv_obj_add_style
 116              	.LVL9:
 333:Drivers/lvgl/src/extra/themes/mono/lv_theme_mono.c ****         lv_obj_add_style(obj, &styles->edit, LV_STATE_EDITED);
 117              		.loc 1 333 9 view .LVU23
 118 006a 3168     		ldr	r1, [r6]
 119 006c 0822     		movs	r2, #8
 120 006e 4031     		adds	r1, r1, #64
 121 0070 2046     		mov	r0, r4
ARM GAS  /var/folders/0z/tsy30v1j4xl4_7kw94k978ww0000gn/T//ccM2UjO5.s 			page 9


 122              	.LVL10:
 123              	.L44:
 334:Drivers/lvgl/src/extra/themes/mono/lv_theme_mono.c ****     }
 335:Drivers/lvgl/src/extra/themes/mono/lv_theme_mono.c **** #endif
 336:Drivers/lvgl/src/extra/themes/mono/lv_theme_mono.c **** 
 337:Drivers/lvgl/src/extra/themes/mono/lv_theme_mono.c **** #if LV_USE_SWITCH
 338:Drivers/lvgl/src/extra/themes/mono/lv_theme_mono.c ****     else if(lv_obj_check_type(obj, &lv_switch_class)) {
 339:Drivers/lvgl/src/extra/themes/mono/lv_theme_mono.c ****         lv_obj_add_style(obj, &styles->card, 0);
 340:Drivers/lvgl/src/extra/themes/mono/lv_theme_mono.c ****         lv_obj_add_style(obj, &styles->radius_circle, 0);
 341:Drivers/lvgl/src/extra/themes/mono/lv_theme_mono.c ****         lv_obj_add_style(obj, &styles->pad_zero, 0);
 342:Drivers/lvgl/src/extra/themes/mono/lv_theme_mono.c ****         lv_obj_add_style(obj, &styles->inv, LV_PART_INDICATOR);
 343:Drivers/lvgl/src/extra/themes/mono/lv_theme_mono.c ****         lv_obj_add_style(obj, &styles->radius_circle, LV_PART_INDICATOR);
 344:Drivers/lvgl/src/extra/themes/mono/lv_theme_mono.c ****         lv_obj_add_style(obj, &styles->card, LV_PART_KNOB);
 345:Drivers/lvgl/src/extra/themes/mono/lv_theme_mono.c ****         lv_obj_add_style(obj, &styles->radius_circle, LV_PART_KNOB);
 346:Drivers/lvgl/src/extra/themes/mono/lv_theme_mono.c ****         lv_obj_add_style(obj, &styles->pad_zero, LV_PART_KNOB);
 347:Drivers/lvgl/src/extra/themes/mono/lv_theme_mono.c ****         lv_obj_add_style(obj, &styles->focus, LV_STATE_FOCUS_KEY);
 348:Drivers/lvgl/src/extra/themes/mono/lv_theme_mono.c ****         lv_obj_add_style(obj, &styles->edit, LV_STATE_EDITED);
 349:Drivers/lvgl/src/extra/themes/mono/lv_theme_mono.c ****     }
 350:Drivers/lvgl/src/extra/themes/mono/lv_theme_mono.c **** #endif
 351:Drivers/lvgl/src/extra/themes/mono/lv_theme_mono.c **** 
 352:Drivers/lvgl/src/extra/themes/mono/lv_theme_mono.c **** #if LV_USE_CHART
 353:Drivers/lvgl/src/extra/themes/mono/lv_theme_mono.c ****     else if(lv_obj_check_type(obj, &lv_chart_class)) {
 354:Drivers/lvgl/src/extra/themes/mono/lv_theme_mono.c ****         lv_obj_add_style(obj, &styles->card, 0);
 355:Drivers/lvgl/src/extra/themes/mono/lv_theme_mono.c ****         lv_obj_add_style(obj, &styles->scrollbar, LV_PART_SCROLLBAR);
 356:Drivers/lvgl/src/extra/themes/mono/lv_theme_mono.c ****         lv_obj_add_style(obj, &styles->card, LV_PART_ITEMS);
 357:Drivers/lvgl/src/extra/themes/mono/lv_theme_mono.c ****         lv_obj_add_style(obj, &styles->card, LV_PART_TICKS);
 358:Drivers/lvgl/src/extra/themes/mono/lv_theme_mono.c ****         lv_obj_add_style(obj, &styles->card, LV_PART_CURSOR);
 359:Drivers/lvgl/src/extra/themes/mono/lv_theme_mono.c ****         lv_obj_add_style(obj, &styles->focus, LV_STATE_FOCUS_KEY);
 360:Drivers/lvgl/src/extra/themes/mono/lv_theme_mono.c ****     }
 361:Drivers/lvgl/src/extra/themes/mono/lv_theme_mono.c **** #endif
 362:Drivers/lvgl/src/extra/themes/mono/lv_theme_mono.c **** 
 363:Drivers/lvgl/src/extra/themes/mono/lv_theme_mono.c **** #if LV_USE_ROLLER
 364:Drivers/lvgl/src/extra/themes/mono/lv_theme_mono.c ****     else if(lv_obj_check_type(obj, &lv_roller_class)) {
 365:Drivers/lvgl/src/extra/themes/mono/lv_theme_mono.c ****         lv_obj_add_style(obj, &styles->card, 0);
 366:Drivers/lvgl/src/extra/themes/mono/lv_theme_mono.c ****         lv_obj_add_style(obj, &styles->large_line_space, 0);
 367:Drivers/lvgl/src/extra/themes/mono/lv_theme_mono.c ****         lv_obj_add_style(obj, &styles->inv, LV_PART_SELECTED);
 368:Drivers/lvgl/src/extra/themes/mono/lv_theme_mono.c ****         lv_obj_add_style(obj, &styles->focus, LV_STATE_FOCUS_KEY);
 369:Drivers/lvgl/src/extra/themes/mono/lv_theme_mono.c ****         lv_obj_add_style(obj, &styles->edit, LV_STATE_EDITED);
 370:Drivers/lvgl/src/extra/themes/mono/lv_theme_mono.c ****     }
 371:Drivers/lvgl/src/extra/themes/mono/lv_theme_mono.c **** #endif
 372:Drivers/lvgl/src/extra/themes/mono/lv_theme_mono.c **** 
 373:Drivers/lvgl/src/extra/themes/mono/lv_theme_mono.c **** #if LV_USE_DROPDOWN
 374:Drivers/lvgl/src/extra/themes/mono/lv_theme_mono.c ****     else if(lv_obj_check_type(obj, &lv_dropdown_class)) {
 375:Drivers/lvgl/src/extra/themes/mono/lv_theme_mono.c ****         lv_obj_add_style(obj, &styles->card, 0);
 376:Drivers/lvgl/src/extra/themes/mono/lv_theme_mono.c ****         lv_obj_add_style(obj, &styles->pr, LV_STATE_PRESSED);
 377:Drivers/lvgl/src/extra/themes/mono/lv_theme_mono.c ****         lv_obj_add_style(obj, &styles->focus, LV_STATE_FOCUS_KEY);
 378:Drivers/lvgl/src/extra/themes/mono/lv_theme_mono.c ****         lv_obj_add_style(obj, &styles->edit, LV_STATE_EDITED);
 379:Drivers/lvgl/src/extra/themes/mono/lv_theme_mono.c ****     }
 380:Drivers/lvgl/src/extra/themes/mono/lv_theme_mono.c ****     else if(lv_obj_check_type(obj, &lv_dropdownlist_class)) {
 381:Drivers/lvgl/src/extra/themes/mono/lv_theme_mono.c ****         lv_obj_add_style(obj, &styles->card, 0);
 382:Drivers/lvgl/src/extra/themes/mono/lv_theme_mono.c ****         lv_obj_add_style(obj, &styles->large_line_space, 0);
 383:Drivers/lvgl/src/extra/themes/mono/lv_theme_mono.c ****         lv_obj_add_style(obj, &styles->scrollbar, LV_PART_SCROLLBAR);
 384:Drivers/lvgl/src/extra/themes/mono/lv_theme_mono.c ****         lv_obj_add_style(obj, &styles->inv, LV_PART_SELECTED | LV_STATE_CHECKED);
 385:Drivers/lvgl/src/extra/themes/mono/lv_theme_mono.c ****         lv_obj_add_style(obj, &styles->pr, LV_PART_SELECTED | LV_STATE_PRESSED);
 386:Drivers/lvgl/src/extra/themes/mono/lv_theme_mono.c ****         lv_obj_add_style(obj, &styles->focus, LV_STATE_FOCUS_KEY);
 387:Drivers/lvgl/src/extra/themes/mono/lv_theme_mono.c ****         lv_obj_add_style(obj, &styles->edit, LV_STATE_EDITED);
 388:Drivers/lvgl/src/extra/themes/mono/lv_theme_mono.c ****     }
ARM GAS  /var/folders/0z/tsy30v1j4xl4_7kw94k978ww0000gn/T//ccM2UjO5.s 			page 10


 389:Drivers/lvgl/src/extra/themes/mono/lv_theme_mono.c **** #endif
 390:Drivers/lvgl/src/extra/themes/mono/lv_theme_mono.c **** 
 391:Drivers/lvgl/src/extra/themes/mono/lv_theme_mono.c **** #if LV_USE_ARC
 392:Drivers/lvgl/src/extra/themes/mono/lv_theme_mono.c ****     else if(lv_obj_check_type(obj, &lv_arc_class)) {
 393:Drivers/lvgl/src/extra/themes/mono/lv_theme_mono.c ****         lv_obj_add_style(obj, &styles->card, 0);
 394:Drivers/lvgl/src/extra/themes/mono/lv_theme_mono.c ****         lv_obj_add_style(obj, &styles->inv, LV_PART_INDICATOR);
 395:Drivers/lvgl/src/extra/themes/mono/lv_theme_mono.c ****         lv_obj_add_style(obj, &styles->pad_zero, LV_PART_INDICATOR);
 396:Drivers/lvgl/src/extra/themes/mono/lv_theme_mono.c ****         lv_obj_add_style(obj, &styles->card, LV_PART_KNOB);
 397:Drivers/lvgl/src/extra/themes/mono/lv_theme_mono.c ****         lv_obj_add_style(obj, &styles->radius_circle, LV_PART_KNOB);
 398:Drivers/lvgl/src/extra/themes/mono/lv_theme_mono.c ****         lv_obj_add_style(obj, &styles->focus, LV_STATE_FOCUS_KEY);
 399:Drivers/lvgl/src/extra/themes/mono/lv_theme_mono.c ****         lv_obj_add_style(obj, &styles->edit, LV_STATE_EDITED);
 400:Drivers/lvgl/src/extra/themes/mono/lv_theme_mono.c ****     }
 401:Drivers/lvgl/src/extra/themes/mono/lv_theme_mono.c **** #endif
 402:Drivers/lvgl/src/extra/themes/mono/lv_theme_mono.c **** 
 403:Drivers/lvgl/src/extra/themes/mono/lv_theme_mono.c **** #if LV_USE_METER
 404:Drivers/lvgl/src/extra/themes/mono/lv_theme_mono.c ****     else if(lv_obj_check_type(obj, &lv_meter_class)) {
 405:Drivers/lvgl/src/extra/themes/mono/lv_theme_mono.c ****         lv_obj_add_style(obj, &styles->card, 0);
 406:Drivers/lvgl/src/extra/themes/mono/lv_theme_mono.c ****     }
 407:Drivers/lvgl/src/extra/themes/mono/lv_theme_mono.c **** #endif
 408:Drivers/lvgl/src/extra/themes/mono/lv_theme_mono.c **** 
 409:Drivers/lvgl/src/extra/themes/mono/lv_theme_mono.c **** #if LV_USE_TEXTAREA
 410:Drivers/lvgl/src/extra/themes/mono/lv_theme_mono.c ****     else if(lv_obj_check_type(obj, &lv_textarea_class)) {
 411:Drivers/lvgl/src/extra/themes/mono/lv_theme_mono.c ****         lv_obj_add_style(obj, &styles->card, 0);
 412:Drivers/lvgl/src/extra/themes/mono/lv_theme_mono.c ****         lv_obj_add_style(obj, &styles->scrollbar, LV_PART_SCROLLBAR);
 413:Drivers/lvgl/src/extra/themes/mono/lv_theme_mono.c ****         lv_obj_add_style(obj, &styles->ta_cursor, LV_PART_CURSOR | LV_STATE_FOCUSED);
 414:Drivers/lvgl/src/extra/themes/mono/lv_theme_mono.c ****         lv_obj_add_style(obj, &styles->focus, LV_STATE_FOCUSED);
 415:Drivers/lvgl/src/extra/themes/mono/lv_theme_mono.c ****         lv_obj_add_style(obj, &styles->edit, LV_STATE_EDITED);
 416:Drivers/lvgl/src/extra/themes/mono/lv_theme_mono.c ****     }
 417:Drivers/lvgl/src/extra/themes/mono/lv_theme_mono.c **** #endif
 418:Drivers/lvgl/src/extra/themes/mono/lv_theme_mono.c **** 
 419:Drivers/lvgl/src/extra/themes/mono/lv_theme_mono.c **** #if LV_USE_CALENDAR
 420:Drivers/lvgl/src/extra/themes/mono/lv_theme_mono.c ****     else if(lv_obj_check_type(obj, &lv_calendar_class)) {
 421:Drivers/lvgl/src/extra/themes/mono/lv_theme_mono.c ****         lv_obj_add_style(obj, &styles->card, 0);
 422:Drivers/lvgl/src/extra/themes/mono/lv_theme_mono.c ****         lv_obj_add_style(obj, &styles->no_radius, 0);
 423:Drivers/lvgl/src/extra/themes/mono/lv_theme_mono.c ****         lv_obj_add_style(obj, &styles->pr, LV_PART_ITEMS | LV_STATE_PRESSED);
 424:Drivers/lvgl/src/extra/themes/mono/lv_theme_mono.c ****         lv_obj_add_style(obj, &styles->disabled, LV_PART_ITEMS | LV_STATE_DISABLED);
 425:Drivers/lvgl/src/extra/themes/mono/lv_theme_mono.c ****         lv_obj_add_style(obj, &styles->focus, LV_STATE_FOCUS_KEY);
 426:Drivers/lvgl/src/extra/themes/mono/lv_theme_mono.c ****         lv_obj_add_style(obj, &styles->edit, LV_STATE_EDITED);
 427:Drivers/lvgl/src/extra/themes/mono/lv_theme_mono.c ****         lv_obj_add_style(obj, &styles->large_border, LV_PART_ITEMS | LV_STATE_FOCUS_KEY);
 428:Drivers/lvgl/src/extra/themes/mono/lv_theme_mono.c ****     }
 429:Drivers/lvgl/src/extra/themes/mono/lv_theme_mono.c **** #endif
 430:Drivers/lvgl/src/extra/themes/mono/lv_theme_mono.c **** 
 431:Drivers/lvgl/src/extra/themes/mono/lv_theme_mono.c **** #if LV_USE_KEYBOARD
 432:Drivers/lvgl/src/extra/themes/mono/lv_theme_mono.c ****     else if(lv_obj_check_type(obj, &lv_keyboard_class)) {
 433:Drivers/lvgl/src/extra/themes/mono/lv_theme_mono.c ****         lv_obj_add_style(obj, &styles->card, 0);
 434:Drivers/lvgl/src/extra/themes/mono/lv_theme_mono.c ****         lv_obj_add_style(obj, &styles->card, LV_PART_ITEMS);
 435:Drivers/lvgl/src/extra/themes/mono/lv_theme_mono.c ****         lv_obj_add_style(obj, &styles->pr, LV_PART_ITEMS | LV_STATE_PRESSED);
 436:Drivers/lvgl/src/extra/themes/mono/lv_theme_mono.c ****         lv_obj_add_style(obj, &styles->inv, LV_PART_ITEMS | LV_STATE_CHECKED);
 437:Drivers/lvgl/src/extra/themes/mono/lv_theme_mono.c ****         lv_obj_add_style(obj, &styles->focus, LV_STATE_FOCUS_KEY);
 438:Drivers/lvgl/src/extra/themes/mono/lv_theme_mono.c ****         lv_obj_add_style(obj, &styles->edit, LV_STATE_EDITED);
 439:Drivers/lvgl/src/extra/themes/mono/lv_theme_mono.c ****         lv_obj_add_style(obj, &styles->large_border, LV_PART_ITEMS | LV_STATE_EDITED);
 440:Drivers/lvgl/src/extra/themes/mono/lv_theme_mono.c ****     }
 441:Drivers/lvgl/src/extra/themes/mono/lv_theme_mono.c **** #endif
 442:Drivers/lvgl/src/extra/themes/mono/lv_theme_mono.c **** #if LV_USE_LIST
 443:Drivers/lvgl/src/extra/themes/mono/lv_theme_mono.c ****     else if(lv_obj_check_type(obj, &lv_list_class)) {
 444:Drivers/lvgl/src/extra/themes/mono/lv_theme_mono.c ****         lv_obj_add_style(obj, &styles->card, 0);
 445:Drivers/lvgl/src/extra/themes/mono/lv_theme_mono.c ****         lv_obj_add_style(obj, &styles->scrollbar, LV_PART_SCROLLBAR);
ARM GAS  /var/folders/0z/tsy30v1j4xl4_7kw94k978ww0000gn/T//ccM2UjO5.s 			page 11


 446:Drivers/lvgl/src/extra/themes/mono/lv_theme_mono.c ****         return;
 447:Drivers/lvgl/src/extra/themes/mono/lv_theme_mono.c ****     }
 448:Drivers/lvgl/src/extra/themes/mono/lv_theme_mono.c ****     else if(lv_obj_check_type(obj, &lv_list_text_class)) {
 449:Drivers/lvgl/src/extra/themes/mono/lv_theme_mono.c **** 
 450:Drivers/lvgl/src/extra/themes/mono/lv_theme_mono.c ****     }
 451:Drivers/lvgl/src/extra/themes/mono/lv_theme_mono.c ****     else if(lv_obj_check_type(obj, &lv_list_btn_class)) {
 452:Drivers/lvgl/src/extra/themes/mono/lv_theme_mono.c ****         lv_obj_add_style(obj, &styles->card, 0);
 453:Drivers/lvgl/src/extra/themes/mono/lv_theme_mono.c ****         lv_obj_add_style(obj, &styles->pr, LV_STATE_PRESSED);
 454:Drivers/lvgl/src/extra/themes/mono/lv_theme_mono.c ****         lv_obj_add_style(obj, &styles->focus, LV_STATE_FOCUS_KEY);
 455:Drivers/lvgl/src/extra/themes/mono/lv_theme_mono.c ****         lv_obj_add_style(obj, &styles->large_border, LV_STATE_EDITED);
 456:Drivers/lvgl/src/extra/themes/mono/lv_theme_mono.c **** 
 457:Drivers/lvgl/src/extra/themes/mono/lv_theme_mono.c ****     }
 458:Drivers/lvgl/src/extra/themes/mono/lv_theme_mono.c **** #endif
 459:Drivers/lvgl/src/extra/themes/mono/lv_theme_mono.c **** #if LV_USE_MSGBOX
 460:Drivers/lvgl/src/extra/themes/mono/lv_theme_mono.c ****     else if(lv_obj_check_type(obj, &lv_msgbox_class)) {
 461:Drivers/lvgl/src/extra/themes/mono/lv_theme_mono.c ****         lv_obj_add_style(obj, &styles->card, 0);
 462:Drivers/lvgl/src/extra/themes/mono/lv_theme_mono.c ****         return;
 463:Drivers/lvgl/src/extra/themes/mono/lv_theme_mono.c ****     }
 464:Drivers/lvgl/src/extra/themes/mono/lv_theme_mono.c **** #endif
 465:Drivers/lvgl/src/extra/themes/mono/lv_theme_mono.c **** #if LV_USE_SPINBOX
 466:Drivers/lvgl/src/extra/themes/mono/lv_theme_mono.c ****     else if(lv_obj_check_type(obj, &lv_spinbox_class)) {
 467:Drivers/lvgl/src/extra/themes/mono/lv_theme_mono.c ****         lv_obj_add_style(obj, &styles->card, 0);
 468:Drivers/lvgl/src/extra/themes/mono/lv_theme_mono.c ****         lv_obj_add_style(obj, &styles->inv, LV_PART_CURSOR);
 469:Drivers/lvgl/src/extra/themes/mono/lv_theme_mono.c ****         lv_obj_add_style(obj, &styles->focus, LV_STATE_FOCUS_KEY);
 470:Drivers/lvgl/src/extra/themes/mono/lv_theme_mono.c ****         lv_obj_add_style(obj, &styles->edit, LV_STATE_EDITED);
 471:Drivers/lvgl/src/extra/themes/mono/lv_theme_mono.c ****     }
 472:Drivers/lvgl/src/extra/themes/mono/lv_theme_mono.c **** #endif
 473:Drivers/lvgl/src/extra/themes/mono/lv_theme_mono.c **** #if LV_USE_TILEVIEW
 474:Drivers/lvgl/src/extra/themes/mono/lv_theme_mono.c ****     else if(lv_obj_check_type(obj, &lv_tileview_class)) {
 475:Drivers/lvgl/src/extra/themes/mono/lv_theme_mono.c ****         lv_obj_add_style(obj, &styles->scr, 0);
 476:Drivers/lvgl/src/extra/themes/mono/lv_theme_mono.c ****         lv_obj_add_style(obj, &styles->scrollbar, LV_PART_SCROLLBAR);
 477:Drivers/lvgl/src/extra/themes/mono/lv_theme_mono.c ****     }
 478:Drivers/lvgl/src/extra/themes/mono/lv_theme_mono.c ****     else if(lv_obj_check_type(obj, &lv_tileview_tile_class)) {
 479:Drivers/lvgl/src/extra/themes/mono/lv_theme_mono.c ****         lv_obj_add_style(obj, &styles->scrollbar, LV_PART_SCROLLBAR);
 480:Drivers/lvgl/src/extra/themes/mono/lv_theme_mono.c ****     }
 481:Drivers/lvgl/src/extra/themes/mono/lv_theme_mono.c **** #endif
 482:Drivers/lvgl/src/extra/themes/mono/lv_theme_mono.c **** 
 483:Drivers/lvgl/src/extra/themes/mono/lv_theme_mono.c **** #if LV_USE_LED
 484:Drivers/lvgl/src/extra/themes/mono/lv_theme_mono.c ****     else if(lv_obj_check_type(obj, &lv_led_class)) {
 485:Drivers/lvgl/src/extra/themes/mono/lv_theme_mono.c ****         lv_obj_add_style(obj, &styles->card, 0);
 486:Drivers/lvgl/src/extra/themes/mono/lv_theme_mono.c ****     }
 487:Drivers/lvgl/src/extra/themes/mono/lv_theme_mono.c **** #endif
 488:Drivers/lvgl/src/extra/themes/mono/lv_theme_mono.c **** }
 124              		.loc 1 488 1 is_stmt 0 view .LVU24
 125 0072 03B0     		add	sp, sp, #12
 126              		.cfi_remember_state
 127              		.cfi_def_cfa_offset 20
 128              		@ sp needed
 129 0074 BDE8F040 		pop	{r4, r5, r6, r7, lr}
 130              		.cfi_restore 14
 131              		.cfi_restore 7
 132              		.cfi_restore 6
 133              		.cfi_restore 5
 134              		.cfi_restore 4
 135              		.cfi_def_cfa_offset 0
 485:Drivers/lvgl/src/extra/themes/mono/lv_theme_mono.c ****     }
 136              		.loc 1 485 9 view .LVU25
ARM GAS  /var/folders/0z/tsy30v1j4xl4_7kw94k978ww0000gn/T//ccM2UjO5.s 			page 12


 137 0078 FFF7FEBF 		b	lv_obj_add_style
 138              	.LVL11:
 139              	.L59:
 140              		.cfi_restore_state
 141              	.LBB70:
 212:Drivers/lvgl/src/extra/themes/mono/lv_theme_mono.c ****         /*Tabview content area*/
 142              		.loc 1 212 9 is_stmt 1 view .LVU26
 212:Drivers/lvgl/src/extra/themes/mono/lv_theme_mono.c ****         /*Tabview content area*/
 143              		.loc 1 212 29 is_stmt 0 view .LVU27
 144 007c 2046     		mov	r0, r4
 145 007e FFF7FEFF 		bl	lv_obj_get_parent
 146              	.LVL12:
 214:Drivers/lvgl/src/extra/themes/mono/lv_theme_mono.c ****             return;
 147              		.loc 1 214 12 view .LVU28
 148 0082 AB49     		ldr	r1, .L66+12
 212:Drivers/lvgl/src/extra/themes/mono/lv_theme_mono.c ****         /*Tabview content area*/
 149              		.loc 1 212 29 view .LVU29
 150 0084 0646     		mov	r6, r0
 151              	.LVL13:
 214:Drivers/lvgl/src/extra/themes/mono/lv_theme_mono.c ****             return;
 152              		.loc 1 214 9 is_stmt 1 view .LVU30
 214:Drivers/lvgl/src/extra/themes/mono/lv_theme_mono.c ****             return;
 153              		.loc 1 214 12 is_stmt 0 view .LVU31
 154 0086 FFF7FEFF 		bl	lv_obj_check_type
 155              	.LVL14:
 214:Drivers/lvgl/src/extra/themes/mono/lv_theme_mono.c ****             return;
 156              		.loc 1 214 11 view .LVU32
 157 008a 0546     		mov	r5, r0
 158 008c A0BB     		cbnz	r0, .L1
 218:Drivers/lvgl/src/extra/themes/mono/lv_theme_mono.c ****             lv_obj_add_style(obj, &styles->card, 0);
 159              		.loc 1 218 14 is_stmt 1 view .LVU33
 218:Drivers/lvgl/src/extra/themes/mono/lv_theme_mono.c ****             lv_obj_add_style(obj, &styles->card, 0);
 160              		.loc 1 218 35 is_stmt 0 view .LVU34
 161 008e 3046     		mov	r0, r6
 162 0090 FFF7FEFF 		bl	lv_obj_get_parent
 163              	.LVL15:
 218:Drivers/lvgl/src/extra/themes/mono/lv_theme_mono.c ****             lv_obj_add_style(obj, &styles->card, 0);
 164              		.loc 1 218 17 view .LVU35
 165 0094 A649     		ldr	r1, .L66+12
 166 0096 FFF7FEFF 		bl	lv_obj_check_type
 167              	.LVL16:
 218:Drivers/lvgl/src/extra/themes/mono/lv_theme_mono.c ****             lv_obj_add_style(obj, &styles->card, 0);
 168              		.loc 1 218 16 view .LVU36
 169 009a 0028     		cmp	r0, #0
 170 009c 40F09880 		bne	.L60
 228:Drivers/lvgl/src/extra/themes/mono/lv_theme_mono.c ****             lv_obj_add_style(obj, &styles->card, 0);
 171              		.loc 1 228 9 is_stmt 1 view .LVU37
 228:Drivers/lvgl/src/extra/themes/mono/lv_theme_mono.c ****             lv_obj_add_style(obj, &styles->card, 0);
 172              		.loc 1 228 12 is_stmt 0 view .LVU38
 173 00a0 2046     		mov	r0, r4
 174 00a2 FFF7FEFF 		bl	lv_obj_get_index
 175              	.LVL17:
 228:Drivers/lvgl/src/extra/themes/mono/lv_theme_mono.c ****             lv_obj_add_style(obj, &styles->card, 0);
 176              		.loc 1 228 11 view .LVU39
 177 00a6 0546     		mov	r5, r0
 178 00a8 40B9     		cbnz	r0, .L7
 228:Drivers/lvgl/src/extra/themes/mono/lv_theme_mono.c ****             lv_obj_add_style(obj, &styles->card, 0);
ARM GAS  /var/folders/0z/tsy30v1j4xl4_7kw94k978ww0000gn/T//ccM2UjO5.s 			page 13


 179              		.loc 1 228 60 discriminator 1 view .LVU40
 180 00aa 2046     		mov	r0, r4
 181 00ac FFF7FEFF 		bl	lv_obj_get_parent
 182              	.LVL18:
 228:Drivers/lvgl/src/extra/themes/mono/lv_theme_mono.c ****             lv_obj_add_style(obj, &styles->card, 0);
 183              		.loc 1 228 42 discriminator 1 view .LVU41
 184 00b0 A049     		ldr	r1, .L66+16
 185 00b2 FFF7FEFF 		bl	lv_obj_check_type
 186              	.LVL19:
 228:Drivers/lvgl/src/extra/themes/mono/lv_theme_mono.c ****             lv_obj_add_style(obj, &styles->card, 0);
 187              		.loc 1 228 39 discriminator 1 view .LVU42
 188 00b6 0028     		cmp	r0, #0
 189 00b8 40F07881 		bne	.L61
 190              	.L7:
 234:Drivers/lvgl/src/extra/themes/mono/lv_theme_mono.c ****             lv_obj_add_style(obj, &styles->card, 0);
 191              		.loc 1 234 14 is_stmt 1 view .LVU43
 234:Drivers/lvgl/src/extra/themes/mono/lv_theme_mono.c ****             lv_obj_add_style(obj, &styles->card, 0);
 192              		.loc 1 234 17 is_stmt 0 view .LVU44
 193 00bc 2046     		mov	r0, r4
 194 00be FFF7FEFF 		bl	lv_obj_get_index
 195              	.LVL20:
 234:Drivers/lvgl/src/extra/themes/mono/lv_theme_mono.c ****             lv_obj_add_style(obj, &styles->card, 0);
 196              		.loc 1 234 16 view .LVU45
 197 00c2 0128     		cmp	r0, #1
 235:Drivers/lvgl/src/extra/themes/mono/lv_theme_mono.c ****             lv_obj_add_style(obj, &styles->no_radius, 0);
 198              		.loc 1 235 42 view .LVU46
 199 00c4 994D     		ldr	r5, .L66+8
 234:Drivers/lvgl/src/extra/themes/mono/lv_theme_mono.c ****             lv_obj_add_style(obj, &styles->card, 0);
 200              		.loc 1 234 16 view .LVU47
 201 00c6 00F04B81 		beq	.L62
 202              	.L8:
 241:Drivers/lvgl/src/extra/themes/mono/lv_theme_mono.c ****         lv_obj_add_style(obj, &styles->scrollbar, LV_PART_SCROLLBAR);
 203              		.loc 1 241 9 is_stmt 1 view .LVU48
 204 00ca 2968     		ldr	r1, [r5]
 205 00cc 0022     		movs	r2, #0
 206 00ce 2046     		mov	r0, r4
 207 00d0 0831     		adds	r1, r1, #8
 208              	.LVL21:
 209              	.L46:
 241:Drivers/lvgl/src/extra/themes/mono/lv_theme_mono.c ****         lv_obj_add_style(obj, &styles->scrollbar, LV_PART_SCROLLBAR);
 210              		.loc 1 241 9 is_stmt 0 view .LVU49
 211 00d2 FFF7FEFF 		bl	lv_obj_add_style
 212              	.LVL22:
 242:Drivers/lvgl/src/extra/themes/mono/lv_theme_mono.c ****     }
 213              		.loc 1 242 9 is_stmt 1 view .LVU50
 214 00d6 2968     		ldr	r1, [r5]
 215 00d8 4FF48032 		mov	r2, #65536
 216 00dc 1031     		adds	r1, r1, #16
 217 00de 2046     		mov	r0, r4
 218              	.LBE70:
 219              		.loc 1 488 1 is_stmt 0 view .LVU51
 220 00e0 03B0     		add	sp, sp, #12
 221              		.cfi_remember_state
 222              		.cfi_def_cfa_offset 20
 223              		@ sp needed
 224 00e2 BDE8F040 		pop	{r4, r5, r6, r7, lr}
 225              		.cfi_restore 14
ARM GAS  /var/folders/0z/tsy30v1j4xl4_7kw94k978ww0000gn/T//ccM2UjO5.s 			page 14


 226              		.cfi_restore 7
 227              		.cfi_restore 6
 228              		.cfi_restore 5
 229              		.cfi_restore 4
 230              		.cfi_def_cfa_offset 0
 231              	.LVL23:
 485:Drivers/lvgl/src/extra/themes/mono/lv_theme_mono.c ****     }
 232              		.loc 1 485 9 view .LVU52
 233 00e6 FFF7FEBF 		b	lv_obj_add_style
 234              	.LVL24:
 235              	.L33:
 236              		.cfi_restore_state
 484:Drivers/lvgl/src/extra/themes/mono/lv_theme_mono.c ****         lv_obj_add_style(obj, &styles->card, 0);
 237              		.loc 1 484 10 is_stmt 1 view .LVU53
 484:Drivers/lvgl/src/extra/themes/mono/lv_theme_mono.c ****         lv_obj_add_style(obj, &styles->card, 0);
 238              		.loc 1 484 13 is_stmt 0 view .LVU54
 239 00ea 9349     		ldr	r1, .L66+20
 240 00ec 2046     		mov	r0, r4
 241 00ee FFF7FEFF 		bl	lv_obj_check_type
 242              	.LVL25:
 484:Drivers/lvgl/src/extra/themes/mono/lv_theme_mono.c ****         lv_obj_add_style(obj, &styles->card, 0);
 243              		.loc 1 484 12 view .LVU55
 244 00f2 0028     		cmp	r0, #0
 245 00f4 40F07882 		bne	.L45
 246              	.L1:
 247              		.loc 1 488 1 view .LVU56
 248 00f8 03B0     		add	sp, sp, #12
 249              		.cfi_remember_state
 250              		.cfi_def_cfa_offset 20
 251              		@ sp needed
 252 00fa F0BD     		pop	{r4, r5, r6, r7, pc}
 253              	.LVL26:
 254              	.L9:
 255              		.cfi_restore_state
 256:Drivers/lvgl/src/extra/themes/mono/lv_theme_mono.c **** #if LV_USE_MSGBOX
 256              		.loc 1 256 10 is_stmt 1 view .LVU57
 256:Drivers/lvgl/src/extra/themes/mono/lv_theme_mono.c **** #if LV_USE_MSGBOX
 257              		.loc 1 256 13 is_stmt 0 view .LVU58
 258 00fc 8F49     		ldr	r1, .L66+24
 259 00fe 2046     		mov	r0, r4
 260 0100 FFF7FEFF 		bl	lv_obj_check_type
 261              	.LVL27:
 256:Drivers/lvgl/src/extra/themes/mono/lv_theme_mono.c **** #if LV_USE_MSGBOX
 262              		.loc 1 256 12 view .LVU59
 263 0104 0546     		mov	r5, r0
 264 0106 0028     		cmp	r0, #0
 265 0108 43D0     		beq	.L10
 258:Drivers/lvgl/src/extra/themes/mono/lv_theme_mono.c ****             lv_obj_add_style(obj, &styles->pad_gap, 0);
 266              		.loc 1 258 9 is_stmt 1 view .LVU60
 258:Drivers/lvgl/src/extra/themes/mono/lv_theme_mono.c ****             lv_obj_add_style(obj, &styles->pad_gap, 0);
 267              		.loc 1 258 30 is_stmt 0 view .LVU61
 268 010a 2046     		mov	r0, r4
 269 010c FFF7FEFF 		bl	lv_obj_get_parent
 270              	.LVL28:
 258:Drivers/lvgl/src/extra/themes/mono/lv_theme_mono.c ****             lv_obj_add_style(obj, &styles->pad_gap, 0);
 271              		.loc 1 258 12 view .LVU62
 272 0110 8B49     		ldr	r1, .L66+28
ARM GAS  /var/folders/0z/tsy30v1j4xl4_7kw94k978ww0000gn/T//ccM2UjO5.s 			page 15


 273 0112 FFF7FEFF 		bl	lv_obj_check_type
 274              	.LVL29:
 258:Drivers/lvgl/src/extra/themes/mono/lv_theme_mono.c ****             lv_obj_add_style(obj, &styles->pad_gap, 0);
 275              		.loc 1 258 11 view .LVU63
 276 0116 0546     		mov	r5, r0
 277 0118 0028     		cmp	r0, #0
 278 011a 40F03581 		bne	.L63
 269:Drivers/lvgl/src/extra/themes/mono/lv_theme_mono.c ****             lv_obj_add_style(obj, &styles->pad_gap, 0);
 279              		.loc 1 269 9 is_stmt 1 view .LVU64
 269:Drivers/lvgl/src/extra/themes/mono/lv_theme_mono.c ****             lv_obj_add_style(obj, &styles->pad_gap, 0);
 280              		.loc 1 269 30 is_stmt 0 view .LVU65
 281 011e 2046     		mov	r0, r4
 282 0120 FFF7FEFF 		bl	lv_obj_get_parent
 283              	.LVL30:
 269:Drivers/lvgl/src/extra/themes/mono/lv_theme_mono.c ****             lv_obj_add_style(obj, &styles->pad_gap, 0);
 284              		.loc 1 269 12 view .LVU66
 285 0124 8249     		ldr	r1, .L66+12
 286 0126 FFF7FEFF 		bl	lv_obj_check_type
 287              	.LVL31:
 269:Drivers/lvgl/src/extra/themes/mono/lv_theme_mono.c ****             lv_obj_add_style(obj, &styles->pad_gap, 0);
 288              		.loc 1 269 11 view .LVU67
 289 012a 0246     		mov	r2, r0
 290 012c 0028     		cmp	r0, #0
 291 012e 40F0C780 		bne	.L64
 281:Drivers/lvgl/src/extra/themes/mono/lv_theme_mono.c ****         lv_obj_add_style(obj, &styles->focus, LV_STATE_FOCUS_KEY);
 292              		.loc 1 281 9 is_stmt 1 view .LVU68
 281:Drivers/lvgl/src/extra/themes/mono/lv_theme_mono.c ****         lv_obj_add_style(obj, &styles->focus, LV_STATE_FOCUS_KEY);
 293              		.loc 1 281 38 is_stmt 0 view .LVU69
 294 0132 7E4D     		ldr	r5, .L66+8
 281:Drivers/lvgl/src/extra/themes/mono/lv_theme_mono.c ****         lv_obj_add_style(obj, &styles->focus, LV_STATE_FOCUS_KEY);
 295              		.loc 1 281 9 view .LVU70
 296 0134 2968     		ldr	r1, [r5]
 297 0136 2046     		mov	r0, r4
 298 0138 0831     		adds	r1, r1, #8
 299 013a FFF7FEFF 		bl	lv_obj_add_style
 300              	.LVL32:
 282:Drivers/lvgl/src/extra/themes/mono/lv_theme_mono.c ****         lv_obj_add_style(obj, &styles->card, LV_PART_ITEMS);
 301              		.loc 1 282 9 is_stmt 1 view .LVU71
 302 013e 2968     		ldr	r1, [r5]
 303 0140 0422     		movs	r2, #4
 304 0142 3831     		adds	r1, r1, #56
 305 0144 2046     		mov	r0, r4
 306 0146 FFF7FEFF 		bl	lv_obj_add_style
 307              	.LVL33:
 283:Drivers/lvgl/src/extra/themes/mono/lv_theme_mono.c ****         lv_obj_add_style(obj, &styles->pr, LV_PART_ITEMS | LV_STATE_PRESSED);
 308              		.loc 1 283 9 view .LVU72
 309 014a 2968     		ldr	r1, [r5]
 310 014c 4FF4A022 		mov	r2, #327680
 311 0150 0831     		adds	r1, r1, #8
 312 0152 2046     		mov	r0, r4
 313 0154 FFF7FEFF 		bl	lv_obj_add_style
 314              	.LVL34:
 284:Drivers/lvgl/src/extra/themes/mono/lv_theme_mono.c ****         lv_obj_add_style(obj, &styles->inv, LV_PART_ITEMS | LV_STATE_CHECKED);
 315              		.loc 1 284 9 view .LVU73
 316 0158 2968     		ldr	r1, [r5]
 317 015a 7A4A     		ldr	r2, .L66+32
 318 015c 2031     		adds	r1, r1, #32
ARM GAS  /var/folders/0z/tsy30v1j4xl4_7kw94k978ww0000gn/T//ccM2UjO5.s 			page 16


 319 015e 2046     		mov	r0, r4
 320 0160 FFF7FEFF 		bl	lv_obj_add_style
 321              	.LVL35:
 285:Drivers/lvgl/src/extra/themes/mono/lv_theme_mono.c ****         lv_obj_add_style(obj, &styles->disabled, LV_PART_ITEMS | LV_STATE_DISABLED);
 322              		.loc 1 285 9 view .LVU74
 323 0164 2968     		ldr	r1, [r5]
 324 0166 784A     		ldr	r2, .L66+36
 325 0168 2831     		adds	r1, r1, #40
 326              	.L55:
 327 016a 2046     		mov	r0, r4
 328 016c FFF7FEFF 		bl	lv_obj_add_style
 329              	.LVL36:
 286:Drivers/lvgl/src/extra/themes/mono/lv_theme_mono.c ****         lv_obj_add_style(obj, &styles->underline, LV_PART_ITEMS | LV_STATE_FOCUS_KEY);
 330              		.loc 1 286 9 view .LVU75
 331 0170 2968     		ldr	r1, [r5]
 332 0172 764A     		ldr	r2, .L66+40
 333 0174 3031     		adds	r1, r1, #48
 334 0176 2046     		mov	r0, r4
 335 0178 FFF7FEFF 		bl	lv_obj_add_style
 336              	.LVL37:
 287:Drivers/lvgl/src/extra/themes/mono/lv_theme_mono.c ****         lv_obj_add_style(obj, &styles->large_border, LV_PART_ITEMS | LV_STATE_FOCUS_KEY);
 337              		.loc 1 287 9 view .LVU76
 338 017c 2968     		ldr	r1, [r5]
 339 017e 744A     		ldr	r2, .L66+44
 340 0180 7831     		adds	r1, r1, #120
 341              	.L50:
 426:Drivers/lvgl/src/extra/themes/mono/lv_theme_mono.c ****         lv_obj_add_style(obj, &styles->large_border, LV_PART_ITEMS | LV_STATE_FOCUS_KEY);
 342              		.loc 1 426 9 is_stmt 0 view .LVU77
 343 0182 2046     		mov	r0, r4
 344 0184 FFF7FEFF 		bl	lv_obj_add_style
 345              	.LVL38:
 427:Drivers/lvgl/src/extra/themes/mono/lv_theme_mono.c ****     }
 346              		.loc 1 427 9 is_stmt 1 view .LVU78
 347 0188 2968     		ldr	r1, [r5]
 348 018a 714A     		ldr	r2, .L66+44
 349 018c 6831     		adds	r1, r1, #104
 350 018e 2046     		mov	r0, r4
 351 0190 6FE7     		b	.L44
 352              	.L10:
 293:Drivers/lvgl/src/extra/themes/mono/lv_theme_mono.c ****         lv_obj_add_style(obj, &styles->card, 0);
 353              		.loc 1 293 10 view .LVU79
 293:Drivers/lvgl/src/extra/themes/mono/lv_theme_mono.c ****         lv_obj_add_style(obj, &styles->card, 0);
 354              		.loc 1 293 13 is_stmt 0 view .LVU80
 355 0192 7049     		ldr	r1, .L66+48
 356 0194 2046     		mov	r0, r4
 357 0196 FFF7FEFF 		bl	lv_obj_check_type
 358              	.LVL39:
 293:Drivers/lvgl/src/extra/themes/mono/lv_theme_mono.c ****         lv_obj_add_style(obj, &styles->card, 0);
 359              		.loc 1 293 12 view .LVU81
 360 019a 0646     		mov	r6, r0
 361 019c 80B3     		cbz	r0, .L13
 294:Drivers/lvgl/src/extra/themes/mono/lv_theme_mono.c ****         lv_obj_add_style(obj, &styles->pad_zero, 0);
 362              		.loc 1 294 9 is_stmt 1 view .LVU82
 294:Drivers/lvgl/src/extra/themes/mono/lv_theme_mono.c ****         lv_obj_add_style(obj, &styles->pad_zero, 0);
 363              		.loc 1 294 38 is_stmt 0 view .LVU83
 364 019e 634E     		ldr	r6, .L66+8
 294:Drivers/lvgl/src/extra/themes/mono/lv_theme_mono.c ****         lv_obj_add_style(obj, &styles->pad_zero, 0);
ARM GAS  /var/folders/0z/tsy30v1j4xl4_7kw94k978ww0000gn/T//ccM2UjO5.s 			page 17


 365              		.loc 1 294 9 view .LVU84
 366 01a0 3168     		ldr	r1, [r6]
 367 01a2 2A46     		mov	r2, r5
 368 01a4 0831     		adds	r1, r1, #8
 369 01a6 2046     		mov	r0, r4
 370 01a8 FFF7FEFF 		bl	lv_obj_add_style
 371              	.LVL40:
 295:Drivers/lvgl/src/extra/themes/mono/lv_theme_mono.c ****         lv_obj_add_style(obj, &styles->inv, LV_PART_INDICATOR);
 372              		.loc 1 295 9 is_stmt 1 view .LVU85
 373 01ac 3168     		ldr	r1, [r6]
 374 01ae 2A46     		mov	r2, r5
 375 01b0 5031     		adds	r1, r1, #80
 376 01b2 2046     		mov	r0, r4
 377 01b4 FFF7FEFF 		bl	lv_obj_add_style
 378              	.LVL41:
 296:Drivers/lvgl/src/extra/themes/mono/lv_theme_mono.c ****         lv_obj_add_style(obj, &styles->focus, LV_STATE_FOCUS_KEY);
 379              		.loc 1 296 9 view .LVU86
 380 01b8 3168     		ldr	r1, [r6]
 381 01ba 4FF40032 		mov	r2, #131072
 382 01be 2831     		adds	r1, r1, #40
 383 01c0 2046     		mov	r0, r4
 384 01c2 FFF7FEFF 		bl	lv_obj_add_style
 385              	.LVL42:
 297:Drivers/lvgl/src/extra/themes/mono/lv_theme_mono.c ****     }
 386              		.loc 1 297 9 view .LVU87
 387 01c6 3168     		ldr	r1, [r6]
 388 01c8 0422     		movs	r2, #4
 389 01ca 3831     		adds	r1, r1, #56
 390 01cc 2046     		mov	r0, r4
 391 01ce 50E7     		b	.L44
 392              	.LVL43:
 393              	.L60:
 394              	.LBB71:
 219:Drivers/lvgl/src/extra/themes/mono/lv_theme_mono.c ****             lv_obj_add_style(obj, &styles->no_radius, 0);
 395              		.loc 1 219 13 view .LVU88
 219:Drivers/lvgl/src/extra/themes/mono/lv_theme_mono.c ****             lv_obj_add_style(obj, &styles->no_radius, 0);
 396              		.loc 1 219 42 is_stmt 0 view .LVU89
 397 01d0 564E     		ldr	r6, .L66+8
 398              	.LVL44:
 219:Drivers/lvgl/src/extra/themes/mono/lv_theme_mono.c ****             lv_obj_add_style(obj, &styles->no_radius, 0);
 399              		.loc 1 219 13 view .LVU90
 400 01d2 3168     		ldr	r1, [r6]
 401 01d4 2A46     		mov	r2, r5
 402 01d6 0831     		adds	r1, r1, #8
 403 01d8 2046     		mov	r0, r4
 404 01da FFF7FEFF 		bl	lv_obj_add_style
 405              	.LVL45:
 220:Drivers/lvgl/src/extra/themes/mono/lv_theme_mono.c ****             lv_obj_add_style(obj, &styles->scrollbar, LV_PART_SCROLLBAR);
 406              		.loc 1 220 13 is_stmt 1 view .LVU91
 407 01de 3168     		ldr	r1, [r6]
 408 01e0 2A46     		mov	r2, r5
 409 01e2 5831     		adds	r1, r1, #88
 410              	.L47:
 220:Drivers/lvgl/src/extra/themes/mono/lv_theme_mono.c ****             lv_obj_add_style(obj, &styles->scrollbar, LV_PART_SCROLLBAR);
 411              		.loc 1 220 13 is_stmt 0 view .LVU92
 412              	.LBE71:
 475:Drivers/lvgl/src/extra/themes/mono/lv_theme_mono.c ****         lv_obj_add_style(obj, &styles->scrollbar, LV_PART_SCROLLBAR);
ARM GAS  /var/folders/0z/tsy30v1j4xl4_7kw94k978ww0000gn/T//ccM2UjO5.s 			page 18


 413              		.loc 1 475 9 view .LVU93
 414 01e4 2046     		mov	r0, r4
 415              	.LVL46:
 416              	.L48:
 475:Drivers/lvgl/src/extra/themes/mono/lv_theme_mono.c ****         lv_obj_add_style(obj, &styles->scrollbar, LV_PART_SCROLLBAR);
 417              		.loc 1 475 9 view .LVU94
 418 01e6 FFF7FEFF 		bl	lv_obj_add_style
 419              	.LVL47:
 476:Drivers/lvgl/src/extra/themes/mono/lv_theme_mono.c ****     }
 420              		.loc 1 476 9 is_stmt 1 view .LVU95
 421 01ea 3168     		ldr	r1, [r6]
 422 01ec 4FF48032 		mov	r2, #65536
 423 01f0 1031     		adds	r1, r1, #16
 424 01f2 2046     		mov	r0, r4
 425 01f4 3DE7     		b	.L44
 426              	.L58:
 205:Drivers/lvgl/src/extra/themes/mono/lv_theme_mono.c ****         lv_obj_add_style(obj, &styles->scrollbar, LV_PART_SCROLLBAR);
 427              		.loc 1 205 9 view .LVU96
 205:Drivers/lvgl/src/extra/themes/mono/lv_theme_mono.c ****         lv_obj_add_style(obj, &styles->scrollbar, LV_PART_SCROLLBAR);
 428              		.loc 1 205 38 is_stmt 0 view .LVU97
 429 01f6 4D4D     		ldr	r5, .L66+8
 205:Drivers/lvgl/src/extra/themes/mono/lv_theme_mono.c ****         lv_obj_add_style(obj, &styles->scrollbar, LV_PART_SCROLLBAR);
 430              		.loc 1 205 9 view .LVU98
 431 01f8 0246     		mov	r2, r0
 432 01fa 2968     		ldr	r1, [r5]
 433 01fc 2046     		mov	r0, r4
 434 01fe 68E7     		b	.L46
 435              	.L13:
 302:Drivers/lvgl/src/extra/themes/mono/lv_theme_mono.c ****         lv_obj_add_style(obj, &styles->card, 0);
 436              		.loc 1 302 10 is_stmt 1 view .LVU99
 302:Drivers/lvgl/src/extra/themes/mono/lv_theme_mono.c ****         lv_obj_add_style(obj, &styles->card, 0);
 437              		.loc 1 302 13 is_stmt 0 view .LVU100
 438 0200 5549     		ldr	r1, .L66+52
 439 0202 2046     		mov	r0, r4
 440 0204 FFF7FEFF 		bl	lv_obj_check_type
 441              	.LVL48:
 302:Drivers/lvgl/src/extra/themes/mono/lv_theme_mono.c ****         lv_obj_add_style(obj, &styles->card, 0);
 442              		.loc 1 302 12 view .LVU101
 443 0208 28B3     		cbz	r0, .L14
 303:Drivers/lvgl/src/extra/themes/mono/lv_theme_mono.c ****         lv_obj_add_style(obj, &styles->pad_zero, 0);
 444              		.loc 1 303 9 is_stmt 1 view .LVU102
 303:Drivers/lvgl/src/extra/themes/mono/lv_theme_mono.c ****         lv_obj_add_style(obj, &styles->pad_zero, 0);
 445              		.loc 1 303 38 is_stmt 0 view .LVU103
 446 020a 484D     		ldr	r5, .L66+8
 303:Drivers/lvgl/src/extra/themes/mono/lv_theme_mono.c ****         lv_obj_add_style(obj, &styles->pad_zero, 0);
 447              		.loc 1 303 9 view .LVU104
 448 020c 2968     		ldr	r1, [r5]
 449 020e 3246     		mov	r2, r6
 450 0210 0831     		adds	r1, r1, #8
 451 0212 2046     		mov	r0, r4
 452 0214 FFF7FEFF 		bl	lv_obj_add_style
 453              	.LVL49:
 304:Drivers/lvgl/src/extra/themes/mono/lv_theme_mono.c ****         lv_obj_add_style(obj, &styles->inv, LV_PART_INDICATOR);
 454              		.loc 1 304 9 is_stmt 1 view .LVU105
 455 0218 2968     		ldr	r1, [r5]
 456 021a 3246     		mov	r2, r6
 457 021c 5031     		adds	r1, r1, #80
ARM GAS  /var/folders/0z/tsy30v1j4xl4_7kw94k978ww0000gn/T//ccM2UjO5.s 			page 19


 458 021e 2046     		mov	r0, r4
 459 0220 FFF7FEFF 		bl	lv_obj_add_style
 460              	.LVL50:
 305:Drivers/lvgl/src/extra/themes/mono/lv_theme_mono.c ****         lv_obj_add_style(obj, &styles->card, LV_PART_KNOB);
 461              		.loc 1 305 9 view .LVU106
 462 0224 2968     		ldr	r1, [r5]
 463 0226 4FF40032 		mov	r2, #131072
 464 022a 2831     		adds	r1, r1, #40
 465              	.L56:
 395:Drivers/lvgl/src/extra/themes/mono/lv_theme_mono.c ****         lv_obj_add_style(obj, &styles->card, LV_PART_KNOB);
 466              		.loc 1 395 9 is_stmt 0 view .LVU107
 467 022c 2046     		mov	r0, r4
 468 022e FFF7FEFF 		bl	lv_obj_add_style
 469              	.LVL51:
 396:Drivers/lvgl/src/extra/themes/mono/lv_theme_mono.c ****         lv_obj_add_style(obj, &styles->radius_circle, LV_PART_KNOB);
 470              		.loc 1 396 9 is_stmt 1 view .LVU108
 471 0232 2968     		ldr	r1, [r5]
 472 0234 4FF44032 		mov	r2, #196608
 473 0238 0831     		adds	r1, r1, #8
 474 023a 2046     		mov	r0, r4
 475 023c FFF7FEFF 		bl	lv_obj_add_style
 476              	.LVL52:
 397:Drivers/lvgl/src/extra/themes/mono/lv_theme_mono.c ****         lv_obj_add_style(obj, &styles->focus, LV_STATE_FOCUS_KEY);
 477              		.loc 1 397 9 view .LVU109
 478 0240 2968     		ldr	r1, [r5]
 479 0242 4FF44032 		mov	r2, #196608
 480 0246 6031     		adds	r1, r1, #96
 481              	.L52:
 468:Drivers/lvgl/src/extra/themes/mono/lv_theme_mono.c ****         lv_obj_add_style(obj, &styles->focus, LV_STATE_FOCUS_KEY);
 482              		.loc 1 468 9 is_stmt 0 view .LVU110
 483 0248 2046     		mov	r0, r4
 484 024a FFF7FEFF 		bl	lv_obj_add_style
 485              	.LVL53:
 469:Drivers/lvgl/src/extra/themes/mono/lv_theme_mono.c ****         lv_obj_add_style(obj, &styles->edit, LV_STATE_EDITED);
 486              		.loc 1 469 9 is_stmt 1 view .LVU111
 487 024e 2968     		ldr	r1, [r5]
 488 0250 0422     		movs	r2, #4
 489              	.L51:
 469:Drivers/lvgl/src/extra/themes/mono/lv_theme_mono.c ****         lv_obj_add_style(obj, &styles->edit, LV_STATE_EDITED);
 490              		.loc 1 469 9 is_stmt 0 view .LVU112
 491 0252 3831     		adds	r1, r1, #56
 492 0254 2CE0     		b	.L53
 493              	.L14:
 314:Drivers/lvgl/src/extra/themes/mono/lv_theme_mono.c ****         lv_obj_add_style(obj, &styles->scrollbar, LV_PART_SCROLLBAR);
 494              		.loc 1 314 10 is_stmt 1 view .LVU113
 314:Drivers/lvgl/src/extra/themes/mono/lv_theme_mono.c ****         lv_obj_add_style(obj, &styles->scrollbar, LV_PART_SCROLLBAR);
 495              		.loc 1 314 13 is_stmt 0 view .LVU114
 496 0256 4149     		ldr	r1, .L66+56
 497 0258 2046     		mov	r0, r4
 498 025a FFF7FEFF 		bl	lv_obj_check_type
 499              	.LVL54:
 314:Drivers/lvgl/src/extra/themes/mono/lv_theme_mono.c ****         lv_obj_add_style(obj, &styles->scrollbar, LV_PART_SCROLLBAR);
 500              		.loc 1 314 12 view .LVU115
 501 025e 0546     		mov	r5, r0
 502 0260 0028     		cmp	r0, #0
 503 0262 00F0AF80 		beq	.L15
 315:Drivers/lvgl/src/extra/themes/mono/lv_theme_mono.c ****         lv_obj_add_style(obj, &styles->card, LV_PART_ITEMS);
ARM GAS  /var/folders/0z/tsy30v1j4xl4_7kw94k978ww0000gn/T//ccM2UjO5.s 			page 20


 504              		.loc 1 315 9 is_stmt 1 view .LVU116
 315:Drivers/lvgl/src/extra/themes/mono/lv_theme_mono.c ****         lv_obj_add_style(obj, &styles->card, LV_PART_ITEMS);
 505              		.loc 1 315 38 is_stmt 0 view .LVU117
 506 0266 314D     		ldr	r5, .L66+8
 315:Drivers/lvgl/src/extra/themes/mono/lv_theme_mono.c ****         lv_obj_add_style(obj, &styles->card, LV_PART_ITEMS);
 507              		.loc 1 315 9 view .LVU118
 508 0268 2968     		ldr	r1, [r5]
 509 026a 4FF48032 		mov	r2, #65536
 510 026e 2046     		mov	r0, r4
 511 0270 1031     		adds	r1, r1, #16
 512 0272 FFF7FEFF 		bl	lv_obj_add_style
 513              	.LVL55:
 316:Drivers/lvgl/src/extra/themes/mono/lv_theme_mono.c ****         lv_obj_add_style(obj, &styles->no_radius, LV_PART_ITEMS);
 514              		.loc 1 316 9 is_stmt 1 view .LVU119
 515 0276 2968     		ldr	r1, [r5]
 516 0278 4FF4A022 		mov	r2, #327680
 517 027c 0831     		adds	r1, r1, #8
 518 027e 2046     		mov	r0, r4
 519 0280 FFF7FEFF 		bl	lv_obj_add_style
 520              	.LVL56:
 317:Drivers/lvgl/src/extra/themes/mono/lv_theme_mono.c ****         lv_obj_add_style(obj, &styles->pr, LV_PART_ITEMS | LV_STATE_PRESSED);
 521              		.loc 1 317 9 view .LVU120
 522 0284 2968     		ldr	r1, [r5]
 523 0286 4FF4A022 		mov	r2, #327680
 524 028a 5831     		adds	r1, r1, #88
 525 028c 2046     		mov	r0, r4
 526 028e FFF7FEFF 		bl	lv_obj_add_style
 527              	.LVL57:
 318:Drivers/lvgl/src/extra/themes/mono/lv_theme_mono.c ****         lv_obj_add_style(obj, &styles->focus, LV_STATE_FOCUS_KEY);
 528              		.loc 1 318 9 view .LVU121
 529 0292 2968     		ldr	r1, [r5]
 530 0294 2B4A     		ldr	r2, .L66+32
 531 0296 2031     		adds	r1, r1, #32
 532 0298 2046     		mov	r0, r4
 533 029a FFF7FEFF 		bl	lv_obj_add_style
 534              	.LVL58:
 319:Drivers/lvgl/src/extra/themes/mono/lv_theme_mono.c ****         lv_obj_add_style(obj, &styles->inv, LV_PART_ITEMS | LV_STATE_FOCUS_KEY);
 535              		.loc 1 319 9 view .LVU122
 536 029e 2968     		ldr	r1, [r5]
 537 02a0 0422     		movs	r2, #4
 538 02a2 3831     		adds	r1, r1, #56
 539 02a4 2046     		mov	r0, r4
 540 02a6 FFF7FEFF 		bl	lv_obj_add_style
 541              	.LVL59:
 320:Drivers/lvgl/src/extra/themes/mono/lv_theme_mono.c ****         lv_obj_add_style(obj, &styles->edit, LV_STATE_EDITED);
 542              		.loc 1 320 9 view .LVU123
 543 02aa 2968     		ldr	r1, [r5]
 544 02ac 284A     		ldr	r2, .L66+44
 545 02ae 2831     		adds	r1, r1, #40
 546              	.L53:
 469:Drivers/lvgl/src/extra/themes/mono/lv_theme_mono.c ****         lv_obj_add_style(obj, &styles->edit, LV_STATE_EDITED);
 547              		.loc 1 469 9 is_stmt 0 view .LVU124
 548 02b0 2046     		mov	r0, r4
 549 02b2 FFF7FEFF 		bl	lv_obj_add_style
 550              	.LVL60:
 470:Drivers/lvgl/src/extra/themes/mono/lv_theme_mono.c ****     }
 551              		.loc 1 470 9 is_stmt 1 view .LVU125
ARM GAS  /var/folders/0z/tsy30v1j4xl4_7kw94k978ww0000gn/T//ccM2UjO5.s 			page 21


 552 02b6 2968     		ldr	r1, [r5]
 553 02b8 0822     		movs	r2, #8
 554 02ba 4031     		adds	r1, r1, #64
 555 02bc 2046     		mov	r0, r4
 556 02be D8E6     		b	.L44
 557              	.L64:
 270:Drivers/lvgl/src/extra/themes/mono/lv_theme_mono.c ****             lv_obj_add_style(obj, &styles->card, LV_PART_ITEMS);
 558              		.loc 1 270 13 view .LVU126
 270:Drivers/lvgl/src/extra/themes/mono/lv_theme_mono.c ****             lv_obj_add_style(obj, &styles->card, LV_PART_ITEMS);
 559              		.loc 1 270 42 is_stmt 0 view .LVU127
 560 02c0 1A4E     		ldr	r6, .L66+8
 270:Drivers/lvgl/src/extra/themes/mono/lv_theme_mono.c ****             lv_obj_add_style(obj, &styles->card, LV_PART_ITEMS);
 561              		.loc 1 270 13 view .LVU128
 562 02c2 3168     		ldr	r1, [r6]
 563 02c4 2A46     		mov	r2, r5
 564 02c6 2046     		mov	r0, r4
 565 02c8 4831     		adds	r1, r1, #72
 566 02ca FFF7FEFF 		bl	lv_obj_add_style
 567              	.LVL61:
 271:Drivers/lvgl/src/extra/themes/mono/lv_theme_mono.c ****             lv_obj_add_style(obj, &styles->pr, LV_PART_ITEMS | LV_STATE_PRESSED);
 568              		.loc 1 271 13 is_stmt 1 view .LVU129
 569 02ce 3168     		ldr	r1, [r6]
 570 02d0 4FF4A022 		mov	r2, #327680
 571 02d4 0831     		adds	r1, r1, #8
 572 02d6 2046     		mov	r0, r4
 573 02d8 FFF7FEFF 		bl	lv_obj_add_style
 574              	.LVL62:
 272:Drivers/lvgl/src/extra/themes/mono/lv_theme_mono.c ****             lv_obj_add_style(obj, &styles->inv, LV_PART_ITEMS | LV_STATE_CHECKED);
 575              		.loc 1 272 13 view .LVU130
 576 02dc 3168     		ldr	r1, [r6]
 577 02de 194A     		ldr	r2, .L66+32
 578 02e0 2031     		adds	r1, r1, #32
 579 02e2 2046     		mov	r0, r4
 580 02e4 FFF7FEFF 		bl	lv_obj_add_style
 581              	.LVL63:
 273:Drivers/lvgl/src/extra/themes/mono/lv_theme_mono.c ****             lv_obj_add_style(obj, &styles->disabled, LV_PART_ITEMS | LV_STATE_DISABLED);
 582              		.loc 1 273 13 view .LVU131
 583 02e8 3168     		ldr	r1, [r6]
 584 02ea 174A     		ldr	r2, .L66+36
 585 02ec 2831     		adds	r1, r1, #40
 586 02ee 2046     		mov	r0, r4
 587 02f0 FFF7FEFF 		bl	lv_obj_add_style
 588              	.LVL64:
 274:Drivers/lvgl/src/extra/themes/mono/lv_theme_mono.c ****             lv_obj_add_style(obj, &styles->focus, LV_STATE_FOCUS_KEY);
 589              		.loc 1 274 13 view .LVU132
 590 02f4 3168     		ldr	r1, [r6]
 591 02f6 154A     		ldr	r2, .L66+40
 592 02f8 3031     		adds	r1, r1, #48
 593 02fa 2046     		mov	r0, r4
 594 02fc FFF7FEFF 		bl	lv_obj_add_style
 595              	.LVL65:
 275:Drivers/lvgl/src/extra/themes/mono/lv_theme_mono.c ****             lv_obj_add_style(obj, &styles->underline, LV_PART_ITEMS | LV_STATE_FOCUS_KEY);
 596              		.loc 1 275 13 view .LVU133
 597 0300 3168     		ldr	r1, [r6]
 598 0302 0422     		movs	r2, #4
 599 0304 3831     		adds	r1, r1, #56
 600 0306 2046     		mov	r0, r4
ARM GAS  /var/folders/0z/tsy30v1j4xl4_7kw94k978ww0000gn/T//ccM2UjO5.s 			page 22


 601 0308 FFF7FEFF 		bl	lv_obj_add_style
 602              	.LVL66:
 276:Drivers/lvgl/src/extra/themes/mono/lv_theme_mono.c ****             lv_obj_add_style(obj, &styles->large_border, LV_PART_ITEMS | LV_STATE_FOCUS_KEY);
 603              		.loc 1 276 13 view .LVU134
 604 030c 3168     		ldr	r1, [r6]
 605 030e 104A     		ldr	r2, .L66+44
 606 0310 7831     		adds	r1, r1, #120
 607 0312 2046     		mov	r0, r4
 608 0314 FFF7FEFF 		bl	lv_obj_add_style
 609              	.LVL67:
 277:Drivers/lvgl/src/extra/themes/mono/lv_theme_mono.c ****             return;
 610              		.loc 1 277 13 view .LVU135
 611 0318 3168     		ldr	r1, [r6]
 612 031a 0D4A     		ldr	r2, .L66+44
 613 031c 6831     		adds	r1, r1, #104
 614 031e 2046     		mov	r0, r4
 615 0320 A7E6     		b	.L44
 616              	.L67:
 617 0322 00BF     		.align	2
 618              	.L66:
 619 0324 00000000 		.word	lv_obj_class
 620 0328 00000000 		.word	lv_btn_class
 621 032c 00000000 		.word	.LANCHOR0
 622 0330 00000000 		.word	lv_tabview_class
 623 0334 00000000 		.word	lv_win_class
 624 0338 00000000 		.word	lv_led_class
 625 033c 00000000 		.word	lv_btnmatrix_class
 626 0340 00000000 		.word	lv_msgbox_class
 627 0344 20000500 		.word	327712
 628 0348 01000500 		.word	327681
 629 034c 80000500 		.word	327808
 630 0350 04000500 		.word	327684
 631 0354 00000000 		.word	lv_bar_class
 632 0358 00000000 		.word	lv_slider_class
 633 035c 00000000 		.word	lv_table_class
 634              	.LVL68:
 635              	.L62:
 636              	.LBB72:
 234:Drivers/lvgl/src/extra/themes/mono/lv_theme_mono.c ****             lv_obj_add_style(obj, &styles->card, 0);
 637              		.loc 1 234 65 is_stmt 0 discriminator 1 view .LVU136
 638 0360 2046     		mov	r0, r4
 639 0362 FFF7FEFF 		bl	lv_obj_get_parent
 640              	.LVL69:
 234:Drivers/lvgl/src/extra/themes/mono/lv_theme_mono.c ****             lv_obj_add_style(obj, &styles->card, 0);
 641              		.loc 1 234 47 discriminator 1 view .LVU137
 642 0366 B949     		ldr	r1, .L68
 643 0368 FFF7FEFF 		bl	lv_obj_check_type
 644              	.LVL70:
 234:Drivers/lvgl/src/extra/themes/mono/lv_theme_mono.c ****             lv_obj_add_style(obj, &styles->card, 0);
 645              		.loc 1 234 44 discriminator 1 view .LVU138
 646 036c 0028     		cmp	r0, #0
 647 036e 3FF4ACAE 		beq	.L8
 235:Drivers/lvgl/src/extra/themes/mono/lv_theme_mono.c ****             lv_obj_add_style(obj, &styles->no_radius, 0);
 648              		.loc 1 235 13 is_stmt 1 view .LVU139
 649 0372 2968     		ldr	r1, [r5]
 650 0374 0022     		movs	r2, #0
 651 0376 2046     		mov	r0, r4
ARM GAS  /var/folders/0z/tsy30v1j4xl4_7kw94k978ww0000gn/T//ccM2UjO5.s 			page 23


 652 0378 0831     		adds	r1, r1, #8
 653 037a FFF7FEFF 		bl	lv_obj_add_style
 654              	.LVL71:
 236:Drivers/lvgl/src/extra/themes/mono/lv_theme_mono.c ****             lv_obj_add_style(obj, &styles->scrollbar, LV_PART_SCROLLBAR);
 655              		.loc 1 236 13 view .LVU140
 656 037e 2968     		ldr	r1, [r5]
 657 0380 0022     		movs	r2, #0
 658 0382 5831     		adds	r1, r1, #88
 659 0384 2046     		mov	r0, r4
 660 0386 A4E6     		b	.L46
 661              	.LVL72:
 662              	.L63:
 236:Drivers/lvgl/src/extra/themes/mono/lv_theme_mono.c ****             lv_obj_add_style(obj, &styles->scrollbar, LV_PART_SCROLLBAR);
 663              		.loc 1 236 13 is_stmt 0 view .LVU141
 664              	.LBE72:
 259:Drivers/lvgl/src/extra/themes/mono/lv_theme_mono.c ****             lv_obj_add_style(obj, &styles->card, LV_PART_ITEMS);
 665              		.loc 1 259 13 is_stmt 1 view .LVU142
 259:Drivers/lvgl/src/extra/themes/mono/lv_theme_mono.c ****             lv_obj_add_style(obj, &styles->card, LV_PART_ITEMS);
 666              		.loc 1 259 42 is_stmt 0 view .LVU143
 667 0388 B14D     		ldr	r5, .L68+4
 259:Drivers/lvgl/src/extra/themes/mono/lv_theme_mono.c ****             lv_obj_add_style(obj, &styles->card, LV_PART_ITEMS);
 668              		.loc 1 259 13 view .LVU144
 669 038a 2968     		ldr	r1, [r5]
 670 038c 3246     		mov	r2, r6
 671 038e 2046     		mov	r0, r4
 672 0390 4831     		adds	r1, r1, #72
 673 0392 FFF7FEFF 		bl	lv_obj_add_style
 674              	.LVL73:
 260:Drivers/lvgl/src/extra/themes/mono/lv_theme_mono.c ****             lv_obj_add_style(obj, &styles->pr, LV_PART_ITEMS | LV_STATE_PRESSED);
 675              		.loc 1 260 13 is_stmt 1 view .LVU145
 676 0396 2968     		ldr	r1, [r5]
 677 0398 4FF4A022 		mov	r2, #327680
 678 039c 0831     		adds	r1, r1, #8
 679 039e 2046     		mov	r0, r4
 680 03a0 FFF7FEFF 		bl	lv_obj_add_style
 681              	.LVL74:
 261:Drivers/lvgl/src/extra/themes/mono/lv_theme_mono.c ****             lv_obj_add_style(obj, &styles->disabled, LV_PART_ITEMS | LV_STATE_DISABLED);
 682              		.loc 1 261 13 view .LVU146
 683 03a4 2968     		ldr	r1, [r5]
 684 03a6 AB4A     		ldr	r2, .L68+8
 685 03a8 2031     		adds	r1, r1, #32
 686 03aa DEE6     		b	.L55
 687              	.LVL75:
 688              	.L61:
 689              	.LBB73:
 229:Drivers/lvgl/src/extra/themes/mono/lv_theme_mono.c ****             lv_obj_add_style(obj, &styles->no_radius, 0);
 690              		.loc 1 229 13 view .LVU147
 229:Drivers/lvgl/src/extra/themes/mono/lv_theme_mono.c ****             lv_obj_add_style(obj, &styles->no_radius, 0);
 691              		.loc 1 229 42 is_stmt 0 view .LVU148
 692 03ac A84E     		ldr	r6, .L68+4
 693              	.LVL76:
 229:Drivers/lvgl/src/extra/themes/mono/lv_theme_mono.c ****             lv_obj_add_style(obj, &styles->no_radius, 0);
 694              		.loc 1 229 13 view .LVU149
 695 03ae 3168     		ldr	r1, [r6]
 696 03b0 2A46     		mov	r2, r5
 697 03b2 0831     		adds	r1, r1, #8
 698 03b4 2046     		mov	r0, r4
ARM GAS  /var/folders/0z/tsy30v1j4xl4_7kw94k978ww0000gn/T//ccM2UjO5.s 			page 24


 699 03b6 FFF7FEFF 		bl	lv_obj_add_style
 700              	.LVL77:
 230:Drivers/lvgl/src/extra/themes/mono/lv_theme_mono.c ****             return;
 701              		.loc 1 230 13 is_stmt 1 view .LVU150
 702 03ba 3168     		ldr	r1, [r6]
 703 03bc 2A46     		mov	r2, r5
 704 03be 5831     		adds	r1, r1, #88
 705 03c0 2046     		mov	r0, r4
 706 03c2 56E6     		b	.L44
 707              	.L15:
 230:Drivers/lvgl/src/extra/themes/mono/lv_theme_mono.c ****             return;
 708              		.loc 1 230 13 is_stmt 0 view .LVU151
 709              	.LBE73:
 326:Drivers/lvgl/src/extra/themes/mono/lv_theme_mono.c ****         lv_obj_add_style(obj, &styles->pad_gap, LV_PART_MAIN);
 710              		.loc 1 326 10 is_stmt 1 view .LVU152
 326:Drivers/lvgl/src/extra/themes/mono/lv_theme_mono.c ****         lv_obj_add_style(obj, &styles->pad_gap, LV_PART_MAIN);
 711              		.loc 1 326 13 is_stmt 0 view .LVU153
 712 03c4 A449     		ldr	r1, .L68+12
 713 03c6 2046     		mov	r0, r4
 714 03c8 FFF7FEFF 		bl	lv_obj_check_type
 715              	.LVL78:
 326:Drivers/lvgl/src/extra/themes/mono/lv_theme_mono.c ****         lv_obj_add_style(obj, &styles->pad_gap, LV_PART_MAIN);
 716              		.loc 1 326 12 view .LVU154
 717 03cc 0646     		mov	r6, r0
 718 03ce E8B1     		cbz	r0, .L16
 327:Drivers/lvgl/src/extra/themes/mono/lv_theme_mono.c ****         lv_obj_add_style(obj, &styles->card, LV_PART_INDICATOR);
 719              		.loc 1 327 9 is_stmt 1 view .LVU155
 327:Drivers/lvgl/src/extra/themes/mono/lv_theme_mono.c ****         lv_obj_add_style(obj, &styles->card, LV_PART_INDICATOR);
 720              		.loc 1 327 38 is_stmt 0 view .LVU156
 721 03d0 9F4E     		ldr	r6, .L68+4
 327:Drivers/lvgl/src/extra/themes/mono/lv_theme_mono.c ****         lv_obj_add_style(obj, &styles->card, LV_PART_INDICATOR);
 722              		.loc 1 327 9 view .LVU157
 723 03d2 3168     		ldr	r1, [r6]
 724 03d4 2A46     		mov	r2, r5
 725 03d6 2046     		mov	r0, r4
 726 03d8 4831     		adds	r1, r1, #72
 727 03da FFF7FEFF 		bl	lv_obj_add_style
 728              	.LVL79:
 328:Drivers/lvgl/src/extra/themes/mono/lv_theme_mono.c ****         lv_obj_add_style(obj, &styles->disabled, LV_PART_INDICATOR | LV_STATE_DISABLED);
 729              		.loc 1 328 9 is_stmt 1 view .LVU158
 730 03de 3168     		ldr	r1, [r6]
 731 03e0 4FF40032 		mov	r2, #131072
 732 03e4 0831     		adds	r1, r1, #8
 733 03e6 2046     		mov	r0, r4
 734 03e8 FFF7FEFF 		bl	lv_obj_add_style
 735              	.LVL80:
 329:Drivers/lvgl/src/extra/themes/mono/lv_theme_mono.c ****         lv_obj_add_style(obj, &styles->inv, LV_PART_INDICATOR | LV_STATE_CHECKED);
 736              		.loc 1 329 9 view .LVU159
 737 03ec 3168     		ldr	r1, [r6]
 738 03ee 9B4A     		ldr	r2, .L68+16
 739 03f0 3031     		adds	r1, r1, #48
 740 03f2 2046     		mov	r0, r4
 741 03f4 FFF7FEFF 		bl	lv_obj_add_style
 742              	.LVL81:
 330:Drivers/lvgl/src/extra/themes/mono/lv_theme_mono.c ****         lv_obj_add_style(obj, &styles->pr, LV_PART_INDICATOR | LV_STATE_PRESSED);
 743              		.loc 1 330 9 view .LVU160
 744 03f8 3168     		ldr	r1, [r6]
ARM GAS  /var/folders/0z/tsy30v1j4xl4_7kw94k978ww0000gn/T//ccM2UjO5.s 			page 25


 745 03fa 994A     		ldr	r2, .L68+20
 746 03fc 2831     		adds	r1, r1, #40
 747 03fe 2046     		mov	r0, r4
 748 0400 FFF7FEFF 		bl	lv_obj_add_style
 749              	.LVL82:
 331:Drivers/lvgl/src/extra/themes/mono/lv_theme_mono.c ****         lv_obj_add_style(obj, &styles->focus, LV_STATE_FOCUS_KEY);
 750              		.loc 1 331 9 view .LVU161
 751 0404 3168     		ldr	r1, [r6]
 752 0406 974A     		ldr	r2, .L68+24
 753 0408 2031     		adds	r1, r1, #32
 754 040a 25E6     		b	.L49
 755              	.L16:
 338:Drivers/lvgl/src/extra/themes/mono/lv_theme_mono.c ****         lv_obj_add_style(obj, &styles->card, 0);
 756              		.loc 1 338 10 view .LVU162
 338:Drivers/lvgl/src/extra/themes/mono/lv_theme_mono.c ****         lv_obj_add_style(obj, &styles->card, 0);
 757              		.loc 1 338 13 is_stmt 0 view .LVU163
 758 040c 9649     		ldr	r1, .L68+28
 759 040e 2046     		mov	r0, r4
 760 0410 FFF7FEFF 		bl	lv_obj_check_type
 761              	.LVL83:
 338:Drivers/lvgl/src/extra/themes/mono/lv_theme_mono.c ****         lv_obj_add_style(obj, &styles->card, 0);
 762              		.loc 1 338 12 view .LVU164
 763 0414 98B3     		cbz	r0, .L17
 339:Drivers/lvgl/src/extra/themes/mono/lv_theme_mono.c ****         lv_obj_add_style(obj, &styles->radius_circle, 0);
 764              		.loc 1 339 9 is_stmt 1 view .LVU165
 339:Drivers/lvgl/src/extra/themes/mono/lv_theme_mono.c ****         lv_obj_add_style(obj, &styles->radius_circle, 0);
 765              		.loc 1 339 38 is_stmt 0 view .LVU166
 766 0416 8E4D     		ldr	r5, .L68+4
 339:Drivers/lvgl/src/extra/themes/mono/lv_theme_mono.c ****         lv_obj_add_style(obj, &styles->radius_circle, 0);
 767              		.loc 1 339 9 view .LVU167
 768 0418 2968     		ldr	r1, [r5]
 769 041a 3246     		mov	r2, r6
 770 041c 0831     		adds	r1, r1, #8
 771 041e 2046     		mov	r0, r4
 772 0420 FFF7FEFF 		bl	lv_obj_add_style
 773              	.LVL84:
 340:Drivers/lvgl/src/extra/themes/mono/lv_theme_mono.c ****         lv_obj_add_style(obj, &styles->pad_zero, 0);
 774              		.loc 1 340 9 is_stmt 1 view .LVU168
 775 0424 2968     		ldr	r1, [r5]
 776 0426 3246     		mov	r2, r6
 777 0428 6031     		adds	r1, r1, #96
 778 042a 2046     		mov	r0, r4
 779 042c FFF7FEFF 		bl	lv_obj_add_style
 780              	.LVL85:
 341:Drivers/lvgl/src/extra/themes/mono/lv_theme_mono.c ****         lv_obj_add_style(obj, &styles->inv, LV_PART_INDICATOR);
 781              		.loc 1 341 9 view .LVU169
 782 0430 2968     		ldr	r1, [r5]
 783 0432 3246     		mov	r2, r6
 784 0434 5031     		adds	r1, r1, #80
 785 0436 2046     		mov	r0, r4
 786 0438 FFF7FEFF 		bl	lv_obj_add_style
 787              	.LVL86:
 342:Drivers/lvgl/src/extra/themes/mono/lv_theme_mono.c ****         lv_obj_add_style(obj, &styles->radius_circle, LV_PART_INDICATOR);
 788              		.loc 1 342 9 view .LVU170
 789 043c 2968     		ldr	r1, [r5]
 790 043e 4FF40032 		mov	r2, #131072
 791 0442 2831     		adds	r1, r1, #40
ARM GAS  /var/folders/0z/tsy30v1j4xl4_7kw94k978ww0000gn/T//ccM2UjO5.s 			page 26


 792 0444 2046     		mov	r0, r4
 793 0446 FFF7FEFF 		bl	lv_obj_add_style
 794              	.LVL87:
 343:Drivers/lvgl/src/extra/themes/mono/lv_theme_mono.c ****         lv_obj_add_style(obj, &styles->card, LV_PART_KNOB);
 795              		.loc 1 343 9 view .LVU171
 796 044a 2968     		ldr	r1, [r5]
 797 044c 4FF40032 		mov	r2, #131072
 798 0450 6031     		adds	r1, r1, #96
 799 0452 2046     		mov	r0, r4
 800 0454 FFF7FEFF 		bl	lv_obj_add_style
 801              	.LVL88:
 344:Drivers/lvgl/src/extra/themes/mono/lv_theme_mono.c ****         lv_obj_add_style(obj, &styles->radius_circle, LV_PART_KNOB);
 802              		.loc 1 344 9 view .LVU172
 803 0458 2968     		ldr	r1, [r5]
 804 045a 4FF44032 		mov	r2, #196608
 805 045e 0831     		adds	r1, r1, #8
 806 0460 2046     		mov	r0, r4
 807 0462 FFF7FEFF 		bl	lv_obj_add_style
 808              	.LVL89:
 345:Drivers/lvgl/src/extra/themes/mono/lv_theme_mono.c ****         lv_obj_add_style(obj, &styles->pad_zero, LV_PART_KNOB);
 809              		.loc 1 345 9 view .LVU173
 810 0466 2968     		ldr	r1, [r5]
 811 0468 4FF44032 		mov	r2, #196608
 812 046c 6031     		adds	r1, r1, #96
 813 046e 2046     		mov	r0, r4
 814 0470 FFF7FEFF 		bl	lv_obj_add_style
 815              	.LVL90:
 346:Drivers/lvgl/src/extra/themes/mono/lv_theme_mono.c ****         lv_obj_add_style(obj, &styles->focus, LV_STATE_FOCUS_KEY);
 816              		.loc 1 346 9 view .LVU174
 817 0474 2968     		ldr	r1, [r5]
 818 0476 4FF44032 		mov	r2, #196608
 819 047a 5031     		adds	r1, r1, #80
 820 047c E4E6     		b	.L52
 821              	.L17:
 353:Drivers/lvgl/src/extra/themes/mono/lv_theme_mono.c ****         lv_obj_add_style(obj, &styles->card, 0);
 822              		.loc 1 353 10 view .LVU175
 353:Drivers/lvgl/src/extra/themes/mono/lv_theme_mono.c ****         lv_obj_add_style(obj, &styles->card, 0);
 823              		.loc 1 353 13 is_stmt 0 view .LVU176
 824 047e 7B49     		ldr	r1, .L68+32
 825 0480 2046     		mov	r0, r4
 826 0482 FFF7FEFF 		bl	lv_obj_check_type
 827              	.LVL91:
 353:Drivers/lvgl/src/extra/themes/mono/lv_theme_mono.c ****         lv_obj_add_style(obj, &styles->card, 0);
 828              		.loc 1 353 12 view .LVU177
 829 0486 38B3     		cbz	r0, .L18
 354:Drivers/lvgl/src/extra/themes/mono/lv_theme_mono.c ****         lv_obj_add_style(obj, &styles->scrollbar, LV_PART_SCROLLBAR);
 830              		.loc 1 354 9 is_stmt 1 view .LVU178
 354:Drivers/lvgl/src/extra/themes/mono/lv_theme_mono.c ****         lv_obj_add_style(obj, &styles->scrollbar, LV_PART_SCROLLBAR);
 831              		.loc 1 354 38 is_stmt 0 view .LVU179
 832 0488 714D     		ldr	r5, .L68+4
 354:Drivers/lvgl/src/extra/themes/mono/lv_theme_mono.c ****         lv_obj_add_style(obj, &styles->scrollbar, LV_PART_SCROLLBAR);
 833              		.loc 1 354 9 view .LVU180
 834 048a 2968     		ldr	r1, [r5]
 835 048c 0022     		movs	r2, #0
 836 048e 2046     		mov	r0, r4
 837 0490 0831     		adds	r1, r1, #8
 838 0492 FFF7FEFF 		bl	lv_obj_add_style
ARM GAS  /var/folders/0z/tsy30v1j4xl4_7kw94k978ww0000gn/T//ccM2UjO5.s 			page 27


 839              	.LVL92:
 355:Drivers/lvgl/src/extra/themes/mono/lv_theme_mono.c ****         lv_obj_add_style(obj, &styles->card, LV_PART_ITEMS);
 840              		.loc 1 355 9 is_stmt 1 view .LVU181
 841 0496 2968     		ldr	r1, [r5]
 842 0498 4FF48032 		mov	r2, #65536
 843 049c 1031     		adds	r1, r1, #16
 844 049e 2046     		mov	r0, r4
 845 04a0 FFF7FEFF 		bl	lv_obj_add_style
 846              	.LVL93:
 356:Drivers/lvgl/src/extra/themes/mono/lv_theme_mono.c ****         lv_obj_add_style(obj, &styles->card, LV_PART_TICKS);
 847              		.loc 1 356 9 view .LVU182
 848 04a4 2968     		ldr	r1, [r5]
 849 04a6 4FF4A022 		mov	r2, #327680
 850 04aa 0831     		adds	r1, r1, #8
 851 04ac 2046     		mov	r0, r4
 852 04ae FFF7FEFF 		bl	lv_obj_add_style
 853              	.LVL94:
 357:Drivers/lvgl/src/extra/themes/mono/lv_theme_mono.c ****         lv_obj_add_style(obj, &styles->card, LV_PART_CURSOR);
 854              		.loc 1 357 9 view .LVU183
 855 04b2 2968     		ldr	r1, [r5]
 856 04b4 4FF4C022 		mov	r2, #393216
 857 04b8 0831     		adds	r1, r1, #8
 858 04ba 2046     		mov	r0, r4
 859 04bc FFF7FEFF 		bl	lv_obj_add_style
 860              	.LVL95:
 358:Drivers/lvgl/src/extra/themes/mono/lv_theme_mono.c ****         lv_obj_add_style(obj, &styles->focus, LV_STATE_FOCUS_KEY);
 861              		.loc 1 358 9 view .LVU184
 862 04c0 2968     		ldr	r1, [r5]
 863 04c2 4FF4E022 		mov	r2, #458752
 864 04c6 0831     		adds	r1, r1, #8
 865 04c8 2046     		mov	r0, r4
 866 04ca FFF7FEFF 		bl	lv_obj_add_style
 867              	.LVL96:
 359:Drivers/lvgl/src/extra/themes/mono/lv_theme_mono.c ****     }
 868              		.loc 1 359 9 view .LVU185
 869 04ce 2968     		ldr	r1, [r5]
 870 04d0 0422     		movs	r2, #4
 871 04d2 3831     		adds	r1, r1, #56
 872 04d4 2046     		mov	r0, r4
 873 04d6 CCE5     		b	.L44
 874              	.L18:
 364:Drivers/lvgl/src/extra/themes/mono/lv_theme_mono.c ****         lv_obj_add_style(obj, &styles->card, 0);
 875              		.loc 1 364 10 view .LVU186
 364:Drivers/lvgl/src/extra/themes/mono/lv_theme_mono.c ****         lv_obj_add_style(obj, &styles->card, 0);
 876              		.loc 1 364 13 is_stmt 0 view .LVU187
 877 04d8 6549     		ldr	r1, .L68+36
 878 04da 2046     		mov	r0, r4
 879 04dc FFF7FEFF 		bl	lv_obj_check_type
 880              	.LVL97:
 364:Drivers/lvgl/src/extra/themes/mono/lv_theme_mono.c ****         lv_obj_add_style(obj, &styles->card, 0);
 881              		.loc 1 364 12 view .LVU188
 882 04e0 0746     		mov	r7, r0
 883 04e2 88B1     		cbz	r0, .L19
 365:Drivers/lvgl/src/extra/themes/mono/lv_theme_mono.c ****         lv_obj_add_style(obj, &styles->large_line_space, 0);
 884              		.loc 1 365 9 is_stmt 1 view .LVU189
 365:Drivers/lvgl/src/extra/themes/mono/lv_theme_mono.c ****         lv_obj_add_style(obj, &styles->large_line_space, 0);
 885              		.loc 1 365 38 is_stmt 0 view .LVU190
ARM GAS  /var/folders/0z/tsy30v1j4xl4_7kw94k978ww0000gn/T//ccM2UjO5.s 			page 28


 886 04e4 5A4D     		ldr	r5, .L68+4
 365:Drivers/lvgl/src/extra/themes/mono/lv_theme_mono.c ****         lv_obj_add_style(obj, &styles->large_line_space, 0);
 887              		.loc 1 365 9 view .LVU191
 888 04e6 2968     		ldr	r1, [r5]
 889 04e8 0022     		movs	r2, #0
 890 04ea 2046     		mov	r0, r4
 891 04ec 0831     		adds	r1, r1, #8
 892 04ee FFF7FEFF 		bl	lv_obj_add_style
 893              	.LVL98:
 366:Drivers/lvgl/src/extra/themes/mono/lv_theme_mono.c ****         lv_obj_add_style(obj, &styles->inv, LV_PART_SELECTED);
 894              		.loc 1 366 9 is_stmt 1 view .LVU192
 895 04f2 2968     		ldr	r1, [r5]
 896 04f4 0022     		movs	r2, #0
 897 04f6 7031     		adds	r1, r1, #112
 898 04f8 2046     		mov	r0, r4
 899 04fa FFF7FEFF 		bl	lv_obj_add_style
 900              	.LVL99:
 367:Drivers/lvgl/src/extra/themes/mono/lv_theme_mono.c ****         lv_obj_add_style(obj, &styles->focus, LV_STATE_FOCUS_KEY);
 901              		.loc 1 367 9 view .LVU193
 902 04fe 2968     		ldr	r1, [r5]
 903 0500 4FF48022 		mov	r2, #262144
 904              	.L54:
 468:Drivers/lvgl/src/extra/themes/mono/lv_theme_mono.c ****         lv_obj_add_style(obj, &styles->focus, LV_STATE_FOCUS_KEY);
 905              		.loc 1 468 9 is_stmt 0 view .LVU194
 906 0504 2831     		adds	r1, r1, #40
 907 0506 9FE6     		b	.L52
 908              	.L19:
 374:Drivers/lvgl/src/extra/themes/mono/lv_theme_mono.c ****         lv_obj_add_style(obj, &styles->card, 0);
 909              		.loc 1 374 10 is_stmt 1 view .LVU195
 374:Drivers/lvgl/src/extra/themes/mono/lv_theme_mono.c ****         lv_obj_add_style(obj, &styles->card, 0);
 910              		.loc 1 374 13 is_stmt 0 view .LVU196
 911 0508 5A49     		ldr	r1, .L68+40
 912 050a 2046     		mov	r0, r4
 913 050c FFF7FEFF 		bl	lv_obj_check_type
 914              	.LVL100:
 374:Drivers/lvgl/src/extra/themes/mono/lv_theme_mono.c ****         lv_obj_add_style(obj, &styles->card, 0);
 915              		.loc 1 374 12 view .LVU197
 916 0510 50B1     		cbz	r0, .L20
 375:Drivers/lvgl/src/extra/themes/mono/lv_theme_mono.c ****         lv_obj_add_style(obj, &styles->pr, LV_STATE_PRESSED);
 917              		.loc 1 375 9 is_stmt 1 view .LVU198
 375:Drivers/lvgl/src/extra/themes/mono/lv_theme_mono.c ****         lv_obj_add_style(obj, &styles->pr, LV_STATE_PRESSED);
 918              		.loc 1 375 38 is_stmt 0 view .LVU199
 919 0512 4F4D     		ldr	r5, .L68+4
 375:Drivers/lvgl/src/extra/themes/mono/lv_theme_mono.c ****         lv_obj_add_style(obj, &styles->pr, LV_STATE_PRESSED);
 920              		.loc 1 375 9 view .LVU200
 921 0514 2968     		ldr	r1, [r5]
 922 0516 3A46     		mov	r2, r7
 923 0518 0831     		adds	r1, r1, #8
 924 051a 2046     		mov	r0, r4
 925 051c FFF7FEFF 		bl	lv_obj_add_style
 926              	.LVL101:
 376:Drivers/lvgl/src/extra/themes/mono/lv_theme_mono.c ****         lv_obj_add_style(obj, &styles->focus, LV_STATE_FOCUS_KEY);
 927              		.loc 1 376 9 is_stmt 1 view .LVU201
 928 0520 2968     		ldr	r1, [r5]
 929 0522 2022     		movs	r2, #32
 930 0524 1144     		add	r1, r1, r2
 931 0526 8FE6     		b	.L52
ARM GAS  /var/folders/0z/tsy30v1j4xl4_7kw94k978ww0000gn/T//ccM2UjO5.s 			page 29


 932              	.L20:
 380:Drivers/lvgl/src/extra/themes/mono/lv_theme_mono.c ****         lv_obj_add_style(obj, &styles->card, 0);
 933              		.loc 1 380 10 view .LVU202
 934 0528 0190     		str	r0, [sp, #4]
 380:Drivers/lvgl/src/extra/themes/mono/lv_theme_mono.c ****         lv_obj_add_style(obj, &styles->card, 0);
 935              		.loc 1 380 13 is_stmt 0 view .LVU203
 936 052a 5349     		ldr	r1, .L68+44
 937 052c 2046     		mov	r0, r4
 938 052e FFF7FEFF 		bl	lv_obj_check_type
 939              	.LVL102:
 380:Drivers/lvgl/src/extra/themes/mono/lv_theme_mono.c ****         lv_obj_add_style(obj, &styles->card, 0);
 940              		.loc 1 380 12 view .LVU204
 941 0532 0746     		mov	r7, r0
 942 0534 E8B1     		cbz	r0, .L21
 381:Drivers/lvgl/src/extra/themes/mono/lv_theme_mono.c ****         lv_obj_add_style(obj, &styles->large_line_space, 0);
 943              		.loc 1 381 9 is_stmt 1 view .LVU205
 381:Drivers/lvgl/src/extra/themes/mono/lv_theme_mono.c ****         lv_obj_add_style(obj, &styles->large_line_space, 0);
 944              		.loc 1 381 38 is_stmt 0 view .LVU206
 945 0536 464D     		ldr	r5, .L68+4
 381:Drivers/lvgl/src/extra/themes/mono/lv_theme_mono.c ****         lv_obj_add_style(obj, &styles->large_line_space, 0);
 946              		.loc 1 381 9 view .LVU207
 947 0538 019A     		ldr	r2, [sp, #4]
 948 053a 2968     		ldr	r1, [r5]
 949 053c 2046     		mov	r0, r4
 950 053e 0831     		adds	r1, r1, #8
 951 0540 FFF7FEFF 		bl	lv_obj_add_style
 952              	.LVL103:
 382:Drivers/lvgl/src/extra/themes/mono/lv_theme_mono.c ****         lv_obj_add_style(obj, &styles->scrollbar, LV_PART_SCROLLBAR);
 953              		.loc 1 382 9 is_stmt 1 view .LVU208
 954 0544 2968     		ldr	r1, [r5]
 955 0546 019A     		ldr	r2, [sp, #4]
 956 0548 7031     		adds	r1, r1, #112
 957 054a 2046     		mov	r0, r4
 958 054c FFF7FEFF 		bl	lv_obj_add_style
 959              	.LVL104:
 383:Drivers/lvgl/src/extra/themes/mono/lv_theme_mono.c ****         lv_obj_add_style(obj, &styles->inv, LV_PART_SELECTED | LV_STATE_CHECKED);
 960              		.loc 1 383 9 view .LVU209
 961 0550 2968     		ldr	r1, [r5]
 962 0552 4FF48032 		mov	r2, #65536
 963 0556 1031     		adds	r1, r1, #16
 964 0558 2046     		mov	r0, r4
 965 055a FFF7FEFF 		bl	lv_obj_add_style
 966              	.LVL105:
 384:Drivers/lvgl/src/extra/themes/mono/lv_theme_mono.c ****         lv_obj_add_style(obj, &styles->pr, LV_PART_SELECTED | LV_STATE_PRESSED);
 967              		.loc 1 384 9 view .LVU210
 968 055e 2968     		ldr	r1, [r5]
 969 0560 464A     		ldr	r2, .L68+48
 970 0562 2831     		adds	r1, r1, #40
 971 0564 2046     		mov	r0, r4
 972 0566 FFF7FEFF 		bl	lv_obj_add_style
 973              	.LVL106:
 385:Drivers/lvgl/src/extra/themes/mono/lv_theme_mono.c ****         lv_obj_add_style(obj, &styles->focus, LV_STATE_FOCUS_KEY);
 974              		.loc 1 385 9 view .LVU211
 975 056a 2968     		ldr	r1, [r5]
 976 056c 444A     		ldr	r2, .L68+52
 977 056e 2031     		adds	r1, r1, #32
 978 0570 6AE6     		b	.L52
ARM GAS  /var/folders/0z/tsy30v1j4xl4_7kw94k978ww0000gn/T//ccM2UjO5.s 			page 30


 979              	.L21:
 392:Drivers/lvgl/src/extra/themes/mono/lv_theme_mono.c ****         lv_obj_add_style(obj, &styles->card, 0);
 980              		.loc 1 392 10 view .LVU212
 392:Drivers/lvgl/src/extra/themes/mono/lv_theme_mono.c ****         lv_obj_add_style(obj, &styles->card, 0);
 981              		.loc 1 392 13 is_stmt 0 view .LVU213
 982 0572 4449     		ldr	r1, .L68+56
 983 0574 2046     		mov	r0, r4
 984 0576 FFF7FEFF 		bl	lv_obj_check_type
 985              	.LVL107:
 392:Drivers/lvgl/src/extra/themes/mono/lv_theme_mono.c ****         lv_obj_add_style(obj, &styles->card, 0);
 986              		.loc 1 392 12 view .LVU214
 987 057a 0546     		mov	r5, r0
 988 057c 90B1     		cbz	r0, .L22
 393:Drivers/lvgl/src/extra/themes/mono/lv_theme_mono.c ****         lv_obj_add_style(obj, &styles->inv, LV_PART_INDICATOR);
 989              		.loc 1 393 9 is_stmt 1 view .LVU215
 393:Drivers/lvgl/src/extra/themes/mono/lv_theme_mono.c ****         lv_obj_add_style(obj, &styles->inv, LV_PART_INDICATOR);
 990              		.loc 1 393 38 is_stmt 0 view .LVU216
 991 057e 344D     		ldr	r5, .L68+4
 393:Drivers/lvgl/src/extra/themes/mono/lv_theme_mono.c ****         lv_obj_add_style(obj, &styles->inv, LV_PART_INDICATOR);
 992              		.loc 1 393 9 view .LVU217
 993 0580 2968     		ldr	r1, [r5]
 994 0582 3A46     		mov	r2, r7
 995 0584 2046     		mov	r0, r4
 996 0586 0831     		adds	r1, r1, #8
 997 0588 FFF7FEFF 		bl	lv_obj_add_style
 998              	.LVL108:
 394:Drivers/lvgl/src/extra/themes/mono/lv_theme_mono.c ****         lv_obj_add_style(obj, &styles->pad_zero, LV_PART_INDICATOR);
 999              		.loc 1 394 9 is_stmt 1 view .LVU218
 1000 058c 2968     		ldr	r1, [r5]
 1001 058e 4FF40032 		mov	r2, #131072
 1002 0592 2831     		adds	r1, r1, #40
 1003 0594 2046     		mov	r0, r4
 1004 0596 FFF7FEFF 		bl	lv_obj_add_style
 1005              	.LVL109:
 395:Drivers/lvgl/src/extra/themes/mono/lv_theme_mono.c ****         lv_obj_add_style(obj, &styles->card, LV_PART_KNOB);
 1006              		.loc 1 395 9 view .LVU219
 1007 059a 2968     		ldr	r1, [r5]
 1008 059c 4FF40032 		mov	r2, #131072
 1009 05a0 5031     		adds	r1, r1, #80
 1010 05a2 43E6     		b	.L56
 1011              	.L22:
 404:Drivers/lvgl/src/extra/themes/mono/lv_theme_mono.c ****         lv_obj_add_style(obj, &styles->card, 0);
 1012              		.loc 1 404 10 view .LVU220
 404:Drivers/lvgl/src/extra/themes/mono/lv_theme_mono.c ****         lv_obj_add_style(obj, &styles->card, 0);
 1013              		.loc 1 404 13 is_stmt 0 view .LVU221
 1014 05a4 3849     		ldr	r1, .L68+60
 1015 05a6 2046     		mov	r0, r4
 1016 05a8 FFF7FEFF 		bl	lv_obj_check_type
 1017              	.LVL110:
 404:Drivers/lvgl/src/extra/themes/mono/lv_theme_mono.c ****         lv_obj_add_style(obj, &styles->card, 0);
 1018              		.loc 1 404 12 view .LVU222
 1019 05ac 0746     		mov	r7, r0
 1020 05ae D8B9     		cbnz	r0, .L45
 410:Drivers/lvgl/src/extra/themes/mono/lv_theme_mono.c ****         lv_obj_add_style(obj, &styles->card, 0);
 1021              		.loc 1 410 10 is_stmt 1 view .LVU223
 410:Drivers/lvgl/src/extra/themes/mono/lv_theme_mono.c ****         lv_obj_add_style(obj, &styles->card, 0);
 1022              		.loc 1 410 13 is_stmt 0 view .LVU224
ARM GAS  /var/folders/0z/tsy30v1j4xl4_7kw94k978ww0000gn/T//ccM2UjO5.s 			page 31


 1023 05b0 3649     		ldr	r1, .L68+64
 1024 05b2 2046     		mov	r0, r4
 1025 05b4 FFF7FEFF 		bl	lv_obj_check_type
 1026              	.LVL111:
 410:Drivers/lvgl/src/extra/themes/mono/lv_theme_mono.c ****         lv_obj_add_style(obj, &styles->card, 0);
 1027              		.loc 1 410 12 view .LVU225
 1028 05b8 E0B1     		cbz	r0, .L24
 411:Drivers/lvgl/src/extra/themes/mono/lv_theme_mono.c ****         lv_obj_add_style(obj, &styles->scrollbar, LV_PART_SCROLLBAR);
 1029              		.loc 1 411 9 is_stmt 1 view .LVU226
 411:Drivers/lvgl/src/extra/themes/mono/lv_theme_mono.c ****         lv_obj_add_style(obj, &styles->scrollbar, LV_PART_SCROLLBAR);
 1030              		.loc 1 411 38 is_stmt 0 view .LVU227
 1031 05ba 254D     		ldr	r5, .L68+4
 411:Drivers/lvgl/src/extra/themes/mono/lv_theme_mono.c ****         lv_obj_add_style(obj, &styles->scrollbar, LV_PART_SCROLLBAR);
 1032              		.loc 1 411 9 view .LVU228
 1033 05bc 2968     		ldr	r1, [r5]
 1034 05be 3A46     		mov	r2, r7
 1035 05c0 2046     		mov	r0, r4
 1036 05c2 0831     		adds	r1, r1, #8
 1037 05c4 FFF7FEFF 		bl	lv_obj_add_style
 1038              	.LVL112:
 412:Drivers/lvgl/src/extra/themes/mono/lv_theme_mono.c ****         lv_obj_add_style(obj, &styles->ta_cursor, LV_PART_CURSOR | LV_STATE_FOCUSED);
 1039              		.loc 1 412 9 is_stmt 1 view .LVU229
 1040 05c8 2968     		ldr	r1, [r5]
 1041 05ca 4FF48032 		mov	r2, #65536
 1042 05ce 1031     		adds	r1, r1, #16
 1043 05d0 2046     		mov	r0, r4
 1044 05d2 FFF7FEFF 		bl	lv_obj_add_style
 1045              	.LVL113:
 413:Drivers/lvgl/src/extra/themes/mono/lv_theme_mono.c ****         lv_obj_add_style(obj, &styles->focus, LV_STATE_FOCUSED);
 1046              		.loc 1 413 9 view .LVU230
 1047 05d6 2968     		ldr	r1, [r5]
 1048 05d8 2D4A     		ldr	r2, .L68+68
 1049 05da 8031     		adds	r1, r1, #128
 1050 05dc 2046     		mov	r0, r4
 1051 05de FFF7FEFF 		bl	lv_obj_add_style
 1052              	.LVL114:
 414:Drivers/lvgl/src/extra/themes/mono/lv_theme_mono.c ****         lv_obj_add_style(obj, &styles->edit, LV_STATE_EDITED);
 1053              		.loc 1 414 9 view .LVU231
 1054 05e2 2968     		ldr	r1, [r5]
 1055 05e4 0222     		movs	r2, #2
 1056 05e6 34E6     		b	.L51
 1057              	.L45:
 485:Drivers/lvgl/src/extra/themes/mono/lv_theme_mono.c ****     }
 1058              		.loc 1 485 9 view .LVU232
 485:Drivers/lvgl/src/extra/themes/mono/lv_theme_mono.c ****     }
 1059              		.loc 1 485 38 is_stmt 0 view .LVU233
 1060 05e8 194B     		ldr	r3, .L68+4
 485:Drivers/lvgl/src/extra/themes/mono/lv_theme_mono.c ****     }
 1061              		.loc 1 485 9 view .LVU234
 1062 05ea 1968     		ldr	r1, [r3]
 1063 05ec 2A46     		mov	r2, r5
 1064 05ee 2046     		mov	r0, r4
 1065 05f0 0831     		adds	r1, r1, #8
 1066 05f2 3EE5     		b	.L44
 1067              	.L24:
 420:Drivers/lvgl/src/extra/themes/mono/lv_theme_mono.c ****         lv_obj_add_style(obj, &styles->card, 0);
 1068              		.loc 1 420 10 is_stmt 1 view .LVU235
ARM GAS  /var/folders/0z/tsy30v1j4xl4_7kw94k978ww0000gn/T//ccM2UjO5.s 			page 32


 1069 05f4 0190     		str	r0, [sp, #4]
 420:Drivers/lvgl/src/extra/themes/mono/lv_theme_mono.c ****         lv_obj_add_style(obj, &styles->card, 0);
 1070              		.loc 1 420 13 is_stmt 0 view .LVU236
 1071 05f6 2749     		ldr	r1, .L68+72
 1072 05f8 2046     		mov	r0, r4
 1073 05fa FFF7FEFF 		bl	lv_obj_check_type
 1074              	.LVL115:
 420:Drivers/lvgl/src/extra/themes/mono/lv_theme_mono.c ****         lv_obj_add_style(obj, &styles->card, 0);
 1075              		.loc 1 420 12 view .LVU237
 1076 05fe 0746     		mov	r7, r0
 1077 0600 0028     		cmp	r0, #0
 1078 0602 4BD0     		beq	.L25
 421:Drivers/lvgl/src/extra/themes/mono/lv_theme_mono.c ****         lv_obj_add_style(obj, &styles->no_radius, 0);
 1079              		.loc 1 421 9 is_stmt 1 view .LVU238
 421:Drivers/lvgl/src/extra/themes/mono/lv_theme_mono.c ****         lv_obj_add_style(obj, &styles->no_radius, 0);
 1080              		.loc 1 421 38 is_stmt 0 view .LVU239
 1081 0604 124D     		ldr	r5, .L68+4
 421:Drivers/lvgl/src/extra/themes/mono/lv_theme_mono.c ****         lv_obj_add_style(obj, &styles->no_radius, 0);
 1082              		.loc 1 421 9 view .LVU240
 1083 0606 019A     		ldr	r2, [sp, #4]
 1084 0608 2968     		ldr	r1, [r5]
 1085 060a 2046     		mov	r0, r4
 1086 060c 0831     		adds	r1, r1, #8
 1087 060e FFF7FEFF 		bl	lv_obj_add_style
 1088              	.LVL116:
 422:Drivers/lvgl/src/extra/themes/mono/lv_theme_mono.c ****         lv_obj_add_style(obj, &styles->pr, LV_PART_ITEMS | LV_STATE_PRESSED);
 1089              		.loc 1 422 9 is_stmt 1 view .LVU241
 1090 0612 2968     		ldr	r1, [r5]
 1091 0614 019A     		ldr	r2, [sp, #4]
 1092 0616 5831     		adds	r1, r1, #88
 1093 0618 2046     		mov	r0, r4
 1094 061a FFF7FEFF 		bl	lv_obj_add_style
 1095              	.LVL117:
 423:Drivers/lvgl/src/extra/themes/mono/lv_theme_mono.c ****         lv_obj_add_style(obj, &styles->disabled, LV_PART_ITEMS | LV_STATE_DISABLED);
 1096              		.loc 1 423 9 view .LVU242
 1097 061e 2968     		ldr	r1, [r5]
 1098 0620 0C4A     		ldr	r2, .L68+8
 1099 0622 2031     		adds	r1, r1, #32
 1100 0624 2046     		mov	r0, r4
 1101 0626 FFF7FEFF 		bl	lv_obj_add_style
 1102              	.LVL118:
 424:Drivers/lvgl/src/extra/themes/mono/lv_theme_mono.c ****         lv_obj_add_style(obj, &styles->focus, LV_STATE_FOCUS_KEY);
 1103              		.loc 1 424 9 view .LVU243
 1104 062a 2968     		ldr	r1, [r5]
 1105 062c 1A4A     		ldr	r2, .L68+76
 1106 062e 3031     		adds	r1, r1, #48
 1107 0630 2046     		mov	r0, r4
 1108 0632 FFF7FEFF 		bl	lv_obj_add_style
 1109              	.LVL119:
 425:Drivers/lvgl/src/extra/themes/mono/lv_theme_mono.c ****         lv_obj_add_style(obj, &styles->edit, LV_STATE_EDITED);
 1110              		.loc 1 425 9 view .LVU244
 1111 0636 2968     		ldr	r1, [r5]
 1112 0638 0422     		movs	r2, #4
 1113 063a 3831     		adds	r1, r1, #56
 1114 063c 2046     		mov	r0, r4
 1115 063e FFF7FEFF 		bl	lv_obj_add_style
 1116              	.LVL120:
ARM GAS  /var/folders/0z/tsy30v1j4xl4_7kw94k978ww0000gn/T//ccM2UjO5.s 			page 33


 426:Drivers/lvgl/src/extra/themes/mono/lv_theme_mono.c ****         lv_obj_add_style(obj, &styles->large_border, LV_PART_ITEMS | LV_STATE_FOCUS_KEY);
 1117              		.loc 1 426 9 view .LVU245
 1118 0642 2968     		ldr	r1, [r5]
 1119 0644 0822     		movs	r2, #8
 1120 0646 4031     		adds	r1, r1, #64
 1121 0648 9BE5     		b	.L50
 1122              	.L69:
 1123 064a 00BF     		.align	2
 1124              	.L68:
 1125 064c 00000000 		.word	lv_win_class
 1126 0650 00000000 		.word	.LANCHOR0
 1127 0654 20000500 		.word	327712
 1128 0658 00000000 		.word	lv_checkbox_class
 1129 065c 80000200 		.word	131200
 1130 0660 01000200 		.word	131073
 1131 0664 20000200 		.word	131104
 1132 0668 00000000 		.word	lv_switch_class
 1133 066c 00000000 		.word	lv_chart_class
 1134 0670 00000000 		.word	lv_roller_class
 1135 0674 00000000 		.word	lv_dropdown_class
 1136 0678 00000000 		.word	lv_dropdownlist_class
 1137 067c 01000400 		.word	262145
 1138 0680 20000400 		.word	262176
 1139 0684 00000000 		.word	lv_arc_class
 1140 0688 00000000 		.word	lv_meter_class
 1141 068c 00000000 		.word	lv_textarea_class
 1142 0690 02000700 		.word	458754
 1143 0694 00000000 		.word	lv_calendar_class
 1144 0698 80000500 		.word	327808
 1145              	.L25:
 432:Drivers/lvgl/src/extra/themes/mono/lv_theme_mono.c ****         lv_obj_add_style(obj, &styles->card, 0);
 1146              		.loc 1 432 10 view .LVU246
 432:Drivers/lvgl/src/extra/themes/mono/lv_theme_mono.c ****         lv_obj_add_style(obj, &styles->card, 0);
 1147              		.loc 1 432 13 is_stmt 0 view .LVU247
 1148 069c 4849     		ldr	r1, .L70
 1149 069e 2046     		mov	r0, r4
 1150 06a0 FFF7FEFF 		bl	lv_obj_check_type
 1151              	.LVL121:
 432:Drivers/lvgl/src/extra/themes/mono/lv_theme_mono.c ****         lv_obj_add_style(obj, &styles->card, 0);
 1152              		.loc 1 432 12 view .LVU248
 1153 06a4 0546     		mov	r5, r0
 1154 06a6 50B3     		cbz	r0, .L26
 433:Drivers/lvgl/src/extra/themes/mono/lv_theme_mono.c ****         lv_obj_add_style(obj, &styles->card, LV_PART_ITEMS);
 1155              		.loc 1 433 9 is_stmt 1 view .LVU249
 433:Drivers/lvgl/src/extra/themes/mono/lv_theme_mono.c ****         lv_obj_add_style(obj, &styles->card, LV_PART_ITEMS);
 1156              		.loc 1 433 38 is_stmt 0 view .LVU250
 1157 06a8 464D     		ldr	r5, .L70+4
 433:Drivers/lvgl/src/extra/themes/mono/lv_theme_mono.c ****         lv_obj_add_style(obj, &styles->card, LV_PART_ITEMS);
 1158              		.loc 1 433 9 view .LVU251
 1159 06aa 2968     		ldr	r1, [r5]
 1160 06ac 3A46     		mov	r2, r7
 1161 06ae 2046     		mov	r0, r4
 1162 06b0 0831     		adds	r1, r1, #8
 1163 06b2 FFF7FEFF 		bl	lv_obj_add_style
 1164              	.LVL122:
 434:Drivers/lvgl/src/extra/themes/mono/lv_theme_mono.c ****         lv_obj_add_style(obj, &styles->pr, LV_PART_ITEMS | LV_STATE_PRESSED);
 1165              		.loc 1 434 9 is_stmt 1 view .LVU252
ARM GAS  /var/folders/0z/tsy30v1j4xl4_7kw94k978ww0000gn/T//ccM2UjO5.s 			page 34


 1166 06b6 2968     		ldr	r1, [r5]
 1167 06b8 4FF4A022 		mov	r2, #327680
 1168 06bc 0831     		adds	r1, r1, #8
 1169 06be 2046     		mov	r0, r4
 1170 06c0 FFF7FEFF 		bl	lv_obj_add_style
 1171              	.LVL123:
 435:Drivers/lvgl/src/extra/themes/mono/lv_theme_mono.c ****         lv_obj_add_style(obj, &styles->inv, LV_PART_ITEMS | LV_STATE_CHECKED);
 1172              		.loc 1 435 9 view .LVU253
 1173 06c4 2968     		ldr	r1, [r5]
 1174 06c6 404A     		ldr	r2, .L70+8
 1175 06c8 2031     		adds	r1, r1, #32
 1176 06ca 2046     		mov	r0, r4
 1177 06cc FFF7FEFF 		bl	lv_obj_add_style
 1178              	.LVL124:
 436:Drivers/lvgl/src/extra/themes/mono/lv_theme_mono.c ****         lv_obj_add_style(obj, &styles->focus, LV_STATE_FOCUS_KEY);
 1179              		.loc 1 436 9 view .LVU254
 1180 06d0 2968     		ldr	r1, [r5]
 1181 06d2 3E4A     		ldr	r2, .L70+12
 1182 06d4 2831     		adds	r1, r1, #40
 1183 06d6 2046     		mov	r0, r4
 1184 06d8 FFF7FEFF 		bl	lv_obj_add_style
 1185              	.LVL125:
 437:Drivers/lvgl/src/extra/themes/mono/lv_theme_mono.c ****         lv_obj_add_style(obj, &styles->edit, LV_STATE_EDITED);
 1186              		.loc 1 437 9 view .LVU255
 1187 06dc 2968     		ldr	r1, [r5]
 1188 06de 0422     		movs	r2, #4
 1189 06e0 3831     		adds	r1, r1, #56
 1190 06e2 2046     		mov	r0, r4
 1191 06e4 FFF7FEFF 		bl	lv_obj_add_style
 1192              	.LVL126:
 438:Drivers/lvgl/src/extra/themes/mono/lv_theme_mono.c ****         lv_obj_add_style(obj, &styles->large_border, LV_PART_ITEMS | LV_STATE_EDITED);
 1193              		.loc 1 438 9 view .LVU256
 1194 06e8 2968     		ldr	r1, [r5]
 1195 06ea 0822     		movs	r2, #8
 1196 06ec 4031     		adds	r1, r1, #64
 1197 06ee 2046     		mov	r0, r4
 1198 06f0 FFF7FEFF 		bl	lv_obj_add_style
 1199              	.LVL127:
 439:Drivers/lvgl/src/extra/themes/mono/lv_theme_mono.c ****     }
 1200              		.loc 1 439 9 view .LVU257
 1201 06f4 2968     		ldr	r1, [r5]
 1202 06f6 364A     		ldr	r2, .L70+16
 1203 06f8 6831     		adds	r1, r1, #104
 1204 06fa 2046     		mov	r0, r4
 1205 06fc B9E4     		b	.L44
 1206              	.L26:
 443:Drivers/lvgl/src/extra/themes/mono/lv_theme_mono.c ****         lv_obj_add_style(obj, &styles->card, 0);
 1207              		.loc 1 443 10 view .LVU258
 443:Drivers/lvgl/src/extra/themes/mono/lv_theme_mono.c ****         lv_obj_add_style(obj, &styles->card, 0);
 1208              		.loc 1 443 13 is_stmt 0 view .LVU259
 1209 06fe 3549     		ldr	r1, .L70+20
 1210 0700 2046     		mov	r0, r4
 1211 0702 FFF7FEFF 		bl	lv_obj_check_type
 1212              	.LVL128:
 443:Drivers/lvgl/src/extra/themes/mono/lv_theme_mono.c ****         lv_obj_add_style(obj, &styles->card, 0);
 1213              		.loc 1 443 12 view .LVU260
 1214 0706 20BB     		cbnz	r0, .L65
ARM GAS  /var/folders/0z/tsy30v1j4xl4_7kw94k978ww0000gn/T//ccM2UjO5.s 			page 35


 448:Drivers/lvgl/src/extra/themes/mono/lv_theme_mono.c **** 
 1215              		.loc 1 448 10 is_stmt 1 view .LVU261
 448:Drivers/lvgl/src/extra/themes/mono/lv_theme_mono.c **** 
 1216              		.loc 1 448 13 is_stmt 0 view .LVU262
 1217 0708 3349     		ldr	r1, .L70+24
 1218 070a 2046     		mov	r0, r4
 1219 070c FFF7FEFF 		bl	lv_obj_check_type
 1220              	.LVL129:
 448:Drivers/lvgl/src/extra/themes/mono/lv_theme_mono.c **** 
 1221              		.loc 1 448 12 view .LVU263
 1222 0710 0028     		cmp	r0, #0
 1223 0712 7FF4F1AC 		bne	.L1
 451:Drivers/lvgl/src/extra/themes/mono/lv_theme_mono.c ****         lv_obj_add_style(obj, &styles->card, 0);
 1224              		.loc 1 451 10 is_stmt 1 view .LVU264
 451:Drivers/lvgl/src/extra/themes/mono/lv_theme_mono.c ****         lv_obj_add_style(obj, &styles->card, 0);
 1225              		.loc 1 451 13 is_stmt 0 view .LVU265
 1226 0716 3149     		ldr	r1, .L70+28
 1227 0718 2046     		mov	r0, r4
 1228 071a FFF7FEFF 		bl	lv_obj_check_type
 1229              	.LVL130:
 451:Drivers/lvgl/src/extra/themes/mono/lv_theme_mono.c ****         lv_obj_add_style(obj, &styles->card, 0);
 1230              		.loc 1 451 12 view .LVU266
 1231 071e 0546     		mov	r5, r0
 1232 0720 E8B1     		cbz	r0, .L29
 452:Drivers/lvgl/src/extra/themes/mono/lv_theme_mono.c ****         lv_obj_add_style(obj, &styles->pr, LV_STATE_PRESSED);
 1233              		.loc 1 452 9 is_stmt 1 view .LVU267
 452:Drivers/lvgl/src/extra/themes/mono/lv_theme_mono.c ****         lv_obj_add_style(obj, &styles->pr, LV_STATE_PRESSED);
 1234              		.loc 1 452 38 is_stmt 0 view .LVU268
 1235 0722 284D     		ldr	r5, .L70+4
 452:Drivers/lvgl/src/extra/themes/mono/lv_theme_mono.c ****         lv_obj_add_style(obj, &styles->pr, LV_STATE_PRESSED);
 1236              		.loc 1 452 9 view .LVU269
 1237 0724 2968     		ldr	r1, [r5]
 1238 0726 0022     		movs	r2, #0
 1239 0728 2046     		mov	r0, r4
 1240 072a 0831     		adds	r1, r1, #8
 1241 072c FFF7FEFF 		bl	lv_obj_add_style
 1242              	.LVL131:
 453:Drivers/lvgl/src/extra/themes/mono/lv_theme_mono.c ****         lv_obj_add_style(obj, &styles->focus, LV_STATE_FOCUS_KEY);
 1243              		.loc 1 453 9 is_stmt 1 view .LVU270
 1244 0730 2968     		ldr	r1, [r5]
 1245 0732 2022     		movs	r2, #32
 1246 0734 1144     		add	r1, r1, r2
 1247 0736 2046     		mov	r0, r4
 1248 0738 FFF7FEFF 		bl	lv_obj_add_style
 1249              	.LVL132:
 454:Drivers/lvgl/src/extra/themes/mono/lv_theme_mono.c ****         lv_obj_add_style(obj, &styles->large_border, LV_STATE_EDITED);
 1250              		.loc 1 454 9 view .LVU271
 1251 073c 2968     		ldr	r1, [r5]
 1252 073e 0422     		movs	r2, #4
 1253 0740 3831     		adds	r1, r1, #56
 1254 0742 2046     		mov	r0, r4
 1255 0744 FFF7FEFF 		bl	lv_obj_add_style
 1256              	.LVL133:
 455:Drivers/lvgl/src/extra/themes/mono/lv_theme_mono.c **** 
 1257              		.loc 1 455 9 view .LVU272
 1258 0748 2968     		ldr	r1, [r5]
 1259 074a 0822     		movs	r2, #8
ARM GAS  /var/folders/0z/tsy30v1j4xl4_7kw94k978ww0000gn/T//ccM2UjO5.s 			page 36


 1260 074c 6831     		adds	r1, r1, #104
 1261 074e 2046     		mov	r0, r4
 1262 0750 8FE4     		b	.L44
 1263              	.L65:
 444:Drivers/lvgl/src/extra/themes/mono/lv_theme_mono.c ****         lv_obj_add_style(obj, &styles->scrollbar, LV_PART_SCROLLBAR);
 1264              		.loc 1 444 9 view .LVU273
 444:Drivers/lvgl/src/extra/themes/mono/lv_theme_mono.c ****         lv_obj_add_style(obj, &styles->scrollbar, LV_PART_SCROLLBAR);
 1265              		.loc 1 444 38 is_stmt 0 view .LVU274
 1266 0752 1C4E     		ldr	r6, .L70+4
 444:Drivers/lvgl/src/extra/themes/mono/lv_theme_mono.c ****         lv_obj_add_style(obj, &styles->scrollbar, LV_PART_SCROLLBAR);
 1267              		.loc 1 444 9 view .LVU275
 1268 0754 3168     		ldr	r1, [r6]
 1269 0756 2A46     		mov	r2, r5
 1270 0758 2046     		mov	r0, r4
 1271 075a 0831     		adds	r1, r1, #8
 1272 075c 43E5     		b	.L48
 1273              	.L29:
 460:Drivers/lvgl/src/extra/themes/mono/lv_theme_mono.c ****         lv_obj_add_style(obj, &styles->card, 0);
 1274              		.loc 1 460 10 is_stmt 1 view .LVU276
 460:Drivers/lvgl/src/extra/themes/mono/lv_theme_mono.c ****         lv_obj_add_style(obj, &styles->card, 0);
 1275              		.loc 1 460 13 is_stmt 0 view .LVU277
 1276 075e 2049     		ldr	r1, .L70+32
 1277 0760 2046     		mov	r0, r4
 1278 0762 FFF7FEFF 		bl	lv_obj_check_type
 1279              	.LVL134:
 460:Drivers/lvgl/src/extra/themes/mono/lv_theme_mono.c ****         lv_obj_add_style(obj, &styles->card, 0);
 1280              		.loc 1 460 12 view .LVU278
 1281 0766 0646     		mov	r6, r0
 1282 0768 0028     		cmp	r0, #0
 1283 076a 7FF43DAF 		bne	.L45
 466:Drivers/lvgl/src/extra/themes/mono/lv_theme_mono.c ****         lv_obj_add_style(obj, &styles->card, 0);
 1284              		.loc 1 466 10 is_stmt 1 view .LVU279
 466:Drivers/lvgl/src/extra/themes/mono/lv_theme_mono.c ****         lv_obj_add_style(obj, &styles->card, 0);
 1285              		.loc 1 466 13 is_stmt 0 view .LVU280
 1286 076e 1D49     		ldr	r1, .L70+36
 1287 0770 2046     		mov	r0, r4
 1288 0772 FFF7FEFF 		bl	lv_obj_check_type
 1289              	.LVL135:
 466:Drivers/lvgl/src/extra/themes/mono/lv_theme_mono.c ****         lv_obj_add_style(obj, &styles->card, 0);
 1290              		.loc 1 466 12 view .LVU281
 1291 0776 0546     		mov	r5, r0
 1292 0778 50B1     		cbz	r0, .L31
 467:Drivers/lvgl/src/extra/themes/mono/lv_theme_mono.c ****         lv_obj_add_style(obj, &styles->inv, LV_PART_CURSOR);
 1293              		.loc 1 467 9 is_stmt 1 view .LVU282
 467:Drivers/lvgl/src/extra/themes/mono/lv_theme_mono.c ****         lv_obj_add_style(obj, &styles->inv, LV_PART_CURSOR);
 1294              		.loc 1 467 38 is_stmt 0 view .LVU283
 1295 077a 124D     		ldr	r5, .L70+4
 467:Drivers/lvgl/src/extra/themes/mono/lv_theme_mono.c ****         lv_obj_add_style(obj, &styles->inv, LV_PART_CURSOR);
 1296              		.loc 1 467 9 view .LVU284
 1297 077c 2968     		ldr	r1, [r5]
 1298 077e 3246     		mov	r2, r6
 1299 0780 0831     		adds	r1, r1, #8
 1300 0782 2046     		mov	r0, r4
 1301 0784 FFF7FEFF 		bl	lv_obj_add_style
 1302              	.LVL136:
 468:Drivers/lvgl/src/extra/themes/mono/lv_theme_mono.c ****         lv_obj_add_style(obj, &styles->focus, LV_STATE_FOCUS_KEY);
 1303              		.loc 1 468 9 is_stmt 1 view .LVU285
ARM GAS  /var/folders/0z/tsy30v1j4xl4_7kw94k978ww0000gn/T//ccM2UjO5.s 			page 37


 1304 0788 2968     		ldr	r1, [r5]
 1305 078a 4FF4E022 		mov	r2, #458752
 1306 078e B9E6     		b	.L54
 1307              	.L31:
 474:Drivers/lvgl/src/extra/themes/mono/lv_theme_mono.c ****         lv_obj_add_style(obj, &styles->scr, 0);
 1308              		.loc 1 474 10 view .LVU286
 474:Drivers/lvgl/src/extra/themes/mono/lv_theme_mono.c ****         lv_obj_add_style(obj, &styles->scr, 0);
 1309              		.loc 1 474 13 is_stmt 0 view .LVU287
 1310 0790 1549     		ldr	r1, .L70+40
 1311 0792 2046     		mov	r0, r4
 1312 0794 FFF7FEFF 		bl	lv_obj_check_type
 1313              	.LVL137:
 474:Drivers/lvgl/src/extra/themes/mono/lv_theme_mono.c ****         lv_obj_add_style(obj, &styles->scr, 0);
 1314              		.loc 1 474 12 view .LVU288
 1315 0798 18B1     		cbz	r0, .L32
 475:Drivers/lvgl/src/extra/themes/mono/lv_theme_mono.c ****         lv_obj_add_style(obj, &styles->scrollbar, LV_PART_SCROLLBAR);
 1316              		.loc 1 475 9 is_stmt 1 view .LVU289
 475:Drivers/lvgl/src/extra/themes/mono/lv_theme_mono.c ****         lv_obj_add_style(obj, &styles->scrollbar, LV_PART_SCROLLBAR);
 1317              		.loc 1 475 38 is_stmt 0 view .LVU290
 1318 079a 0A4E     		ldr	r6, .L70+4
 475:Drivers/lvgl/src/extra/themes/mono/lv_theme_mono.c ****         lv_obj_add_style(obj, &styles->scrollbar, LV_PART_SCROLLBAR);
 1319              		.loc 1 475 9 view .LVU291
 1320 079c 2A46     		mov	r2, r5
 1321 079e 3168     		ldr	r1, [r6]
 1322 07a0 20E5     		b	.L47
 1323              	.L32:
 478:Drivers/lvgl/src/extra/themes/mono/lv_theme_mono.c ****         lv_obj_add_style(obj, &styles->scrollbar, LV_PART_SCROLLBAR);
 1324              		.loc 1 478 10 is_stmt 1 view .LVU292
 478:Drivers/lvgl/src/extra/themes/mono/lv_theme_mono.c ****         lv_obj_add_style(obj, &styles->scrollbar, LV_PART_SCROLLBAR);
 1325              		.loc 1 478 13 is_stmt 0 view .LVU293
 1326 07a2 1249     		ldr	r1, .L70+44
 1327 07a4 2046     		mov	r0, r4
 1328 07a6 FFF7FEFF 		bl	lv_obj_check_type
 1329              	.LVL138:
 478:Drivers/lvgl/src/extra/themes/mono/lv_theme_mono.c ****         lv_obj_add_style(obj, &styles->scrollbar, LV_PART_SCROLLBAR);
 1330              		.loc 1 478 12 view .LVU294
 1331 07aa 0546     		mov	r5, r0
 1332 07ac 0028     		cmp	r0, #0
 1333 07ae 3FF49CAC 		beq	.L33
 479:Drivers/lvgl/src/extra/themes/mono/lv_theme_mono.c ****     }
 1334              		.loc 1 479 9 is_stmt 1 view .LVU295
 479:Drivers/lvgl/src/extra/themes/mono/lv_theme_mono.c ****     }
 1335              		.loc 1 479 38 is_stmt 0 view .LVU296
 1336 07b2 044B     		ldr	r3, .L70+4
 479:Drivers/lvgl/src/extra/themes/mono/lv_theme_mono.c ****     }
 1337              		.loc 1 479 9 view .LVU297
 1338 07b4 1968     		ldr	r1, [r3]
 1339 07b6 4FF48032 		mov	r2, #65536
 1340 07ba 2046     		mov	r0, r4
 1341 07bc 1031     		adds	r1, r1, #16
 1342 07be 58E4     		b	.L44
 1343              	.L71:
 1344              		.align	2
 1345              	.L70:
 1346 07c0 00000000 		.word	lv_keyboard_class
 1347 07c4 00000000 		.word	.LANCHOR0
 1348 07c8 20000500 		.word	327712
ARM GAS  /var/folders/0z/tsy30v1j4xl4_7kw94k978ww0000gn/T//ccM2UjO5.s 			page 38


 1349 07cc 01000500 		.word	327681
 1350 07d0 08000500 		.word	327688
 1351 07d4 00000000 		.word	lv_list_class
 1352 07d8 00000000 		.word	lv_list_text_class
 1353 07dc 00000000 		.word	lv_list_btn_class
 1354 07e0 00000000 		.word	lv_msgbox_class
 1355 07e4 00000000 		.word	lv_spinbox_class
 1356 07e8 00000000 		.word	lv_tileview_class
 1357 07ec 00000000 		.word	lv_tileview_tile_class
 1358              		.cfi_endproc
 1359              	.LFE207:
 1361              		.section	.text.lv_theme_mono_is_inited,"ax",%progbits
 1362              		.align	1
 1363              		.p2align 2,,3
 1364              		.global	lv_theme_mono_is_inited
 1365              		.syntax unified
 1366              		.thumb
 1367              		.thumb_func
 1369              	lv_theme_mono_is_inited:
 1370              	.LFB205:
 168:Drivers/lvgl/src/extra/themes/mono/lv_theme_mono.c ****     return  LV_GC_ROOT(_lv_theme_default_styles) == NULL ? false : true;
 1371              		.loc 1 168 1 is_stmt 1 view -0
 1372              		.cfi_startproc
 1373              		@ args = 0, pretend = 0, frame = 0
 1374              		@ frame_needed = 0, uses_anonymous_args = 0
 1375              		@ link register save eliminated.
 169:Drivers/lvgl/src/extra/themes/mono/lv_theme_mono.c **** }
 1376              		.loc 1 169 5 view .LVU299
 169:Drivers/lvgl/src/extra/themes/mono/lv_theme_mono.c **** }
 1377              		.loc 1 169 66 is_stmt 0 view .LVU300
 1378 0000 024B     		ldr	r3, .L73
 1379 0002 1868     		ldr	r0, [r3]
 170:Drivers/lvgl/src/extra/themes/mono/lv_theme_mono.c **** 
 1380              		.loc 1 170 1 view .LVU301
 1381 0004 0038     		subs	r0, r0, #0
 1382 0006 18BF     		it	ne
 1383 0008 0120     		movne	r0, #1
 1384 000a 7047     		bx	lr
 1385              	.L74:
 1386              		.align	2
 1387              	.L73:
 1388 000c 00000000 		.word	_lv_theme_default_styles
 1389              		.cfi_endproc
 1390              	.LFE205:
 1392              		.section	.text.lv_theme_mono_init,"ax",%progbits
 1393              		.align	1
 1394              		.p2align 2,,3
 1395              		.global	lv_theme_mono_init
 1396              		.syntax unified
 1397              		.thumb
 1398              		.thumb_func
 1400              	lv_theme_mono_init:
 1401              	.LVL139:
 1402              	.LFB206:
 173:Drivers/lvgl/src/extra/themes/mono/lv_theme_mono.c **** 
 1403              		.loc 1 173 1 is_stmt 1 view -0
 1404              		.cfi_startproc
ARM GAS  /var/folders/0z/tsy30v1j4xl4_7kw94k978ww0000gn/T//ccM2UjO5.s 			page 39


 1405              		@ args = 0, pretend = 0, frame = 8
 1406              		@ frame_needed = 0, uses_anonymous_args = 0
 178:Drivers/lvgl/src/extra/themes/mono/lv_theme_mono.c ****         inited = false;
 1407              		.loc 1 178 5 view .LVU303
 173:Drivers/lvgl/src/extra/themes/mono/lv_theme_mono.c **** 
 1408              		.loc 1 173 1 is_stmt 0 view .LVU304
 1409 0000 2DE9F04F 		push	{r4, r5, r6, r7, r8, r9, r10, fp, lr}
 1410              		.cfi_def_cfa_offset 36
 1411              		.cfi_offset 4, -36
 1412              		.cfi_offset 5, -32
 1413              		.cfi_offset 6, -28
 1414              		.cfi_offset 7, -24
 1415              		.cfi_offset 8, -20
 1416              		.cfi_offset 9, -16
 1417              		.cfi_offset 10, -12
 1418              		.cfi_offset 11, -8
 1419              		.cfi_offset 14, -4
 178:Drivers/lvgl/src/extra/themes/mono/lv_theme_mono.c ****         inited = false;
 1420              		.loc 1 178 8 view .LVU305
 1421 0004 C04D     		ldr	r5, .L124
 178:Drivers/lvgl/src/extra/themes/mono/lv_theme_mono.c ****         inited = false;
 1422              		.loc 1 178 7 view .LVU306
 1423 0006 2B78     		ldrb	r3, [r5]	@ zero_extendqisi2
 173:Drivers/lvgl/src/extra/themes/mono/lv_theme_mono.c **** 
 1424              		.loc 1 173 1 view .LVU307
 1425 0008 83B0     		sub	sp, sp, #12
 1426              		.cfi_def_cfa_offset 48
 173:Drivers/lvgl/src/extra/themes/mono/lv_theme_mono.c **** 
 1427              		.loc 1 173 1 view .LVU308
 1428 000a 8246     		mov	r10, r0
 1429 000c 0E46     		mov	r6, r1
 1430 000e 9346     		mov	fp, r2
 178:Drivers/lvgl/src/extra/themes/mono/lv_theme_mono.c ****         inited = false;
 1431              		.loc 1 178 7 view .LVU309
 1432 0010 002B     		cmp	r3, #0
 1433 0012 00F07F82 		beq	.L76
 184:Drivers/lvgl/src/extra/themes/mono/lv_theme_mono.c ****     theme.font_small = LV_FONT_DEFAULT;
 1434              		.loc 1 184 16 view .LVU310
 1435 0016 DFF80093 		ldr	r9, .L124+16
 1436              	.LBB182:
 1437              	.LBB183:
  79:Drivers/lvgl/src/extra/themes/mono/lv_theme_mono.c ****     lv_style_set_bg_opa(&styles->scrollbar, LV_OPA_COVER);
 1438              		.loc 1 79 29 view .LVU311
 1439 001a BC4C     		ldr	r4, .L124+4
 1440              	.LBE183:
 1441              	.LBE182:
 185:Drivers/lvgl/src/extra/themes/mono/lv_theme_mono.c ****     theme.font_normal = LV_FONT_DEFAULT;
 1442              		.loc 1 185 22 view .LVU312
 1443 001c BC4B     		ldr	r3, .L124+8
 184:Drivers/lvgl/src/extra/themes/mono/lv_theme_mono.c ****     theme.font_small = LV_FONT_DEFAULT;
 1444              		.loc 1 184 16 view .LVU313
 1445 001e C9F80C00 		str	r0, [r9, #12]
 1446              	.LBB326:
 1447              	.LBB320:
  79:Drivers/lvgl/src/extra/themes/mono/lv_theme_mono.c ****     lv_style_set_bg_opa(&styles->scrollbar, LV_OPA_COVER);
 1448              		.loc 1 79 29 view .LVU314
 1449 0022 2068     		ldr	r0, [r4]
ARM GAS  /var/folders/0z/tsy30v1j4xl4_7kw94k978ww0000gn/T//ccM2UjO5.s 			page 40


 1450              	.LVL140:
  79:Drivers/lvgl/src/extra/themes/mono/lv_theme_mono.c ****     lv_style_set_bg_opa(&styles->scrollbar, LV_OPA_COVER);
 1451              		.loc 1 79 29 view .LVU315
 1452              	.LBE320:
 1453              	.LBE326:
 184:Drivers/lvgl/src/extra/themes/mono/lv_theme_mono.c ****     theme.font_small = LV_FONT_DEFAULT;
 1454              		.loc 1 184 5 is_stmt 1 view .LVU316
 185:Drivers/lvgl/src/extra/themes/mono/lv_theme_mono.c ****     theme.font_normal = LV_FONT_DEFAULT;
 1455              		.loc 1 185 5 view .LVU317
 187:Drivers/lvgl/src/extra/themes/mono/lv_theme_mono.c ****     theme.apply_cb = theme_apply;
 1456              		.loc 1 187 22 is_stmt 0 view .LVU318
 1457 0024 C9F81C30 		str	r3, [r9, #28]
 186:Drivers/lvgl/src/extra/themes/mono/lv_theme_mono.c ****     theme.font_large = LV_FONT_DEFAULT;
 1458              		.loc 1 186 23 view .LVU319
 1459 0028 C9E90533 		strd	r3, r3, [r9, #20]
 187:Drivers/lvgl/src/extra/themes/mono/lv_theme_mono.c ****     theme.apply_cb = theme_apply;
 1460              		.loc 1 187 5 is_stmt 1 view .LVU320
 188:Drivers/lvgl/src/extra/themes/mono/lv_theme_mono.c **** 
 1461              		.loc 1 188 5 view .LVU321
 188:Drivers/lvgl/src/extra/themes/mono/lv_theme_mono.c **** 
 1462              		.loc 1 188 20 is_stmt 0 view .LVU322
 1463 002c B94B     		ldr	r3, .L124+12
 1464 002e C9F80030 		str	r3, [r9]
 190:Drivers/lvgl/src/extra/themes/mono/lv_theme_mono.c **** 
 1465              		.loc 1 190 5 is_stmt 1 view .LVU323
 1466              	.LVL141:
 1467              	.LBB327:
 1468              	.LBI182:
  77:Drivers/lvgl/src/extra/themes/mono/lv_theme_mono.c **** {
 1469              		.loc 1 77 13 view .LVU324
 1470              	.LBB321:
  79:Drivers/lvgl/src/extra/themes/mono/lv_theme_mono.c ****     lv_style_set_bg_opa(&styles->scrollbar, LV_OPA_COVER);
 1471              		.loc 1 79 5 view .LVU325
 1472 0032 1030     		adds	r0, r0, #16
 1473              	.LVL142:
 1474              	.LBB184:
 1475              	.LBI184:
 489:Drivers/lvgl/src/extra/themes/mono/lv_theme_mono.c **** 
 490:Drivers/lvgl/src/extra/themes/mono/lv_theme_mono.c **** /**********************
 491:Drivers/lvgl/src/extra/themes/mono/lv_theme_mono.c ****  *   STATIC FUNCTIONS
 492:Drivers/lvgl/src/extra/themes/mono/lv_theme_mono.c ****  **********************/
 493:Drivers/lvgl/src/extra/themes/mono/lv_theme_mono.c **** 
 494:Drivers/lvgl/src/extra/themes/mono/lv_theme_mono.c **** static void style_init_reset(lv_style_t * style)
 1476              		.loc 1 494 13 view .LVU326
 1477              	.LBB185:
 495:Drivers/lvgl/src/extra/themes/mono/lv_theme_mono.c **** {
 496:Drivers/lvgl/src/extra/themes/mono/lv_theme_mono.c ****     if(inited) {
 1478              		.loc 1 496 5 view .LVU327
 1479              	.L77:
 497:Drivers/lvgl/src/extra/themes/mono/lv_theme_mono.c ****         lv_style_reset(style);
 1480              		.loc 1 497 9 view .LVU328
 1481 0034 FFF7FEFF 		bl	lv_style_reset
 1482              	.LVL143:
 1483              	.L79:
 1484              		.loc 1 497 9 is_stmt 0 view .LVU329
 1485              	.LBE185:
 1486              	.LBE184:
ARM GAS  /var/folders/0z/tsy30v1j4xl4_7kw94k978ww0000gn/T//ccM2UjO5.s 			page 41


  80:Drivers/lvgl/src/extra/themes/mono/lv_theme_mono.c ****     lv_style_set_bg_color(&styles->scrollbar, COLOR_FG);
 1487              		.loc 1 80 5 is_stmt 1 view .LVU330
 1488 0038 2068     		ldr	r0, [r4]
 1489 003a FF21     		movs	r1, #255
 1490 003c 1030     		adds	r0, r0, #16
 1491 003e FFF7FEFF 		bl	lv_style_set_bg_opa
 1492              	.LVL144:
  81:Drivers/lvgl/src/extra/themes/mono/lv_theme_mono.c ****     lv_style_set_width(&styles->scrollbar,  PAD_DEF);
 1493              		.loc 1 81 5 view .LVU331
 1494 0042 002E     		cmp	r6, #0
 1495 0044 0CBF     		ite	eq
 1496 0046 3746     		moveq	r7, r6
 1497 0048 0727     		movne	r7, #7
 1498 004a 4FF00001 		mov	r1, #0	@ movhi
 1499 004e 0CBF     		ite	eq
 1500 0050 B046     		moveq	r8, r6
 1501 0052 4FF01F08 		movne	r8, #31
 1502 0056 67F30201 		bfi	r1, r7, #0, #3
 1503 005a 2068     		ldr	r0, [r4]
 1504 005c 68F3C701 		bfi	r1, r8, #3, #5
 1505 0060 68F30C21 		bfi	r1, r8, #8, #5
 1506 0064 67F34F31 		bfi	r1, r7, #13, #3
 1507 0068 1030     		adds	r0, r0, #16
 1508 006a FFF7FEFF 		bl	lv_style_set_bg_color
 1509              	.LVL145:
  82:Drivers/lvgl/src/extra/themes/mono/lv_theme_mono.c **** 
 1510              		.loc 1 82 5 view .LVU332
 1511 006e 2068     		ldr	r0, [r4]
 1512 0070 0421     		movs	r1, #4
 1513 0072 1030     		adds	r0, r0, #16
 1514 0074 FFF7FEFF 		bl	lv_style_set_width
 1515              	.LVL146:
  84:Drivers/lvgl/src/extra/themes/mono/lv_theme_mono.c ****     lv_style_set_bg_opa(&styles->scr, LV_OPA_COVER);
 1516              		.loc 1 84 5 view .LVU333
 1517              	.LBB188:
 1518              	.LBB189:
 496:Drivers/lvgl/src/extra/themes/mono/lv_theme_mono.c ****         lv_style_reset(style);
 1519              		.loc 1 496 7 is_stmt 0 view .LVU334
 1520 0078 2B78     		ldrb	r3, [r5]	@ zero_extendqisi2
 1521              	.LBE189:
 1522              	.LBE188:
  84:Drivers/lvgl/src/extra/themes/mono/lv_theme_mono.c ****     lv_style_set_bg_opa(&styles->scr, LV_OPA_COVER);
 1523              		.loc 1 84 5 view .LVU335
 1524 007a 2068     		ldr	r0, [r4]
 1525              	.LVL147:
 1526              	.LBB192:
 1527              	.LBI188:
 494:Drivers/lvgl/src/extra/themes/mono/lv_theme_mono.c **** {
 1528              		.loc 1 494 13 is_stmt 1 view .LVU336
 1529              	.LBB190:
 496:Drivers/lvgl/src/extra/themes/mono/lv_theme_mono.c ****         lv_style_reset(style);
 1530              		.loc 1 496 5 view .LVU337
 496:Drivers/lvgl/src/extra/themes/mono/lv_theme_mono.c ****         lv_style_reset(style);
 1531              		.loc 1 496 7 is_stmt 0 view .LVU338
 1532 007c 002B     		cmp	r3, #0
 1533 007e 00F04682 		beq	.L81
 1534              		.loc 1 497 9 is_stmt 1 view .LVU339
ARM GAS  /var/folders/0z/tsy30v1j4xl4_7kw94k978ww0000gn/T//ccM2UjO5.s 			page 42


 1535 0082 FFF7FEFF 		bl	lv_style_reset
 1536              	.LVL148:
 1537              	.L82:
 1538              		.loc 1 497 9 is_stmt 0 view .LVU340
 1539              	.LBE190:
 1540              	.LBE192:
  85:Drivers/lvgl/src/extra/themes/mono/lv_theme_mono.c ****     lv_style_set_bg_color(&styles->scr, COLOR_BG);
 1541              		.loc 1 85 5 is_stmt 1 view .LVU341
 1542 0086 2068     		ldr	r0, [r4]
 1543 0088 FF21     		movs	r1, #255
 1544 008a FFF7FEFF 		bl	lv_style_set_bg_opa
 1545              	.LVL149:
  86:Drivers/lvgl/src/extra/themes/mono/lv_theme_mono.c ****     lv_style_set_text_color(&styles->scr, COLOR_FG);
 1546              		.loc 1 86 5 view .LVU342
 1547 008e 2068     		ldr	r0, [r4]
 1548 0090 002E     		cmp	r6, #0
 1549 0092 00F03682 		beq	.L83
 1550 0096 4FF00001 		mov	r1, #0	@ movhi
 1551 009a FFF7FEFF 		bl	lv_style_set_bg_color
 1552              	.LVL150:
  87:Drivers/lvgl/src/extra/themes/mono/lv_theme_mono.c ****     lv_style_set_pad_row(&styles->scr, PAD_DEF);
 1553              		.loc 1 87 5 view .LVU343
 1554 009e 2068     		ldr	r0, [r4]
 1555              	.LBB193:
 1556              	.LBI193:
 1557              		.file 2 "Drivers/lvgl/src/extra/themes/mono/../../../../src/hal/../draw/../misc/lv_color.h"
   1:Drivers/lvgl/src/extra/themes/mono/../../../../src/hal/../draw/../misc/lv_color.h **** /**
   2:Drivers/lvgl/src/extra/themes/mono/../../../../src/hal/../draw/../misc/lv_color.h ****  * @file lv_color.h
   3:Drivers/lvgl/src/extra/themes/mono/../../../../src/hal/../draw/../misc/lv_color.h ****  *
   4:Drivers/lvgl/src/extra/themes/mono/../../../../src/hal/../draw/../misc/lv_color.h ****  */
   5:Drivers/lvgl/src/extra/themes/mono/../../../../src/hal/../draw/../misc/lv_color.h **** 
   6:Drivers/lvgl/src/extra/themes/mono/../../../../src/hal/../draw/../misc/lv_color.h **** #ifndef LV_COLOR_H
   7:Drivers/lvgl/src/extra/themes/mono/../../../../src/hal/../draw/../misc/lv_color.h **** #define LV_COLOR_H
   8:Drivers/lvgl/src/extra/themes/mono/../../../../src/hal/../draw/../misc/lv_color.h **** 
   9:Drivers/lvgl/src/extra/themes/mono/../../../../src/hal/../draw/../misc/lv_color.h **** #ifdef __cplusplus
  10:Drivers/lvgl/src/extra/themes/mono/../../../../src/hal/../draw/../misc/lv_color.h **** extern "C" {
  11:Drivers/lvgl/src/extra/themes/mono/../../../../src/hal/../draw/../misc/lv_color.h **** #endif
  12:Drivers/lvgl/src/extra/themes/mono/../../../../src/hal/../draw/../misc/lv_color.h **** 
  13:Drivers/lvgl/src/extra/themes/mono/../../../../src/hal/../draw/../misc/lv_color.h **** /*********************
  14:Drivers/lvgl/src/extra/themes/mono/../../../../src/hal/../draw/../misc/lv_color.h ****  *      INCLUDES
  15:Drivers/lvgl/src/extra/themes/mono/../../../../src/hal/../draw/../misc/lv_color.h ****  *********************/
  16:Drivers/lvgl/src/extra/themes/mono/../../../../src/hal/../draw/../misc/lv_color.h **** #include "../lv_conf_internal.h"
  17:Drivers/lvgl/src/extra/themes/mono/../../../../src/hal/../draw/../misc/lv_color.h **** #include "lv_assert.h"
  18:Drivers/lvgl/src/extra/themes/mono/../../../../src/hal/../draw/../misc/lv_color.h **** #include "lv_math.h"
  19:Drivers/lvgl/src/extra/themes/mono/../../../../src/hal/../draw/../misc/lv_color.h **** #include "lv_types.h"
  20:Drivers/lvgl/src/extra/themes/mono/../../../../src/hal/../draw/../misc/lv_color.h **** 
  21:Drivers/lvgl/src/extra/themes/mono/../../../../src/hal/../draw/../misc/lv_color.h **** /*Error checking*/
  22:Drivers/lvgl/src/extra/themes/mono/../../../../src/hal/../draw/../misc/lv_color.h **** #if LV_COLOR_DEPTH == 24
  23:Drivers/lvgl/src/extra/themes/mono/../../../../src/hal/../draw/../misc/lv_color.h **** #error "LV_COLOR_DEPTH 24 is deprecated. Use LV_COLOR_DEPTH 32 instead (lv_conf.h)"
  24:Drivers/lvgl/src/extra/themes/mono/../../../../src/hal/../draw/../misc/lv_color.h **** #endif
  25:Drivers/lvgl/src/extra/themes/mono/../../../../src/hal/../draw/../misc/lv_color.h **** 
  26:Drivers/lvgl/src/extra/themes/mono/../../../../src/hal/../draw/../misc/lv_color.h **** #if LV_COLOR_DEPTH != 16 && LV_COLOR_16_SWAP != 0
  27:Drivers/lvgl/src/extra/themes/mono/../../../../src/hal/../draw/../misc/lv_color.h **** #error "LV_COLOR_16_SWAP requires LV_COLOR_DEPTH == 16. Set it in lv_conf.h"
  28:Drivers/lvgl/src/extra/themes/mono/../../../../src/hal/../draw/../misc/lv_color.h **** #endif
  29:Drivers/lvgl/src/extra/themes/mono/../../../../src/hal/../draw/../misc/lv_color.h **** 
  30:Drivers/lvgl/src/extra/themes/mono/../../../../src/hal/../draw/../misc/lv_color.h **** #include <stdint.h>
  31:Drivers/lvgl/src/extra/themes/mono/../../../../src/hal/../draw/../misc/lv_color.h **** 
ARM GAS  /var/folders/0z/tsy30v1j4xl4_7kw94k978ww0000gn/T//ccM2UjO5.s 			page 43


  32:Drivers/lvgl/src/extra/themes/mono/../../../../src/hal/../draw/../misc/lv_color.h **** /*********************
  33:Drivers/lvgl/src/extra/themes/mono/../../../../src/hal/../draw/../misc/lv_color.h ****  *      DEFINES
  34:Drivers/lvgl/src/extra/themes/mono/../../../../src/hal/../draw/../misc/lv_color.h ****  *********************/
  35:Drivers/lvgl/src/extra/themes/mono/../../../../src/hal/../draw/../misc/lv_color.h **** LV_EXPORT_CONST_INT(LV_COLOR_DEPTH);
  36:Drivers/lvgl/src/extra/themes/mono/../../../../src/hal/../draw/../misc/lv_color.h **** LV_EXPORT_CONST_INT(LV_COLOR_16_SWAP);
  37:Drivers/lvgl/src/extra/themes/mono/../../../../src/hal/../draw/../misc/lv_color.h **** 
  38:Drivers/lvgl/src/extra/themes/mono/../../../../src/hal/../draw/../misc/lv_color.h **** /**
  39:Drivers/lvgl/src/extra/themes/mono/../../../../src/hal/../draw/../misc/lv_color.h ****  * Opacity percentages.
  40:Drivers/lvgl/src/extra/themes/mono/../../../../src/hal/../draw/../misc/lv_color.h ****  */
  41:Drivers/lvgl/src/extra/themes/mono/../../../../src/hal/../draw/../misc/lv_color.h **** enum {
  42:Drivers/lvgl/src/extra/themes/mono/../../../../src/hal/../draw/../misc/lv_color.h ****     LV_OPA_TRANSP = 0,
  43:Drivers/lvgl/src/extra/themes/mono/../../../../src/hal/../draw/../misc/lv_color.h ****     LV_OPA_0      = 0,
  44:Drivers/lvgl/src/extra/themes/mono/../../../../src/hal/../draw/../misc/lv_color.h ****     LV_OPA_10     = 25,
  45:Drivers/lvgl/src/extra/themes/mono/../../../../src/hal/../draw/../misc/lv_color.h ****     LV_OPA_20     = 51,
  46:Drivers/lvgl/src/extra/themes/mono/../../../../src/hal/../draw/../misc/lv_color.h ****     LV_OPA_30     = 76,
  47:Drivers/lvgl/src/extra/themes/mono/../../../../src/hal/../draw/../misc/lv_color.h ****     LV_OPA_40     = 102,
  48:Drivers/lvgl/src/extra/themes/mono/../../../../src/hal/../draw/../misc/lv_color.h ****     LV_OPA_50     = 127,
  49:Drivers/lvgl/src/extra/themes/mono/../../../../src/hal/../draw/../misc/lv_color.h ****     LV_OPA_60     = 153,
  50:Drivers/lvgl/src/extra/themes/mono/../../../../src/hal/../draw/../misc/lv_color.h ****     LV_OPA_70     = 178,
  51:Drivers/lvgl/src/extra/themes/mono/../../../../src/hal/../draw/../misc/lv_color.h ****     LV_OPA_80     = 204,
  52:Drivers/lvgl/src/extra/themes/mono/../../../../src/hal/../draw/../misc/lv_color.h ****     LV_OPA_90     = 229,
  53:Drivers/lvgl/src/extra/themes/mono/../../../../src/hal/../draw/../misc/lv_color.h ****     LV_OPA_100    = 255,
  54:Drivers/lvgl/src/extra/themes/mono/../../../../src/hal/../draw/../misc/lv_color.h ****     LV_OPA_COVER  = 255,
  55:Drivers/lvgl/src/extra/themes/mono/../../../../src/hal/../draw/../misc/lv_color.h **** };
  56:Drivers/lvgl/src/extra/themes/mono/../../../../src/hal/../draw/../misc/lv_color.h **** 
  57:Drivers/lvgl/src/extra/themes/mono/../../../../src/hal/../draw/../misc/lv_color.h **** #define LV_OPA_MIN 2    /*Opacities below this will be transparent*/
  58:Drivers/lvgl/src/extra/themes/mono/../../../../src/hal/../draw/../misc/lv_color.h **** #define LV_OPA_MAX 253  /*Opacities above this will fully cover*/
  59:Drivers/lvgl/src/extra/themes/mono/../../../../src/hal/../draw/../misc/lv_color.h **** 
  60:Drivers/lvgl/src/extra/themes/mono/../../../../src/hal/../draw/../misc/lv_color.h **** #if LV_COLOR_DEPTH == 1
  61:Drivers/lvgl/src/extra/themes/mono/../../../../src/hal/../draw/../misc/lv_color.h **** #define LV_COLOR_SIZE 8
  62:Drivers/lvgl/src/extra/themes/mono/../../../../src/hal/../draw/../misc/lv_color.h **** #elif LV_COLOR_DEPTH == 8
  63:Drivers/lvgl/src/extra/themes/mono/../../../../src/hal/../draw/../misc/lv_color.h **** #define LV_COLOR_SIZE 8
  64:Drivers/lvgl/src/extra/themes/mono/../../../../src/hal/../draw/../misc/lv_color.h **** #elif LV_COLOR_DEPTH == 16
  65:Drivers/lvgl/src/extra/themes/mono/../../../../src/hal/../draw/../misc/lv_color.h **** #define LV_COLOR_SIZE 16
  66:Drivers/lvgl/src/extra/themes/mono/../../../../src/hal/../draw/../misc/lv_color.h **** #elif LV_COLOR_DEPTH == 32
  67:Drivers/lvgl/src/extra/themes/mono/../../../../src/hal/../draw/../misc/lv_color.h **** #define LV_COLOR_SIZE 32
  68:Drivers/lvgl/src/extra/themes/mono/../../../../src/hal/../draw/../misc/lv_color.h **** #else
  69:Drivers/lvgl/src/extra/themes/mono/../../../../src/hal/../draw/../misc/lv_color.h **** #error "Invalid LV_COLOR_DEPTH in lv_conf.h! Set it to 1, 8, 16 or 32!"
  70:Drivers/lvgl/src/extra/themes/mono/../../../../src/hal/../draw/../misc/lv_color.h **** #endif
  71:Drivers/lvgl/src/extra/themes/mono/../../../../src/hal/../draw/../misc/lv_color.h **** 
  72:Drivers/lvgl/src/extra/themes/mono/../../../../src/hal/../draw/../misc/lv_color.h **** #if defined(__cplusplus) && !defined(_LV_COLOR_HAS_MODERN_CPP)
  73:Drivers/lvgl/src/extra/themes/mono/../../../../src/hal/../draw/../misc/lv_color.h **** /**
  74:Drivers/lvgl/src/extra/themes/mono/../../../../src/hal/../draw/../misc/lv_color.h **** * MSVC compiler's definition of the __cplusplus indicating 199711L regardless to C++ standard versi
  75:Drivers/lvgl/src/extra/themes/mono/../../../../src/hal/../draw/../misc/lv_color.h **** * see https://devblogs.microsoft.com/cppblog/msvc-now-correctly-reports-cplusplus
  76:Drivers/lvgl/src/extra/themes/mono/../../../../src/hal/../draw/../misc/lv_color.h **** * so we use _MSC_VER macro instead of __cplusplus
  77:Drivers/lvgl/src/extra/themes/mono/../../../../src/hal/../draw/../misc/lv_color.h **** */
  78:Drivers/lvgl/src/extra/themes/mono/../../../../src/hal/../draw/../misc/lv_color.h **** #ifdef _MSC_VER
  79:Drivers/lvgl/src/extra/themes/mono/../../../../src/hal/../draw/../misc/lv_color.h **** #if _MSC_VER >= 1900 /*Visual Studio 2015*/
  80:Drivers/lvgl/src/extra/themes/mono/../../../../src/hal/../draw/../misc/lv_color.h **** #define _LV_COLOR_HAS_MODERN_CPP 1
  81:Drivers/lvgl/src/extra/themes/mono/../../../../src/hal/../draw/../misc/lv_color.h **** #endif
  82:Drivers/lvgl/src/extra/themes/mono/../../../../src/hal/../draw/../misc/lv_color.h **** #else
  83:Drivers/lvgl/src/extra/themes/mono/../../../../src/hal/../draw/../misc/lv_color.h **** #if __cplusplus >= 201103L
  84:Drivers/lvgl/src/extra/themes/mono/../../../../src/hal/../draw/../misc/lv_color.h **** #define _LV_COLOR_HAS_MODERN_CPP 1
  85:Drivers/lvgl/src/extra/themes/mono/../../../../src/hal/../draw/../misc/lv_color.h **** #endif
  86:Drivers/lvgl/src/extra/themes/mono/../../../../src/hal/../draw/../misc/lv_color.h **** #endif
  87:Drivers/lvgl/src/extra/themes/mono/../../../../src/hal/../draw/../misc/lv_color.h **** #endif /*__cplusplus*/
  88:Drivers/lvgl/src/extra/themes/mono/../../../../src/hal/../draw/../misc/lv_color.h **** 
ARM GAS  /var/folders/0z/tsy30v1j4xl4_7kw94k978ww0000gn/T//ccM2UjO5.s 			page 44


  89:Drivers/lvgl/src/extra/themes/mono/../../../../src/hal/../draw/../misc/lv_color.h **** #ifndef _LV_COLOR_HAS_MODERN_CPP
  90:Drivers/lvgl/src/extra/themes/mono/../../../../src/hal/../draw/../misc/lv_color.h **** #define _LV_COLOR_HAS_MODERN_CPP 0
  91:Drivers/lvgl/src/extra/themes/mono/../../../../src/hal/../draw/../misc/lv_color.h **** #endif
  92:Drivers/lvgl/src/extra/themes/mono/../../../../src/hal/../draw/../misc/lv_color.h **** 
  93:Drivers/lvgl/src/extra/themes/mono/../../../../src/hal/../draw/../misc/lv_color.h **** #if _LV_COLOR_HAS_MODERN_CPP
  94:Drivers/lvgl/src/extra/themes/mono/../../../../src/hal/../draw/../misc/lv_color.h **** /*Fix msvc compiler error C4576 inside C++ code*/
  95:Drivers/lvgl/src/extra/themes/mono/../../../../src/hal/../draw/../misc/lv_color.h **** #define _LV_COLOR_MAKE_TYPE_HELPER lv_color_t
  96:Drivers/lvgl/src/extra/themes/mono/../../../../src/hal/../draw/../misc/lv_color.h **** #else
  97:Drivers/lvgl/src/extra/themes/mono/../../../../src/hal/../draw/../misc/lv_color.h **** #define _LV_COLOR_MAKE_TYPE_HELPER (lv_color_t)
  98:Drivers/lvgl/src/extra/themes/mono/../../../../src/hal/../draw/../misc/lv_color.h **** #endif
  99:Drivers/lvgl/src/extra/themes/mono/../../../../src/hal/../draw/../misc/lv_color.h **** 
 100:Drivers/lvgl/src/extra/themes/mono/../../../../src/hal/../draw/../misc/lv_color.h **** /*---------------------------------------
 101:Drivers/lvgl/src/extra/themes/mono/../../../../src/hal/../draw/../misc/lv_color.h ****  * Macros for all existing color depths
 102:Drivers/lvgl/src/extra/themes/mono/../../../../src/hal/../draw/../misc/lv_color.h ****  * to set/get values of the color channels
 103:Drivers/lvgl/src/extra/themes/mono/../../../../src/hal/../draw/../misc/lv_color.h ****  *------------------------------------------*/
 104:Drivers/lvgl/src/extra/themes/mono/../../../../src/hal/../draw/../misc/lv_color.h **** # define LV_COLOR_SET_R1(c, v) (c).ch.red = (uint8_t)((v) & 0x1)
 105:Drivers/lvgl/src/extra/themes/mono/../../../../src/hal/../draw/../misc/lv_color.h **** # define LV_COLOR_SET_G1(c, v) (c).ch.green = (uint8_t)((v) & 0x1)
 106:Drivers/lvgl/src/extra/themes/mono/../../../../src/hal/../draw/../misc/lv_color.h **** # define LV_COLOR_SET_B1(c, v) (c).ch.blue = (uint8_t)((v) & 0x1)
 107:Drivers/lvgl/src/extra/themes/mono/../../../../src/hal/../draw/../misc/lv_color.h **** # define LV_COLOR_SET_A1(c, v) do {} while(0)
 108:Drivers/lvgl/src/extra/themes/mono/../../../../src/hal/../draw/../misc/lv_color.h **** 
 109:Drivers/lvgl/src/extra/themes/mono/../../../../src/hal/../draw/../misc/lv_color.h **** # define LV_COLOR_GET_R1(c) (c).ch.red
 110:Drivers/lvgl/src/extra/themes/mono/../../../../src/hal/../draw/../misc/lv_color.h **** # define LV_COLOR_GET_G1(c) (c).ch.green
 111:Drivers/lvgl/src/extra/themes/mono/../../../../src/hal/../draw/../misc/lv_color.h **** # define LV_COLOR_GET_B1(c) (c).ch.blue
 112:Drivers/lvgl/src/extra/themes/mono/../../../../src/hal/../draw/../misc/lv_color.h **** # define LV_COLOR_GET_A1(c) 0xFF
 113:Drivers/lvgl/src/extra/themes/mono/../../../../src/hal/../draw/../misc/lv_color.h **** 
 114:Drivers/lvgl/src/extra/themes/mono/../../../../src/hal/../draw/../misc/lv_color.h **** # define _LV_COLOR_ZERO_INITIALIZER1 {0x00}
 115:Drivers/lvgl/src/extra/themes/mono/../../../../src/hal/../draw/../misc/lv_color.h **** # define LV_COLOR_MAKE1(r8, g8, b8)  {(uint8_t)((b8 >> 7) | (g8 >> 7) | (r8 >> 7))}
 116:Drivers/lvgl/src/extra/themes/mono/../../../../src/hal/../draw/../misc/lv_color.h **** 
 117:Drivers/lvgl/src/extra/themes/mono/../../../../src/hal/../draw/../misc/lv_color.h **** # define LV_COLOR_SET_R8(c, v) (c).ch.red = (uint8_t)((v) & 0x7U)
 118:Drivers/lvgl/src/extra/themes/mono/../../../../src/hal/../draw/../misc/lv_color.h **** # define LV_COLOR_SET_G8(c, v) (c).ch.green = (uint8_t)((v) & 0x7U)
 119:Drivers/lvgl/src/extra/themes/mono/../../../../src/hal/../draw/../misc/lv_color.h **** # define LV_COLOR_SET_B8(c, v) (c).ch.blue = (uint8_t)((v) & 0x3U)
 120:Drivers/lvgl/src/extra/themes/mono/../../../../src/hal/../draw/../misc/lv_color.h **** # define LV_COLOR_SET_A8(c, v) do {} while(0)
 121:Drivers/lvgl/src/extra/themes/mono/../../../../src/hal/../draw/../misc/lv_color.h **** 
 122:Drivers/lvgl/src/extra/themes/mono/../../../../src/hal/../draw/../misc/lv_color.h **** # define LV_COLOR_GET_R8(c) (c).ch.red
 123:Drivers/lvgl/src/extra/themes/mono/../../../../src/hal/../draw/../misc/lv_color.h **** # define LV_COLOR_GET_G8(c) (c).ch.green
 124:Drivers/lvgl/src/extra/themes/mono/../../../../src/hal/../draw/../misc/lv_color.h **** # define LV_COLOR_GET_B8(c) (c).ch.blue
 125:Drivers/lvgl/src/extra/themes/mono/../../../../src/hal/../draw/../misc/lv_color.h **** # define LV_COLOR_GET_A8(c) 0xFF
 126:Drivers/lvgl/src/extra/themes/mono/../../../../src/hal/../draw/../misc/lv_color.h **** 
 127:Drivers/lvgl/src/extra/themes/mono/../../../../src/hal/../draw/../misc/lv_color.h **** # define _LV_COLOR_ZERO_INITIALIZER8 {{0x00, 0x00, 0x00}}
 128:Drivers/lvgl/src/extra/themes/mono/../../../../src/hal/../draw/../misc/lv_color.h **** # define LV_COLOR_MAKE8(r8, g8, b8) {{(uint8_t)((b8 >> 6) & 0x3U), (uint8_t)((g8 >> 5) & 0x7U), (ui
 129:Drivers/lvgl/src/extra/themes/mono/../../../../src/hal/../draw/../misc/lv_color.h **** 
 130:Drivers/lvgl/src/extra/themes/mono/../../../../src/hal/../draw/../misc/lv_color.h **** # define LV_COLOR_SET_R16(c, v) (c).ch.red = (uint8_t)((v) & 0x1FU)
 131:Drivers/lvgl/src/extra/themes/mono/../../../../src/hal/../draw/../misc/lv_color.h **** #if LV_COLOR_16_SWAP == 0
 132:Drivers/lvgl/src/extra/themes/mono/../../../../src/hal/../draw/../misc/lv_color.h **** # define LV_COLOR_SET_G16(c, v) (c).ch.green = (uint8_t)((v) & 0x3FU)
 133:Drivers/lvgl/src/extra/themes/mono/../../../../src/hal/../draw/../misc/lv_color.h **** #else
 134:Drivers/lvgl/src/extra/themes/mono/../../../../src/hal/../draw/../misc/lv_color.h **** # define LV_COLOR_SET_G16(c, v) {(c).ch.green_h = (uint8_t)(((v) >> 3) & 0x7); (c).ch.green_l = (ui
 135:Drivers/lvgl/src/extra/themes/mono/../../../../src/hal/../draw/../misc/lv_color.h **** #endif
 136:Drivers/lvgl/src/extra/themes/mono/../../../../src/hal/../draw/../misc/lv_color.h **** # define LV_COLOR_SET_B16(c, v) (c).ch.blue = (uint8_t)((v) & 0x1FU)
 137:Drivers/lvgl/src/extra/themes/mono/../../../../src/hal/../draw/../misc/lv_color.h **** # define LV_COLOR_SET_A16(c, v) do {} while(0)
 138:Drivers/lvgl/src/extra/themes/mono/../../../../src/hal/../draw/../misc/lv_color.h **** 
 139:Drivers/lvgl/src/extra/themes/mono/../../../../src/hal/../draw/../misc/lv_color.h **** # define LV_COLOR_GET_R16(c) (c).ch.red
 140:Drivers/lvgl/src/extra/themes/mono/../../../../src/hal/../draw/../misc/lv_color.h **** #if LV_COLOR_16_SWAP == 0
 141:Drivers/lvgl/src/extra/themes/mono/../../../../src/hal/../draw/../misc/lv_color.h **** # define LV_COLOR_GET_G16(c) (c).ch.green
 142:Drivers/lvgl/src/extra/themes/mono/../../../../src/hal/../draw/../misc/lv_color.h **** #else
 143:Drivers/lvgl/src/extra/themes/mono/../../../../src/hal/../draw/../misc/lv_color.h **** # define LV_COLOR_GET_G16(c) (((c).ch.green_h << 3) + (c).ch.green_l)
 144:Drivers/lvgl/src/extra/themes/mono/../../../../src/hal/../draw/../misc/lv_color.h **** #endif
 145:Drivers/lvgl/src/extra/themes/mono/../../../../src/hal/../draw/../misc/lv_color.h **** # define LV_COLOR_GET_B16(c) (c).ch.blue
ARM GAS  /var/folders/0z/tsy30v1j4xl4_7kw94k978ww0000gn/T//ccM2UjO5.s 			page 45


 146:Drivers/lvgl/src/extra/themes/mono/../../../../src/hal/../draw/../misc/lv_color.h **** # define LV_COLOR_GET_A16(c) 0xFF
 147:Drivers/lvgl/src/extra/themes/mono/../../../../src/hal/../draw/../misc/lv_color.h **** 
 148:Drivers/lvgl/src/extra/themes/mono/../../../../src/hal/../draw/../misc/lv_color.h **** #if LV_COLOR_16_SWAP == 0
 149:Drivers/lvgl/src/extra/themes/mono/../../../../src/hal/../draw/../misc/lv_color.h **** # define _LV_COLOR_ZERO_INITIALIZER16  {{0x00, 0x00, 0x00}}
 150:Drivers/lvgl/src/extra/themes/mono/../../../../src/hal/../draw/../misc/lv_color.h **** # define LV_COLOR_MAKE16(r8, g8, b8) {{(uint8_t)((b8 >> 3) & 0x1FU), (uint8_t)((g8 >> 2) & 0x3FU), 
 151:Drivers/lvgl/src/extra/themes/mono/../../../../src/hal/../draw/../misc/lv_color.h **** #else
 152:Drivers/lvgl/src/extra/themes/mono/../../../../src/hal/../draw/../misc/lv_color.h **** # define _LV_COLOR_ZERO_INITIALIZER16 {{0x00, 0x00, 0x00, 0x00}}
 153:Drivers/lvgl/src/extra/themes/mono/../../../../src/hal/../draw/../misc/lv_color.h **** # define LV_COLOR_MAKE16(r8, g8, b8) {{(uint8_t)((g8 >> 5) & 0x7U), (uint8_t)((r8 >> 3) & 0x1FU), (
 154:Drivers/lvgl/src/extra/themes/mono/../../../../src/hal/../draw/../misc/lv_color.h **** #endif
 155:Drivers/lvgl/src/extra/themes/mono/../../../../src/hal/../draw/../misc/lv_color.h **** 
 156:Drivers/lvgl/src/extra/themes/mono/../../../../src/hal/../draw/../misc/lv_color.h **** # define LV_COLOR_SET_R32(c, v) (c).ch.red = (uint8_t)((v) & 0xFF)
 157:Drivers/lvgl/src/extra/themes/mono/../../../../src/hal/../draw/../misc/lv_color.h **** # define LV_COLOR_SET_G32(c, v) (c).ch.green = (uint8_t)((v) & 0xFF)
 158:Drivers/lvgl/src/extra/themes/mono/../../../../src/hal/../draw/../misc/lv_color.h **** # define LV_COLOR_SET_B32(c, v) (c).ch.blue = (uint8_t)((v) & 0xFF)
 159:Drivers/lvgl/src/extra/themes/mono/../../../../src/hal/../draw/../misc/lv_color.h **** # define LV_COLOR_SET_A32(c, v) (c).ch.alpha = (uint8_t)((v) & 0xFF)
 160:Drivers/lvgl/src/extra/themes/mono/../../../../src/hal/../draw/../misc/lv_color.h **** 
 161:Drivers/lvgl/src/extra/themes/mono/../../../../src/hal/../draw/../misc/lv_color.h **** # define LV_COLOR_GET_R32(c) (c).ch.red
 162:Drivers/lvgl/src/extra/themes/mono/../../../../src/hal/../draw/../misc/lv_color.h **** # define LV_COLOR_GET_G32(c) (c).ch.green
 163:Drivers/lvgl/src/extra/themes/mono/../../../../src/hal/../draw/../misc/lv_color.h **** # define LV_COLOR_GET_B32(c) (c).ch.blue
 164:Drivers/lvgl/src/extra/themes/mono/../../../../src/hal/../draw/../misc/lv_color.h **** # define LV_COLOR_GET_A32(c) (c).ch.alpha
 165:Drivers/lvgl/src/extra/themes/mono/../../../../src/hal/../draw/../misc/lv_color.h **** 
 166:Drivers/lvgl/src/extra/themes/mono/../../../../src/hal/../draw/../misc/lv_color.h **** # define _LV_COLOR_ZERO_INITIALIZER32  {{0x00, 0x00, 0x00, 0x00}}
 167:Drivers/lvgl/src/extra/themes/mono/../../../../src/hal/../draw/../misc/lv_color.h **** # define LV_COLOR_MAKE32(r8, g8, b8) {{b8, g8, r8, 0xff}} /*Fix 0xff alpha*/
 168:Drivers/lvgl/src/extra/themes/mono/../../../../src/hal/../draw/../misc/lv_color.h **** 
 169:Drivers/lvgl/src/extra/themes/mono/../../../../src/hal/../draw/../misc/lv_color.h **** /*---------------------------------------
 170:Drivers/lvgl/src/extra/themes/mono/../../../../src/hal/../draw/../misc/lv_color.h ****  * Macros for the current color depth
 171:Drivers/lvgl/src/extra/themes/mono/../../../../src/hal/../draw/../misc/lv_color.h ****  * to set/get values of the color channels
 172:Drivers/lvgl/src/extra/themes/mono/../../../../src/hal/../draw/../misc/lv_color.h ****  *------------------------------------------*/
 173:Drivers/lvgl/src/extra/themes/mono/../../../../src/hal/../draw/../misc/lv_color.h **** #define LV_COLOR_SET_R(c, v) LV_CONCAT(LV_COLOR_SET_R, LV_COLOR_DEPTH)(c, v)
 174:Drivers/lvgl/src/extra/themes/mono/../../../../src/hal/../draw/../misc/lv_color.h **** #define LV_COLOR_SET_G(c, v) LV_CONCAT(LV_COLOR_SET_G, LV_COLOR_DEPTH)(c, v)
 175:Drivers/lvgl/src/extra/themes/mono/../../../../src/hal/../draw/../misc/lv_color.h **** #define LV_COLOR_SET_B(c, v) LV_CONCAT(LV_COLOR_SET_B, LV_COLOR_DEPTH)(c, v)
 176:Drivers/lvgl/src/extra/themes/mono/../../../../src/hal/../draw/../misc/lv_color.h **** #define LV_COLOR_SET_A(c, v) LV_CONCAT(LV_COLOR_SET_A, LV_COLOR_DEPTH)(c, v)
 177:Drivers/lvgl/src/extra/themes/mono/../../../../src/hal/../draw/../misc/lv_color.h **** 
 178:Drivers/lvgl/src/extra/themes/mono/../../../../src/hal/../draw/../misc/lv_color.h **** #define LV_COLOR_GET_R(c) LV_CONCAT(LV_COLOR_GET_R, LV_COLOR_DEPTH)(c)
 179:Drivers/lvgl/src/extra/themes/mono/../../../../src/hal/../draw/../misc/lv_color.h **** #define LV_COLOR_GET_G(c) LV_CONCAT(LV_COLOR_GET_G, LV_COLOR_DEPTH)(c)
 180:Drivers/lvgl/src/extra/themes/mono/../../../../src/hal/../draw/../misc/lv_color.h **** #define LV_COLOR_GET_B(c) LV_CONCAT(LV_COLOR_GET_B, LV_COLOR_DEPTH)(c)
 181:Drivers/lvgl/src/extra/themes/mono/../../../../src/hal/../draw/../misc/lv_color.h **** #define LV_COLOR_GET_A(c) LV_CONCAT(LV_COLOR_GET_A, LV_COLOR_DEPTH)(c)
 182:Drivers/lvgl/src/extra/themes/mono/../../../../src/hal/../draw/../misc/lv_color.h **** 
 183:Drivers/lvgl/src/extra/themes/mono/../../../../src/hal/../draw/../misc/lv_color.h **** #define _LV_COLOR_ZERO_INITIALIZER LV_CONCAT(_LV_COLOR_ZERO_INITIALIZER, LV_COLOR_DEPTH)
 184:Drivers/lvgl/src/extra/themes/mono/../../../../src/hal/../draw/../misc/lv_color.h **** #define LV_COLOR_MAKE(r8, g8, b8) LV_CONCAT(LV_COLOR_MAKE, LV_COLOR_DEPTH)(r8, g8, b8)
 185:Drivers/lvgl/src/extra/themes/mono/../../../../src/hal/../draw/../misc/lv_color.h **** 
 186:Drivers/lvgl/src/extra/themes/mono/../../../../src/hal/../draw/../misc/lv_color.h **** /**********************
 187:Drivers/lvgl/src/extra/themes/mono/../../../../src/hal/../draw/../misc/lv_color.h ****  *      TYPEDEFS
 188:Drivers/lvgl/src/extra/themes/mono/../../../../src/hal/../draw/../misc/lv_color.h ****  **********************/
 189:Drivers/lvgl/src/extra/themes/mono/../../../../src/hal/../draw/../misc/lv_color.h **** 
 190:Drivers/lvgl/src/extra/themes/mono/../../../../src/hal/../draw/../misc/lv_color.h **** typedef union {
 191:Drivers/lvgl/src/extra/themes/mono/../../../../src/hal/../draw/../misc/lv_color.h ****     uint8_t full; /*must be declared first to set all bits of byte via initializer list*/
 192:Drivers/lvgl/src/extra/themes/mono/../../../../src/hal/../draw/../misc/lv_color.h ****     union {
 193:Drivers/lvgl/src/extra/themes/mono/../../../../src/hal/../draw/../misc/lv_color.h ****         uint8_t blue : 1;
 194:Drivers/lvgl/src/extra/themes/mono/../../../../src/hal/../draw/../misc/lv_color.h ****         uint8_t green : 1;
 195:Drivers/lvgl/src/extra/themes/mono/../../../../src/hal/../draw/../misc/lv_color.h ****         uint8_t red : 1;
 196:Drivers/lvgl/src/extra/themes/mono/../../../../src/hal/../draw/../misc/lv_color.h ****     } ch;
 197:Drivers/lvgl/src/extra/themes/mono/../../../../src/hal/../draw/../misc/lv_color.h **** } lv_color1_t;
 198:Drivers/lvgl/src/extra/themes/mono/../../../../src/hal/../draw/../misc/lv_color.h **** 
 199:Drivers/lvgl/src/extra/themes/mono/../../../../src/hal/../draw/../misc/lv_color.h **** typedef union {
 200:Drivers/lvgl/src/extra/themes/mono/../../../../src/hal/../draw/../misc/lv_color.h ****     struct {
 201:Drivers/lvgl/src/extra/themes/mono/../../../../src/hal/../draw/../misc/lv_color.h ****         uint8_t blue : 2;
 202:Drivers/lvgl/src/extra/themes/mono/../../../../src/hal/../draw/../misc/lv_color.h ****         uint8_t green : 3;
ARM GAS  /var/folders/0z/tsy30v1j4xl4_7kw94k978ww0000gn/T//ccM2UjO5.s 			page 46


 203:Drivers/lvgl/src/extra/themes/mono/../../../../src/hal/../draw/../misc/lv_color.h ****         uint8_t red : 3;
 204:Drivers/lvgl/src/extra/themes/mono/../../../../src/hal/../draw/../misc/lv_color.h ****     } ch;
 205:Drivers/lvgl/src/extra/themes/mono/../../../../src/hal/../draw/../misc/lv_color.h ****     uint8_t full;
 206:Drivers/lvgl/src/extra/themes/mono/../../../../src/hal/../draw/../misc/lv_color.h **** } lv_color8_t;
 207:Drivers/lvgl/src/extra/themes/mono/../../../../src/hal/../draw/../misc/lv_color.h **** 
 208:Drivers/lvgl/src/extra/themes/mono/../../../../src/hal/../draw/../misc/lv_color.h **** typedef union {
 209:Drivers/lvgl/src/extra/themes/mono/../../../../src/hal/../draw/../misc/lv_color.h ****     struct {
 210:Drivers/lvgl/src/extra/themes/mono/../../../../src/hal/../draw/../misc/lv_color.h **** #if LV_COLOR_16_SWAP == 0
 211:Drivers/lvgl/src/extra/themes/mono/../../../../src/hal/../draw/../misc/lv_color.h ****         uint16_t blue : 5;
 212:Drivers/lvgl/src/extra/themes/mono/../../../../src/hal/../draw/../misc/lv_color.h ****         uint16_t green : 6;
 213:Drivers/lvgl/src/extra/themes/mono/../../../../src/hal/../draw/../misc/lv_color.h ****         uint16_t red : 5;
 214:Drivers/lvgl/src/extra/themes/mono/../../../../src/hal/../draw/../misc/lv_color.h **** #else
 215:Drivers/lvgl/src/extra/themes/mono/../../../../src/hal/../draw/../misc/lv_color.h ****         uint16_t green_h : 3;
 216:Drivers/lvgl/src/extra/themes/mono/../../../../src/hal/../draw/../misc/lv_color.h ****         uint16_t red : 5;
 217:Drivers/lvgl/src/extra/themes/mono/../../../../src/hal/../draw/../misc/lv_color.h ****         uint16_t blue : 5;
 218:Drivers/lvgl/src/extra/themes/mono/../../../../src/hal/../draw/../misc/lv_color.h ****         uint16_t green_l : 3;
 219:Drivers/lvgl/src/extra/themes/mono/../../../../src/hal/../draw/../misc/lv_color.h **** #endif
 220:Drivers/lvgl/src/extra/themes/mono/../../../../src/hal/../draw/../misc/lv_color.h ****     } ch;
 221:Drivers/lvgl/src/extra/themes/mono/../../../../src/hal/../draw/../misc/lv_color.h ****     uint16_t full;
 222:Drivers/lvgl/src/extra/themes/mono/../../../../src/hal/../draw/../misc/lv_color.h **** } lv_color16_t;
 223:Drivers/lvgl/src/extra/themes/mono/../../../../src/hal/../draw/../misc/lv_color.h **** 
 224:Drivers/lvgl/src/extra/themes/mono/../../../../src/hal/../draw/../misc/lv_color.h **** typedef union {
 225:Drivers/lvgl/src/extra/themes/mono/../../../../src/hal/../draw/../misc/lv_color.h ****     struct {
 226:Drivers/lvgl/src/extra/themes/mono/../../../../src/hal/../draw/../misc/lv_color.h ****         uint8_t blue;
 227:Drivers/lvgl/src/extra/themes/mono/../../../../src/hal/../draw/../misc/lv_color.h ****         uint8_t green;
 228:Drivers/lvgl/src/extra/themes/mono/../../../../src/hal/../draw/../misc/lv_color.h ****         uint8_t red;
 229:Drivers/lvgl/src/extra/themes/mono/../../../../src/hal/../draw/../misc/lv_color.h ****         uint8_t alpha;
 230:Drivers/lvgl/src/extra/themes/mono/../../../../src/hal/../draw/../misc/lv_color.h ****     } ch;
 231:Drivers/lvgl/src/extra/themes/mono/../../../../src/hal/../draw/../misc/lv_color.h ****     uint32_t full;
 232:Drivers/lvgl/src/extra/themes/mono/../../../../src/hal/../draw/../misc/lv_color.h **** } lv_color32_t;
 233:Drivers/lvgl/src/extra/themes/mono/../../../../src/hal/../draw/../misc/lv_color.h **** 
 234:Drivers/lvgl/src/extra/themes/mono/../../../../src/hal/../draw/../misc/lv_color.h **** typedef LV_CONCAT3(uint, LV_COLOR_SIZE, _t) lv_color_int_t;
 235:Drivers/lvgl/src/extra/themes/mono/../../../../src/hal/../draw/../misc/lv_color.h **** typedef LV_CONCAT3(lv_color, LV_COLOR_DEPTH, _t) lv_color_t;
 236:Drivers/lvgl/src/extra/themes/mono/../../../../src/hal/../draw/../misc/lv_color.h **** 
 237:Drivers/lvgl/src/extra/themes/mono/../../../../src/hal/../draw/../misc/lv_color.h **** typedef struct {
 238:Drivers/lvgl/src/extra/themes/mono/../../../../src/hal/../draw/../misc/lv_color.h ****     uint16_t h;
 239:Drivers/lvgl/src/extra/themes/mono/../../../../src/hal/../draw/../misc/lv_color.h ****     uint8_t s;
 240:Drivers/lvgl/src/extra/themes/mono/../../../../src/hal/../draw/../misc/lv_color.h ****     uint8_t v;
 241:Drivers/lvgl/src/extra/themes/mono/../../../../src/hal/../draw/../misc/lv_color.h **** } lv_color_hsv_t;
 242:Drivers/lvgl/src/extra/themes/mono/../../../../src/hal/../draw/../misc/lv_color.h **** 
 243:Drivers/lvgl/src/extra/themes/mono/../../../../src/hal/../draw/../misc/lv_color.h **** //! @cond Doxygen_Suppress
 244:Drivers/lvgl/src/extra/themes/mono/../../../../src/hal/../draw/../misc/lv_color.h **** /*No idea where the guard is required but else throws warnings in the docs*/
 245:Drivers/lvgl/src/extra/themes/mono/../../../../src/hal/../draw/../misc/lv_color.h **** typedef uint8_t lv_opa_t;
 246:Drivers/lvgl/src/extra/themes/mono/../../../../src/hal/../draw/../misc/lv_color.h **** //! @endcond
 247:Drivers/lvgl/src/extra/themes/mono/../../../../src/hal/../draw/../misc/lv_color.h **** 
 248:Drivers/lvgl/src/extra/themes/mono/../../../../src/hal/../draw/../misc/lv_color.h **** struct _lv_color_filter_dsc_t;
 249:Drivers/lvgl/src/extra/themes/mono/../../../../src/hal/../draw/../misc/lv_color.h **** 
 250:Drivers/lvgl/src/extra/themes/mono/../../../../src/hal/../draw/../misc/lv_color.h **** typedef lv_color_t (*lv_color_filter_cb_t)(const struct _lv_color_filter_dsc_t *, lv_color_t, lv_op
 251:Drivers/lvgl/src/extra/themes/mono/../../../../src/hal/../draw/../misc/lv_color.h **** 
 252:Drivers/lvgl/src/extra/themes/mono/../../../../src/hal/../draw/../misc/lv_color.h **** typedef struct _lv_color_filter_dsc_t {
 253:Drivers/lvgl/src/extra/themes/mono/../../../../src/hal/../draw/../misc/lv_color.h ****     lv_color_filter_cb_t filter_cb;
 254:Drivers/lvgl/src/extra/themes/mono/../../../../src/hal/../draw/../misc/lv_color.h ****     void * user_data;
 255:Drivers/lvgl/src/extra/themes/mono/../../../../src/hal/../draw/../misc/lv_color.h **** } lv_color_filter_dsc_t;
 256:Drivers/lvgl/src/extra/themes/mono/../../../../src/hal/../draw/../misc/lv_color.h **** 
 257:Drivers/lvgl/src/extra/themes/mono/../../../../src/hal/../draw/../misc/lv_color.h **** 
 258:Drivers/lvgl/src/extra/themes/mono/../../../../src/hal/../draw/../misc/lv_color.h **** typedef enum {
 259:Drivers/lvgl/src/extra/themes/mono/../../../../src/hal/../draw/../misc/lv_color.h ****     LV_PALETTE_RED,
ARM GAS  /var/folders/0z/tsy30v1j4xl4_7kw94k978ww0000gn/T//ccM2UjO5.s 			page 47


 260:Drivers/lvgl/src/extra/themes/mono/../../../../src/hal/../draw/../misc/lv_color.h ****     LV_PALETTE_PINK,
 261:Drivers/lvgl/src/extra/themes/mono/../../../../src/hal/../draw/../misc/lv_color.h ****     LV_PALETTE_PURPLE,
 262:Drivers/lvgl/src/extra/themes/mono/../../../../src/hal/../draw/../misc/lv_color.h ****     LV_PALETTE_DEEP_PURPLE,
 263:Drivers/lvgl/src/extra/themes/mono/../../../../src/hal/../draw/../misc/lv_color.h ****     LV_PALETTE_INDIGO,
 264:Drivers/lvgl/src/extra/themes/mono/../../../../src/hal/../draw/../misc/lv_color.h ****     LV_PALETTE_BLUE,
 265:Drivers/lvgl/src/extra/themes/mono/../../../../src/hal/../draw/../misc/lv_color.h ****     LV_PALETTE_LIGHT_BLUE,
 266:Drivers/lvgl/src/extra/themes/mono/../../../../src/hal/../draw/../misc/lv_color.h ****     LV_PALETTE_CYAN,
 267:Drivers/lvgl/src/extra/themes/mono/../../../../src/hal/../draw/../misc/lv_color.h ****     LV_PALETTE_TEAL,
 268:Drivers/lvgl/src/extra/themes/mono/../../../../src/hal/../draw/../misc/lv_color.h ****     LV_PALETTE_GREEN,
 269:Drivers/lvgl/src/extra/themes/mono/../../../../src/hal/../draw/../misc/lv_color.h ****     LV_PALETTE_LIGHT_GREEN,
 270:Drivers/lvgl/src/extra/themes/mono/../../../../src/hal/../draw/../misc/lv_color.h ****     LV_PALETTE_LIME,
 271:Drivers/lvgl/src/extra/themes/mono/../../../../src/hal/../draw/../misc/lv_color.h ****     LV_PALETTE_YELLOW,
 272:Drivers/lvgl/src/extra/themes/mono/../../../../src/hal/../draw/../misc/lv_color.h ****     LV_PALETTE_AMBER,
 273:Drivers/lvgl/src/extra/themes/mono/../../../../src/hal/../draw/../misc/lv_color.h ****     LV_PALETTE_ORANGE,
 274:Drivers/lvgl/src/extra/themes/mono/../../../../src/hal/../draw/../misc/lv_color.h ****     LV_PALETTE_DEEP_ORANGE,
 275:Drivers/lvgl/src/extra/themes/mono/../../../../src/hal/../draw/../misc/lv_color.h ****     LV_PALETTE_BROWN,
 276:Drivers/lvgl/src/extra/themes/mono/../../../../src/hal/../draw/../misc/lv_color.h ****     LV_PALETTE_BLUE_GREY,
 277:Drivers/lvgl/src/extra/themes/mono/../../../../src/hal/../draw/../misc/lv_color.h ****     LV_PALETTE_GREY,
 278:Drivers/lvgl/src/extra/themes/mono/../../../../src/hal/../draw/../misc/lv_color.h ****     _LV_PALETTE_LAST,
 279:Drivers/lvgl/src/extra/themes/mono/../../../../src/hal/../draw/../misc/lv_color.h ****     LV_PALETTE_NONE = 0xff,
 280:Drivers/lvgl/src/extra/themes/mono/../../../../src/hal/../draw/../misc/lv_color.h **** } lv_palette_t;
 281:Drivers/lvgl/src/extra/themes/mono/../../../../src/hal/../draw/../misc/lv_color.h **** 
 282:Drivers/lvgl/src/extra/themes/mono/../../../../src/hal/../draw/../misc/lv_color.h **** /**********************
 283:Drivers/lvgl/src/extra/themes/mono/../../../../src/hal/../draw/../misc/lv_color.h ****  * GLOBAL PROTOTYPES
 284:Drivers/lvgl/src/extra/themes/mono/../../../../src/hal/../draw/../misc/lv_color.h ****  **********************/
 285:Drivers/lvgl/src/extra/themes/mono/../../../../src/hal/../draw/../misc/lv_color.h **** 
 286:Drivers/lvgl/src/extra/themes/mono/../../../../src/hal/../draw/../misc/lv_color.h **** /*In color conversations:
 287:Drivers/lvgl/src/extra/themes/mono/../../../../src/hal/../draw/../misc/lv_color.h ****  * - When converting to bigger color type the LSB weight of 1 LSB is calculated
 288:Drivers/lvgl/src/extra/themes/mono/../../../../src/hal/../draw/../misc/lv_color.h ****  *   E.g. 16 bit Red has 5 bits
 289:Drivers/lvgl/src/extra/themes/mono/../../../../src/hal/../draw/../misc/lv_color.h ****  *         8 bit Red has 3 bits
 290:Drivers/lvgl/src/extra/themes/mono/../../../../src/hal/../draw/../misc/lv_color.h ****  *        ----------------------
 291:Drivers/lvgl/src/extra/themes/mono/../../../../src/hal/../draw/../misc/lv_color.h ****  *        8 bit red LSB = (2^5 - 1) / (2^3 - 1) = 31 / 7 = 4
 292:Drivers/lvgl/src/extra/themes/mono/../../../../src/hal/../draw/../misc/lv_color.h ****  *
 293:Drivers/lvgl/src/extra/themes/mono/../../../../src/hal/../draw/../misc/lv_color.h ****  * - When calculating to smaller color type simply shift out the LSBs
 294:Drivers/lvgl/src/extra/themes/mono/../../../../src/hal/../draw/../misc/lv_color.h ****  *   E.g.  8 bit Red has 3 bits
 295:Drivers/lvgl/src/extra/themes/mono/../../../../src/hal/../draw/../misc/lv_color.h ****  *        16 bit Red has 5 bits
 296:Drivers/lvgl/src/extra/themes/mono/../../../../src/hal/../draw/../misc/lv_color.h ****  *        ----------------------
 297:Drivers/lvgl/src/extra/themes/mono/../../../../src/hal/../draw/../misc/lv_color.h ****  *         Shift right with 5 - 3 = 2
 298:Drivers/lvgl/src/extra/themes/mono/../../../../src/hal/../draw/../misc/lv_color.h ****  */
 299:Drivers/lvgl/src/extra/themes/mono/../../../../src/hal/../draw/../misc/lv_color.h **** static inline uint8_t lv_color_to1(lv_color_t color)
 300:Drivers/lvgl/src/extra/themes/mono/../../../../src/hal/../draw/../misc/lv_color.h **** {
 301:Drivers/lvgl/src/extra/themes/mono/../../../../src/hal/../draw/../misc/lv_color.h **** #if LV_COLOR_DEPTH == 1
 302:Drivers/lvgl/src/extra/themes/mono/../../../../src/hal/../draw/../misc/lv_color.h ****     return color.full;
 303:Drivers/lvgl/src/extra/themes/mono/../../../../src/hal/../draw/../misc/lv_color.h **** #elif LV_COLOR_DEPTH == 8
 304:Drivers/lvgl/src/extra/themes/mono/../../../../src/hal/../draw/../misc/lv_color.h ****     if((LV_COLOR_GET_R(color) & 0x4) || (LV_COLOR_GET_G(color) & 0x4) || (LV_COLOR_GET_B(color) & 0
 305:Drivers/lvgl/src/extra/themes/mono/../../../../src/hal/../draw/../misc/lv_color.h ****         return 1;
 306:Drivers/lvgl/src/extra/themes/mono/../../../../src/hal/../draw/../misc/lv_color.h ****     }
 307:Drivers/lvgl/src/extra/themes/mono/../../../../src/hal/../draw/../misc/lv_color.h ****     else {
 308:Drivers/lvgl/src/extra/themes/mono/../../../../src/hal/../draw/../misc/lv_color.h ****         return 0;
 309:Drivers/lvgl/src/extra/themes/mono/../../../../src/hal/../draw/../misc/lv_color.h ****     }
 310:Drivers/lvgl/src/extra/themes/mono/../../../../src/hal/../draw/../misc/lv_color.h **** #elif LV_COLOR_DEPTH == 16
 311:Drivers/lvgl/src/extra/themes/mono/../../../../src/hal/../draw/../misc/lv_color.h ****     if((LV_COLOR_GET_R(color) & 0x10) || (LV_COLOR_GET_G(color) & 0x20) || (LV_COLOR_GET_B(color) &
 312:Drivers/lvgl/src/extra/themes/mono/../../../../src/hal/../draw/../misc/lv_color.h ****         return 1;
 313:Drivers/lvgl/src/extra/themes/mono/../../../../src/hal/../draw/../misc/lv_color.h ****     }
 314:Drivers/lvgl/src/extra/themes/mono/../../../../src/hal/../draw/../misc/lv_color.h ****     else {
 315:Drivers/lvgl/src/extra/themes/mono/../../../../src/hal/../draw/../misc/lv_color.h ****         return 0;
 316:Drivers/lvgl/src/extra/themes/mono/../../../../src/hal/../draw/../misc/lv_color.h ****     }
ARM GAS  /var/folders/0z/tsy30v1j4xl4_7kw94k978ww0000gn/T//ccM2UjO5.s 			page 48


 317:Drivers/lvgl/src/extra/themes/mono/../../../../src/hal/../draw/../misc/lv_color.h **** #elif LV_COLOR_DEPTH == 32
 318:Drivers/lvgl/src/extra/themes/mono/../../../../src/hal/../draw/../misc/lv_color.h ****     if((LV_COLOR_GET_R(color) & 0x80) || (LV_COLOR_GET_G(color) & 0x80) || (LV_COLOR_GET_B(color) &
 319:Drivers/lvgl/src/extra/themes/mono/../../../../src/hal/../draw/../misc/lv_color.h ****         return 1;
 320:Drivers/lvgl/src/extra/themes/mono/../../../../src/hal/../draw/../misc/lv_color.h ****     }
 321:Drivers/lvgl/src/extra/themes/mono/../../../../src/hal/../draw/../misc/lv_color.h ****     else {
 322:Drivers/lvgl/src/extra/themes/mono/../../../../src/hal/../draw/../misc/lv_color.h ****         return 0;
 323:Drivers/lvgl/src/extra/themes/mono/../../../../src/hal/../draw/../misc/lv_color.h ****     }
 324:Drivers/lvgl/src/extra/themes/mono/../../../../src/hal/../draw/../misc/lv_color.h **** #endif
 325:Drivers/lvgl/src/extra/themes/mono/../../../../src/hal/../draw/../misc/lv_color.h **** }
 326:Drivers/lvgl/src/extra/themes/mono/../../../../src/hal/../draw/../misc/lv_color.h **** 
 327:Drivers/lvgl/src/extra/themes/mono/../../../../src/hal/../draw/../misc/lv_color.h **** static inline uint8_t lv_color_to8(lv_color_t color)
 328:Drivers/lvgl/src/extra/themes/mono/../../../../src/hal/../draw/../misc/lv_color.h **** {
 329:Drivers/lvgl/src/extra/themes/mono/../../../../src/hal/../draw/../misc/lv_color.h **** #if LV_COLOR_DEPTH == 1
 330:Drivers/lvgl/src/extra/themes/mono/../../../../src/hal/../draw/../misc/lv_color.h ****     if(color.full == 0)
 331:Drivers/lvgl/src/extra/themes/mono/../../../../src/hal/../draw/../misc/lv_color.h ****         return 0;
 332:Drivers/lvgl/src/extra/themes/mono/../../../../src/hal/../draw/../misc/lv_color.h ****     else
 333:Drivers/lvgl/src/extra/themes/mono/../../../../src/hal/../draw/../misc/lv_color.h ****         return 0xFF;
 334:Drivers/lvgl/src/extra/themes/mono/../../../../src/hal/../draw/../misc/lv_color.h **** #elif LV_COLOR_DEPTH == 8
 335:Drivers/lvgl/src/extra/themes/mono/../../../../src/hal/../draw/../misc/lv_color.h ****     return color.full;
 336:Drivers/lvgl/src/extra/themes/mono/../../../../src/hal/../draw/../misc/lv_color.h **** #elif LV_COLOR_DEPTH == 16
 337:Drivers/lvgl/src/extra/themes/mono/../../../../src/hal/../draw/../misc/lv_color.h ****     lv_color8_t ret;
 338:Drivers/lvgl/src/extra/themes/mono/../../../../src/hal/../draw/../misc/lv_color.h ****     LV_COLOR_SET_R8(ret, LV_COLOR_GET_R(color) >> 2); /*5 - 3  = 2*/
 339:Drivers/lvgl/src/extra/themes/mono/../../../../src/hal/../draw/../misc/lv_color.h ****     LV_COLOR_SET_G8(ret, LV_COLOR_GET_G(color) >> 3); /*6 - 3  = 3*/
 340:Drivers/lvgl/src/extra/themes/mono/../../../../src/hal/../draw/../misc/lv_color.h ****     LV_COLOR_SET_B8(ret, LV_COLOR_GET_B(color) >> 3); /*5 - 2  = 3*/
 341:Drivers/lvgl/src/extra/themes/mono/../../../../src/hal/../draw/../misc/lv_color.h ****     return ret.full;
 342:Drivers/lvgl/src/extra/themes/mono/../../../../src/hal/../draw/../misc/lv_color.h **** #elif LV_COLOR_DEPTH == 32
 343:Drivers/lvgl/src/extra/themes/mono/../../../../src/hal/../draw/../misc/lv_color.h ****     lv_color8_t ret;
 344:Drivers/lvgl/src/extra/themes/mono/../../../../src/hal/../draw/../misc/lv_color.h ****     LV_COLOR_SET_R8(ret, LV_COLOR_GET_R(color) >> 5); /*8 - 3  = 5*/
 345:Drivers/lvgl/src/extra/themes/mono/../../../../src/hal/../draw/../misc/lv_color.h ****     LV_COLOR_SET_G8(ret, LV_COLOR_GET_G(color) >> 5); /*8 - 3  = 5*/
 346:Drivers/lvgl/src/extra/themes/mono/../../../../src/hal/../draw/../misc/lv_color.h ****     LV_COLOR_SET_B8(ret, LV_COLOR_GET_B(color) >> 6); /*8 - 2  = 6*/
 347:Drivers/lvgl/src/extra/themes/mono/../../../../src/hal/../draw/../misc/lv_color.h ****     return ret.full;
 348:Drivers/lvgl/src/extra/themes/mono/../../../../src/hal/../draw/../misc/lv_color.h **** #endif
 349:Drivers/lvgl/src/extra/themes/mono/../../../../src/hal/../draw/../misc/lv_color.h **** }
 350:Drivers/lvgl/src/extra/themes/mono/../../../../src/hal/../draw/../misc/lv_color.h **** 
 351:Drivers/lvgl/src/extra/themes/mono/../../../../src/hal/../draw/../misc/lv_color.h **** static inline uint16_t lv_color_to16(lv_color_t color)
 352:Drivers/lvgl/src/extra/themes/mono/../../../../src/hal/../draw/../misc/lv_color.h **** {
 353:Drivers/lvgl/src/extra/themes/mono/../../../../src/hal/../draw/../misc/lv_color.h **** #if LV_COLOR_DEPTH == 1
 354:Drivers/lvgl/src/extra/themes/mono/../../../../src/hal/../draw/../misc/lv_color.h ****     if(color.full == 0)
 355:Drivers/lvgl/src/extra/themes/mono/../../../../src/hal/../draw/../misc/lv_color.h ****         return 0;
 356:Drivers/lvgl/src/extra/themes/mono/../../../../src/hal/../draw/../misc/lv_color.h ****     else
 357:Drivers/lvgl/src/extra/themes/mono/../../../../src/hal/../draw/../misc/lv_color.h ****         return 0xFFFF;
 358:Drivers/lvgl/src/extra/themes/mono/../../../../src/hal/../draw/../misc/lv_color.h **** #elif LV_COLOR_DEPTH == 8
 359:Drivers/lvgl/src/extra/themes/mono/../../../../src/hal/../draw/../misc/lv_color.h ****     lv_color16_t ret;
 360:Drivers/lvgl/src/extra/themes/mono/../../../../src/hal/../draw/../misc/lv_color.h ****     LV_COLOR_SET_R16(ret, LV_COLOR_GET_R(color) * 4);  /*(2^5 - 1)/(2^3 - 1) = 31/7 = 4*/
 361:Drivers/lvgl/src/extra/themes/mono/../../../../src/hal/../draw/../misc/lv_color.h ****     LV_COLOR_SET_G16(ret, LV_COLOR_GET_G(color) * 9);  /*(2^6 - 1)/(2^3 - 1) = 63/7 = 9*/
 362:Drivers/lvgl/src/extra/themes/mono/../../../../src/hal/../draw/../misc/lv_color.h ****     LV_COLOR_SET_B16(ret, LV_COLOR_GET_B(color) * 10); /*(2^5 - 1)/(2^2 - 1) = 31/3 = 10*/
 363:Drivers/lvgl/src/extra/themes/mono/../../../../src/hal/../draw/../misc/lv_color.h ****     return ret.full;
 364:Drivers/lvgl/src/extra/themes/mono/../../../../src/hal/../draw/../misc/lv_color.h **** #elif LV_COLOR_DEPTH == 16
 365:Drivers/lvgl/src/extra/themes/mono/../../../../src/hal/../draw/../misc/lv_color.h ****     return color.full;
 366:Drivers/lvgl/src/extra/themes/mono/../../../../src/hal/../draw/../misc/lv_color.h **** #elif LV_COLOR_DEPTH == 32
 367:Drivers/lvgl/src/extra/themes/mono/../../../../src/hal/../draw/../misc/lv_color.h ****     lv_color16_t ret;
 368:Drivers/lvgl/src/extra/themes/mono/../../../../src/hal/../draw/../misc/lv_color.h ****     LV_COLOR_SET_R16(ret, LV_COLOR_GET_R(color) >> 3); /*8 - 5  = 3*/
 369:Drivers/lvgl/src/extra/themes/mono/../../../../src/hal/../draw/../misc/lv_color.h ****     LV_COLOR_SET_G16(ret, LV_COLOR_GET_G(color) >> 2); /*8 - 6  = 2*/
 370:Drivers/lvgl/src/extra/themes/mono/../../../../src/hal/../draw/../misc/lv_color.h ****     LV_COLOR_SET_B16(ret, LV_COLOR_GET_B(color) >> 3); /*8 - 5  = 3*/
 371:Drivers/lvgl/src/extra/themes/mono/../../../../src/hal/../draw/../misc/lv_color.h ****     return ret.full;
 372:Drivers/lvgl/src/extra/themes/mono/../../../../src/hal/../draw/../misc/lv_color.h **** #endif
 373:Drivers/lvgl/src/extra/themes/mono/../../../../src/hal/../draw/../misc/lv_color.h **** }
ARM GAS  /var/folders/0z/tsy30v1j4xl4_7kw94k978ww0000gn/T//ccM2UjO5.s 			page 49


 374:Drivers/lvgl/src/extra/themes/mono/../../../../src/hal/../draw/../misc/lv_color.h **** 
 375:Drivers/lvgl/src/extra/themes/mono/../../../../src/hal/../draw/../misc/lv_color.h **** static inline uint32_t lv_color_to32(lv_color_t color)
 376:Drivers/lvgl/src/extra/themes/mono/../../../../src/hal/../draw/../misc/lv_color.h **** {
 377:Drivers/lvgl/src/extra/themes/mono/../../../../src/hal/../draw/../misc/lv_color.h **** #if LV_COLOR_DEPTH == 1
 378:Drivers/lvgl/src/extra/themes/mono/../../../../src/hal/../draw/../misc/lv_color.h ****     if(color.full == 0)
 379:Drivers/lvgl/src/extra/themes/mono/../../../../src/hal/../draw/../misc/lv_color.h ****         return 0xFF000000;
 380:Drivers/lvgl/src/extra/themes/mono/../../../../src/hal/../draw/../misc/lv_color.h ****     else
 381:Drivers/lvgl/src/extra/themes/mono/../../../../src/hal/../draw/../misc/lv_color.h ****         return 0xFFFFFFFF;
 382:Drivers/lvgl/src/extra/themes/mono/../../../../src/hal/../draw/../misc/lv_color.h **** #elif LV_COLOR_DEPTH == 8
 383:Drivers/lvgl/src/extra/themes/mono/../../../../src/hal/../draw/../misc/lv_color.h ****     lv_color32_t ret;
 384:Drivers/lvgl/src/extra/themes/mono/../../../../src/hal/../draw/../misc/lv_color.h ****     LV_COLOR_SET_R32(ret, LV_COLOR_GET_R(color) * 36); /*(2^8 - 1)/(2^3 - 1) = 255/7 = 36*/
 385:Drivers/lvgl/src/extra/themes/mono/../../../../src/hal/../draw/../misc/lv_color.h ****     LV_COLOR_SET_G32(ret, LV_COLOR_GET_G(color) * 36); /*(2^8 - 1)/(2^3 - 1) = 255/7 = 36*/
 386:Drivers/lvgl/src/extra/themes/mono/../../../../src/hal/../draw/../misc/lv_color.h ****     LV_COLOR_SET_B32(ret, LV_COLOR_GET_B(color) * 85); /*(2^8 - 1)/(2^2 - 1) = 255/3 = 85*/
 387:Drivers/lvgl/src/extra/themes/mono/../../../../src/hal/../draw/../misc/lv_color.h ****     LV_COLOR_SET_A32(ret, 0xFF);
 388:Drivers/lvgl/src/extra/themes/mono/../../../../src/hal/../draw/../misc/lv_color.h ****     return ret.full;
 389:Drivers/lvgl/src/extra/themes/mono/../../../../src/hal/../draw/../misc/lv_color.h **** #elif LV_COLOR_DEPTH == 16
 390:Drivers/lvgl/src/extra/themes/mono/../../../../src/hal/../draw/../misc/lv_color.h ****     /**
 391:Drivers/lvgl/src/extra/themes/mono/../../../../src/hal/../draw/../misc/lv_color.h ****      * The floating point math for conversion is:
 392:Drivers/lvgl/src/extra/themes/mono/../../../../src/hal/../draw/../misc/lv_color.h ****      *  valueto = valuefrom * ( (2^bitsto - 1) / (float)(2^bitsfrom - 1) )
 393:Drivers/lvgl/src/extra/themes/mono/../../../../src/hal/../draw/../misc/lv_color.h ****      * The faster integer math for conversion is:
 394:Drivers/lvgl/src/extra/themes/mono/../../../../src/hal/../draw/../misc/lv_color.h ****      *  valueto = ( valuefrom * multiplier + adder ) >> divisor
 395:Drivers/lvgl/src/extra/themes/mono/../../../../src/hal/../draw/../misc/lv_color.h ****      *   multiplier = FLOOR( ( (2^bitsto - 1) << divisor ) / (float)(2^bitsfrom - 1) )
 396:Drivers/lvgl/src/extra/themes/mono/../../../../src/hal/../draw/../misc/lv_color.h ****      *
 397:Drivers/lvgl/src/extra/themes/mono/../../../../src/hal/../draw/../misc/lv_color.h ****      * Find the first divisor where ( adder >> divisor ) <= 0
 398:Drivers/lvgl/src/extra/themes/mono/../../../../src/hal/../draw/../misc/lv_color.h ****      *
 399:Drivers/lvgl/src/extra/themes/mono/../../../../src/hal/../draw/../misc/lv_color.h ****      * 5-bit to 8-bit: ( 31 * multiplier + adder ) >> divisor = 255
 400:Drivers/lvgl/src/extra/themes/mono/../../../../src/hal/../draw/../misc/lv_color.h ****      * divisor  multiplier  adder  min (0)  max (31)
 401:Drivers/lvgl/src/extra/themes/mono/../../../../src/hal/../draw/../misc/lv_color.h ****      *       0           8      7        7       255
 402:Drivers/lvgl/src/extra/themes/mono/../../../../src/hal/../draw/../misc/lv_color.h ****      *       1          16     14        7       255
 403:Drivers/lvgl/src/extra/themes/mono/../../../../src/hal/../draw/../misc/lv_color.h ****      *       2          32     28        7       255
 404:Drivers/lvgl/src/extra/themes/mono/../../../../src/hal/../draw/../misc/lv_color.h ****      *       3          65     25        3       255
 405:Drivers/lvgl/src/extra/themes/mono/../../../../src/hal/../draw/../misc/lv_color.h ****      *       4         131     19        1       255
 406:Drivers/lvgl/src/extra/themes/mono/../../../../src/hal/../draw/../misc/lv_color.h ****      *       5         263      7        0       255
 407:Drivers/lvgl/src/extra/themes/mono/../../../../src/hal/../draw/../misc/lv_color.h ****      *
 408:Drivers/lvgl/src/extra/themes/mono/../../../../src/hal/../draw/../misc/lv_color.h ****      * 6-bit to 8-bit: 255 = ( 63 * multiplier + adder ) >> divisor
 409:Drivers/lvgl/src/extra/themes/mono/../../../../src/hal/../draw/../misc/lv_color.h ****      * divisor  multiplier  adder  min (0)  max (63)
 410:Drivers/lvgl/src/extra/themes/mono/../../../../src/hal/../draw/../misc/lv_color.h ****      *       0           4      3        3       255
 411:Drivers/lvgl/src/extra/themes/mono/../../../../src/hal/../draw/../misc/lv_color.h ****      *       1           8      6        3       255
 412:Drivers/lvgl/src/extra/themes/mono/../../../../src/hal/../draw/../misc/lv_color.h ****      *       2          16     12        3       255
 413:Drivers/lvgl/src/extra/themes/mono/../../../../src/hal/../draw/../misc/lv_color.h ****      *       3          32     24        3       255
 414:Drivers/lvgl/src/extra/themes/mono/../../../../src/hal/../draw/../misc/lv_color.h ****      *       4          64     48        3       255
 415:Drivers/lvgl/src/extra/themes/mono/../../../../src/hal/../draw/../misc/lv_color.h ****      *       5         129     33        1       255
 416:Drivers/lvgl/src/extra/themes/mono/../../../../src/hal/../draw/../misc/lv_color.h ****      *       6         259      3        0       255
 417:Drivers/lvgl/src/extra/themes/mono/../../../../src/hal/../draw/../misc/lv_color.h ****      */
 418:Drivers/lvgl/src/extra/themes/mono/../../../../src/hal/../draw/../misc/lv_color.h **** 
 419:Drivers/lvgl/src/extra/themes/mono/../../../../src/hal/../draw/../misc/lv_color.h ****     lv_color32_t ret;
 420:Drivers/lvgl/src/extra/themes/mono/../../../../src/hal/../draw/../misc/lv_color.h ****     LV_COLOR_SET_R32(ret, (LV_COLOR_GET_R(color) * 263 + 7) >> 5);
 421:Drivers/lvgl/src/extra/themes/mono/../../../../src/hal/../draw/../misc/lv_color.h ****     LV_COLOR_SET_G32(ret, (LV_COLOR_GET_G(color) * 259 + 3) >> 6);
 422:Drivers/lvgl/src/extra/themes/mono/../../../../src/hal/../draw/../misc/lv_color.h ****     LV_COLOR_SET_B32(ret, (LV_COLOR_GET_B(color) * 263 + 7) >> 5);
 423:Drivers/lvgl/src/extra/themes/mono/../../../../src/hal/../draw/../misc/lv_color.h ****     LV_COLOR_SET_A32(ret, 0xFF);
 424:Drivers/lvgl/src/extra/themes/mono/../../../../src/hal/../draw/../misc/lv_color.h ****     return ret.full;
 425:Drivers/lvgl/src/extra/themes/mono/../../../../src/hal/../draw/../misc/lv_color.h **** #elif LV_COLOR_DEPTH == 32
 426:Drivers/lvgl/src/extra/themes/mono/../../../../src/hal/../draw/../misc/lv_color.h ****     return color.full;
 427:Drivers/lvgl/src/extra/themes/mono/../../../../src/hal/../draw/../misc/lv_color.h **** #endif
 428:Drivers/lvgl/src/extra/themes/mono/../../../../src/hal/../draw/../misc/lv_color.h **** }
 429:Drivers/lvgl/src/extra/themes/mono/../../../../src/hal/../draw/../misc/lv_color.h **** 
 430:Drivers/lvgl/src/extra/themes/mono/../../../../src/hal/../draw/../misc/lv_color.h **** //! @cond Doxygen_Suppress
ARM GAS  /var/folders/0z/tsy30v1j4xl4_7kw94k978ww0000gn/T//ccM2UjO5.s 			page 50


 431:Drivers/lvgl/src/extra/themes/mono/../../../../src/hal/../draw/../misc/lv_color.h **** 
 432:Drivers/lvgl/src/extra/themes/mono/../../../../src/hal/../draw/../misc/lv_color.h **** /**
 433:Drivers/lvgl/src/extra/themes/mono/../../../../src/hal/../draw/../misc/lv_color.h ****  * Mix two colors with a given ratio.
 434:Drivers/lvgl/src/extra/themes/mono/../../../../src/hal/../draw/../misc/lv_color.h ****  * @param c1 the first color to mix (usually the foreground)
 435:Drivers/lvgl/src/extra/themes/mono/../../../../src/hal/../draw/../misc/lv_color.h ****  * @param c2 the second color to mix (usually the background)
 436:Drivers/lvgl/src/extra/themes/mono/../../../../src/hal/../draw/../misc/lv_color.h ****  * @param mix The ratio of the colors. 0: full `c2`, 255: full `c1`, 127: half `c1` and half`c2`
 437:Drivers/lvgl/src/extra/themes/mono/../../../../src/hal/../draw/../misc/lv_color.h ****  * @return the mixed color
 438:Drivers/lvgl/src/extra/themes/mono/../../../../src/hal/../draw/../misc/lv_color.h ****  */
 439:Drivers/lvgl/src/extra/themes/mono/../../../../src/hal/../draw/../misc/lv_color.h **** static inline lv_color_t LV_ATTRIBUTE_FAST_MEM lv_color_mix(lv_color_t c1, lv_color_t c2, uint8_t m
 440:Drivers/lvgl/src/extra/themes/mono/../../../../src/hal/../draw/../misc/lv_color.h **** {
 441:Drivers/lvgl/src/extra/themes/mono/../../../../src/hal/../draw/../misc/lv_color.h ****     lv_color_t ret;
 442:Drivers/lvgl/src/extra/themes/mono/../../../../src/hal/../draw/../misc/lv_color.h **** 
 443:Drivers/lvgl/src/extra/themes/mono/../../../../src/hal/../draw/../misc/lv_color.h **** #if LV_COLOR_DEPTH == 16 && LV_COLOR_MIX_ROUND_OFS == 0
 444:Drivers/lvgl/src/extra/themes/mono/../../../../src/hal/../draw/../misc/lv_color.h **** #if LV_COLOR_16_SWAP == 1
 445:Drivers/lvgl/src/extra/themes/mono/../../../../src/hal/../draw/../misc/lv_color.h ****     c1.full = c1.full << 8 | c1.full >> 8;
 446:Drivers/lvgl/src/extra/themes/mono/../../../../src/hal/../draw/../misc/lv_color.h ****     c2.full = c2.full << 8 | c2.full >> 8;
 447:Drivers/lvgl/src/extra/themes/mono/../../../../src/hal/../draw/../misc/lv_color.h **** #endif
 448:Drivers/lvgl/src/extra/themes/mono/../../../../src/hal/../draw/../misc/lv_color.h ****     /*Source: https://stackoverflow.com/a/50012418/1999969*/
 449:Drivers/lvgl/src/extra/themes/mono/../../../../src/hal/../draw/../misc/lv_color.h ****     mix = (uint32_t)((uint32_t)mix + 4) >> 3;
 450:Drivers/lvgl/src/extra/themes/mono/../../../../src/hal/../draw/../misc/lv_color.h ****     uint32_t bg = (uint32_t)((uint32_t)c2.full | ((uint32_t)c2.full << 16)) &
 451:Drivers/lvgl/src/extra/themes/mono/../../../../src/hal/../draw/../misc/lv_color.h ****                   0x7E0F81F; /*0b00000111111000001111100000011111*/
 452:Drivers/lvgl/src/extra/themes/mono/../../../../src/hal/../draw/../misc/lv_color.h ****     uint32_t fg = (uint32_t)((uint32_t)c1.full | ((uint32_t)c1.full << 16)) & 0x7E0F81F;
 453:Drivers/lvgl/src/extra/themes/mono/../../../../src/hal/../draw/../misc/lv_color.h ****     uint32_t result = ((((fg - bg) * mix) >> 5) + bg) & 0x7E0F81F;
 454:Drivers/lvgl/src/extra/themes/mono/../../../../src/hal/../draw/../misc/lv_color.h ****     ret.full = (uint16_t)((result >> 16) | result);
 455:Drivers/lvgl/src/extra/themes/mono/../../../../src/hal/../draw/../misc/lv_color.h **** #if LV_COLOR_16_SWAP == 1
 456:Drivers/lvgl/src/extra/themes/mono/../../../../src/hal/../draw/../misc/lv_color.h ****     ret.full = ret.full << 8 | ret.full >> 8;
 457:Drivers/lvgl/src/extra/themes/mono/../../../../src/hal/../draw/../misc/lv_color.h **** #endif
 458:Drivers/lvgl/src/extra/themes/mono/../../../../src/hal/../draw/../misc/lv_color.h **** #elif LV_COLOR_DEPTH != 1
 459:Drivers/lvgl/src/extra/themes/mono/../../../../src/hal/../draw/../misc/lv_color.h ****     /*LV_COLOR_DEPTH == 8, 16 or 32*/
 460:Drivers/lvgl/src/extra/themes/mono/../../../../src/hal/../draw/../misc/lv_color.h ****     LV_COLOR_SET_R(ret, LV_UDIV255((uint16_t)LV_COLOR_GET_R(c1) * mix + LV_COLOR_GET_R(c2) *
 461:Drivers/lvgl/src/extra/themes/mono/../../../../src/hal/../draw/../misc/lv_color.h ****                                    (255 - mix) + LV_COLOR_MIX_ROUND_OFS));
 462:Drivers/lvgl/src/extra/themes/mono/../../../../src/hal/../draw/../misc/lv_color.h ****     LV_COLOR_SET_G(ret, LV_UDIV255((uint16_t)LV_COLOR_GET_G(c1) * mix + LV_COLOR_GET_G(c2) *
 463:Drivers/lvgl/src/extra/themes/mono/../../../../src/hal/../draw/../misc/lv_color.h ****                                    (255 - mix) + LV_COLOR_MIX_ROUND_OFS));
 464:Drivers/lvgl/src/extra/themes/mono/../../../../src/hal/../draw/../misc/lv_color.h ****     LV_COLOR_SET_B(ret, LV_UDIV255((uint16_t)LV_COLOR_GET_B(c1) * mix + LV_COLOR_GET_B(c2) *
 465:Drivers/lvgl/src/extra/themes/mono/../../../../src/hal/../draw/../misc/lv_color.h ****                                    (255 - mix) + LV_COLOR_MIX_ROUND_OFS));
 466:Drivers/lvgl/src/extra/themes/mono/../../../../src/hal/../draw/../misc/lv_color.h ****     LV_COLOR_SET_A(ret, 0xFF);
 467:Drivers/lvgl/src/extra/themes/mono/../../../../src/hal/../draw/../misc/lv_color.h **** #else
 468:Drivers/lvgl/src/extra/themes/mono/../../../../src/hal/../draw/../misc/lv_color.h ****     /*LV_COLOR_DEPTH == 1*/
 469:Drivers/lvgl/src/extra/themes/mono/../../../../src/hal/../draw/../misc/lv_color.h ****     ret.full = mix > LV_OPA_50 ? c1.full : c2.full;
 470:Drivers/lvgl/src/extra/themes/mono/../../../../src/hal/../draw/../misc/lv_color.h **** #endif
 471:Drivers/lvgl/src/extra/themes/mono/../../../../src/hal/../draw/../misc/lv_color.h **** 
 472:Drivers/lvgl/src/extra/themes/mono/../../../../src/hal/../draw/../misc/lv_color.h ****     return ret;
 473:Drivers/lvgl/src/extra/themes/mono/../../../../src/hal/../draw/../misc/lv_color.h **** }
 474:Drivers/lvgl/src/extra/themes/mono/../../../../src/hal/../draw/../misc/lv_color.h **** 
 475:Drivers/lvgl/src/extra/themes/mono/../../../../src/hal/../draw/../misc/lv_color.h **** static inline void LV_ATTRIBUTE_FAST_MEM lv_color_premult(lv_color_t c, uint8_t mix, uint16_t * out
 476:Drivers/lvgl/src/extra/themes/mono/../../../../src/hal/../draw/../misc/lv_color.h **** {
 477:Drivers/lvgl/src/extra/themes/mono/../../../../src/hal/../draw/../misc/lv_color.h **** #if LV_COLOR_DEPTH != 1
 478:Drivers/lvgl/src/extra/themes/mono/../../../../src/hal/../draw/../misc/lv_color.h ****     out[0] = (uint16_t)LV_COLOR_GET_R(c) * mix;
 479:Drivers/lvgl/src/extra/themes/mono/../../../../src/hal/../draw/../misc/lv_color.h ****     out[1] = (uint16_t)LV_COLOR_GET_G(c) * mix;
 480:Drivers/lvgl/src/extra/themes/mono/../../../../src/hal/../draw/../misc/lv_color.h ****     out[2] = (uint16_t)LV_COLOR_GET_B(c) * mix;
 481:Drivers/lvgl/src/extra/themes/mono/../../../../src/hal/../draw/../misc/lv_color.h **** #else
 482:Drivers/lvgl/src/extra/themes/mono/../../../../src/hal/../draw/../misc/lv_color.h ****     (void) mix;
 483:Drivers/lvgl/src/extra/themes/mono/../../../../src/hal/../draw/../misc/lv_color.h ****     /*Pre-multiplication can't be used with 1 bpp*/
 484:Drivers/lvgl/src/extra/themes/mono/../../../../src/hal/../draw/../misc/lv_color.h ****     out[0] = LV_COLOR_GET_R(c);
 485:Drivers/lvgl/src/extra/themes/mono/../../../../src/hal/../draw/../misc/lv_color.h ****     out[1] = LV_COLOR_GET_G(c);
 486:Drivers/lvgl/src/extra/themes/mono/../../../../src/hal/../draw/../misc/lv_color.h ****     out[2] = LV_COLOR_GET_B(c);
 487:Drivers/lvgl/src/extra/themes/mono/../../../../src/hal/../draw/../misc/lv_color.h **** #endif
ARM GAS  /var/folders/0z/tsy30v1j4xl4_7kw94k978ww0000gn/T//ccM2UjO5.s 			page 51


 488:Drivers/lvgl/src/extra/themes/mono/../../../../src/hal/../draw/../misc/lv_color.h **** 
 489:Drivers/lvgl/src/extra/themes/mono/../../../../src/hal/../draw/../misc/lv_color.h **** }
 490:Drivers/lvgl/src/extra/themes/mono/../../../../src/hal/../draw/../misc/lv_color.h **** 
 491:Drivers/lvgl/src/extra/themes/mono/../../../../src/hal/../draw/../misc/lv_color.h **** /**
 492:Drivers/lvgl/src/extra/themes/mono/../../../../src/hal/../draw/../misc/lv_color.h ****  * Mix two colors with a given ratio. It runs faster then `lv_color_mix` but requires some pre comp
 493:Drivers/lvgl/src/extra/themes/mono/../../../../src/hal/../draw/../misc/lv_color.h ****  * @param premult_c1 The first color. Should be preprocessed with `lv_color_premult(c1)`
 494:Drivers/lvgl/src/extra/themes/mono/../../../../src/hal/../draw/../misc/lv_color.h ****  * @param c2 The second color. As it is no pre computation required on it
 495:Drivers/lvgl/src/extra/themes/mono/../../../../src/hal/../draw/../misc/lv_color.h ****  * @param mix The ratio of the colors. 0: full `c1`, 255: full `c2`, 127: half `c1` and half `c2`.
 496:Drivers/lvgl/src/extra/themes/mono/../../../../src/hal/../draw/../misc/lv_color.h ****  *            Should be modified like mix = `255 - mix`
 497:Drivers/lvgl/src/extra/themes/mono/../../../../src/hal/../draw/../misc/lv_color.h ****  * @return the mixed color
 498:Drivers/lvgl/src/extra/themes/mono/../../../../src/hal/../draw/../misc/lv_color.h ****  * @note 255 won't give clearly `c1`.
 499:Drivers/lvgl/src/extra/themes/mono/../../../../src/hal/../draw/../misc/lv_color.h ****  */
 500:Drivers/lvgl/src/extra/themes/mono/../../../../src/hal/../draw/../misc/lv_color.h **** static inline lv_color_t LV_ATTRIBUTE_FAST_MEM lv_color_mix_premult(uint16_t * premult_c1, lv_color
 501:Drivers/lvgl/src/extra/themes/mono/../../../../src/hal/../draw/../misc/lv_color.h **** {
 502:Drivers/lvgl/src/extra/themes/mono/../../../../src/hal/../draw/../misc/lv_color.h ****     lv_color_t ret;
 503:Drivers/lvgl/src/extra/themes/mono/../../../../src/hal/../draw/../misc/lv_color.h **** #if LV_COLOR_DEPTH != 1
 504:Drivers/lvgl/src/extra/themes/mono/../../../../src/hal/../draw/../misc/lv_color.h ****     /*LV_COLOR_DEPTH == 8 or 32*/
 505:Drivers/lvgl/src/extra/themes/mono/../../../../src/hal/../draw/../misc/lv_color.h ****     LV_COLOR_SET_R(ret, LV_UDIV255(premult_c1[0] + LV_COLOR_GET_R(c2) * mix + LV_COLOR_MIX_ROUND_OF
 506:Drivers/lvgl/src/extra/themes/mono/../../../../src/hal/../draw/../misc/lv_color.h ****     LV_COLOR_SET_G(ret, LV_UDIV255(premult_c1[1] + LV_COLOR_GET_G(c2) * mix + LV_COLOR_MIX_ROUND_OF
 507:Drivers/lvgl/src/extra/themes/mono/../../../../src/hal/../draw/../misc/lv_color.h ****     LV_COLOR_SET_B(ret, LV_UDIV255(premult_c1[2] + LV_COLOR_GET_B(c2) * mix + LV_COLOR_MIX_ROUND_OF
 508:Drivers/lvgl/src/extra/themes/mono/../../../../src/hal/../draw/../misc/lv_color.h ****     LV_COLOR_SET_A(ret, 0xFF);
 509:Drivers/lvgl/src/extra/themes/mono/../../../../src/hal/../draw/../misc/lv_color.h **** #else
 510:Drivers/lvgl/src/extra/themes/mono/../../../../src/hal/../draw/../misc/lv_color.h ****     /*LV_COLOR_DEPTH == 1*/
 511:Drivers/lvgl/src/extra/themes/mono/../../../../src/hal/../draw/../misc/lv_color.h ****     /*Restore color1*/
 512:Drivers/lvgl/src/extra/themes/mono/../../../../src/hal/../draw/../misc/lv_color.h ****     lv_color_t c1;
 513:Drivers/lvgl/src/extra/themes/mono/../../../../src/hal/../draw/../misc/lv_color.h ****     LV_COLOR_SET_R(c1, premult_c1[0]);
 514:Drivers/lvgl/src/extra/themes/mono/../../../../src/hal/../draw/../misc/lv_color.h ****     LV_COLOR_SET_G(c1, premult_c1[1]);
 515:Drivers/lvgl/src/extra/themes/mono/../../../../src/hal/../draw/../misc/lv_color.h ****     LV_COLOR_SET_B(c1, premult_c1[2]);
 516:Drivers/lvgl/src/extra/themes/mono/../../../../src/hal/../draw/../misc/lv_color.h ****     ret.full = mix > LV_OPA_50 ? c2.full : c1.full;
 517:Drivers/lvgl/src/extra/themes/mono/../../../../src/hal/../draw/../misc/lv_color.h **** #endif
 518:Drivers/lvgl/src/extra/themes/mono/../../../../src/hal/../draw/../misc/lv_color.h **** 
 519:Drivers/lvgl/src/extra/themes/mono/../../../../src/hal/../draw/../misc/lv_color.h ****     return ret;
 520:Drivers/lvgl/src/extra/themes/mono/../../../../src/hal/../draw/../misc/lv_color.h **** }
 521:Drivers/lvgl/src/extra/themes/mono/../../../../src/hal/../draw/../misc/lv_color.h **** 
 522:Drivers/lvgl/src/extra/themes/mono/../../../../src/hal/../draw/../misc/lv_color.h **** /**
 523:Drivers/lvgl/src/extra/themes/mono/../../../../src/hal/../draw/../misc/lv_color.h ****  * Mix two colors. Both color can have alpha value.
 524:Drivers/lvgl/src/extra/themes/mono/../../../../src/hal/../draw/../misc/lv_color.h ****  * @param bg_color background color
 525:Drivers/lvgl/src/extra/themes/mono/../../../../src/hal/../draw/../misc/lv_color.h ****  * @param bg_opa alpha of the background color
 526:Drivers/lvgl/src/extra/themes/mono/../../../../src/hal/../draw/../misc/lv_color.h ****  * @param fg_color foreground color
 527:Drivers/lvgl/src/extra/themes/mono/../../../../src/hal/../draw/../misc/lv_color.h ****  * @param fg_opa alpha of the foreground color
 528:Drivers/lvgl/src/extra/themes/mono/../../../../src/hal/../draw/../misc/lv_color.h ****  * @param res_color the result color
 529:Drivers/lvgl/src/extra/themes/mono/../../../../src/hal/../draw/../misc/lv_color.h ****  * @param res_opa the result opacity
 530:Drivers/lvgl/src/extra/themes/mono/../../../../src/hal/../draw/../misc/lv_color.h ****  */
 531:Drivers/lvgl/src/extra/themes/mono/../../../../src/hal/../draw/../misc/lv_color.h **** static inline void LV_ATTRIBUTE_FAST_MEM lv_color_mix_with_alpha(lv_color_t bg_color, lv_opa_t bg_o
 532:Drivers/lvgl/src/extra/themes/mono/../../../../src/hal/../draw/../misc/lv_color.h ****                                                                  lv_color_t fg_color, lv_opa_t fg_o
 533:Drivers/lvgl/src/extra/themes/mono/../../../../src/hal/../draw/../misc/lv_color.h ****                                                                  lv_color_t * res_color, lv_opa_t *
 534:Drivers/lvgl/src/extra/themes/mono/../../../../src/hal/../draw/../misc/lv_color.h **** {
 535:Drivers/lvgl/src/extra/themes/mono/../../../../src/hal/../draw/../misc/lv_color.h ****     /*Pick the foreground if it's fully opaque or the Background is fully transparent*/
 536:Drivers/lvgl/src/extra/themes/mono/../../../../src/hal/../draw/../misc/lv_color.h ****     if(fg_opa >= LV_OPA_MAX || bg_opa <= LV_OPA_MIN) {
 537:Drivers/lvgl/src/extra/themes/mono/../../../../src/hal/../draw/../misc/lv_color.h ****         res_color->full = fg_color.full;
 538:Drivers/lvgl/src/extra/themes/mono/../../../../src/hal/../draw/../misc/lv_color.h ****         *res_opa = fg_opa;
 539:Drivers/lvgl/src/extra/themes/mono/../../../../src/hal/../draw/../misc/lv_color.h ****     }
 540:Drivers/lvgl/src/extra/themes/mono/../../../../src/hal/../draw/../misc/lv_color.h ****     /*Transparent foreground: use the Background*/
 541:Drivers/lvgl/src/extra/themes/mono/../../../../src/hal/../draw/../misc/lv_color.h ****     else if(fg_opa <= LV_OPA_MIN) {
 542:Drivers/lvgl/src/extra/themes/mono/../../../../src/hal/../draw/../misc/lv_color.h ****         res_color->full = bg_color.full;
 543:Drivers/lvgl/src/extra/themes/mono/../../../../src/hal/../draw/../misc/lv_color.h ****         *res_opa = bg_opa;
 544:Drivers/lvgl/src/extra/themes/mono/../../../../src/hal/../draw/../misc/lv_color.h ****     }
ARM GAS  /var/folders/0z/tsy30v1j4xl4_7kw94k978ww0000gn/T//ccM2UjO5.s 			page 52


 545:Drivers/lvgl/src/extra/themes/mono/../../../../src/hal/../draw/../misc/lv_color.h ****     /*Opaque background: use simple mix*/
 546:Drivers/lvgl/src/extra/themes/mono/../../../../src/hal/../draw/../misc/lv_color.h ****     else if(bg_opa >= LV_OPA_MAX) {
 547:Drivers/lvgl/src/extra/themes/mono/../../../../src/hal/../draw/../misc/lv_color.h ****         *res_color = lv_color_mix(fg_color, bg_color, fg_opa);
 548:Drivers/lvgl/src/extra/themes/mono/../../../../src/hal/../draw/../misc/lv_color.h ****         *res_opa = LV_OPA_COVER;
 549:Drivers/lvgl/src/extra/themes/mono/../../../../src/hal/../draw/../misc/lv_color.h ****     }
 550:Drivers/lvgl/src/extra/themes/mono/../../../../src/hal/../draw/../misc/lv_color.h ****     /*Both colors have alpha. Expensive calculation need to be applied*/
 551:Drivers/lvgl/src/extra/themes/mono/../../../../src/hal/../draw/../misc/lv_color.h ****     else {
 552:Drivers/lvgl/src/extra/themes/mono/../../../../src/hal/../draw/../misc/lv_color.h ****         /*Save the parameters and the result. If they will be asked again don't compute again*/
 553:Drivers/lvgl/src/extra/themes/mono/../../../../src/hal/../draw/../misc/lv_color.h ****         static lv_opa_t fg_opa_save     = 0;
 554:Drivers/lvgl/src/extra/themes/mono/../../../../src/hal/../draw/../misc/lv_color.h ****         static lv_opa_t bg_opa_save     = 0;
 555:Drivers/lvgl/src/extra/themes/mono/../../../../src/hal/../draw/../misc/lv_color.h ****         static lv_color_t fg_color_save = _LV_COLOR_ZERO_INITIALIZER;
 556:Drivers/lvgl/src/extra/themes/mono/../../../../src/hal/../draw/../misc/lv_color.h ****         static lv_color_t bg_color_save = _LV_COLOR_ZERO_INITIALIZER;
 557:Drivers/lvgl/src/extra/themes/mono/../../../../src/hal/../draw/../misc/lv_color.h ****         static lv_color_t res_color_saved = _LV_COLOR_ZERO_INITIALIZER;
 558:Drivers/lvgl/src/extra/themes/mono/../../../../src/hal/../draw/../misc/lv_color.h ****         static lv_opa_t res_opa_saved = 0;
 559:Drivers/lvgl/src/extra/themes/mono/../../../../src/hal/../draw/../misc/lv_color.h **** 
 560:Drivers/lvgl/src/extra/themes/mono/../../../../src/hal/../draw/../misc/lv_color.h ****         if(fg_opa != fg_opa_save || bg_opa != bg_opa_save || fg_color.full != fg_color_save.full ||
 561:Drivers/lvgl/src/extra/themes/mono/../../../../src/hal/../draw/../misc/lv_color.h ****            bg_color.full != bg_color_save.full) {
 562:Drivers/lvgl/src/extra/themes/mono/../../../../src/hal/../draw/../misc/lv_color.h ****             fg_opa_save        = fg_opa;
 563:Drivers/lvgl/src/extra/themes/mono/../../../../src/hal/../draw/../misc/lv_color.h ****             bg_opa_save        = bg_opa;
 564:Drivers/lvgl/src/extra/themes/mono/../../../../src/hal/../draw/../misc/lv_color.h ****             fg_color_save.full = fg_color.full;
 565:Drivers/lvgl/src/extra/themes/mono/../../../../src/hal/../draw/../misc/lv_color.h ****             bg_color_save.full = bg_color.full;
 566:Drivers/lvgl/src/extra/themes/mono/../../../../src/hal/../draw/../misc/lv_color.h ****             /*Info:
 567:Drivers/lvgl/src/extra/themes/mono/../../../../src/hal/../draw/../misc/lv_color.h ****              * https://en.wikipedia.org/wiki/Alpha_compositing#Analytical_derivation_of_the_over_op
 568:Drivers/lvgl/src/extra/themes/mono/../../../../src/hal/../draw/../misc/lv_color.h ****             res_opa_saved = 255 - ((uint16_t)((uint16_t)(255 - fg_opa) * (255 - bg_opa)) >> 8);
 569:Drivers/lvgl/src/extra/themes/mono/../../../../src/hal/../draw/../misc/lv_color.h ****             LV_ASSERT(res_opa_saved != 0);
 570:Drivers/lvgl/src/extra/themes/mono/../../../../src/hal/../draw/../misc/lv_color.h ****             lv_opa_t ratio = (uint16_t)((uint16_t)fg_opa * 255) / res_opa_saved;
 571:Drivers/lvgl/src/extra/themes/mono/../../../../src/hal/../draw/../misc/lv_color.h ****             res_color_saved = lv_color_mix(fg_color, bg_color, ratio);
 572:Drivers/lvgl/src/extra/themes/mono/../../../../src/hal/../draw/../misc/lv_color.h **** 
 573:Drivers/lvgl/src/extra/themes/mono/../../../../src/hal/../draw/../misc/lv_color.h ****         }
 574:Drivers/lvgl/src/extra/themes/mono/../../../../src/hal/../draw/../misc/lv_color.h **** 
 575:Drivers/lvgl/src/extra/themes/mono/../../../../src/hal/../draw/../misc/lv_color.h ****         res_color->full = res_color_saved.full;
 576:Drivers/lvgl/src/extra/themes/mono/../../../../src/hal/../draw/../misc/lv_color.h ****         *res_opa = res_opa_saved;
 577:Drivers/lvgl/src/extra/themes/mono/../../../../src/hal/../draw/../misc/lv_color.h ****     }
 578:Drivers/lvgl/src/extra/themes/mono/../../../../src/hal/../draw/../misc/lv_color.h **** }
 579:Drivers/lvgl/src/extra/themes/mono/../../../../src/hal/../draw/../misc/lv_color.h **** 
 580:Drivers/lvgl/src/extra/themes/mono/../../../../src/hal/../draw/../misc/lv_color.h **** //! @endcond
 581:Drivers/lvgl/src/extra/themes/mono/../../../../src/hal/../draw/../misc/lv_color.h **** 
 582:Drivers/lvgl/src/extra/themes/mono/../../../../src/hal/../draw/../misc/lv_color.h **** /**
 583:Drivers/lvgl/src/extra/themes/mono/../../../../src/hal/../draw/../misc/lv_color.h ****  * Get the brightness of a color
 584:Drivers/lvgl/src/extra/themes/mono/../../../../src/hal/../draw/../misc/lv_color.h ****  * @param color a color
 585:Drivers/lvgl/src/extra/themes/mono/../../../../src/hal/../draw/../misc/lv_color.h ****  * @return the brightness [0..255]
 586:Drivers/lvgl/src/extra/themes/mono/../../../../src/hal/../draw/../misc/lv_color.h ****  */
 587:Drivers/lvgl/src/extra/themes/mono/../../../../src/hal/../draw/../misc/lv_color.h **** static inline uint8_t lv_color_brightness(lv_color_t color)
 588:Drivers/lvgl/src/extra/themes/mono/../../../../src/hal/../draw/../misc/lv_color.h **** {
 589:Drivers/lvgl/src/extra/themes/mono/../../../../src/hal/../draw/../misc/lv_color.h ****     lv_color32_t c32;
 590:Drivers/lvgl/src/extra/themes/mono/../../../../src/hal/../draw/../misc/lv_color.h ****     c32.full        = lv_color_to32(color);
 591:Drivers/lvgl/src/extra/themes/mono/../../../../src/hal/../draw/../misc/lv_color.h ****     uint16_t bright = (uint16_t)(3u * LV_COLOR_GET_R32(c32) + LV_COLOR_GET_B32(c32) + 4u * LV_COLOR
 592:Drivers/lvgl/src/extra/themes/mono/../../../../src/hal/../draw/../misc/lv_color.h ****     return (uint8_t)(bright >> 3);
 593:Drivers/lvgl/src/extra/themes/mono/../../../../src/hal/../draw/../misc/lv_color.h **** }
 594:Drivers/lvgl/src/extra/themes/mono/../../../../src/hal/../draw/../misc/lv_color.h **** 
 595:Drivers/lvgl/src/extra/themes/mono/../../../../src/hal/../draw/../misc/lv_color.h **** static inline lv_color_t lv_color_make(uint8_t r, uint8_t g, uint8_t b)
 596:Drivers/lvgl/src/extra/themes/mono/../../../../src/hal/../draw/../misc/lv_color.h **** {
 597:Drivers/lvgl/src/extra/themes/mono/../../../../src/hal/../draw/../misc/lv_color.h ****     return _LV_COLOR_MAKE_TYPE_HELPER LV_COLOR_MAKE(r, g, b);
 598:Drivers/lvgl/src/extra/themes/mono/../../../../src/hal/../draw/../misc/lv_color.h **** }
 599:Drivers/lvgl/src/extra/themes/mono/../../../../src/hal/../draw/../misc/lv_color.h **** 
 600:Drivers/lvgl/src/extra/themes/mono/../../../../src/hal/../draw/../misc/lv_color.h **** static inline lv_color_t lv_color_hex(uint32_t c)
 601:Drivers/lvgl/src/extra/themes/mono/../../../../src/hal/../draw/../misc/lv_color.h **** {
ARM GAS  /var/folders/0z/tsy30v1j4xl4_7kw94k978ww0000gn/T//ccM2UjO5.s 			page 53


 602:Drivers/lvgl/src/extra/themes/mono/../../../../src/hal/../draw/../misc/lv_color.h **** #if LV_COLOR_DEPTH == 16
 603:Drivers/lvgl/src/extra/themes/mono/../../../../src/hal/../draw/../misc/lv_color.h ****     lv_color_t r;
 604:Drivers/lvgl/src/extra/themes/mono/../../../../src/hal/../draw/../misc/lv_color.h **** #if LV_COLOR_16_SWAP == 0
 605:Drivers/lvgl/src/extra/themes/mono/../../../../src/hal/../draw/../misc/lv_color.h ****     /* Convert a 4 bytes per pixel in format ARGB32 to R5G6B5 format
 606:Drivers/lvgl/src/extra/themes/mono/../../../../src/hal/../draw/../misc/lv_color.h ****         naive way (by calling lv_color_make with components):
 607:Drivers/lvgl/src/extra/themes/mono/../../../../src/hal/../draw/../misc/lv_color.h ****                     r = ((c & 0xFF0000) >> 19)
 608:Drivers/lvgl/src/extra/themes/mono/../../../../src/hal/../draw/../misc/lv_color.h ****                     g = ((c & 0xFF00) >> 10)
 609:Drivers/lvgl/src/extra/themes/mono/../../../../src/hal/../draw/../misc/lv_color.h ****                     b = ((c & 0xFF) >> 3)
 610:Drivers/lvgl/src/extra/themes/mono/../../../../src/hal/../draw/../misc/lv_color.h ****                     rgb565 = (r << 11) | (g << 5) | b
 611:Drivers/lvgl/src/extra/themes/mono/../../../../src/hal/../draw/../misc/lv_color.h ****         That's 3 mask, 5 bitshift and 2 or operations
 612:Drivers/lvgl/src/extra/themes/mono/../../../../src/hal/../draw/../misc/lv_color.h **** 
 613:Drivers/lvgl/src/extra/themes/mono/../../../../src/hal/../draw/../misc/lv_color.h ****         A bit better:
 614:Drivers/lvgl/src/extra/themes/mono/../../../../src/hal/../draw/../misc/lv_color.h ****                     r = ((c & 0xF80000) >> 8)
 615:Drivers/lvgl/src/extra/themes/mono/../../../../src/hal/../draw/../misc/lv_color.h ****                     g = ((c & 0xFC00) >> 5)
 616:Drivers/lvgl/src/extra/themes/mono/../../../../src/hal/../draw/../misc/lv_color.h ****                     b = ((c & 0xFF) >> 3)
 617:Drivers/lvgl/src/extra/themes/mono/../../../../src/hal/../draw/../misc/lv_color.h ****                     rgb565 = r | g | b
 618:Drivers/lvgl/src/extra/themes/mono/../../../../src/hal/../draw/../misc/lv_color.h ****         That's 3 mask, 3 bitshifts and 2 or operations */
 619:Drivers/lvgl/src/extra/themes/mono/../../../../src/hal/../draw/../misc/lv_color.h ****     r.full = (uint16_t)(((c & 0xF80000) >> 8) | ((c & 0xFC00) >> 5) | ((c & 0xFF) >> 3));
 620:Drivers/lvgl/src/extra/themes/mono/../../../../src/hal/../draw/../misc/lv_color.h **** #else
 621:Drivers/lvgl/src/extra/themes/mono/../../../../src/hal/../draw/../misc/lv_color.h ****     /* We want: rrrr rrrr GGGg gggg bbbb bbbb => gggb bbbb rrrr rGGG */
 622:Drivers/lvgl/src/extra/themes/mono/../../../../src/hal/../draw/../misc/lv_color.h ****     r.full = (uint16_t)(((c & 0xF80000) >> 16) | ((c & 0xFC00) >> 13) | ((c & 0x1C00) << 3) | ((c &
 623:Drivers/lvgl/src/extra/themes/mono/../../../../src/hal/../draw/../misc/lv_color.h **** #endif
 624:Drivers/lvgl/src/extra/themes/mono/../../../../src/hal/../draw/../misc/lv_color.h ****     return r;
 625:Drivers/lvgl/src/extra/themes/mono/../../../../src/hal/../draw/../misc/lv_color.h **** #elif LV_COLOR_DEPTH == 32
 626:Drivers/lvgl/src/extra/themes/mono/../../../../src/hal/../draw/../misc/lv_color.h ****     lv_color_t r;
 627:Drivers/lvgl/src/extra/themes/mono/../../../../src/hal/../draw/../misc/lv_color.h ****     r.full = c | 0xFF000000;
 628:Drivers/lvgl/src/extra/themes/mono/../../../../src/hal/../draw/../misc/lv_color.h ****     return r;
 629:Drivers/lvgl/src/extra/themes/mono/../../../../src/hal/../draw/../misc/lv_color.h **** #else /*LV_COLOR_DEPTH == 8*/
 630:Drivers/lvgl/src/extra/themes/mono/../../../../src/hal/../draw/../misc/lv_color.h ****     return lv_color_make((uint8_t)((c >> 16) & 0xFF), (uint8_t)((c >> 8) & 0xFF), (uint8_t)(c & 0xF
 631:Drivers/lvgl/src/extra/themes/mono/../../../../src/hal/../draw/../misc/lv_color.h **** #endif
 632:Drivers/lvgl/src/extra/themes/mono/../../../../src/hal/../draw/../misc/lv_color.h **** }
 633:Drivers/lvgl/src/extra/themes/mono/../../../../src/hal/../draw/../misc/lv_color.h **** 
 634:Drivers/lvgl/src/extra/themes/mono/../../../../src/hal/../draw/../misc/lv_color.h **** static inline lv_color_t lv_color_hex3(uint32_t c)
 635:Drivers/lvgl/src/extra/themes/mono/../../../../src/hal/../draw/../misc/lv_color.h **** {
 636:Drivers/lvgl/src/extra/themes/mono/../../../../src/hal/../draw/../misc/lv_color.h ****     return lv_color_make((uint8_t)(((c >> 4) & 0xF0) | ((c >> 8) & 0xF)), (uint8_t)((c & 0xF0) | ((
 637:Drivers/lvgl/src/extra/themes/mono/../../../../src/hal/../draw/../misc/lv_color.h ****                          (uint8_t)((c & 0xF) | ((c & 0xF) << 4)));
 638:Drivers/lvgl/src/extra/themes/mono/../../../../src/hal/../draw/../misc/lv_color.h **** }
 639:Drivers/lvgl/src/extra/themes/mono/../../../../src/hal/../draw/../misc/lv_color.h **** 
 640:Drivers/lvgl/src/extra/themes/mono/../../../../src/hal/../draw/../misc/lv_color.h **** static inline void lv_color_filter_dsc_init(lv_color_filter_dsc_t * dsc, lv_color_filter_cb_t cb)
 641:Drivers/lvgl/src/extra/themes/mono/../../../../src/hal/../draw/../misc/lv_color.h **** {
 642:Drivers/lvgl/src/extra/themes/mono/../../../../src/hal/../draw/../misc/lv_color.h ****     dsc->filter_cb = cb;
 643:Drivers/lvgl/src/extra/themes/mono/../../../../src/hal/../draw/../misc/lv_color.h **** }
 644:Drivers/lvgl/src/extra/themes/mono/../../../../src/hal/../draw/../misc/lv_color.h **** 
 645:Drivers/lvgl/src/extra/themes/mono/../../../../src/hal/../draw/../misc/lv_color.h **** //! @cond Doxygen_Suppress
 646:Drivers/lvgl/src/extra/themes/mono/../../../../src/hal/../draw/../misc/lv_color.h **** //!
 647:Drivers/lvgl/src/extra/themes/mono/../../../../src/hal/../draw/../misc/lv_color.h **** void /* LV_ATTRIBUTE_FAST_MEM */ lv_color_fill(lv_color_t * buf, lv_color_t color, uint32_t px_num)
 648:Drivers/lvgl/src/extra/themes/mono/../../../../src/hal/../draw/../misc/lv_color.h **** 
 649:Drivers/lvgl/src/extra/themes/mono/../../../../src/hal/../draw/../misc/lv_color.h **** //! @endcond
 650:Drivers/lvgl/src/extra/themes/mono/../../../../src/hal/../draw/../misc/lv_color.h **** lv_color_t lv_color_lighten(lv_color_t c, lv_opa_t lvl);
 651:Drivers/lvgl/src/extra/themes/mono/../../../../src/hal/../draw/../misc/lv_color.h **** 
 652:Drivers/lvgl/src/extra/themes/mono/../../../../src/hal/../draw/../misc/lv_color.h **** lv_color_t lv_color_darken(lv_color_t c, lv_opa_t lvl);
 653:Drivers/lvgl/src/extra/themes/mono/../../../../src/hal/../draw/../misc/lv_color.h **** 
 654:Drivers/lvgl/src/extra/themes/mono/../../../../src/hal/../draw/../misc/lv_color.h **** lv_color_t lv_color_change_lightness(lv_color_t c, lv_opa_t lvl);
 655:Drivers/lvgl/src/extra/themes/mono/../../../../src/hal/../draw/../misc/lv_color.h **** 
 656:Drivers/lvgl/src/extra/themes/mono/../../../../src/hal/../draw/../misc/lv_color.h **** /**
 657:Drivers/lvgl/src/extra/themes/mono/../../../../src/hal/../draw/../misc/lv_color.h ****  * Convert a HSV color to RGB
 658:Drivers/lvgl/src/extra/themes/mono/../../../../src/hal/../draw/../misc/lv_color.h ****  * @param h hue [0..359]
ARM GAS  /var/folders/0z/tsy30v1j4xl4_7kw94k978ww0000gn/T//ccM2UjO5.s 			page 54


 659:Drivers/lvgl/src/extra/themes/mono/../../../../src/hal/../draw/../misc/lv_color.h ****  * @param s saturation [0..100]
 660:Drivers/lvgl/src/extra/themes/mono/../../../../src/hal/../draw/../misc/lv_color.h ****  * @param v value [0..100]
 661:Drivers/lvgl/src/extra/themes/mono/../../../../src/hal/../draw/../misc/lv_color.h ****  * @return the given RGB color in RGB (with LV_COLOR_DEPTH depth)
 662:Drivers/lvgl/src/extra/themes/mono/../../../../src/hal/../draw/../misc/lv_color.h ****  */
 663:Drivers/lvgl/src/extra/themes/mono/../../../../src/hal/../draw/../misc/lv_color.h **** lv_color_t lv_color_hsv_to_rgb(uint16_t h, uint8_t s, uint8_t v);
 664:Drivers/lvgl/src/extra/themes/mono/../../../../src/hal/../draw/../misc/lv_color.h **** 
 665:Drivers/lvgl/src/extra/themes/mono/../../../../src/hal/../draw/../misc/lv_color.h **** /**
 666:Drivers/lvgl/src/extra/themes/mono/../../../../src/hal/../draw/../misc/lv_color.h ****  * Convert a 32-bit RGB color to HSV
 667:Drivers/lvgl/src/extra/themes/mono/../../../../src/hal/../draw/../misc/lv_color.h ****  * @param r8 8-bit red
 668:Drivers/lvgl/src/extra/themes/mono/../../../../src/hal/../draw/../misc/lv_color.h ****  * @param g8 8-bit green
 669:Drivers/lvgl/src/extra/themes/mono/../../../../src/hal/../draw/../misc/lv_color.h ****  * @param b8 8-bit blue
 670:Drivers/lvgl/src/extra/themes/mono/../../../../src/hal/../draw/../misc/lv_color.h ****  * @return the given RGB color in HSV
 671:Drivers/lvgl/src/extra/themes/mono/../../../../src/hal/../draw/../misc/lv_color.h ****  */
 672:Drivers/lvgl/src/extra/themes/mono/../../../../src/hal/../draw/../misc/lv_color.h **** lv_color_hsv_t lv_color_rgb_to_hsv(uint8_t r8, uint8_t g8, uint8_t b8);
 673:Drivers/lvgl/src/extra/themes/mono/../../../../src/hal/../draw/../misc/lv_color.h **** 
 674:Drivers/lvgl/src/extra/themes/mono/../../../../src/hal/../draw/../misc/lv_color.h **** /**
 675:Drivers/lvgl/src/extra/themes/mono/../../../../src/hal/../draw/../misc/lv_color.h ****  * Convert a color to HSV
 676:Drivers/lvgl/src/extra/themes/mono/../../../../src/hal/../draw/../misc/lv_color.h ****  * @param color color
 677:Drivers/lvgl/src/extra/themes/mono/../../../../src/hal/../draw/../misc/lv_color.h ****  * @return the given color in HSV
 678:Drivers/lvgl/src/extra/themes/mono/../../../../src/hal/../draw/../misc/lv_color.h ****  */
 679:Drivers/lvgl/src/extra/themes/mono/../../../../src/hal/../draw/../misc/lv_color.h **** lv_color_hsv_t lv_color_to_hsv(lv_color_t color);
 680:Drivers/lvgl/src/extra/themes/mono/../../../../src/hal/../draw/../misc/lv_color.h **** 
 681:Drivers/lvgl/src/extra/themes/mono/../../../../src/hal/../draw/../misc/lv_color.h **** /**
 682:Drivers/lvgl/src/extra/themes/mono/../../../../src/hal/../draw/../misc/lv_color.h ****  * Just a wrapper around LV_COLOR_CHROMA_KEY because it might be more convenient to use a function 
 683:Drivers/lvgl/src/extra/themes/mono/../../../../src/hal/../draw/../misc/lv_color.h ****  * @return LV_COLOR_CHROMA_KEY
 684:Drivers/lvgl/src/extra/themes/mono/../../../../src/hal/../draw/../misc/lv_color.h ****  */
 685:Drivers/lvgl/src/extra/themes/mono/../../../../src/hal/../draw/../misc/lv_color.h **** static inline lv_color_t lv_color_chroma_key(void)
 686:Drivers/lvgl/src/extra/themes/mono/../../../../src/hal/../draw/../misc/lv_color.h **** {
 687:Drivers/lvgl/src/extra/themes/mono/../../../../src/hal/../draw/../misc/lv_color.h ****     return LV_COLOR_CHROMA_KEY;
 688:Drivers/lvgl/src/extra/themes/mono/../../../../src/hal/../draw/../misc/lv_color.h **** }
 689:Drivers/lvgl/src/extra/themes/mono/../../../../src/hal/../draw/../misc/lv_color.h **** 
 690:Drivers/lvgl/src/extra/themes/mono/../../../../src/hal/../draw/../misc/lv_color.h **** /**********************
 691:Drivers/lvgl/src/extra/themes/mono/../../../../src/hal/../draw/../misc/lv_color.h ****  *  PREDEFINED COLORS
 692:Drivers/lvgl/src/extra/themes/mono/../../../../src/hal/../draw/../misc/lv_color.h ****  **********************/
 693:Drivers/lvgl/src/extra/themes/mono/../../../../src/hal/../draw/../misc/lv_color.h **** /*Source: https://vuetifyjs.com/en/styles/colors/#material-colors*/
 694:Drivers/lvgl/src/extra/themes/mono/../../../../src/hal/../draw/../misc/lv_color.h **** 
 695:Drivers/lvgl/src/extra/themes/mono/../../../../src/hal/../draw/../misc/lv_color.h **** lv_color_t lv_palette_main(lv_palette_t p);
 696:Drivers/lvgl/src/extra/themes/mono/../../../../src/hal/../draw/../misc/lv_color.h **** static inline lv_color_t lv_color_white(void)
 1558              		.loc 2 696 26 view .LVU344
 1559              	.LBB194:
 697:Drivers/lvgl/src/extra/themes/mono/../../../../src/hal/../draw/../misc/lv_color.h **** {
 698:Drivers/lvgl/src/extra/themes/mono/../../../../src/hal/../draw/../misc/lv_color.h ****     return lv_color_make(0xff, 0xff, 0xff);
 1560              		.loc 2 698 5 view .LVU345
 1561              	.L84:
 1562 00a0 4FF00001 		mov	r1, #0	@ movhi
 1563 00a4 67F30201 		bfi	r1, r7, #0, #3
 1564 00a8 68F3C701 		bfi	r1, r8, #3, #5
 1565 00ac 68F30C21 		bfi	r1, r8, #8, #5
 1566 00b0 67F34F31 		bfi	r1, r7, #13, #3
 1567              	.LBE194:
 1568              	.LBE193:
  87:Drivers/lvgl/src/extra/themes/mono/lv_theme_mono.c ****     lv_style_set_pad_row(&styles->scr, PAD_DEF);
 1569              		.loc 1 87 5 is_stmt 0 view .LVU346
 1570 00b4 FFF7FEFF 		bl	lv_style_set_text_color
 1571              	.LVL151:
  88:Drivers/lvgl/src/extra/themes/mono/lv_theme_mono.c ****     lv_style_set_pad_column(&styles->scr, PAD_DEF);
 1572              		.loc 1 88 5 is_stmt 1 view .LVU347
ARM GAS  /var/folders/0z/tsy30v1j4xl4_7kw94k978ww0000gn/T//ccM2UjO5.s 			page 55


 1573 00b8 2068     		ldr	r0, [r4]
 1574 00ba 0421     		movs	r1, #4
 1575 00bc FFF7FEFF 		bl	lv_style_set_pad_row
 1576              	.LVL152:
  89:Drivers/lvgl/src/extra/themes/mono/lv_theme_mono.c ****     lv_style_set_text_font(&styles->scr, font);
 1577              		.loc 1 89 5 view .LVU348
 1578 00c0 2068     		ldr	r0, [r4]
 1579 00c2 0421     		movs	r1, #4
 1580 00c4 FFF7FEFF 		bl	lv_style_set_pad_column
 1581              	.LVL153:
  90:Drivers/lvgl/src/extra/themes/mono/lv_theme_mono.c **** 
 1582              		.loc 1 90 5 view .LVU349
 1583 00c8 2068     		ldr	r0, [r4]
 1584 00ca 5946     		mov	r1, fp
 1585 00cc FFF7FEFF 		bl	lv_style_set_text_font
 1586              	.LVL154:
  92:Drivers/lvgl/src/extra/themes/mono/lv_theme_mono.c ****     lv_style_set_bg_opa(&styles->card, LV_OPA_COVER);
 1587              		.loc 1 92 5 view .LVU350
 1588 00d0 2068     		ldr	r0, [r4]
 1589              	.LBB195:
 1590              	.LBB196:
 496:Drivers/lvgl/src/extra/themes/mono/lv_theme_mono.c ****         lv_style_reset(style);
 1591              		.loc 1 496 7 is_stmt 0 view .LVU351
 1592 00d2 2B78     		ldrb	r3, [r5]	@ zero_extendqisi2
 1593              	.LBE196:
 1594              	.LBE195:
  92:Drivers/lvgl/src/extra/themes/mono/lv_theme_mono.c ****     lv_style_set_bg_opa(&styles->card, LV_OPA_COVER);
 1595              		.loc 1 92 5 view .LVU352
 1596 00d4 0830     		adds	r0, r0, #8
 1597              	.LVL155:
 1598              	.LBB199:
 1599              	.LBI195:
 494:Drivers/lvgl/src/extra/themes/mono/lv_theme_mono.c **** {
 1600              		.loc 1 494 13 is_stmt 1 view .LVU353
 1601              	.LBB197:
 496:Drivers/lvgl/src/extra/themes/mono/lv_theme_mono.c ****         lv_style_reset(style);
 1602              		.loc 1 496 5 view .LVU354
 496:Drivers/lvgl/src/extra/themes/mono/lv_theme_mono.c ****         lv_style_reset(style);
 1603              		.loc 1 496 7 is_stmt 0 view .LVU355
 1604 00d6 002B     		cmp	r3, #0
 1605 00d8 00F01082 		beq	.L85
 1606              		.loc 1 497 9 is_stmt 1 view .LVU356
 1607 00dc FFF7FEFF 		bl	lv_style_reset
 1608              	.LVL156:
 1609              	.L86:
 1610              		.loc 1 497 9 is_stmt 0 view .LVU357
 1611              	.LBE197:
 1612              	.LBE199:
  93:Drivers/lvgl/src/extra/themes/mono/lv_theme_mono.c ****     lv_style_set_bg_color(&styles->card, COLOR_BG);
 1613              		.loc 1 93 5 is_stmt 1 view .LVU358
 1614 00e0 2068     		ldr	r0, [r4]
 1615 00e2 FF21     		movs	r1, #255
 1616 00e4 0830     		adds	r0, r0, #8
 1617 00e6 FFF7FEFF 		bl	lv_style_set_bg_opa
 1618              	.LVL157:
  94:Drivers/lvgl/src/extra/themes/mono/lv_theme_mono.c ****     lv_style_set_border_color(&styles->card, COLOR_FG);
 1619              		.loc 1 94 5 view .LVU359
ARM GAS  /var/folders/0z/tsy30v1j4xl4_7kw94k978ww0000gn/T//ccM2UjO5.s 			page 56


 1620 00ea 2068     		ldr	r0, [r4]
 1621 00ec 0830     		adds	r0, r0, #8
 1622 00ee 002E     		cmp	r6, #0
 1623 00f0 00F0FD81 		beq	.L87
 1624 00f4 4FF00001 		mov	r1, #0	@ movhi
 1625 00f8 FFF7FEFF 		bl	lv_style_set_bg_color
 1626              	.LVL158:
  95:Drivers/lvgl/src/extra/themes/mono/lv_theme_mono.c ****     lv_style_set_radius(&styles->card, 2);
 1627              		.loc 1 95 5 view .LVU360
 1628 00fc 2068     		ldr	r0, [r4]
 1629 00fe 0830     		adds	r0, r0, #8
 1630              	.LBB200:
 1631              	.LBI200:
 696:Drivers/lvgl/src/extra/themes/mono/../../../../src/hal/../draw/../misc/lv_color.h **** {
 1632              		.loc 2 696 26 view .LVU361
 1633              	.LBB201:
 1634              		.loc 2 698 5 view .LVU362
 1635              	.L88:
 1636 0100 4FF00001 		mov	r1, #0	@ movhi
 1637 0104 67F30201 		bfi	r1, r7, #0, #3
 1638 0108 68F3C701 		bfi	r1, r8, #3, #5
 1639 010c 68F30C21 		bfi	r1, r8, #8, #5
 1640 0110 67F34F31 		bfi	r1, r7, #13, #3
 1641              	.LBE201:
 1642              	.LBE200:
  95:Drivers/lvgl/src/extra/themes/mono/lv_theme_mono.c ****     lv_style_set_radius(&styles->card, 2);
 1643              		.loc 1 95 5 is_stmt 0 view .LVU363
 1644 0114 FFF7FEFF 		bl	lv_style_set_border_color
 1645              	.LVL159:
  96:Drivers/lvgl/src/extra/themes/mono/lv_theme_mono.c ****     lv_style_set_border_width(&styles->card, BORDER_W_NORMAL);
 1646              		.loc 1 96 5 is_stmt 1 view .LVU364
 1647 0118 2068     		ldr	r0, [r4]
 1648 011a 0221     		movs	r1, #2
 1649 011c 0830     		adds	r0, r0, #8
 1650 011e FFF7FEFF 		bl	lv_style_set_radius
 1651              	.LVL160:
  97:Drivers/lvgl/src/extra/themes/mono/lv_theme_mono.c ****     lv_style_set_pad_all(&styles->card, PAD_DEF);
 1652              		.loc 1 97 5 view .LVU365
 1653 0122 2068     		ldr	r0, [r4]
 1654 0124 0121     		movs	r1, #1
 1655 0126 0830     		adds	r0, r0, #8
 1656 0128 FFF7FEFF 		bl	lv_style_set_border_width
 1657              	.LVL161:
  98:Drivers/lvgl/src/extra/themes/mono/lv_theme_mono.c ****     lv_style_set_pad_gap(&styles->card, PAD_DEF);
 1658              		.loc 1 98 5 view .LVU366
 1659 012c 2068     		ldr	r0, [r4]
 1660              	.LBB202:
 1661              	.LBB203:
 1662              		.file 3 "Drivers/lvgl/src/extra/themes/mono/../../../../src/hal/../draw/../misc/lv_style.h"
   1:Drivers/lvgl/src/extra/themes/mono/../../../../src/hal/../draw/../misc/lv_style.h **** /**
   2:Drivers/lvgl/src/extra/themes/mono/../../../../src/hal/../draw/../misc/lv_style.h ****  * @file lv_style.h
   3:Drivers/lvgl/src/extra/themes/mono/../../../../src/hal/../draw/../misc/lv_style.h ****  *
   4:Drivers/lvgl/src/extra/themes/mono/../../../../src/hal/../draw/../misc/lv_style.h ****  */
   5:Drivers/lvgl/src/extra/themes/mono/../../../../src/hal/../draw/../misc/lv_style.h **** 
   6:Drivers/lvgl/src/extra/themes/mono/../../../../src/hal/../draw/../misc/lv_style.h **** #ifndef LV_STYLE_H
   7:Drivers/lvgl/src/extra/themes/mono/../../../../src/hal/../draw/../misc/lv_style.h **** #define LV_STYLE_H
   8:Drivers/lvgl/src/extra/themes/mono/../../../../src/hal/../draw/../misc/lv_style.h **** 
ARM GAS  /var/folders/0z/tsy30v1j4xl4_7kw94k978ww0000gn/T//ccM2UjO5.s 			page 57


   9:Drivers/lvgl/src/extra/themes/mono/../../../../src/hal/../draw/../misc/lv_style.h **** #ifdef __cplusplus
  10:Drivers/lvgl/src/extra/themes/mono/../../../../src/hal/../draw/../misc/lv_style.h **** extern "C" {
  11:Drivers/lvgl/src/extra/themes/mono/../../../../src/hal/../draw/../misc/lv_style.h **** #endif
  12:Drivers/lvgl/src/extra/themes/mono/../../../../src/hal/../draw/../misc/lv_style.h **** 
  13:Drivers/lvgl/src/extra/themes/mono/../../../../src/hal/../draw/../misc/lv_style.h **** /*********************
  14:Drivers/lvgl/src/extra/themes/mono/../../../../src/hal/../draw/../misc/lv_style.h ****  *      INCLUDES
  15:Drivers/lvgl/src/extra/themes/mono/../../../../src/hal/../draw/../misc/lv_style.h ****  *********************/
  16:Drivers/lvgl/src/extra/themes/mono/../../../../src/hal/../draw/../misc/lv_style.h **** #include <stdbool.h>
  17:Drivers/lvgl/src/extra/themes/mono/../../../../src/hal/../draw/../misc/lv_style.h **** #include <stdint.h>
  18:Drivers/lvgl/src/extra/themes/mono/../../../../src/hal/../draw/../misc/lv_style.h **** #include "../font/lv_font.h"
  19:Drivers/lvgl/src/extra/themes/mono/../../../../src/hal/../draw/../misc/lv_style.h **** #include "lv_color.h"
  20:Drivers/lvgl/src/extra/themes/mono/../../../../src/hal/../draw/../misc/lv_style.h **** #include "lv_area.h"
  21:Drivers/lvgl/src/extra/themes/mono/../../../../src/hal/../draw/../misc/lv_style.h **** #include "lv_anim.h"
  22:Drivers/lvgl/src/extra/themes/mono/../../../../src/hal/../draw/../misc/lv_style.h **** #include "lv_txt.h"
  23:Drivers/lvgl/src/extra/themes/mono/../../../../src/hal/../draw/../misc/lv_style.h **** #include "lv_types.h"
  24:Drivers/lvgl/src/extra/themes/mono/../../../../src/hal/../draw/../misc/lv_style.h **** #include "lv_assert.h"
  25:Drivers/lvgl/src/extra/themes/mono/../../../../src/hal/../draw/../misc/lv_style.h **** #include "lv_bidi.h"
  26:Drivers/lvgl/src/extra/themes/mono/../../../../src/hal/../draw/../misc/lv_style.h **** 
  27:Drivers/lvgl/src/extra/themes/mono/../../../../src/hal/../draw/../misc/lv_style.h **** /*********************
  28:Drivers/lvgl/src/extra/themes/mono/../../../../src/hal/../draw/../misc/lv_style.h ****  *      DEFINES
  29:Drivers/lvgl/src/extra/themes/mono/../../../../src/hal/../draw/../misc/lv_style.h ****  *********************/
  30:Drivers/lvgl/src/extra/themes/mono/../../../../src/hal/../draw/../misc/lv_style.h **** 
  31:Drivers/lvgl/src/extra/themes/mono/../../../../src/hal/../draw/../misc/lv_style.h **** #define LV_STYLE_SENTINEL_VALUE     0xAABBCCDD
  32:Drivers/lvgl/src/extra/themes/mono/../../../../src/hal/../draw/../misc/lv_style.h **** 
  33:Drivers/lvgl/src/extra/themes/mono/../../../../src/hal/../draw/../misc/lv_style.h **** /**
  34:Drivers/lvgl/src/extra/themes/mono/../../../../src/hal/../draw/../misc/lv_style.h ****  * Flags for style behavior
  35:Drivers/lvgl/src/extra/themes/mono/../../../../src/hal/../draw/../misc/lv_style.h ****  *
  36:Drivers/lvgl/src/extra/themes/mono/../../../../src/hal/../draw/../misc/lv_style.h ****  * The rest of the flags will have _FLAG added to their name in v9.
  37:Drivers/lvgl/src/extra/themes/mono/../../../../src/hal/../draw/../misc/lv_style.h ****  */
  38:Drivers/lvgl/src/extra/themes/mono/../../../../src/hal/../draw/../misc/lv_style.h **** #define LV_STYLE_PROP_FLAG_NONE             (0)
  39:Drivers/lvgl/src/extra/themes/mono/../../../../src/hal/../draw/../misc/lv_style.h **** #define LV_STYLE_PROP_INHERIT               (1 << 0)  /*Inherited*/
  40:Drivers/lvgl/src/extra/themes/mono/../../../../src/hal/../draw/../misc/lv_style.h **** #define LV_STYLE_PROP_EXT_DRAW              (1 << 1)  /*Requires ext. draw size update when changed
  41:Drivers/lvgl/src/extra/themes/mono/../../../../src/hal/../draw/../misc/lv_style.h **** #define LV_STYLE_PROP_LAYOUT_REFR           (1 << 2)  /*Requires layout update when changed*/
  42:Drivers/lvgl/src/extra/themes/mono/../../../../src/hal/../draw/../misc/lv_style.h **** #define LV_STYLE_PROP_PARENT_LAYOUT_REFR    (1 << 3)  /*Requires layout update on parent when chang
  43:Drivers/lvgl/src/extra/themes/mono/../../../../src/hal/../draw/../misc/lv_style.h **** #define LV_STYLE_PROP_LAYER_REFR            (1 << 4)  /*Affects layer handling*/
  44:Drivers/lvgl/src/extra/themes/mono/../../../../src/hal/../draw/../misc/lv_style.h **** #define LV_STYLE_PROP_ALL                   (0x1F)     /*Indicating all flags*/
  45:Drivers/lvgl/src/extra/themes/mono/../../../../src/hal/../draw/../misc/lv_style.h **** 
  46:Drivers/lvgl/src/extra/themes/mono/../../../../src/hal/../draw/../misc/lv_style.h **** /**
  47:Drivers/lvgl/src/extra/themes/mono/../../../../src/hal/../draw/../misc/lv_style.h ****  * Other constants
  48:Drivers/lvgl/src/extra/themes/mono/../../../../src/hal/../draw/../misc/lv_style.h ****  */
  49:Drivers/lvgl/src/extra/themes/mono/../../../../src/hal/../draw/../misc/lv_style.h **** #define LV_IMG_ZOOM_NONE            256        /*Value for not zooming the image*/
  50:Drivers/lvgl/src/extra/themes/mono/../../../../src/hal/../draw/../misc/lv_style.h **** LV_EXPORT_CONST_INT(LV_IMG_ZOOM_NONE);
  51:Drivers/lvgl/src/extra/themes/mono/../../../../src/hal/../draw/../misc/lv_style.h **** 
  52:Drivers/lvgl/src/extra/themes/mono/../../../../src/hal/../draw/../misc/lv_style.h **** // *INDENT-OFF*
  53:Drivers/lvgl/src/extra/themes/mono/../../../../src/hal/../draw/../misc/lv_style.h **** #if LV_USE_ASSERT_STYLE
  54:Drivers/lvgl/src/extra/themes/mono/../../../../src/hal/../draw/../misc/lv_style.h **** #define LV_STYLE_CONST_INIT(var_name, prop_array)                       \
  55:Drivers/lvgl/src/extra/themes/mono/../../../../src/hal/../draw/../misc/lv_style.h ****     const lv_style_t var_name = {                                       \
  56:Drivers/lvgl/src/extra/themes/mono/../../../../src/hal/../draw/../misc/lv_style.h ****         .sentinel = LV_STYLE_SENTINEL_VALUE,                            \
  57:Drivers/lvgl/src/extra/themes/mono/../../../../src/hal/../draw/../misc/lv_style.h ****         .v_p = { .const_props = prop_array },                           \
  58:Drivers/lvgl/src/extra/themes/mono/../../../../src/hal/../draw/../misc/lv_style.h ****         .has_group = 0xFF,                                              \
  59:Drivers/lvgl/src/extra/themes/mono/../../../../src/hal/../draw/../misc/lv_style.h ****         .prop1 = LV_STYLE_PROP_ANY,                                     \
  60:Drivers/lvgl/src/extra/themes/mono/../../../../src/hal/../draw/../misc/lv_style.h ****         .prop_cnt = (sizeof(prop_array) / sizeof((prop_array)[0])),     \
  61:Drivers/lvgl/src/extra/themes/mono/../../../../src/hal/../draw/../misc/lv_style.h ****     }
  62:Drivers/lvgl/src/extra/themes/mono/../../../../src/hal/../draw/../misc/lv_style.h **** #else
  63:Drivers/lvgl/src/extra/themes/mono/../../../../src/hal/../draw/../misc/lv_style.h **** #define LV_STYLE_CONST_INIT(var_name, prop_array)                       \
  64:Drivers/lvgl/src/extra/themes/mono/../../../../src/hal/../draw/../misc/lv_style.h ****     const lv_style_t var_name = {                                       \
  65:Drivers/lvgl/src/extra/themes/mono/../../../../src/hal/../draw/../misc/lv_style.h ****         .v_p = { .const_props = prop_array },                           \
ARM GAS  /var/folders/0z/tsy30v1j4xl4_7kw94k978ww0000gn/T//ccM2UjO5.s 			page 58


  66:Drivers/lvgl/src/extra/themes/mono/../../../../src/hal/../draw/../misc/lv_style.h ****         .has_group = 0xFF,                                              \
  67:Drivers/lvgl/src/extra/themes/mono/../../../../src/hal/../draw/../misc/lv_style.h ****         .prop1 = LV_STYLE_PROP_ANY,                                     \
  68:Drivers/lvgl/src/extra/themes/mono/../../../../src/hal/../draw/../misc/lv_style.h ****         .prop_cnt = (sizeof(prop_array) / sizeof((prop_array)[0])),     \
  69:Drivers/lvgl/src/extra/themes/mono/../../../../src/hal/../draw/../misc/lv_style.h ****     }
  70:Drivers/lvgl/src/extra/themes/mono/../../../../src/hal/../draw/../misc/lv_style.h **** #endif
  71:Drivers/lvgl/src/extra/themes/mono/../../../../src/hal/../draw/../misc/lv_style.h **** // *INDENT-ON*
  72:Drivers/lvgl/src/extra/themes/mono/../../../../src/hal/../draw/../misc/lv_style.h **** 
  73:Drivers/lvgl/src/extra/themes/mono/../../../../src/hal/../draw/../misc/lv_style.h **** #define LV_STYLE_PROP_META_INHERIT 0x8000
  74:Drivers/lvgl/src/extra/themes/mono/../../../../src/hal/../draw/../misc/lv_style.h **** #define LV_STYLE_PROP_META_INITIAL 0x4000
  75:Drivers/lvgl/src/extra/themes/mono/../../../../src/hal/../draw/../misc/lv_style.h **** #define LV_STYLE_PROP_META_MASK (LV_STYLE_PROP_META_INHERIT | LV_STYLE_PROP_META_INITIAL)
  76:Drivers/lvgl/src/extra/themes/mono/../../../../src/hal/../draw/../misc/lv_style.h **** 
  77:Drivers/lvgl/src/extra/themes/mono/../../../../src/hal/../draw/../misc/lv_style.h **** #define LV_STYLE_PROP_ID_MASK(prop) ((lv_style_prop_t)((prop) & ~LV_STYLE_PROP_META_MASK))
  78:Drivers/lvgl/src/extra/themes/mono/../../../../src/hal/../draw/../misc/lv_style.h **** 
  79:Drivers/lvgl/src/extra/themes/mono/../../../../src/hal/../draw/../misc/lv_style.h **** /**********************
  80:Drivers/lvgl/src/extra/themes/mono/../../../../src/hal/../draw/../misc/lv_style.h ****  *      TYPEDEFS
  81:Drivers/lvgl/src/extra/themes/mono/../../../../src/hal/../draw/../misc/lv_style.h ****  **********************/
  82:Drivers/lvgl/src/extra/themes/mono/../../../../src/hal/../draw/../misc/lv_style.h **** 
  83:Drivers/lvgl/src/extra/themes/mono/../../../../src/hal/../draw/../misc/lv_style.h **** /**
  84:Drivers/lvgl/src/extra/themes/mono/../../../../src/hal/../draw/../misc/lv_style.h ****  * Possible options how to blend opaque drawings
  85:Drivers/lvgl/src/extra/themes/mono/../../../../src/hal/../draw/../misc/lv_style.h ****  */
  86:Drivers/lvgl/src/extra/themes/mono/../../../../src/hal/../draw/../misc/lv_style.h **** enum {
  87:Drivers/lvgl/src/extra/themes/mono/../../../../src/hal/../draw/../misc/lv_style.h ****     LV_BLEND_MODE_NORMAL,     /**< Simply mix according to the opacity value*/
  88:Drivers/lvgl/src/extra/themes/mono/../../../../src/hal/../draw/../misc/lv_style.h ****     LV_BLEND_MODE_ADDITIVE,   /**< Add the respective color channels*/
  89:Drivers/lvgl/src/extra/themes/mono/../../../../src/hal/../draw/../misc/lv_style.h ****     LV_BLEND_MODE_SUBTRACTIVE,/**< Subtract the foreground from the background*/
  90:Drivers/lvgl/src/extra/themes/mono/../../../../src/hal/../draw/../misc/lv_style.h ****     LV_BLEND_MODE_MULTIPLY,   /**< Multiply the foreground and background*/
  91:Drivers/lvgl/src/extra/themes/mono/../../../../src/hal/../draw/../misc/lv_style.h ****     LV_BLEND_MODE_REPLACE,    /**< Replace background with foreground in the area*/
  92:Drivers/lvgl/src/extra/themes/mono/../../../../src/hal/../draw/../misc/lv_style.h **** };
  93:Drivers/lvgl/src/extra/themes/mono/../../../../src/hal/../draw/../misc/lv_style.h **** 
  94:Drivers/lvgl/src/extra/themes/mono/../../../../src/hal/../draw/../misc/lv_style.h **** typedef uint8_t lv_blend_mode_t;
  95:Drivers/lvgl/src/extra/themes/mono/../../../../src/hal/../draw/../misc/lv_style.h **** 
  96:Drivers/lvgl/src/extra/themes/mono/../../../../src/hal/../draw/../misc/lv_style.h **** /**
  97:Drivers/lvgl/src/extra/themes/mono/../../../../src/hal/../draw/../misc/lv_style.h ****  * Some options to apply decorations on texts.
  98:Drivers/lvgl/src/extra/themes/mono/../../../../src/hal/../draw/../misc/lv_style.h ****  * 'OR'ed values can be used.
  99:Drivers/lvgl/src/extra/themes/mono/../../../../src/hal/../draw/../misc/lv_style.h ****  */
 100:Drivers/lvgl/src/extra/themes/mono/../../../../src/hal/../draw/../misc/lv_style.h **** enum {
 101:Drivers/lvgl/src/extra/themes/mono/../../../../src/hal/../draw/../misc/lv_style.h ****     LV_TEXT_DECOR_NONE          = 0x00,
 102:Drivers/lvgl/src/extra/themes/mono/../../../../src/hal/../draw/../misc/lv_style.h ****     LV_TEXT_DECOR_UNDERLINE     = 0x01,
 103:Drivers/lvgl/src/extra/themes/mono/../../../../src/hal/../draw/../misc/lv_style.h ****     LV_TEXT_DECOR_STRIKETHROUGH = 0x02,
 104:Drivers/lvgl/src/extra/themes/mono/../../../../src/hal/../draw/../misc/lv_style.h **** };
 105:Drivers/lvgl/src/extra/themes/mono/../../../../src/hal/../draw/../misc/lv_style.h **** 
 106:Drivers/lvgl/src/extra/themes/mono/../../../../src/hal/../draw/../misc/lv_style.h **** typedef uint8_t lv_text_decor_t;
 107:Drivers/lvgl/src/extra/themes/mono/../../../../src/hal/../draw/../misc/lv_style.h **** 
 108:Drivers/lvgl/src/extra/themes/mono/../../../../src/hal/../draw/../misc/lv_style.h **** /**
 109:Drivers/lvgl/src/extra/themes/mono/../../../../src/hal/../draw/../misc/lv_style.h ****  * Selects on which sides border should be drawn
 110:Drivers/lvgl/src/extra/themes/mono/../../../../src/hal/../draw/../misc/lv_style.h ****  * 'OR'ed values can be used.
 111:Drivers/lvgl/src/extra/themes/mono/../../../../src/hal/../draw/../misc/lv_style.h ****  */
 112:Drivers/lvgl/src/extra/themes/mono/../../../../src/hal/../draw/../misc/lv_style.h **** enum {
 113:Drivers/lvgl/src/extra/themes/mono/../../../../src/hal/../draw/../misc/lv_style.h ****     LV_BORDER_SIDE_NONE     = 0x00,
 114:Drivers/lvgl/src/extra/themes/mono/../../../../src/hal/../draw/../misc/lv_style.h ****     LV_BORDER_SIDE_BOTTOM   = 0x01,
 115:Drivers/lvgl/src/extra/themes/mono/../../../../src/hal/../draw/../misc/lv_style.h ****     LV_BORDER_SIDE_TOP      = 0x02,
 116:Drivers/lvgl/src/extra/themes/mono/../../../../src/hal/../draw/../misc/lv_style.h ****     LV_BORDER_SIDE_LEFT     = 0x04,
 117:Drivers/lvgl/src/extra/themes/mono/../../../../src/hal/../draw/../misc/lv_style.h ****     LV_BORDER_SIDE_RIGHT    = 0x08,
 118:Drivers/lvgl/src/extra/themes/mono/../../../../src/hal/../draw/../misc/lv_style.h ****     LV_BORDER_SIDE_FULL     = 0x0F,
 119:Drivers/lvgl/src/extra/themes/mono/../../../../src/hal/../draw/../misc/lv_style.h ****     LV_BORDER_SIDE_INTERNAL = 0x10, /**< FOR matrix-like objects (e.g. Button matrix)*/
 120:Drivers/lvgl/src/extra/themes/mono/../../../../src/hal/../draw/../misc/lv_style.h **** };
 121:Drivers/lvgl/src/extra/themes/mono/../../../../src/hal/../draw/../misc/lv_style.h **** typedef uint8_t lv_border_side_t;
 122:Drivers/lvgl/src/extra/themes/mono/../../../../src/hal/../draw/../misc/lv_style.h **** 
ARM GAS  /var/folders/0z/tsy30v1j4xl4_7kw94k978ww0000gn/T//ccM2UjO5.s 			page 59


 123:Drivers/lvgl/src/extra/themes/mono/../../../../src/hal/../draw/../misc/lv_style.h **** /**
 124:Drivers/lvgl/src/extra/themes/mono/../../../../src/hal/../draw/../misc/lv_style.h ****  * The direction of the gradient.
 125:Drivers/lvgl/src/extra/themes/mono/../../../../src/hal/../draw/../misc/lv_style.h ****  */
 126:Drivers/lvgl/src/extra/themes/mono/../../../../src/hal/../draw/../misc/lv_style.h **** enum {
 127:Drivers/lvgl/src/extra/themes/mono/../../../../src/hal/../draw/../misc/lv_style.h ****     LV_GRAD_DIR_NONE, /**< No gradient (the `grad_color` property is ignored)*/
 128:Drivers/lvgl/src/extra/themes/mono/../../../../src/hal/../draw/../misc/lv_style.h ****     LV_GRAD_DIR_VER,  /**< Vertical (top to bottom) gradient*/
 129:Drivers/lvgl/src/extra/themes/mono/../../../../src/hal/../draw/../misc/lv_style.h ****     LV_GRAD_DIR_HOR,  /**< Horizontal (left to right) gradient*/
 130:Drivers/lvgl/src/extra/themes/mono/../../../../src/hal/../draw/../misc/lv_style.h **** };
 131:Drivers/lvgl/src/extra/themes/mono/../../../../src/hal/../draw/../misc/lv_style.h **** 
 132:Drivers/lvgl/src/extra/themes/mono/../../../../src/hal/../draw/../misc/lv_style.h **** typedef uint8_t lv_grad_dir_t;
 133:Drivers/lvgl/src/extra/themes/mono/../../../../src/hal/../draw/../misc/lv_style.h **** 
 134:Drivers/lvgl/src/extra/themes/mono/../../../../src/hal/../draw/../misc/lv_style.h **** /**
 135:Drivers/lvgl/src/extra/themes/mono/../../../../src/hal/../draw/../misc/lv_style.h ****  * The dithering algorithm for the gradient
 136:Drivers/lvgl/src/extra/themes/mono/../../../../src/hal/../draw/../misc/lv_style.h ****  * Depends on LV_DITHER_GRADIENT
 137:Drivers/lvgl/src/extra/themes/mono/../../../../src/hal/../draw/../misc/lv_style.h ****  */
 138:Drivers/lvgl/src/extra/themes/mono/../../../../src/hal/../draw/../misc/lv_style.h **** enum {
 139:Drivers/lvgl/src/extra/themes/mono/../../../../src/hal/../draw/../misc/lv_style.h ****     LV_DITHER_NONE,     /**< No dithering, colors are just quantized to the output resolution*/
 140:Drivers/lvgl/src/extra/themes/mono/../../../../src/hal/../draw/../misc/lv_style.h ****     LV_DITHER_ORDERED,  /**< Ordered dithering. Faster to compute and use less memory but lower qua
 141:Drivers/lvgl/src/extra/themes/mono/../../../../src/hal/../draw/../misc/lv_style.h ****     LV_DITHER_ERR_DIFF, /**< Error diffusion mode. Slower to compute and use more memory but give h
 142:Drivers/lvgl/src/extra/themes/mono/../../../../src/hal/../draw/../misc/lv_style.h **** };
 143:Drivers/lvgl/src/extra/themes/mono/../../../../src/hal/../draw/../misc/lv_style.h **** 
 144:Drivers/lvgl/src/extra/themes/mono/../../../../src/hal/../draw/../misc/lv_style.h **** typedef uint8_t lv_dither_mode_t;
 145:Drivers/lvgl/src/extra/themes/mono/../../../../src/hal/../draw/../misc/lv_style.h **** 
 146:Drivers/lvgl/src/extra/themes/mono/../../../../src/hal/../draw/../misc/lv_style.h **** /** A gradient stop definition.
 147:Drivers/lvgl/src/extra/themes/mono/../../../../src/hal/../draw/../misc/lv_style.h ****  *  This matches a color and a position in a virtual 0-255 scale.
 148:Drivers/lvgl/src/extra/themes/mono/../../../../src/hal/../draw/../misc/lv_style.h ****  */
 149:Drivers/lvgl/src/extra/themes/mono/../../../../src/hal/../draw/../misc/lv_style.h **** typedef struct {
 150:Drivers/lvgl/src/extra/themes/mono/../../../../src/hal/../draw/../misc/lv_style.h ****     lv_color_t color;   /**< The stop color */
 151:Drivers/lvgl/src/extra/themes/mono/../../../../src/hal/../draw/../misc/lv_style.h ****     uint8_t    frac;    /**< The stop position in 1/255 unit */
 152:Drivers/lvgl/src/extra/themes/mono/../../../../src/hal/../draw/../misc/lv_style.h **** } lv_gradient_stop_t;
 153:Drivers/lvgl/src/extra/themes/mono/../../../../src/hal/../draw/../misc/lv_style.h **** 
 154:Drivers/lvgl/src/extra/themes/mono/../../../../src/hal/../draw/../misc/lv_style.h **** /** A descriptor of a gradient. */
 155:Drivers/lvgl/src/extra/themes/mono/../../../../src/hal/../draw/../misc/lv_style.h **** typedef struct {
 156:Drivers/lvgl/src/extra/themes/mono/../../../../src/hal/../draw/../misc/lv_style.h ****     lv_gradient_stop_t   stops[LV_GRADIENT_MAX_STOPS]; /**< A gradient stop array */
 157:Drivers/lvgl/src/extra/themes/mono/../../../../src/hal/../draw/../misc/lv_style.h ****     uint8_t              stops_count;                  /**< The number of used stops in the array *
 158:Drivers/lvgl/src/extra/themes/mono/../../../../src/hal/../draw/../misc/lv_style.h ****     lv_grad_dir_t        dir : 3;                      /**< The gradient direction.
 159:Drivers/lvgl/src/extra/themes/mono/../../../../src/hal/../draw/../misc/lv_style.h ****                                                         * Any of LV_GRAD_DIR_HOR, LV_GRAD_DIR_VER, 
 160:Drivers/lvgl/src/extra/themes/mono/../../../../src/hal/../draw/../misc/lv_style.h ****     lv_dither_mode_t     dither : 3;                   /**< Whether to dither the gradient or not.
 161:Drivers/lvgl/src/extra/themes/mono/../../../../src/hal/../draw/../misc/lv_style.h ****                                                         * Any of LV_DITHER_NONE, LV_DITHER_ORDERED,
 162:Drivers/lvgl/src/extra/themes/mono/../../../../src/hal/../draw/../misc/lv_style.h **** } lv_grad_dsc_t;
 163:Drivers/lvgl/src/extra/themes/mono/../../../../src/hal/../draw/../misc/lv_style.h **** 
 164:Drivers/lvgl/src/extra/themes/mono/../../../../src/hal/../draw/../misc/lv_style.h **** /**
 165:Drivers/lvgl/src/extra/themes/mono/../../../../src/hal/../draw/../misc/lv_style.h ****  * A common type to handle all the property types in the same way.
 166:Drivers/lvgl/src/extra/themes/mono/../../../../src/hal/../draw/../misc/lv_style.h ****  */
 167:Drivers/lvgl/src/extra/themes/mono/../../../../src/hal/../draw/../misc/lv_style.h **** typedef union {
 168:Drivers/lvgl/src/extra/themes/mono/../../../../src/hal/../draw/../misc/lv_style.h ****     int32_t num;         /**< Number integer number (opacity, enums, booleans or "normal" numbers)*
 169:Drivers/lvgl/src/extra/themes/mono/../../../../src/hal/../draw/../misc/lv_style.h ****     const void * ptr;    /**< Constant pointers  (font, cone text, etc)*/
 170:Drivers/lvgl/src/extra/themes/mono/../../../../src/hal/../draw/../misc/lv_style.h ****     lv_color_t color;    /**< Colors*/
 171:Drivers/lvgl/src/extra/themes/mono/../../../../src/hal/../draw/../misc/lv_style.h **** } lv_style_value_t;
 172:Drivers/lvgl/src/extra/themes/mono/../../../../src/hal/../draw/../misc/lv_style.h **** 
 173:Drivers/lvgl/src/extra/themes/mono/../../../../src/hal/../draw/../misc/lv_style.h **** /**
 174:Drivers/lvgl/src/extra/themes/mono/../../../../src/hal/../draw/../misc/lv_style.h ****  * Enumeration of all built in style properties
 175:Drivers/lvgl/src/extra/themes/mono/../../../../src/hal/../draw/../misc/lv_style.h ****  *
 176:Drivers/lvgl/src/extra/themes/mono/../../../../src/hal/../draw/../misc/lv_style.h ****  * Props are split into groups of 16. When adding a new prop to a group, ensure it does not overflo
 177:Drivers/lvgl/src/extra/themes/mono/../../../../src/hal/../draw/../misc/lv_style.h ****  */
 178:Drivers/lvgl/src/extra/themes/mono/../../../../src/hal/../draw/../misc/lv_style.h **** typedef enum {
 179:Drivers/lvgl/src/extra/themes/mono/../../../../src/hal/../draw/../misc/lv_style.h ****     LV_STYLE_PROP_INV               = 0,
ARM GAS  /var/folders/0z/tsy30v1j4xl4_7kw94k978ww0000gn/T//ccM2UjO5.s 			page 60


 180:Drivers/lvgl/src/extra/themes/mono/../../../../src/hal/../draw/../misc/lv_style.h **** 
 181:Drivers/lvgl/src/extra/themes/mono/../../../../src/hal/../draw/../misc/lv_style.h ****     /*Group 0*/
 182:Drivers/lvgl/src/extra/themes/mono/../../../../src/hal/../draw/../misc/lv_style.h ****     LV_STYLE_WIDTH                  = 1,
 183:Drivers/lvgl/src/extra/themes/mono/../../../../src/hal/../draw/../misc/lv_style.h ****     LV_STYLE_MIN_WIDTH              = 2,
 184:Drivers/lvgl/src/extra/themes/mono/../../../../src/hal/../draw/../misc/lv_style.h ****     LV_STYLE_MAX_WIDTH              = 3,
 185:Drivers/lvgl/src/extra/themes/mono/../../../../src/hal/../draw/../misc/lv_style.h ****     LV_STYLE_HEIGHT                 = 4,
 186:Drivers/lvgl/src/extra/themes/mono/../../../../src/hal/../draw/../misc/lv_style.h ****     LV_STYLE_MIN_HEIGHT             = 5,
 187:Drivers/lvgl/src/extra/themes/mono/../../../../src/hal/../draw/../misc/lv_style.h ****     LV_STYLE_MAX_HEIGHT             = 6,
 188:Drivers/lvgl/src/extra/themes/mono/../../../../src/hal/../draw/../misc/lv_style.h ****     LV_STYLE_X                      = 7,
 189:Drivers/lvgl/src/extra/themes/mono/../../../../src/hal/../draw/../misc/lv_style.h ****     LV_STYLE_Y                      = 8,
 190:Drivers/lvgl/src/extra/themes/mono/../../../../src/hal/../draw/../misc/lv_style.h ****     LV_STYLE_ALIGN                  = 9,
 191:Drivers/lvgl/src/extra/themes/mono/../../../../src/hal/../draw/../misc/lv_style.h ****     LV_STYLE_LAYOUT                 = 10,
 192:Drivers/lvgl/src/extra/themes/mono/../../../../src/hal/../draw/../misc/lv_style.h ****     LV_STYLE_RADIUS                 = 11,
 193:Drivers/lvgl/src/extra/themes/mono/../../../../src/hal/../draw/../misc/lv_style.h **** 
 194:Drivers/lvgl/src/extra/themes/mono/../../../../src/hal/../draw/../misc/lv_style.h ****     /*Group 1*/
 195:Drivers/lvgl/src/extra/themes/mono/../../../../src/hal/../draw/../misc/lv_style.h ****     LV_STYLE_PAD_TOP                = 16,
 196:Drivers/lvgl/src/extra/themes/mono/../../../../src/hal/../draw/../misc/lv_style.h ****     LV_STYLE_PAD_BOTTOM             = 17,
 197:Drivers/lvgl/src/extra/themes/mono/../../../../src/hal/../draw/../misc/lv_style.h ****     LV_STYLE_PAD_LEFT               = 18,
 198:Drivers/lvgl/src/extra/themes/mono/../../../../src/hal/../draw/../misc/lv_style.h ****     LV_STYLE_PAD_RIGHT              = 19,
 199:Drivers/lvgl/src/extra/themes/mono/../../../../src/hal/../draw/../misc/lv_style.h ****     LV_STYLE_PAD_ROW                = 20,
 200:Drivers/lvgl/src/extra/themes/mono/../../../../src/hal/../draw/../misc/lv_style.h ****     LV_STYLE_PAD_COLUMN             = 21,
 201:Drivers/lvgl/src/extra/themes/mono/../../../../src/hal/../draw/../misc/lv_style.h ****     LV_STYLE_BASE_DIR               = 22,
 202:Drivers/lvgl/src/extra/themes/mono/../../../../src/hal/../draw/../misc/lv_style.h ****     LV_STYLE_CLIP_CORNER            = 23,
 203:Drivers/lvgl/src/extra/themes/mono/../../../../src/hal/../draw/../misc/lv_style.h **** 
 204:Drivers/lvgl/src/extra/themes/mono/../../../../src/hal/../draw/../misc/lv_style.h ****     /*Group 2*/
 205:Drivers/lvgl/src/extra/themes/mono/../../../../src/hal/../draw/../misc/lv_style.h ****     LV_STYLE_BG_COLOR               = 32,
 206:Drivers/lvgl/src/extra/themes/mono/../../../../src/hal/../draw/../misc/lv_style.h ****     LV_STYLE_BG_OPA                 = 33,
 207:Drivers/lvgl/src/extra/themes/mono/../../../../src/hal/../draw/../misc/lv_style.h ****     LV_STYLE_BG_GRAD_COLOR          = 34,
 208:Drivers/lvgl/src/extra/themes/mono/../../../../src/hal/../draw/../misc/lv_style.h ****     LV_STYLE_BG_GRAD_DIR            = 35,
 209:Drivers/lvgl/src/extra/themes/mono/../../../../src/hal/../draw/../misc/lv_style.h ****     LV_STYLE_BG_MAIN_STOP           = 36,
 210:Drivers/lvgl/src/extra/themes/mono/../../../../src/hal/../draw/../misc/lv_style.h ****     LV_STYLE_BG_GRAD_STOP           = 37,
 211:Drivers/lvgl/src/extra/themes/mono/../../../../src/hal/../draw/../misc/lv_style.h ****     LV_STYLE_BG_GRAD                = 38,
 212:Drivers/lvgl/src/extra/themes/mono/../../../../src/hal/../draw/../misc/lv_style.h ****     LV_STYLE_BG_DITHER_MODE         = 39,
 213:Drivers/lvgl/src/extra/themes/mono/../../../../src/hal/../draw/../misc/lv_style.h ****     LV_STYLE_BG_IMG_SRC             = 40,
 214:Drivers/lvgl/src/extra/themes/mono/../../../../src/hal/../draw/../misc/lv_style.h ****     LV_STYLE_BG_IMG_OPA             = 41,
 215:Drivers/lvgl/src/extra/themes/mono/../../../../src/hal/../draw/../misc/lv_style.h ****     LV_STYLE_BG_IMG_RECOLOR         = 42,
 216:Drivers/lvgl/src/extra/themes/mono/../../../../src/hal/../draw/../misc/lv_style.h ****     LV_STYLE_BG_IMG_RECOLOR_OPA     = 43,
 217:Drivers/lvgl/src/extra/themes/mono/../../../../src/hal/../draw/../misc/lv_style.h ****     LV_STYLE_BG_IMG_TILED           = 44,
 218:Drivers/lvgl/src/extra/themes/mono/../../../../src/hal/../draw/../misc/lv_style.h **** 
 219:Drivers/lvgl/src/extra/themes/mono/../../../../src/hal/../draw/../misc/lv_style.h ****     /*Group 3*/
 220:Drivers/lvgl/src/extra/themes/mono/../../../../src/hal/../draw/../misc/lv_style.h ****     LV_STYLE_BORDER_COLOR           = 48,
 221:Drivers/lvgl/src/extra/themes/mono/../../../../src/hal/../draw/../misc/lv_style.h ****     LV_STYLE_BORDER_OPA             = 49,
 222:Drivers/lvgl/src/extra/themes/mono/../../../../src/hal/../draw/../misc/lv_style.h ****     LV_STYLE_BORDER_WIDTH           = 50,
 223:Drivers/lvgl/src/extra/themes/mono/../../../../src/hal/../draw/../misc/lv_style.h ****     LV_STYLE_BORDER_SIDE            = 51,
 224:Drivers/lvgl/src/extra/themes/mono/../../../../src/hal/../draw/../misc/lv_style.h ****     LV_STYLE_BORDER_POST            = 52,
 225:Drivers/lvgl/src/extra/themes/mono/../../../../src/hal/../draw/../misc/lv_style.h ****     LV_STYLE_OUTLINE_WIDTH          = 53,
 226:Drivers/lvgl/src/extra/themes/mono/../../../../src/hal/../draw/../misc/lv_style.h ****     LV_STYLE_OUTLINE_COLOR          = 54,
 227:Drivers/lvgl/src/extra/themes/mono/../../../../src/hal/../draw/../misc/lv_style.h ****     LV_STYLE_OUTLINE_OPA            = 55,
 228:Drivers/lvgl/src/extra/themes/mono/../../../../src/hal/../draw/../misc/lv_style.h ****     LV_STYLE_OUTLINE_PAD            = 56,
 229:Drivers/lvgl/src/extra/themes/mono/../../../../src/hal/../draw/../misc/lv_style.h **** 
 230:Drivers/lvgl/src/extra/themes/mono/../../../../src/hal/../draw/../misc/lv_style.h ****     /*Group 4*/
 231:Drivers/lvgl/src/extra/themes/mono/../../../../src/hal/../draw/../misc/lv_style.h ****     LV_STYLE_SHADOW_WIDTH           = 64,
 232:Drivers/lvgl/src/extra/themes/mono/../../../../src/hal/../draw/../misc/lv_style.h ****     LV_STYLE_SHADOW_OFS_X           = 65,
 233:Drivers/lvgl/src/extra/themes/mono/../../../../src/hal/../draw/../misc/lv_style.h ****     LV_STYLE_SHADOW_OFS_Y           = 66,
 234:Drivers/lvgl/src/extra/themes/mono/../../../../src/hal/../draw/../misc/lv_style.h ****     LV_STYLE_SHADOW_SPREAD          = 67,
 235:Drivers/lvgl/src/extra/themes/mono/../../../../src/hal/../draw/../misc/lv_style.h ****     LV_STYLE_SHADOW_COLOR           = 68,
 236:Drivers/lvgl/src/extra/themes/mono/../../../../src/hal/../draw/../misc/lv_style.h ****     LV_STYLE_SHADOW_OPA             = 69,
ARM GAS  /var/folders/0z/tsy30v1j4xl4_7kw94k978ww0000gn/T//ccM2UjO5.s 			page 61


 237:Drivers/lvgl/src/extra/themes/mono/../../../../src/hal/../draw/../misc/lv_style.h ****     LV_STYLE_IMG_OPA                = 70,
 238:Drivers/lvgl/src/extra/themes/mono/../../../../src/hal/../draw/../misc/lv_style.h ****     LV_STYLE_IMG_RECOLOR            = 71,
 239:Drivers/lvgl/src/extra/themes/mono/../../../../src/hal/../draw/../misc/lv_style.h ****     LV_STYLE_IMG_RECOLOR_OPA        = 72,
 240:Drivers/lvgl/src/extra/themes/mono/../../../../src/hal/../draw/../misc/lv_style.h ****     LV_STYLE_LINE_WIDTH             = 73,
 241:Drivers/lvgl/src/extra/themes/mono/../../../../src/hal/../draw/../misc/lv_style.h ****     LV_STYLE_LINE_DASH_WIDTH        = 74,
 242:Drivers/lvgl/src/extra/themes/mono/../../../../src/hal/../draw/../misc/lv_style.h ****     LV_STYLE_LINE_DASH_GAP          = 75,
 243:Drivers/lvgl/src/extra/themes/mono/../../../../src/hal/../draw/../misc/lv_style.h ****     LV_STYLE_LINE_ROUNDED           = 76,
 244:Drivers/lvgl/src/extra/themes/mono/../../../../src/hal/../draw/../misc/lv_style.h ****     LV_STYLE_LINE_COLOR             = 77,
 245:Drivers/lvgl/src/extra/themes/mono/../../../../src/hal/../draw/../misc/lv_style.h ****     LV_STYLE_LINE_OPA               = 78,
 246:Drivers/lvgl/src/extra/themes/mono/../../../../src/hal/../draw/../misc/lv_style.h **** 
 247:Drivers/lvgl/src/extra/themes/mono/../../../../src/hal/../draw/../misc/lv_style.h ****     /*Group 5*/
 248:Drivers/lvgl/src/extra/themes/mono/../../../../src/hal/../draw/../misc/lv_style.h ****     LV_STYLE_ARC_WIDTH              = 80,
 249:Drivers/lvgl/src/extra/themes/mono/../../../../src/hal/../draw/../misc/lv_style.h ****     LV_STYLE_ARC_ROUNDED            = 81,
 250:Drivers/lvgl/src/extra/themes/mono/../../../../src/hal/../draw/../misc/lv_style.h ****     LV_STYLE_ARC_COLOR              = 82,
 251:Drivers/lvgl/src/extra/themes/mono/../../../../src/hal/../draw/../misc/lv_style.h ****     LV_STYLE_ARC_OPA                = 83,
 252:Drivers/lvgl/src/extra/themes/mono/../../../../src/hal/../draw/../misc/lv_style.h ****     LV_STYLE_ARC_IMG_SRC            = 84,
 253:Drivers/lvgl/src/extra/themes/mono/../../../../src/hal/../draw/../misc/lv_style.h ****     LV_STYLE_TEXT_COLOR             = 85,
 254:Drivers/lvgl/src/extra/themes/mono/../../../../src/hal/../draw/../misc/lv_style.h ****     LV_STYLE_TEXT_OPA               = 86,
 255:Drivers/lvgl/src/extra/themes/mono/../../../../src/hal/../draw/../misc/lv_style.h ****     LV_STYLE_TEXT_FONT              = 87,
 256:Drivers/lvgl/src/extra/themes/mono/../../../../src/hal/../draw/../misc/lv_style.h ****     LV_STYLE_TEXT_LETTER_SPACE      = 88,
 257:Drivers/lvgl/src/extra/themes/mono/../../../../src/hal/../draw/../misc/lv_style.h ****     LV_STYLE_TEXT_LINE_SPACE        = 89,
 258:Drivers/lvgl/src/extra/themes/mono/../../../../src/hal/../draw/../misc/lv_style.h ****     LV_STYLE_TEXT_DECOR             = 90,
 259:Drivers/lvgl/src/extra/themes/mono/../../../../src/hal/../draw/../misc/lv_style.h ****     LV_STYLE_TEXT_ALIGN             = 91,
 260:Drivers/lvgl/src/extra/themes/mono/../../../../src/hal/../draw/../misc/lv_style.h **** 
 261:Drivers/lvgl/src/extra/themes/mono/../../../../src/hal/../draw/../misc/lv_style.h ****     /*Group 6*/
 262:Drivers/lvgl/src/extra/themes/mono/../../../../src/hal/../draw/../misc/lv_style.h ****     LV_STYLE_OPA                    = 96,
 263:Drivers/lvgl/src/extra/themes/mono/../../../../src/hal/../draw/../misc/lv_style.h ****     LV_STYLE_OPA_LAYERED            = 97,
 264:Drivers/lvgl/src/extra/themes/mono/../../../../src/hal/../draw/../misc/lv_style.h ****     LV_STYLE_COLOR_FILTER_DSC       = 98,
 265:Drivers/lvgl/src/extra/themes/mono/../../../../src/hal/../draw/../misc/lv_style.h ****     LV_STYLE_COLOR_FILTER_OPA       = 99,
 266:Drivers/lvgl/src/extra/themes/mono/../../../../src/hal/../draw/../misc/lv_style.h ****     LV_STYLE_ANIM                   = 100,
 267:Drivers/lvgl/src/extra/themes/mono/../../../../src/hal/../draw/../misc/lv_style.h ****     LV_STYLE_ANIM_TIME              = 101,
 268:Drivers/lvgl/src/extra/themes/mono/../../../../src/hal/../draw/../misc/lv_style.h ****     LV_STYLE_ANIM_SPEED             = 102,
 269:Drivers/lvgl/src/extra/themes/mono/../../../../src/hal/../draw/../misc/lv_style.h ****     LV_STYLE_TRANSITION             = 103,
 270:Drivers/lvgl/src/extra/themes/mono/../../../../src/hal/../draw/../misc/lv_style.h ****     LV_STYLE_BLEND_MODE             = 104,
 271:Drivers/lvgl/src/extra/themes/mono/../../../../src/hal/../draw/../misc/lv_style.h ****     LV_STYLE_TRANSFORM_WIDTH        = 105,
 272:Drivers/lvgl/src/extra/themes/mono/../../../../src/hal/../draw/../misc/lv_style.h ****     LV_STYLE_TRANSFORM_HEIGHT       = 106,
 273:Drivers/lvgl/src/extra/themes/mono/../../../../src/hal/../draw/../misc/lv_style.h ****     LV_STYLE_TRANSLATE_X            = 107,
 274:Drivers/lvgl/src/extra/themes/mono/../../../../src/hal/../draw/../misc/lv_style.h ****     LV_STYLE_TRANSLATE_Y            = 108,
 275:Drivers/lvgl/src/extra/themes/mono/../../../../src/hal/../draw/../misc/lv_style.h ****     LV_STYLE_TRANSFORM_ZOOM         = 109,
 276:Drivers/lvgl/src/extra/themes/mono/../../../../src/hal/../draw/../misc/lv_style.h ****     LV_STYLE_TRANSFORM_ANGLE        = 110,
 277:Drivers/lvgl/src/extra/themes/mono/../../../../src/hal/../draw/../misc/lv_style.h ****     LV_STYLE_TRANSFORM_PIVOT_X      = 111,
 278:Drivers/lvgl/src/extra/themes/mono/../../../../src/hal/../draw/../misc/lv_style.h ****     LV_STYLE_TRANSFORM_PIVOT_Y      = 112,
 279:Drivers/lvgl/src/extra/themes/mono/../../../../src/hal/../draw/../misc/lv_style.h **** 
 280:Drivers/lvgl/src/extra/themes/mono/../../../../src/hal/../draw/../misc/lv_style.h ****     _LV_STYLE_LAST_BUILT_IN_PROP     = 112,
 281:Drivers/lvgl/src/extra/themes/mono/../../../../src/hal/../draw/../misc/lv_style.h ****     _LV_STYLE_NUM_BUILT_IN_PROPS     = _LV_STYLE_LAST_BUILT_IN_PROP + 1,
 282:Drivers/lvgl/src/extra/themes/mono/../../../../src/hal/../draw/../misc/lv_style.h **** 
 283:Drivers/lvgl/src/extra/themes/mono/../../../../src/hal/../draw/../misc/lv_style.h ****     LV_STYLE_PROP_ANY                = 0xFFFF,
 284:Drivers/lvgl/src/extra/themes/mono/../../../../src/hal/../draw/../misc/lv_style.h ****     _LV_STYLE_PROP_CONST             = 0xFFFF /* magic value for const styles */
 285:Drivers/lvgl/src/extra/themes/mono/../../../../src/hal/../draw/../misc/lv_style.h **** } lv_style_prop_t;
 286:Drivers/lvgl/src/extra/themes/mono/../../../../src/hal/../draw/../misc/lv_style.h **** 
 287:Drivers/lvgl/src/extra/themes/mono/../../../../src/hal/../draw/../misc/lv_style.h **** enum {
 288:Drivers/lvgl/src/extra/themes/mono/../../../../src/hal/../draw/../misc/lv_style.h ****     LV_STYLE_RES_NOT_FOUND,
 289:Drivers/lvgl/src/extra/themes/mono/../../../../src/hal/../draw/../misc/lv_style.h ****     LV_STYLE_RES_FOUND,
 290:Drivers/lvgl/src/extra/themes/mono/../../../../src/hal/../draw/../misc/lv_style.h ****     LV_STYLE_RES_INHERIT
 291:Drivers/lvgl/src/extra/themes/mono/../../../../src/hal/../draw/../misc/lv_style.h **** };
 292:Drivers/lvgl/src/extra/themes/mono/../../../../src/hal/../draw/../misc/lv_style.h **** 
 293:Drivers/lvgl/src/extra/themes/mono/../../../../src/hal/../draw/../misc/lv_style.h **** typedef uint8_t lv_style_res_t;
ARM GAS  /var/folders/0z/tsy30v1j4xl4_7kw94k978ww0000gn/T//ccM2UjO5.s 			page 62


 294:Drivers/lvgl/src/extra/themes/mono/../../../../src/hal/../draw/../misc/lv_style.h **** 
 295:Drivers/lvgl/src/extra/themes/mono/../../../../src/hal/../draw/../misc/lv_style.h **** /**
 296:Drivers/lvgl/src/extra/themes/mono/../../../../src/hal/../draw/../misc/lv_style.h ****  * Descriptor for style transitions
 297:Drivers/lvgl/src/extra/themes/mono/../../../../src/hal/../draw/../misc/lv_style.h ****  */
 298:Drivers/lvgl/src/extra/themes/mono/../../../../src/hal/../draw/../misc/lv_style.h **** typedef struct {
 299:Drivers/lvgl/src/extra/themes/mono/../../../../src/hal/../draw/../misc/lv_style.h ****     const lv_style_prop_t * props; /**< An array with the properties to animate.*/
 300:Drivers/lvgl/src/extra/themes/mono/../../../../src/hal/../draw/../misc/lv_style.h **** #if LV_USE_USER_DATA
 301:Drivers/lvgl/src/extra/themes/mono/../../../../src/hal/../draw/../misc/lv_style.h ****     void * user_data;              /**< A custom user data that will be passed to the animation's u
 302:Drivers/lvgl/src/extra/themes/mono/../../../../src/hal/../draw/../misc/lv_style.h **** #endif
 303:Drivers/lvgl/src/extra/themes/mono/../../../../src/hal/../draw/../misc/lv_style.h ****     lv_anim_path_cb_t path_xcb;     /**< A path for the animation.*/
 304:Drivers/lvgl/src/extra/themes/mono/../../../../src/hal/../draw/../misc/lv_style.h ****     uint32_t time;                 /**< Duration of the transition in [ms]*/
 305:Drivers/lvgl/src/extra/themes/mono/../../../../src/hal/../draw/../misc/lv_style.h ****     uint32_t delay;                /**< Delay before the transition in [ms]*/
 306:Drivers/lvgl/src/extra/themes/mono/../../../../src/hal/../draw/../misc/lv_style.h **** } lv_style_transition_dsc_t;
 307:Drivers/lvgl/src/extra/themes/mono/../../../../src/hal/../draw/../misc/lv_style.h **** 
 308:Drivers/lvgl/src/extra/themes/mono/../../../../src/hal/../draw/../misc/lv_style.h **** /**
 309:Drivers/lvgl/src/extra/themes/mono/../../../../src/hal/../draw/../misc/lv_style.h ****  * Descriptor of a constant style property.
 310:Drivers/lvgl/src/extra/themes/mono/../../../../src/hal/../draw/../misc/lv_style.h ****  */
 311:Drivers/lvgl/src/extra/themes/mono/../../../../src/hal/../draw/../misc/lv_style.h **** typedef struct {
 312:Drivers/lvgl/src/extra/themes/mono/../../../../src/hal/../draw/../misc/lv_style.h ****     lv_style_prop_t prop;
 313:Drivers/lvgl/src/extra/themes/mono/../../../../src/hal/../draw/../misc/lv_style.h ****     lv_style_value_t value;
 314:Drivers/lvgl/src/extra/themes/mono/../../../../src/hal/../draw/../misc/lv_style.h **** } lv_style_const_prop_t;
 315:Drivers/lvgl/src/extra/themes/mono/../../../../src/hal/../draw/../misc/lv_style.h **** 
 316:Drivers/lvgl/src/extra/themes/mono/../../../../src/hal/../draw/../misc/lv_style.h **** /**
 317:Drivers/lvgl/src/extra/themes/mono/../../../../src/hal/../draw/../misc/lv_style.h ****  * Descriptor of a style (a collection of properties and values).
 318:Drivers/lvgl/src/extra/themes/mono/../../../../src/hal/../draw/../misc/lv_style.h ****  */
 319:Drivers/lvgl/src/extra/themes/mono/../../../../src/hal/../draw/../misc/lv_style.h **** typedef struct {
 320:Drivers/lvgl/src/extra/themes/mono/../../../../src/hal/../draw/../misc/lv_style.h **** 
 321:Drivers/lvgl/src/extra/themes/mono/../../../../src/hal/../draw/../misc/lv_style.h **** #if LV_USE_ASSERT_STYLE
 322:Drivers/lvgl/src/extra/themes/mono/../../../../src/hal/../draw/../misc/lv_style.h ****     uint32_t sentinel;
 323:Drivers/lvgl/src/extra/themes/mono/../../../../src/hal/../draw/../misc/lv_style.h **** #endif
 324:Drivers/lvgl/src/extra/themes/mono/../../../../src/hal/../draw/../misc/lv_style.h **** 
 325:Drivers/lvgl/src/extra/themes/mono/../../../../src/hal/../draw/../misc/lv_style.h ****     /*If there is only one property store it directly.
 326:Drivers/lvgl/src/extra/themes/mono/../../../../src/hal/../draw/../misc/lv_style.h ****      *For more properties allocate an array*/
 327:Drivers/lvgl/src/extra/themes/mono/../../../../src/hal/../draw/../misc/lv_style.h ****     union {
 328:Drivers/lvgl/src/extra/themes/mono/../../../../src/hal/../draw/../misc/lv_style.h ****         lv_style_value_t value1;
 329:Drivers/lvgl/src/extra/themes/mono/../../../../src/hal/../draw/../misc/lv_style.h ****         uint8_t * values_and_props;
 330:Drivers/lvgl/src/extra/themes/mono/../../../../src/hal/../draw/../misc/lv_style.h ****         const lv_style_const_prop_t * const_props;
 331:Drivers/lvgl/src/extra/themes/mono/../../../../src/hal/../draw/../misc/lv_style.h ****     } v_p;
 332:Drivers/lvgl/src/extra/themes/mono/../../../../src/hal/../draw/../misc/lv_style.h **** 
 333:Drivers/lvgl/src/extra/themes/mono/../../../../src/hal/../draw/../misc/lv_style.h ****     uint16_t prop1;
 334:Drivers/lvgl/src/extra/themes/mono/../../../../src/hal/../draw/../misc/lv_style.h ****     uint8_t has_group;
 335:Drivers/lvgl/src/extra/themes/mono/../../../../src/hal/../draw/../misc/lv_style.h ****     uint8_t prop_cnt;
 336:Drivers/lvgl/src/extra/themes/mono/../../../../src/hal/../draw/../misc/lv_style.h **** } lv_style_t;
 337:Drivers/lvgl/src/extra/themes/mono/../../../../src/hal/../draw/../misc/lv_style.h **** 
 338:Drivers/lvgl/src/extra/themes/mono/../../../../src/hal/../draw/../misc/lv_style.h **** /**********************
 339:Drivers/lvgl/src/extra/themes/mono/../../../../src/hal/../draw/../misc/lv_style.h ****  * GLOBAL PROTOTYPES
 340:Drivers/lvgl/src/extra/themes/mono/../../../../src/hal/../draw/../misc/lv_style.h ****  **********************/
 341:Drivers/lvgl/src/extra/themes/mono/../../../../src/hal/../draw/../misc/lv_style.h **** 
 342:Drivers/lvgl/src/extra/themes/mono/../../../../src/hal/../draw/../misc/lv_style.h **** 
 343:Drivers/lvgl/src/extra/themes/mono/../../../../src/hal/../draw/../misc/lv_style.h **** /**
 344:Drivers/lvgl/src/extra/themes/mono/../../../../src/hal/../draw/../misc/lv_style.h ****  * Initialize a style
 345:Drivers/lvgl/src/extra/themes/mono/../../../../src/hal/../draw/../misc/lv_style.h ****  * @param style pointer to a style to initialize
 346:Drivers/lvgl/src/extra/themes/mono/../../../../src/hal/../draw/../misc/lv_style.h ****  * @note Do not call `lv_style_init` on styles that already have some properties
 347:Drivers/lvgl/src/extra/themes/mono/../../../../src/hal/../draw/../misc/lv_style.h ****  *       because this function won't free the used memory, just sets a default state for the style.
 348:Drivers/lvgl/src/extra/themes/mono/../../../../src/hal/../draw/../misc/lv_style.h ****  *       In other words be sure to initialize styles only once!
 349:Drivers/lvgl/src/extra/themes/mono/../../../../src/hal/../draw/../misc/lv_style.h ****  */
 350:Drivers/lvgl/src/extra/themes/mono/../../../../src/hal/../draw/../misc/lv_style.h **** void lv_style_init(lv_style_t * style);
ARM GAS  /var/folders/0z/tsy30v1j4xl4_7kw94k978ww0000gn/T//ccM2UjO5.s 			page 63


 351:Drivers/lvgl/src/extra/themes/mono/../../../../src/hal/../draw/../misc/lv_style.h **** 
 352:Drivers/lvgl/src/extra/themes/mono/../../../../src/hal/../draw/../misc/lv_style.h **** /**
 353:Drivers/lvgl/src/extra/themes/mono/../../../../src/hal/../draw/../misc/lv_style.h ****  * Clear all properties from a style and free all allocated memories.
 354:Drivers/lvgl/src/extra/themes/mono/../../../../src/hal/../draw/../misc/lv_style.h ****  * @param style pointer to a style
 355:Drivers/lvgl/src/extra/themes/mono/../../../../src/hal/../draw/../misc/lv_style.h ****  */
 356:Drivers/lvgl/src/extra/themes/mono/../../../../src/hal/../draw/../misc/lv_style.h **** void lv_style_reset(lv_style_t * style);
 357:Drivers/lvgl/src/extra/themes/mono/../../../../src/hal/../draw/../misc/lv_style.h **** 
 358:Drivers/lvgl/src/extra/themes/mono/../../../../src/hal/../draw/../misc/lv_style.h **** /**
 359:Drivers/lvgl/src/extra/themes/mono/../../../../src/hal/../draw/../misc/lv_style.h ****  * Register a new style property for custom usage
 360:Drivers/lvgl/src/extra/themes/mono/../../../../src/hal/../draw/../misc/lv_style.h ****  * @return a new property ID, or LV_STYLE_PROP_INV if there are no more available.
 361:Drivers/lvgl/src/extra/themes/mono/../../../../src/hal/../draw/../misc/lv_style.h ****  * @example
 362:Drivers/lvgl/src/extra/themes/mono/../../../../src/hal/../draw/../misc/lv_style.h ****  * lv_style_prop_t MY_PROP;
 363:Drivers/lvgl/src/extra/themes/mono/../../../../src/hal/../draw/../misc/lv_style.h ****  * static inline void lv_style_set_my_prop(lv_style_t * style, lv_color_t value) {
 364:Drivers/lvgl/src/extra/themes/mono/../../../../src/hal/../draw/../misc/lv_style.h ****  * lv_style_value_t v = {.color = value}; lv_style_set_prop(style, MY_PROP, v); }
 365:Drivers/lvgl/src/extra/themes/mono/../../../../src/hal/../draw/../misc/lv_style.h ****  *
 366:Drivers/lvgl/src/extra/themes/mono/../../../../src/hal/../draw/../misc/lv_style.h ****  * ...
 367:Drivers/lvgl/src/extra/themes/mono/../../../../src/hal/../draw/../misc/lv_style.h ****  * MY_PROP = lv_style_register_prop();
 368:Drivers/lvgl/src/extra/themes/mono/../../../../src/hal/../draw/../misc/lv_style.h ****  * ...
 369:Drivers/lvgl/src/extra/themes/mono/../../../../src/hal/../draw/../misc/lv_style.h ****  * lv_style_set_my_prop(&style1, lv_palette_main(LV_PALETTE_RED));
 370:Drivers/lvgl/src/extra/themes/mono/../../../../src/hal/../draw/../misc/lv_style.h ****  */
 371:Drivers/lvgl/src/extra/themes/mono/../../../../src/hal/../draw/../misc/lv_style.h **** lv_style_prop_t lv_style_register_prop(uint8_t flag);
 372:Drivers/lvgl/src/extra/themes/mono/../../../../src/hal/../draw/../misc/lv_style.h **** 
 373:Drivers/lvgl/src/extra/themes/mono/../../../../src/hal/../draw/../misc/lv_style.h **** /**
 374:Drivers/lvgl/src/extra/themes/mono/../../../../src/hal/../draw/../misc/lv_style.h ****  * Get the number of custom properties that have been registered thus far.
 375:Drivers/lvgl/src/extra/themes/mono/../../../../src/hal/../draw/../misc/lv_style.h ****  */
 376:Drivers/lvgl/src/extra/themes/mono/../../../../src/hal/../draw/../misc/lv_style.h **** lv_style_prop_t lv_style_get_num_custom_props(void);
 377:Drivers/lvgl/src/extra/themes/mono/../../../../src/hal/../draw/../misc/lv_style.h **** 
 378:Drivers/lvgl/src/extra/themes/mono/../../../../src/hal/../draw/../misc/lv_style.h **** /**
 379:Drivers/lvgl/src/extra/themes/mono/../../../../src/hal/../draw/../misc/lv_style.h ****  * Remove a property from a style
 380:Drivers/lvgl/src/extra/themes/mono/../../../../src/hal/../draw/../misc/lv_style.h ****  * @param style pointer to a style
 381:Drivers/lvgl/src/extra/themes/mono/../../../../src/hal/../draw/../misc/lv_style.h ****  * @param prop  a style property ORed with a state.
 382:Drivers/lvgl/src/extra/themes/mono/../../../../src/hal/../draw/../misc/lv_style.h ****  * @return true: the property was found and removed; false: the property wasn't found
 383:Drivers/lvgl/src/extra/themes/mono/../../../../src/hal/../draw/../misc/lv_style.h ****  */
 384:Drivers/lvgl/src/extra/themes/mono/../../../../src/hal/../draw/../misc/lv_style.h **** bool lv_style_remove_prop(lv_style_t * style, lv_style_prop_t prop);
 385:Drivers/lvgl/src/extra/themes/mono/../../../../src/hal/../draw/../misc/lv_style.h **** 
 386:Drivers/lvgl/src/extra/themes/mono/../../../../src/hal/../draw/../misc/lv_style.h **** /**
 387:Drivers/lvgl/src/extra/themes/mono/../../../../src/hal/../draw/../misc/lv_style.h ****  * Set the value of property in a style.
 388:Drivers/lvgl/src/extra/themes/mono/../../../../src/hal/../draw/../misc/lv_style.h ****  * This function shouldn't be used directly by the user.
 389:Drivers/lvgl/src/extra/themes/mono/../../../../src/hal/../draw/../misc/lv_style.h ****  * Instead use `lv_style_set_<prop_name>()`. E.g. `lv_style_set_bg_color()`
 390:Drivers/lvgl/src/extra/themes/mono/../../../../src/hal/../draw/../misc/lv_style.h ****  * @param style pointer to style
 391:Drivers/lvgl/src/extra/themes/mono/../../../../src/hal/../draw/../misc/lv_style.h ****  * @param prop the ID of a property (e.g. `LV_STYLE_BG_COLOR`)
 392:Drivers/lvgl/src/extra/themes/mono/../../../../src/hal/../draw/../misc/lv_style.h ****  * @param value `lv_style_value_t` variable in which a field is set according to the type of `prop`
 393:Drivers/lvgl/src/extra/themes/mono/../../../../src/hal/../draw/../misc/lv_style.h ****  */
 394:Drivers/lvgl/src/extra/themes/mono/../../../../src/hal/../draw/../misc/lv_style.h **** void lv_style_set_prop(lv_style_t * style, lv_style_prop_t prop, lv_style_value_t value);
 395:Drivers/lvgl/src/extra/themes/mono/../../../../src/hal/../draw/../misc/lv_style.h **** 
 396:Drivers/lvgl/src/extra/themes/mono/../../../../src/hal/../draw/../misc/lv_style.h **** /**
 397:Drivers/lvgl/src/extra/themes/mono/../../../../src/hal/../draw/../misc/lv_style.h ****  * Set a special meta state for a property in a style.
 398:Drivers/lvgl/src/extra/themes/mono/../../../../src/hal/../draw/../misc/lv_style.h ****  * This function shouldn't be used directly by the user.
 399:Drivers/lvgl/src/extra/themes/mono/../../../../src/hal/../draw/../misc/lv_style.h ****  * @param style pointer to style
 400:Drivers/lvgl/src/extra/themes/mono/../../../../src/hal/../draw/../misc/lv_style.h ****  * @param prop the ID of a property (e.g. `LV_STYLE_BG_COLOR`)
 401:Drivers/lvgl/src/extra/themes/mono/../../../../src/hal/../draw/../misc/lv_style.h ****  * @param meta the meta value to attach to the property in the style
 402:Drivers/lvgl/src/extra/themes/mono/../../../../src/hal/../draw/../misc/lv_style.h ****  */
 403:Drivers/lvgl/src/extra/themes/mono/../../../../src/hal/../draw/../misc/lv_style.h **** void lv_style_set_prop_meta(lv_style_t * style, lv_style_prop_t prop, uint16_t meta);
 404:Drivers/lvgl/src/extra/themes/mono/../../../../src/hal/../draw/../misc/lv_style.h **** 
 405:Drivers/lvgl/src/extra/themes/mono/../../../../src/hal/../draw/../misc/lv_style.h **** /**
 406:Drivers/lvgl/src/extra/themes/mono/../../../../src/hal/../draw/../misc/lv_style.h ****  * Get the value of a property
 407:Drivers/lvgl/src/extra/themes/mono/../../../../src/hal/../draw/../misc/lv_style.h ****  * @param style pointer to a style
ARM GAS  /var/folders/0z/tsy30v1j4xl4_7kw94k978ww0000gn/T//ccM2UjO5.s 			page 64


 408:Drivers/lvgl/src/extra/themes/mono/../../../../src/hal/../draw/../misc/lv_style.h ****  * @param prop  the ID of a property
 409:Drivers/lvgl/src/extra/themes/mono/../../../../src/hal/../draw/../misc/lv_style.h ****  * @param value pointer to a `lv_style_value_t` variable to store the value
 410:Drivers/lvgl/src/extra/themes/mono/../../../../src/hal/../draw/../misc/lv_style.h ****  * @return LV_RES_INV: the property wasn't found in the style (`value` is unchanged)
 411:Drivers/lvgl/src/extra/themes/mono/../../../../src/hal/../draw/../misc/lv_style.h ****  *         LV_RES_OK: the property was fond, and `value` is set accordingly
 412:Drivers/lvgl/src/extra/themes/mono/../../../../src/hal/../draw/../misc/lv_style.h ****  * @note For performance reasons there are no sanity check on `style`
 413:Drivers/lvgl/src/extra/themes/mono/../../../../src/hal/../draw/../misc/lv_style.h ****  */
 414:Drivers/lvgl/src/extra/themes/mono/../../../../src/hal/../draw/../misc/lv_style.h **** lv_style_res_t lv_style_get_prop(const lv_style_t * style, lv_style_prop_t prop, lv_style_value_t *
 415:Drivers/lvgl/src/extra/themes/mono/../../../../src/hal/../draw/../misc/lv_style.h **** 
 416:Drivers/lvgl/src/extra/themes/mono/../../../../src/hal/../draw/../misc/lv_style.h **** /**
 417:Drivers/lvgl/src/extra/themes/mono/../../../../src/hal/../draw/../misc/lv_style.h ****  * Initialize a transition descriptor.
 418:Drivers/lvgl/src/extra/themes/mono/../../../../src/hal/../draw/../misc/lv_style.h ****  * @param tr        pointer to a transition descriptor to initialize
 419:Drivers/lvgl/src/extra/themes/mono/../../../../src/hal/../draw/../misc/lv_style.h ****  * @param props     an array with the properties to transition. The last element must be zero.
 420:Drivers/lvgl/src/extra/themes/mono/../../../../src/hal/../draw/../misc/lv_style.h ****  * @param path_cb   an animation path (ease) callback. If `NULL` liner path will be used.
 421:Drivers/lvgl/src/extra/themes/mono/../../../../src/hal/../draw/../misc/lv_style.h ****  * @param time      duration of the transition in [ms]
 422:Drivers/lvgl/src/extra/themes/mono/../../../../src/hal/../draw/../misc/lv_style.h ****  * @param delay     delay before the transition in [ms]
 423:Drivers/lvgl/src/extra/themes/mono/../../../../src/hal/../draw/../misc/lv_style.h ****  * @param user_data any custom data that will be saved in the transition animation and will be avai
 424:Drivers/lvgl/src/extra/themes/mono/../../../../src/hal/../draw/../misc/lv_style.h ****  * @example
 425:Drivers/lvgl/src/extra/themes/mono/../../../../src/hal/../draw/../misc/lv_style.h ****  * const static lv_style_prop_t trans_props[] = { LV_STYLE_BG_OPA, LV_STYLE_BG_COLOR, 0 };
 426:Drivers/lvgl/src/extra/themes/mono/../../../../src/hal/../draw/../misc/lv_style.h ****  *  static lv_style_transition_dsc_t trans1;
 427:Drivers/lvgl/src/extra/themes/mono/../../../../src/hal/../draw/../misc/lv_style.h ****  *  lv_style_transition_dsc_init(&trans1, trans_props, NULL, 300, 0, NULL);
 428:Drivers/lvgl/src/extra/themes/mono/../../../../src/hal/../draw/../misc/lv_style.h ****  */
 429:Drivers/lvgl/src/extra/themes/mono/../../../../src/hal/../draw/../misc/lv_style.h **** void lv_style_transition_dsc_init(lv_style_transition_dsc_t * tr, const lv_style_prop_t props[],
 430:Drivers/lvgl/src/extra/themes/mono/../../../../src/hal/../draw/../misc/lv_style.h ****                                   lv_anim_path_cb_t path_cb, uint32_t time, uint32_t delay, void * 
 431:Drivers/lvgl/src/extra/themes/mono/../../../../src/hal/../draw/../misc/lv_style.h **** 
 432:Drivers/lvgl/src/extra/themes/mono/../../../../src/hal/../draw/../misc/lv_style.h **** /**
 433:Drivers/lvgl/src/extra/themes/mono/../../../../src/hal/../draw/../misc/lv_style.h ****  * Get the default value of a property
 434:Drivers/lvgl/src/extra/themes/mono/../../../../src/hal/../draw/../misc/lv_style.h ****  * @param prop the ID of a property
 435:Drivers/lvgl/src/extra/themes/mono/../../../../src/hal/../draw/../misc/lv_style.h ****  * @return the default value
 436:Drivers/lvgl/src/extra/themes/mono/../../../../src/hal/../draw/../misc/lv_style.h ****  */
 437:Drivers/lvgl/src/extra/themes/mono/../../../../src/hal/../draw/../misc/lv_style.h **** lv_style_value_t lv_style_prop_get_default(lv_style_prop_t prop);
 438:Drivers/lvgl/src/extra/themes/mono/../../../../src/hal/../draw/../misc/lv_style.h **** 
 439:Drivers/lvgl/src/extra/themes/mono/../../../../src/hal/../draw/../misc/lv_style.h **** /**
 440:Drivers/lvgl/src/extra/themes/mono/../../../../src/hal/../draw/../misc/lv_style.h ****  * Get the value of a property
 441:Drivers/lvgl/src/extra/themes/mono/../../../../src/hal/../draw/../misc/lv_style.h ****  * @param style pointer to a style
 442:Drivers/lvgl/src/extra/themes/mono/../../../../src/hal/../draw/../misc/lv_style.h ****  * @param prop  the ID of a property
 443:Drivers/lvgl/src/extra/themes/mono/../../../../src/hal/../draw/../misc/lv_style.h ****  * @param value pointer to a `lv_style_value_t` variable to store the value
 444:Drivers/lvgl/src/extra/themes/mono/../../../../src/hal/../draw/../misc/lv_style.h ****  * @return LV_RES_INV: the property wasn't found in the style (`value` is unchanged)
 445:Drivers/lvgl/src/extra/themes/mono/../../../../src/hal/../draw/../misc/lv_style.h ****  *         LV_RES_OK: the property was fond, and `value` is set accordingly
 446:Drivers/lvgl/src/extra/themes/mono/../../../../src/hal/../draw/../misc/lv_style.h ****  * @note For performance reasons there are no sanity check on `style`
 447:Drivers/lvgl/src/extra/themes/mono/../../../../src/hal/../draw/../misc/lv_style.h ****  * @note This function is the same as ::lv_style_get_prop but inlined. Use it only on performance c
 448:Drivers/lvgl/src/extra/themes/mono/../../../../src/hal/../draw/../misc/lv_style.h ****  */
 449:Drivers/lvgl/src/extra/themes/mono/../../../../src/hal/../draw/../misc/lv_style.h **** static inline lv_style_res_t lv_style_get_prop_inlined(const lv_style_t * style, lv_style_prop_t pr
 450:Drivers/lvgl/src/extra/themes/mono/../../../../src/hal/../draw/../misc/lv_style.h ****                                                        lv_style_value_t * value)
 451:Drivers/lvgl/src/extra/themes/mono/../../../../src/hal/../draw/../misc/lv_style.h **** {
 452:Drivers/lvgl/src/extra/themes/mono/../../../../src/hal/../draw/../misc/lv_style.h ****     if(style->prop1 == LV_STYLE_PROP_ANY) {
 453:Drivers/lvgl/src/extra/themes/mono/../../../../src/hal/../draw/../misc/lv_style.h ****         const lv_style_const_prop_t * const_prop;
 454:Drivers/lvgl/src/extra/themes/mono/../../../../src/hal/../draw/../misc/lv_style.h ****         uint32_t i;
 455:Drivers/lvgl/src/extra/themes/mono/../../../../src/hal/../draw/../misc/lv_style.h ****         for(i = 0; i < style->prop_cnt; i++) {
 456:Drivers/lvgl/src/extra/themes/mono/../../../../src/hal/../draw/../misc/lv_style.h ****             const_prop = style->v_p.const_props + i;
 457:Drivers/lvgl/src/extra/themes/mono/../../../../src/hal/../draw/../misc/lv_style.h ****             lv_style_prop_t prop_id = LV_STYLE_PROP_ID_MASK(const_prop->prop);
 458:Drivers/lvgl/src/extra/themes/mono/../../../../src/hal/../draw/../misc/lv_style.h ****             if(prop_id == prop) {
 459:Drivers/lvgl/src/extra/themes/mono/../../../../src/hal/../draw/../misc/lv_style.h ****                 if(const_prop->prop & LV_STYLE_PROP_META_INHERIT)
 460:Drivers/lvgl/src/extra/themes/mono/../../../../src/hal/../draw/../misc/lv_style.h ****                     return LV_STYLE_RES_INHERIT;
 461:Drivers/lvgl/src/extra/themes/mono/../../../../src/hal/../draw/../misc/lv_style.h ****                 *value = (const_prop->prop & LV_STYLE_PROP_META_INITIAL) ? lv_style_prop_get_defaul
 462:Drivers/lvgl/src/extra/themes/mono/../../../../src/hal/../draw/../misc/lv_style.h ****                 return LV_STYLE_RES_FOUND;
 463:Drivers/lvgl/src/extra/themes/mono/../../../../src/hal/../draw/../misc/lv_style.h ****             }
 464:Drivers/lvgl/src/extra/themes/mono/../../../../src/hal/../draw/../misc/lv_style.h ****         }
ARM GAS  /var/folders/0z/tsy30v1j4xl4_7kw94k978ww0000gn/T//ccM2UjO5.s 			page 65


 465:Drivers/lvgl/src/extra/themes/mono/../../../../src/hal/../draw/../misc/lv_style.h ****         return LV_STYLE_RES_NOT_FOUND;
 466:Drivers/lvgl/src/extra/themes/mono/../../../../src/hal/../draw/../misc/lv_style.h ****     }
 467:Drivers/lvgl/src/extra/themes/mono/../../../../src/hal/../draw/../misc/lv_style.h **** 
 468:Drivers/lvgl/src/extra/themes/mono/../../../../src/hal/../draw/../misc/lv_style.h ****     if(style->prop_cnt == 0) return LV_STYLE_RES_NOT_FOUND;
 469:Drivers/lvgl/src/extra/themes/mono/../../../../src/hal/../draw/../misc/lv_style.h **** 
 470:Drivers/lvgl/src/extra/themes/mono/../../../../src/hal/../draw/../misc/lv_style.h ****     if(style->prop_cnt > 1) {
 471:Drivers/lvgl/src/extra/themes/mono/../../../../src/hal/../draw/../misc/lv_style.h ****         uint8_t * tmp = style->v_p.values_and_props + style->prop_cnt * sizeof(lv_style_value_t);
 472:Drivers/lvgl/src/extra/themes/mono/../../../../src/hal/../draw/../misc/lv_style.h ****         uint16_t * props = (uint16_t *)tmp;
 473:Drivers/lvgl/src/extra/themes/mono/../../../../src/hal/../draw/../misc/lv_style.h ****         uint32_t i;
 474:Drivers/lvgl/src/extra/themes/mono/../../../../src/hal/../draw/../misc/lv_style.h ****         for(i = 0; i < style->prop_cnt; i++) {
 475:Drivers/lvgl/src/extra/themes/mono/../../../../src/hal/../draw/../misc/lv_style.h ****             lv_style_prop_t prop_id = LV_STYLE_PROP_ID_MASK(props[i]);
 476:Drivers/lvgl/src/extra/themes/mono/../../../../src/hal/../draw/../misc/lv_style.h ****             if(prop_id == prop) {
 477:Drivers/lvgl/src/extra/themes/mono/../../../../src/hal/../draw/../misc/lv_style.h ****                 if(props[i] & LV_STYLE_PROP_META_INHERIT)
 478:Drivers/lvgl/src/extra/themes/mono/../../../../src/hal/../draw/../misc/lv_style.h ****                     return LV_STYLE_RES_INHERIT;
 479:Drivers/lvgl/src/extra/themes/mono/../../../../src/hal/../draw/../misc/lv_style.h ****                 if(props[i] & LV_STYLE_PROP_META_INITIAL)
 480:Drivers/lvgl/src/extra/themes/mono/../../../../src/hal/../draw/../misc/lv_style.h ****                     *value = lv_style_prop_get_default(prop_id);
 481:Drivers/lvgl/src/extra/themes/mono/../../../../src/hal/../draw/../misc/lv_style.h ****                 else {
 482:Drivers/lvgl/src/extra/themes/mono/../../../../src/hal/../draw/../misc/lv_style.h ****                     lv_style_value_t * values = (lv_style_value_t *)style->v_p.values_and_props;
 483:Drivers/lvgl/src/extra/themes/mono/../../../../src/hal/../draw/../misc/lv_style.h ****                     *value = values[i];
 484:Drivers/lvgl/src/extra/themes/mono/../../../../src/hal/../draw/../misc/lv_style.h ****                 }
 485:Drivers/lvgl/src/extra/themes/mono/../../../../src/hal/../draw/../misc/lv_style.h ****                 return LV_STYLE_RES_FOUND;
 486:Drivers/lvgl/src/extra/themes/mono/../../../../src/hal/../draw/../misc/lv_style.h ****             }
 487:Drivers/lvgl/src/extra/themes/mono/../../../../src/hal/../draw/../misc/lv_style.h ****         }
 488:Drivers/lvgl/src/extra/themes/mono/../../../../src/hal/../draw/../misc/lv_style.h ****     }
 489:Drivers/lvgl/src/extra/themes/mono/../../../../src/hal/../draw/../misc/lv_style.h ****     else if(LV_STYLE_PROP_ID_MASK(style->prop1) == prop) {
 490:Drivers/lvgl/src/extra/themes/mono/../../../../src/hal/../draw/../misc/lv_style.h ****         if(style->prop1 & LV_STYLE_PROP_META_INHERIT)
 491:Drivers/lvgl/src/extra/themes/mono/../../../../src/hal/../draw/../misc/lv_style.h ****             return LV_STYLE_RES_INHERIT;
 492:Drivers/lvgl/src/extra/themes/mono/../../../../src/hal/../draw/../misc/lv_style.h ****         *value = (style->prop1 & LV_STYLE_PROP_META_INITIAL) ? lv_style_prop_get_default(LV_STYLE_P
 493:Drivers/lvgl/src/extra/themes/mono/../../../../src/hal/../draw/../misc/lv_style.h ****                                                                                              style-
 494:Drivers/lvgl/src/extra/themes/mono/../../../../src/hal/../draw/../misc/lv_style.h ****         return LV_STYLE_RES_FOUND;
 495:Drivers/lvgl/src/extra/themes/mono/../../../../src/hal/../draw/../misc/lv_style.h ****     }
 496:Drivers/lvgl/src/extra/themes/mono/../../../../src/hal/../draw/../misc/lv_style.h ****     return LV_STYLE_RES_NOT_FOUND;
 497:Drivers/lvgl/src/extra/themes/mono/../../../../src/hal/../draw/../misc/lv_style.h **** }
 498:Drivers/lvgl/src/extra/themes/mono/../../../../src/hal/../draw/../misc/lv_style.h **** 
 499:Drivers/lvgl/src/extra/themes/mono/../../../../src/hal/../draw/../misc/lv_style.h **** /**
 500:Drivers/lvgl/src/extra/themes/mono/../../../../src/hal/../draw/../misc/lv_style.h ****  * Checks if a style is empty (has no properties)
 501:Drivers/lvgl/src/extra/themes/mono/../../../../src/hal/../draw/../misc/lv_style.h ****  * @param style pointer to a style
 502:Drivers/lvgl/src/extra/themes/mono/../../../../src/hal/../draw/../misc/lv_style.h ****  * @return true if the style is empty
 503:Drivers/lvgl/src/extra/themes/mono/../../../../src/hal/../draw/../misc/lv_style.h ****  */
 504:Drivers/lvgl/src/extra/themes/mono/../../../../src/hal/../draw/../misc/lv_style.h **** bool lv_style_is_empty(const lv_style_t * style);
 505:Drivers/lvgl/src/extra/themes/mono/../../../../src/hal/../draw/../misc/lv_style.h **** 
 506:Drivers/lvgl/src/extra/themes/mono/../../../../src/hal/../draw/../misc/lv_style.h **** /**
 507:Drivers/lvgl/src/extra/themes/mono/../../../../src/hal/../draw/../misc/lv_style.h ****  * Tell the group of a property. If the a property from a group is set in a style the (1 << group) 
 508:Drivers/lvgl/src/extra/themes/mono/../../../../src/hal/../draw/../misc/lv_style.h ****  * It allows early skipping the style if the property is not exists in the style at all.
 509:Drivers/lvgl/src/extra/themes/mono/../../../../src/hal/../draw/../misc/lv_style.h ****  * @param prop a style property
 510:Drivers/lvgl/src/extra/themes/mono/../../../../src/hal/../draw/../misc/lv_style.h ****  * @return the group [0..7] 7 means all the custom properties with index > 112
 511:Drivers/lvgl/src/extra/themes/mono/../../../../src/hal/../draw/../misc/lv_style.h ****  */
 512:Drivers/lvgl/src/extra/themes/mono/../../../../src/hal/../draw/../misc/lv_style.h **** uint8_t _lv_style_get_prop_group(lv_style_prop_t prop);
 513:Drivers/lvgl/src/extra/themes/mono/../../../../src/hal/../draw/../misc/lv_style.h **** 
 514:Drivers/lvgl/src/extra/themes/mono/../../../../src/hal/../draw/../misc/lv_style.h **** /**
 515:Drivers/lvgl/src/extra/themes/mono/../../../../src/hal/../draw/../misc/lv_style.h ****  * Get the flags of a built-in or custom property.
 516:Drivers/lvgl/src/extra/themes/mono/../../../../src/hal/../draw/../misc/lv_style.h ****  *
 517:Drivers/lvgl/src/extra/themes/mono/../../../../src/hal/../draw/../misc/lv_style.h ****  * @param prop a style property
 518:Drivers/lvgl/src/extra/themes/mono/../../../../src/hal/../draw/../misc/lv_style.h ****  * @return the flags of the property
 519:Drivers/lvgl/src/extra/themes/mono/../../../../src/hal/../draw/../misc/lv_style.h ****  */
 520:Drivers/lvgl/src/extra/themes/mono/../../../../src/hal/../draw/../misc/lv_style.h **** uint8_t _lv_style_prop_lookup_flags(lv_style_prop_t prop);
 521:Drivers/lvgl/src/extra/themes/mono/../../../../src/hal/../draw/../misc/lv_style.h **** 
ARM GAS  /var/folders/0z/tsy30v1j4xl4_7kw94k978ww0000gn/T//ccM2UjO5.s 			page 66


 522:Drivers/lvgl/src/extra/themes/mono/../../../../src/hal/../draw/../misc/lv_style.h **** #include "lv_style_gen.h"
 523:Drivers/lvgl/src/extra/themes/mono/../../../../src/hal/../draw/../misc/lv_style.h **** 
 524:Drivers/lvgl/src/extra/themes/mono/../../../../src/hal/../draw/../misc/lv_style.h **** static inline void lv_style_set_size(lv_style_t * style, lv_coord_t value)
 525:Drivers/lvgl/src/extra/themes/mono/../../../../src/hal/../draw/../misc/lv_style.h **** {
 526:Drivers/lvgl/src/extra/themes/mono/../../../../src/hal/../draw/../misc/lv_style.h ****     lv_style_set_width(style, value);
 527:Drivers/lvgl/src/extra/themes/mono/../../../../src/hal/../draw/../misc/lv_style.h ****     lv_style_set_height(style, value);
 528:Drivers/lvgl/src/extra/themes/mono/../../../../src/hal/../draw/../misc/lv_style.h **** }
 529:Drivers/lvgl/src/extra/themes/mono/../../../../src/hal/../draw/../misc/lv_style.h **** 
 530:Drivers/lvgl/src/extra/themes/mono/../../../../src/hal/../draw/../misc/lv_style.h **** static inline void lv_style_set_pad_all(lv_style_t * style, lv_coord_t value)
 531:Drivers/lvgl/src/extra/themes/mono/../../../../src/hal/../draw/../misc/lv_style.h **** {
 532:Drivers/lvgl/src/extra/themes/mono/../../../../src/hal/../draw/../misc/lv_style.h ****     lv_style_set_pad_left(style, value);
 1663              		.loc 3 532 5 is_stmt 0 view .LVU367
 1664 012e 0421     		movs	r1, #4
 1665              	.LBE203:
 1666              	.LBE202:
  98:Drivers/lvgl/src/extra/themes/mono/lv_theme_mono.c ****     lv_style_set_pad_gap(&styles->card, PAD_DEF);
 1667              		.loc 1 98 5 view .LVU368
 1668 0130 0830     		adds	r0, r0, #8
 1669              	.LVL162:
 1670              	.LBB205:
 1671              	.LBI202:
 530:Drivers/lvgl/src/extra/themes/mono/../../../../src/hal/../draw/../misc/lv_style.h **** {
 1672              		.loc 3 530 20 is_stmt 1 view .LVU369
 1673              	.LBB204:
 1674              		.loc 3 532 5 view .LVU370
 1675 0132 0190     		str	r0, [sp, #4]
 1676 0134 FFF7FEFF 		bl	lv_style_set_pad_left
 1677              	.LVL163:
 533:Drivers/lvgl/src/extra/themes/mono/../../../../src/hal/../draw/../misc/lv_style.h ****     lv_style_set_pad_right(style, value);
 1678              		.loc 3 533 5 view .LVU371
 1679 0138 0198     		ldr	r0, [sp, #4]
 1680 013a 0421     		movs	r1, #4
 1681 013c FFF7FEFF 		bl	lv_style_set_pad_right
 1682              	.LVL164:
 534:Drivers/lvgl/src/extra/themes/mono/../../../../src/hal/../draw/../misc/lv_style.h ****     lv_style_set_pad_top(style, value);
 1683              		.loc 3 534 5 view .LVU372
 1684 0140 0198     		ldr	r0, [sp, #4]
 1685 0142 0421     		movs	r1, #4
 1686 0144 FFF7FEFF 		bl	lv_style_set_pad_top
 1687              	.LVL165:
 535:Drivers/lvgl/src/extra/themes/mono/../../../../src/hal/../draw/../misc/lv_style.h ****     lv_style_set_pad_bottom(style, value);
 1688              		.loc 3 535 5 view .LVU373
 1689 0148 0198     		ldr	r0, [sp, #4]
 1690 014a 0421     		movs	r1, #4
 1691 014c FFF7FEFF 		bl	lv_style_set_pad_bottom
 1692              	.LVL166:
 1693              		.loc 3 535 5 is_stmt 0 view .LVU374
 1694              	.LBE204:
 1695              	.LBE205:
  99:Drivers/lvgl/src/extra/themes/mono/lv_theme_mono.c ****     lv_style_set_text_color(&styles->card, COLOR_FG);
 1696              		.loc 1 99 5 is_stmt 1 view .LVU375
 1697 0150 2068     		ldr	r0, [r4]
 1698              	.LBB206:
 1699              	.LBB207:
 536:Drivers/lvgl/src/extra/themes/mono/../../../../src/hal/../draw/../misc/lv_style.h **** }
 537:Drivers/lvgl/src/extra/themes/mono/../../../../src/hal/../draw/../misc/lv_style.h **** 
 538:Drivers/lvgl/src/extra/themes/mono/../../../../src/hal/../draw/../misc/lv_style.h **** static inline void lv_style_set_pad_hor(lv_style_t * style, lv_coord_t value)
ARM GAS  /var/folders/0z/tsy30v1j4xl4_7kw94k978ww0000gn/T//ccM2UjO5.s 			page 67


 539:Drivers/lvgl/src/extra/themes/mono/../../../../src/hal/../draw/../misc/lv_style.h **** {
 540:Drivers/lvgl/src/extra/themes/mono/../../../../src/hal/../draw/../misc/lv_style.h ****     lv_style_set_pad_left(style, value);
 541:Drivers/lvgl/src/extra/themes/mono/../../../../src/hal/../draw/../misc/lv_style.h ****     lv_style_set_pad_right(style, value);
 542:Drivers/lvgl/src/extra/themes/mono/../../../../src/hal/../draw/../misc/lv_style.h **** }
 543:Drivers/lvgl/src/extra/themes/mono/../../../../src/hal/../draw/../misc/lv_style.h **** 
 544:Drivers/lvgl/src/extra/themes/mono/../../../../src/hal/../draw/../misc/lv_style.h **** static inline void lv_style_set_pad_ver(lv_style_t * style, lv_coord_t value)
 545:Drivers/lvgl/src/extra/themes/mono/../../../../src/hal/../draw/../misc/lv_style.h **** {
 546:Drivers/lvgl/src/extra/themes/mono/../../../../src/hal/../draw/../misc/lv_style.h ****     lv_style_set_pad_top(style, value);
 547:Drivers/lvgl/src/extra/themes/mono/../../../../src/hal/../draw/../misc/lv_style.h ****     lv_style_set_pad_bottom(style, value);
 548:Drivers/lvgl/src/extra/themes/mono/../../../../src/hal/../draw/../misc/lv_style.h **** }
 549:Drivers/lvgl/src/extra/themes/mono/../../../../src/hal/../draw/../misc/lv_style.h **** 
 550:Drivers/lvgl/src/extra/themes/mono/../../../../src/hal/../draw/../misc/lv_style.h **** static inline void lv_style_set_pad_gap(lv_style_t * style, lv_coord_t value)
 551:Drivers/lvgl/src/extra/themes/mono/../../../../src/hal/../draw/../misc/lv_style.h **** {
 552:Drivers/lvgl/src/extra/themes/mono/../../../../src/hal/../draw/../misc/lv_style.h ****     lv_style_set_pad_row(style, value);
 1700              		.loc 3 552 5 is_stmt 0 view .LVU376
 1701 0152 0421     		movs	r1, #4
 1702              	.LBE207:
 1703              	.LBE206:
  99:Drivers/lvgl/src/extra/themes/mono/lv_theme_mono.c ****     lv_style_set_text_color(&styles->card, COLOR_FG);
 1704              		.loc 1 99 5 view .LVU377
 1705 0154 0830     		adds	r0, r0, #8
 1706              	.LVL167:
 1707              	.LBB209:
 1708              	.LBI206:
 550:Drivers/lvgl/src/extra/themes/mono/../../../../src/hal/../draw/../misc/lv_style.h **** {
 1709              		.loc 3 550 20 is_stmt 1 view .LVU378
 1710              	.LBB208:
 1711              		.loc 3 552 5 view .LVU379
 1712 0156 0190     		str	r0, [sp, #4]
 1713 0158 FFF7FEFF 		bl	lv_style_set_pad_row
 1714              	.LVL168:
 553:Drivers/lvgl/src/extra/themes/mono/../../../../src/hal/../draw/../misc/lv_style.h ****     lv_style_set_pad_column(style, value);
 1715              		.loc 3 553 5 view .LVU380
 1716 015c 0198     		ldr	r0, [sp, #4]
 1717 015e 0421     		movs	r1, #4
 1718 0160 FFF7FEFF 		bl	lv_style_set_pad_column
 1719              	.LVL169:
 1720              		.loc 3 553 5 is_stmt 0 view .LVU381
 1721              	.LBE208:
 1722              	.LBE209:
 100:Drivers/lvgl/src/extra/themes/mono/lv_theme_mono.c ****     lv_style_set_line_width(&styles->card, 2);
 1723              		.loc 1 100 5 is_stmt 1 view .LVU382
 1724 0164 2068     		ldr	r0, [r4]
 1725 0166 0830     		adds	r0, r0, #8
 1726 0168 002E     		cmp	r6, #0
 1727 016a 00F0A681 		beq	.L89
 1728 016e 4FF0FF31 		mov	r1, #-1	@ movhi
 1729 0172 FFF7FEFF 		bl	lv_style_set_text_color
 1730              	.LVL170:
 101:Drivers/lvgl/src/extra/themes/mono/lv_theme_mono.c ****     lv_style_set_line_color(&styles->card, COLOR_FG);
 1731              		.loc 1 101 5 view .LVU383
 1732 0176 2068     		ldr	r0, [r4]
 1733 0178 0221     		movs	r1, #2
 1734 017a 0830     		adds	r0, r0, #8
 1735 017c FFF7FEFF 		bl	lv_style_set_line_width
 1736              	.LVL171:
 102:Drivers/lvgl/src/extra/themes/mono/lv_theme_mono.c ****     lv_style_set_arc_width(&styles->card, 2);
ARM GAS  /var/folders/0z/tsy30v1j4xl4_7kw94k978ww0000gn/T//ccM2UjO5.s 			page 68


 1737              		.loc 1 102 5 view .LVU384
 1738 0180 2068     		ldr	r0, [r4]
 1739 0182 4FF0FF31 		mov	r1, #-1	@ movhi
 1740 0186 0830     		adds	r0, r0, #8
 1741 0188 FFF7FEFF 		bl	lv_style_set_line_color
 1742              	.LVL172:
 103:Drivers/lvgl/src/extra/themes/mono/lv_theme_mono.c ****     lv_style_set_arc_color(&styles->card, COLOR_FG);
 1743              		.loc 1 103 5 view .LVU385
 1744 018c 2068     		ldr	r0, [r4]
 1745 018e 0221     		movs	r1, #2
 1746 0190 0830     		adds	r0, r0, #8
 1747 0192 FFF7FEFF 		bl	lv_style_set_arc_width
 1748              	.LVL173:
 104:Drivers/lvgl/src/extra/themes/mono/lv_theme_mono.c ****     lv_style_set_outline_color(&styles->card, COLOR_FG);
 1749              		.loc 1 104 5 view .LVU386
 1750 0196 2068     		ldr	r0, [r4]
 1751 0198 4FF0FF31 		mov	r1, #-1	@ movhi
 1752 019c 0830     		adds	r0, r0, #8
 1753 019e FFF7FEFF 		bl	lv_style_set_arc_color
 1754              	.LVL174:
 105:Drivers/lvgl/src/extra/themes/mono/lv_theme_mono.c ****     lv_style_set_anim_time(&styles->card, 300);
 1755              		.loc 1 105 5 view .LVU387
 1756 01a2 2068     		ldr	r0, [r4]
 1757 01a4 0830     		adds	r0, r0, #8
 1758              	.LBB210:
 1759              	.LBI210:
 696:Drivers/lvgl/src/extra/themes/mono/../../../../src/hal/../draw/../misc/lv_color.h **** {
 1760              		.loc 2 696 26 view .LVU388
 1761              	.LBB211:
 1762              		.loc 2 698 5 view .LVU389
 1763              	.L90:
 1764 01a6 4FF00001 		mov	r1, #0	@ movhi
 1765 01aa 67F30201 		bfi	r1, r7, #0, #3
 1766 01ae 68F3C701 		bfi	r1, r8, #3, #5
 1767 01b2 68F30C21 		bfi	r1, r8, #8, #5
 1768 01b6 67F34F31 		bfi	r1, r7, #13, #3
 1769              	.LBE211:
 1770              	.LBE210:
 105:Drivers/lvgl/src/extra/themes/mono/lv_theme_mono.c ****     lv_style_set_anim_time(&styles->card, 300);
 1771              		.loc 1 105 5 is_stmt 0 view .LVU390
 1772 01ba FFF7FEFF 		bl	lv_style_set_outline_color
 1773              	.LVL175:
 106:Drivers/lvgl/src/extra/themes/mono/lv_theme_mono.c **** 
 1774              		.loc 1 106 5 is_stmt 1 view .LVU391
 1775 01be 2068     		ldr	r0, [r4]
 1776 01c0 4FF49671 		mov	r1, #300
 1777 01c4 0830     		adds	r0, r0, #8
 1778 01c6 FFF7FEFF 		bl	lv_style_set_anim_time
 1779              	.LVL176:
 108:Drivers/lvgl/src/extra/themes/mono/lv_theme_mono.c ****     lv_style_set_border_width(&styles->pr, BORDER_W_PR);
 1780              		.loc 1 108 5 view .LVU392
 1781 01ca 2068     		ldr	r0, [r4]
 1782              	.LBB212:
 1783              	.LBB213:
 496:Drivers/lvgl/src/extra/themes/mono/lv_theme_mono.c ****         lv_style_reset(style);
 1784              		.loc 1 496 7 is_stmt 0 view .LVU393
 1785 01cc 2B78     		ldrb	r3, [r5]	@ zero_extendqisi2
ARM GAS  /var/folders/0z/tsy30v1j4xl4_7kw94k978ww0000gn/T//ccM2UjO5.s 			page 69


 1786              	.LBE213:
 1787              	.LBE212:
 108:Drivers/lvgl/src/extra/themes/mono/lv_theme_mono.c ****     lv_style_set_border_width(&styles->pr, BORDER_W_PR);
 1788              		.loc 1 108 5 view .LVU394
 1789 01ce 2030     		adds	r0, r0, #32
 1790              	.LVL177:
 1791              	.LBB216:
 1792              	.LBI212:
 494:Drivers/lvgl/src/extra/themes/mono/lv_theme_mono.c **** {
 1793              		.loc 1 494 13 is_stmt 1 view .LVU395
 1794              	.LBB214:
 496:Drivers/lvgl/src/extra/themes/mono/lv_theme_mono.c ****         lv_style_reset(style);
 1795              		.loc 1 496 5 view .LVU396
 496:Drivers/lvgl/src/extra/themes/mono/lv_theme_mono.c ****         lv_style_reset(style);
 1796              		.loc 1 496 7 is_stmt 0 view .LVU397
 1797 01d0 002B     		cmp	r3, #0
 1798 01d2 00F06F81 		beq	.L91
 1799              		.loc 1 497 9 is_stmt 1 view .LVU398
 1800 01d6 FFF7FEFF 		bl	lv_style_reset
 1801              	.LVL178:
 1802              	.L92:
 1803              		.loc 1 497 9 is_stmt 0 view .LVU399
 1804              	.LBE214:
 1805              	.LBE216:
 109:Drivers/lvgl/src/extra/themes/mono/lv_theme_mono.c **** 
 1806              		.loc 1 109 5 is_stmt 1 view .LVU400
 1807 01da 2068     		ldr	r0, [r4]
 1808 01dc 0321     		movs	r1, #3
 1809 01de 2030     		adds	r0, r0, #32
 1810 01e0 FFF7FEFF 		bl	lv_style_set_border_width
 1811              	.LVL179:
 111:Drivers/lvgl/src/extra/themes/mono/lv_theme_mono.c ****     lv_style_set_bg_opa(&styles->inv, LV_OPA_COVER);
 1812              		.loc 1 111 5 view .LVU401
 1813 01e4 2068     		ldr	r0, [r4]
 1814              	.LBB217:
 1815              	.LBB218:
 496:Drivers/lvgl/src/extra/themes/mono/lv_theme_mono.c ****         lv_style_reset(style);
 1816              		.loc 1 496 7 is_stmt 0 view .LVU402
 1817 01e6 2B78     		ldrb	r3, [r5]	@ zero_extendqisi2
 1818              	.LBE218:
 1819              	.LBE217:
 111:Drivers/lvgl/src/extra/themes/mono/lv_theme_mono.c ****     lv_style_set_bg_opa(&styles->inv, LV_OPA_COVER);
 1820              		.loc 1 111 5 view .LVU403
 1821 01e8 2830     		adds	r0, r0, #40
 1822              	.LVL180:
 1823              	.LBB221:
 1824              	.LBI217:
 494:Drivers/lvgl/src/extra/themes/mono/lv_theme_mono.c **** {
 1825              		.loc 1 494 13 is_stmt 1 view .LVU404
 1826              	.LBB219:
 496:Drivers/lvgl/src/extra/themes/mono/lv_theme_mono.c ****         lv_style_reset(style);
 1827              		.loc 1 496 5 view .LVU405
 496:Drivers/lvgl/src/extra/themes/mono/lv_theme_mono.c ****         lv_style_reset(style);
 1828              		.loc 1 496 7 is_stmt 0 view .LVU406
 1829 01ea 002B     		cmp	r3, #0
 1830 01ec 00F05F81 		beq	.L93
 1831              		.loc 1 497 9 is_stmt 1 view .LVU407
ARM GAS  /var/folders/0z/tsy30v1j4xl4_7kw94k978ww0000gn/T//ccM2UjO5.s 			page 70


 1832 01f0 FFF7FEFF 		bl	lv_style_reset
 1833              	.LVL181:
 1834              	.L94:
 1835              		.loc 1 497 9 is_stmt 0 view .LVU408
 1836              	.LBE219:
 1837              	.LBE221:
 112:Drivers/lvgl/src/extra/themes/mono/lv_theme_mono.c ****     lv_style_set_bg_color(&styles->inv, COLOR_FG);
 1838              		.loc 1 112 5 is_stmt 1 view .LVU409
 1839 01f4 2068     		ldr	r0, [r4]
 1840 01f6 FF21     		movs	r1, #255
 1841 01f8 2830     		adds	r0, r0, #40
 1842 01fa FFF7FEFF 		bl	lv_style_set_bg_opa
 1843              	.LVL182:
 113:Drivers/lvgl/src/extra/themes/mono/lv_theme_mono.c ****     lv_style_set_border_color(&styles->inv, COLOR_BG);
 1844              		.loc 1 113 5 view .LVU410
 1845 01fe 2068     		ldr	r0, [r4]
 1846 0200 2830     		adds	r0, r0, #40
 1847 0202 002E     		cmp	r6, #0
 1848 0204 00F03381 		beq	.L95
 1849 0208 4FF0FF31 		mov	r1, #-1	@ movhi
 1850 020c FFF7FEFF 		bl	lv_style_set_bg_color
 1851              	.LVL183:
 114:Drivers/lvgl/src/extra/themes/mono/lv_theme_mono.c ****     lv_style_set_line_color(&styles->inv, COLOR_BG);
 1852              		.loc 1 114 5 view .LVU411
 1853 0210 2068     		ldr	r0, [r4]
 1854 0212 4FF00001 		mov	r1, #0	@ movhi
 1855 0216 2830     		adds	r0, r0, #40
 1856 0218 FFF7FEFF 		bl	lv_style_set_border_color
 1857              	.LVL184:
 115:Drivers/lvgl/src/extra/themes/mono/lv_theme_mono.c ****     lv_style_set_arc_color(&styles->inv, COLOR_BG);
 1858              		.loc 1 115 5 view .LVU412
 1859 021c 2068     		ldr	r0, [r4]
 1860 021e 4FF00001 		mov	r1, #0	@ movhi
 1861 0222 2830     		adds	r0, r0, #40
 1862 0224 FFF7FEFF 		bl	lv_style_set_line_color
 1863              	.LVL185:
 116:Drivers/lvgl/src/extra/themes/mono/lv_theme_mono.c ****     lv_style_set_text_color(&styles->inv, COLOR_BG);
 1864              		.loc 1 116 5 view .LVU413
 1865 0228 2068     		ldr	r0, [r4]
 1866 022a 4FF00001 		mov	r1, #0	@ movhi
 1867 022e 2830     		adds	r0, r0, #40
 1868 0230 FFF7FEFF 		bl	lv_style_set_arc_color
 1869              	.LVL186:
 117:Drivers/lvgl/src/extra/themes/mono/lv_theme_mono.c ****     lv_style_set_outline_color(&styles->inv, COLOR_BG);
 1870              		.loc 1 117 5 view .LVU414
 1871 0234 2068     		ldr	r0, [r4]
 1872 0236 4FF00001 		mov	r1, #0	@ movhi
 1873 023a 2830     		adds	r0, r0, #40
 1874 023c FFF7FEFF 		bl	lv_style_set_text_color
 1875              	.LVL187:
 118:Drivers/lvgl/src/extra/themes/mono/lv_theme_mono.c **** 
 1876              		.loc 1 118 5 view .LVU415
 1877 0240 2068     		ldr	r0, [r4]
 1878              	.LBB222:
 1879              	.LBB223:
 699:Drivers/lvgl/src/extra/themes/mono/../../../../src/hal/../draw/../misc/lv_color.h **** }
 700:Drivers/lvgl/src/extra/themes/mono/../../../../src/hal/../draw/../misc/lv_color.h **** static inline lv_color_t lv_color_black(void)
ARM GAS  /var/folders/0z/tsy30v1j4xl4_7kw94k978ww0000gn/T//ccM2UjO5.s 			page 71


 701:Drivers/lvgl/src/extra/themes/mono/../../../../src/hal/../draw/../misc/lv_color.h **** {
 702:Drivers/lvgl/src/extra/themes/mono/../../../../src/hal/../draw/../misc/lv_color.h ****     return lv_color_make(0x00, 0x0, 0x00);
 1880              		.loc 2 702 12 is_stmt 0 view .LVU416
 1881 0242 0023     		movs	r3, #0
 1882              	.LBE223:
 1883              	.LBE222:
 118:Drivers/lvgl/src/extra/themes/mono/lv_theme_mono.c **** 
 1884              		.loc 1 118 5 view .LVU417
 1885 0244 2830     		adds	r0, r0, #40
 1886              	.LBB225:
 1887              	.LBI222:
 700:Drivers/lvgl/src/extra/themes/mono/../../../../src/hal/../draw/../misc/lv_color.h **** {
 1888              		.loc 2 700 26 is_stmt 1 view .LVU418
 1889              	.LBB224:
 1890              		.loc 2 702 5 view .LVU419
 1891              		.loc 2 702 12 is_stmt 0 view .LVU420
 1892 0246 1A46     		mov	r2, r3
 1893              	.L96:
 1894 0248 4FF00001 		mov	r1, #0	@ movhi
 1895 024c 62F30201 		bfi	r1, r2, #0, #3
 1896 0250 63F3C701 		bfi	r1, r3, #3, #5
 1897 0254 63F30C21 		bfi	r1, r3, #8, #5
 1898 0258 62F34F31 		bfi	r1, r2, #13, #3
 1899              	.LBE224:
 1900              	.LBE225:
 118:Drivers/lvgl/src/extra/themes/mono/lv_theme_mono.c **** 
 1901              		.loc 1 118 5 view .LVU421
 1902 025c FFF7FEFF 		bl	lv_style_set_outline_color
 1903              	.LVL188:
 120:Drivers/lvgl/src/extra/themes/mono/lv_theme_mono.c ****     lv_style_set_border_width(&styles->disabled, BORDER_W_DIS);
 1904              		.loc 1 120 5 is_stmt 1 view .LVU422
 1905 0260 2068     		ldr	r0, [r4]
 1906              	.LBB226:
 1907              	.LBB227:
 496:Drivers/lvgl/src/extra/themes/mono/lv_theme_mono.c ****         lv_style_reset(style);
 1908              		.loc 1 496 7 is_stmt 0 view .LVU423
 1909 0262 2B78     		ldrb	r3, [r5]	@ zero_extendqisi2
 1910              	.LBE227:
 1911              	.LBE226:
 120:Drivers/lvgl/src/extra/themes/mono/lv_theme_mono.c ****     lv_style_set_border_width(&styles->disabled, BORDER_W_DIS);
 1912              		.loc 1 120 5 view .LVU424
 1913 0264 3030     		adds	r0, r0, #48
 1914              	.LVL189:
 1915              	.LBB230:
 1916              	.LBI226:
 494:Drivers/lvgl/src/extra/themes/mono/lv_theme_mono.c **** {
 1917              		.loc 1 494 13 is_stmt 1 view .LVU425
 1918              	.LBB228:
 496:Drivers/lvgl/src/extra/themes/mono/lv_theme_mono.c ****         lv_style_reset(style);
 1919              		.loc 1 496 5 view .LVU426
 496:Drivers/lvgl/src/extra/themes/mono/lv_theme_mono.c ****         lv_style_reset(style);
 1920              		.loc 1 496 7 is_stmt 0 view .LVU427
 1921 0266 002B     		cmp	r3, #0
 1922 0268 00F0FE80 		beq	.L97
 1923              		.loc 1 497 9 is_stmt 1 view .LVU428
 1924 026c FFF7FEFF 		bl	lv_style_reset
 1925              	.LVL190:
ARM GAS  /var/folders/0z/tsy30v1j4xl4_7kw94k978ww0000gn/T//ccM2UjO5.s 			page 72


 1926              	.L98:
 1927              		.loc 1 497 9 is_stmt 0 view .LVU429
 1928              	.LBE228:
 1929              	.LBE230:
 121:Drivers/lvgl/src/extra/themes/mono/lv_theme_mono.c **** 
 1930              		.loc 1 121 5 is_stmt 1 view .LVU430
 1931 0270 2068     		ldr	r0, [r4]
 1932 0272 0021     		movs	r1, #0
 1933 0274 3030     		adds	r0, r0, #48
 1934 0276 FFF7FEFF 		bl	lv_style_set_border_width
 1935              	.LVL191:
 123:Drivers/lvgl/src/extra/themes/mono/lv_theme_mono.c ****     lv_style_set_outline_width(&styles->focus, 1);
 1936              		.loc 1 123 5 view .LVU431
 1937 027a 2068     		ldr	r0, [r4]
 1938              	.LBB231:
 1939              	.LBB232:
 496:Drivers/lvgl/src/extra/themes/mono/lv_theme_mono.c ****         lv_style_reset(style);
 1940              		.loc 1 496 7 is_stmt 0 view .LVU432
 1941 027c 2B78     		ldrb	r3, [r5]	@ zero_extendqisi2
 1942              	.LBE232:
 1943              	.LBE231:
 123:Drivers/lvgl/src/extra/themes/mono/lv_theme_mono.c ****     lv_style_set_outline_width(&styles->focus, 1);
 1944              		.loc 1 123 5 view .LVU433
 1945 027e 3830     		adds	r0, r0, #56
 1946              	.LVL192:
 1947              	.LBB235:
 1948              	.LBI231:
 494:Drivers/lvgl/src/extra/themes/mono/lv_theme_mono.c **** {
 1949              		.loc 1 494 13 is_stmt 1 view .LVU434
 1950              	.LBB233:
 496:Drivers/lvgl/src/extra/themes/mono/lv_theme_mono.c ****         lv_style_reset(style);
 1951              		.loc 1 496 5 view .LVU435
 496:Drivers/lvgl/src/extra/themes/mono/lv_theme_mono.c ****         lv_style_reset(style);
 1952              		.loc 1 496 7 is_stmt 0 view .LVU436
 1953 0280 002B     		cmp	r3, #0
 1954 0282 00F0EE80 		beq	.L99
 1955              		.loc 1 497 9 is_stmt 1 view .LVU437
 1956 0286 FFF7FEFF 		bl	lv_style_reset
 1957              	.LVL193:
 1958              	.L100:
 1959              		.loc 1 497 9 is_stmt 0 view .LVU438
 1960              	.LBE233:
 1961              	.LBE235:
 124:Drivers/lvgl/src/extra/themes/mono/lv_theme_mono.c ****     lv_style_set_outline_pad(&styles->focus, BORDER_W_FOCUS);
 1962              		.loc 1 124 5 is_stmt 1 view .LVU439
 1963 028a 2068     		ldr	r0, [r4]
 1964 028c 0121     		movs	r1, #1
 1965 028e 3830     		adds	r0, r0, #56
 1966 0290 FFF7FEFF 		bl	lv_style_set_outline_width
 1967              	.LVL194:
 125:Drivers/lvgl/src/extra/themes/mono/lv_theme_mono.c **** 
 1968              		.loc 1 125 5 view .LVU440
 1969 0294 2068     		ldr	r0, [r4]
 1970 0296 0121     		movs	r1, #1
 1971 0298 3830     		adds	r0, r0, #56
 1972 029a FFF7FEFF 		bl	lv_style_set_outline_pad
 1973              	.LVL195:
ARM GAS  /var/folders/0z/tsy30v1j4xl4_7kw94k978ww0000gn/T//ccM2UjO5.s 			page 73


 127:Drivers/lvgl/src/extra/themes/mono/lv_theme_mono.c ****     lv_style_set_outline_width(&styles->edit, BORDER_W_EDIT);
 1974              		.loc 1 127 5 view .LVU441
 1975 029e 2068     		ldr	r0, [r4]
 1976              	.LBB236:
 1977              	.LBB237:
 496:Drivers/lvgl/src/extra/themes/mono/lv_theme_mono.c ****         lv_style_reset(style);
 1978              		.loc 1 496 7 is_stmt 0 view .LVU442
 1979 02a0 2B78     		ldrb	r3, [r5]	@ zero_extendqisi2
 1980              	.LBE237:
 1981              	.LBE236:
 127:Drivers/lvgl/src/extra/themes/mono/lv_theme_mono.c ****     lv_style_set_outline_width(&styles->edit, BORDER_W_EDIT);
 1982              		.loc 1 127 5 view .LVU443
 1983 02a2 4030     		adds	r0, r0, #64
 1984              	.LVL196:
 1985              	.LBB240:
 1986              	.LBI236:
 494:Drivers/lvgl/src/extra/themes/mono/lv_theme_mono.c **** {
 1987              		.loc 1 494 13 is_stmt 1 view .LVU444
 1988              	.LBB238:
 496:Drivers/lvgl/src/extra/themes/mono/lv_theme_mono.c ****         lv_style_reset(style);
 1989              		.loc 1 496 5 view .LVU445
 496:Drivers/lvgl/src/extra/themes/mono/lv_theme_mono.c ****         lv_style_reset(style);
 1990              		.loc 1 496 7 is_stmt 0 view .LVU446
 1991 02a4 002B     		cmp	r3, #0
 1992 02a6 00F0D980 		beq	.L101
 1993              		.loc 1 497 9 is_stmt 1 view .LVU447
 1994 02aa FFF7FEFF 		bl	lv_style_reset
 1995              	.LVL197:
 1996              	.L102:
 1997              		.loc 1 497 9 is_stmt 0 view .LVU448
 1998              	.LBE238:
 1999              	.LBE240:
 128:Drivers/lvgl/src/extra/themes/mono/lv_theme_mono.c **** 
 2000              		.loc 1 128 5 is_stmt 1 view .LVU449
 2001 02ae 2068     		ldr	r0, [r4]
 2002 02b0 0221     		movs	r1, #2
 2003 02b2 4030     		adds	r0, r0, #64
 2004 02b4 FFF7FEFF 		bl	lv_style_set_outline_width
 2005              	.LVL198:
 130:Drivers/lvgl/src/extra/themes/mono/lv_theme_mono.c ****     lv_style_set_border_width(&styles->large_border, BORDER_W_EDIT);
 2006              		.loc 1 130 5 view .LVU450
 2007 02b8 2068     		ldr	r0, [r4]
 2008              	.LBB241:
 2009              	.LBB242:
 496:Drivers/lvgl/src/extra/themes/mono/lv_theme_mono.c ****         lv_style_reset(style);
 2010              		.loc 1 496 7 is_stmt 0 view .LVU451
 2011 02ba 2B78     		ldrb	r3, [r5]	@ zero_extendqisi2
 2012              	.LBE242:
 2013              	.LBE241:
 130:Drivers/lvgl/src/extra/themes/mono/lv_theme_mono.c ****     lv_style_set_border_width(&styles->large_border, BORDER_W_EDIT);
 2014              		.loc 1 130 5 view .LVU452
 2015 02bc 6830     		adds	r0, r0, #104
 2016              	.LVL199:
 2017              	.LBB245:
 2018              	.LBI241:
 494:Drivers/lvgl/src/extra/themes/mono/lv_theme_mono.c **** {
 2019              		.loc 1 494 13 is_stmt 1 view .LVU453
ARM GAS  /var/folders/0z/tsy30v1j4xl4_7kw94k978ww0000gn/T//ccM2UjO5.s 			page 74


 2020              	.LBB243:
 496:Drivers/lvgl/src/extra/themes/mono/lv_theme_mono.c ****         lv_style_reset(style);
 2021              		.loc 1 496 5 view .LVU454
 496:Drivers/lvgl/src/extra/themes/mono/lv_theme_mono.c ****         lv_style_reset(style);
 2022              		.loc 1 496 7 is_stmt 0 view .LVU455
 2023 02be 002B     		cmp	r3, #0
 2024 02c0 00F0C980 		beq	.L103
 2025              		.loc 1 497 9 is_stmt 1 view .LVU456
 2026 02c4 FFF7FEFF 		bl	lv_style_reset
 2027              	.LVL200:
 2028              	.L104:
 2029              		.loc 1 497 9 is_stmt 0 view .LVU457
 2030              	.LBE243:
 2031              	.LBE245:
 131:Drivers/lvgl/src/extra/themes/mono/lv_theme_mono.c **** 
 2032              		.loc 1 131 5 is_stmt 1 view .LVU458
 2033 02c8 2068     		ldr	r0, [r4]
 2034 02ca 0221     		movs	r1, #2
 2035 02cc 6830     		adds	r0, r0, #104
 2036 02ce FFF7FEFF 		bl	lv_style_set_border_width
 2037              	.LVL201:
 133:Drivers/lvgl/src/extra/themes/mono/lv_theme_mono.c ****     lv_style_set_pad_gap(&styles->pad_gap, PAD_DEF);
 2038              		.loc 1 133 5 view .LVU459
 2039 02d2 2068     		ldr	r0, [r4]
 2040              	.LBB246:
 2041              	.LBB247:
 496:Drivers/lvgl/src/extra/themes/mono/lv_theme_mono.c ****         lv_style_reset(style);
 2042              		.loc 1 496 7 is_stmt 0 view .LVU460
 2043 02d4 2B78     		ldrb	r3, [r5]	@ zero_extendqisi2
 2044              	.LBE247:
 2045              	.LBE246:
 133:Drivers/lvgl/src/extra/themes/mono/lv_theme_mono.c ****     lv_style_set_pad_gap(&styles->pad_gap, PAD_DEF);
 2046              		.loc 1 133 5 view .LVU461
 2047 02d6 4830     		adds	r0, r0, #72
 2048              	.LVL202:
 2049              	.LBB250:
 2050              	.LBI246:
 494:Drivers/lvgl/src/extra/themes/mono/lv_theme_mono.c **** {
 2051              		.loc 1 494 13 is_stmt 1 view .LVU462
 2052              	.LBB248:
 496:Drivers/lvgl/src/extra/themes/mono/lv_theme_mono.c ****         lv_style_reset(style);
 2053              		.loc 1 496 5 view .LVU463
 496:Drivers/lvgl/src/extra/themes/mono/lv_theme_mono.c ****         lv_style_reset(style);
 2054              		.loc 1 496 7 is_stmt 0 view .LVU464
 2055 02d8 002B     		cmp	r3, #0
 2056 02da 00F0B980 		beq	.L105
 2057              		.loc 1 497 9 is_stmt 1 view .LVU465
 2058 02de FFF7FEFF 		bl	lv_style_reset
 2059              	.LVL203:
 2060              	.L106:
 2061              		.loc 1 497 9 is_stmt 0 view .LVU466
 2062              	.LBE248:
 2063              	.LBE250:
 134:Drivers/lvgl/src/extra/themes/mono/lv_theme_mono.c **** 
 2064              		.loc 1 134 5 is_stmt 1 view .LVU467
 2065 02e2 2068     		ldr	r0, [r4]
 2066              	.LBB251:
ARM GAS  /var/folders/0z/tsy30v1j4xl4_7kw94k978ww0000gn/T//ccM2UjO5.s 			page 75


 2067              	.LBB252:
 552:Drivers/lvgl/src/extra/themes/mono/../../../../src/hal/../draw/../misc/lv_style.h ****     lv_style_set_pad_column(style, value);
 2068              		.loc 3 552 5 is_stmt 0 view .LVU468
 2069 02e4 0421     		movs	r1, #4
 2070              	.LBE252:
 2071              	.LBE251:
 134:Drivers/lvgl/src/extra/themes/mono/lv_theme_mono.c **** 
 2072              		.loc 1 134 5 view .LVU469
 2073 02e6 4830     		adds	r0, r0, #72
 2074              	.LVL204:
 2075              	.LBB254:
 2076              	.LBI251:
 550:Drivers/lvgl/src/extra/themes/mono/../../../../src/hal/../draw/../misc/lv_style.h **** {
 2077              		.loc 3 550 20 is_stmt 1 view .LVU470
 2078              	.LBB253:
 552:Drivers/lvgl/src/extra/themes/mono/../../../../src/hal/../draw/../misc/lv_style.h ****     lv_style_set_pad_column(style, value);
 2079              		.loc 3 552 5 view .LVU471
 2080 02e8 0190     		str	r0, [sp, #4]
 2081 02ea FFF7FEFF 		bl	lv_style_set_pad_row
 2082              	.LVL205:
 2083              		.loc 3 553 5 view .LVU472
 2084 02ee 0198     		ldr	r0, [sp, #4]
 2085 02f0 0421     		movs	r1, #4
 2086 02f2 FFF7FEFF 		bl	lv_style_set_pad_column
 2087              	.LVL206:
 2088              		.loc 3 553 5 is_stmt 0 view .LVU473
 2089              	.LBE253:
 2090              	.LBE254:
 136:Drivers/lvgl/src/extra/themes/mono/lv_theme_mono.c ****     lv_style_set_pad_all(&styles->pad_zero, 0);
 2091              		.loc 1 136 5 is_stmt 1 view .LVU474
 2092 02f6 2068     		ldr	r0, [r4]
 2093              	.LBB255:
 2094              	.LBB256:
 496:Drivers/lvgl/src/extra/themes/mono/lv_theme_mono.c ****         lv_style_reset(style);
 2095              		.loc 1 496 7 is_stmt 0 view .LVU475
 2096 02f8 2B78     		ldrb	r3, [r5]	@ zero_extendqisi2
 2097              	.LBE256:
 2098              	.LBE255:
 136:Drivers/lvgl/src/extra/themes/mono/lv_theme_mono.c ****     lv_style_set_pad_all(&styles->pad_zero, 0);
 2099              		.loc 1 136 5 view .LVU476
 2100 02fa 5030     		adds	r0, r0, #80
 2101              	.LVL207:
 2102              	.LBB259:
 2103              	.LBI255:
 494:Drivers/lvgl/src/extra/themes/mono/lv_theme_mono.c **** {
 2104              		.loc 1 494 13 is_stmt 1 view .LVU477
 2105              	.LBB257:
 496:Drivers/lvgl/src/extra/themes/mono/lv_theme_mono.c ****         lv_style_reset(style);
 2106              		.loc 1 496 5 view .LVU478
 496:Drivers/lvgl/src/extra/themes/mono/lv_theme_mono.c ****         lv_style_reset(style);
 2107              		.loc 1 496 7 is_stmt 0 view .LVU479
 2108 02fc 002B     		cmp	r3, #0
 2109 02fe 00F0A480 		beq	.L107
 2110              		.loc 1 497 9 is_stmt 1 view .LVU480
 2111 0302 FFF7FEFF 		bl	lv_style_reset
 2112              	.LVL208:
 2113 0306 09E0     		b	.L125
ARM GAS  /var/folders/0z/tsy30v1j4xl4_7kw94k978ww0000gn/T//ccM2UjO5.s 			page 76


 2114              	.L126:
 2115              		.align	2
 2116              	.L124:
 2117 0308 00000000 		.word	.LANCHOR1
 2118 030c 00000000 		.word	.LANCHOR0
 2119 0310 00000000 		.word	lv_font_montserrat_14
 2120 0314 00000000 		.word	theme_apply
 2121 0318 00000000 		.word	.LANCHOR2
 2122              	.L125:
 2123              	.LVL209:
 2124              	.L108:
 2125              		.loc 1 497 9 is_stmt 0 view .LVU481
 2126              	.LBE257:
 2127              	.LBE259:
 137:Drivers/lvgl/src/extra/themes/mono/lv_theme_mono.c ****     lv_style_set_pad_gap(&styles->pad_zero, 0);
 2128              		.loc 1 137 5 is_stmt 1 view .LVU482
 2129 031c 2068     		ldr	r0, [r4]
 2130              	.LBB260:
 2131              	.LBB261:
 532:Drivers/lvgl/src/extra/themes/mono/../../../../src/hal/../draw/../misc/lv_style.h ****     lv_style_set_pad_right(style, value);
 2132              		.loc 3 532 5 is_stmt 0 view .LVU483
 2133 031e 0021     		movs	r1, #0
 2134              	.LBE261:
 2135              	.LBE260:
 137:Drivers/lvgl/src/extra/themes/mono/lv_theme_mono.c ****     lv_style_set_pad_gap(&styles->pad_zero, 0);
 2136              		.loc 1 137 5 view .LVU484
 2137 0320 5030     		adds	r0, r0, #80
 2138              	.LVL210:
 2139              	.LBB263:
 2140              	.LBI260:
 530:Drivers/lvgl/src/extra/themes/mono/../../../../src/hal/../draw/../misc/lv_style.h **** {
 2141              		.loc 3 530 20 is_stmt 1 view .LVU485
 2142              	.LBB262:
 532:Drivers/lvgl/src/extra/themes/mono/../../../../src/hal/../draw/../misc/lv_style.h ****     lv_style_set_pad_right(style, value);
 2143              		.loc 3 532 5 view .LVU486
 2144 0322 0190     		str	r0, [sp, #4]
 2145 0324 FFF7FEFF 		bl	lv_style_set_pad_left
 2146              	.LVL211:
 533:Drivers/lvgl/src/extra/themes/mono/../../../../src/hal/../draw/../misc/lv_style.h ****     lv_style_set_pad_top(style, value);
 2147              		.loc 3 533 5 view .LVU487
 2148 0328 0198     		ldr	r0, [sp, #4]
 2149 032a 0021     		movs	r1, #0
 2150 032c FFF7FEFF 		bl	lv_style_set_pad_right
 2151              	.LVL212:
 534:Drivers/lvgl/src/extra/themes/mono/../../../../src/hal/../draw/../misc/lv_style.h ****     lv_style_set_pad_bottom(style, value);
 2152              		.loc 3 534 5 view .LVU488
 2153 0330 0198     		ldr	r0, [sp, #4]
 2154 0332 0021     		movs	r1, #0
 2155 0334 FFF7FEFF 		bl	lv_style_set_pad_top
 2156              	.LVL213:
 535:Drivers/lvgl/src/extra/themes/mono/../../../../src/hal/../draw/../misc/lv_style.h **** }
 2157              		.loc 3 535 5 view .LVU489
 2158 0338 0198     		ldr	r0, [sp, #4]
 2159 033a 0021     		movs	r1, #0
 2160 033c FFF7FEFF 		bl	lv_style_set_pad_bottom
 2161              	.LVL214:
 535:Drivers/lvgl/src/extra/themes/mono/../../../../src/hal/../draw/../misc/lv_style.h **** }
ARM GAS  /var/folders/0z/tsy30v1j4xl4_7kw94k978ww0000gn/T//ccM2UjO5.s 			page 77


 2162              		.loc 3 535 5 is_stmt 0 view .LVU490
 2163              	.LBE262:
 2164              	.LBE263:
 138:Drivers/lvgl/src/extra/themes/mono/lv_theme_mono.c **** 
 2165              		.loc 1 138 5 is_stmt 1 view .LVU491
 2166 0340 2068     		ldr	r0, [r4]
 2167              	.LBB264:
 2168              	.LBB265:
 552:Drivers/lvgl/src/extra/themes/mono/../../../../src/hal/../draw/../misc/lv_style.h ****     lv_style_set_pad_column(style, value);
 2169              		.loc 3 552 5 is_stmt 0 view .LVU492
 2170 0342 0021     		movs	r1, #0
 2171              	.LBE265:
 2172              	.LBE264:
 138:Drivers/lvgl/src/extra/themes/mono/lv_theme_mono.c **** 
 2173              		.loc 1 138 5 view .LVU493
 2174 0344 5030     		adds	r0, r0, #80
 2175              	.LVL215:
 2176              	.LBB267:
 2177              	.LBI264:
 550:Drivers/lvgl/src/extra/themes/mono/../../../../src/hal/../draw/../misc/lv_style.h **** {
 2178              		.loc 3 550 20 is_stmt 1 view .LVU494
 2179              	.LBB266:
 552:Drivers/lvgl/src/extra/themes/mono/../../../../src/hal/../draw/../misc/lv_style.h ****     lv_style_set_pad_column(style, value);
 2180              		.loc 3 552 5 view .LVU495
 2181 0346 0190     		str	r0, [sp, #4]
 2182 0348 FFF7FEFF 		bl	lv_style_set_pad_row
 2183              	.LVL216:
 2184              		.loc 3 553 5 view .LVU496
 2185 034c 0198     		ldr	r0, [sp, #4]
 2186 034e 0021     		movs	r1, #0
 2187 0350 FFF7FEFF 		bl	lv_style_set_pad_column
 2188              	.LVL217:
 2189              		.loc 3 553 5 is_stmt 0 view .LVU497
 2190              	.LBE266:
 2191              	.LBE267:
 140:Drivers/lvgl/src/extra/themes/mono/lv_theme_mono.c ****     lv_style_set_radius(&styles->no_radius, 0);
 2192              		.loc 1 140 5 is_stmt 1 view .LVU498
 2193 0354 2068     		ldr	r0, [r4]
 2194              	.LBB268:
 2195              	.LBB269:
 496:Drivers/lvgl/src/extra/themes/mono/lv_theme_mono.c ****         lv_style_reset(style);
 2196              		.loc 1 496 7 is_stmt 0 view .LVU499
 2197 0356 2B78     		ldrb	r3, [r5]	@ zero_extendqisi2
 2198              	.LBE269:
 2199              	.LBE268:
 140:Drivers/lvgl/src/extra/themes/mono/lv_theme_mono.c ****     lv_style_set_radius(&styles->no_radius, 0);
 2200              		.loc 1 140 5 view .LVU500
 2201 0358 5830     		adds	r0, r0, #88
 2202              	.LVL218:
 2203              	.LBB272:
 2204              	.LBI268:
 494:Drivers/lvgl/src/extra/themes/mono/lv_theme_mono.c **** {
 2205              		.loc 1 494 13 is_stmt 1 view .LVU501
 2206              	.LBB270:
 496:Drivers/lvgl/src/extra/themes/mono/lv_theme_mono.c ****         lv_style_reset(style);
 2207              		.loc 1 496 5 view .LVU502
 496:Drivers/lvgl/src/extra/themes/mono/lv_theme_mono.c ****         lv_style_reset(style);
ARM GAS  /var/folders/0z/tsy30v1j4xl4_7kw94k978ww0000gn/T//ccM2UjO5.s 			page 78


 2208              		.loc 1 496 7 is_stmt 0 view .LVU503
 2209 035a 002B     		cmp	r3, #0
 2210 035c 72D0     		beq	.L109
 2211              		.loc 1 497 9 is_stmt 1 view .LVU504
 2212 035e FFF7FEFF 		bl	lv_style_reset
 2213              	.LVL219:
 2214              	.L110:
 2215              		.loc 1 497 9 is_stmt 0 view .LVU505
 2216              	.LBE270:
 2217              	.LBE272:
 141:Drivers/lvgl/src/extra/themes/mono/lv_theme_mono.c **** 
 2218              		.loc 1 141 5 is_stmt 1 view .LVU506
 2219 0362 2068     		ldr	r0, [r4]
 2220 0364 0021     		movs	r1, #0
 2221 0366 5830     		adds	r0, r0, #88
 2222 0368 FFF7FEFF 		bl	lv_style_set_radius
 2223              	.LVL220:
 143:Drivers/lvgl/src/extra/themes/mono/lv_theme_mono.c ****     lv_style_set_radius(&styles->radius_circle, LV_RADIUS_CIRCLE);
 2224              		.loc 1 143 5 view .LVU507
 2225 036c 2068     		ldr	r0, [r4]
 2226              	.LBB273:
 2227              	.LBB274:
 496:Drivers/lvgl/src/extra/themes/mono/lv_theme_mono.c ****         lv_style_reset(style);
 2228              		.loc 1 496 7 is_stmt 0 view .LVU508
 2229 036e 2B78     		ldrb	r3, [r5]	@ zero_extendqisi2
 2230              	.LBE274:
 2231              	.LBE273:
 143:Drivers/lvgl/src/extra/themes/mono/lv_theme_mono.c ****     lv_style_set_radius(&styles->radius_circle, LV_RADIUS_CIRCLE);
 2232              		.loc 1 143 5 view .LVU509
 2233 0370 6030     		adds	r0, r0, #96
 2234              	.LVL221:
 2235              	.LBB277:
 2236              	.LBI273:
 494:Drivers/lvgl/src/extra/themes/mono/lv_theme_mono.c **** {
 2237              		.loc 1 494 13 is_stmt 1 view .LVU510
 2238              	.LBB275:
 496:Drivers/lvgl/src/extra/themes/mono/lv_theme_mono.c ****         lv_style_reset(style);
 2239              		.loc 1 496 5 view .LVU511
 496:Drivers/lvgl/src/extra/themes/mono/lv_theme_mono.c ****         lv_style_reset(style);
 2240              		.loc 1 496 7 is_stmt 0 view .LVU512
 2241 0372 002B     		cmp	r3, #0
 2242 0374 63D0     		beq	.L111
 2243              		.loc 1 497 9 is_stmt 1 view .LVU513
 2244 0376 FFF7FEFF 		bl	lv_style_reset
 2245              	.LVL222:
 2246              	.L112:
 2247              		.loc 1 497 9 is_stmt 0 view .LVU514
 2248              	.LBE275:
 2249              	.LBE277:
 144:Drivers/lvgl/src/extra/themes/mono/lv_theme_mono.c **** 
 2250              		.loc 1 144 5 is_stmt 1 view .LVU515
 2251 037a 2068     		ldr	r0, [r4]
 2252 037c 47F6FF71 		movw	r1, #32767
 2253 0380 6030     		adds	r0, r0, #96
 2254 0382 FFF7FEFF 		bl	lv_style_set_radius
 2255              	.LVL223:
 146:Drivers/lvgl/src/extra/themes/mono/lv_theme_mono.c ****     lv_style_set_text_line_space(&styles->large_line_space, 6);
ARM GAS  /var/folders/0z/tsy30v1j4xl4_7kw94k978ww0000gn/T//ccM2UjO5.s 			page 79


 2256              		.loc 1 146 5 view .LVU516
 2257 0386 2068     		ldr	r0, [r4]
 2258              	.LBB278:
 2259              	.LBB279:
 496:Drivers/lvgl/src/extra/themes/mono/lv_theme_mono.c ****         lv_style_reset(style);
 2260              		.loc 1 496 7 is_stmt 0 view .LVU517
 2261 0388 2B78     		ldrb	r3, [r5]	@ zero_extendqisi2
 2262              	.LBE279:
 2263              	.LBE278:
 146:Drivers/lvgl/src/extra/themes/mono/lv_theme_mono.c ****     lv_style_set_text_line_space(&styles->large_line_space, 6);
 2264              		.loc 1 146 5 view .LVU518
 2265 038a 7030     		adds	r0, r0, #112
 2266              	.LVL224:
 2267              	.LBB282:
 2268              	.LBI278:
 494:Drivers/lvgl/src/extra/themes/mono/lv_theme_mono.c **** {
 2269              		.loc 1 494 13 is_stmt 1 view .LVU519
 2270              	.LBB280:
 496:Drivers/lvgl/src/extra/themes/mono/lv_theme_mono.c ****         lv_style_reset(style);
 2271              		.loc 1 496 5 view .LVU520
 496:Drivers/lvgl/src/extra/themes/mono/lv_theme_mono.c ****         lv_style_reset(style);
 2272              		.loc 1 496 7 is_stmt 0 view .LVU521
 2273 038c 002B     		cmp	r3, #0
 2274 038e 53D0     		beq	.L113
 2275              		.loc 1 497 9 is_stmt 1 view .LVU522
 2276 0390 FFF7FEFF 		bl	lv_style_reset
 2277              	.LVL225:
 2278              	.L114:
 2279              		.loc 1 497 9 is_stmt 0 view .LVU523
 2280              	.LBE280:
 2281              	.LBE282:
 147:Drivers/lvgl/src/extra/themes/mono/lv_theme_mono.c **** 
 2282              		.loc 1 147 5 is_stmt 1 view .LVU524
 2283 0394 2068     		ldr	r0, [r4]
 2284 0396 0621     		movs	r1, #6
 2285 0398 7030     		adds	r0, r0, #112
 2286 039a FFF7FEFF 		bl	lv_style_set_text_line_space
 2287              	.LVL226:
 149:Drivers/lvgl/src/extra/themes/mono/lv_theme_mono.c ****     lv_style_set_text_decor(&styles->underline, LV_TEXT_DECOR_UNDERLINE);
 2288              		.loc 1 149 5 view .LVU525
 2289 039e 2068     		ldr	r0, [r4]
 2290              	.LBB283:
 2291              	.LBB284:
 496:Drivers/lvgl/src/extra/themes/mono/lv_theme_mono.c ****         lv_style_reset(style);
 2292              		.loc 1 496 7 is_stmt 0 view .LVU526
 2293 03a0 2B78     		ldrb	r3, [r5]	@ zero_extendqisi2
 2294              	.LBE284:
 2295              	.LBE283:
 149:Drivers/lvgl/src/extra/themes/mono/lv_theme_mono.c ****     lv_style_set_text_decor(&styles->underline, LV_TEXT_DECOR_UNDERLINE);
 2296              		.loc 1 149 5 view .LVU527
 2297 03a2 7830     		adds	r0, r0, #120
 2298              	.LVL227:
 2299              	.LBB287:
 2300              	.LBI283:
 494:Drivers/lvgl/src/extra/themes/mono/lv_theme_mono.c **** {
 2301              		.loc 1 494 13 is_stmt 1 view .LVU528
 2302              	.LBB285:
ARM GAS  /var/folders/0z/tsy30v1j4xl4_7kw94k978ww0000gn/T//ccM2UjO5.s 			page 80


 496:Drivers/lvgl/src/extra/themes/mono/lv_theme_mono.c ****         lv_style_reset(style);
 2303              		.loc 1 496 5 view .LVU529
 496:Drivers/lvgl/src/extra/themes/mono/lv_theme_mono.c ****         lv_style_reset(style);
 2304              		.loc 1 496 7 is_stmt 0 view .LVU530
 2305 03a4 002B     		cmp	r3, #0
 2306 03a6 44D0     		beq	.L115
 2307              		.loc 1 497 9 is_stmt 1 view .LVU531
 2308 03a8 FFF7FEFF 		bl	lv_style_reset
 2309              	.LVL228:
 2310              	.L116:
 2311              		.loc 1 497 9 is_stmt 0 view .LVU532
 2312              	.LBE285:
 2313              	.LBE287:
 150:Drivers/lvgl/src/extra/themes/mono/lv_theme_mono.c **** 
 2314              		.loc 1 150 5 is_stmt 1 view .LVU533
 2315 03ac 2068     		ldr	r0, [r4]
 2316 03ae 0121     		movs	r1, #1
 2317 03b0 7830     		adds	r0, r0, #120
 2318 03b2 FFF7FEFF 		bl	lv_style_set_text_decor
 2319              	.LVL229:
 153:Drivers/lvgl/src/extra/themes/mono/lv_theme_mono.c ****     lv_style_set_border_side(&styles->ta_cursor, LV_BORDER_SIDE_LEFT);
 2320              		.loc 1 153 5 view .LVU534
 2321 03b6 2068     		ldr	r0, [r4]
 2322              	.LBB288:
 2323              	.LBB289:
 496:Drivers/lvgl/src/extra/themes/mono/lv_theme_mono.c ****         lv_style_reset(style);
 2324              		.loc 1 496 7 is_stmt 0 view .LVU535
 2325 03b8 2B78     		ldrb	r3, [r5]	@ zero_extendqisi2
 2326              	.LBE289:
 2327              	.LBE288:
 153:Drivers/lvgl/src/extra/themes/mono/lv_theme_mono.c ****     lv_style_set_border_side(&styles->ta_cursor, LV_BORDER_SIDE_LEFT);
 2328              		.loc 1 153 5 view .LVU536
 2329 03ba 8030     		adds	r0, r0, #128
 2330              	.LVL230:
 2331              	.LBB292:
 2332              	.LBI288:
 494:Drivers/lvgl/src/extra/themes/mono/lv_theme_mono.c **** {
 2333              		.loc 1 494 13 is_stmt 1 view .LVU537
 2334              	.LBB290:
 496:Drivers/lvgl/src/extra/themes/mono/lv_theme_mono.c ****         lv_style_reset(style);
 2335              		.loc 1 496 5 view .LVU538
 496:Drivers/lvgl/src/extra/themes/mono/lv_theme_mono.c ****         lv_style_reset(style);
 2336              		.loc 1 496 7 is_stmt 0 view .LVU539
 2337 03bc B3B3     		cbz	r3, .L117
 2338              		.loc 1 497 9 is_stmt 1 view .LVU540
 2339 03be FFF7FEFF 		bl	lv_style_reset
 2340              	.LVL231:
 2341              	.L118:
 2342              		.loc 1 497 9 is_stmt 0 view .LVU541
 2343              	.LBE290:
 2344              	.LBE292:
 154:Drivers/lvgl/src/extra/themes/mono/lv_theme_mono.c ****     lv_style_set_border_color(&styles->ta_cursor, COLOR_FG);
 2345              		.loc 1 154 5 is_stmt 1 view .LVU542
 2346 03c2 2068     		ldr	r0, [r4]
 2347 03c4 0421     		movs	r1, #4
 2348 03c6 8030     		adds	r0, r0, #128
 2349 03c8 FFF7FEFF 		bl	lv_style_set_border_side
ARM GAS  /var/folders/0z/tsy30v1j4xl4_7kw94k978ww0000gn/T//ccM2UjO5.s 			page 81


 2350              	.LVL232:
 155:Drivers/lvgl/src/extra/themes/mono/lv_theme_mono.c ****     lv_style_set_border_width(&styles->ta_cursor, 2);
 2351              		.loc 1 155 5 view .LVU543
 2352 03cc 4FF00001 		mov	r1, #0	@ movhi
 2353 03d0 67F30201 		bfi	r1, r7, #0, #3
 2354 03d4 2068     		ldr	r0, [r4]
 2355 03d6 68F3C701 		bfi	r1, r8, #3, #5
 2356 03da 68F30C21 		bfi	r1, r8, #8, #5
 2357 03de 67F34F31 		bfi	r1, r7, #13, #3
 2358 03e2 8030     		adds	r0, r0, #128
 2359 03e4 FFF7FEFF 		bl	lv_style_set_border_color
 2360              	.LVL233:
 156:Drivers/lvgl/src/extra/themes/mono/lv_theme_mono.c ****     lv_style_set_bg_opa(&styles->ta_cursor, LV_OPA_TRANSP);
 2361              		.loc 1 156 5 view .LVU544
 2362 03e8 2068     		ldr	r0, [r4]
 2363 03ea 0221     		movs	r1, #2
 2364 03ec 8030     		adds	r0, r0, #128
 2365 03ee FFF7FEFF 		bl	lv_style_set_border_width
 2366              	.LVL234:
 157:Drivers/lvgl/src/extra/themes/mono/lv_theme_mono.c ****     lv_style_set_anim_time(&styles->ta_cursor, 500);
 2367              		.loc 1 157 5 view .LVU545
 2368 03f2 2068     		ldr	r0, [r4]
 2369 03f4 0021     		movs	r1, #0
 2370 03f6 8030     		adds	r0, r0, #128
 2371 03f8 FFF7FEFF 		bl	lv_style_set_bg_opa
 2372              	.LVL235:
 158:Drivers/lvgl/src/extra/themes/mono/lv_theme_mono.c **** #endif
 2373              		.loc 1 158 5 view .LVU546
 2374 03fc 2068     		ldr	r0, [r4]
 2375 03fe 4FF4FA71 		mov	r1, #500
 2376 0402 8030     		adds	r0, r0, #128
 2377 0404 FFF7FEFF 		bl	lv_style_set_anim_time
 2378              	.LVL236:
 158:Drivers/lvgl/src/extra/themes/mono/lv_theme_mono.c **** #endif
 2379              		.loc 1 158 5 is_stmt 0 view .LVU547
 2380              	.LBE321:
 2381              	.LBE327:
 192:Drivers/lvgl/src/extra/themes/mono/lv_theme_mono.c **** 
 2382              		.loc 1 192 5 is_stmt 1 view .LVU548
 192:Drivers/lvgl/src/extra/themes/mono/lv_theme_mono.c **** 
 2383              		.loc 1 192 7 is_stmt 0 view .LVU549
 2384 0408 BAF1000F 		cmp	r10, #0
 2385 040c 0AD0     		beq	.L121
 192:Drivers/lvgl/src/extra/themes/mono/lv_theme_mono.c **** 
 2386              		.loc 1 192 24 discriminator 2 view .LVU550
 2387 040e 5046     		mov	r0, r10
 2388 0410 FFF7FEFF 		bl	lv_disp_get_theme
 2389              	.LVL237:
 192:Drivers/lvgl/src/extra/themes/mono/lv_theme_mono.c **** 
 2390              		.loc 1 192 21 discriminator 2 view .LVU551
 2391 0414 8145     		cmp	r9, r0
 2392 0416 05D0     		beq	.L121
 2393              	.L120:
 194:Drivers/lvgl/src/extra/themes/mono/lv_theme_mono.c **** 
 2394              		.loc 1 194 5 is_stmt 1 view .LVU552
 197:Drivers/lvgl/src/extra/themes/mono/lv_theme_mono.c **** 
 2395              		.loc 1 197 1 is_stmt 0 view .LVU553
ARM GAS  /var/folders/0z/tsy30v1j4xl4_7kw94k978ww0000gn/T//ccM2UjO5.s 			page 82


 2396 0418 4C48     		ldr	r0, .L127
 194:Drivers/lvgl/src/extra/themes/mono/lv_theme_mono.c **** 
 2397              		.loc 1 194 12 view .LVU554
 2398 041a 0123     		movs	r3, #1
 2399 041c 2B70     		strb	r3, [r5]
 196:Drivers/lvgl/src/extra/themes/mono/lv_theme_mono.c **** }
 2400              		.loc 1 196 5 is_stmt 1 view .LVU555
 197:Drivers/lvgl/src/extra/themes/mono/lv_theme_mono.c **** 
 2401              		.loc 1 197 1 is_stmt 0 view .LVU556
 2402 041e 03B0     		add	sp, sp, #12
 2403              		.cfi_remember_state
 2404              		.cfi_def_cfa_offset 36
 2405              		@ sp needed
 2406 0420 BDE8F08F 		pop	{r4, r5, r6, r7, r8, r9, r10, fp, pc}
 2407              	.LVL238:
 2408              	.L121:
 2409              		.cfi_restore_state
 192:Drivers/lvgl/src/extra/themes/mono/lv_theme_mono.c **** 
 2410              		.loc 1 192 59 is_stmt 1 view .LVU557
 2411 0424 0020     		movs	r0, #0
 2412 0426 FFF7FEFF 		bl	lv_obj_report_style_change
 2413              	.LVL239:
 2414 042a F5E7     		b	.L120
 2415              	.LVL240:
 2416              	.L117:
 2417              	.LBB328:
 2418              	.LBB322:
 2419              	.LBB293:
 2420              	.LBB291:
 498:Drivers/lvgl/src/extra/themes/mono/lv_theme_mono.c ****     }
 499:Drivers/lvgl/src/extra/themes/mono/lv_theme_mono.c ****     else {
 500:Drivers/lvgl/src/extra/themes/mono/lv_theme_mono.c ****         lv_style_init(style);
 2421              		.loc 1 500 9 view .LVU558
 2422 042c FFF7FEFF 		bl	lv_style_init
 2423              	.LVL241:
 2424              		.loc 1 500 9 is_stmt 0 view .LVU559
 2425 0430 C7E7     		b	.L118
 2426              	.LVL242:
 2427              	.L115:
 2428              		.loc 1 500 9 view .LVU560
 2429              	.LBE291:
 2430              	.LBE293:
 2431              	.LBB294:
 2432              	.LBB286:
 2433              		.loc 1 500 9 is_stmt 1 view .LVU561
 2434 0432 FFF7FEFF 		bl	lv_style_init
 2435              	.LVL243:
 2436              		.loc 1 500 9 is_stmt 0 view .LVU562
 2437 0436 B9E7     		b	.L116
 2438              	.LVL244:
 2439              	.L113:
 2440              		.loc 1 500 9 view .LVU563
 2441              	.LBE286:
 2442              	.LBE294:
 2443              	.LBB295:
 2444              	.LBB281:
 2445              		.loc 1 500 9 is_stmt 1 view .LVU564
ARM GAS  /var/folders/0z/tsy30v1j4xl4_7kw94k978ww0000gn/T//ccM2UjO5.s 			page 83


 2446 0438 FFF7FEFF 		bl	lv_style_init
 2447              	.LVL245:
 2448              		.loc 1 500 9 is_stmt 0 view .LVU565
 2449 043c AAE7     		b	.L114
 2450              	.LVL246:
 2451              	.L111:
 2452              		.loc 1 500 9 view .LVU566
 2453              	.LBE281:
 2454              	.LBE295:
 2455              	.LBB296:
 2456              	.LBB276:
 2457              		.loc 1 500 9 is_stmt 1 view .LVU567
 2458 043e FFF7FEFF 		bl	lv_style_init
 2459              	.LVL247:
 2460              		.loc 1 500 9 is_stmt 0 view .LVU568
 2461 0442 9AE7     		b	.L112
 2462              	.LVL248:
 2463              	.L109:
 2464              		.loc 1 500 9 view .LVU569
 2465              	.LBE276:
 2466              	.LBE296:
 2467              	.LBB297:
 2468              	.LBB271:
 2469              		.loc 1 500 9 is_stmt 1 view .LVU570
 2470 0444 FFF7FEFF 		bl	lv_style_init
 2471              	.LVL249:
 2472              		.loc 1 500 9 is_stmt 0 view .LVU571
 2473 0448 8BE7     		b	.L110
 2474              	.LVL250:
 2475              	.L107:
 2476              		.loc 1 500 9 view .LVU572
 2477              	.LBE271:
 2478              	.LBE297:
 2479              	.LBB298:
 2480              	.LBB258:
 2481              		.loc 1 500 9 is_stmt 1 view .LVU573
 2482 044a FFF7FEFF 		bl	lv_style_init
 2483              	.LVL251:
 2484              		.loc 1 500 9 is_stmt 0 view .LVU574
 2485 044e 65E7     		b	.L108
 2486              	.LVL252:
 2487              	.L105:
 2488              		.loc 1 500 9 view .LVU575
 2489              	.LBE258:
 2490              	.LBE298:
 2491              	.LBB299:
 2492              	.LBB249:
 2493              		.loc 1 500 9 is_stmt 1 view .LVU576
 2494 0450 FFF7FEFF 		bl	lv_style_init
 2495              	.LVL253:
 2496              		.loc 1 500 9 is_stmt 0 view .LVU577
 2497 0454 45E7     		b	.L106
 2498              	.LVL254:
 2499              	.L103:
 2500              		.loc 1 500 9 view .LVU578
 2501              	.LBE249:
 2502              	.LBE299:
ARM GAS  /var/folders/0z/tsy30v1j4xl4_7kw94k978ww0000gn/T//ccM2UjO5.s 			page 84


 2503              	.LBB300:
 2504              	.LBB244:
 2505              		.loc 1 500 9 is_stmt 1 view .LVU579
 2506 0456 FFF7FEFF 		bl	lv_style_init
 2507              	.LVL255:
 2508              		.loc 1 500 9 is_stmt 0 view .LVU580
 2509 045a 35E7     		b	.L104
 2510              	.LVL256:
 2511              	.L101:
 2512              		.loc 1 500 9 view .LVU581
 2513              	.LBE244:
 2514              	.LBE300:
 2515              	.LBB301:
 2516              	.LBB239:
 2517              		.loc 1 500 9 is_stmt 1 view .LVU582
 2518 045c FFF7FEFF 		bl	lv_style_init
 2519              	.LVL257:
 2520              		.loc 1 500 9 is_stmt 0 view .LVU583
 2521 0460 25E7     		b	.L102
 2522              	.LVL258:
 2523              	.L99:
 2524              		.loc 1 500 9 view .LVU584
 2525              	.LBE239:
 2526              	.LBE301:
 2527              	.LBB302:
 2528              	.LBB234:
 2529              		.loc 1 500 9 is_stmt 1 view .LVU585
 2530 0462 FFF7FEFF 		bl	lv_style_init
 2531              	.LVL259:
 2532              		.loc 1 500 9 is_stmt 0 view .LVU586
 2533 0466 10E7     		b	.L100
 2534              	.LVL260:
 2535              	.L97:
 2536              		.loc 1 500 9 view .LVU587
 2537              	.LBE234:
 2538              	.LBE302:
 2539              	.LBB303:
 2540              	.LBB229:
 2541              		.loc 1 500 9 is_stmt 1 view .LVU588
 2542 0468 FFF7FEFF 		bl	lv_style_init
 2543              	.LVL261:
 2544              		.loc 1 500 9 is_stmt 0 view .LVU589
 2545 046c 00E7     		b	.L98
 2546              	.L95:
 2547              		.loc 1 500 9 view .LVU590
 2548              	.LBE229:
 2549              	.LBE303:
 113:Drivers/lvgl/src/extra/themes/mono/lv_theme_mono.c ****     lv_style_set_border_color(&styles->inv, COLOR_BG);
 2550              		.loc 1 113 5 view .LVU591
 2551 046e 3146     		mov	r1, r6	@ movhi
 2552 0470 FFF7FEFF 		bl	lv_style_set_bg_color
 2553              	.LVL262:
 114:Drivers/lvgl/src/extra/themes/mono/lv_theme_mono.c ****     lv_style_set_line_color(&styles->inv, COLOR_BG);
 2554              		.loc 1 114 5 is_stmt 1 view .LVU592
 2555 0474 2068     		ldr	r0, [r4]
 2556 0476 4FF0FF31 		mov	r1, #-1	@ movhi
 2557 047a 2830     		adds	r0, r0, #40
ARM GAS  /var/folders/0z/tsy30v1j4xl4_7kw94k978ww0000gn/T//ccM2UjO5.s 			page 85


 2558 047c FFF7FEFF 		bl	lv_style_set_border_color
 2559              	.LVL263:
 115:Drivers/lvgl/src/extra/themes/mono/lv_theme_mono.c ****     lv_style_set_arc_color(&styles->inv, COLOR_BG);
 2560              		.loc 1 115 5 view .LVU593
 2561 0480 2068     		ldr	r0, [r4]
 2562 0482 4FF0FF31 		mov	r1, #-1	@ movhi
 2563 0486 2830     		adds	r0, r0, #40
 2564 0488 FFF7FEFF 		bl	lv_style_set_line_color
 2565              	.LVL264:
 116:Drivers/lvgl/src/extra/themes/mono/lv_theme_mono.c ****     lv_style_set_text_color(&styles->inv, COLOR_BG);
 2566              		.loc 1 116 5 view .LVU594
 2567 048c 2068     		ldr	r0, [r4]
 2568 048e 4FF0FF31 		mov	r1, #-1	@ movhi
 2569 0492 2830     		adds	r0, r0, #40
 2570 0494 FFF7FEFF 		bl	lv_style_set_arc_color
 2571              	.LVL265:
 117:Drivers/lvgl/src/extra/themes/mono/lv_theme_mono.c ****     lv_style_set_outline_color(&styles->inv, COLOR_BG);
 2572              		.loc 1 117 5 view .LVU595
 2573 0498 2068     		ldr	r0, [r4]
 2574 049a 4FF0FF31 		mov	r1, #-1	@ movhi
 2575 049e 2830     		adds	r0, r0, #40
 2576 04a0 FFF7FEFF 		bl	lv_style_set_text_color
 2577              	.LVL266:
 118:Drivers/lvgl/src/extra/themes/mono/lv_theme_mono.c **** 
 2578              		.loc 1 118 5 view .LVU596
 2579 04a4 2068     		ldr	r0, [r4]
 2580              	.LBB304:
 2581              	.LBB305:
 698:Drivers/lvgl/src/extra/themes/mono/../../../../src/hal/../draw/../misc/lv_color.h **** }
 2582              		.loc 2 698 12 is_stmt 0 view .LVU597
 2583 04a6 1F23     		movs	r3, #31
 2584              	.LBE305:
 2585              	.LBE304:
 118:Drivers/lvgl/src/extra/themes/mono/lv_theme_mono.c **** 
 2586              		.loc 1 118 5 view .LVU598
 2587 04a8 2830     		adds	r0, r0, #40
 2588              	.LBB307:
 2589              	.LBI304:
 696:Drivers/lvgl/src/extra/themes/mono/../../../../src/hal/../draw/../misc/lv_color.h **** {
 2590              		.loc 2 696 26 is_stmt 1 view .LVU599
 2591              	.LBB306:
 698:Drivers/lvgl/src/extra/themes/mono/../../../../src/hal/../draw/../misc/lv_color.h **** }
 2592              		.loc 2 698 5 view .LVU600
 698:Drivers/lvgl/src/extra/themes/mono/../../../../src/hal/../draw/../misc/lv_color.h **** }
 2593              		.loc 2 698 12 is_stmt 0 view .LVU601
 2594 04aa 0722     		movs	r2, #7
 2595 04ac CCE6     		b	.L96
 2596              	.LVL267:
 2597              	.L93:
 698:Drivers/lvgl/src/extra/themes/mono/../../../../src/hal/../draw/../misc/lv_color.h **** }
 2598              		.loc 2 698 12 view .LVU602
 2599              	.LBE306:
 2600              	.LBE307:
 2601              	.LBB308:
 2602              	.LBB220:
 2603              		.loc 1 500 9 is_stmt 1 view .LVU603
 2604 04ae FFF7FEFF 		bl	lv_style_init
ARM GAS  /var/folders/0z/tsy30v1j4xl4_7kw94k978ww0000gn/T//ccM2UjO5.s 			page 86


 2605              	.LVL268:
 2606              		.loc 1 500 9 is_stmt 0 view .LVU604
 2607 04b2 9FE6     		b	.L94
 2608              	.LVL269:
 2609              	.L91:
 2610              		.loc 1 500 9 view .LVU605
 2611              	.LBE220:
 2612              	.LBE308:
 2613              	.LBB309:
 2614              	.LBB215:
 2615              		.loc 1 500 9 is_stmt 1 view .LVU606
 2616 04b4 FFF7FEFF 		bl	lv_style_init
 2617              	.LVL270:
 2618              		.loc 1 500 9 is_stmt 0 view .LVU607
 2619 04b8 8FE6     		b	.L92
 2620              	.L89:
 2621              		.loc 1 500 9 view .LVU608
 2622              	.LBE215:
 2623              	.LBE309:
 100:Drivers/lvgl/src/extra/themes/mono/lv_theme_mono.c ****     lv_style_set_line_width(&styles->card, 2);
 2624              		.loc 1 100 5 view .LVU609
 2625 04ba 3146     		mov	r1, r6	@ movhi
 2626 04bc FFF7FEFF 		bl	lv_style_set_text_color
 2627              	.LVL271:
 101:Drivers/lvgl/src/extra/themes/mono/lv_theme_mono.c ****     lv_style_set_line_color(&styles->card, COLOR_FG);
 2628              		.loc 1 101 5 is_stmt 1 view .LVU610
 2629 04c0 2068     		ldr	r0, [r4]
 2630 04c2 0221     		movs	r1, #2
 2631 04c4 0830     		adds	r0, r0, #8
 2632 04c6 FFF7FEFF 		bl	lv_style_set_line_width
 2633              	.LVL272:
 102:Drivers/lvgl/src/extra/themes/mono/lv_theme_mono.c ****     lv_style_set_arc_width(&styles->card, 2);
 2634              		.loc 1 102 5 view .LVU611
 2635 04ca 2068     		ldr	r0, [r4]
 2636 04cc 3146     		mov	r1, r6	@ movhi
 2637 04ce 0830     		adds	r0, r0, #8
 2638 04d0 FFF7FEFF 		bl	lv_style_set_line_color
 2639              	.LVL273:
 103:Drivers/lvgl/src/extra/themes/mono/lv_theme_mono.c ****     lv_style_set_arc_color(&styles->card, COLOR_FG);
 2640              		.loc 1 103 5 view .LVU612
 2641 04d4 2068     		ldr	r0, [r4]
 2642 04d6 0221     		movs	r1, #2
 2643 04d8 0830     		adds	r0, r0, #8
 2644 04da FFF7FEFF 		bl	lv_style_set_arc_width
 2645              	.LVL274:
 104:Drivers/lvgl/src/extra/themes/mono/lv_theme_mono.c ****     lv_style_set_outline_color(&styles->card, COLOR_FG);
 2646              		.loc 1 104 5 view .LVU613
 2647 04de 2068     		ldr	r0, [r4]
 2648 04e0 3146     		mov	r1, r6	@ movhi
 2649 04e2 0830     		adds	r0, r0, #8
 2650 04e4 FFF7FEFF 		bl	lv_style_set_arc_color
 2651              	.LVL275:
 105:Drivers/lvgl/src/extra/themes/mono/lv_theme_mono.c ****     lv_style_set_anim_time(&styles->card, 300);
 2652              		.loc 1 105 5 view .LVU614
 2653 04e8 2068     		ldr	r0, [r4]
 2654 04ea 0830     		adds	r0, r0, #8
 2655              	.LBB310:
ARM GAS  /var/folders/0z/tsy30v1j4xl4_7kw94k978ww0000gn/T//ccM2UjO5.s 			page 87


 2656              	.LBI310:
 700:Drivers/lvgl/src/extra/themes/mono/../../../../src/hal/../draw/../misc/lv_color.h **** {
 2657              		.loc 2 700 26 view .LVU615
 2658              	.LBB311:
 2659              		.loc 2 702 5 view .LVU616
 2660              		.loc 2 702 12 is_stmt 0 view .LVU617
 2661 04ec 5BE6     		b	.L90
 2662              	.L87:
 2663              	.LBE311:
 2664              	.LBE310:
  94:Drivers/lvgl/src/extra/themes/mono/lv_theme_mono.c ****     lv_style_set_border_color(&styles->card, COLOR_FG);
 2665              		.loc 1 94 5 view .LVU618
 2666 04ee 4FF0FF31 		mov	r1, #-1	@ movhi
 2667 04f2 FFF7FEFF 		bl	lv_style_set_bg_color
 2668              	.LVL276:
  95:Drivers/lvgl/src/extra/themes/mono/lv_theme_mono.c ****     lv_style_set_radius(&styles->card, 2);
 2669              		.loc 1 95 5 is_stmt 1 view .LVU619
 2670 04f6 2068     		ldr	r0, [r4]
 2671 04f8 0830     		adds	r0, r0, #8
 2672              	.LBB312:
 2673              	.LBI312:
 700:Drivers/lvgl/src/extra/themes/mono/../../../../src/hal/../draw/../misc/lv_color.h **** {
 2674              		.loc 2 700 26 view .LVU620
 2675              	.LBB313:
 2676              		.loc 2 702 5 view .LVU621
 2677              		.loc 2 702 12 is_stmt 0 view .LVU622
 2678 04fa 01E6     		b	.L88
 2679              	.LVL277:
 2680              	.L85:
 2681              		.loc 2 702 12 view .LVU623
 2682              	.LBE313:
 2683              	.LBE312:
 2684              	.LBB314:
 2685              	.LBB198:
 2686              		.loc 1 500 9 is_stmt 1 view .LVU624
 2687 04fc FFF7FEFF 		bl	lv_style_init
 2688              	.LVL278:
 2689              		.loc 1 500 9 is_stmt 0 view .LVU625
 2690 0500 EEE5     		b	.L86
 2691              	.L83:
 2692              		.loc 1 500 9 view .LVU626
 2693              	.LBE198:
 2694              	.LBE314:
  86:Drivers/lvgl/src/extra/themes/mono/lv_theme_mono.c ****     lv_style_set_text_color(&styles->scr, COLOR_FG);
 2695              		.loc 1 86 5 view .LVU627
 2696 0502 4FF0FF31 		mov	r1, #-1	@ movhi
 2697 0506 FFF7FEFF 		bl	lv_style_set_bg_color
 2698              	.LVL279:
  87:Drivers/lvgl/src/extra/themes/mono/lv_theme_mono.c ****     lv_style_set_pad_row(&styles->scr, PAD_DEF);
 2699              		.loc 1 87 5 is_stmt 1 view .LVU628
 2700 050a 2068     		ldr	r0, [r4]
 2701              	.LBB315:
 2702              	.LBI315:
 700:Drivers/lvgl/src/extra/themes/mono/../../../../src/hal/../draw/../misc/lv_color.h **** {
 2703              		.loc 2 700 26 view .LVU629
 2704              	.LBB316:
 2705              		.loc 2 702 5 view .LVU630
ARM GAS  /var/folders/0z/tsy30v1j4xl4_7kw94k978ww0000gn/T//ccM2UjO5.s 			page 88


 2706              		.loc 2 702 12 is_stmt 0 view .LVU631
 2707 050c C8E5     		b	.L84
 2708              	.LVL280:
 2709              	.L81:
 2710              		.loc 2 702 12 view .LVU632
 2711              	.LBE316:
 2712              	.LBE315:
 2713              	.LBB317:
 2714              	.LBB191:
 2715              		.loc 1 500 9 is_stmt 1 view .LVU633
 2716 050e FFF7FEFF 		bl	lv_style_init
 2717              	.LVL281:
 2718              		.loc 1 500 9 is_stmt 0 view .LVU634
 2719 0512 B8E5     		b	.L82
 2720              	.LVL282:
 2721              	.L76:
 2722              		.loc 1 500 9 view .LVU635
 2723              	.LBE191:
 2724              	.LBE317:
 2725              	.LBE322:
 2726              	.LBE328:
 179:Drivers/lvgl/src/extra/themes/mono/lv_theme_mono.c ****         LV_GC_ROOT(_lv_theme_default_styles) = lv_mem_alloc(sizeof(my_theme_styles_t));
 2727              		.loc 1 179 9 is_stmt 1 view .LVU636
 180:Drivers/lvgl/src/extra/themes/mono/lv_theme_mono.c ****         styles = (my_theme_styles_t *)LV_GC_ROOT(_lv_theme_default_styles);
 2728              		.loc 1 180 9 view .LVU637
 180:Drivers/lvgl/src/extra/themes/mono/lv_theme_mono.c ****         styles = (my_theme_styles_t *)LV_GC_ROOT(_lv_theme_default_styles);
 2729              		.loc 1 180 48 is_stmt 0 view .LVU638
 2730 0514 8820     		movs	r0, #136
 2731              	.LVL283:
 180:Drivers/lvgl/src/extra/themes/mono/lv_theme_mono.c ****         styles = (my_theme_styles_t *)LV_GC_ROOT(_lv_theme_default_styles);
 2732              		.loc 1 180 48 view .LVU639
 2733 0516 FFF7FEFF 		bl	lv_mem_alloc
 2734              	.LVL284:
 180:Drivers/lvgl/src/extra/themes/mono/lv_theme_mono.c ****         styles = (my_theme_styles_t *)LV_GC_ROOT(_lv_theme_default_styles);
 2735              		.loc 1 180 46 view .LVU640
 2736 051a 0D4B     		ldr	r3, .L127+4
 184:Drivers/lvgl/src/extra/themes/mono/lv_theme_mono.c ****     theme.font_small = LV_FONT_DEFAULT;
 2737              		.loc 1 184 16 view .LVU641
 2738 051c DFF82C90 		ldr	r9, .L127
 180:Drivers/lvgl/src/extra/themes/mono/lv_theme_mono.c ****         styles = (my_theme_styles_t *)LV_GC_ROOT(_lv_theme_default_styles);
 2739              		.loc 1 180 46 view .LVU642
 2740 0520 1860     		str	r0, [r3]
 181:Drivers/lvgl/src/extra/themes/mono/lv_theme_mono.c ****     }
 2741              		.loc 1 181 9 is_stmt 1 view .LVU643
 185:Drivers/lvgl/src/extra/themes/mono/lv_theme_mono.c ****     theme.font_normal = LV_FONT_DEFAULT;
 2742              		.loc 1 185 22 is_stmt 0 view .LVU644
 2743 0522 0C4B     		ldr	r3, .L127+8
 181:Drivers/lvgl/src/extra/themes/mono/lv_theme_mono.c ****     }
 2744              		.loc 1 181 16 view .LVU645
 2745 0524 0C4C     		ldr	r4, .L127+12
 2746              	.LBB329:
 2747              	.LBB323:
 2748              	.LBB318:
 2749              	.LBB186:
 496:Drivers/lvgl/src/extra/themes/mono/lv_theme_mono.c ****         lv_style_reset(style);
 2750              		.loc 1 496 8 view .LVU646
 2751 0526 2A78     		ldrb	r2, [r5]	@ zero_extendqisi2
ARM GAS  /var/folders/0z/tsy30v1j4xl4_7kw94k978ww0000gn/T//ccM2UjO5.s 			page 89


 2752              	.LBE186:
 2753              	.LBE318:
 2754              	.LBE323:
 2755              	.LBE329:
 184:Drivers/lvgl/src/extra/themes/mono/lv_theme_mono.c ****     theme.font_small = LV_FONT_DEFAULT;
 2756              		.loc 1 184 5 is_stmt 1 view .LVU647
 185:Drivers/lvgl/src/extra/themes/mono/lv_theme_mono.c ****     theme.font_normal = LV_FONT_DEFAULT;
 2757              		.loc 1 185 5 view .LVU648
 187:Drivers/lvgl/src/extra/themes/mono/lv_theme_mono.c ****     theme.apply_cb = theme_apply;
 2758              		.loc 1 187 22 is_stmt 0 view .LVU649
 2759 0528 C9F81C30 		str	r3, [r9, #28]
 186:Drivers/lvgl/src/extra/themes/mono/lv_theme_mono.c ****     theme.font_large = LV_FONT_DEFAULT;
 2760              		.loc 1 186 23 view .LVU650
 2761 052c C9E90533 		strd	r3, r3, [r9, #20]
 187:Drivers/lvgl/src/extra/themes/mono/lv_theme_mono.c ****     theme.apply_cb = theme_apply;
 2762              		.loc 1 187 5 is_stmt 1 view .LVU651
 188:Drivers/lvgl/src/extra/themes/mono/lv_theme_mono.c **** 
 2763              		.loc 1 188 5 view .LVU652
 188:Drivers/lvgl/src/extra/themes/mono/lv_theme_mono.c **** 
 2764              		.loc 1 188 20 is_stmt 0 view .LVU653
 2765 0530 0A4B     		ldr	r3, .L127+16
 181:Drivers/lvgl/src/extra/themes/mono/lv_theme_mono.c ****     }
 2766              		.loc 1 181 16 view .LVU654
 2767 0532 2060     		str	r0, [r4]
 184:Drivers/lvgl/src/extra/themes/mono/lv_theme_mono.c ****     theme.font_small = LV_FONT_DEFAULT;
 2768              		.loc 1 184 16 view .LVU655
 2769 0534 C9F80CA0 		str	r10, [r9, #12]
 2770              	.LBB330:
 2771              	.LBB324:
  79:Drivers/lvgl/src/extra/themes/mono/lv_theme_mono.c ****     lv_style_set_bg_opa(&styles->scrollbar, LV_OPA_COVER);
 2772              		.loc 1 79 5 view .LVU656
 2773 0538 1030     		adds	r0, r0, #16
 2774              	.LBE324:
 2775              	.LBE330:
 188:Drivers/lvgl/src/extra/themes/mono/lv_theme_mono.c **** 
 2776              		.loc 1 188 20 view .LVU657
 2777 053a C9F80030 		str	r3, [r9]
 190:Drivers/lvgl/src/extra/themes/mono/lv_theme_mono.c **** 
 2778              		.loc 1 190 5 is_stmt 1 view .LVU658
 2779              	.LVL285:
 2780              	.LBB331:
  77:Drivers/lvgl/src/extra/themes/mono/lv_theme_mono.c **** {
 2781              		.loc 1 77 13 view .LVU659
 2782              	.LBB325:
  79:Drivers/lvgl/src/extra/themes/mono/lv_theme_mono.c ****     lv_style_set_bg_opa(&styles->scrollbar, LV_OPA_COVER);
 2783              		.loc 1 79 5 view .LVU660
 2784              	.LBB319:
 494:Drivers/lvgl/src/extra/themes/mono/lv_theme_mono.c **** {
 2785              		.loc 1 494 13 view .LVU661
 2786              	.LBB187:
 496:Drivers/lvgl/src/extra/themes/mono/lv_theme_mono.c ****         lv_style_reset(style);
 2787              		.loc 1 496 5 view .LVU662
 496:Drivers/lvgl/src/extra/themes/mono/lv_theme_mono.c ****         lv_style_reset(style);
 2788              		.loc 1 496 7 is_stmt 0 view .LVU663
 2789 053e 002A     		cmp	r2, #0
 2790 0540 7FF478AD 		bne	.L77
 2791              		.loc 1 500 9 is_stmt 1 view .LVU664
ARM GAS  /var/folders/0z/tsy30v1j4xl4_7kw94k978ww0000gn/T//ccM2UjO5.s 			page 90


 2792 0544 FFF7FEFF 		bl	lv_style_init
 2793              	.LVL286:
 2794              		.loc 1 500 9 is_stmt 0 view .LVU665
 2795 0548 76E5     		b	.L79
 2796              	.L128:
 2797 054a 00BF     		.align	2
 2798              	.L127:
 2799 054c 00000000 		.word	.LANCHOR2
 2800 0550 00000000 		.word	_lv_theme_default_styles
 2801 0554 00000000 		.word	lv_font_montserrat_14
 2802 0558 00000000 		.word	.LANCHOR0
 2803 055c 00000000 		.word	theme_apply
 2804              	.LBE187:
 2805              	.LBE319:
 2806              	.LBE325:
 2807              	.LBE331:
 2808              		.cfi_endproc
 2809              	.LFE206:
 2811              		.section	.bss.inited,"aw",%nobits
 2812              		.set	.LANCHOR1,. + 0
 2815              	inited:
 2816 0000 00       		.space	1
 2817              		.section	.bss.styles,"aw",%nobits
 2818              		.align	2
 2819              		.set	.LANCHOR0,. + 0
 2822              	styles:
 2823 0000 00000000 		.space	4
 2824              		.section	.bss.theme,"aw",%nobits
 2825              		.align	2
 2826              		.set	.LANCHOR2,. + 0
 2829              	theme:
 2830 0000 00000000 		.space	36
 2830      00000000 
 2830      00000000 
 2830      00000000 
 2830      00000000 
 2831              		.text
 2832              	.Letext0:
 2833              		.file 4 "/Users/johannes/Library/Application Support/Code/User/globalStorage/bmd.stm32-for-vscode/
 2834              		.file 5 "/Users/johannes/Library/Application Support/Code/User/globalStorage/bmd.stm32-for-vscode/
 2835              		.file 6 "Drivers/lvgl/src/extra/themes/mono/../../../../src/misc/lv_types.h"
 2836              		.file 7 "Drivers/lvgl/src/extra/themes/mono/../../../../src/misc/lv_timer.h"
 2837              		.file 8 "/Users/johannes/Library/Application Support/Code/User/globalStorage/bmd.stm32-for-vscode/
 2838              		.file 9 "Drivers/lvgl/src/extra/themes/mono/../../../../src/hal/../draw/../misc/../font/../misc/lv
 2839              		.file 10 "Drivers/lvgl/src/extra/themes/mono/../../../../src/hal/../draw/../misc/../font/lv_font.h
 2840              		.file 11 "Drivers/lvgl/src/extra/themes/mono/../../../../src/hal/../draw/../misc/lv_txt.h"
 2841              		.file 12 "Drivers/lvgl/src/extra/themes/mono/../../../../src/hal/../draw/../misc/lv_bidi.h"
 2842              		.file 13 "Drivers/lvgl/src/extra/themes/mono/../../../../src/hal/../draw/lv_img_buf.h"
 2843              		.file 14 "Drivers/lvgl/src/extra/themes/mono/../../../../src/core/lv_obj.h"
 2844              		.file 15 "Drivers/lvgl/src/extra/themes/mono/../../../../src/hal/../draw/lv_draw_rect.h"
 2845              		.file 16 "Drivers/lvgl/src/extra/themes/mono/../../../../src/hal/../draw/lv_draw_label.h"
 2846              		.file 17 "Drivers/lvgl/src/extra/themes/mono/../../../../src/hal/../draw/lv_draw_img.h"
 2847              		.file 18 "Drivers/lvgl/src/extra/themes/mono/../../../../src/hal/../draw/lv_draw_line.h"
 2848              		.file 19 "Drivers/lvgl/src/extra/themes/mono/../../../../src/hal/../draw/lv_draw_arc.h"
 2849              		.file 20 "Drivers/lvgl/src/extra/themes/mono/../../../../src/hal/../draw/lv_draw_layer.h"
 2850              		.file 21 "Drivers/lvgl/src/extra/themes/mono/../../../../src/hal/../draw/lv_draw.h"
 2851              		.file 22 "Drivers/lvgl/src/extra/themes/mono/../../../../src/hal/../misc/lv_ll.h"
ARM GAS  /var/folders/0z/tsy30v1j4xl4_7kw94k978ww0000gn/T//ccM2UjO5.s 			page 91


 2852              		.file 23 "Drivers/lvgl/src/extra/themes/mono/../../../../src/hal/lv_hal_disp.h"
 2853              		.file 24 "Drivers/lvgl/src/extra/themes/mono/../../../../src/core/lv_theme.h"
 2854              		.file 25 "Drivers/lvgl/src/extra/themes/mono/../../../../src/core/lv_group.h"
 2855              		.file 26 "Drivers/lvgl/src/extra/themes/mono/../../../../src/core/lv_obj_scroll.h"
 2856              		.file 27 "Drivers/lvgl/src/extra/themes/mono/../../../../src/core/lv_obj_style.h"
 2857              		.file 28 "Drivers/lvgl/src/extra/themes/mono/../../../../src/core/lv_obj_class.h"
 2858              		.file 29 "Drivers/lvgl/src/extra/themes/mono/../../../../src/core/lv_event.h"
 2859              		.file 30 "Drivers/lvgl/src/extra/themes/mono/../../../../src/widgets/lv_arc.h"
 2860              		.file 31 "Drivers/lvgl/src/extra/themes/mono/../../../../src/widgets/lv_btn.h"
 2861              		.file 32 "Drivers/lvgl/src/extra/themes/mono/../../../../src/widgets/lv_table.h"
 2862              		.file 33 "Drivers/lvgl/src/extra/themes/mono/../../../../src/widgets/lv_checkbox.h"
 2863              		.file 34 "Drivers/lvgl/src/extra/themes/mono/../../../../src/widgets/lv_bar.h"
 2864              		.file 35 "Drivers/lvgl/src/extra/themes/mono/../../../../src/widgets/lv_slider.h"
 2865              		.file 36 "Drivers/lvgl/src/extra/themes/mono/../../../../src/widgets/lv_btnmatrix.h"
 2866              		.file 37 "Drivers/lvgl/src/extra/themes/mono/../../../../src/widgets/lv_dropdown.h"
 2867              		.file 38 "Drivers/lvgl/src/extra/themes/mono/../../../../src/widgets/lv_roller.h"
 2868              		.file 39 "Drivers/lvgl/src/extra/themes/mono/../../../../src/widgets/lv_textarea.h"
 2869              		.file 40 "Drivers/lvgl/src/extra/themes/mono/../../../../src/widgets/lv_switch.h"
 2870              		.file 41 "Drivers/lvgl/src/extra/themes/mono/../../../../src/extra/widgets/calendar/lv_calendar.h"
 2871              		.file 42 "Drivers/lvgl/src/extra/themes/mono/../../../../src/extra/widgets/chart/lv_chart.h"
 2872              		.file 43 "Drivers/lvgl/src/extra/themes/mono/../../../../src/extra/widgets/keyboard/lv_keyboard.h"
 2873              		.file 44 "Drivers/lvgl/src/extra/themes/mono/../../../../src/extra/widgets/list/lv_list.h"
 2874              		.file 45 "Drivers/lvgl/src/extra/themes/mono/../../../../src/extra/widgets/msgbox/lv_msgbox.h"
 2875              		.file 46 "Drivers/lvgl/src/extra/themes/mono/../../../../src/extra/widgets/meter/lv_meter.h"
 2876              		.file 47 "Drivers/lvgl/src/extra/themes/mono/../../../../src/extra/widgets/spinbox/lv_spinbox.h"
 2877              		.file 48 "Drivers/lvgl/src/extra/themes/mono/../../../../src/extra/widgets/tabview/lv_tabview.h"
 2878              		.file 49 "Drivers/lvgl/src/extra/themes/mono/../../../../src/extra/widgets/tileview/lv_tileview.h"
 2879              		.file 50 "Drivers/lvgl/src/extra/themes/mono/../../../../src/extra/widgets/win/lv_win.h"
 2880              		.file 51 "Drivers/lvgl/src/extra/themes/mono/../../../../src/extra/widgets/led/lv_led.h"
 2881              		.file 52 "Drivers/lvgl/src/extra/themes/mono/../../../../src/extra/widgets/imgbtn/lv_imgbtn.h"
 2882              		.file 53 "Drivers/lvgl/src/extra/themes/mono/../../../misc/lv_gc.h"
 2883              		.file 54 "Drivers/lvgl/src/extra/themes/mono/../../../../src/hal/../draw/../misc/lv_style_gen.h"
 2884              		.file 55 "Drivers/lvgl/src/extra/themes/mono/../../../../src/core/lv_obj_tree.h"
 2885              		.file 56 "Drivers/lvgl/src/extra/themes/mono/../../../../src/core/lv_disp.h"
 2886              		.file 57 "Drivers/lvgl/src/extra/themes/mono/../../../../src/misc/lv_mem.h"
ARM GAS  /var/folders/0z/tsy30v1j4xl4_7kw94k978ww0000gn/T//ccM2UjO5.s 			page 92


DEFINED SYMBOLS
                            *ABS*:0000000000000000 lv_theme_mono.c
/var/folders/0z/tsy30v1j4xl4_7kw94k978ww0000gn/T//ccM2UjO5.s:20     .text.theme_apply:0000000000000000 $t
/var/folders/0z/tsy30v1j4xl4_7kw94k978ww0000gn/T//ccM2UjO5.s:26     .text.theme_apply:0000000000000000 theme_apply
/var/folders/0z/tsy30v1j4xl4_7kw94k978ww0000gn/T//ccM2UjO5.s:619    .text.theme_apply:0000000000000324 $d
/var/folders/0z/tsy30v1j4xl4_7kw94k978ww0000gn/T//ccM2UjO5.s:638    .text.theme_apply:0000000000000360 $t
/var/folders/0z/tsy30v1j4xl4_7kw94k978ww0000gn/T//ccM2UjO5.s:1125   .text.theme_apply:000000000000064c $d
/var/folders/0z/tsy30v1j4xl4_7kw94k978ww0000gn/T//ccM2UjO5.s:1148   .text.theme_apply:000000000000069c $t
/var/folders/0z/tsy30v1j4xl4_7kw94k978ww0000gn/T//ccM2UjO5.s:1346   .text.theme_apply:00000000000007c0 $d
/var/folders/0z/tsy30v1j4xl4_7kw94k978ww0000gn/T//ccM2UjO5.s:1362   .text.lv_theme_mono_is_inited:0000000000000000 $t
/var/folders/0z/tsy30v1j4xl4_7kw94k978ww0000gn/T//ccM2UjO5.s:1369   .text.lv_theme_mono_is_inited:0000000000000000 lv_theme_mono_is_inited
/var/folders/0z/tsy30v1j4xl4_7kw94k978ww0000gn/T//ccM2UjO5.s:1388   .text.lv_theme_mono_is_inited:000000000000000c $d
/var/folders/0z/tsy30v1j4xl4_7kw94k978ww0000gn/T//ccM2UjO5.s:1393   .text.lv_theme_mono_init:0000000000000000 $t
/var/folders/0z/tsy30v1j4xl4_7kw94k978ww0000gn/T//ccM2UjO5.s:1400   .text.lv_theme_mono_init:0000000000000000 lv_theme_mono_init
/var/folders/0z/tsy30v1j4xl4_7kw94k978ww0000gn/T//ccM2UjO5.s:2117   .text.lv_theme_mono_init:0000000000000308 $d
/var/folders/0z/tsy30v1j4xl4_7kw94k978ww0000gn/T//ccM2UjO5.s:2129   .text.lv_theme_mono_init:000000000000031c $t
/var/folders/0z/tsy30v1j4xl4_7kw94k978ww0000gn/T//ccM2UjO5.s:2799   .text.lv_theme_mono_init:000000000000054c $d
/var/folders/0z/tsy30v1j4xl4_7kw94k978ww0000gn/T//ccM2UjO5.s:2815   .bss.inited:0000000000000000 inited
/var/folders/0z/tsy30v1j4xl4_7kw94k978ww0000gn/T//ccM2UjO5.s:2816   .bss.inited:0000000000000000 $d
/var/folders/0z/tsy30v1j4xl4_7kw94k978ww0000gn/T//ccM2UjO5.s:2818   .bss.styles:0000000000000000 $d
/var/folders/0z/tsy30v1j4xl4_7kw94k978ww0000gn/T//ccM2UjO5.s:2822   .bss.styles:0000000000000000 styles
/var/folders/0z/tsy30v1j4xl4_7kw94k978ww0000gn/T//ccM2UjO5.s:2825   .bss.theme:0000000000000000 $d
/var/folders/0z/tsy30v1j4xl4_7kw94k978ww0000gn/T//ccM2UjO5.s:2829   .bss.theme:0000000000000000 theme

UNDEFINED SYMBOLS
lv_obj_get_parent
lv_obj_check_type
lv_obj_add_style
lv_obj_get_index
lv_obj_class
lv_btn_class
lv_tabview_class
lv_win_class
lv_led_class
lv_btnmatrix_class
lv_msgbox_class
lv_bar_class
lv_slider_class
lv_table_class
lv_checkbox_class
lv_switch_class
lv_chart_class
lv_roller_class
lv_dropdown_class
lv_dropdownlist_class
lv_arc_class
lv_meter_class
lv_textarea_class
lv_calendar_class
lv_keyboard_class
lv_list_class
lv_list_text_class
lv_list_btn_class
lv_spinbox_class
lv_tileview_class
lv_tileview_tile_class
_lv_theme_default_styles
ARM GAS  /var/folders/0z/tsy30v1j4xl4_7kw94k978ww0000gn/T//ccM2UjO5.s 			page 93


lv_style_reset
lv_style_set_bg_opa
lv_style_set_bg_color
lv_style_set_width
lv_style_set_text_color
lv_style_set_pad_row
lv_style_set_pad_column
lv_style_set_text_font
lv_style_set_border_color
lv_style_set_radius
lv_style_set_border_width
lv_style_set_pad_left
lv_style_set_pad_right
lv_style_set_pad_top
lv_style_set_pad_bottom
lv_style_set_line_width
lv_style_set_line_color
lv_style_set_arc_width
lv_style_set_arc_color
lv_style_set_outline_color
lv_style_set_anim_time
lv_style_set_outline_width
lv_style_set_outline_pad
lv_font_montserrat_14
lv_style_set_text_line_space
lv_style_set_text_decor
lv_style_set_border_side
lv_disp_get_theme
lv_obj_report_style_change
lv_style_init
lv_mem_alloc
