ARM GAS  /var/folders/0z/tsy30v1j4xl4_7kw94k978ww0000gn/T//ccnqmzzU.s 			page 1


   1              		.cpu cortex-m4
   2              		.arch armv7e-m
   3              		.fpu fpv4-sp-d16
   4              		.eabi_attribute 27, 1
   5              		.eabi_attribute 28, 1
   6              		.eabi_attribute 20, 1
   7              		.eabi_attribute 21, 1
   8              		.eabi_attribute 23, 3
   9              		.eabi_attribute 24, 1
  10              		.eabi_attribute 25, 1
  11              		.eabi_attribute 26, 1
  12              		.eabi_attribute 30, 2
  13              		.eabi_attribute 34, 1
  14              		.eabi_attribute 18, 4
  15              		.file	"lv_utils.c"
  16              		.text
  17              	.Ltext0:
  18              		.cfi_sections	.debug_frame
  19              		.section	.text._lv_utils_bsearch,"ax",%progbits
  20              		.align	1
  21              		.p2align 2,,3
  22              		.global	_lv_utils_bsearch
  23              		.syntax unified
  24              		.thumb
  25              		.thumb_func
  27              	_lv_utils_bsearch:
  28              	.LVL0:
  29              	.LFB0:
  30              		.file 1 "Drivers/lvgl/src/misc/lv_utils.c"
   1:Drivers/lvgl/src/misc/lv_utils.c **** /**
   2:Drivers/lvgl/src/misc/lv_utils.c ****  * @file lv_utils.c
   3:Drivers/lvgl/src/misc/lv_utils.c ****  *
   4:Drivers/lvgl/src/misc/lv_utils.c ****  */
   5:Drivers/lvgl/src/misc/lv_utils.c **** 
   6:Drivers/lvgl/src/misc/lv_utils.c **** /*********************
   7:Drivers/lvgl/src/misc/lv_utils.c ****  *      INCLUDES
   8:Drivers/lvgl/src/misc/lv_utils.c ****  *********************/
   9:Drivers/lvgl/src/misc/lv_utils.c **** #include <stddef.h>
  10:Drivers/lvgl/src/misc/lv_utils.c **** 
  11:Drivers/lvgl/src/misc/lv_utils.c **** #include "lv_utils.h"
  12:Drivers/lvgl/src/misc/lv_utils.c **** 
  13:Drivers/lvgl/src/misc/lv_utils.c **** /*********************
  14:Drivers/lvgl/src/misc/lv_utils.c ****  *      DEFINES
  15:Drivers/lvgl/src/misc/lv_utils.c ****  *********************/
  16:Drivers/lvgl/src/misc/lv_utils.c **** 
  17:Drivers/lvgl/src/misc/lv_utils.c **** /**********************
  18:Drivers/lvgl/src/misc/lv_utils.c ****  *      TYPEDEFS
  19:Drivers/lvgl/src/misc/lv_utils.c ****  **********************/
  20:Drivers/lvgl/src/misc/lv_utils.c **** 
  21:Drivers/lvgl/src/misc/lv_utils.c **** /**********************
  22:Drivers/lvgl/src/misc/lv_utils.c ****  *  STATIC PROTOTYPES
  23:Drivers/lvgl/src/misc/lv_utils.c ****  **********************/
  24:Drivers/lvgl/src/misc/lv_utils.c **** 
  25:Drivers/lvgl/src/misc/lv_utils.c **** /**********************
  26:Drivers/lvgl/src/misc/lv_utils.c ****  *  STATIC VARIABLES
  27:Drivers/lvgl/src/misc/lv_utils.c ****  **********************/
  28:Drivers/lvgl/src/misc/lv_utils.c **** 
ARM GAS  /var/folders/0z/tsy30v1j4xl4_7kw94k978ww0000gn/T//ccnqmzzU.s 			page 2


  29:Drivers/lvgl/src/misc/lv_utils.c **** /**********************
  30:Drivers/lvgl/src/misc/lv_utils.c ****  *      MACROS
  31:Drivers/lvgl/src/misc/lv_utils.c ****  **********************/
  32:Drivers/lvgl/src/misc/lv_utils.c **** 
  33:Drivers/lvgl/src/misc/lv_utils.c **** /**********************
  34:Drivers/lvgl/src/misc/lv_utils.c ****  *   GLOBAL FUNCTIONS
  35:Drivers/lvgl/src/misc/lv_utils.c ****  **********************/
  36:Drivers/lvgl/src/misc/lv_utils.c **** 
  37:Drivers/lvgl/src/misc/lv_utils.c **** /** Searches base[0] to base[n - 1] for an item that matches *key.
  38:Drivers/lvgl/src/misc/lv_utils.c ****  *
  39:Drivers/lvgl/src/misc/lv_utils.c ****  * @note The function cmp must return negative if its first
  40:Drivers/lvgl/src/misc/lv_utils.c ****  *  argument (the search key) is less than its second (a table entry),
  41:Drivers/lvgl/src/misc/lv_utils.c ****  *  zero if equal, and positive if greater.
  42:Drivers/lvgl/src/misc/lv_utils.c ****  *
  43:Drivers/lvgl/src/misc/lv_utils.c ****  *  @note Items in the array must be in ascending order.
  44:Drivers/lvgl/src/misc/lv_utils.c ****  *
  45:Drivers/lvgl/src/misc/lv_utils.c ****  * @param key    Pointer to item being searched for
  46:Drivers/lvgl/src/misc/lv_utils.c ****  * @param base   Pointer to first element to search
  47:Drivers/lvgl/src/misc/lv_utils.c ****  * @param n      Number of elements
  48:Drivers/lvgl/src/misc/lv_utils.c ****  * @param size   Size of each element
  49:Drivers/lvgl/src/misc/lv_utils.c ****  * @param cmp    Pointer to comparison function (see #unicode_list_compare as a comparison function
  50:Drivers/lvgl/src/misc/lv_utils.c ****  * example)
  51:Drivers/lvgl/src/misc/lv_utils.c ****  *
  52:Drivers/lvgl/src/misc/lv_utils.c ****  * @return a pointer to a matching item, or NULL if none exists.
  53:Drivers/lvgl/src/misc/lv_utils.c ****  */
  54:Drivers/lvgl/src/misc/lv_utils.c **** void * _lv_utils_bsearch(const void * key, const void * base, uint32_t n, uint32_t size,
  55:Drivers/lvgl/src/misc/lv_utils.c ****                          int32_t (*cmp)(const void * pRef, const void * pElement))
  56:Drivers/lvgl/src/misc/lv_utils.c **** {
  31              		.loc 1 56 1 view -0
  32              		.cfi_startproc
  33              		@ args = 4, pretend = 0, frame = 0
  34              		@ frame_needed = 0, uses_anonymous_args = 0
  57:Drivers/lvgl/src/misc/lv_utils.c ****     const char * middle;
  35              		.loc 1 57 5 view .LVU1
  58:Drivers/lvgl/src/misc/lv_utils.c ****     int32_t c;
  36              		.loc 1 58 5 view .LVU2
  59:Drivers/lvgl/src/misc/lv_utils.c **** 
  60:Drivers/lvgl/src/misc/lv_utils.c ****     for(middle = base; n != 0;) {
  37              		.loc 1 60 5 view .LVU3
  56:Drivers/lvgl/src/misc/lv_utils.c ****     const char * middle;
  38              		.loc 1 56 1 is_stmt 0 view .LVU4
  39 0000 2DE9F047 		push	{r4, r5, r6, r7, r8, r9, r10, lr}
  40              		.cfi_def_cfa_offset 32
  41              		.cfi_offset 4, -32
  42              		.cfi_offset 5, -28
  43              		.cfi_offset 6, -24
  44              		.cfi_offset 7, -20
  45              		.cfi_offset 8, -16
  46              		.cfi_offset 9, -12
  47              		.cfi_offset 10, -8
  48              		.cfi_offset 14, -4
  56:Drivers/lvgl/src/misc/lv_utils.c ****     const char * middle;
  49              		.loc 1 56 1 view .LVU5
  50 0004 DDF82080 		ldr	r8, [sp, #32]
  51              	.LVL1:
  52              		.loc 1 60 26 is_stmt 1 view .LVU6
  53 0008 AAB1     		cbz	r2, .L2
ARM GAS  /var/folders/0z/tsy30v1j4xl4_7kw94k978ww0000gn/T//ccnqmzzU.s 			page 3


  54 000a 0746     		mov	r7, r0
  55 000c 0E46     		mov	r6, r1
  56 000e 1D46     		mov	r5, r3
  57 0010 1446     		mov	r4, r2
  58              	.LVL2:
  59              	.L6:
  61:Drivers/lvgl/src/misc/lv_utils.c ****         middle += (n / 2) * size;
  60              		.loc 1 61 9 view .LVU7
  61              		.loc 1 61 22 is_stmt 0 view .LVU8
  62 0012 4FEA5409 		lsr	r9, r4, #1
  63              		.loc 1 61 16 view .LVU9
  64 0016 05FB096A 		mla	r10, r5, r9, r6
  65              	.LVL3:
  62:Drivers/lvgl/src/misc/lv_utils.c ****         if((c = (*cmp)(key, middle)) > 0) {
  66              		.loc 1 62 9 is_stmt 1 view .LVU10
  67              		.loc 1 62 18 is_stmt 0 view .LVU11
  68 001a 5146     		mov	r1, r10
  69 001c 3846     		mov	r0, r7
  70 001e C047     		blx	r8
  71              	.LVL4:
  63:Drivers/lvgl/src/misc/lv_utils.c ****             n    = (n / 2) - ((n & 1) == 0);
  72              		.loc 1 63 13 is_stmt 1 view .LVU12
  64:Drivers/lvgl/src/misc/lv_utils.c ****             base = (middle += size);
  65:Drivers/lvgl/src/misc/lv_utils.c ****         }
  66:Drivers/lvgl/src/misc/lv_utils.c ****         else if(c < 0) {
  73              		.loc 1 66 14 view .LVU13
  74              		.loc 1 66 14 is_stmt 0 view .LVU14
  75 0020 E443     		mvns	r4, r4
  76              	.LVL5:
  62:Drivers/lvgl/src/misc/lv_utils.c ****             n    = (n / 2) - ((n & 1) == 0);
  77              		.loc 1 62 11 view .LVU15
  78 0022 0028     		cmp	r0, #0
  79 0024 04F00104 		and	r4, r4, #1
  80              	.LVL6:
  62:Drivers/lvgl/src/misc/lv_utils.c ****             n    = (n / 2) - ((n & 1) == 0);
  81              		.loc 1 62 11 view .LVU16
  82 0028 0ADD     		ble	.L3
  63:Drivers/lvgl/src/misc/lv_utils.c ****             n    = (n / 2) - ((n & 1) == 0);
  83              		.loc 1 63 18 view .LVU17
  84 002a A9EB0404 		sub	r4, r9, r4
  85              	.LVL7:
  64:Drivers/lvgl/src/misc/lv_utils.c ****             base = (middle += size);
  86              		.loc 1 64 13 is_stmt 1 view .LVU18
  64:Drivers/lvgl/src/misc/lv_utils.c ****             base = (middle += size);
  87              		.loc 1 64 28 is_stmt 0 view .LVU19
  88 002e 0AEB0506 		add	r6, r10, r5
  89              	.LVL8:
  60:Drivers/lvgl/src/misc/lv_utils.c ****         middle += (n / 2) * size;
  90              		.loc 1 60 26 is_stmt 1 view .LVU20
  91 0032 002C     		cmp	r4, #0
  92 0034 EDD1     		bne	.L6
  93              	.LVL9:
  94              	.L2:
  67:Drivers/lvgl/src/misc/lv_utils.c ****             n /= 2;
  68:Drivers/lvgl/src/misc/lv_utils.c ****             middle = base;
  69:Drivers/lvgl/src/misc/lv_utils.c ****         }
  70:Drivers/lvgl/src/misc/lv_utils.c ****         else {
ARM GAS  /var/folders/0z/tsy30v1j4xl4_7kw94k978ww0000gn/T//ccnqmzzU.s 			page 4


  71:Drivers/lvgl/src/misc/lv_utils.c ****             return (char *)middle;
  72:Drivers/lvgl/src/misc/lv_utils.c ****         }
  73:Drivers/lvgl/src/misc/lv_utils.c ****     }
  74:Drivers/lvgl/src/misc/lv_utils.c ****     return NULL;
  95              		.loc 1 74 12 is_stmt 0 view .LVU21
  96 0036 4FF0000A 		mov	r10, #0
  97              	.L1:
  75:Drivers/lvgl/src/misc/lv_utils.c **** }
  98              		.loc 1 75 1 view .LVU22
  99 003a 5046     		mov	r0, r10
 100 003c BDE8F087 		pop	{r4, r5, r6, r7, r8, r9, r10, pc}
 101              	.LVL10:
 102              	.L3:
  66:Drivers/lvgl/src/misc/lv_utils.c ****             n /= 2;
 103              		.loc 1 66 16 view .LVU23
 104 0040 FBD0     		beq	.L1
  67:Drivers/lvgl/src/misc/lv_utils.c ****             n /= 2;
 105              		.loc 1 67 15 view .LVU24
 106 0042 4C46     		mov	r4, r9
 107              	.LVL11:
  60:Drivers/lvgl/src/misc/lv_utils.c ****         middle += (n / 2) * size;
 108              		.loc 1 60 26 is_stmt 1 view .LVU25
 109 0044 002C     		cmp	r4, #0
 110 0046 E4D1     		bne	.L6
  60:Drivers/lvgl/src/misc/lv_utils.c ****         middle += (n / 2) * size;
 111              		.loc 1 60 26 is_stmt 0 view .LVU26
 112 0048 F5E7     		b	.L2
 113              		.cfi_endproc
 114              	.LFE0:
 116 004a 00BF     		.text
 117              	.Letext0:
 118              		.file 2 "/Users/johannes/Library/Application Support/Code/User/globalStorage/bmd.stm32-for-vscode/
 119              		.file 3 "/Users/johannes/Library/Application Support/Code/User/globalStorage/bmd.stm32-for-vscode/
ARM GAS  /var/folders/0z/tsy30v1j4xl4_7kw94k978ww0000gn/T//ccnqmzzU.s 			page 5

