ARM GAS  /var/folders/0z/tsy30v1j4xl4_7kw94k978ww0000gn/T//ccqO2czP.s 			page 1


   1              		.cpu cortex-m4
   2              		.arch armv7e-m
   3              		.fpu fpv4-sp-d16
   4              		.eabi_attribute 27, 1
   5              		.eabi_attribute 28, 1
   6              		.eabi_attribute 23, 1
   7              		.eabi_attribute 24, 1
   8              		.eabi_attribute 25, 1
   9              		.eabi_attribute 26, 1
  10              		.eabi_attribute 30, 2
  11              		.eabi_attribute 34, 1
  12              		.eabi_attribute 18, 4
  13              		.file	"lv_win.c"
  14              		.text
  15              	.Ltext0:
  16              		.cfi_sections	.debug_frame
  17              		.section	.text.lv_win_constructor,"ax",%progbits
  18              		.align	1
  19              		.p2align 2,,3
  20              		.syntax unified
  21              		.thumb
  22              		.thumb_func
  24              	lv_win_constructor:
  25              	.LVL0:
  26              	.LFB209:
  27              		.file 1 "Drivers/lvgl/src/extra/widgets/win/lv_win.c"
   1:Drivers/lvgl/src/extra/widgets/win/lv_win.c **** /**
   2:Drivers/lvgl/src/extra/widgets/win/lv_win.c ****  * @file lv_win.c
   3:Drivers/lvgl/src/extra/widgets/win/lv_win.c ****  *
   4:Drivers/lvgl/src/extra/widgets/win/lv_win.c ****  */
   5:Drivers/lvgl/src/extra/widgets/win/lv_win.c **** 
   6:Drivers/lvgl/src/extra/widgets/win/lv_win.c **** /*********************
   7:Drivers/lvgl/src/extra/widgets/win/lv_win.c ****  *      INCLUDES
   8:Drivers/lvgl/src/extra/widgets/win/lv_win.c ****  *********************/
   9:Drivers/lvgl/src/extra/widgets/win/lv_win.c **** #include "lv_win.h"
  10:Drivers/lvgl/src/extra/widgets/win/lv_win.c **** #if LV_USE_WIN
  11:Drivers/lvgl/src/extra/widgets/win/lv_win.c **** 
  12:Drivers/lvgl/src/extra/widgets/win/lv_win.c **** 
  13:Drivers/lvgl/src/extra/widgets/win/lv_win.c **** /*********************
  14:Drivers/lvgl/src/extra/widgets/win/lv_win.c ****  *      DEFINES
  15:Drivers/lvgl/src/extra/widgets/win/lv_win.c ****  *********************/
  16:Drivers/lvgl/src/extra/widgets/win/lv_win.c **** 
  17:Drivers/lvgl/src/extra/widgets/win/lv_win.c **** /**********************
  18:Drivers/lvgl/src/extra/widgets/win/lv_win.c ****  *      TYPEDEFS
  19:Drivers/lvgl/src/extra/widgets/win/lv_win.c ****  **********************/
  20:Drivers/lvgl/src/extra/widgets/win/lv_win.c **** 
  21:Drivers/lvgl/src/extra/widgets/win/lv_win.c **** /**********************
  22:Drivers/lvgl/src/extra/widgets/win/lv_win.c ****  *  STATIC PROTOTYPES
  23:Drivers/lvgl/src/extra/widgets/win/lv_win.c ****  **********************/
  24:Drivers/lvgl/src/extra/widgets/win/lv_win.c **** static void lv_win_constructor(const lv_obj_class_t * class_p, lv_obj_t * obj);
  25:Drivers/lvgl/src/extra/widgets/win/lv_win.c **** 
  26:Drivers/lvgl/src/extra/widgets/win/lv_win.c **** /**********************
  27:Drivers/lvgl/src/extra/widgets/win/lv_win.c ****  *  STATIC VARIABLES
  28:Drivers/lvgl/src/extra/widgets/win/lv_win.c ****  **********************/
  29:Drivers/lvgl/src/extra/widgets/win/lv_win.c **** const lv_obj_class_t lv_win_class = {
  30:Drivers/lvgl/src/extra/widgets/win/lv_win.c ****     .constructor_cb = lv_win_constructor,
  31:Drivers/lvgl/src/extra/widgets/win/lv_win.c ****     .width_def = LV_PCT(100),
ARM GAS  /var/folders/0z/tsy30v1j4xl4_7kw94k978ww0000gn/T//ccqO2czP.s 			page 2


  32:Drivers/lvgl/src/extra/widgets/win/lv_win.c ****     .height_def = LV_PCT(100),
  33:Drivers/lvgl/src/extra/widgets/win/lv_win.c ****     .base_class = &lv_obj_class,
  34:Drivers/lvgl/src/extra/widgets/win/lv_win.c ****     .instance_size = sizeof(lv_win_t)
  35:Drivers/lvgl/src/extra/widgets/win/lv_win.c **** };
  36:Drivers/lvgl/src/extra/widgets/win/lv_win.c **** static lv_coord_t create_header_height;
  37:Drivers/lvgl/src/extra/widgets/win/lv_win.c **** /**********************
  38:Drivers/lvgl/src/extra/widgets/win/lv_win.c ****  *      MACROS
  39:Drivers/lvgl/src/extra/widgets/win/lv_win.c ****  **********************/
  40:Drivers/lvgl/src/extra/widgets/win/lv_win.c **** 
  41:Drivers/lvgl/src/extra/widgets/win/lv_win.c **** /**********************
  42:Drivers/lvgl/src/extra/widgets/win/lv_win.c ****  *   GLOBAL FUNCTIONS
  43:Drivers/lvgl/src/extra/widgets/win/lv_win.c ****  **********************/
  44:Drivers/lvgl/src/extra/widgets/win/lv_win.c **** 
  45:Drivers/lvgl/src/extra/widgets/win/lv_win.c **** lv_obj_t * lv_win_create(lv_obj_t * parent, lv_coord_t header_height)
  46:Drivers/lvgl/src/extra/widgets/win/lv_win.c **** {
  47:Drivers/lvgl/src/extra/widgets/win/lv_win.c ****     LV_LOG_INFO("begin");
  48:Drivers/lvgl/src/extra/widgets/win/lv_win.c ****     create_header_height = header_height;
  49:Drivers/lvgl/src/extra/widgets/win/lv_win.c **** 
  50:Drivers/lvgl/src/extra/widgets/win/lv_win.c ****     lv_obj_t * obj = lv_obj_class_create_obj(&lv_win_class, parent);
  51:Drivers/lvgl/src/extra/widgets/win/lv_win.c ****     lv_obj_class_init_obj(obj);
  52:Drivers/lvgl/src/extra/widgets/win/lv_win.c ****     return obj;
  53:Drivers/lvgl/src/extra/widgets/win/lv_win.c **** }
  54:Drivers/lvgl/src/extra/widgets/win/lv_win.c **** 
  55:Drivers/lvgl/src/extra/widgets/win/lv_win.c **** lv_obj_t * lv_win_add_title(lv_obj_t * win, const char * txt)
  56:Drivers/lvgl/src/extra/widgets/win/lv_win.c **** {
  57:Drivers/lvgl/src/extra/widgets/win/lv_win.c ****     lv_obj_t * header = lv_win_get_header(win);
  58:Drivers/lvgl/src/extra/widgets/win/lv_win.c ****     lv_obj_t * title = lv_label_create(header);
  59:Drivers/lvgl/src/extra/widgets/win/lv_win.c ****     lv_label_set_long_mode(title, LV_LABEL_LONG_DOT);
  60:Drivers/lvgl/src/extra/widgets/win/lv_win.c ****     lv_label_set_text(title, txt);
  61:Drivers/lvgl/src/extra/widgets/win/lv_win.c ****     lv_obj_set_flex_grow(title, 1);
  62:Drivers/lvgl/src/extra/widgets/win/lv_win.c ****     return title;
  63:Drivers/lvgl/src/extra/widgets/win/lv_win.c **** }
  64:Drivers/lvgl/src/extra/widgets/win/lv_win.c **** 
  65:Drivers/lvgl/src/extra/widgets/win/lv_win.c **** lv_obj_t * lv_win_add_btn(lv_obj_t * win, const void * icon, lv_coord_t btn_w)
  66:Drivers/lvgl/src/extra/widgets/win/lv_win.c **** {
  67:Drivers/lvgl/src/extra/widgets/win/lv_win.c ****     lv_obj_t * header = lv_win_get_header(win);
  68:Drivers/lvgl/src/extra/widgets/win/lv_win.c ****     lv_obj_t * btn = lv_btn_create(header);
  69:Drivers/lvgl/src/extra/widgets/win/lv_win.c ****     lv_obj_set_size(btn, btn_w, LV_PCT(100));
  70:Drivers/lvgl/src/extra/widgets/win/lv_win.c **** 
  71:Drivers/lvgl/src/extra/widgets/win/lv_win.c ****     lv_obj_t * img = lv_img_create(btn);
  72:Drivers/lvgl/src/extra/widgets/win/lv_win.c ****     lv_img_set_src(img, icon);
  73:Drivers/lvgl/src/extra/widgets/win/lv_win.c ****     lv_obj_align(img, LV_ALIGN_CENTER, 0, 0);
  74:Drivers/lvgl/src/extra/widgets/win/lv_win.c **** 
  75:Drivers/lvgl/src/extra/widgets/win/lv_win.c ****     return btn;
  76:Drivers/lvgl/src/extra/widgets/win/lv_win.c **** }
  77:Drivers/lvgl/src/extra/widgets/win/lv_win.c **** 
  78:Drivers/lvgl/src/extra/widgets/win/lv_win.c **** lv_obj_t * lv_win_get_header(lv_obj_t * win)
  79:Drivers/lvgl/src/extra/widgets/win/lv_win.c **** {
  80:Drivers/lvgl/src/extra/widgets/win/lv_win.c ****     return lv_obj_get_child(win, 0);
  81:Drivers/lvgl/src/extra/widgets/win/lv_win.c **** }
  82:Drivers/lvgl/src/extra/widgets/win/lv_win.c **** 
  83:Drivers/lvgl/src/extra/widgets/win/lv_win.c **** lv_obj_t * lv_win_get_content(lv_obj_t * win)
  84:Drivers/lvgl/src/extra/widgets/win/lv_win.c **** {
  85:Drivers/lvgl/src/extra/widgets/win/lv_win.c ****     return lv_obj_get_child(win, 1);
  86:Drivers/lvgl/src/extra/widgets/win/lv_win.c **** }
  87:Drivers/lvgl/src/extra/widgets/win/lv_win.c **** 
  88:Drivers/lvgl/src/extra/widgets/win/lv_win.c **** /**********************
ARM GAS  /var/folders/0z/tsy30v1j4xl4_7kw94k978ww0000gn/T//ccqO2czP.s 			page 3


  89:Drivers/lvgl/src/extra/widgets/win/lv_win.c ****  *   STATIC FUNCTIONS
  90:Drivers/lvgl/src/extra/widgets/win/lv_win.c ****  **********************/
  91:Drivers/lvgl/src/extra/widgets/win/lv_win.c **** 
  92:Drivers/lvgl/src/extra/widgets/win/lv_win.c **** static void lv_win_constructor(const lv_obj_class_t * class_p, lv_obj_t * obj)
  93:Drivers/lvgl/src/extra/widgets/win/lv_win.c **** {
  28              		.loc 1 93 1 view -0
  29              		.cfi_startproc
  30              		@ args = 0, pretend = 0, frame = 8
  31              		@ frame_needed = 0, uses_anonymous_args = 0
  94:Drivers/lvgl/src/extra/widgets/win/lv_win.c ****     LV_UNUSED(class_p);
  32              		.loc 1 94 5 view .LVU1
  95:Drivers/lvgl/src/extra/widgets/win/lv_win.c ****     lv_obj_t * parent = lv_obj_get_parent(obj);
  33              		.loc 1 95 5 view .LVU2
  93:Drivers/lvgl/src/extra/widgets/win/lv_win.c ****     LV_UNUSED(class_p);
  34              		.loc 1 93 1 is_stmt 0 view .LVU3
  35 0000 30B5     		push	{r4, r5, lr}
  36              		.cfi_def_cfa_offset 12
  37              		.cfi_offset 4, -12
  38              		.cfi_offset 5, -8
  39              		.cfi_offset 14, -4
  40              		.loc 1 95 25 view .LVU4
  41 0002 0846     		mov	r0, r1
  42              	.LVL1:
  93:Drivers/lvgl/src/extra/widgets/win/lv_win.c ****     LV_UNUSED(class_p);
  43              		.loc 1 93 1 view .LVU5
  44 0004 83B0     		sub	sp, sp, #12
  45              		.cfi_def_cfa_offset 24
  93:Drivers/lvgl/src/extra/widgets/win/lv_win.c ****     LV_UNUSED(class_p);
  46              		.loc 1 93 1 view .LVU6
  47 0006 0C46     		mov	r4, r1
  48              		.loc 1 95 25 view .LVU7
  49 0008 FFF7FEFF 		bl	lv_obj_get_parent
  50              	.LVL2:
  51              		.loc 1 95 25 view .LVU8
  52 000c 0546     		mov	r5, r0
  53              	.LVL3:
  96:Drivers/lvgl/src/extra/widgets/win/lv_win.c ****     lv_obj_set_size(obj, lv_obj_get_width(parent), lv_obj_get_height(parent));
  54              		.loc 1 96 5 is_stmt 1 view .LVU9
  55 000e FFF7FEFF 		bl	lv_obj_get_width
  56              	.LVL4:
  57              		.loc 1 96 5 is_stmt 0 view .LVU10
  58 0012 0190     		str	r0, [sp, #4]
  59 0014 2846     		mov	r0, r5
  60 0016 FFF7FEFF 		bl	lv_obj_get_height
  61              	.LVL5:
  62 001a 0199     		ldr	r1, [sp, #4]
  63 001c 0246     		mov	r2, r0
  64 001e 2046     		mov	r0, r4
  65 0020 FFF7FEFF 		bl	lv_obj_set_size
  66              	.LVL6:
  97:Drivers/lvgl/src/extra/widgets/win/lv_win.c ****     lv_obj_set_flex_flow(obj, LV_FLEX_FLOW_COLUMN);
  67              		.loc 1 97 5 is_stmt 1 view .LVU11
  68 0024 0121     		movs	r1, #1
  69 0026 2046     		mov	r0, r4
  70 0028 FFF7FEFF 		bl	lv_obj_set_flex_flow
  71              	.LVL7:
  98:Drivers/lvgl/src/extra/widgets/win/lv_win.c **** 
ARM GAS  /var/folders/0z/tsy30v1j4xl4_7kw94k978ww0000gn/T//ccqO2czP.s 			page 4


  99:Drivers/lvgl/src/extra/widgets/win/lv_win.c ****     lv_obj_t * header = lv_obj_create(obj);
  72              		.loc 1 99 5 view .LVU12
  73              		.loc 1 99 25 is_stmt 0 view .LVU13
  74 002c 2046     		mov	r0, r4
  75 002e FFF7FEFF 		bl	lv_obj_create
  76              	.LVL8:
 100:Drivers/lvgl/src/extra/widgets/win/lv_win.c ****     lv_obj_set_size(header, LV_PCT(100), create_header_height);
  77              		.loc 1 100 5 view .LVU14
  78 0032 104B     		ldr	r3, .L4
  99:Drivers/lvgl/src/extra/widgets/win/lv_win.c ****     lv_obj_set_size(header, LV_PCT(100), create_header_height);
  79              		.loc 1 99 25 view .LVU15
  80 0034 0546     		mov	r5, r0
  81              	.LVL9:
  82              		.loc 1 100 5 is_stmt 1 view .LVU16
  83 0036 B3F90020 		ldrsh	r2, [r3]
  84 003a 42F26401 		movw	r1, #8292
  85 003e FFF7FEFF 		bl	lv_obj_set_size
  86              	.LVL10:
 101:Drivers/lvgl/src/extra/widgets/win/lv_win.c ****     lv_obj_set_flex_flow(header, LV_FLEX_FLOW_ROW);
  87              		.loc 1 101 5 view .LVU17
  88 0042 2846     		mov	r0, r5
  89 0044 0021     		movs	r1, #0
  90 0046 FFF7FEFF 		bl	lv_obj_set_flex_flow
  91              	.LVL11:
 102:Drivers/lvgl/src/extra/widgets/win/lv_win.c ****     lv_obj_set_flex_align(header, LV_FLEX_ALIGN_START, LV_FLEX_ALIGN_CENTER, LV_FLEX_ALIGN_CENTER);
  92              		.loc 1 102 5 view .LVU18
  93 004a 0223     		movs	r3, #2
  94 004c 1A46     		mov	r2, r3
  95 004e 0021     		movs	r1, #0
  96 0050 2846     		mov	r0, r5
  97 0052 FFF7FEFF 		bl	lv_obj_set_flex_align
  98              	.LVL12:
 103:Drivers/lvgl/src/extra/widgets/win/lv_win.c **** 
 104:Drivers/lvgl/src/extra/widgets/win/lv_win.c ****     lv_obj_t * cont = lv_obj_create(obj);
  99              		.loc 1 104 5 view .LVU19
 100              		.loc 1 104 23 is_stmt 0 view .LVU20
 101 0056 2046     		mov	r0, r4
 102 0058 FFF7FEFF 		bl	lv_obj_create
 103              	.LVL13:
 105:Drivers/lvgl/src/extra/widgets/win/lv_win.c ****     lv_obj_set_flex_grow(cont, 1);
 104              		.loc 1 105 5 view .LVU21
 105 005c 0121     		movs	r1, #1
 104:Drivers/lvgl/src/extra/widgets/win/lv_win.c ****     lv_obj_set_flex_grow(cont, 1);
 106              		.loc 1 104 23 view .LVU22
 107 005e 0446     		mov	r4, r0
 108              	.LVL14:
 109              		.loc 1 105 5 is_stmt 1 view .LVU23
 110 0060 FFF7FEFF 		bl	lv_obj_set_flex_grow
 111              	.LVL15:
 106:Drivers/lvgl/src/extra/widgets/win/lv_win.c ****     lv_obj_set_width(cont, LV_PCT(100));
 112              		.loc 1 106 5 view .LVU24
 113 0064 42F26401 		movw	r1, #8292
 114 0068 2046     		mov	r0, r4
 107:Drivers/lvgl/src/extra/widgets/win/lv_win.c **** }
 115              		.loc 1 107 1 is_stmt 0 view .LVU25
 116 006a 03B0     		add	sp, sp, #12
 117              		.cfi_def_cfa_offset 12
ARM GAS  /var/folders/0z/tsy30v1j4xl4_7kw94k978ww0000gn/T//ccqO2czP.s 			page 5


 118              		@ sp needed
 119 006c BDE83040 		pop	{r4, r5, lr}
 120              		.cfi_restore 14
 121              		.cfi_restore 5
 122              		.cfi_restore 4
 123              		.cfi_def_cfa_offset 0
 124              	.LVL16:
 106:Drivers/lvgl/src/extra/widgets/win/lv_win.c ****     lv_obj_set_width(cont, LV_PCT(100));
 125              		.loc 1 106 5 view .LVU26
 126 0070 FFF7FEBF 		b	lv_obj_set_width
 127              	.LVL17:
 128              	.L5:
 106:Drivers/lvgl/src/extra/widgets/win/lv_win.c ****     lv_obj_set_width(cont, LV_PCT(100));
 129              		.loc 1 106 5 view .LVU27
 130              		.align	2
 131              	.L4:
 132 0074 00000000 		.word	.LANCHOR0
 133              		.cfi_endproc
 134              	.LFE209:
 136              		.section	.text.lv_win_create,"ax",%progbits
 137              		.align	1
 138              		.p2align 2,,3
 139              		.global	lv_win_create
 140              		.syntax unified
 141              		.thumb
 142              		.thumb_func
 144              	lv_win_create:
 145              	.LVL18:
 146              	.LFB204:
  46:Drivers/lvgl/src/extra/widgets/win/lv_win.c ****     LV_LOG_INFO("begin");
 147              		.loc 1 46 1 is_stmt 1 view -0
 148              		.cfi_startproc
 149              		@ args = 0, pretend = 0, frame = 0
 150              		@ frame_needed = 0, uses_anonymous_args = 0
  47:Drivers/lvgl/src/extra/widgets/win/lv_win.c ****     create_header_height = header_height;
 151              		.loc 1 47 5 view .LVU29
  47:Drivers/lvgl/src/extra/widgets/win/lv_win.c ****     create_header_height = header_height;
 152              		.loc 1 47 5 view .LVU30
  47:Drivers/lvgl/src/extra/widgets/win/lv_win.c ****     create_header_height = header_height;
 153              		.loc 1 47 5 view .LVU31
  48:Drivers/lvgl/src/extra/widgets/win/lv_win.c **** 
 154              		.loc 1 48 5 view .LVU32
  46:Drivers/lvgl/src/extra/widgets/win/lv_win.c ****     LV_LOG_INFO("begin");
 155              		.loc 1 46 1 is_stmt 0 view .LVU33
 156 0000 10B5     		push	{r4, lr}
 157              		.cfi_def_cfa_offset 8
 158              		.cfi_offset 4, -8
 159              		.cfi_offset 14, -4
  48:Drivers/lvgl/src/extra/widgets/win/lv_win.c **** 
 160              		.loc 1 48 26 view .LVU34
 161 0002 064B     		ldr	r3, .L8
  46:Drivers/lvgl/src/extra/widgets/win/lv_win.c ****     LV_LOG_INFO("begin");
 162              		.loc 1 46 1 view .LVU35
 163 0004 0446     		mov	r4, r0
 164 0006 0A46     		mov	r2, r1
  50:Drivers/lvgl/src/extra/widgets/win/lv_win.c ****     lv_obj_class_init_obj(obj);
 165              		.loc 1 50 22 view .LVU36
ARM GAS  /var/folders/0z/tsy30v1j4xl4_7kw94k978ww0000gn/T//ccqO2czP.s 			page 6


 166 0008 0548     		ldr	r0, .L8+4
 167              	.LVL19:
  48:Drivers/lvgl/src/extra/widgets/win/lv_win.c **** 
 168              		.loc 1 48 26 view .LVU37
 169 000a 1A80     		strh	r2, [r3]	@ movhi
  50:Drivers/lvgl/src/extra/widgets/win/lv_win.c ****     lv_obj_class_init_obj(obj);
 170              		.loc 1 50 5 is_stmt 1 view .LVU38
  50:Drivers/lvgl/src/extra/widgets/win/lv_win.c ****     lv_obj_class_init_obj(obj);
 171              		.loc 1 50 22 is_stmt 0 view .LVU39
 172 000c 2146     		mov	r1, r4
 173              	.LVL20:
  50:Drivers/lvgl/src/extra/widgets/win/lv_win.c ****     lv_obj_class_init_obj(obj);
 174              		.loc 1 50 22 view .LVU40
 175 000e FFF7FEFF 		bl	lv_obj_class_create_obj
 176              	.LVL21:
 177 0012 0446     		mov	r4, r0
 178              	.LVL22:
  51:Drivers/lvgl/src/extra/widgets/win/lv_win.c ****     return obj;
 179              		.loc 1 51 5 is_stmt 1 view .LVU41
 180 0014 FFF7FEFF 		bl	lv_obj_class_init_obj
 181              	.LVL23:
  52:Drivers/lvgl/src/extra/widgets/win/lv_win.c **** }
 182              		.loc 1 52 5 view .LVU42
  53:Drivers/lvgl/src/extra/widgets/win/lv_win.c **** 
 183              		.loc 1 53 1 is_stmt 0 view .LVU43
 184 0018 2046     		mov	r0, r4
 185 001a 10BD     		pop	{r4, pc}
 186              	.LVL24:
 187              	.L9:
  53:Drivers/lvgl/src/extra/widgets/win/lv_win.c **** 
 188              		.loc 1 53 1 view .LVU44
 189              		.align	2
 190              	.L8:
 191 001c 00000000 		.word	.LANCHOR0
 192 0020 00000000 		.word	.LANCHOR1
 193              		.cfi_endproc
 194              	.LFE204:
 196              		.section	.text.lv_win_add_title,"ax",%progbits
 197              		.align	1
 198              		.p2align 2,,3
 199              		.global	lv_win_add_title
 200              		.syntax unified
 201              		.thumb
 202              		.thumb_func
 204              	lv_win_add_title:
 205              	.LVL25:
 206              	.LFB205:
  56:Drivers/lvgl/src/extra/widgets/win/lv_win.c ****     lv_obj_t * header = lv_win_get_header(win);
 207              		.loc 1 56 1 is_stmt 1 view -0
 208              		.cfi_startproc
 209              		@ args = 0, pretend = 0, frame = 0
 210              		@ frame_needed = 0, uses_anonymous_args = 0
  57:Drivers/lvgl/src/extra/widgets/win/lv_win.c ****     lv_obj_t * title = lv_label_create(header);
 211              		.loc 1 57 5 view .LVU46
 212              	.LBB6:
 213              	.LBI6:
  78:Drivers/lvgl/src/extra/widgets/win/lv_win.c **** {
ARM GAS  /var/folders/0z/tsy30v1j4xl4_7kw94k978ww0000gn/T//ccqO2czP.s 			page 7


 214              		.loc 1 78 12 view .LVU47
 215              	.LBB7:
  80:Drivers/lvgl/src/extra/widgets/win/lv_win.c **** }
 216              		.loc 1 80 5 view .LVU48
 217              	.LBE7:
 218              	.LBE6:
  56:Drivers/lvgl/src/extra/widgets/win/lv_win.c ****     lv_obj_t * header = lv_win_get_header(win);
 219              		.loc 1 56 1 is_stmt 0 view .LVU49
 220 0000 38B5     		push	{r3, r4, r5, lr}
 221              		.cfi_def_cfa_offset 16
 222              		.cfi_offset 3, -16
 223              		.cfi_offset 4, -12
 224              		.cfi_offset 5, -8
 225              		.cfi_offset 14, -4
  56:Drivers/lvgl/src/extra/widgets/win/lv_win.c ****     lv_obj_t * header = lv_win_get_header(win);
 226              		.loc 1 56 1 view .LVU50
 227 0002 0D46     		mov	r5, r1
 228              	.LBB9:
 229              	.LBB8:
  80:Drivers/lvgl/src/extra/widgets/win/lv_win.c **** }
 230              		.loc 1 80 12 view .LVU51
 231 0004 0021     		movs	r1, #0
 232              	.LVL26:
  80:Drivers/lvgl/src/extra/widgets/win/lv_win.c **** }
 233              		.loc 1 80 12 view .LVU52
 234 0006 FFF7FEFF 		bl	lv_obj_get_child
 235              	.LVL27:
  80:Drivers/lvgl/src/extra/widgets/win/lv_win.c **** }
 236              		.loc 1 80 12 view .LVU53
 237              	.LBE8:
 238              	.LBE9:
  58:Drivers/lvgl/src/extra/widgets/win/lv_win.c ****     lv_label_set_long_mode(title, LV_LABEL_LONG_DOT);
 239              		.loc 1 58 5 is_stmt 1 view .LVU54
  58:Drivers/lvgl/src/extra/widgets/win/lv_win.c ****     lv_label_set_long_mode(title, LV_LABEL_LONG_DOT);
 240              		.loc 1 58 24 is_stmt 0 view .LVU55
 241 000a FFF7FEFF 		bl	lv_label_create
 242              	.LVL28:
  59:Drivers/lvgl/src/extra/widgets/win/lv_win.c ****     lv_label_set_text(title, txt);
 243              		.loc 1 59 5 view .LVU56
 244 000e 0121     		movs	r1, #1
  58:Drivers/lvgl/src/extra/widgets/win/lv_win.c ****     lv_label_set_long_mode(title, LV_LABEL_LONG_DOT);
 245              		.loc 1 58 24 view .LVU57
 246 0010 0446     		mov	r4, r0
 247              	.LVL29:
  59:Drivers/lvgl/src/extra/widgets/win/lv_win.c ****     lv_label_set_text(title, txt);
 248              		.loc 1 59 5 is_stmt 1 view .LVU58
 249 0012 FFF7FEFF 		bl	lv_label_set_long_mode
 250              	.LVL30:
  60:Drivers/lvgl/src/extra/widgets/win/lv_win.c ****     lv_obj_set_flex_grow(title, 1);
 251              		.loc 1 60 5 view .LVU59
 252 0016 2946     		mov	r1, r5
 253 0018 2046     		mov	r0, r4
 254 001a FFF7FEFF 		bl	lv_label_set_text
 255              	.LVL31:
  61:Drivers/lvgl/src/extra/widgets/win/lv_win.c ****     return title;
 256              		.loc 1 61 5 view .LVU60
 257 001e 2046     		mov	r0, r4
ARM GAS  /var/folders/0z/tsy30v1j4xl4_7kw94k978ww0000gn/T//ccqO2czP.s 			page 8


 258 0020 0121     		movs	r1, #1
 259 0022 FFF7FEFF 		bl	lv_obj_set_flex_grow
 260              	.LVL32:
  62:Drivers/lvgl/src/extra/widgets/win/lv_win.c **** }
 261              		.loc 1 62 5 view .LVU61
  63:Drivers/lvgl/src/extra/widgets/win/lv_win.c **** 
 262              		.loc 1 63 1 is_stmt 0 view .LVU62
 263 0026 2046     		mov	r0, r4
 264 0028 38BD     		pop	{r3, r4, r5, pc}
  63:Drivers/lvgl/src/extra/widgets/win/lv_win.c **** 
 265              		.loc 1 63 1 view .LVU63
 266              		.cfi_endproc
 267              	.LFE205:
 269 002a 00BF     		.section	.text.lv_win_add_btn,"ax",%progbits
 270              		.align	1
 271              		.p2align 2,,3
 272              		.global	lv_win_add_btn
 273              		.syntax unified
 274              		.thumb
 275              		.thumb_func
 277              	lv_win_add_btn:
 278              	.LVL33:
 279              	.LFB206:
  66:Drivers/lvgl/src/extra/widgets/win/lv_win.c ****     lv_obj_t * header = lv_win_get_header(win);
 280              		.loc 1 66 1 is_stmt 1 view -0
 281              		.cfi_startproc
 282              		@ args = 0, pretend = 0, frame = 0
 283              		@ frame_needed = 0, uses_anonymous_args = 0
  67:Drivers/lvgl/src/extra/widgets/win/lv_win.c ****     lv_obj_t * btn = lv_btn_create(header);
 284              		.loc 1 67 5 view .LVU65
 285              	.LBB10:
 286              	.LBI10:
  78:Drivers/lvgl/src/extra/widgets/win/lv_win.c **** {
 287              		.loc 1 78 12 view .LVU66
 288              	.LBB11:
  80:Drivers/lvgl/src/extra/widgets/win/lv_win.c **** }
 289              		.loc 1 80 5 view .LVU67
 290              	.LBE11:
 291              	.LBE10:
  66:Drivers/lvgl/src/extra/widgets/win/lv_win.c ****     lv_obj_t * header = lv_win_get_header(win);
 292              		.loc 1 66 1 is_stmt 0 view .LVU68
 293 0000 38B5     		push	{r3, r4, r5, lr}
 294              		.cfi_def_cfa_offset 16
 295              		.cfi_offset 3, -16
 296              		.cfi_offset 4, -12
 297              		.cfi_offset 5, -8
 298              		.cfi_offset 14, -4
  66:Drivers/lvgl/src/extra/widgets/win/lv_win.c ****     lv_obj_t * header = lv_win_get_header(win);
 299              		.loc 1 66 1 view .LVU69
 300 0002 0D46     		mov	r5, r1
 301              	.LBB14:
 302              	.LBB12:
  80:Drivers/lvgl/src/extra/widgets/win/lv_win.c **** }
 303              		.loc 1 80 12 view .LVU70
 304 0004 0021     		movs	r1, #0
 305              	.LVL34:
  80:Drivers/lvgl/src/extra/widgets/win/lv_win.c **** }
ARM GAS  /var/folders/0z/tsy30v1j4xl4_7kw94k978ww0000gn/T//ccqO2czP.s 			page 9


 306              		.loc 1 80 12 view .LVU71
 307              	.LBE12:
 308              	.LBE14:
  66:Drivers/lvgl/src/extra/widgets/win/lv_win.c ****     lv_obj_t * header = lv_win_get_header(win);
 309              		.loc 1 66 1 view .LVU72
 310 0006 1446     		mov	r4, r2
 311              	.LBB15:
 312              	.LBB13:
  80:Drivers/lvgl/src/extra/widgets/win/lv_win.c **** }
 313              		.loc 1 80 12 view .LVU73
 314 0008 FFF7FEFF 		bl	lv_obj_get_child
 315              	.LVL35:
  80:Drivers/lvgl/src/extra/widgets/win/lv_win.c **** }
 316              		.loc 1 80 12 view .LVU74
 317              	.LBE13:
 318              	.LBE15:
  68:Drivers/lvgl/src/extra/widgets/win/lv_win.c ****     lv_obj_set_size(btn, btn_w, LV_PCT(100));
 319              		.loc 1 68 5 is_stmt 1 view .LVU75
  68:Drivers/lvgl/src/extra/widgets/win/lv_win.c ****     lv_obj_set_size(btn, btn_w, LV_PCT(100));
 320              		.loc 1 68 22 is_stmt 0 view .LVU76
 321 000c FFF7FEFF 		bl	lv_btn_create
 322              	.LVL36:
  69:Drivers/lvgl/src/extra/widgets/win/lv_win.c **** 
 323              		.loc 1 69 5 view .LVU77
 324 0010 42F26402 		movw	r2, #8292
 325 0014 2146     		mov	r1, r4
  68:Drivers/lvgl/src/extra/widgets/win/lv_win.c ****     lv_obj_set_size(btn, btn_w, LV_PCT(100));
 326              		.loc 1 68 22 view .LVU78
 327 0016 0446     		mov	r4, r0
 328              	.LVL37:
  69:Drivers/lvgl/src/extra/widgets/win/lv_win.c **** 
 329              		.loc 1 69 5 is_stmt 1 view .LVU79
 330 0018 FFF7FEFF 		bl	lv_obj_set_size
 331              	.LVL38:
  71:Drivers/lvgl/src/extra/widgets/win/lv_win.c ****     lv_img_set_src(img, icon);
 332              		.loc 1 71 5 view .LVU80
  71:Drivers/lvgl/src/extra/widgets/win/lv_win.c ****     lv_img_set_src(img, icon);
 333              		.loc 1 71 22 is_stmt 0 view .LVU81
 334 001c 2046     		mov	r0, r4
 335 001e FFF7FEFF 		bl	lv_img_create
 336              	.LVL39:
  72:Drivers/lvgl/src/extra/widgets/win/lv_win.c ****     lv_obj_align(img, LV_ALIGN_CENTER, 0, 0);
 337              		.loc 1 72 5 view .LVU82
 338 0022 2946     		mov	r1, r5
  71:Drivers/lvgl/src/extra/widgets/win/lv_win.c ****     lv_img_set_src(img, icon);
 339              		.loc 1 71 22 view .LVU83
 340 0024 0546     		mov	r5, r0
 341              	.LVL40:
  72:Drivers/lvgl/src/extra/widgets/win/lv_win.c ****     lv_obj_align(img, LV_ALIGN_CENTER, 0, 0);
 342              		.loc 1 72 5 is_stmt 1 view .LVU84
 343 0026 FFF7FEFF 		bl	lv_img_set_src
 344              	.LVL41:
  73:Drivers/lvgl/src/extra/widgets/win/lv_win.c **** 
 345              		.loc 1 73 5 view .LVU85
 346 002a 0023     		movs	r3, #0
 347 002c 2846     		mov	r0, r5
 348 002e 1A46     		mov	r2, r3
ARM GAS  /var/folders/0z/tsy30v1j4xl4_7kw94k978ww0000gn/T//ccqO2czP.s 			page 10


 349 0030 0921     		movs	r1, #9
 350 0032 FFF7FEFF 		bl	lv_obj_align
 351              	.LVL42:
  75:Drivers/lvgl/src/extra/widgets/win/lv_win.c **** }
 352              		.loc 1 75 5 view .LVU86
  76:Drivers/lvgl/src/extra/widgets/win/lv_win.c **** 
 353              		.loc 1 76 1 is_stmt 0 view .LVU87
 354 0036 2046     		mov	r0, r4
 355 0038 38BD     		pop	{r3, r4, r5, pc}
  76:Drivers/lvgl/src/extra/widgets/win/lv_win.c **** 
 356              		.loc 1 76 1 view .LVU88
 357              		.cfi_endproc
 358              	.LFE206:
 360 003a 00BF     		.section	.text.lv_win_get_header,"ax",%progbits
 361              		.align	1
 362              		.p2align 2,,3
 363              		.global	lv_win_get_header
 364              		.syntax unified
 365              		.thumb
 366              		.thumb_func
 368              	lv_win_get_header:
 369              	.LVL43:
 370              	.LFB207:
  79:Drivers/lvgl/src/extra/widgets/win/lv_win.c ****     return lv_obj_get_child(win, 0);
 371              		.loc 1 79 1 is_stmt 1 view -0
 372              		.cfi_startproc
 373              		@ args = 0, pretend = 0, frame = 0
 374              		@ frame_needed = 0, uses_anonymous_args = 0
 375              		@ link register save eliminated.
  80:Drivers/lvgl/src/extra/widgets/win/lv_win.c **** }
 376              		.loc 1 80 5 view .LVU90
  80:Drivers/lvgl/src/extra/widgets/win/lv_win.c **** }
 377              		.loc 1 80 12 is_stmt 0 view .LVU91
 378 0000 0021     		movs	r1, #0
 379 0002 FFF7FEBF 		b	lv_obj_get_child
 380              	.LVL44:
  80:Drivers/lvgl/src/extra/widgets/win/lv_win.c **** }
 381              		.loc 1 80 12 view .LVU92
 382              		.cfi_endproc
 383              	.LFE207:
 385 0006 00BF     		.section	.text.lv_win_get_content,"ax",%progbits
 386              		.align	1
 387              		.p2align 2,,3
 388              		.global	lv_win_get_content
 389              		.syntax unified
 390              		.thumb
 391              		.thumb_func
 393              	lv_win_get_content:
 394              	.LVL45:
 395              	.LFB208:
  84:Drivers/lvgl/src/extra/widgets/win/lv_win.c ****     return lv_obj_get_child(win, 1);
 396              		.loc 1 84 1 is_stmt 1 view -0
 397              		.cfi_startproc
 398              		@ args = 0, pretend = 0, frame = 0
 399              		@ frame_needed = 0, uses_anonymous_args = 0
 400              		@ link register save eliminated.
  85:Drivers/lvgl/src/extra/widgets/win/lv_win.c **** }
ARM GAS  /var/folders/0z/tsy30v1j4xl4_7kw94k978ww0000gn/T//ccqO2czP.s 			page 11


 401              		.loc 1 85 5 view .LVU94
  85:Drivers/lvgl/src/extra/widgets/win/lv_win.c **** }
 402              		.loc 1 85 12 is_stmt 0 view .LVU95
 403 0000 0121     		movs	r1, #1
 404 0002 FFF7FEBF 		b	lv_obj_get_child
 405              	.LVL46:
  85:Drivers/lvgl/src/extra/widgets/win/lv_win.c **** }
 406              		.loc 1 85 12 view .LVU96
 407              		.cfi_endproc
 408              	.LFE208:
 410              		.global	lv_win_class
 411 0006 00BF     		.section	.bss.create_header_height,"aw",%nobits
 412              		.align	1
 413              		.set	.LANCHOR0,. + 0
 416              	create_header_height:
 417 0000 0000     		.space	2
 418              		.section	.rodata.lv_win_class,"a"
 419              		.align	2
 420              		.set	.LANCHOR1,. + 0
 423              	lv_win_class:
 424 0000 00000000 		.word	lv_obj_class
 425 0004 00000000 		.word	lv_win_constructor
 426 0008 00000000 		.space	12
 426      00000000 
 426      00000000 
 427 0014 6420     		.short	8292
 428 0016 6420     		.short	8292
 429 0018 40       		.byte	64
 430 0019 02       		.byte	2
 431 001a 00       		.byte	0
 432 001b 00       		.space	1
 433              		.text
 434              	.Letext0:
 435              		.file 2 "/Users/johannes/Library/Application Support/Code/User/globalStorage/bmd.stm32-for-vscode/
 436              		.file 3 "/Users/johannes/Library/Application Support/Code/User/globalStorage/bmd.stm32-for-vscode/
 437              		.file 4 "Drivers/lvgl/src/extra/widgets/win/../../../../src/hal/../draw/../misc/../font/../misc/lv
 438              		.file 5 "Drivers/lvgl/src/extra/widgets/win/../../../../src/hal/../draw/../misc/lv_color.h"
 439              		.file 6 "Drivers/lvgl/src/extra/widgets/win/../../../../src/hal/../draw/../misc/lv_style.h"
 440              		.file 7 "Drivers/lvgl/src/extra/widgets/win/../../../../src/core/lv_obj.h"
 441              		.file 8 "Drivers/lvgl/src/extra/widgets/win/../../../../src/hal/../misc/lv_ll.h"
 442              		.file 9 "Drivers/lvgl/src/extra/widgets/win/../../../../src/core/lv_group.h"
 443              		.file 10 "Drivers/lvgl/src/extra/widgets/win/../../../../src/core/lv_obj_scroll.h"
 444              		.file 11 "Drivers/lvgl/src/extra/widgets/win/../../../../src/core/lv_obj_style.h"
 445              		.file 12 "Drivers/lvgl/src/extra/widgets/win/../../../../src/core/lv_obj_class.h"
 446              		.file 13 "Drivers/lvgl/src/extra/widgets/win/../../../../src/core/lv_event.h"
 447              		.file 14 "Drivers/lvgl/src/extra/widgets/win/../../../../src/widgets/lv_label.h"
 448              		.file 15 "Drivers/lvgl/src/extra/widgets/win/../../../../src/widgets/lv_bar.h"
 449              		.file 16 "Drivers/lvgl/src/extra/widgets/win/../../../../src/extra/layouts/flex/lv_flex.h"
 450              		.file 17 "Drivers/lvgl/src/extra/widgets/win/../../../../src/extra/widgets/imgbtn/lv_imgbtn.h"
 451              		.file 18 "Drivers/lvgl/src/extra/widgets/win/lv_win.h"
 452              		.file 19 "Drivers/lvgl/src/extra/widgets/win/../../../../src/hal/../draw/sw/../../core/lv_obj_pos.
 453              		.file 20 "Drivers/lvgl/src/extra/widgets/win/../../../../src/widgets/lv_img.h"
 454              		.file 21 "Drivers/lvgl/src/extra/widgets/win/../../../../src/core/lv_obj_tree.h"
 455              		.file 22 "Drivers/lvgl/src/extra/widgets/win/../../../../src/widgets/lv_btn.h"
ARM GAS  /var/folders/0z/tsy30v1j4xl4_7kw94k978ww0000gn/T//ccqO2czP.s 			page 12

