ARM GAS  /var/folders/0z/tsy30v1j4xl4_7kw94k978ww0000gn/T//cc3ERoSb.s 			page 1


   1              		.cpu cortex-m4
   2              		.arch armv7e-m
   3              		.fpu fpv4-sp-d16
   4              		.eabi_attribute 27, 1
   5              		.eabi_attribute 28, 1
   6              		.eabi_attribute 20, 1
   7              		.eabi_attribute 21, 1
   8              		.eabi_attribute 23, 3
   9              		.eabi_attribute 24, 1
  10              		.eabi_attribute 25, 1
  11              		.eabi_attribute 26, 1
  12              		.eabi_attribute 30, 2
  13              		.eabi_attribute 34, 1
  14              		.eabi_attribute 18, 4
  15              		.file	"lv_win.c"
  16              		.text
  17              	.Ltext0:
  18              		.cfi_sections	.debug_frame
  19              		.section	.text.lv_win_constructor,"ax",%progbits
  20              		.align	1
  21              		.p2align 2,,3
  22              		.syntax unified
  23              		.thumb
  24              		.thumb_func
  26              	lv_win_constructor:
  27              	.LVL0:
  28              	.LFB209:
  29              		.file 1 "Drivers/lvgl/src/extra/widgets/win/lv_win.c"
   1:Drivers/lvgl/src/extra/widgets/win/lv_win.c **** /**
   2:Drivers/lvgl/src/extra/widgets/win/lv_win.c ****  * @file lv_win.c
   3:Drivers/lvgl/src/extra/widgets/win/lv_win.c ****  *
   4:Drivers/lvgl/src/extra/widgets/win/lv_win.c ****  */
   5:Drivers/lvgl/src/extra/widgets/win/lv_win.c **** 
   6:Drivers/lvgl/src/extra/widgets/win/lv_win.c **** /*********************
   7:Drivers/lvgl/src/extra/widgets/win/lv_win.c ****  *      INCLUDES
   8:Drivers/lvgl/src/extra/widgets/win/lv_win.c ****  *********************/
   9:Drivers/lvgl/src/extra/widgets/win/lv_win.c **** #include "lv_win.h"
  10:Drivers/lvgl/src/extra/widgets/win/lv_win.c **** #if LV_USE_WIN
  11:Drivers/lvgl/src/extra/widgets/win/lv_win.c **** 
  12:Drivers/lvgl/src/extra/widgets/win/lv_win.c **** 
  13:Drivers/lvgl/src/extra/widgets/win/lv_win.c **** /*********************
  14:Drivers/lvgl/src/extra/widgets/win/lv_win.c ****  *      DEFINES
  15:Drivers/lvgl/src/extra/widgets/win/lv_win.c ****  *********************/
  16:Drivers/lvgl/src/extra/widgets/win/lv_win.c **** 
  17:Drivers/lvgl/src/extra/widgets/win/lv_win.c **** /**********************
  18:Drivers/lvgl/src/extra/widgets/win/lv_win.c ****  *      TYPEDEFS
  19:Drivers/lvgl/src/extra/widgets/win/lv_win.c ****  **********************/
  20:Drivers/lvgl/src/extra/widgets/win/lv_win.c **** 
  21:Drivers/lvgl/src/extra/widgets/win/lv_win.c **** /**********************
  22:Drivers/lvgl/src/extra/widgets/win/lv_win.c ****  *  STATIC PROTOTYPES
  23:Drivers/lvgl/src/extra/widgets/win/lv_win.c ****  **********************/
  24:Drivers/lvgl/src/extra/widgets/win/lv_win.c **** static void lv_win_constructor(const lv_obj_class_t * class_p, lv_obj_t * obj);
  25:Drivers/lvgl/src/extra/widgets/win/lv_win.c **** 
  26:Drivers/lvgl/src/extra/widgets/win/lv_win.c **** /**********************
  27:Drivers/lvgl/src/extra/widgets/win/lv_win.c ****  *  STATIC VARIABLES
  28:Drivers/lvgl/src/extra/widgets/win/lv_win.c ****  **********************/
  29:Drivers/lvgl/src/extra/widgets/win/lv_win.c **** const lv_obj_class_t lv_win_class = {
ARM GAS  /var/folders/0z/tsy30v1j4xl4_7kw94k978ww0000gn/T//cc3ERoSb.s 			page 2


  30:Drivers/lvgl/src/extra/widgets/win/lv_win.c ****     .constructor_cb = lv_win_constructor,
  31:Drivers/lvgl/src/extra/widgets/win/lv_win.c ****     .width_def = LV_PCT(100),
  32:Drivers/lvgl/src/extra/widgets/win/lv_win.c ****     .height_def = LV_PCT(100),
  33:Drivers/lvgl/src/extra/widgets/win/lv_win.c ****     .base_class = &lv_obj_class,
  34:Drivers/lvgl/src/extra/widgets/win/lv_win.c ****     .instance_size = sizeof(lv_win_t)
  35:Drivers/lvgl/src/extra/widgets/win/lv_win.c **** };
  36:Drivers/lvgl/src/extra/widgets/win/lv_win.c **** static lv_coord_t create_header_height;
  37:Drivers/lvgl/src/extra/widgets/win/lv_win.c **** /**********************
  38:Drivers/lvgl/src/extra/widgets/win/lv_win.c ****  *      MACROS
  39:Drivers/lvgl/src/extra/widgets/win/lv_win.c ****  **********************/
  40:Drivers/lvgl/src/extra/widgets/win/lv_win.c **** 
  41:Drivers/lvgl/src/extra/widgets/win/lv_win.c **** /**********************
  42:Drivers/lvgl/src/extra/widgets/win/lv_win.c ****  *   GLOBAL FUNCTIONS
  43:Drivers/lvgl/src/extra/widgets/win/lv_win.c ****  **********************/
  44:Drivers/lvgl/src/extra/widgets/win/lv_win.c **** 
  45:Drivers/lvgl/src/extra/widgets/win/lv_win.c **** lv_obj_t * lv_win_create(lv_obj_t * parent, lv_coord_t header_height)
  46:Drivers/lvgl/src/extra/widgets/win/lv_win.c **** {
  47:Drivers/lvgl/src/extra/widgets/win/lv_win.c ****     LV_LOG_INFO("begin");
  48:Drivers/lvgl/src/extra/widgets/win/lv_win.c ****     create_header_height = header_height;
  49:Drivers/lvgl/src/extra/widgets/win/lv_win.c **** 
  50:Drivers/lvgl/src/extra/widgets/win/lv_win.c ****     lv_obj_t * obj = lv_obj_class_create_obj(&lv_win_class, parent);
  51:Drivers/lvgl/src/extra/widgets/win/lv_win.c ****     lv_obj_class_init_obj(obj);
  52:Drivers/lvgl/src/extra/widgets/win/lv_win.c ****     return obj;
  53:Drivers/lvgl/src/extra/widgets/win/lv_win.c **** }
  54:Drivers/lvgl/src/extra/widgets/win/lv_win.c **** 
  55:Drivers/lvgl/src/extra/widgets/win/lv_win.c **** lv_obj_t * lv_win_add_title(lv_obj_t * win, const char * txt)
  56:Drivers/lvgl/src/extra/widgets/win/lv_win.c **** {
  57:Drivers/lvgl/src/extra/widgets/win/lv_win.c ****     lv_obj_t * header = lv_win_get_header(win);
  58:Drivers/lvgl/src/extra/widgets/win/lv_win.c ****     lv_obj_t * title = lv_label_create(header);
  59:Drivers/lvgl/src/extra/widgets/win/lv_win.c ****     lv_label_set_long_mode(title, LV_LABEL_LONG_DOT);
  60:Drivers/lvgl/src/extra/widgets/win/lv_win.c ****     lv_label_set_text(title, txt);
  61:Drivers/lvgl/src/extra/widgets/win/lv_win.c ****     lv_obj_set_flex_grow(title, 1);
  62:Drivers/lvgl/src/extra/widgets/win/lv_win.c ****     return title;
  63:Drivers/lvgl/src/extra/widgets/win/lv_win.c **** }
  64:Drivers/lvgl/src/extra/widgets/win/lv_win.c **** 
  65:Drivers/lvgl/src/extra/widgets/win/lv_win.c **** lv_obj_t * lv_win_add_btn(lv_obj_t * win, const void * icon, lv_coord_t btn_w)
  66:Drivers/lvgl/src/extra/widgets/win/lv_win.c **** {
  67:Drivers/lvgl/src/extra/widgets/win/lv_win.c ****     lv_obj_t * header = lv_win_get_header(win);
  68:Drivers/lvgl/src/extra/widgets/win/lv_win.c ****     lv_obj_t * btn = lv_btn_create(header);
  69:Drivers/lvgl/src/extra/widgets/win/lv_win.c ****     lv_obj_set_size(btn, btn_w, LV_PCT(100));
  70:Drivers/lvgl/src/extra/widgets/win/lv_win.c **** 
  71:Drivers/lvgl/src/extra/widgets/win/lv_win.c ****     lv_obj_t * img = lv_img_create(btn);
  72:Drivers/lvgl/src/extra/widgets/win/lv_win.c ****     lv_img_set_src(img, icon);
  73:Drivers/lvgl/src/extra/widgets/win/lv_win.c ****     lv_obj_align(img, LV_ALIGN_CENTER, 0, 0);
  74:Drivers/lvgl/src/extra/widgets/win/lv_win.c **** 
  75:Drivers/lvgl/src/extra/widgets/win/lv_win.c ****     return btn;
  76:Drivers/lvgl/src/extra/widgets/win/lv_win.c **** }
  77:Drivers/lvgl/src/extra/widgets/win/lv_win.c **** 
  78:Drivers/lvgl/src/extra/widgets/win/lv_win.c **** lv_obj_t * lv_win_get_header(lv_obj_t * win)
  79:Drivers/lvgl/src/extra/widgets/win/lv_win.c **** {
  80:Drivers/lvgl/src/extra/widgets/win/lv_win.c ****     return lv_obj_get_child(win, 0);
  81:Drivers/lvgl/src/extra/widgets/win/lv_win.c **** }
  82:Drivers/lvgl/src/extra/widgets/win/lv_win.c **** 
  83:Drivers/lvgl/src/extra/widgets/win/lv_win.c **** lv_obj_t * lv_win_get_content(lv_obj_t * win)
  84:Drivers/lvgl/src/extra/widgets/win/lv_win.c **** {
  85:Drivers/lvgl/src/extra/widgets/win/lv_win.c ****     return lv_obj_get_child(win, 1);
  86:Drivers/lvgl/src/extra/widgets/win/lv_win.c **** }
ARM GAS  /var/folders/0z/tsy30v1j4xl4_7kw94k978ww0000gn/T//cc3ERoSb.s 			page 3


  87:Drivers/lvgl/src/extra/widgets/win/lv_win.c **** 
  88:Drivers/lvgl/src/extra/widgets/win/lv_win.c **** /**********************
  89:Drivers/lvgl/src/extra/widgets/win/lv_win.c ****  *   STATIC FUNCTIONS
  90:Drivers/lvgl/src/extra/widgets/win/lv_win.c ****  **********************/
  91:Drivers/lvgl/src/extra/widgets/win/lv_win.c **** 
  92:Drivers/lvgl/src/extra/widgets/win/lv_win.c **** static void lv_win_constructor(const lv_obj_class_t * class_p, lv_obj_t * obj)
  93:Drivers/lvgl/src/extra/widgets/win/lv_win.c **** {
  30              		.loc 1 93 1 view -0
  31              		.cfi_startproc
  32              		@ args = 0, pretend = 0, frame = 8
  33              		@ frame_needed = 0, uses_anonymous_args = 0
  94:Drivers/lvgl/src/extra/widgets/win/lv_win.c ****     LV_UNUSED(class_p);
  34              		.loc 1 94 5 view .LVU1
  95:Drivers/lvgl/src/extra/widgets/win/lv_win.c ****     lv_obj_t * parent = lv_obj_get_parent(obj);
  35              		.loc 1 95 5 view .LVU2
  93:Drivers/lvgl/src/extra/widgets/win/lv_win.c ****     LV_UNUSED(class_p);
  36              		.loc 1 93 1 is_stmt 0 view .LVU3
  37 0000 30B5     		push	{r4, r5, lr}
  38              		.cfi_def_cfa_offset 12
  39              		.cfi_offset 4, -12
  40              		.cfi_offset 5, -8
  41              		.cfi_offset 14, -4
  42              		.loc 1 95 25 view .LVU4
  43 0002 0846     		mov	r0, r1
  44              	.LVL1:
  93:Drivers/lvgl/src/extra/widgets/win/lv_win.c ****     LV_UNUSED(class_p);
  45              		.loc 1 93 1 view .LVU5
  46 0004 83B0     		sub	sp, sp, #12
  47              		.cfi_def_cfa_offset 24
  93:Drivers/lvgl/src/extra/widgets/win/lv_win.c ****     LV_UNUSED(class_p);
  48              		.loc 1 93 1 view .LVU6
  49 0006 0C46     		mov	r4, r1
  50              		.loc 1 95 25 view .LVU7
  51 0008 FFF7FEFF 		bl	lv_obj_get_parent
  52              	.LVL2:
  53              		.loc 1 95 25 view .LVU8
  54 000c 0546     		mov	r5, r0
  55              	.LVL3:
  96:Drivers/lvgl/src/extra/widgets/win/lv_win.c ****     lv_obj_set_size(obj, lv_obj_get_width(parent), lv_obj_get_height(parent));
  56              		.loc 1 96 5 is_stmt 1 view .LVU9
  57 000e FFF7FEFF 		bl	lv_obj_get_width
  58              	.LVL4:
  59              		.loc 1 96 5 is_stmt 0 view .LVU10
  60 0012 0190     		str	r0, [sp, #4]
  61 0014 2846     		mov	r0, r5
  62 0016 FFF7FEFF 		bl	lv_obj_get_height
  63              	.LVL5:
  64 001a 0199     		ldr	r1, [sp, #4]
  65 001c 0246     		mov	r2, r0
  66 001e 2046     		mov	r0, r4
  67 0020 FFF7FEFF 		bl	lv_obj_set_size
  68              	.LVL6:
  97:Drivers/lvgl/src/extra/widgets/win/lv_win.c ****     lv_obj_set_flex_flow(obj, LV_FLEX_FLOW_COLUMN);
  69              		.loc 1 97 5 is_stmt 1 view .LVU11
  70 0024 0121     		movs	r1, #1
  71 0026 2046     		mov	r0, r4
  72 0028 FFF7FEFF 		bl	lv_obj_set_flex_flow
ARM GAS  /var/folders/0z/tsy30v1j4xl4_7kw94k978ww0000gn/T//cc3ERoSb.s 			page 4


  73              	.LVL7:
  98:Drivers/lvgl/src/extra/widgets/win/lv_win.c **** 
  99:Drivers/lvgl/src/extra/widgets/win/lv_win.c ****     lv_obj_t * header = lv_obj_create(obj);
  74              		.loc 1 99 5 view .LVU12
  75              		.loc 1 99 25 is_stmt 0 view .LVU13
  76 002c 2046     		mov	r0, r4
  77 002e FFF7FEFF 		bl	lv_obj_create
  78              	.LVL8:
 100:Drivers/lvgl/src/extra/widgets/win/lv_win.c ****     lv_obj_set_size(header, LV_PCT(100), create_header_height);
  79              		.loc 1 100 5 view .LVU14
  80 0032 104B     		ldr	r3, .L4
  99:Drivers/lvgl/src/extra/widgets/win/lv_win.c ****     lv_obj_set_size(header, LV_PCT(100), create_header_height);
  81              		.loc 1 99 25 view .LVU15
  82 0034 0546     		mov	r5, r0
  83              	.LVL9:
  84              		.loc 1 100 5 is_stmt 1 view .LVU16
  85 0036 B3F90020 		ldrsh	r2, [r3]
  86 003a 42F26401 		movw	r1, #8292
  87 003e FFF7FEFF 		bl	lv_obj_set_size
  88              	.LVL10:
 101:Drivers/lvgl/src/extra/widgets/win/lv_win.c ****     lv_obj_set_flex_flow(header, LV_FLEX_FLOW_ROW);
  89              		.loc 1 101 5 view .LVU17
  90 0042 2846     		mov	r0, r5
  91 0044 0021     		movs	r1, #0
  92 0046 FFF7FEFF 		bl	lv_obj_set_flex_flow
  93              	.LVL11:
 102:Drivers/lvgl/src/extra/widgets/win/lv_win.c ****     lv_obj_set_flex_align(header, LV_FLEX_ALIGN_START, LV_FLEX_ALIGN_CENTER, LV_FLEX_ALIGN_CENTER);
  94              		.loc 1 102 5 view .LVU18
  95 004a 0223     		movs	r3, #2
  96 004c 1A46     		mov	r2, r3
  97 004e 0021     		movs	r1, #0
  98 0050 2846     		mov	r0, r5
  99 0052 FFF7FEFF 		bl	lv_obj_set_flex_align
 100              	.LVL12:
 103:Drivers/lvgl/src/extra/widgets/win/lv_win.c **** 
 104:Drivers/lvgl/src/extra/widgets/win/lv_win.c ****     lv_obj_t * cont = lv_obj_create(obj);
 101              		.loc 1 104 5 view .LVU19
 102              		.loc 1 104 23 is_stmt 0 view .LVU20
 103 0056 2046     		mov	r0, r4
 104 0058 FFF7FEFF 		bl	lv_obj_create
 105              	.LVL13:
 105:Drivers/lvgl/src/extra/widgets/win/lv_win.c ****     lv_obj_set_flex_grow(cont, 1);
 106              		.loc 1 105 5 view .LVU21
 107 005c 0121     		movs	r1, #1
 104:Drivers/lvgl/src/extra/widgets/win/lv_win.c ****     lv_obj_set_flex_grow(cont, 1);
 108              		.loc 1 104 23 view .LVU22
 109 005e 0446     		mov	r4, r0
 110              	.LVL14:
 111              		.loc 1 105 5 is_stmt 1 view .LVU23
 112 0060 FFF7FEFF 		bl	lv_obj_set_flex_grow
 113              	.LVL15:
 106:Drivers/lvgl/src/extra/widgets/win/lv_win.c ****     lv_obj_set_width(cont, LV_PCT(100));
 114              		.loc 1 106 5 view .LVU24
 115 0064 42F26401 		movw	r1, #8292
 116 0068 2046     		mov	r0, r4
 107:Drivers/lvgl/src/extra/widgets/win/lv_win.c **** }
 117              		.loc 1 107 1 is_stmt 0 view .LVU25
ARM GAS  /var/folders/0z/tsy30v1j4xl4_7kw94k978ww0000gn/T//cc3ERoSb.s 			page 5


 118 006a 03B0     		add	sp, sp, #12
 119              		.cfi_def_cfa_offset 12
 120              		@ sp needed
 121 006c BDE83040 		pop	{r4, r5, lr}
 122              		.cfi_restore 14
 123              		.cfi_restore 5
 124              		.cfi_restore 4
 125              		.cfi_def_cfa_offset 0
 126              	.LVL16:
 106:Drivers/lvgl/src/extra/widgets/win/lv_win.c ****     lv_obj_set_width(cont, LV_PCT(100));
 127              		.loc 1 106 5 view .LVU26
 128 0070 FFF7FEBF 		b	lv_obj_set_width
 129              	.LVL17:
 130              	.L5:
 106:Drivers/lvgl/src/extra/widgets/win/lv_win.c ****     lv_obj_set_width(cont, LV_PCT(100));
 131              		.loc 1 106 5 view .LVU27
 132              		.align	2
 133              	.L4:
 134 0074 00000000 		.word	.LANCHOR0
 135              		.cfi_endproc
 136              	.LFE209:
 138              		.section	.text.lv_win_create,"ax",%progbits
 139              		.align	1
 140              		.p2align 2,,3
 141              		.global	lv_win_create
 142              		.syntax unified
 143              		.thumb
 144              		.thumb_func
 146              	lv_win_create:
 147              	.LVL18:
 148              	.LFB204:
  46:Drivers/lvgl/src/extra/widgets/win/lv_win.c ****     LV_LOG_INFO("begin");
 149              		.loc 1 46 1 is_stmt 1 view -0
 150              		.cfi_startproc
 151              		@ args = 0, pretend = 0, frame = 0
 152              		@ frame_needed = 0, uses_anonymous_args = 0
  47:Drivers/lvgl/src/extra/widgets/win/lv_win.c ****     create_header_height = header_height;
 153              		.loc 1 47 5 view .LVU29
  47:Drivers/lvgl/src/extra/widgets/win/lv_win.c ****     create_header_height = header_height;
 154              		.loc 1 47 5 view .LVU30
  47:Drivers/lvgl/src/extra/widgets/win/lv_win.c ****     create_header_height = header_height;
 155              		.loc 1 47 5 view .LVU31
  48:Drivers/lvgl/src/extra/widgets/win/lv_win.c **** 
 156              		.loc 1 48 5 view .LVU32
  46:Drivers/lvgl/src/extra/widgets/win/lv_win.c ****     LV_LOG_INFO("begin");
 157              		.loc 1 46 1 is_stmt 0 view .LVU33
 158 0000 10B5     		push	{r4, lr}
 159              		.cfi_def_cfa_offset 8
 160              		.cfi_offset 4, -8
 161              		.cfi_offset 14, -4
  48:Drivers/lvgl/src/extra/widgets/win/lv_win.c **** 
 162              		.loc 1 48 26 view .LVU34
 163 0002 064B     		ldr	r3, .L8
  46:Drivers/lvgl/src/extra/widgets/win/lv_win.c ****     LV_LOG_INFO("begin");
 164              		.loc 1 46 1 view .LVU35
 165 0004 0446     		mov	r4, r0
 166 0006 0A46     		mov	r2, r1
ARM GAS  /var/folders/0z/tsy30v1j4xl4_7kw94k978ww0000gn/T//cc3ERoSb.s 			page 6


  50:Drivers/lvgl/src/extra/widgets/win/lv_win.c ****     lv_obj_class_init_obj(obj);
 167              		.loc 1 50 22 view .LVU36
 168 0008 0548     		ldr	r0, .L8+4
 169              	.LVL19:
  48:Drivers/lvgl/src/extra/widgets/win/lv_win.c **** 
 170              		.loc 1 48 26 view .LVU37
 171 000a 1A80     		strh	r2, [r3]	@ movhi
  50:Drivers/lvgl/src/extra/widgets/win/lv_win.c ****     lv_obj_class_init_obj(obj);
 172              		.loc 1 50 5 is_stmt 1 view .LVU38
  50:Drivers/lvgl/src/extra/widgets/win/lv_win.c ****     lv_obj_class_init_obj(obj);
 173              		.loc 1 50 22 is_stmt 0 view .LVU39
 174 000c 2146     		mov	r1, r4
 175              	.LVL20:
  50:Drivers/lvgl/src/extra/widgets/win/lv_win.c ****     lv_obj_class_init_obj(obj);
 176              		.loc 1 50 22 view .LVU40
 177 000e FFF7FEFF 		bl	lv_obj_class_create_obj
 178              	.LVL21:
 179 0012 0446     		mov	r4, r0
 180              	.LVL22:
  51:Drivers/lvgl/src/extra/widgets/win/lv_win.c ****     return obj;
 181              		.loc 1 51 5 is_stmt 1 view .LVU41
 182 0014 FFF7FEFF 		bl	lv_obj_class_init_obj
 183              	.LVL23:
  52:Drivers/lvgl/src/extra/widgets/win/lv_win.c **** }
 184              		.loc 1 52 5 view .LVU42
  53:Drivers/lvgl/src/extra/widgets/win/lv_win.c **** 
 185              		.loc 1 53 1 is_stmt 0 view .LVU43
 186 0018 2046     		mov	r0, r4
 187 001a 10BD     		pop	{r4, pc}
 188              	.LVL24:
 189              	.L9:
  53:Drivers/lvgl/src/extra/widgets/win/lv_win.c **** 
 190              		.loc 1 53 1 view .LVU44
 191              		.align	2
 192              	.L8:
 193 001c 00000000 		.word	.LANCHOR0
 194 0020 00000000 		.word	.LANCHOR1
 195              		.cfi_endproc
 196              	.LFE204:
 198              		.section	.text.lv_win_add_title,"ax",%progbits
 199              		.align	1
 200              		.p2align 2,,3
 201              		.global	lv_win_add_title
 202              		.syntax unified
 203              		.thumb
 204              		.thumb_func
 206              	lv_win_add_title:
 207              	.LVL25:
 208              	.LFB205:
  56:Drivers/lvgl/src/extra/widgets/win/lv_win.c ****     lv_obj_t * header = lv_win_get_header(win);
 209              		.loc 1 56 1 is_stmt 1 view -0
 210              		.cfi_startproc
 211              		@ args = 0, pretend = 0, frame = 0
 212              		@ frame_needed = 0, uses_anonymous_args = 0
  57:Drivers/lvgl/src/extra/widgets/win/lv_win.c ****     lv_obj_t * title = lv_label_create(header);
 213              		.loc 1 57 5 view .LVU46
 214              	.LBB6:
ARM GAS  /var/folders/0z/tsy30v1j4xl4_7kw94k978ww0000gn/T//cc3ERoSb.s 			page 7


 215              	.LBI6:
  78:Drivers/lvgl/src/extra/widgets/win/lv_win.c **** {
 216              		.loc 1 78 12 view .LVU47
 217              	.LBB7:
  80:Drivers/lvgl/src/extra/widgets/win/lv_win.c **** }
 218              		.loc 1 80 5 view .LVU48
 219              	.LBE7:
 220              	.LBE6:
  56:Drivers/lvgl/src/extra/widgets/win/lv_win.c ****     lv_obj_t * header = lv_win_get_header(win);
 221              		.loc 1 56 1 is_stmt 0 view .LVU49
 222 0000 38B5     		push	{r3, r4, r5, lr}
 223              		.cfi_def_cfa_offset 16
 224              		.cfi_offset 3, -16
 225              		.cfi_offset 4, -12
 226              		.cfi_offset 5, -8
 227              		.cfi_offset 14, -4
  56:Drivers/lvgl/src/extra/widgets/win/lv_win.c ****     lv_obj_t * header = lv_win_get_header(win);
 228              		.loc 1 56 1 view .LVU50
 229 0002 0D46     		mov	r5, r1
 230              	.LBB9:
 231              	.LBB8:
  80:Drivers/lvgl/src/extra/widgets/win/lv_win.c **** }
 232              		.loc 1 80 12 view .LVU51
 233 0004 0021     		movs	r1, #0
 234              	.LVL26:
  80:Drivers/lvgl/src/extra/widgets/win/lv_win.c **** }
 235              		.loc 1 80 12 view .LVU52
 236 0006 FFF7FEFF 		bl	lv_obj_get_child
 237              	.LVL27:
  80:Drivers/lvgl/src/extra/widgets/win/lv_win.c **** }
 238              		.loc 1 80 12 view .LVU53
 239              	.LBE8:
 240              	.LBE9:
  58:Drivers/lvgl/src/extra/widgets/win/lv_win.c ****     lv_label_set_long_mode(title, LV_LABEL_LONG_DOT);
 241              		.loc 1 58 5 is_stmt 1 view .LVU54
  58:Drivers/lvgl/src/extra/widgets/win/lv_win.c ****     lv_label_set_long_mode(title, LV_LABEL_LONG_DOT);
 242              		.loc 1 58 24 is_stmt 0 view .LVU55
 243 000a FFF7FEFF 		bl	lv_label_create
 244              	.LVL28:
  59:Drivers/lvgl/src/extra/widgets/win/lv_win.c ****     lv_label_set_text(title, txt);
 245              		.loc 1 59 5 view .LVU56
 246 000e 0121     		movs	r1, #1
  58:Drivers/lvgl/src/extra/widgets/win/lv_win.c ****     lv_label_set_long_mode(title, LV_LABEL_LONG_DOT);
 247              		.loc 1 58 24 view .LVU57
 248 0010 0446     		mov	r4, r0
 249              	.LVL29:
  59:Drivers/lvgl/src/extra/widgets/win/lv_win.c ****     lv_label_set_text(title, txt);
 250              		.loc 1 59 5 is_stmt 1 view .LVU58
 251 0012 FFF7FEFF 		bl	lv_label_set_long_mode
 252              	.LVL30:
  60:Drivers/lvgl/src/extra/widgets/win/lv_win.c ****     lv_obj_set_flex_grow(title, 1);
 253              		.loc 1 60 5 view .LVU59
 254 0016 2946     		mov	r1, r5
 255 0018 2046     		mov	r0, r4
 256 001a FFF7FEFF 		bl	lv_label_set_text
 257              	.LVL31:
  61:Drivers/lvgl/src/extra/widgets/win/lv_win.c ****     return title;
ARM GAS  /var/folders/0z/tsy30v1j4xl4_7kw94k978ww0000gn/T//cc3ERoSb.s 			page 8


 258              		.loc 1 61 5 view .LVU60
 259 001e 2046     		mov	r0, r4
 260 0020 0121     		movs	r1, #1
 261 0022 FFF7FEFF 		bl	lv_obj_set_flex_grow
 262              	.LVL32:
  62:Drivers/lvgl/src/extra/widgets/win/lv_win.c **** }
 263              		.loc 1 62 5 view .LVU61
  63:Drivers/lvgl/src/extra/widgets/win/lv_win.c **** 
 264              		.loc 1 63 1 is_stmt 0 view .LVU62
 265 0026 2046     		mov	r0, r4
 266 0028 38BD     		pop	{r3, r4, r5, pc}
  63:Drivers/lvgl/src/extra/widgets/win/lv_win.c **** 
 267              		.loc 1 63 1 view .LVU63
 268              		.cfi_endproc
 269              	.LFE205:
 271 002a 00BF     		.section	.text.lv_win_add_btn,"ax",%progbits
 272              		.align	1
 273              		.p2align 2,,3
 274              		.global	lv_win_add_btn
 275              		.syntax unified
 276              		.thumb
 277              		.thumb_func
 279              	lv_win_add_btn:
 280              	.LVL33:
 281              	.LFB206:
  66:Drivers/lvgl/src/extra/widgets/win/lv_win.c ****     lv_obj_t * header = lv_win_get_header(win);
 282              		.loc 1 66 1 is_stmt 1 view -0
 283              		.cfi_startproc
 284              		@ args = 0, pretend = 0, frame = 0
 285              		@ frame_needed = 0, uses_anonymous_args = 0
  67:Drivers/lvgl/src/extra/widgets/win/lv_win.c ****     lv_obj_t * btn = lv_btn_create(header);
 286              		.loc 1 67 5 view .LVU65
 287              	.LBB10:
 288              	.LBI10:
  78:Drivers/lvgl/src/extra/widgets/win/lv_win.c **** {
 289              		.loc 1 78 12 view .LVU66
 290              	.LBB11:
  80:Drivers/lvgl/src/extra/widgets/win/lv_win.c **** }
 291              		.loc 1 80 5 view .LVU67
 292              	.LBE11:
 293              	.LBE10:
  66:Drivers/lvgl/src/extra/widgets/win/lv_win.c ****     lv_obj_t * header = lv_win_get_header(win);
 294              		.loc 1 66 1 is_stmt 0 view .LVU68
 295 0000 38B5     		push	{r3, r4, r5, lr}
 296              		.cfi_def_cfa_offset 16
 297              		.cfi_offset 3, -16
 298              		.cfi_offset 4, -12
 299              		.cfi_offset 5, -8
 300              		.cfi_offset 14, -4
  66:Drivers/lvgl/src/extra/widgets/win/lv_win.c ****     lv_obj_t * header = lv_win_get_header(win);
 301              		.loc 1 66 1 view .LVU69
 302 0002 0D46     		mov	r5, r1
 303              	.LBB14:
 304              	.LBB12:
  80:Drivers/lvgl/src/extra/widgets/win/lv_win.c **** }
 305              		.loc 1 80 12 view .LVU70
 306 0004 0021     		movs	r1, #0
ARM GAS  /var/folders/0z/tsy30v1j4xl4_7kw94k978ww0000gn/T//cc3ERoSb.s 			page 9


 307              	.LVL34:
  80:Drivers/lvgl/src/extra/widgets/win/lv_win.c **** }
 308              		.loc 1 80 12 view .LVU71
 309              	.LBE12:
 310              	.LBE14:
  66:Drivers/lvgl/src/extra/widgets/win/lv_win.c ****     lv_obj_t * header = lv_win_get_header(win);
 311              		.loc 1 66 1 view .LVU72
 312 0006 1446     		mov	r4, r2
 313              	.LBB15:
 314              	.LBB13:
  80:Drivers/lvgl/src/extra/widgets/win/lv_win.c **** }
 315              		.loc 1 80 12 view .LVU73
 316 0008 FFF7FEFF 		bl	lv_obj_get_child
 317              	.LVL35:
  80:Drivers/lvgl/src/extra/widgets/win/lv_win.c **** }
 318              		.loc 1 80 12 view .LVU74
 319              	.LBE13:
 320              	.LBE15:
  68:Drivers/lvgl/src/extra/widgets/win/lv_win.c ****     lv_obj_set_size(btn, btn_w, LV_PCT(100));
 321              		.loc 1 68 5 is_stmt 1 view .LVU75
  68:Drivers/lvgl/src/extra/widgets/win/lv_win.c ****     lv_obj_set_size(btn, btn_w, LV_PCT(100));
 322              		.loc 1 68 22 is_stmt 0 view .LVU76
 323 000c FFF7FEFF 		bl	lv_btn_create
 324              	.LVL36:
  69:Drivers/lvgl/src/extra/widgets/win/lv_win.c **** 
 325              		.loc 1 69 5 view .LVU77
 326 0010 42F26402 		movw	r2, #8292
 327 0014 2146     		mov	r1, r4
  68:Drivers/lvgl/src/extra/widgets/win/lv_win.c ****     lv_obj_set_size(btn, btn_w, LV_PCT(100));
 328              		.loc 1 68 22 view .LVU78
 329 0016 0446     		mov	r4, r0
 330              	.LVL37:
  69:Drivers/lvgl/src/extra/widgets/win/lv_win.c **** 
 331              		.loc 1 69 5 is_stmt 1 view .LVU79
 332 0018 FFF7FEFF 		bl	lv_obj_set_size
 333              	.LVL38:
  71:Drivers/lvgl/src/extra/widgets/win/lv_win.c ****     lv_img_set_src(img, icon);
 334              		.loc 1 71 5 view .LVU80
  71:Drivers/lvgl/src/extra/widgets/win/lv_win.c ****     lv_img_set_src(img, icon);
 335              		.loc 1 71 22 is_stmt 0 view .LVU81
 336 001c 2046     		mov	r0, r4
 337 001e FFF7FEFF 		bl	lv_img_create
 338              	.LVL39:
  72:Drivers/lvgl/src/extra/widgets/win/lv_win.c ****     lv_obj_align(img, LV_ALIGN_CENTER, 0, 0);
 339              		.loc 1 72 5 view .LVU82
 340 0022 2946     		mov	r1, r5
  71:Drivers/lvgl/src/extra/widgets/win/lv_win.c ****     lv_img_set_src(img, icon);
 341              		.loc 1 71 22 view .LVU83
 342 0024 0546     		mov	r5, r0
 343              	.LVL40:
  72:Drivers/lvgl/src/extra/widgets/win/lv_win.c ****     lv_obj_align(img, LV_ALIGN_CENTER, 0, 0);
 344              		.loc 1 72 5 is_stmt 1 view .LVU84
 345 0026 FFF7FEFF 		bl	lv_img_set_src
 346              	.LVL41:
  73:Drivers/lvgl/src/extra/widgets/win/lv_win.c **** 
 347              		.loc 1 73 5 view .LVU85
 348 002a 0023     		movs	r3, #0
ARM GAS  /var/folders/0z/tsy30v1j4xl4_7kw94k978ww0000gn/T//cc3ERoSb.s 			page 10


 349 002c 2846     		mov	r0, r5
 350 002e 1A46     		mov	r2, r3
 351 0030 0921     		movs	r1, #9
 352 0032 FFF7FEFF 		bl	lv_obj_align
 353              	.LVL42:
  75:Drivers/lvgl/src/extra/widgets/win/lv_win.c **** }
 354              		.loc 1 75 5 view .LVU86
  76:Drivers/lvgl/src/extra/widgets/win/lv_win.c **** 
 355              		.loc 1 76 1 is_stmt 0 view .LVU87
 356 0036 2046     		mov	r0, r4
 357 0038 38BD     		pop	{r3, r4, r5, pc}
  76:Drivers/lvgl/src/extra/widgets/win/lv_win.c **** 
 358              		.loc 1 76 1 view .LVU88
 359              		.cfi_endproc
 360              	.LFE206:
 362 003a 00BF     		.section	.text.lv_win_get_header,"ax",%progbits
 363              		.align	1
 364              		.p2align 2,,3
 365              		.global	lv_win_get_header
 366              		.syntax unified
 367              		.thumb
 368              		.thumb_func
 370              	lv_win_get_header:
 371              	.LVL43:
 372              	.LFB207:
  79:Drivers/lvgl/src/extra/widgets/win/lv_win.c ****     return lv_obj_get_child(win, 0);
 373              		.loc 1 79 1 is_stmt 1 view -0
 374              		.cfi_startproc
 375              		@ args = 0, pretend = 0, frame = 0
 376              		@ frame_needed = 0, uses_anonymous_args = 0
 377              		@ link register save eliminated.
  80:Drivers/lvgl/src/extra/widgets/win/lv_win.c **** }
 378              		.loc 1 80 5 view .LVU90
  80:Drivers/lvgl/src/extra/widgets/win/lv_win.c **** }
 379              		.loc 1 80 12 is_stmt 0 view .LVU91
 380 0000 0021     		movs	r1, #0
 381 0002 FFF7FEBF 		b	lv_obj_get_child
 382              	.LVL44:
  80:Drivers/lvgl/src/extra/widgets/win/lv_win.c **** }
 383              		.loc 1 80 12 view .LVU92
 384              		.cfi_endproc
 385              	.LFE207:
 387 0006 00BF     		.section	.text.lv_win_get_content,"ax",%progbits
 388              		.align	1
 389              		.p2align 2,,3
 390              		.global	lv_win_get_content
 391              		.syntax unified
 392              		.thumb
 393              		.thumb_func
 395              	lv_win_get_content:
 396              	.LVL45:
 397              	.LFB208:
  84:Drivers/lvgl/src/extra/widgets/win/lv_win.c ****     return lv_obj_get_child(win, 1);
 398              		.loc 1 84 1 is_stmt 1 view -0
 399              		.cfi_startproc
 400              		@ args = 0, pretend = 0, frame = 0
 401              		@ frame_needed = 0, uses_anonymous_args = 0
ARM GAS  /var/folders/0z/tsy30v1j4xl4_7kw94k978ww0000gn/T//cc3ERoSb.s 			page 11


 402              		@ link register save eliminated.
  85:Drivers/lvgl/src/extra/widgets/win/lv_win.c **** }
 403              		.loc 1 85 5 view .LVU94
  85:Drivers/lvgl/src/extra/widgets/win/lv_win.c **** }
 404              		.loc 1 85 12 is_stmt 0 view .LVU95
 405 0000 0121     		movs	r1, #1
 406 0002 FFF7FEBF 		b	lv_obj_get_child
 407              	.LVL46:
  85:Drivers/lvgl/src/extra/widgets/win/lv_win.c **** }
 408              		.loc 1 85 12 view .LVU96
 409              		.cfi_endproc
 410              	.LFE208:
 412              		.global	lv_win_class
 413 0006 00BF     		.section	.bss.create_header_height,"aw",%nobits
 414              		.align	1
 415              		.set	.LANCHOR0,. + 0
 418              	create_header_height:
 419 0000 0000     		.space	2
 420              		.section	.rodata.lv_win_class,"a"
 421              		.align	2
 422              		.set	.LANCHOR1,. + 0
 425              	lv_win_class:
 426 0000 00000000 		.word	lv_obj_class
 427 0004 00000000 		.word	lv_win_constructor
 428 0008 00000000 		.space	12
 428      00000000 
 428      00000000 
 429 0014 6420     		.short	8292
 430 0016 6420     		.short	8292
 431 0018 40       		.byte	64
 432 0019 02       		.byte	2
 433 001a 00       		.byte	0
 434 001b 00       		.space	1
 435              		.text
 436              	.Letext0:
 437              		.file 2 "/Users/johannes/Library/Application Support/Code/User/globalStorage/bmd.stm32-for-vscode/
 438              		.file 3 "/Users/johannes/Library/Application Support/Code/User/globalStorage/bmd.stm32-for-vscode/
 439              		.file 4 "Drivers/lvgl/src/extra/widgets/win/../../../../src/hal/../draw/../misc/../font/../misc/lv
 440              		.file 5 "Drivers/lvgl/src/extra/widgets/win/../../../../src/hal/../draw/../misc/lv_color.h"
 441              		.file 6 "Drivers/lvgl/src/extra/widgets/win/../../../../src/hal/../draw/../misc/lv_style.h"
 442              		.file 7 "Drivers/lvgl/src/extra/widgets/win/../../../../src/core/lv_obj.h"
 443              		.file 8 "Drivers/lvgl/src/extra/widgets/win/../../../../src/hal/../misc/lv_ll.h"
 444              		.file 9 "Drivers/lvgl/src/extra/widgets/win/../../../../src/core/lv_group.h"
 445              		.file 10 "Drivers/lvgl/src/extra/widgets/win/../../../../src/core/lv_obj_scroll.h"
 446              		.file 11 "Drivers/lvgl/src/extra/widgets/win/../../../../src/core/lv_obj_style.h"
 447              		.file 12 "Drivers/lvgl/src/extra/widgets/win/../../../../src/core/lv_obj_class.h"
 448              		.file 13 "Drivers/lvgl/src/extra/widgets/win/../../../../src/core/lv_event.h"
 449              		.file 14 "Drivers/lvgl/src/extra/widgets/win/../../../../src/widgets/lv_label.h"
 450              		.file 15 "Drivers/lvgl/src/extra/widgets/win/../../../../src/widgets/lv_bar.h"
 451              		.file 16 "Drivers/lvgl/src/extra/widgets/win/../../../../src/extra/layouts/flex/lv_flex.h"
 452              		.file 17 "Drivers/lvgl/src/extra/widgets/win/../../../../src/extra/widgets/imgbtn/lv_imgbtn.h"
 453              		.file 18 "Drivers/lvgl/src/extra/widgets/win/lv_win.h"
 454              		.file 19 "Drivers/lvgl/src/extra/widgets/win/../../../../src/hal/../draw/sw/../../core/lv_obj_pos.
 455              		.file 20 "Drivers/lvgl/src/extra/widgets/win/../../../../src/widgets/lv_img.h"
 456              		.file 21 "Drivers/lvgl/src/extra/widgets/win/../../../../src/core/lv_obj_tree.h"
 457              		.file 22 "Drivers/lvgl/src/extra/widgets/win/../../../../src/widgets/lv_btn.h"
ARM GAS  /var/folders/0z/tsy30v1j4xl4_7kw94k978ww0000gn/T//cc3ERoSb.s 			page 12


DEFINED SYMBOLS
                            *ABS*:0000000000000000 lv_win.c
/var/folders/0z/tsy30v1j4xl4_7kw94k978ww0000gn/T//cc3ERoSb.s:20     .text.lv_win_constructor:0000000000000000 $t
/var/folders/0z/tsy30v1j4xl4_7kw94k978ww0000gn/T//cc3ERoSb.s:26     .text.lv_win_constructor:0000000000000000 lv_win_constructor
/var/folders/0z/tsy30v1j4xl4_7kw94k978ww0000gn/T//cc3ERoSb.s:134    .text.lv_win_constructor:0000000000000074 $d
/var/folders/0z/tsy30v1j4xl4_7kw94k978ww0000gn/T//cc3ERoSb.s:139    .text.lv_win_create:0000000000000000 $t
/var/folders/0z/tsy30v1j4xl4_7kw94k978ww0000gn/T//cc3ERoSb.s:146    .text.lv_win_create:0000000000000000 lv_win_create
/var/folders/0z/tsy30v1j4xl4_7kw94k978ww0000gn/T//cc3ERoSb.s:193    .text.lv_win_create:000000000000001c $d
/var/folders/0z/tsy30v1j4xl4_7kw94k978ww0000gn/T//cc3ERoSb.s:199    .text.lv_win_add_title:0000000000000000 $t
/var/folders/0z/tsy30v1j4xl4_7kw94k978ww0000gn/T//cc3ERoSb.s:206    .text.lv_win_add_title:0000000000000000 lv_win_add_title
/var/folders/0z/tsy30v1j4xl4_7kw94k978ww0000gn/T//cc3ERoSb.s:272    .text.lv_win_add_btn:0000000000000000 $t
/var/folders/0z/tsy30v1j4xl4_7kw94k978ww0000gn/T//cc3ERoSb.s:279    .text.lv_win_add_btn:0000000000000000 lv_win_add_btn
/var/folders/0z/tsy30v1j4xl4_7kw94k978ww0000gn/T//cc3ERoSb.s:363    .text.lv_win_get_header:0000000000000000 $t
/var/folders/0z/tsy30v1j4xl4_7kw94k978ww0000gn/T//cc3ERoSb.s:370    .text.lv_win_get_header:0000000000000000 lv_win_get_header
/var/folders/0z/tsy30v1j4xl4_7kw94k978ww0000gn/T//cc3ERoSb.s:388    .text.lv_win_get_content:0000000000000000 $t
/var/folders/0z/tsy30v1j4xl4_7kw94k978ww0000gn/T//cc3ERoSb.s:395    .text.lv_win_get_content:0000000000000000 lv_win_get_content
/var/folders/0z/tsy30v1j4xl4_7kw94k978ww0000gn/T//cc3ERoSb.s:425    .rodata.lv_win_class:0000000000000000 lv_win_class
/var/folders/0z/tsy30v1j4xl4_7kw94k978ww0000gn/T//cc3ERoSb.s:414    .bss.create_header_height:0000000000000000 $d
/var/folders/0z/tsy30v1j4xl4_7kw94k978ww0000gn/T//cc3ERoSb.s:418    .bss.create_header_height:0000000000000000 create_header_height
/var/folders/0z/tsy30v1j4xl4_7kw94k978ww0000gn/T//cc3ERoSb.s:421    .rodata.lv_win_class:0000000000000000 $d

UNDEFINED SYMBOLS
lv_obj_get_parent
lv_obj_get_width
lv_obj_get_height
lv_obj_set_size
lv_obj_set_flex_flow
lv_obj_create
lv_obj_set_flex_align
lv_obj_set_flex_grow
lv_obj_set_width
lv_obj_class_create_obj
lv_obj_class_init_obj
lv_obj_get_child
lv_label_create
lv_label_set_long_mode
lv_label_set_text
lv_btn_create
lv_img_create
lv_img_set_src
lv_obj_align
lv_obj_class
