ARM GAS  /var/folders/lp/x54gwt890xv47sdkqj1k04q40000gn/T//ccbecmbK.s 			page 1


   1              		.cpu cortex-m4
   2              		.arch armv7e-m
   3              		.fpu fpv4-sp-d16
   4              		.eabi_attribute 27, 1
   5              		.eabi_attribute 28, 1
   6              		.eabi_attribute 20, 1
   7              		.eabi_attribute 21, 1
   8              		.eabi_attribute 23, 3
   9              		.eabi_attribute 24, 1
  10              		.eabi_attribute 25, 1
  11              		.eabi_attribute 26, 1
  12              		.eabi_attribute 30, 2
  13              		.eabi_attribute 34, 1
  14              		.eabi_attribute 18, 4
  15              		.file	"MIDI_application.c"
  16              		.text
  17              	.Ltext0:
  18              		.cfi_sections	.debug_frame
  19              		.file 1 "Core/Src/MIDI_application.c"
  20              		.section	.text.MIDI_Application,"ax",%progbits
  21              		.align	1
  22              		.p2align 2,,3
  23              		.global	MIDI_Application
  24              		.syntax unified
  25              		.thumb
  26              		.thumb_func
  28              	MIDI_Application:
  29              	.LFB242:
   1:Core/Src/MIDI_application.c **** /*
   2:Core/Src/MIDI_application.c ****  * MIDI_application.c
   3:Core/Src/MIDI_application.c ****  *
   4:Core/Src/MIDI_application.c ****  *  Created on: 6 dec. 2014
   5:Core/Src/MIDI_application.c ****  *      Author: Xavier Halgand
   6:Core/Src/MIDI_application.c ****  */
   7:Core/Src/MIDI_application.c **** 
   8:Core/Src/MIDI_application.c **** 
   9:Core/Src/MIDI_application.c **** /* Includes ------------------------------------------------------------------*/
  10:Core/Src/MIDI_application.c **** 
  11:Core/Src/MIDI_application.c **** #include "main.h"
  12:Core/Src/MIDI_application.c **** #include "MIDI_application.h"
  13:Core/Src/MIDI_application.c **** 
  14:Core/Src/MIDI_application.c **** extern USBH_HandleTypeDef hUSBHost;
  15:Core/Src/MIDI_application.c **** extern MIDI_ApplicationTypeDef Appli_state;
  16:Core/Src/MIDI_application.c **** extern int8_t midi1, midi2;
  17:Core/Src/MIDI_application.c **** 
  18:Core/Src/MIDI_application.c **** 
  19:Core/Src/MIDI_application.c **** 
  20:Core/Src/MIDI_application.c **** /* Private define ------------------------------------------------------------*/
  21:Core/Src/MIDI_application.c **** 
  22:Core/Src/MIDI_application.c **** #define RX_BUFF_SIZE   64  /* Max Received data 64 bytes */
  23:Core/Src/MIDI_application.c **** 
  24:Core/Src/MIDI_application.c **** 
  25:Core/Src/MIDI_application.c **** uint8_t MIDI_RX_Buffer[RX_BUFF_SIZE]; // MIDI reception buffer
  26:Core/Src/MIDI_application.c **** 
  27:Core/Src/MIDI_application.c **** /* Private function prototypes -----------------------------------------------*/
  28:Core/Src/MIDI_application.c **** void ProcessReceivedMidiDatas(void);
  29:Core/Src/MIDI_application.c **** 
ARM GAS  /var/folders/lp/x54gwt890xv47sdkqj1k04q40000gn/T//ccbecmbK.s 			page 2


  30:Core/Src/MIDI_application.c **** 
  31:Core/Src/MIDI_application.c **** /*-----------------------------------------------------------------------------*/
  32:Core/Src/MIDI_application.c **** /**
  33:Core/Src/MIDI_application.c ****  * @brief  Main routine for MIDI application, looped in main.c
  34:Core/Src/MIDI_application.c ****  * @param  None
  35:Core/Src/MIDI_application.c ****  * @retval none
  36:Core/Src/MIDI_application.c ****  */
  37:Core/Src/MIDI_application.c **** void MIDI_Application(void)
  38:Core/Src/MIDI_application.c **** {
  30              		.loc 1 38 1 view -0
  31              		.cfi_startproc
  32              		@ args = 0, pretend = 0, frame = 0
  33              		@ frame_needed = 0, uses_anonymous_args = 0
  39:Core/Src/MIDI_application.c **** 	if(Appli_state == MIDI_APPLICATION_READY)
  34              		.loc 1 39 2 view .LVU1
  38:Core/Src/MIDI_application.c **** 	if(Appli_state == MIDI_APPLICATION_READY)
  35              		.loc 1 38 1 is_stmt 0 view .LVU2
  36 0000 10B5     		push	{r4, lr}
  37              		.cfi_def_cfa_offset 8
  38              		.cfi_offset 4, -8
  39              		.cfi_offset 14, -4
  40              		.loc 1 39 17 view .LVU3
  41 0002 0B4C     		ldr	r4, .L8
  42 0004 2378     		ldrb	r3, [r4]	@ zero_extendqisi2
  43              		.loc 1 39 4 view .LVU4
  44 0006 022B     		cmp	r3, #2
  45 0008 09D0     		beq	.L6
  40:Core/Src/MIDI_application.c **** 	{
  41:Core/Src/MIDI_application.c **** 		USBH_MIDI_Receive(&hUSBHost, MIDI_RX_Buffer, RX_BUFF_SIZE); // just once at the beginning, start 
  42:Core/Src/MIDI_application.c **** 		Appli_state = MIDI_APPLICATION_RUNNING;
  43:Core/Src/MIDI_application.c **** 	}
  44:Core/Src/MIDI_application.c **** 	if(Appli_state == MIDI_APPLICATION_RUNNING)
  46              		.loc 1 44 2 is_stmt 1 view .LVU5
  45:Core/Src/MIDI_application.c **** 	{
  46:Core/Src/MIDI_application.c **** 			//....pffff......grrrrr......
  47:Core/Src/MIDI_application.c **** 	}
  47              		.loc 1 47 2 view .LVU6
  48:Core/Src/MIDI_application.c **** 
  49:Core/Src/MIDI_application.c **** 	if(Appli_state == MIDI_APPLICATION_DISCONNECT)
  48              		.loc 1 49 2 view .LVU7
  49              		.loc 1 49 4 is_stmt 0 view .LVU8
  50 000a 042B     		cmp	r3, #4
  51 000c 00D0     		beq	.L7
  50:Core/Src/MIDI_application.c **** 	{
  51:Core/Src/MIDI_application.c **** 		Appli_state = MIDI_APPLICATION_IDLE;
  52:Core/Src/MIDI_application.c **** 		USBH_MIDI_Stop(&hUSBHost);
  53:Core/Src/MIDI_application.c **** 	}
  54:Core/Src/MIDI_application.c **** 
  55:Core/Src/MIDI_application.c **** }
  52              		.loc 1 55 1 view .LVU9
  53 000e 10BD     		pop	{r4, pc}
  54              	.L7:
  51:Core/Src/MIDI_application.c **** 		USBH_MIDI_Stop(&hUSBHost);
  55              		.loc 1 51 3 is_stmt 1 view .LVU10
  51:Core/Src/MIDI_application.c **** 		USBH_MIDI_Stop(&hUSBHost);
  56              		.loc 1 51 15 is_stmt 0 view .LVU11
  57 0010 0023     		movs	r3, #0
ARM GAS  /var/folders/lp/x54gwt890xv47sdkqj1k04q40000gn/T//ccbecmbK.s 			page 3


  58 0012 2370     		strb	r3, [r4]
  52:Core/Src/MIDI_application.c **** 	}
  59              		.loc 1 52 3 is_stmt 1 view .LVU12
  60              		.loc 1 55 1 is_stmt 0 view .LVU13
  61 0014 BDE81040 		pop	{r4, lr}
  62              		.cfi_remember_state
  63              		.cfi_restore 14
  64              		.cfi_restore 4
  65              		.cfi_def_cfa_offset 0
  52:Core/Src/MIDI_application.c **** 	}
  66              		.loc 1 52 3 view .LVU14
  67 0018 0648     		ldr	r0, .L8+4
  68 001a FFF7FEBF 		b	USBH_MIDI_Stop
  69              	.LVL0:
  70              	.L6:
  71              		.cfi_restore_state
  41:Core/Src/MIDI_application.c **** 		Appli_state = MIDI_APPLICATION_RUNNING;
  72              		.loc 1 41 3 is_stmt 1 view .LVU15
  73 001e 0649     		ldr	r1, .L8+8
  74 0020 0448     		ldr	r0, .L8+4
  75 0022 4022     		movs	r2, #64
  76 0024 FFF7FEFF 		bl	USBH_MIDI_Receive
  77              	.LVL1:
  42:Core/Src/MIDI_application.c **** 	}
  78              		.loc 1 42 3 view .LVU16
  42:Core/Src/MIDI_application.c **** 	}
  79              		.loc 1 42 15 is_stmt 0 view .LVU17
  80 0028 0323     		movs	r3, #3
  81 002a 2370     		strb	r3, [r4]
  44:Core/Src/MIDI_application.c **** 	{
  82              		.loc 1 44 2 is_stmt 1 view .LVU18
  47:Core/Src/MIDI_application.c **** 
  83              		.loc 1 47 2 view .LVU19
  49:Core/Src/MIDI_application.c **** 	{
  84              		.loc 1 49 2 view .LVU20
  85              		.loc 1 55 1 is_stmt 0 view .LVU21
  86 002c 10BD     		pop	{r4, pc}
  87              	.L9:
  88 002e 00BF     		.align	2
  89              	.L8:
  90 0030 00000000 		.word	Appli_state
  91 0034 00000000 		.word	hUSBHost
  92 0038 00000000 		.word	MIDI_RX_Buffer
  93              		.cfi_endproc
  94              	.LFE242:
  96              		.section	.text.ProcessReceivedMidiDatas,"ax",%progbits
  97              		.align	1
  98              		.p2align 2,,3
  99              		.global	ProcessReceivedMidiDatas
 100              		.syntax unified
 101              		.thumb
 102              		.thumb_func
 104              	ProcessReceivedMidiDatas:
 105              	.LFB243:
  56:Core/Src/MIDI_application.c **** 
  57:Core/Src/MIDI_application.c **** 
  58:Core/Src/MIDI_application.c **** /*-----------------------------------------------------------------------------*/
ARM GAS  /var/folders/lp/x54gwt890xv47sdkqj1k04q40000gn/T//ccbecmbK.s 			page 4


  59:Core/Src/MIDI_application.c **** void ProcessReceivedMidiDatas(void)
  60:Core/Src/MIDI_application.c **** {
 106              		.loc 1 60 1 is_stmt 1 view -0
 107              		.cfi_startproc
 108              		@ args = 0, pretend = 0, frame = 0
 109              		@ frame_needed = 0, uses_anonymous_args = 0
  61:Core/Src/MIDI_application.c **** 	uint16_t numberOfPackets;
 110              		.loc 1 61 2 view .LVU23
  62:Core/Src/MIDI_application.c **** 	uint8_t *ptr = MIDI_RX_Buffer;
 111              		.loc 1 62 2 view .LVU24
 112              	.LVL2:
  63:Core/Src/MIDI_application.c **** 	midi_package_t pack;
 113              		.loc 1 63 2 view .LVU25
  64:Core/Src/MIDI_application.c **** 
  65:Core/Src/MIDI_application.c **** 	numberOfPackets = USBH_MIDI_GetLastReceivedDataSize(&hUSBHost) / 4; //each USB midi package is 4 b
 114              		.loc 1 65 2 view .LVU26
  60:Core/Src/MIDI_application.c **** 	uint16_t numberOfPackets;
 115              		.loc 1 60 1 is_stmt 0 view .LVU27
 116 0000 2DE9F041 		push	{r4, r5, r6, r7, r8, lr}
 117              		.cfi_def_cfa_offset 24
 118              		.cfi_offset 4, -24
 119              		.cfi_offset 5, -20
 120              		.cfi_offset 6, -16
 121              		.cfi_offset 7, -12
 122              		.cfi_offset 8, -8
 123              		.cfi_offset 14, -4
 124              		.loc 1 65 20 view .LVU28
 125 0004 1548     		ldr	r0, .L19
 126 0006 FFF7FEFF 		bl	USBH_MIDI_GetLastReceivedDataSize
 127              	.LVL3:
  66:Core/Src/MIDI_application.c **** 	if (numberOfPackets != 0) // seems useless...
 128              		.loc 1 66 2 is_stmt 1 view .LVU29
 129              		.loc 1 66 5 is_stmt 0 view .LVU30
 130 000a 0328     		cmp	r0, #3
 131 000c 23D9     		bls	.L10
  67:Core/Src/MIDI_application.c **** 	{
  68:Core/Src/MIDI_application.c **** 		//BSP_LED_Toggle(LED_Blue);
  69:Core/Src/MIDI_application.c **** 
  70:Core/Src/MIDI_application.c **** 		while(numberOfPackets--)
 132              		.loc 1 70 9 is_stmt 1 view .LVU31
 133 000e 144C     		ldr	r4, .L19+4
  71:Core/Src/MIDI_application.c **** 		{
  72:Core/Src/MIDI_application.c **** 			pack.cin_cable = *ptr ; ptr++ ;
  73:Core/Src/MIDI_application.c **** 			pack.evnt0 = *ptr ; ptr++ ;
  74:Core/Src/MIDI_application.c **** 			pack.evnt1 = *ptr ; ptr++ ;
  75:Core/Src/MIDI_application.c **** 			pack.evnt2 = *ptr ; ptr++ ;
  76:Core/Src/MIDI_application.c **** 
  77:Core/Src/MIDI_application.c **** 			if(pack.cin_cable != 0)
  78:Core/Src/MIDI_application.c **** 				HAL_GPIO_WritePin(GPIOD, 0x8000, GPIO_PIN_SET);
 134              		.loc 1 78 5 is_stmt 0 view .LVU32
 135 0010 DFF85080 		ldr	r8, .L19+8
  65:Core/Src/MIDI_application.c **** 	if (numberOfPackets != 0) // seems useless...
 136              		.loc 1 65 18 discriminator 1 view .LVU33
 137 0014 C0F38F00 		ubfx	r0, r0, #2, #16
 138              	.LVL4:
  70:Core/Src/MIDI_application.c **** 		{
 139              		.loc 1 70 24 view .LVU34
ARM GAS  /var/folders/lp/x54gwt890xv47sdkqj1k04q40000gn/T//ccbecmbK.s 			page 5


 140 0018 0138     		subs	r0, r0, #1
 141              	.LVL5:
  70:Core/Src/MIDI_application.c **** 		{
 142              		.loc 1 70 24 view .LVU35
 143 001a 80B2     		uxth	r0, r0
 144              	.LVL6:
  70:Core/Src/MIDI_application.c **** 		{
 145              		.loc 1 70 24 view .LVU36
 146 001c 271D     		adds	r7, r4, #4
 147 001e 07EB8007 		add	r7, r7, r0, lsl #2
 148 0022 07E0     		b	.L13
 149              	.LVL7:
 150              	.L12:
  79:Core/Src/MIDI_application.c **** 			ProcessMIDI(pack);
 151              		.loc 1 79 4 is_stmt 1 view .LVU37
 152 0024 66F30705 		bfi	r5, r6, #0, #8
 153 0028 2846     		mov	r0, r5
  70:Core/Src/MIDI_application.c **** 		{
 154              		.loc 1 70 9 is_stmt 0 view .LVU38
 155 002a 0434     		adds	r4, r4, #4
 156              	.LVL8:
 157              		.loc 1 79 4 view .LVU39
 158 002c FFF7FEFF 		bl	ProcessMIDI
 159              	.LVL9:
  70:Core/Src/MIDI_application.c **** 		{
 160              		.loc 1 70 9 is_stmt 1 view .LVU40
 161 0030 BC42     		cmp	r4, r7
 162 0032 10D0     		beq	.L10
 163              	.LVL10:
 164              	.L13:
  72:Core/Src/MIDI_application.c **** 			pack.evnt0 = *ptr ; ptr++ ;
 165              		.loc 1 72 4 view .LVU41
  73:Core/Src/MIDI_application.c **** 			pack.evnt1 = *ptr ; ptr++ ;
 166              		.loc 1 73 17 is_stmt 0 view .LVU42
 167 0034 2288     		ldrh	r2, [r4]	@ unaligned
  75:Core/Src/MIDI_application.c **** 
 168              		.loc 1 75 15 view .LVU43
 169 0036 A378     		ldrb	r3, [r4, #2]	@ zero_extendqisi2
  72:Core/Src/MIDI_application.c **** 			pack.evnt0 = *ptr ; ptr++ ;
 170              		.loc 1 72 21 view .LVU44
 171 0038 14F8016C 		ldrb	r6, [r4, #-1]	@ zero_extendqisi2
 172              	.LVL11:
  72:Core/Src/MIDI_application.c **** 			pack.evnt0 = *ptr ; ptr++ ;
 173              		.loc 1 72 28 is_stmt 1 view .LVU45
  73:Core/Src/MIDI_application.c **** 			pack.evnt1 = *ptr ; ptr++ ;
 174              		.loc 1 73 4 view .LVU46
  73:Core/Src/MIDI_application.c **** 			pack.evnt1 = *ptr ; ptr++ ;
 175              		.loc 1 73 24 view .LVU47
  74:Core/Src/MIDI_application.c **** 			pack.evnt2 = *ptr ; ptr++ ;
 176              		.loc 1 74 4 view .LVU48
  73:Core/Src/MIDI_application.c **** 			pack.evnt1 = *ptr ; ptr++ ;
 177              		.loc 1 73 15 is_stmt 0 view .LVU49
 178 003c 62F31725 		bfi	r5, r2, #8, #16
  74:Core/Src/MIDI_application.c **** 			pack.evnt2 = *ptr ; ptr++ ;
 179              		.loc 1 74 24 is_stmt 1 view .LVU50
 180              	.LVL12:
  75:Core/Src/MIDI_application.c **** 
ARM GAS  /var/folders/lp/x54gwt890xv47sdkqj1k04q40000gn/T//ccbecmbK.s 			page 6


 181              		.loc 1 75 4 view .LVU51
  75:Core/Src/MIDI_application.c **** 
 182              		.loc 1 75 15 is_stmt 0 view .LVU52
 183 0040 63F31F65 		bfi	r5, r3, #24, #8
  75:Core/Src/MIDI_application.c **** 
 184              		.loc 1 75 24 is_stmt 1 view .LVU53
 185              	.LVL13:
  77:Core/Src/MIDI_application.c **** 				HAL_GPIO_WritePin(GPIOD, 0x8000, GPIO_PIN_SET);
 186              		.loc 1 77 4 view .LVU54
  77:Core/Src/MIDI_application.c **** 				HAL_GPIO_WritePin(GPIOD, 0x8000, GPIO_PIN_SET);
 187              		.loc 1 77 6 is_stmt 0 view .LVU55
 188 0044 002E     		cmp	r6, #0
 189 0046 EDD0     		beq	.L12
  78:Core/Src/MIDI_application.c **** 			ProcessMIDI(pack);
 190              		.loc 1 78 5 is_stmt 1 view .LVU56
 191 0048 0122     		movs	r2, #1
 192 004a 4FF40041 		mov	r1, #32768
 193 004e 4046     		mov	r0, r8
 194 0050 FFF7FEFF 		bl	HAL_GPIO_WritePin
 195              	.LVL14:
 196 0054 E6E7     		b	.L12
 197              	.LVL15:
 198              	.L10:
  80:Core/Src/MIDI_application.c **** 
  81:Core/Src/MIDI_application.c **** 		}
  82:Core/Src/MIDI_application.c **** 	}
  83:Core/Src/MIDI_application.c **** }
 199              		.loc 1 83 1 is_stmt 0 view .LVU57
 200 0056 BDE8F081 		pop	{r4, r5, r6, r7, r8, pc}
 201              	.LVL16:
 202              	.L20:
 203              		.loc 1 83 1 view .LVU58
 204 005a 00BF     		.align	2
 205              	.L19:
 206 005c 00000000 		.word	hUSBHost
 207 0060 01000000 		.word	MIDI_RX_Buffer+1
 208 0064 000C0240 		.word	1073875968
 209              		.cfi_endproc
 210              	.LFE243:
 212              		.section	.text.USBH_MIDI_ReceiveCallback,"ax",%progbits
 213              		.align	1
 214              		.p2align 2,,3
 215              		.global	USBH_MIDI_ReceiveCallback
 216              		.syntax unified
 217              		.thumb
 218              		.thumb_func
 220              	USBH_MIDI_ReceiveCallback:
 221              	.LVL17:
 222              	.LFB244:
  84:Core/Src/MIDI_application.c **** 
  85:Core/Src/MIDI_application.c **** /*-----------------------------------------------------------------------------*/
  86:Core/Src/MIDI_application.c **** /**
  87:Core/Src/MIDI_application.c ****  * @brief  MIDI data receive callback.
  88:Core/Src/MIDI_application.c ****  * @param  phost: Host handle
  89:Core/Src/MIDI_application.c ****  * @retval None
  90:Core/Src/MIDI_application.c ****  */
  91:Core/Src/MIDI_application.c **** void USBH_MIDI_ReceiveCallback(USBH_HandleTypeDef *phost)
ARM GAS  /var/folders/lp/x54gwt890xv47sdkqj1k04q40000gn/T//ccbecmbK.s 			page 7


  92:Core/Src/MIDI_application.c **** {
 223              		.loc 1 92 1 is_stmt 1 view -0
 224              		.cfi_startproc
 225              		@ args = 0, pretend = 0, frame = 0
 226              		@ frame_needed = 0, uses_anonymous_args = 0
  93:Core/Src/MIDI_application.c **** 	ProcessReceivedMidiDatas();
 227              		.loc 1 93 2 view .LVU60
  92:Core/Src/MIDI_application.c **** 	ProcessReceivedMidiDatas();
 228              		.loc 1 92 1 is_stmt 0 view .LVU61
 229 0000 08B5     		push	{r3, lr}
 230              		.cfi_def_cfa_offset 8
 231              		.cfi_offset 3, -8
 232              		.cfi_offset 14, -4
 233              		.loc 1 93 2 view .LVU62
 234 0002 FFF7FEFF 		bl	ProcessReceivedMidiDatas
 235              	.LVL18:
  94:Core/Src/MIDI_application.c **** 
  95:Core/Src/MIDI_application.c **** 	USBH_MIDI_Receive(&hUSBHost, MIDI_RX_Buffer, RX_BUFF_SIZE); // start a new reception
 236              		.loc 1 95 2 is_stmt 1 view .LVU63
  96:Core/Src/MIDI_application.c **** }
 237              		.loc 1 96 1 is_stmt 0 view .LVU64
 238 0006 BDE80840 		pop	{r3, lr}
 239              		.cfi_restore 14
 240              		.cfi_restore 3
 241              		.cfi_def_cfa_offset 0
  95:Core/Src/MIDI_application.c **** }
 242              		.loc 1 95 2 view .LVU65
 243 000a 0249     		ldr	r1, .L23
 244 000c 0248     		ldr	r0, .L23+4
 245 000e 4022     		movs	r2, #64
 246 0010 FFF7FEBF 		b	USBH_MIDI_Receive
 247              	.LVL19:
 248              	.L24:
 249              		.align	2
 250              	.L23:
 251 0014 00000000 		.word	MIDI_RX_Buffer
 252 0018 00000000 		.word	hUSBHost
 253              		.cfi_endproc
 254              	.LFE244:
 256              		.global	MIDI_RX_Buffer
 257              		.section	.bss.MIDI_RX_Buffer,"aw",%nobits
 258              		.align	2
 261              	MIDI_RX_Buffer:
 262 0000 00000000 		.space	64
 262      00000000 
 262      00000000 
 262      00000000 
 262      00000000 
 263              		.text
 264              	.Letext0:
 265              		.file 2 "/Users/jr/Library/Application Support/Code/User/globalStorage/bmd.stm32-for-vscode/@xpack
 266              		.file 3 "/Users/jr/Library/Application Support/Code/User/globalStorage/bmd.stm32-for-vscode/@xpack
 267              		.file 4 "Drivers/CMSIS/Device/ST/STM32F4xx/Include/stm32f407xx.h"
 268              		.file 5 "Drivers/STM32F4xx_HAL_Driver/Inc/stm32f4xx_hal_gpio.h"
 269              		.file 6 "Middlewares/ST/STM32_USB_Host_Library/Core/Inc/usbh_def.h"
 270              		.file 7 "Core/Inc/usbh_MIDI.h"
 271              		.file 8 "Core/Inc/MIDI_application.h"
ARM GAS  /var/folders/lp/x54gwt890xv47sdkqj1k04q40000gn/T//ccbecmbK.s 			page 8


 272              		.file 9 "Core/Inc/main.h"
ARM GAS  /var/folders/lp/x54gwt890xv47sdkqj1k04q40000gn/T//ccbecmbK.s 			page 9

