ARM GAS  /var/folders/0z/tsy30v1j4xl4_7kw94k978ww0000gn/T//ccR3iLbM.s 			page 1


   1              		.cpu cortex-m4
   2              		.arch armv7e-m
   3              		.fpu fpv4-sp-d16
   4              		.eabi_attribute 27, 1
   5              		.eabi_attribute 28, 1
   6              		.eabi_attribute 20, 1
   7              		.eabi_attribute 21, 1
   8              		.eabi_attribute 23, 3
   9              		.eabi_attribute 24, 1
  10              		.eabi_attribute 25, 1
  11              		.eabi_attribute 26, 1
  12              		.eabi_attribute 30, 2
  13              		.eabi_attribute 34, 1
  14              		.eabi_attribute 18, 4
  15              		.file	"nt35510.c"
  16              		.text
  17              	.Ltext0:
  18              		.cfi_sections	.debug_frame
  19              		.section	.rodata.NT35510_Init.str1.4,"aMS",%progbits,1
  20              		.align	2
  21              	.LC0:
  22 0000 55AA5208 		.ascii	"U\252R\010\001\360\000"
  22      01F000
  23 0007 00       		.align	2
  24              	.LC5:
  25 0008 01020202 		.ascii	"\001\002\002\002\270\000"
  25      B800
  26              		.section	.text.NT35510_Init,"ax",%progbits
  27              		.align	1
  28              		.p2align 2,,3
  29              		.global	NT35510_Init
  30              		.syntax unified
  31              		.thumb
  32              		.thumb_func
  34              	NT35510_Init:
  35              	.LVL0:
  36              	.LFB3:
  37              		.file 1 "Drivers/BSP/Components/nt35510/nt35510.c"
   1:Drivers/BSP/Components/nt35510/nt35510.c **** /**
   2:Drivers/BSP/Components/nt35510/nt35510.c ****   ******************************************************************************
   3:Drivers/BSP/Components/nt35510/nt35510.c ****   * @file    nt35510.c
   4:Drivers/BSP/Components/nt35510/nt35510.c ****   * @author  MCD Application Team
   5:Drivers/BSP/Components/nt35510/nt35510.c ****   * @brief   This file provides the LCD Driver for Frida Techshine 3K138 (WVGA)
   6:Drivers/BSP/Components/nt35510/nt35510.c ****   *          DSI LCD Display NT35510.
   7:Drivers/BSP/Components/nt35510/nt35510.c ****   ******************************************************************************
   8:Drivers/BSP/Components/nt35510/nt35510.c ****   * @attention
   9:Drivers/BSP/Components/nt35510/nt35510.c ****   *
  10:Drivers/BSP/Components/nt35510/nt35510.c ****   * <h2><center>&copy; Copyright (c) 2020 STMicroelectronics.
  11:Drivers/BSP/Components/nt35510/nt35510.c ****   * All rights reserved.</center></h2>
  12:Drivers/BSP/Components/nt35510/nt35510.c ****   *
  13:Drivers/BSP/Components/nt35510/nt35510.c ****   * This software component is licensed by ST under BSD 3-Clause license,
  14:Drivers/BSP/Components/nt35510/nt35510.c ****   * the "License"; You may not use this file except in compliance with the
  15:Drivers/BSP/Components/nt35510/nt35510.c ****   * License. You may obtain a copy of the License at:
  16:Drivers/BSP/Components/nt35510/nt35510.c ****   *                        opensource.org/licenses/BSD-3-Clause
  17:Drivers/BSP/Components/nt35510/nt35510.c ****   *
  18:Drivers/BSP/Components/nt35510/nt35510.c ****   ******************************************************************************
  19:Drivers/BSP/Components/nt35510/nt35510.c ****   */
ARM GAS  /var/folders/0z/tsy30v1j4xl4_7kw94k978ww0000gn/T//ccR3iLbM.s 			page 2


  20:Drivers/BSP/Components/nt35510/nt35510.c **** 
  21:Drivers/BSP/Components/nt35510/nt35510.c **** /* Includes ------------------------------------------------------------------*/
  22:Drivers/BSP/Components/nt35510/nt35510.c **** #include "nt35510.h"
  23:Drivers/BSP/Components/nt35510/nt35510.c **** #include <stdio.h>
  24:Drivers/BSP/Components/nt35510/nt35510.c **** #include <stdarg.h>
  25:Drivers/BSP/Components/nt35510/nt35510.c **** 
  26:Drivers/BSP/Components/nt35510/nt35510.c **** 
  27:Drivers/BSP/Components/nt35510/nt35510.c **** /** @addtogroup BSP
  28:Drivers/BSP/Components/nt35510/nt35510.c ****   * @{
  29:Drivers/BSP/Components/nt35510/nt35510.c ****   */
  30:Drivers/BSP/Components/nt35510/nt35510.c **** 
  31:Drivers/BSP/Components/nt35510/nt35510.c **** /** @addtogroup Components
  32:Drivers/BSP/Components/nt35510/nt35510.c ****   * @{
  33:Drivers/BSP/Components/nt35510/nt35510.c ****   */
  34:Drivers/BSP/Components/nt35510/nt35510.c **** 
  35:Drivers/BSP/Components/nt35510/nt35510.c **** /** @defgroup NT35510 NT35510
  36:Drivers/BSP/Components/nt35510/nt35510.c ****   * @brief     This file provides a set of functions needed to drive the
  37:Drivers/BSP/Components/nt35510/nt35510.c ****   *            NT35510 IC display driver.
  38:Drivers/BSP/Components/nt35510/nt35510.c ****   * @{
  39:Drivers/BSP/Components/nt35510/nt35510.c ****   */
  40:Drivers/BSP/Components/nt35510/nt35510.c **** 
  41:Drivers/BSP/Components/nt35510/nt35510.c **** /* Private types -------------------------------------------------------------*/
  42:Drivers/BSP/Components/nt35510/nt35510.c **** /* Private variables ---------------------------------------------------------*/
  43:Drivers/BSP/Components/nt35510/nt35510.c **** /* Private constants ---------------------------------------------------------*/
  44:Drivers/BSP/Components/nt35510/nt35510.c **** /** @defgroup NT35510_Private_Constants NT35510 Private Constants
  45:Drivers/BSP/Components/nt35510/nt35510.c ****   * @{
  46:Drivers/BSP/Components/nt35510/nt35510.c ****   */
  47:Drivers/BSP/Components/nt35510/nt35510.c **** 
  48:Drivers/BSP/Components/nt35510/nt35510.c **** /*
  49:Drivers/BSP/Components/nt35510/nt35510.c ****  * @brief Constant tables of register settings used to transmit DSI
  50:Drivers/BSP/Components/nt35510/nt35510.c ****  * command packets as power up initialization sequence of the Frida 3K138
  51:Drivers/BSP/Components/nt35510/nt35510.c ****  */
  52:Drivers/BSP/Components/nt35510/nt35510.c **** 
  53:Drivers/BSP/Components/nt35510/nt35510.c **** /**
  54:Drivers/BSP/Components/nt35510/nt35510.c ****   * @}
  55:Drivers/BSP/Components/nt35510/nt35510.c ****   */
  56:Drivers/BSP/Components/nt35510/nt35510.c **** 
  57:Drivers/BSP/Components/nt35510/nt35510.c **** /* Private macros ------------------------------------------------------------*/
  58:Drivers/BSP/Components/nt35510/nt35510.c **** /* Private functions ---------------------------------------------------------*/
  59:Drivers/BSP/Components/nt35510/nt35510.c **** /** @defgroup NT35510_Exported_Variables
  60:Drivers/BSP/Components/nt35510/nt35510.c ****   * @{
  61:Drivers/BSP/Components/nt35510/nt35510.c ****   */
  62:Drivers/BSP/Components/nt35510/nt35510.c **** 
  63:Drivers/BSP/Components/nt35510/nt35510.c **** /**
  64:Drivers/BSP/Components/nt35510/nt35510.c ****   * @}
  65:Drivers/BSP/Components/nt35510/nt35510.c ****   */
  66:Drivers/BSP/Components/nt35510/nt35510.c **** 
  67:Drivers/BSP/Components/nt35510/nt35510.c **** /* Exported functions ---------------------------------------------------------*/
  68:Drivers/BSP/Components/nt35510/nt35510.c **** /** @defgroup NT35510_Exported_Functions OTM8009A Exported Functions
  69:Drivers/BSP/Components/nt35510/nt35510.c ****   * @{
  70:Drivers/BSP/Components/nt35510/nt35510.c ****   */
  71:Drivers/BSP/Components/nt35510/nt35510.c **** 
  72:Drivers/BSP/Components/nt35510/nt35510.c **** /**
  73:Drivers/BSP/Components/nt35510/nt35510.c ****   * @brief  Initializes the LCD Frida display part by communication in DSI mode in Video Mode
  74:Drivers/BSP/Components/nt35510/nt35510.c ****   *         with IC Display Driver NT35510 (see IC Driver specification for more information).
  75:Drivers/BSP/Components/nt35510/nt35510.c ****   * @param  hdsi_eval : pointer on DSI configuration structure
  76:Drivers/BSP/Components/nt35510/nt35510.c ****   * @param  hdsivideo_handle : pointer on DSI video mode configuration structure
ARM GAS  /var/folders/0z/tsy30v1j4xl4_7kw94k978ww0000gn/T//ccR3iLbM.s 			page 3


  77:Drivers/BSP/Components/nt35510/nt35510.c ****   * @retval Status
  78:Drivers/BSP/Components/nt35510/nt35510.c ****   */
  79:Drivers/BSP/Components/nt35510/nt35510.c **** uint8_t NT35510_Init(uint32_t ColorCoding, uint32_t orientation)
  80:Drivers/BSP/Components/nt35510/nt35510.c **** {
  38              		.loc 1 80 1 view -0
  39              		.cfi_startproc
  40              		@ args = 0, pretend = 0, frame = 192
  41              		@ frame_needed = 0, uses_anonymous_args = 0
  81:Drivers/BSP/Components/nt35510/nt35510.c ****   NT35510_IO_Delay(120);
  42              		.loc 1 81 3 view .LVU1
  80:Drivers/BSP/Components/nt35510/nt35510.c ****   NT35510_IO_Delay(120);
  43              		.loc 1 80 1 is_stmt 0 view .LVU2
  44 0000 30B5     		push	{r4, r5, lr}
  45              		.cfi_def_cfa_offset 12
  46              		.cfi_offset 4, -12
  47              		.cfi_offset 5, -8
  48              		.cfi_offset 14, -4
  49 0002 0446     		mov	r4, r0
  50 0004 B1B0     		sub	sp, sp, #196
  51              		.cfi_def_cfa_offset 208
  52              		.loc 1 81 3 view .LVU3
  53 0006 7820     		movs	r0, #120
  54              	.LVL1:
  80:Drivers/BSP/Components/nt35510/nt35510.c ****   NT35510_IO_Delay(120);
  55              		.loc 1 80 1 view .LVU4
  56 0008 0D46     		mov	r5, r1
  57              		.loc 1 81 3 view .LVU5
  58 000a FFF7FEFF 		bl	NT35510_IO_Delay
  59              	.LVL2:
  82:Drivers/BSP/Components/nt35510/nt35510.c **** 
  83:Drivers/BSP/Components/nt35510/nt35510.c **** /* ************************************************************************** */
  84:Drivers/BSP/Components/nt35510/nt35510.c **** /* Proprietary Initialization                                                 */
  85:Drivers/BSP/Components/nt35510/nt35510.c **** /* ************************************************************************** */
  86:Drivers/BSP/Components/nt35510/nt35510.c ****   const uint8_t nt35510_reg[]   = {0x55, 0xAA, 0x52, 0x08, 0x01, 0xF0};
  60              		.loc 1 86 3 is_stmt 1 view .LVU6
  61              		.loc 1 86 17 is_stmt 0 view .LVU7
  62 000e A64A     		ldr	r2, .L8
  87:Drivers/BSP/Components/nt35510/nt35510.c ****   const uint8_t nt35510_reg1[]  = {0x03, 0x03, 0x03, 0xB0};
  88:Drivers/BSP/Components/nt35510/nt35510.c ****   const uint8_t nt35510_reg2[]  = {0x46, 0x46, 0x46, 0xB6};
  89:Drivers/BSP/Components/nt35510/nt35510.c ****   const uint8_t nt35510_reg3[]  = {0x03, 0x03, 0x03, 0xB1};
  90:Drivers/BSP/Components/nt35510/nt35510.c ****   const uint8_t nt35510_reg4[]  = {0x36, 0x36, 0x36, 0xB7};
  63              		.loc 1 90 17 view .LVU8
  64 0010 DFF8C4C2 		ldr	ip, .L8+48
  91:Drivers/BSP/Components/nt35510/nt35510.c ****   const uint8_t nt35510_reg5[]  = {0x00, 0x00, 0x02, 0xB2};
  92:Drivers/BSP/Components/nt35510/nt35510.c ****   const uint8_t nt35510_reg6[]  = {0x26, 0x26, 0x26, 0xB8};
  65              		.loc 1 92 17 view .LVU9
  66 0014 DFF8C4E2 		ldr	lr, .L8+52
  93:Drivers/BSP/Components/nt35510/nt35510.c ****   const uint8_t nt35510_reg7[]  = {0xBF, 0x01};
  94:Drivers/BSP/Components/nt35510/nt35510.c ****   const uint8_t nt35510_reg8[]  = {0x09, 0x09, 0x09, 0xB3};
  95:Drivers/BSP/Components/nt35510/nt35510.c ****   const uint8_t nt35510_reg9[]  = {0x36, 0x36, 0x36, 0xB9};
  96:Drivers/BSP/Components/nt35510/nt35510.c ****   const uint8_t nt35510_reg10[] = {0x08, 0x08, 0x08, 0xB5};
  97:Drivers/BSP/Components/nt35510/nt35510.c ****   const uint8_t nt35510_reg12[] = {0x26, 0x26, 0x26, 0xBA};
  98:Drivers/BSP/Components/nt35510/nt35510.c ****   const uint8_t nt35510_reg13[] = {0x00, 0x80, 0x00, 0xBC};
  99:Drivers/BSP/Components/nt35510/nt35510.c ****   const uint8_t nt35510_reg14[] = {0x00, 0x80, 0x00, 0xBD};
 100:Drivers/BSP/Components/nt35510/nt35510.c ****   const uint8_t nt35510_reg15[] = {0x00, 0x50, 0xBE};
  67              		.loc 1 100 17 view .LVU10
  68 0018 A44B     		ldr	r3, .L8+4
ARM GAS  /var/folders/0z/tsy30v1j4xl4_7kw94k978ww0000gn/T//ccR3iLbM.s 			page 4


  86:Drivers/BSP/Components/nt35510/nt35510.c ****   const uint8_t nt35510_reg1[]  = {0x03, 0x03, 0x03, 0xB0};
  69              		.loc 1 86 17 view .LVU11
  70 001a 92E80300 		ldm	r2, {r0, r1}
  71 001e 2C90     		str	r0, [sp, #176]
  72 0020 ADF8B410 		strh	r1, [sp, #180]	@ movhi
  87:Drivers/BSP/Components/nt35510/nt35510.c ****   const uint8_t nt35510_reg2[]  = {0x46, 0x46, 0x46, 0xB6};
  73              		.loc 1 87 3 is_stmt 1 view .LVU12
  88:Drivers/BSP/Components/nt35510/nt35510.c ****   const uint8_t nt35510_reg3[]  = {0x03, 0x03, 0x03, 0xB1};
  74              		.loc 1 88 17 is_stmt 0 view .LVU13
  75 0024 A248     		ldr	r0, .L8+8
  76 0026 A349     		ldr	r1, .L8+12
  77 0028 CDE91401 		strd	r0, r1, [sp, #80]
  89:Drivers/BSP/Components/nt35510/nt35510.c ****   const uint8_t nt35510_reg4[]  = {0x36, 0x36, 0x36, 0xB7};
  78              		.loc 1 89 3 is_stmt 1 view .LVU14
  90:Drivers/BSP/Components/nt35510/nt35510.c ****   const uint8_t nt35510_reg5[]  = {0x00, 0x00, 0x02, 0xB2};
  79              		.loc 1 90 17 is_stmt 0 view .LVU15
  80 002c A249     		ldr	r1, .L8+16
  95:Drivers/BSP/Components/nt35510/nt35510.c ****   const uint8_t nt35510_reg10[] = {0x08, 0x08, 0x08, 0xB5};
  81              		.loc 1 95 17 view .LVU16
  82 002e A348     		ldr	r0, .L8+20
  90:Drivers/BSP/Components/nt35510/nt35510.c ****   const uint8_t nt35510_reg5[]  = {0x00, 0x00, 0x02, 0xB2};
  83              		.loc 1 90 17 view .LVU17
  84 0030 CDE916C1 		strd	ip, r1, [sp, #88]
  91:Drivers/BSP/Components/nt35510/nt35510.c ****   const uint8_t nt35510_reg6[]  = {0x26, 0x26, 0x26, 0xB8};
  85              		.loc 1 91 3 is_stmt 1 view .LVU18
  92:Drivers/BSP/Components/nt35510/nt35510.c ****   const uint8_t nt35510_reg7[]  = {0xBF, 0x01};
  86              		.loc 1 92 17 is_stmt 0 view .LVU19
  87 0034 A249     		ldr	r1, .L8+24
  97:Drivers/BSP/Components/nt35510/nt35510.c ****   const uint8_t nt35510_reg13[] = {0x00, 0x80, 0x00, 0xBC};
  88              		.loc 1 97 17 view .LVU20
  89 0036 DFF8A8C2 		ldr	ip, .L8+56
  92:Drivers/BSP/Components/nt35510/nt35510.c ****   const uint8_t nt35510_reg7[]  = {0xBF, 0x01};
  90              		.loc 1 92 17 view .LVU21
  91 003a CDE918E1 		strd	lr, r1, [sp, #96]
  93:Drivers/BSP/Components/nt35510/nt35510.c ****   const uint8_t nt35510_reg8[]  = {0x09, 0x09, 0x09, 0xB3};
  92              		.loc 1 93 3 is_stmt 1 view .LVU22
  93:Drivers/BSP/Components/nt35510/nt35510.c ****   const uint8_t nt35510_reg8[]  = {0x09, 0x09, 0x09, 0xB3};
  93              		.loc 1 93 17 is_stmt 0 view .LVU23
  94 003e 40F2BF11 		movw	r1, #447
  95 0042 ADF80410 		strh	r1, [sp, #4]	@ movhi
  94:Drivers/BSP/Components/nt35510/nt35510.c ****   const uint8_t nt35510_reg9[]  = {0x36, 0x36, 0x36, 0xB9};
  96              		.loc 1 94 3 is_stmt 1 view .LVU24
  95:Drivers/BSP/Components/nt35510/nt35510.c ****   const uint8_t nt35510_reg10[] = {0x08, 0x08, 0x08, 0xB5};
  97              		.loc 1 95 17 is_stmt 0 view .LVU25
  98 0046 9F49     		ldr	r1, .L8+28
  99              		.loc 1 100 17 view .LVU26
 100 0048 1A46     		mov	r2, r3
  95:Drivers/BSP/Components/nt35510/nt35510.c ****   const uint8_t nt35510_reg10[] = {0x08, 0x08, 0x08, 0xB5};
 101              		.loc 1 95 17 view .LVU27
 102 004a CDE91A01 		strd	r0, r1, [sp, #104]
  96:Drivers/BSP/Components/nt35510/nt35510.c ****   const uint8_t nt35510_reg12[] = {0x26, 0x26, 0x26, 0xBA};
 103              		.loc 1 96 3 is_stmt 1 view .LVU28
  97:Drivers/BSP/Components/nt35510/nt35510.c ****   const uint8_t nt35510_reg13[] = {0x00, 0x80, 0x00, 0xBC};
 104              		.loc 1 97 17 is_stmt 0 view .LVU29
 105 004e 9E49     		ldr	r1, .L8+32
 106              		.loc 1 100 17 view .LVU30
 107 0050 52F8040B 		ldr	r0, [r2], #4
ARM GAS  /var/folders/0z/tsy30v1j4xl4_7kw94k978ww0000gn/T//ccR3iLbM.s 			page 5


 108 0054 ADF84400 		strh	r0, [sp, #68]	@ movhi
  97:Drivers/BSP/Components/nt35510/nt35510.c ****   const uint8_t nt35510_reg13[] = {0x00, 0x80, 0x00, 0xBC};
 109              		.loc 1 97 17 view .LVU31
 110 0058 CDE91CC1 		strd	ip, r1, [sp, #112]
  98:Drivers/BSP/Components/nt35510/nt35510.c ****   const uint8_t nt35510_reg14[] = {0x00, 0x80, 0x00, 0xBD};
 111              		.loc 1 98 3 is_stmt 1 view .LVU32
  98:Drivers/BSP/Components/nt35510/nt35510.c ****   const uint8_t nt35510_reg14[] = {0x00, 0x80, 0x00, 0xBD};
 112              		.loc 1 98 17 is_stmt 0 view .LVU33
 113 005c 9B49     		ldr	r1, .L8+36
 114 005e 1E91     		str	r1, [sp, #120]
  99:Drivers/BSP/Components/nt35510/nt35510.c ****   const uint8_t nt35510_reg15[] = {0x00, 0x50, 0xBE};
 115              		.loc 1 99 3 is_stmt 1 view .LVU34
 116              		.loc 1 100 17 is_stmt 0 view .LVU35
 117 0060 000C     		lsrs	r0, r0, #16
  99:Drivers/BSP/Components/nt35510/nt35510.c ****   const uint8_t nt35510_reg15[] = {0x00, 0x50, 0xBE};
 118              		.loc 1 99 17 view .LVU36
 119 0062 01F18071 		add	r1, r1, #16777216
 120 0066 1F91     		str	r1, [sp, #124]
 121              		.loc 1 100 3 is_stmt 1 view .LVU37
 122              		.loc 1 100 17 is_stmt 0 view .LVU38
 123 0068 8DF84600 		strb	r0, [sp, #70]
 101:Drivers/BSP/Components/nt35510/nt35510.c ****   const uint8_t nt35510_reg16[] = {0x55, 0xAA, 0x52, 0x08, 0x00, 0xF0};
 124              		.loc 1 101 3 is_stmt 1 view .LVU39
 125              		.loc 1 101 17 is_stmt 0 view .LVU40
 126 006c 92E80300 		ldm	r2, {r0, r1}
 102:Drivers/BSP/Components/nt35510/nt35510.c ****   const uint8_t nt35510_reg17[] = {0xFC, 0x00, 0xB1};
 127              		.loc 1 102 17 view .LVU41
 128 0070 DA68     		ldr	r2, [r3, #12]
 129 0072 ADF84820 		strh	r2, [sp, #72]	@ movhi
 130 0076 120C     		lsrs	r2, r2, #16
 131 0078 8DF84A20 		strb	r2, [sp, #74]
 103:Drivers/BSP/Components/nt35510/nt35510.c ****   const uint8_t nt35510_reg18[] = {0xB6, 0x03};
 132              		.loc 1 103 17 view .LVU42
 133 007c 40F2B632 		movw	r2, #950
 134 0080 ADF80820 		strh	r2, [sp, #8]	@ movhi
 104:Drivers/BSP/Components/nt35510/nt35510.c ****   const uint8_t nt35510_reg19[] = {0xB5, 0x51};
 135              		.loc 1 104 17 view .LVU43
 136 0084 45F2B512 		movw	r2, #20917
 137 0088 ADF80C20 		strh	r2, [sp, #12]	@ movhi
 105:Drivers/BSP/Components/nt35510/nt35510.c ****   const uint8_t nt35510_reg20[] = {0x00, 0x00, 0xB7};
 138              		.loc 1 105 17 view .LVU44
 139 008c 1A69     		ldr	r2, [r3, #16]
 140 008e ADF84C20 		strh	r2, [sp, #76]	@ movhi
 141 0092 120C     		lsrs	r2, r2, #16
 142 0094 8DF84E20 		strb	r2, [sp, #78]
 106:Drivers/BSP/Components/nt35510/nt35510.c ****   const uint8_t nt35510_reg21[] = {0x01, 0x02, 0x02, 0x02, 0xB8};
 143              		.loc 1 106 17 view .LVU45
 144 0098 8D4A     		ldr	r2, .L8+40
 101:Drivers/BSP/Components/nt35510/nt35510.c ****   const uint8_t nt35510_reg17[] = {0xFC, 0x00, 0xB1};
 145              		.loc 1 101 17 view .LVU46
 146 009a 2E90     		str	r0, [sp, #184]
 147 009c ADF8BC10 		strh	r1, [sp, #188]	@ movhi
 102:Drivers/BSP/Components/nt35510/nt35510.c ****   const uint8_t nt35510_reg18[] = {0xB6, 0x03};
 148              		.loc 1 102 3 is_stmt 1 view .LVU47
 103:Drivers/BSP/Components/nt35510/nt35510.c ****   const uint8_t nt35510_reg19[] = {0xB5, 0x51};
 149              		.loc 1 103 3 view .LVU48
 104:Drivers/BSP/Components/nt35510/nt35510.c ****   const uint8_t nt35510_reg20[] = {0x00, 0x00, 0xB7};
ARM GAS  /var/folders/0z/tsy30v1j4xl4_7kw94k978ww0000gn/T//ccR3iLbM.s 			page 6


 150              		.loc 1 104 3 view .LVU49
 105:Drivers/BSP/Components/nt35510/nt35510.c ****   const uint8_t nt35510_reg21[] = {0x01, 0x02, 0x02, 0x02, 0xB8};
 151              		.loc 1 105 3 view .LVU50
 152              		.loc 1 106 3 view .LVU51
 153              		.loc 1 106 17 is_stmt 0 view .LVU52
 154 00a0 92E80300 		ldm	r2, {r0, r1}
 155 00a4 8DF88C10 		strb	r1, [sp, #140]
 107:Drivers/BSP/Components/nt35510/nt35510.c ****   const uint8_t nt35510_reg22[] = {0x00, 0x00, 0x00, 0xBC};
 156              		.loc 1 107 3 is_stmt 1 view .LVU53
 108:Drivers/BSP/Components/nt35510/nt35510.c ****   const uint8_t nt35510_reg23[] = {0x03, 0x00, 0x00, 0xCC};
 157              		.loc 1 108 17 is_stmt 0 view .LVU54
 158 00a8 8A49     		ldr	r1, .L8+44
 106:Drivers/BSP/Components/nt35510/nt35510.c ****   const uint8_t nt35510_reg22[] = {0x00, 0x00, 0x00, 0xBC};
 159              		.loc 1 106 17 view .LVU55
 160 00aa 2290     		str	r0, [sp, #136]
 107:Drivers/BSP/Components/nt35510/nt35510.c ****   const uint8_t nt35510_reg22[] = {0x00, 0x00, 0x00, 0xBC};
 161              		.loc 1 107 17 view .LVU56
 162 00ac 4FF03C40 		mov	r0, #-1140850688
 163              		.loc 1 108 17 view .LVU57
 164 00b0 CDE92001 		strd	r0, r1, [sp, #128]
 109:Drivers/BSP/Components/nt35510/nt35510.c ****   const uint8_t nt35510_reg24[] = {0xBA, 0x01};
 165              		.loc 1 109 3 is_stmt 1 view .LVU58
 166              		.loc 1 109 17 is_stmt 0 view .LVU59
 167 00b4 4FF4DD71 		mov	r1, #442
 110:Drivers/BSP/Components/nt35510/nt35510.c ****   const uint8_t nt35510_madctl_portrait[] = {NT35510_CMD_MADCTL ,0x00};
 111:Drivers/BSP/Components/nt35510/nt35510.c ****   const uint8_t nt35510_caset_portrait[] = {0x00, 0x00, 0x01, 0xDF ,NT35510_CMD_CASET};
 168              		.loc 1 111 17 view .LVU60
 169 00b8 03F11402 		add	r2, r3, #20
 109:Drivers/BSP/Components/nt35510/nt35510.c ****   const uint8_t nt35510_reg24[] = {0xBA, 0x01};
 170              		.loc 1 109 17 view .LVU61
 171 00bc ADF81010 		strh	r1, [sp, #16]	@ movhi
 110:Drivers/BSP/Components/nt35510/nt35510.c ****   const uint8_t nt35510_madctl_portrait[] = {NT35510_CMD_MADCTL ,0x00};
 172              		.loc 1 110 3 is_stmt 1 view .LVU62
 110:Drivers/BSP/Components/nt35510/nt35510.c ****   const uint8_t nt35510_madctl_portrait[] = {NT35510_CMD_MADCTL ,0x00};
 173              		.loc 1 110 17 is_stmt 0 view .LVU63
 174 00c0 3621     		movs	r1, #54
 175 00c2 ADF81410 		strh	r1, [sp, #20]	@ movhi
 176              		.loc 1 111 3 is_stmt 1 view .LVU64
 177              		.loc 1 111 17 is_stmt 0 view .LVU65
 178 00c6 92E80300 		ldm	r2, {r0, r1}
 112:Drivers/BSP/Components/nt35510/nt35510.c ****   const uint8_t nt35510_raset_portrait[] = {0x00, 0x00, 0x03, 0x1F ,NT35510_CMD_RASET};
 179              		.loc 1 112 17 view .LVU66
 180 00ca 03F11C02 		add	r2, r3, #28
 111:Drivers/BSP/Components/nt35510/nt35510.c ****   const uint8_t nt35510_raset_portrait[] = {0x00, 0x00, 0x03, 0x1F ,NT35510_CMD_RASET};
 181              		.loc 1 111 17 view .LVU67
 182 00ce 2490     		str	r0, [sp, #144]
 183 00d0 8DF89410 		strb	r1, [sp, #148]
 184              		.loc 1 112 3 is_stmt 1 view .LVU68
 185              		.loc 1 112 17 is_stmt 0 view .LVU69
 186 00d4 92E80300 		ldm	r2, {r0, r1}
 113:Drivers/BSP/Components/nt35510/nt35510.c ****   const uint8_t nt35510_madctl_landscape[] = {NT35510_CMD_MADCTL, 0x60};
 114:Drivers/BSP/Components/nt35510/nt35510.c ****   const uint8_t nt35510_caset_landscape[] = {0x00, 0x00, 0x03, 0x1F ,NT35510_CMD_CASET};
 187              		.loc 1 114 17 view .LVU70
 188 00d8 03F12402 		add	r2, r3, #36
 112:Drivers/BSP/Components/nt35510/nt35510.c ****   const uint8_t nt35510_madctl_landscape[] = {NT35510_CMD_MADCTL, 0x60};
 189              		.loc 1 112 17 view .LVU71
 190 00dc 8DF89C10 		strb	r1, [sp, #156]
ARM GAS  /var/folders/0z/tsy30v1j4xl4_7kw94k978ww0000gn/T//ccR3iLbM.s 			page 7


 113:Drivers/BSP/Components/nt35510/nt35510.c ****   const uint8_t nt35510_madctl_landscape[] = {NT35510_CMD_MADCTL, 0x60};
 191              		.loc 1 113 3 is_stmt 1 view .LVU72
 113:Drivers/BSP/Components/nt35510/nt35510.c ****   const uint8_t nt35510_madctl_landscape[] = {NT35510_CMD_MADCTL, 0x60};
 192              		.loc 1 113 17 is_stmt 0 view .LVU73
 193 00e0 46F23601 		movw	r1, #24630
 112:Drivers/BSP/Components/nt35510/nt35510.c ****   const uint8_t nt35510_madctl_landscape[] = {NT35510_CMD_MADCTL, 0x60};
 194              		.loc 1 112 17 view .LVU74
 195 00e4 2690     		str	r0, [sp, #152]
 113:Drivers/BSP/Components/nt35510/nt35510.c ****   const uint8_t nt35510_madctl_landscape[] = {NT35510_CMD_MADCTL, 0x60};
 196              		.loc 1 113 17 view .LVU75
 197 00e6 ADF81810 		strh	r1, [sp, #24]	@ movhi
 198              		.loc 1 114 3 is_stmt 1 view .LVU76
 199              		.loc 1 114 17 is_stmt 0 view .LVU77
 200 00ea 92E80300 		ldm	r2, {r0, r1}
 115:Drivers/BSP/Components/nt35510/nt35510.c ****   const uint8_t nt35510_raset_landscape[] = {0x00, 0x00, 0x01, 0xDF ,NT35510_CMD_RASET};
 201              		.loc 1 115 17 view .LVU78
 202 00ee 2C33     		adds	r3, r3, #44
 114:Drivers/BSP/Components/nt35510/nt35510.c ****   const uint8_t nt35510_raset_landscape[] = {0x00, 0x00, 0x01, 0xDF ,NT35510_CMD_RASET};
 203              		.loc 1 114 17 view .LVU79
 204 00f0 2890     		str	r0, [sp, #160]
 205 00f2 8DF8A410 		strb	r1, [sp, #164]
 206              		.loc 1 115 3 is_stmt 1 view .LVU80
 207              		.loc 1 115 17 is_stmt 0 view .LVU81
 208 00f6 93E80300 		ldm	r3, {r0, r1}
 116:Drivers/BSP/Components/nt35510/nt35510.c ****   const uint8_t nt35510_reg26[] = {NT35510_CMD_TEEON, 0x00};  /* Tear on */
 209              		.loc 1 116 17 view .LVU82
 210 00fa 3523     		movs	r3, #53
 211 00fc ADF81C30 		strh	r3, [sp, #28]	@ movhi
 117:Drivers/BSP/Components/nt35510/nt35510.c ****   const uint8_t nt35510_reg27[] = {NT35510_CMD_SLPOUT, 0x00}; /* Sleep out */
 212              		.loc 1 117 17 view .LVU83
 213 0100 1123     		movs	r3, #17
 214 0102 ADF82030 		strh	r3, [sp, #32]	@ movhi
 118:Drivers/BSP/Components/nt35510/nt35510.c ****   const uint8_t nt35510_reg30[] = {NT35510_CMD_DISPON, 0x00};
 215              		.loc 1 118 17 view .LVU84
 216 0106 2923     		movs	r3, #41
 217 0108 ADF82430 		strh	r3, [sp, #36]	@ movhi
 119:Drivers/BSP/Components/nt35510/nt35510.c **** 
 120:Drivers/BSP/Components/nt35510/nt35510.c ****   const uint8_t nt35510_reg31[] = {NT35510_CMD_WRDISBV, 0x7F};
 218              		.loc 1 120 17 view .LVU85
 219 010c 47F65173 		movw	r3, #32593
 220 0110 ADF82830 		strh	r3, [sp, #40]	@ movhi
 121:Drivers/BSP/Components/nt35510/nt35510.c ****   const uint8_t nt35510_reg32[] = {NT35510_CMD_WRCTRLD, 0x2C};
 221              		.loc 1 121 17 view .LVU86
 222 0114 42F65343 		movw	r3, #11347
 223 0118 ADF82C30 		strh	r3, [sp, #44]	@ movhi
 122:Drivers/BSP/Components/nt35510/nt35510.c ****   const uint8_t nt35510_reg33[] = {NT35510_CMD_WRCABC, 0x02};
 224              		.loc 1 122 17 view .LVU87
 225 011c 40F25523 		movw	r3, #597
 226 0120 ADF83030 		strh	r3, [sp, #48]	@ movhi
 123:Drivers/BSP/Components/nt35510/nt35510.c ****   const uint8_t nt35510_reg34[] = {NT35510_CMD_WRCABCMB, 0xFF};
 227              		.loc 1 123 17 view .LVU88
 228 0124 4FF65E73 		movw	r3, #65374
 229 0128 ADF83430 		strh	r3, [sp, #52]	@ movhi
 124:Drivers/BSP/Components/nt35510/nt35510.c ****   const uint8_t nt35510_reg35[] = {NT35510_CMD_RAMWR, 0x00};
 230              		.loc 1 124 17 view .LVU89
 231 012c 2C23     		movs	r3, #44
 115:Drivers/BSP/Components/nt35510/nt35510.c ****   const uint8_t nt35510_reg26[] = {NT35510_CMD_TEEON, 0x00};  /* Tear on */
ARM GAS  /var/folders/0z/tsy30v1j4xl4_7kw94k978ww0000gn/T//ccR3iLbM.s 			page 8


 232              		.loc 1 115 17 view .LVU90
 233 012e 2A90     		str	r0, [sp, #168]
 234 0130 8DF8AC10 		strb	r1, [sp, #172]
 116:Drivers/BSP/Components/nt35510/nt35510.c ****   const uint8_t nt35510_reg27[] = {NT35510_CMD_SLPOUT, 0x00}; /* Sleep out */
 235              		.loc 1 116 3 is_stmt 1 view .LVU91
 117:Drivers/BSP/Components/nt35510/nt35510.c ****   const uint8_t nt35510_reg30[] = {NT35510_CMD_DISPON, 0x00};
 236              		.loc 1 117 3 view .LVU92
 118:Drivers/BSP/Components/nt35510/nt35510.c **** 
 237              		.loc 1 118 3 view .LVU93
 120:Drivers/BSP/Components/nt35510/nt35510.c ****   const uint8_t nt35510_reg32[] = {NT35510_CMD_WRCTRLD, 0x2C};
 238              		.loc 1 120 3 view .LVU94
 121:Drivers/BSP/Components/nt35510/nt35510.c ****   const uint8_t nt35510_reg33[] = {NT35510_CMD_WRCABC, 0x02};
 239              		.loc 1 121 3 view .LVU95
 122:Drivers/BSP/Components/nt35510/nt35510.c ****   const uint8_t nt35510_reg34[] = {NT35510_CMD_WRCABCMB, 0xFF};
 240              		.loc 1 122 3 view .LVU96
 123:Drivers/BSP/Components/nt35510/nt35510.c ****   const uint8_t nt35510_reg35[] = {NT35510_CMD_RAMWR, 0x00};
 241              		.loc 1 123 3 view .LVU97
 242              		.loc 1 124 3 view .LVU98
 243              		.loc 1 124 17 is_stmt 0 view .LVU99
 244 0134 ADF83830 		strh	r3, [sp, #56]	@ movhi
 125:Drivers/BSP/Components/nt35510/nt35510.c ****   const uint8_t nt35510_reg36[] = {NT35510_CMD_COLMOD, NT35510_COLMOD_RGB565};
 245              		.loc 1 125 3 is_stmt 1 view .LVU100
 246              		.loc 1 125 17 is_stmt 0 view .LVU101
 247 0138 45F23A53 		movw	r3, #21818
 126:Drivers/BSP/Components/nt35510/nt35510.c ****   const uint8_t nt35510_reg37[] = {NT35510_CMD_COLMOD, NT35510_COLMOD_RGB888};
 127:Drivers/BSP/Components/nt35510/nt35510.c **** 
 128:Drivers/BSP/Components/nt35510/nt35510.c ****   DSI_IO_WriteCmd(5, (uint8_t *)nt35510_reg); /* LV2:  Page 1 enable */
 248              		.loc 1 128 3 view .LVU102
 249 013c 0520     		movs	r0, #5
 250 013e 2CA9     		add	r1, sp, #176
 125:Drivers/BSP/Components/nt35510/nt35510.c ****   const uint8_t nt35510_reg36[] = {NT35510_CMD_COLMOD, NT35510_COLMOD_RGB565};
 251              		.loc 1 125 17 view .LVU103
 252 0140 ADF83C30 		strh	r3, [sp, #60]	@ movhi
 126:Drivers/BSP/Components/nt35510/nt35510.c ****   const uint8_t nt35510_reg37[] = {NT35510_CMD_COLMOD, NT35510_COLMOD_RGB888};
 253              		.loc 1 126 3 is_stmt 1 view .LVU104
 126:Drivers/BSP/Components/nt35510/nt35510.c ****   const uint8_t nt35510_reg37[] = {NT35510_CMD_COLMOD, NT35510_COLMOD_RGB888};
 254              		.loc 1 126 17 is_stmt 0 view .LVU105
 255 0144 47F23A73 		movw	r3, #30522
 256 0148 ADF84030 		strh	r3, [sp, #64]	@ movhi
 257              		.loc 1 128 3 is_stmt 1 view .LVU106
 258 014c FFF7FEFF 		bl	DSI_IO_WriteCmd
 259              	.LVL3:
 129:Drivers/BSP/Components/nt35510/nt35510.c ****   DSI_IO_WriteCmd(3, (uint8_t *)nt35510_reg1);/* AVDD: 5.2V */
 260              		.loc 1 129 3 view .LVU107
 261 0150 14A9     		add	r1, sp, #80
 262 0152 0320     		movs	r0, #3
 263 0154 FFF7FEFF 		bl	DSI_IO_WriteCmd
 264              	.LVL4:
 130:Drivers/BSP/Components/nt35510/nt35510.c ****   DSI_IO_WriteCmd(3, (uint8_t *)nt35510_reg2);/* AVDD: Ratio */
 265              		.loc 1 130 3 view .LVU108
 266 0158 15A9     		add	r1, sp, #84
 267 015a 0320     		movs	r0, #3
 268 015c FFF7FEFF 		bl	DSI_IO_WriteCmd
 269              	.LVL5:
 131:Drivers/BSP/Components/nt35510/nt35510.c ****   DSI_IO_WriteCmd(3, (uint8_t *)nt35510_reg3);/* AVEE: -5.2V */
 270              		.loc 1 131 3 view .LVU109
 271 0160 16A9     		add	r1, sp, #88
ARM GAS  /var/folders/0z/tsy30v1j4xl4_7kw94k978ww0000gn/T//ccR3iLbM.s 			page 9


 272 0162 0320     		movs	r0, #3
 273 0164 FFF7FEFF 		bl	DSI_IO_WriteCmd
 274              	.LVL6:
 132:Drivers/BSP/Components/nt35510/nt35510.c ****   DSI_IO_WriteCmd(3, (uint8_t *)nt35510_reg4);/* AVEE: Ratio */
 275              		.loc 1 132 3 view .LVU110
 276 0168 17A9     		add	r1, sp, #92
 277 016a 0320     		movs	r0, #3
 278 016c FFF7FEFF 		bl	DSI_IO_WriteCmd
 279              	.LVL7:
 133:Drivers/BSP/Components/nt35510/nt35510.c ****   DSI_IO_WriteCmd(3, (uint8_t *)nt35510_reg5);/* VCL: -2.5V */
 280              		.loc 1 133 3 view .LVU111
 281 0170 18A9     		add	r1, sp, #96
 282 0172 0320     		movs	r0, #3
 283 0174 FFF7FEFF 		bl	DSI_IO_WriteCmd
 284              	.LVL8:
 134:Drivers/BSP/Components/nt35510/nt35510.c ****   DSI_IO_WriteCmd(3, (uint8_t *)nt35510_reg6);/* VCL: Ratio */
 285              		.loc 1 134 3 view .LVU112
 286 0178 19A9     		add	r1, sp, #100
 287 017a 0320     		movs	r0, #3
 288 017c FFF7FEFF 		bl	DSI_IO_WriteCmd
 289              	.LVL9:
 135:Drivers/BSP/Components/nt35510/nt35510.c ****   DSI_IO_WriteCmd(1, (uint8_t *)nt35510_reg7);/* VGH: 15V (Free Pump) */
 290              		.loc 1 135 3 view .LVU113
 291 0180 01A9     		add	r1, sp, #4
 292 0182 0120     		movs	r0, #1
 293 0184 FFF7FEFF 		bl	DSI_IO_WriteCmd
 294              	.LVL10:
 136:Drivers/BSP/Components/nt35510/nt35510.c ****   DSI_IO_WriteCmd(3, (uint8_t *)nt35510_reg8);
 295              		.loc 1 136 3 view .LVU114
 296 0188 1AA9     		add	r1, sp, #104
 297 018a 0320     		movs	r0, #3
 298 018c FFF7FEFF 		bl	DSI_IO_WriteCmd
 299              	.LVL11:
 137:Drivers/BSP/Components/nt35510/nt35510.c ****   DSI_IO_WriteCmd(3, (uint8_t *)nt35510_reg9);/* VGH: Ratio */
 300              		.loc 1 137 3 view .LVU115
 301 0190 1BA9     		add	r1, sp, #108
 302 0192 0320     		movs	r0, #3
 303 0194 FFF7FEFF 		bl	DSI_IO_WriteCmd
 304              	.LVL12:
 138:Drivers/BSP/Components/nt35510/nt35510.c ****   DSI_IO_WriteCmd(3, (uint8_t *)nt35510_reg10);/* VGL_REG: -10V */
 305              		.loc 1 138 3 view .LVU116
 306 0198 1CA9     		add	r1, sp, #112
 307 019a 0320     		movs	r0, #3
 308 019c FFF7FEFF 		bl	DSI_IO_WriteCmd
 309              	.LVL13:
 139:Drivers/BSP/Components/nt35510/nt35510.c ****   DSI_IO_WriteCmd(3, (uint8_t *)nt35510_reg12);/* VGLX: Ratio */
 310              		.loc 1 139 3 view .LVU117
 311 01a0 1DA9     		add	r1, sp, #116
 312 01a2 0320     		movs	r0, #3
 313 01a4 FFF7FEFF 		bl	DSI_IO_WriteCmd
 314              	.LVL14:
 140:Drivers/BSP/Components/nt35510/nt35510.c ****   DSI_IO_WriteCmd(3, (uint8_t *)nt35510_reg13);/* VGMP/VGSP: 4.5V/0V */
 315              		.loc 1 140 3 view .LVU118
 316 01a8 1EA9     		add	r1, sp, #120
 317 01aa 0320     		movs	r0, #3
 318 01ac FFF7FEFF 		bl	DSI_IO_WriteCmd
 319              	.LVL15:
ARM GAS  /var/folders/0z/tsy30v1j4xl4_7kw94k978ww0000gn/T//ccR3iLbM.s 			page 10


 141:Drivers/BSP/Components/nt35510/nt35510.c ****   DSI_IO_WriteCmd(3, (uint8_t *)nt35510_reg14);/* VGMN/VGSN:-4.5V/0V */
 320              		.loc 1 141 3 view .LVU119
 321 01b0 1FA9     		add	r1, sp, #124
 322 01b2 0320     		movs	r0, #3
 323 01b4 FFF7FEFF 		bl	DSI_IO_WriteCmd
 324              	.LVL16:
 142:Drivers/BSP/Components/nt35510/nt35510.c ****   DSI_IO_WriteCmd(2, (uint8_t *)nt35510_reg15);/* VCOM: -1.325V */
 325              		.loc 1 142 3 view .LVU120
 326 01b8 11A9     		add	r1, sp, #68
 327 01ba 0220     		movs	r0, #2
 328 01bc FFF7FEFF 		bl	DSI_IO_WriteCmd
 329              	.LVL17:
 143:Drivers/BSP/Components/nt35510/nt35510.c **** 
 144:Drivers/BSP/Components/nt35510/nt35510.c **** /* ************************************************************************** */
 145:Drivers/BSP/Components/nt35510/nt35510.c **** /* Proprietary DCS Initialization                                             */
 146:Drivers/BSP/Components/nt35510/nt35510.c **** /* ************************************************************************** */
 147:Drivers/BSP/Components/nt35510/nt35510.c ****   DSI_IO_WriteCmd(5, (uint8_t *)nt35510_reg16);/* LV2: Page 0 enable */
 330              		.loc 1 147 3 view .LVU121
 331 01c0 2EA9     		add	r1, sp, #184
 332 01c2 0520     		movs	r0, #5
 333 01c4 FFF7FEFF 		bl	DSI_IO_WriteCmd
 334              	.LVL18:
 148:Drivers/BSP/Components/nt35510/nt35510.c ****   DSI_IO_WriteCmd(2, (uint8_t *)nt35510_reg17);/* Display control */
 335              		.loc 1 148 3 view .LVU122
 336 01c8 12A9     		add	r1, sp, #72
 337 01ca 0220     		movs	r0, #2
 338 01cc FFF7FEFF 		bl	DSI_IO_WriteCmd
 339              	.LVL19:
 149:Drivers/BSP/Components/nt35510/nt35510.c ****   DSI_IO_WriteCmd(1, (uint8_t *)nt35510_reg18);/* Src hold time */
 340              		.loc 1 149 3 view .LVU123
 341 01d0 02A9     		add	r1, sp, #8
 342 01d2 0120     		movs	r0, #1
 343 01d4 FFF7FEFF 		bl	DSI_IO_WriteCmd
 344              	.LVL20:
 150:Drivers/BSP/Components/nt35510/nt35510.c ****   DSI_IO_WriteCmd(1, (uint8_t *)nt35510_reg19);
 345              		.loc 1 150 3 view .LVU124
 346 01d8 03A9     		add	r1, sp, #12
 347 01da 0120     		movs	r0, #1
 348 01dc FFF7FEFF 		bl	DSI_IO_WriteCmd
 349              	.LVL21:
 151:Drivers/BSP/Components/nt35510/nt35510.c ****   DSI_IO_WriteCmd(2, (uint8_t *)nt35510_reg20);/* Gate EQ control */
 350              		.loc 1 151 3 view .LVU125
 351 01e0 13A9     		add	r1, sp, #76
 352 01e2 0220     		movs	r0, #2
 353 01e4 FFF7FEFF 		bl	DSI_IO_WriteCmd
 354              	.LVL22:
 152:Drivers/BSP/Components/nt35510/nt35510.c ****   DSI_IO_WriteCmd(4, (uint8_t *)nt35510_reg21);/* Src EQ control(Mode2) */
 355              		.loc 1 152 3 view .LVU126
 356 01e8 22A9     		add	r1, sp, #136
 357 01ea 0420     		movs	r0, #4
 358 01ec FFF7FEFF 		bl	DSI_IO_WriteCmd
 359              	.LVL23:
 153:Drivers/BSP/Components/nt35510/nt35510.c ****   DSI_IO_WriteCmd(3, (uint8_t *)nt35510_reg22);/* Inv. mode(2-dot) */
 360              		.loc 1 153 3 view .LVU127
 361 01f0 20A9     		add	r1, sp, #128
 362 01f2 0320     		movs	r0, #3
 363 01f4 FFF7FEFF 		bl	DSI_IO_WriteCmd
ARM GAS  /var/folders/0z/tsy30v1j4xl4_7kw94k978ww0000gn/T//ccR3iLbM.s 			page 11


 364              	.LVL24:
 154:Drivers/BSP/Components/nt35510/nt35510.c ****   DSI_IO_WriteCmd(3, (uint8_t *)nt35510_reg23);
 365              		.loc 1 154 3 view .LVU128
 366 01f8 21A9     		add	r1, sp, #132
 367 01fa 0320     		movs	r0, #3
 368 01fc FFF7FEFF 		bl	DSI_IO_WriteCmd
 369              	.LVL25:
 155:Drivers/BSP/Components/nt35510/nt35510.c ****   DSI_IO_WriteCmd(1, (uint8_t *)nt35510_reg24);
 370              		.loc 1 155 3 view .LVU129
 371 0200 04A9     		add	r1, sp, #16
 372 0202 0120     		movs	r0, #1
 373 0204 FFF7FEFF 		bl	DSI_IO_WriteCmd
 374              	.LVL26:
 156:Drivers/BSP/Components/nt35510/nt35510.c ****   /* Tear on */
 157:Drivers/BSP/Components/nt35510/nt35510.c ****   DSI_IO_WriteCmd(0, (uint8_t *)nt35510_reg26);
 375              		.loc 1 157 3 view .LVU130
 376 0208 07A9     		add	r1, sp, #28
 377 020a 0020     		movs	r0, #0
 378 020c FFF7FEFF 		bl	DSI_IO_WriteCmd
 379              	.LVL27:
 158:Drivers/BSP/Components/nt35510/nt35510.c ****   /* Set Pixel color format to RGB888 */
 159:Drivers/BSP/Components/nt35510/nt35510.c ****   DSI_IO_WriteCmd(0, (uint8_t *)nt35510_reg37);
 380              		.loc 1 159 3 view .LVU131
 381 0210 0020     		movs	r0, #0
 382 0212 10A9     		add	r1, sp, #64
 383 0214 FFF7FEFF 		bl	DSI_IO_WriteCmd
 384              	.LVL28:
 160:Drivers/BSP/Components/nt35510/nt35510.c **** 
 161:Drivers/BSP/Components/nt35510/nt35510.c **** /* ************************************************************************** */
 162:Drivers/BSP/Components/nt35510/nt35510.c **** /* Standard DCS Initialization                                                */
 163:Drivers/BSP/Components/nt35510/nt35510.c **** /* ************************************************************************** */
 164:Drivers/BSP/Components/nt35510/nt35510.c **** 
 165:Drivers/BSP/Components/nt35510/nt35510.c ****   /* Add a delay, otherwise MADCTL not taken */
 166:Drivers/BSP/Components/nt35510/nt35510.c ****   NT35510_IO_Delay(200);
 385              		.loc 1 166 3 view .LVU132
 386 0218 C820     		movs	r0, #200
 387 021a FFF7FEFF 		bl	NT35510_IO_Delay
 388              	.LVL29:
 167:Drivers/BSP/Components/nt35510/nt35510.c **** 
 168:Drivers/BSP/Components/nt35510/nt35510.c ****   /* Configure orientation */
 169:Drivers/BSP/Components/nt35510/nt35510.c ****   if(orientation == NT35510_ORIENTATION_PORTRAIT)
 389              		.loc 1 169 3 view .LVU133
 390              		.loc 1 169 5 is_stmt 0 view .LVU134
 391 021e 002D     		cmp	r5, #0
 392 0220 34D1     		bne	.L2
 170:Drivers/BSP/Components/nt35510/nt35510.c ****   {
 171:Drivers/BSP/Components/nt35510/nt35510.c ****     DSI_IO_WriteCmd(1, (uint8_t *)nt35510_madctl_portrait);
 393              		.loc 1 171 5 is_stmt 1 view .LVU135
 394 0222 05A9     		add	r1, sp, #20
 395 0224 0120     		movs	r0, #1
 396 0226 FFF7FEFF 		bl	DSI_IO_WriteCmd
 397              	.LVL30:
 172:Drivers/BSP/Components/nt35510/nt35510.c ****     DSI_IO_WriteCmd(4, (uint8_t *)nt35510_caset_portrait);
 398              		.loc 1 172 5 view .LVU136
 399 022a 24A9     		add	r1, sp, #144
 400 022c 0420     		movs	r0, #4
 401 022e FFF7FEFF 		bl	DSI_IO_WriteCmd
ARM GAS  /var/folders/0z/tsy30v1j4xl4_7kw94k978ww0000gn/T//ccR3iLbM.s 			page 12


 402              	.LVL31:
 173:Drivers/BSP/Components/nt35510/nt35510.c ****     DSI_IO_WriteCmd(4, (uint8_t *)nt35510_raset_portrait);
 403              		.loc 1 173 5 view .LVU137
 404 0232 26A9     		add	r1, sp, #152
 405 0234 0420     		movs	r0, #4
 406 0236 FFF7FEFF 		bl	DSI_IO_WriteCmd
 407              	.LVL32:
 408              	.L3:
 174:Drivers/BSP/Components/nt35510/nt35510.c ****   }
 175:Drivers/BSP/Components/nt35510/nt35510.c ****   else
 176:Drivers/BSP/Components/nt35510/nt35510.c ****   {
 177:Drivers/BSP/Components/nt35510/nt35510.c ****     DSI_IO_WriteCmd(1, (uint8_t *)nt35510_madctl_landscape);
 178:Drivers/BSP/Components/nt35510/nt35510.c ****     DSI_IO_WriteCmd(4, (uint8_t *)nt35510_caset_landscape);
 179:Drivers/BSP/Components/nt35510/nt35510.c ****     DSI_IO_WriteCmd(4, (uint8_t *)nt35510_raset_landscape);
 180:Drivers/BSP/Components/nt35510/nt35510.c ****   }
 181:Drivers/BSP/Components/nt35510/nt35510.c **** 
 182:Drivers/BSP/Components/nt35510/nt35510.c ****   DSI_IO_WriteCmd(0, (uint8_t *)nt35510_reg27);
 409              		.loc 1 182 3 view .LVU138
 410 023a 08A9     		add	r1, sp, #32
 411 023c 0020     		movs	r0, #0
 412 023e FFF7FEFF 		bl	DSI_IO_WriteCmd
 413              	.LVL33:
 183:Drivers/BSP/Components/nt35510/nt35510.c ****   /* Wait for sleep out exit */
 184:Drivers/BSP/Components/nt35510/nt35510.c ****   NT35510_IO_Delay(120);
 414              		.loc 1 184 3 view .LVU139
 415 0242 7820     		movs	r0, #120
 416 0244 FFF7FEFF 		bl	NT35510_IO_Delay
 417              	.LVL34:
 185:Drivers/BSP/Components/nt35510/nt35510.c **** 
 186:Drivers/BSP/Components/nt35510/nt35510.c ****   switch(ColorCoding)
 418              		.loc 1 186 3 view .LVU140
 187:Drivers/BSP/Components/nt35510/nt35510.c ****   {
 188:Drivers/BSP/Components/nt35510/nt35510.c ****     case NT35510_FORMAT_RBG565 :
 189:Drivers/BSP/Components/nt35510/nt35510.c ****       /* Set Pixel color format to RGB565 */
 190:Drivers/BSP/Components/nt35510/nt35510.c ****       DSI_IO_WriteCmd(1, (uint8_t *)nt35510_reg36);
 419              		.loc 1 190 7 view .LVU141
 186:Drivers/BSP/Components/nt35510/nt35510.c ****   {
 420              		.loc 1 186 3 is_stmt 0 view .LVU142
 421 0248 022C     		cmp	r4, #2
 422              		.loc 1 190 7 view .LVU143
 423 024a 0CBF     		ite	eq
 424 024c 0FA9     		addeq	r1, sp, #60
 191:Drivers/BSP/Components/nt35510/nt35510.c ****       break;
 192:Drivers/BSP/Components/nt35510/nt35510.c ****     case NT35510_FORMAT_RGB888 :
 193:Drivers/BSP/Components/nt35510/nt35510.c ****       /* Set Pixel color format to RGB888 */
 194:Drivers/BSP/Components/nt35510/nt35510.c ****       DSI_IO_WriteCmd(1, (uint8_t *)nt35510_reg37);
 425              		.loc 1 194 7 is_stmt 1 view .LVU144
 426 024e 10A9     		addne	r1, sp, #64
 427 0250 0120     		movs	r0, #1
 428 0252 FFF7FEFF 		bl	DSI_IO_WriteCmd
 429              	.LVL35:
 195:Drivers/BSP/Components/nt35510/nt35510.c ****       break;
 430              		.loc 1 195 7 view .LVU145
 196:Drivers/BSP/Components/nt35510/nt35510.c ****     default :
 197:Drivers/BSP/Components/nt35510/nt35510.c ****       /* Set Pixel color format to RGB888 */
 198:Drivers/BSP/Components/nt35510/nt35510.c ****       DSI_IO_WriteCmd(1, (uint8_t *)nt35510_reg37);
 199:Drivers/BSP/Components/nt35510/nt35510.c ****       break;
ARM GAS  /var/folders/0z/tsy30v1j4xl4_7kw94k978ww0000gn/T//ccR3iLbM.s 			page 13


 200:Drivers/BSP/Components/nt35510/nt35510.c ****   }
 201:Drivers/BSP/Components/nt35510/nt35510.c **** 
 202:Drivers/BSP/Components/nt35510/nt35510.c ****   /** CABC : Content Adaptive Backlight Control section start >> */
 203:Drivers/BSP/Components/nt35510/nt35510.c ****   /* Note : defaut is 0 (lowest Brightness), 0xFF is highest Brightness, try 0x7F : intermediate va
 204:Drivers/BSP/Components/nt35510/nt35510.c ****   DSI_IO_WriteCmd(1, (uint8_t *)nt35510_reg31);
 431              		.loc 1 204 3 view .LVU146
 432 0256 0AA9     		add	r1, sp, #40
 433 0258 0120     		movs	r0, #1
 434 025a FFF7FEFF 		bl	DSI_IO_WriteCmd
 435              	.LVL36:
 205:Drivers/BSP/Components/nt35510/nt35510.c ****   /* defaut is 0, try 0x2C - Brightness Control Block, Display Dimming & BackLight on */
 206:Drivers/BSP/Components/nt35510/nt35510.c ****   DSI_IO_WriteCmd(1, (uint8_t *)nt35510_reg32);
 436              		.loc 1 206 3 view .LVU147
 437 025e 0BA9     		add	r1, sp, #44
 438 0260 0120     		movs	r0, #1
 439 0262 FFF7FEFF 		bl	DSI_IO_WriteCmd
 440              	.LVL37:
 207:Drivers/BSP/Components/nt35510/nt35510.c ****   /* defaut is 0, try 0x02 - image Content based Adaptive Brightness [Still Picture] */
 208:Drivers/BSP/Components/nt35510/nt35510.c ****   DSI_IO_WriteCmd(1, (uint8_t *)nt35510_reg33);
 441              		.loc 1 208 3 view .LVU148
 442 0266 0CA9     		add	r1, sp, #48
 443 0268 0120     		movs	r0, #1
 444 026a FFF7FEFF 		bl	DSI_IO_WriteCmd
 445              	.LVL38:
 209:Drivers/BSP/Components/nt35510/nt35510.c ****   /* defaut is 0 (lowest Brightness), 0xFF is highest Brightness */
 210:Drivers/BSP/Components/nt35510/nt35510.c ****   DSI_IO_WriteCmd(1, (uint8_t *)nt35510_reg34);
 446              		.loc 1 210 3 view .LVU149
 447 026e 0DA9     		add	r1, sp, #52
 448 0270 0120     		movs	r0, #1
 449 0272 FFF7FEFF 		bl	DSI_IO_WriteCmd
 450              	.LVL39:
 211:Drivers/BSP/Components/nt35510/nt35510.c ****   /** CABC : Content Adaptive Backlight Control section end << */
 212:Drivers/BSP/Components/nt35510/nt35510.c **** 
 213:Drivers/BSP/Components/nt35510/nt35510.c ****   /* Display on */
 214:Drivers/BSP/Components/nt35510/nt35510.c ****   DSI_IO_WriteCmd(0, (uint8_t *)nt35510_reg30);
 451              		.loc 1 214 3 view .LVU150
 452 0276 09A9     		add	r1, sp, #36
 453 0278 0020     		movs	r0, #0
 454 027a FFF7FEFF 		bl	DSI_IO_WriteCmd
 455              	.LVL40:
 215:Drivers/BSP/Components/nt35510/nt35510.c **** 
 216:Drivers/BSP/Components/nt35510/nt35510.c ****   /* Send Command GRAM memory write (no parameters) : this initiates frame write via other DSI comm
 217:Drivers/BSP/Components/nt35510/nt35510.c ****   /* DSI host from LTDC incoming pixels in video mode */
 218:Drivers/BSP/Components/nt35510/nt35510.c ****   DSI_IO_WriteCmd(0, (uint8_t *)nt35510_reg35);
 456              		.loc 1 218 3 view .LVU151
 457 027e 0020     		movs	r0, #0
 458 0280 0EA9     		add	r1, sp, #56
 459 0282 FFF7FEFF 		bl	DSI_IO_WriteCmd
 460              	.LVL41:
 219:Drivers/BSP/Components/nt35510/nt35510.c **** 
 220:Drivers/BSP/Components/nt35510/nt35510.c ****   return 0;
 461              		.loc 1 220 3 view .LVU152
 221:Drivers/BSP/Components/nt35510/nt35510.c **** }
 462              		.loc 1 221 1 is_stmt 0 view .LVU153
 463 0286 0020     		movs	r0, #0
 464 0288 31B0     		add	sp, sp, #196
 465              		.cfi_remember_state
ARM GAS  /var/folders/0z/tsy30v1j4xl4_7kw94k978ww0000gn/T//ccR3iLbM.s 			page 14


 466              		.cfi_def_cfa_offset 12
 467              		@ sp needed
 468 028a 30BD     		pop	{r4, r5, pc}
 469              	.LVL42:
 470              	.L2:
 471              		.cfi_restore_state
 177:Drivers/BSP/Components/nt35510/nt35510.c ****     DSI_IO_WriteCmd(4, (uint8_t *)nt35510_caset_landscape);
 472              		.loc 1 177 5 is_stmt 1 view .LVU154
 473 028c 06A9     		add	r1, sp, #24
 474 028e 0120     		movs	r0, #1
 475 0290 FFF7FEFF 		bl	DSI_IO_WriteCmd
 476              	.LVL43:
 178:Drivers/BSP/Components/nt35510/nt35510.c ****     DSI_IO_WriteCmd(4, (uint8_t *)nt35510_raset_landscape);
 477              		.loc 1 178 5 view .LVU155
 478 0294 28A9     		add	r1, sp, #160
 479 0296 0420     		movs	r0, #4
 480 0298 FFF7FEFF 		bl	DSI_IO_WriteCmd
 481              	.LVL44:
 179:Drivers/BSP/Components/nt35510/nt35510.c ****   }
 482              		.loc 1 179 5 view .LVU156
 483 029c 2AA9     		add	r1, sp, #168
 484 029e 0420     		movs	r0, #4
 485 02a0 FFF7FEFF 		bl	DSI_IO_WriteCmd
 486              	.LVL45:
 487 02a4 C9E7     		b	.L3
 488              	.L9:
 489 02a6 00BF     		.align	2
 490              	.L8:
 491 02a8 00000000 		.word	.LC0
 492 02ac 00000000 		.word	.LANCHOR0
 493 02b0 030303B0 		.word	-1341979901
 494 02b4 464646B6 		.word	-1236908474
 495 02b8 363636B7 		.word	-1221183946
 496 02bc 090909B3 		.word	-1291253495
 497 02c0 262626B8 		.word	-1205459418
 498 02c4 363636B9 		.word	-1187629514
 499 02c8 262626BA 		.word	-1171904986
 500 02cc 008000BC 		.word	-1140817920
 501 02d0 08000000 		.word	.LC5
 502 02d4 030000CC 		.word	-872415229
 503 02d8 030303B1 		.word	-1325202685
 504 02dc 000002B2 		.word	-1308491776
 505 02e0 080808B5 		.word	-1257764856
 506              		.cfi_endproc
 507              	.LFE3:
 509              		.section	.text.NT35510_DeInit,"ax",%progbits
 510              		.align	1
 511              		.p2align 2,,3
 512              		.global	NT35510_DeInit
 513              		.syntax unified
 514              		.thumb
 515              		.thumb_func
 517              	NT35510_DeInit:
 518              	.LFB4:
 222:Drivers/BSP/Components/nt35510/nt35510.c **** 
 223:Drivers/BSP/Components/nt35510/nt35510.c **** 
 224:Drivers/BSP/Components/nt35510/nt35510.c **** /**
ARM GAS  /var/folders/0z/tsy30v1j4xl4_7kw94k978ww0000gn/T//ccR3iLbM.s 			page 15


 225:Drivers/BSP/Components/nt35510/nt35510.c ****   * @}
 226:Drivers/BSP/Components/nt35510/nt35510.c ****   */
 227:Drivers/BSP/Components/nt35510/nt35510.c **** 
 228:Drivers/BSP/Components/nt35510/nt35510.c **** uint8_t NT35510_DeInit(void)
 229:Drivers/BSP/Components/nt35510/nt35510.c **** {
 519              		.loc 1 229 1 view -0
 520              		.cfi_startproc
 521              		@ args = 0, pretend = 0, frame = 8
 522              		@ frame_needed = 0, uses_anonymous_args = 0
 230:Drivers/BSP/Components/nt35510/nt35510.c ****   const uint8_t nt35510_reg30b[] = {NT35510_CMD_DISPOFF, 0x00};
 523              		.loc 1 230 3 view .LVU158
 229:Drivers/BSP/Components/nt35510/nt35510.c ****   const uint8_t nt35510_reg30b[] = {NT35510_CMD_DISPOFF, 0x00};
 524              		.loc 1 229 1 is_stmt 0 view .LVU159
 525 0000 00B5     		push	{lr}
 526              		.cfi_def_cfa_offset 4
 527              		.cfi_offset 14, -4
 528 0002 83B0     		sub	sp, sp, #12
 529              		.cfi_def_cfa_offset 16
 530              		.loc 1 230 17 view .LVU160
 531 0004 2822     		movs	r2, #40
 231:Drivers/BSP/Components/nt35510/nt35510.c ****   const uint8_t nt35510_reg27b[] = {NT35510_CMD_SLPIN, 0x00};
 532              		.loc 1 231 17 view .LVU161
 533 0006 1023     		movs	r3, #16
 232:Drivers/BSP/Components/nt35510/nt35510.c ****   /* Display off */
 233:Drivers/BSP/Components/nt35510/nt35510.c ****   DSI_IO_WriteCmd(0, (uint8_t *)nt35510_reg30b);
 534              		.loc 1 233 3 view .LVU162
 535 0008 6946     		mov	r1, sp
 536 000a 0020     		movs	r0, #0
 230:Drivers/BSP/Components/nt35510/nt35510.c ****   const uint8_t nt35510_reg27b[] = {NT35510_CMD_SLPIN, 0x00};
 537              		.loc 1 230 17 view .LVU163
 538 000c ADF80020 		strh	r2, [sp]	@ movhi
 231:Drivers/BSP/Components/nt35510/nt35510.c ****   const uint8_t nt35510_reg27b[] = {NT35510_CMD_SLPIN, 0x00};
 539              		.loc 1 231 3 is_stmt 1 view .LVU164
 231:Drivers/BSP/Components/nt35510/nt35510.c ****   const uint8_t nt35510_reg27b[] = {NT35510_CMD_SLPIN, 0x00};
 540              		.loc 1 231 17 is_stmt 0 view .LVU165
 541 0010 ADF80430 		strh	r3, [sp, #4]	@ movhi
 542              		.loc 1 233 3 is_stmt 1 view .LVU166
 543 0014 FFF7FEFF 		bl	DSI_IO_WriteCmd
 544              	.LVL46:
 234:Drivers/BSP/Components/nt35510/nt35510.c ****   NT35510_IO_Delay(120);
 545              		.loc 1 234 3 view .LVU167
 546 0018 7820     		movs	r0, #120
 547 001a FFF7FEFF 		bl	NT35510_IO_Delay
 548              	.LVL47:
 235:Drivers/BSP/Components/nt35510/nt35510.c ****   /* Sleep in */
 236:Drivers/BSP/Components/nt35510/nt35510.c ****   DSI_IO_WriteCmd(0, (uint8_t *)nt35510_reg27b);
 549              		.loc 1 236 3 view .LVU168
 550 001e 0020     		movs	r0, #0
 551 0020 01A9     		add	r1, sp, #4
 552 0022 FFF7FEFF 		bl	DSI_IO_WriteCmd
 553              	.LVL48:
 237:Drivers/BSP/Components/nt35510/nt35510.c ****   return 0;
 554              		.loc 1 237 3 view .LVU169
 238:Drivers/BSP/Components/nt35510/nt35510.c **** }
 555              		.loc 1 238 1 is_stmt 0 view .LVU170
 556 0026 0020     		movs	r0, #0
 557 0028 03B0     		add	sp, sp, #12
ARM GAS  /var/folders/0z/tsy30v1j4xl4_7kw94k978ww0000gn/T//ccR3iLbM.s 			page 16


 558              		.cfi_def_cfa_offset 4
 559              		@ sp needed
 560 002a 5DF804FB 		ldr	pc, [sp], #4
 561              		.cfi_endproc
 562              	.LFE4:
 564 002e 00BF     		.section	.rodata
 565              		.align	2
 566              		.set	.LANCHOR0,. + 0
 567              	.LC1:
 568 0000 0050BE   		.ascii	"\000P\276"
 569 0003 00       		.space	1
 570              	.LC2:
 571 0004 55AA5208 		.ascii	"U\252R\010\000\360"
 571      00F0
 572 000a 0000     		.space	2
 573              	.LC3:
 574 000c FC00B1   		.ascii	"\374\000\261"
 575 000f 00       		.space	1
 576              	.LC4:
 577 0010 0000B7   		.ascii	"\000\000\267"
 578 0013 00       		.space	1
 579              	.LC6:
 580 0014 000001DF 		.ascii	"\000\000\001\337*"
 580      2A
 581 0019 000000   		.space	3
 582              	.LC7:
 583 001c 0000031F 		.ascii	"\000\000\003\037+"
 583      2B
 584 0021 000000   		.space	3
 585              	.LC8:
 586 0024 0000031F 		.ascii	"\000\000\003\037*"
 586      2A
 587 0029 000000   		.space	3
 588              	.LC9:
 589 002c 000001DF 		.ascii	"\000\000\001\337+"
 589      2B
 590              		.text
 591              	.Letext0:
 592              		.file 2 "/Users/johannes/Library/Application Support/Code/User/globalStorage/bmd.stm32-for-vscode/
 593              		.file 3 "/Users/johannes/Library/Application Support/Code/User/globalStorage/bmd.stm32-for-vscode/
 594              		.file 4 "Drivers/BSP/Components/nt35510/nt35510.h"
ARM GAS  /var/folders/0z/tsy30v1j4xl4_7kw94k978ww0000gn/T//ccR3iLbM.s 			page 17

