ARM GAS  /var/folders/0z/tsy30v1j4xl4_7kw94k978ww0000gn/T//cc3eeBZz.s 			page 1


   1              		.cpu cortex-m4
   2              		.arch armv7e-m
   3              		.fpu fpv4-sp-d16
   4              		.eabi_attribute 27, 1
   5              		.eabi_attribute 28, 1
   6              		.eabi_attribute 20, 1
   7              		.eabi_attribute 21, 1
   8              		.eabi_attribute 23, 3
   9              		.eabi_attribute 24, 1
  10              		.eabi_attribute 25, 1
  11              		.eabi_attribute 26, 1
  12              		.eabi_attribute 30, 1
  13              		.eabi_attribute 34, 1
  14              		.eabi_attribute 18, 4
  15              		.file	"otm8009a.c"
  16              		.text
  17              	.Ltext0:
  18              		.cfi_sections	.debug_frame
  19              		.section	.text.DSI_IO_WriteCmd,"ax",%progbits
  20              		.align	1
  21              		.weak	DSI_IO_WriteCmd
  22              		.syntax unified
  23              		.thumb
  24              		.thumb_func
  26              	DSI_IO_WriteCmd:
  27              	.LVL0:
  28              	.LFB0:
  29              		.file 1 "Drivers/BSP/Components/otm8009a/otm8009a.c"
   1:Drivers/BSP/Components/otm8009a/otm8009a.c **** /**
   2:Drivers/BSP/Components/otm8009a/otm8009a.c ****   ******************************************************************************
   3:Drivers/BSP/Components/otm8009a/otm8009a.c ****   * @file    otm8009a.c
   4:Drivers/BSP/Components/otm8009a/otm8009a.c ****   * @author  MCD Application Team
   5:Drivers/BSP/Components/otm8009a/otm8009a.c ****   * @brief   This file provides the LCD Driver for KoD KM-040TMP-02-0621 (WVGA)
   6:Drivers/BSP/Components/otm8009a/otm8009a.c ****   *          DSI LCD Display OTM8009A.   
   7:Drivers/BSP/Components/otm8009a/otm8009a.c ****   ******************************************************************************
   8:Drivers/BSP/Components/otm8009a/otm8009a.c ****   * @attention
   9:Drivers/BSP/Components/otm8009a/otm8009a.c ****   *
  10:Drivers/BSP/Components/otm8009a/otm8009a.c ****   * <h2><center>&copy; COPYRIGHT(c) 2017 STMicroelectronics</center></h2>
  11:Drivers/BSP/Components/otm8009a/otm8009a.c ****   *
  12:Drivers/BSP/Components/otm8009a/otm8009a.c ****   * Redistribution and use in source and binary forms, with or without modification,
  13:Drivers/BSP/Components/otm8009a/otm8009a.c ****   * are permitted provided that the following conditions are met:
  14:Drivers/BSP/Components/otm8009a/otm8009a.c ****   *   1. Redistributions of source code must retain the above copyright notice,
  15:Drivers/BSP/Components/otm8009a/otm8009a.c ****   *      this list of conditions and the following disclaimer.
  16:Drivers/BSP/Components/otm8009a/otm8009a.c ****   *   2. Redistributions in binary form must reproduce the above copyright notice,
  17:Drivers/BSP/Components/otm8009a/otm8009a.c ****   *      this list of conditions and the following disclaimer in the documentation
  18:Drivers/BSP/Components/otm8009a/otm8009a.c ****   *      and/or other materials provided with the distribution.
  19:Drivers/BSP/Components/otm8009a/otm8009a.c ****   *   3. Neither the name of STMicroelectronics nor the names of its contributors
  20:Drivers/BSP/Components/otm8009a/otm8009a.c ****   *      may be used to endorse or promote products derived from this software
  21:Drivers/BSP/Components/otm8009a/otm8009a.c ****   *      without specific prior written permission.
  22:Drivers/BSP/Components/otm8009a/otm8009a.c ****   *
  23:Drivers/BSP/Components/otm8009a/otm8009a.c ****   * THIS SOFTWARE IS PROVIDED BY THE COPYRIGHT HOLDERS AND CONTRIBUTORS "AS IS"
  24:Drivers/BSP/Components/otm8009a/otm8009a.c ****   * AND ANY EXPRESS OR IMPLIED WARRANTIES, INCLUDING, BUT NOT LIMITED TO, THE
  25:Drivers/BSP/Components/otm8009a/otm8009a.c ****   * IMPLIED WARRANTIES OF MERCHANTABILITY AND FITNESS FOR A PARTICULAR PURPOSE ARE
  26:Drivers/BSP/Components/otm8009a/otm8009a.c ****   * DISCLAIMED. IN NO EVENT SHALL THE COPYRIGHT HOLDER OR CONTRIBUTORS BE LIABLE
  27:Drivers/BSP/Components/otm8009a/otm8009a.c ****   * FOR ANY DIRECT, INDIRECT, INCIDENTAL, SPECIAL, EXEMPLARY, OR CONSEQUENTIAL
  28:Drivers/BSP/Components/otm8009a/otm8009a.c ****   * DAMAGES (INCLUDING, BUT NOT LIMITED TO, PROCUREMENT OF SUBSTITUTE GOODS OR
  29:Drivers/BSP/Components/otm8009a/otm8009a.c ****   * SERVICES; LOSS OF USE, DATA, OR PROFITS; OR BUSINESS INTERRUPTION) HOWEVER
ARM GAS  /var/folders/0z/tsy30v1j4xl4_7kw94k978ww0000gn/T//cc3eeBZz.s 			page 2


  30:Drivers/BSP/Components/otm8009a/otm8009a.c ****   * CAUSED AND ON ANY THEORY OF LIABILITY, WHETHER IN CONTRACT, STRICT LIABILITY,
  31:Drivers/BSP/Components/otm8009a/otm8009a.c ****   * OR TORT (INCLUDING NEGLIGENCE OR OTHERWISE) ARISING IN ANY WAY OUT OF THE USE
  32:Drivers/BSP/Components/otm8009a/otm8009a.c ****   * OF THIS SOFTWARE, EVEN IF ADVISED OF THE POSSIBILITY OF SUCH DAMAGE.
  33:Drivers/BSP/Components/otm8009a/otm8009a.c ****   *
  34:Drivers/BSP/Components/otm8009a/otm8009a.c ****   ******************************************************************************
  35:Drivers/BSP/Components/otm8009a/otm8009a.c ****   */
  36:Drivers/BSP/Components/otm8009a/otm8009a.c **** 
  37:Drivers/BSP/Components/otm8009a/otm8009a.c **** /* Includes ------------------------------------------------------------------*/
  38:Drivers/BSP/Components/otm8009a/otm8009a.c **** #include "otm8009a.h"
  39:Drivers/BSP/Components/otm8009a/otm8009a.c **** 
  40:Drivers/BSP/Components/otm8009a/otm8009a.c **** /** @addtogroup BSP
  41:Drivers/BSP/Components/otm8009a/otm8009a.c ****   * @{
  42:Drivers/BSP/Components/otm8009a/otm8009a.c ****   */
  43:Drivers/BSP/Components/otm8009a/otm8009a.c ****   
  44:Drivers/BSP/Components/otm8009a/otm8009a.c **** /** @addtogroup Components
  45:Drivers/BSP/Components/otm8009a/otm8009a.c ****   * @{
  46:Drivers/BSP/Components/otm8009a/otm8009a.c ****   */ 
  47:Drivers/BSP/Components/otm8009a/otm8009a.c **** 
  48:Drivers/BSP/Components/otm8009a/otm8009a.c **** /** @defgroup OTM8009A OTM8009A
  49:Drivers/BSP/Components/otm8009a/otm8009a.c ****   * @brief     This file provides a set of functions needed to drive the 
  50:Drivers/BSP/Components/otm8009a/otm8009a.c ****   *            otm8009a IC display driver.
  51:Drivers/BSP/Components/otm8009a/otm8009a.c ****   * @{
  52:Drivers/BSP/Components/otm8009a/otm8009a.c ****   */
  53:Drivers/BSP/Components/otm8009a/otm8009a.c **** 
  54:Drivers/BSP/Components/otm8009a/otm8009a.c **** /* Private types -------------------------------------------------------------*/
  55:Drivers/BSP/Components/otm8009a/otm8009a.c **** /* Private variables ---------------------------------------------------------*/
  56:Drivers/BSP/Components/otm8009a/otm8009a.c **** /* Private constants ---------------------------------------------------------*/
  57:Drivers/BSP/Components/otm8009a/otm8009a.c **** /** @defgroup OTM8009A_Private_Constants OTM8009A Private Constants
  58:Drivers/BSP/Components/otm8009a/otm8009a.c ****   * @{
  59:Drivers/BSP/Components/otm8009a/otm8009a.c ****   */
  60:Drivers/BSP/Components/otm8009a/otm8009a.c **** 
  61:Drivers/BSP/Components/otm8009a/otm8009a.c **** /*
  62:Drivers/BSP/Components/otm8009a/otm8009a.c ****  * @brief Constant tables of register settings used to transmit DSI
  63:Drivers/BSP/Components/otm8009a/otm8009a.c ****  * command packets as power up initialization sequence of the KoD LCD (OTM8009A LCD Driver)
  64:Drivers/BSP/Components/otm8009a/otm8009a.c ****  */
  65:Drivers/BSP/Components/otm8009a/otm8009a.c **** const uint8_t lcdRegData1[]  = {0x80,0x09,0x01,0xFF};
  66:Drivers/BSP/Components/otm8009a/otm8009a.c **** const uint8_t lcdRegData2[]  = {0x80,0x09,0xFF};
  67:Drivers/BSP/Components/otm8009a/otm8009a.c **** const uint8_t lcdRegData3[]  = {0x00,0x09,0x0F,0x0E,0x07,0x10,0x0B,0x0A,0x04,0x07,0x0B,0x08,0x0F,0x
  68:Drivers/BSP/Components/otm8009a/otm8009a.c **** const uint8_t lcdRegData4[]  = {0x00,0x09,0x0F,0x0E,0x07,0x10,0x0B,0x0A,0x04,0x07,0x0B,0x08,0x0F,0x
  69:Drivers/BSP/Components/otm8009a/otm8009a.c **** const uint8_t lcdRegData5[]  = {0x79,0x79,0xD8};
  70:Drivers/BSP/Components/otm8009a/otm8009a.c **** const uint8_t lcdRegData6[]  = {0x00,0x01,0xB3};
  71:Drivers/BSP/Components/otm8009a/otm8009a.c **** const uint8_t lcdRegData7[]  = {0x85,0x01,0x00,0x84,0x01,0x00,0xCE};
  72:Drivers/BSP/Components/otm8009a/otm8009a.c **** const uint8_t lcdRegData8[]  = {0x18,0x04,0x03,0x39,0x00,0x00,0x00,0x18,0x03,0x03,0x3A,0x00,0x00,0x
  73:Drivers/BSP/Components/otm8009a/otm8009a.c **** const uint8_t lcdRegData9[]  = {0x18,0x02,0x03,0x3B,0x00,0x00,0x00,0x18,0x01,0x03,0x3C,0x00,0x00,0x
  74:Drivers/BSP/Components/otm8009a/otm8009a.c **** const uint8_t lcdRegData10[] = {0x01,0x01,0x20,0x20,0x00,0x00,0x01,0x02,0x00,0x00,0xCF};
  75:Drivers/BSP/Components/otm8009a/otm8009a.c **** const uint8_t lcdRegData11[] = {0x00,0x00,0x00,0x00,0x00,0x00,0x00,0x00,0x00,0x00,0xCB};
  76:Drivers/BSP/Components/otm8009a/otm8009a.c **** const uint8_t lcdRegData12[] = {0x00,0x00,0x00,0x00,0x00,0x00,0x00,0x00,0x00,0x00,0x00,0x00,0x00,0x
  77:Drivers/BSP/Components/otm8009a/otm8009a.c **** const uint8_t lcdRegData13[] = {0x00,0x00,0x00,0x00,0x00,0x00,0x00,0x00,0x00,0x00,0x00,0x00,0x00,0x
  78:Drivers/BSP/Components/otm8009a/otm8009a.c **** const uint8_t lcdRegData14[] = {0x00,0x00,0x00,0x00,0x00,0x00,0x00,0x00,0x00,0x00,0xCB};
  79:Drivers/BSP/Components/otm8009a/otm8009a.c **** const uint8_t lcdRegData15[] = {0x00,0x04,0x04,0x04,0x04,0x04,0x00,0x00,0x00,0x00,0x00,0x00,0x00,0x
  80:Drivers/BSP/Components/otm8009a/otm8009a.c **** const uint8_t lcdRegData16[] = {0x00,0x00,0x00,0x00,0x00,0x00,0x04,0x04,0x04,0x04,0x04,0x00,0x00,0x
  81:Drivers/BSP/Components/otm8009a/otm8009a.c **** const uint8_t lcdRegData17[] = {0x00,0x00,0x00,0x00,0x00,0x00,0x00,0x00,0x00,0x00,0xCB};
  82:Drivers/BSP/Components/otm8009a/otm8009a.c **** const uint8_t lcdRegData18[] = {0xFF,0xFF,0xFF,0xFF,0xFF,0xFF,0xFF,0xFF,0xFF,0xFF,0xCB};
  83:Drivers/BSP/Components/otm8009a/otm8009a.c **** const uint8_t lcdRegData19[] = {0x00,0x26,0x09,0x0B,0x01,0x25,0x00,0x00,0x00,0x00,0xCC};
  84:Drivers/BSP/Components/otm8009a/otm8009a.c **** const uint8_t lcdRegData20[] = {0x00,0x00,0x00,0x00,0x00,0x00,0x00,0x00,0x00,0x00,0x00,0x26,0x0A,0x
  85:Drivers/BSP/Components/otm8009a/otm8009a.c **** const uint8_t lcdRegData21[] = {0x25,0x00,0x00,0x00,0x00,0x00,0x00,0x00,0x00,0x00,0x00,0x00,0x00,0x
  86:Drivers/BSP/Components/otm8009a/otm8009a.c **** const uint8_t lcdRegData22[] = {0x00,0x25,0x0C,0x0A,0x02,0x26,0x00,0x00,0x00,0x00,0xCC};
ARM GAS  /var/folders/0z/tsy30v1j4xl4_7kw94k978ww0000gn/T//cc3eeBZz.s 			page 3


  87:Drivers/BSP/Components/otm8009a/otm8009a.c **** const uint8_t lcdRegData23[] = {0x00,0x00,0x00,0x00,0x00,0x00,0x00,0x00,0x00,0x00,0x00,0x25,0x0B,0x
  88:Drivers/BSP/Components/otm8009a/otm8009a.c **** const uint8_t lcdRegData24[] = {0x26,0x00,0x00,0x00,0x00,0x00,0x00,0x00,0x00,0x00,0x00,0x00,0x00,0x
  89:Drivers/BSP/Components/otm8009a/otm8009a.c **** const uint8_t lcdRegData25[] = {0xFF,0xFF,0xFF,0xFF};    
  90:Drivers/BSP/Components/otm8009a/otm8009a.c **** /*
  91:Drivers/BSP/Components/otm8009a/otm8009a.c ****   * CASET value (Column Address Set) : X direction LCD GRAM boundaries
  92:Drivers/BSP/Components/otm8009a/otm8009a.c ****   * depending on LCD orientation mode and PASET value (Page Address Set) : Y direction
  93:Drivers/BSP/Components/otm8009a/otm8009a.c ****   * LCD GRAM boundaries depending on LCD orientation mode
  94:Drivers/BSP/Components/otm8009a/otm8009a.c ****   * XS[15:0] = 0x000 = 0, XE[15:0] = 0x31F = 799 for landscape mode : apply to CASET
  95:Drivers/BSP/Components/otm8009a/otm8009a.c ****   * YS[15:0] = 0x000 = 0, YE[15:0] = 0x31F = 799 for portrait mode : : apply to PASET
  96:Drivers/BSP/Components/otm8009a/otm8009a.c ****   */
  97:Drivers/BSP/Components/otm8009a/otm8009a.c **** const uint8_t lcdRegData27[] = {0x00, 0x00, 0x03, 0x1F, OTM8009A_CMD_CASET};
  98:Drivers/BSP/Components/otm8009a/otm8009a.c **** /*
  99:Drivers/BSP/Components/otm8009a/otm8009a.c ****   * XS[15:0] = 0x000 = 0, XE[15:0] = 0x1DF = 479 for portrait mode : apply to CASET
 100:Drivers/BSP/Components/otm8009a/otm8009a.c ****   * YS[15:0] = 0x000 = 0, YE[15:0] = 0x1DF = 479 for landscape mode : apply to PASET
 101:Drivers/BSP/Components/otm8009a/otm8009a.c ****  */
 102:Drivers/BSP/Components/otm8009a/otm8009a.c **** const uint8_t lcdRegData28[] = {0x00, 0x00, 0x01, 0xDF, OTM8009A_CMD_PASET};
 103:Drivers/BSP/Components/otm8009a/otm8009a.c **** 
 104:Drivers/BSP/Components/otm8009a/otm8009a.c **** 
 105:Drivers/BSP/Components/otm8009a/otm8009a.c **** const uint8_t ShortRegData1[]  = {OTM8009A_CMD_NOP, 0x00};
 106:Drivers/BSP/Components/otm8009a/otm8009a.c **** const uint8_t ShortRegData2[]  = {OTM8009A_CMD_NOP, 0x80};
 107:Drivers/BSP/Components/otm8009a/otm8009a.c **** const uint8_t ShortRegData3[]  = {0xC4, 0x30};
 108:Drivers/BSP/Components/otm8009a/otm8009a.c **** const uint8_t ShortRegData4[]  = {OTM8009A_CMD_NOP, 0x8A};
 109:Drivers/BSP/Components/otm8009a/otm8009a.c **** const uint8_t ShortRegData5[]  = {0xC4, 0x40};
 110:Drivers/BSP/Components/otm8009a/otm8009a.c **** const uint8_t ShortRegData6[]  = {OTM8009A_CMD_NOP, 0xB1};
 111:Drivers/BSP/Components/otm8009a/otm8009a.c **** const uint8_t ShortRegData7[]  = {0xC5, 0xA9};
 112:Drivers/BSP/Components/otm8009a/otm8009a.c **** const uint8_t ShortRegData8[]  = {OTM8009A_CMD_NOP, 0x91};
 113:Drivers/BSP/Components/otm8009a/otm8009a.c **** const uint8_t ShortRegData9[]  = {0xC5, 0x34};
 114:Drivers/BSP/Components/otm8009a/otm8009a.c **** const uint8_t ShortRegData10[] = {OTM8009A_CMD_NOP, 0xB4};
 115:Drivers/BSP/Components/otm8009a/otm8009a.c **** const uint8_t ShortRegData11[] = {0xC0, 0x50};
 116:Drivers/BSP/Components/otm8009a/otm8009a.c **** const uint8_t ShortRegData12[] = {0xD9, 0x4E};
 117:Drivers/BSP/Components/otm8009a/otm8009a.c **** const uint8_t ShortRegData13[] = {OTM8009A_CMD_NOP, 0x81};
 118:Drivers/BSP/Components/otm8009a/otm8009a.c **** const uint8_t ShortRegData14[] = {0xC1, 0x66};
 119:Drivers/BSP/Components/otm8009a/otm8009a.c **** const uint8_t ShortRegData15[] = {OTM8009A_CMD_NOP, 0xA1};
 120:Drivers/BSP/Components/otm8009a/otm8009a.c **** const uint8_t ShortRegData16[] = {0xC1, 0x08};
 121:Drivers/BSP/Components/otm8009a/otm8009a.c **** const uint8_t ShortRegData17[] = {OTM8009A_CMD_NOP, 0x92};
 122:Drivers/BSP/Components/otm8009a/otm8009a.c **** const uint8_t ShortRegData18[] = {0xC5, 0x01};
 123:Drivers/BSP/Components/otm8009a/otm8009a.c **** const uint8_t ShortRegData19[] = {OTM8009A_CMD_NOP, 0x95};
 124:Drivers/BSP/Components/otm8009a/otm8009a.c **** const uint8_t ShortRegData20[] = {OTM8009A_CMD_NOP, 0x94};
 125:Drivers/BSP/Components/otm8009a/otm8009a.c **** const uint8_t ShortRegData21[] = {0xC5, 0x33};
 126:Drivers/BSP/Components/otm8009a/otm8009a.c **** const uint8_t ShortRegData22[] = {OTM8009A_CMD_NOP, 0xA3};
 127:Drivers/BSP/Components/otm8009a/otm8009a.c **** const uint8_t ShortRegData23[] = {0xC0, 0x1B};
 128:Drivers/BSP/Components/otm8009a/otm8009a.c **** const uint8_t ShortRegData24[] = {OTM8009A_CMD_NOP, 0x82};
 129:Drivers/BSP/Components/otm8009a/otm8009a.c **** const uint8_t ShortRegData25[] = {0xC5, 0x83};
 130:Drivers/BSP/Components/otm8009a/otm8009a.c **** const uint8_t ShortRegData26[] = {0xC4, 0x83};
 131:Drivers/BSP/Components/otm8009a/otm8009a.c **** const uint8_t ShortRegData27[] = {0xC1, 0x0E};
 132:Drivers/BSP/Components/otm8009a/otm8009a.c **** const uint8_t ShortRegData28[] = {OTM8009A_CMD_NOP, 0xA6};
 133:Drivers/BSP/Components/otm8009a/otm8009a.c **** const uint8_t ShortRegData29[] = {OTM8009A_CMD_NOP, 0xA0};
 134:Drivers/BSP/Components/otm8009a/otm8009a.c **** const uint8_t ShortRegData30[] = {OTM8009A_CMD_NOP, 0xB0};
 135:Drivers/BSP/Components/otm8009a/otm8009a.c **** const uint8_t ShortRegData31[] = {OTM8009A_CMD_NOP, 0xC0};
 136:Drivers/BSP/Components/otm8009a/otm8009a.c **** const uint8_t ShortRegData32[] = {OTM8009A_CMD_NOP, 0xD0};
 137:Drivers/BSP/Components/otm8009a/otm8009a.c **** const uint8_t ShortRegData33[] = {OTM8009A_CMD_NOP, 0x90};
 138:Drivers/BSP/Components/otm8009a/otm8009a.c **** const uint8_t ShortRegData34[] = {OTM8009A_CMD_NOP, 0xE0};
 139:Drivers/BSP/Components/otm8009a/otm8009a.c **** const uint8_t ShortRegData35[] = {OTM8009A_CMD_NOP, 0xF0};
 140:Drivers/BSP/Components/otm8009a/otm8009a.c **** const uint8_t ShortRegData36[] = {OTM8009A_CMD_SLPOUT, 0x00};
 141:Drivers/BSP/Components/otm8009a/otm8009a.c **** const uint8_t ShortRegData37[] = {OTM8009A_CMD_COLMOD, OTM8009A_COLMOD_RGB565};
 142:Drivers/BSP/Components/otm8009a/otm8009a.c **** const uint8_t ShortRegData38[] = {OTM8009A_CMD_COLMOD, OTM8009A_COLMOD_RGB888};
 143:Drivers/BSP/Components/otm8009a/otm8009a.c **** const uint8_t ShortRegData39[] = {OTM8009A_CMD_MADCTR, OTM8009A_MADCTR_MODE_LANDSCAPE};
ARM GAS  /var/folders/0z/tsy30v1j4xl4_7kw94k978ww0000gn/T//cc3eeBZz.s 			page 4


 144:Drivers/BSP/Components/otm8009a/otm8009a.c **** const uint8_t ShortRegData40[] = {OTM8009A_CMD_WRDISBV, 0x7F};
 145:Drivers/BSP/Components/otm8009a/otm8009a.c **** const uint8_t ShortRegData41[] = {OTM8009A_CMD_WRCTRLD, 0x2C};
 146:Drivers/BSP/Components/otm8009a/otm8009a.c **** const uint8_t ShortRegData42[] = {OTM8009A_CMD_WRCABC, 0x02};
 147:Drivers/BSP/Components/otm8009a/otm8009a.c **** const uint8_t ShortRegData43[] = {OTM8009A_CMD_WRCABCMB, 0xFF};
 148:Drivers/BSP/Components/otm8009a/otm8009a.c **** const uint8_t ShortRegData44[] = {OTM8009A_CMD_DISPON, 0x00};
 149:Drivers/BSP/Components/otm8009a/otm8009a.c **** const uint8_t ShortRegData45[] = {OTM8009A_CMD_RAMWR, 0x00};
 150:Drivers/BSP/Components/otm8009a/otm8009a.c **** const uint8_t ShortRegData46[] = {0xCF, 0x00};
 151:Drivers/BSP/Components/otm8009a/otm8009a.c **** const uint8_t ShortRegData47[] = {0xC5, 0x66};
 152:Drivers/BSP/Components/otm8009a/otm8009a.c **** const uint8_t ShortRegData48[] = {OTM8009A_CMD_NOP, 0xB6};
 153:Drivers/BSP/Components/otm8009a/otm8009a.c **** const uint8_t ShortRegData49[] = {0xF5, 0x06};
 154:Drivers/BSP/Components/otm8009a/otm8009a.c **** const uint8_t ShortRegData50[] = {OTM8009A_CMD_NOP, 0xB1};
 155:Drivers/BSP/Components/otm8009a/otm8009a.c **** const uint8_t ShortRegData51[] = {0xC6, 0x06};
 156:Drivers/BSP/Components/otm8009a/otm8009a.c **** /**
 157:Drivers/BSP/Components/otm8009a/otm8009a.c ****   * @}
 158:Drivers/BSP/Components/otm8009a/otm8009a.c ****   */
 159:Drivers/BSP/Components/otm8009a/otm8009a.c **** 
 160:Drivers/BSP/Components/otm8009a/otm8009a.c **** /* Private macros ------------------------------------------------------------*/
 161:Drivers/BSP/Components/otm8009a/otm8009a.c **** /* Private functions ---------------------------------------------------------*/
 162:Drivers/BSP/Components/otm8009a/otm8009a.c **** /** @defgroup OTM8009A_Exported_Variables
 163:Drivers/BSP/Components/otm8009a/otm8009a.c ****   * @{
 164:Drivers/BSP/Components/otm8009a/otm8009a.c ****   */
 165:Drivers/BSP/Components/otm8009a/otm8009a.c **** 
 166:Drivers/BSP/Components/otm8009a/otm8009a.c **** /**
 167:Drivers/BSP/Components/otm8009a/otm8009a.c ****   * @}
 168:Drivers/BSP/Components/otm8009a/otm8009a.c ****   */
 169:Drivers/BSP/Components/otm8009a/otm8009a.c **** 
 170:Drivers/BSP/Components/otm8009a/otm8009a.c **** /* Exported functions ---------------------------------------------------------*/
 171:Drivers/BSP/Components/otm8009a/otm8009a.c **** /** @defgroup OTM8009A_Exported_Functions OTM8009A Exported Functions
 172:Drivers/BSP/Components/otm8009a/otm8009a.c ****   * @{
 173:Drivers/BSP/Components/otm8009a/otm8009a.c ****   */
 174:Drivers/BSP/Components/otm8009a/otm8009a.c **** 
 175:Drivers/BSP/Components/otm8009a/otm8009a.c **** /**
 176:Drivers/BSP/Components/otm8009a/otm8009a.c ****   * @brief  DSI IO write short/long command.
 177:Drivers/BSP/Components/otm8009a/otm8009a.c ****   * @note : Can be surcharged by application code implementation of the function.
 178:Drivers/BSP/Components/otm8009a/otm8009a.c ****   */
 179:Drivers/BSP/Components/otm8009a/otm8009a.c **** __weak void DSI_IO_WriteCmd(uint32_t NbrParams, uint8_t *pParams)
 180:Drivers/BSP/Components/otm8009a/otm8009a.c **** {
  30              		.loc 1 180 1 view -0
  31              		.cfi_startproc
  32              		@ args = 0, pretend = 0, frame = 0
  33              		@ frame_needed = 0, uses_anonymous_args = 0
  34              		@ link register save eliminated.
 181:Drivers/BSP/Components/otm8009a/otm8009a.c ****   /* NOTE : This function Should not be modified, when it is needed,
 182:Drivers/BSP/Components/otm8009a/otm8009a.c ****             the DSI_IO_WriteCmd could be implemented in the user file
 183:Drivers/BSP/Components/otm8009a/otm8009a.c ****    */
 184:Drivers/BSP/Components/otm8009a/otm8009a.c **** }
  35              		.loc 1 184 1 view .LVU1
  36 0000 7047     		bx	lr
  37              		.cfi_endproc
  38              	.LFE0:
  40              		.section	.text.OTM8009A_Init,"ax",%progbits
  41              		.align	1
  42              		.global	OTM8009A_Init
  43              		.syntax unified
  44              		.thumb
  45              		.thumb_func
  47              	OTM8009A_Init:
ARM GAS  /var/folders/0z/tsy30v1j4xl4_7kw94k978ww0000gn/T//cc3eeBZz.s 			page 5


  48              	.LVL1:
  49              	.LFB1:
 185:Drivers/BSP/Components/otm8009a/otm8009a.c **** 
 186:Drivers/BSP/Components/otm8009a/otm8009a.c **** /**
 187:Drivers/BSP/Components/otm8009a/otm8009a.c ****   * @brief  Initializes the LCD KoD display part by communication in DSI mode in Video Mode
 188:Drivers/BSP/Components/otm8009a/otm8009a.c ****   *         with IC Display Driver OTM8009A (see IC Driver specification for more information).
 189:Drivers/BSP/Components/otm8009a/otm8009a.c ****   * @param  hdsi_eval : pointer on DSI configuration structure
 190:Drivers/BSP/Components/otm8009a/otm8009a.c ****   * @param  hdsivideo_handle : pointer on DSI video mode configuration structure
 191:Drivers/BSP/Components/otm8009a/otm8009a.c ****   * @retval Status
 192:Drivers/BSP/Components/otm8009a/otm8009a.c ****   */
 193:Drivers/BSP/Components/otm8009a/otm8009a.c **** uint8_t OTM8009A_Init(uint32_t ColorCoding, uint32_t orientation)
 194:Drivers/BSP/Components/otm8009a/otm8009a.c **** {
  50              		.loc 1 194 1 view -0
  51              		.cfi_startproc
  52              		@ args = 0, pretend = 0, frame = 8
  53              		@ frame_needed = 0, uses_anonymous_args = 0
  54              		.loc 1 194 1 is_stmt 0 view .LVU3
  55 0000 2DE9F04F 		push	{r4, r5, r6, r7, r8, r9, r10, fp, lr}
  56              		.cfi_def_cfa_offset 36
  57              		.cfi_offset 4, -36
  58              		.cfi_offset 5, -32
  59              		.cfi_offset 6, -28
  60              		.cfi_offset 7, -24
  61              		.cfi_offset 8, -20
  62              		.cfi_offset 9, -16
  63              		.cfi_offset 10, -12
  64              		.cfi_offset 11, -8
  65              		.cfi_offset 14, -4
  66 0004 83B0     		sub	sp, sp, #12
  67              		.cfi_def_cfa_offset 48
  68 0006 0090     		str	r0, [sp]
  69 0008 0191     		str	r1, [sp, #4]
 195:Drivers/BSP/Components/otm8009a/otm8009a.c ****   /* Enable CMD2 to access vendor specific commands                               */
 196:Drivers/BSP/Components/otm8009a/otm8009a.c ****   /* Enter in command 2 mode and set EXTC to enable address shift function (0x00) */
 197:Drivers/BSP/Components/otm8009a/otm8009a.c ****   DSI_IO_WriteCmd(0, (uint8_t *)ShortRegData1);
  70              		.loc 1 197 3 is_stmt 1 view .LVU4
  71 000a D74C     		ldr	r4, .L8
  72 000c 2146     		mov	r1, r4
  73              	.LVL2:
  74              		.loc 1 197 3 is_stmt 0 view .LVU5
  75 000e 0020     		movs	r0, #0
  76              	.LVL3:
  77              		.loc 1 197 3 view .LVU6
  78 0010 FFF7FEFF 		bl	DSI_IO_WriteCmd
  79              	.LVL4:
 198:Drivers/BSP/Components/otm8009a/otm8009a.c ****   DSI_IO_WriteCmd( 3, (uint8_t *)lcdRegData1);
  80              		.loc 1 198 3 is_stmt 1 view .LVU7
  81 0014 D549     		ldr	r1, .L8+4
  82 0016 0320     		movs	r0, #3
  83 0018 FFF7FEFF 		bl	DSI_IO_WriteCmd
  84              	.LVL5:
 199:Drivers/BSP/Components/otm8009a/otm8009a.c **** 
 200:Drivers/BSP/Components/otm8009a/otm8009a.c ****   /* Enter ORISE Command 2 */
 201:Drivers/BSP/Components/otm8009a/otm8009a.c ****   DSI_IO_WriteCmd(0, (uint8_t *)ShortRegData2); /* Shift address to 0x80 */
  85              		.loc 1 201 3 view .LVU8
  86 001c D44D     		ldr	r5, .L8+8
  87 001e 2946     		mov	r1, r5
ARM GAS  /var/folders/0z/tsy30v1j4xl4_7kw94k978ww0000gn/T//cc3eeBZz.s 			page 6


  88 0020 0020     		movs	r0, #0
  89 0022 FFF7FEFF 		bl	DSI_IO_WriteCmd
  90              	.LVL6:
 202:Drivers/BSP/Components/otm8009a/otm8009a.c ****   DSI_IO_WriteCmd( 2, (uint8_t *)lcdRegData2);
  91              		.loc 1 202 3 view .LVU9
  92 0026 D349     		ldr	r1, .L8+12
  93 0028 0220     		movs	r0, #2
  94 002a FFF7FEFF 		bl	DSI_IO_WriteCmd
  95              	.LVL7:
 203:Drivers/BSP/Components/otm8009a/otm8009a.c **** 
 204:Drivers/BSP/Components/otm8009a/otm8009a.c ****   /////////////////////////////////////////////////////////////////////
 205:Drivers/BSP/Components/otm8009a/otm8009a.c ****   /* SD_PCH_CTRL - 0xC480h - 129th parameter - Default 0x00          */
 206:Drivers/BSP/Components/otm8009a/otm8009a.c ****   /* Set SD_PT                                                       */
 207:Drivers/BSP/Components/otm8009a/otm8009a.c ****   /* -> Source output level during porch and non-display area to GND */
 208:Drivers/BSP/Components/otm8009a/otm8009a.c ****   DSI_IO_WriteCmd(0, (uint8_t *)ShortRegData2);
  96              		.loc 1 208 3 view .LVU10
  97 002e 2946     		mov	r1, r5
  98 0030 0020     		movs	r0, #0
  99 0032 FFF7FEFF 		bl	DSI_IO_WriteCmd
 100              	.LVL8:
 209:Drivers/BSP/Components/otm8009a/otm8009a.c ****   DSI_IO_WriteCmd(0, (uint8_t *)ShortRegData3);
 101              		.loc 1 209 3 view .LVU11
 102 0036 D049     		ldr	r1, .L8+16
 103 0038 0020     		movs	r0, #0
 104 003a FFF7FEFF 		bl	DSI_IO_WriteCmd
 105              	.LVL9:
 210:Drivers/BSP/Components/otm8009a/otm8009a.c ****   OTM8009A_IO_Delay(10);
 106              		.loc 1 210 3 view .LVU12
 107 003e 0A20     		movs	r0, #10
 108 0040 FFF7FEFF 		bl	OTM8009A_IO_Delay
 109              	.LVL10:
 211:Drivers/BSP/Components/otm8009a/otm8009a.c ****   /* Not documented */
 212:Drivers/BSP/Components/otm8009a/otm8009a.c ****   DSI_IO_WriteCmd(0, (uint8_t *)ShortRegData4);
 110              		.loc 1 212 3 view .LVU13
 111 0044 CD49     		ldr	r1, .L8+20
 112 0046 0020     		movs	r0, #0
 113 0048 FFF7FEFF 		bl	DSI_IO_WriteCmd
 114              	.LVL11:
 213:Drivers/BSP/Components/otm8009a/otm8009a.c ****   DSI_IO_WriteCmd(0, (uint8_t *)ShortRegData5);
 115              		.loc 1 213 3 view .LVU14
 116 004c CC49     		ldr	r1, .L8+24
 117 004e 0020     		movs	r0, #0
 118 0050 FFF7FEFF 		bl	DSI_IO_WriteCmd
 119              	.LVL12:
 214:Drivers/BSP/Components/otm8009a/otm8009a.c ****   OTM8009A_IO_Delay(10);
 120              		.loc 1 214 3 view .LVU15
 121 0054 0A20     		movs	r0, #10
 122 0056 FFF7FEFF 		bl	OTM8009A_IO_Delay
 123              	.LVL13:
 215:Drivers/BSP/Components/otm8009a/otm8009a.c ****   /////////////////////////////////////////////////////////////////////
 216:Drivers/BSP/Components/otm8009a/otm8009a.c **** 
 217:Drivers/BSP/Components/otm8009a/otm8009a.c ****   /* PWR_CTRL4 - 0xC4B0h - 178th parameter - Default 0xA8 */
 218:Drivers/BSP/Components/otm8009a/otm8009a.c ****   /* Set gvdd_en_test                                     */
 219:Drivers/BSP/Components/otm8009a/otm8009a.c ****   /* -> enable GVDD test mode !!!                         */
 220:Drivers/BSP/Components/otm8009a/otm8009a.c ****   DSI_IO_WriteCmd(0, (uint8_t *)ShortRegData6);
 124              		.loc 1 220 3 view .LVU16
 125 005a CA49     		ldr	r1, .L8+28
ARM GAS  /var/folders/0z/tsy30v1j4xl4_7kw94k978ww0000gn/T//cc3eeBZz.s 			page 7


 126 005c 0020     		movs	r0, #0
 127 005e FFF7FEFF 		bl	DSI_IO_WriteCmd
 128              	.LVL14:
 221:Drivers/BSP/Components/otm8009a/otm8009a.c ****   DSI_IO_WriteCmd(0, (uint8_t *)ShortRegData7);
 129              		.loc 1 221 3 view .LVU17
 130 0062 C949     		ldr	r1, .L8+32
 131 0064 0020     		movs	r0, #0
 132 0066 FFF7FEFF 		bl	DSI_IO_WriteCmd
 133              	.LVL15:
 222:Drivers/BSP/Components/otm8009a/otm8009a.c **** 
 223:Drivers/BSP/Components/otm8009a/otm8009a.c ****   /* PWR_CTRL2 - 0xC590h - 146th parameter - Default 0x79      */
 224:Drivers/BSP/Components/otm8009a/otm8009a.c ****   /* Set pump 4 vgh voltage                                    */
 225:Drivers/BSP/Components/otm8009a/otm8009a.c ****   /* -> from 15.0v down to 13.0v                               */
 226:Drivers/BSP/Components/otm8009a/otm8009a.c ****   /* Set pump 5 vgh voltage                                    */
 227:Drivers/BSP/Components/otm8009a/otm8009a.c ****   /* -> from -12.0v downto -9.0v                               */
 228:Drivers/BSP/Components/otm8009a/otm8009a.c ****   DSI_IO_WriteCmd(0, (uint8_t *)ShortRegData8);
 134              		.loc 1 228 3 view .LVU18
 135 006a C849     		ldr	r1, .L8+36
 136 006c 0020     		movs	r0, #0
 137 006e FFF7FEFF 		bl	DSI_IO_WriteCmd
 138              	.LVL16:
 229:Drivers/BSP/Components/otm8009a/otm8009a.c ****   DSI_IO_WriteCmd(0, (uint8_t *)ShortRegData9);
 139              		.loc 1 229 3 view .LVU19
 140 0072 DFF80884 		ldr	r8, .L8+276
 141 0076 4146     		mov	r1, r8
 142 0078 0020     		movs	r0, #0
 143 007a FFF7FEFF 		bl	DSI_IO_WriteCmd
 144              	.LVL17:
 230:Drivers/BSP/Components/otm8009a/otm8009a.c **** 
 231:Drivers/BSP/Components/otm8009a/otm8009a.c ****   /* P_DRV_M - 0xC0B4h - 181th parameter - Default 0x00 */
 232:Drivers/BSP/Components/otm8009a/otm8009a.c ****   /* -> Column inversion                                */
 233:Drivers/BSP/Components/otm8009a/otm8009a.c ****   DSI_IO_WriteCmd(0, (uint8_t *)ShortRegData10);
 145              		.loc 1 233 3 view .LVU20
 146 007e C449     		ldr	r1, .L8+40
 147 0080 0020     		movs	r0, #0
 148 0082 FFF7FEFF 		bl	DSI_IO_WriteCmd
 149              	.LVL18:
 234:Drivers/BSP/Components/otm8009a/otm8009a.c ****   DSI_IO_WriteCmd(0, (uint8_t *)ShortRegData11);
 150              		.loc 1 234 3 view .LVU21
 151 0086 C349     		ldr	r1, .L8+44
 152 0088 0020     		movs	r0, #0
 153 008a FFF7FEFF 		bl	DSI_IO_WriteCmd
 154              	.LVL19:
 235:Drivers/BSP/Components/otm8009a/otm8009a.c **** 
 236:Drivers/BSP/Components/otm8009a/otm8009a.c ****   /* VCOMDC - 0xD900h - 1st parameter - Default 0x39h */
 237:Drivers/BSP/Components/otm8009a/otm8009a.c ****   /* VCOM Voltage settings                            */
 238:Drivers/BSP/Components/otm8009a/otm8009a.c ****   /* -> from -1.0000v downto -1.2625v                 */
 239:Drivers/BSP/Components/otm8009a/otm8009a.c ****   DSI_IO_WriteCmd(0, (uint8_t *)ShortRegData1);
 155              		.loc 1 239 3 view .LVU22
 156 008e 2146     		mov	r1, r4
 157 0090 0020     		movs	r0, #0
 158 0092 FFF7FEFF 		bl	DSI_IO_WriteCmd
 159              	.LVL20:
 240:Drivers/BSP/Components/otm8009a/otm8009a.c ****   DSI_IO_WriteCmd(0, (uint8_t *)ShortRegData12);
 160              		.loc 1 240 3 view .LVU23
 161 0096 C049     		ldr	r1, .L8+48
 162 0098 0020     		movs	r0, #0
ARM GAS  /var/folders/0z/tsy30v1j4xl4_7kw94k978ww0000gn/T//cc3eeBZz.s 			page 8


 163 009a FFF7FEFF 		bl	DSI_IO_WriteCmd
 164              	.LVL21:
 241:Drivers/BSP/Components/otm8009a/otm8009a.c **** 
 242:Drivers/BSP/Components/otm8009a/otm8009a.c ****   /* Oscillator adjustment for Idle/Normal mode (LPDT only) set to 65Hz (default is 60Hz) */
 243:Drivers/BSP/Components/otm8009a/otm8009a.c ****   DSI_IO_WriteCmd(0, (uint8_t *)ShortRegData13);
 165              		.loc 1 243 3 view .LVU24
 166 009e BF4E     		ldr	r6, .L8+52
 167 00a0 3146     		mov	r1, r6
 168 00a2 0020     		movs	r0, #0
 169 00a4 FFF7FEFF 		bl	DSI_IO_WriteCmd
 170              	.LVL22:
 244:Drivers/BSP/Components/otm8009a/otm8009a.c ****   DSI_IO_WriteCmd(0, (uint8_t *)ShortRegData14);
 171              		.loc 1 244 3 view .LVU25
 172 00a8 BD49     		ldr	r1, .L8+56
 173 00aa 0020     		movs	r0, #0
 174 00ac FFF7FEFF 		bl	DSI_IO_WriteCmd
 175              	.LVL23:
 245:Drivers/BSP/Components/otm8009a/otm8009a.c **** 
 246:Drivers/BSP/Components/otm8009a/otm8009a.c ****   /* Video mode internal */
 247:Drivers/BSP/Components/otm8009a/otm8009a.c ****   DSI_IO_WriteCmd(0, (uint8_t *)ShortRegData15);
 176              		.loc 1 247 3 view .LVU26
 177 00b0 BC4F     		ldr	r7, .L8+60
 178 00b2 3946     		mov	r1, r7
 179 00b4 0020     		movs	r0, #0
 180 00b6 FFF7FEFF 		bl	DSI_IO_WriteCmd
 181              	.LVL24:
 248:Drivers/BSP/Components/otm8009a/otm8009a.c ****   DSI_IO_WriteCmd(0, (uint8_t *)ShortRegData16);
 182              		.loc 1 248 3 view .LVU27
 183 00ba BB49     		ldr	r1, .L8+64
 184 00bc 0020     		movs	r0, #0
 185 00be FFF7FEFF 		bl	DSI_IO_WriteCmd
 186              	.LVL25:
 249:Drivers/BSP/Components/otm8009a/otm8009a.c **** 
 250:Drivers/BSP/Components/otm8009a/otm8009a.c ****   /* PWR_CTRL2 - 0xC590h - 147h parameter - Default 0x00 */
 251:Drivers/BSP/Components/otm8009a/otm8009a.c ****   /* Set pump 4&5 x6                                     */
 252:Drivers/BSP/Components/otm8009a/otm8009a.c ****   /* -> ONLY VALID when PUMP4_EN_ASDM_HV = "0"           */
 253:Drivers/BSP/Components/otm8009a/otm8009a.c ****   DSI_IO_WriteCmd(0, (uint8_t *)ShortRegData17);
 187              		.loc 1 253 3 view .LVU28
 188 00c2 BA49     		ldr	r1, .L8+68
 189 00c4 0020     		movs	r0, #0
 190 00c6 FFF7FEFF 		bl	DSI_IO_WriteCmd
 191              	.LVL26:
 254:Drivers/BSP/Components/otm8009a/otm8009a.c ****   DSI_IO_WriteCmd(0, (uint8_t *)ShortRegData18);
 192              		.loc 1 254 3 view .LVU29
 193 00ca B949     		ldr	r1, .L8+72
 194 00cc 0020     		movs	r0, #0
 195 00ce FFF7FEFF 		bl	DSI_IO_WriteCmd
 196              	.LVL27:
 255:Drivers/BSP/Components/otm8009a/otm8009a.c **** 
 256:Drivers/BSP/Components/otm8009a/otm8009a.c ****   /* PWR_CTRL2 - 0xC590h - 150th parameter - Default 0x33h */
 257:Drivers/BSP/Components/otm8009a/otm8009a.c ****   /* Change pump4 clock ratio                              */
 258:Drivers/BSP/Components/otm8009a/otm8009a.c ****   /* -> from 1 line to 1/2 line                            */
 259:Drivers/BSP/Components/otm8009a/otm8009a.c ****   DSI_IO_WriteCmd(0, (uint8_t *)ShortRegData19);
 197              		.loc 1 259 3 view .LVU30
 198 00d2 B849     		ldr	r1, .L8+76
 199 00d4 0020     		movs	r0, #0
 200 00d6 FFF7FEFF 		bl	DSI_IO_WriteCmd
ARM GAS  /var/folders/0z/tsy30v1j4xl4_7kw94k978ww0000gn/T//cc3eeBZz.s 			page 9


 201              	.LVL28:
 260:Drivers/BSP/Components/otm8009a/otm8009a.c ****   DSI_IO_WriteCmd(0, (uint8_t *)ShortRegData9);
 202              		.loc 1 260 3 view .LVU31
 203 00da 4146     		mov	r1, r8
 204 00dc 0020     		movs	r0, #0
 205 00de FFF7FEFF 		bl	DSI_IO_WriteCmd
 206              	.LVL29:
 261:Drivers/BSP/Components/otm8009a/otm8009a.c **** 
 262:Drivers/BSP/Components/otm8009a/otm8009a.c ****   /* GVDD/NGVDD settings */
 263:Drivers/BSP/Components/otm8009a/otm8009a.c ****   DSI_IO_WriteCmd(0, (uint8_t *)ShortRegData1);
 207              		.loc 1 263 3 view .LVU32
 208 00e2 2146     		mov	r1, r4
 209 00e4 0020     		movs	r0, #0
 210 00e6 FFF7FEFF 		bl	DSI_IO_WriteCmd
 211              	.LVL30:
 264:Drivers/BSP/Components/otm8009a/otm8009a.c ****   DSI_IO_WriteCmd( 2, (uint8_t *)lcdRegData5);
 212              		.loc 1 264 3 view .LVU33
 213 00ea B349     		ldr	r1, .L8+80
 214 00ec 0220     		movs	r0, #2
 215 00ee FFF7FEFF 		bl	DSI_IO_WriteCmd
 216              	.LVL31:
 265:Drivers/BSP/Components/otm8009a/otm8009a.c **** 
 266:Drivers/BSP/Components/otm8009a/otm8009a.c ****   /* PWR_CTRL2 - 0xC590h - 149th parameter - Default 0x33h */
 267:Drivers/BSP/Components/otm8009a/otm8009a.c ****   /* Rewrite the default value !                           */
 268:Drivers/BSP/Components/otm8009a/otm8009a.c ****   DSI_IO_WriteCmd(0, (uint8_t *)ShortRegData20);
 217              		.loc 1 268 3 view .LVU34
 218 00f2 B249     		ldr	r1, .L8+84
 219 00f4 0020     		movs	r0, #0
 220 00f6 FFF7FEFF 		bl	DSI_IO_WriteCmd
 221              	.LVL32:
 269:Drivers/BSP/Components/otm8009a/otm8009a.c ****   DSI_IO_WriteCmd(0, (uint8_t *)ShortRegData21);
 222              		.loc 1 269 3 view .LVU35
 223 00fa B149     		ldr	r1, .L8+88
 224 00fc 0020     		movs	r0, #0
 225 00fe FFF7FEFF 		bl	DSI_IO_WriteCmd
 226              	.LVL33:
 270:Drivers/BSP/Components/otm8009a/otm8009a.c **** 
 271:Drivers/BSP/Components/otm8009a/otm8009a.c ****   /* Panel display timing Setting 3 */
 272:Drivers/BSP/Components/otm8009a/otm8009a.c ****   DSI_IO_WriteCmd(0, (uint8_t *)ShortRegData22);
 227              		.loc 1 272 3 view .LVU36
 228 0102 B049     		ldr	r1, .L8+92
 229 0104 0020     		movs	r0, #0
 230 0106 FFF7FEFF 		bl	DSI_IO_WriteCmd
 231              	.LVL34:
 273:Drivers/BSP/Components/otm8009a/otm8009a.c ****   DSI_IO_WriteCmd(0, (uint8_t *)ShortRegData23);
 232              		.loc 1 273 3 view .LVU37
 233 010a AF49     		ldr	r1, .L8+96
 234 010c 0020     		movs	r0, #0
 235 010e FFF7FEFF 		bl	DSI_IO_WriteCmd
 236              	.LVL35:
 274:Drivers/BSP/Components/otm8009a/otm8009a.c **** 
 275:Drivers/BSP/Components/otm8009a/otm8009a.c ****   /* Power control 1 */
 276:Drivers/BSP/Components/otm8009a/otm8009a.c ****   DSI_IO_WriteCmd(0, (uint8_t *)ShortRegData24);
 237              		.loc 1 276 3 view .LVU38
 238 0112 AE49     		ldr	r1, .L8+100
 239 0114 0020     		movs	r0, #0
 240 0116 FFF7FEFF 		bl	DSI_IO_WriteCmd
ARM GAS  /var/folders/0z/tsy30v1j4xl4_7kw94k978ww0000gn/T//cc3eeBZz.s 			page 10


 241              	.LVL36:
 277:Drivers/BSP/Components/otm8009a/otm8009a.c ****   DSI_IO_WriteCmd(0, (uint8_t *)ShortRegData25);
 242              		.loc 1 277 3 view .LVU39
 243 011a AD49     		ldr	r1, .L8+104
 244 011c 0020     		movs	r0, #0
 245 011e FFF7FEFF 		bl	DSI_IO_WriteCmd
 246              	.LVL37:
 278:Drivers/BSP/Components/otm8009a/otm8009a.c **** 
 279:Drivers/BSP/Components/otm8009a/otm8009a.c ****   /* Source driver precharge */
 280:Drivers/BSP/Components/otm8009a/otm8009a.c ****   DSI_IO_WriteCmd(0, (uint8_t *)ShortRegData13);
 247              		.loc 1 280 3 view .LVU40
 248 0122 3146     		mov	r1, r6
 249 0124 0020     		movs	r0, #0
 250 0126 FFF7FEFF 		bl	DSI_IO_WriteCmd
 251              	.LVL38:
 281:Drivers/BSP/Components/otm8009a/otm8009a.c ****   DSI_IO_WriteCmd(0, (uint8_t *)ShortRegData26);
 252              		.loc 1 281 3 view .LVU41
 253 012a AA49     		ldr	r1, .L8+108
 254 012c 0020     		movs	r0, #0
 255 012e FFF7FEFF 		bl	DSI_IO_WriteCmd
 256              	.LVL39:
 282:Drivers/BSP/Components/otm8009a/otm8009a.c **** 
 283:Drivers/BSP/Components/otm8009a/otm8009a.c ****   DSI_IO_WriteCmd(0, (uint8_t *)ShortRegData15);
 257              		.loc 1 283 3 view .LVU42
 258 0132 3946     		mov	r1, r7
 259 0134 0020     		movs	r0, #0
 260 0136 FFF7FEFF 		bl	DSI_IO_WriteCmd
 261              	.LVL40:
 284:Drivers/BSP/Components/otm8009a/otm8009a.c ****   DSI_IO_WriteCmd(0, (uint8_t *)ShortRegData27);
 262              		.loc 1 284 3 view .LVU43
 263 013a A749     		ldr	r1, .L8+112
 264 013c 0020     		movs	r0, #0
 265 013e FFF7FEFF 		bl	DSI_IO_WriteCmd
 266              	.LVL41:
 285:Drivers/BSP/Components/otm8009a/otm8009a.c **** 
 286:Drivers/BSP/Components/otm8009a/otm8009a.c ****   DSI_IO_WriteCmd(0, (uint8_t *)ShortRegData28);
 267              		.loc 1 286 3 view .LVU44
 268 0142 A649     		ldr	r1, .L8+116
 269 0144 0020     		movs	r0, #0
 270 0146 FFF7FEFF 		bl	DSI_IO_WriteCmd
 271              	.LVL42:
 287:Drivers/BSP/Components/otm8009a/otm8009a.c ****   DSI_IO_WriteCmd( 2, (uint8_t *)lcdRegData6);
 272              		.loc 1 287 3 view .LVU45
 273 014a A549     		ldr	r1, .L8+120
 274 014c 0220     		movs	r0, #2
 275 014e FFF7FEFF 		bl	DSI_IO_WriteCmd
 276              	.LVL43:
 288:Drivers/BSP/Components/otm8009a/otm8009a.c **** 
 289:Drivers/BSP/Components/otm8009a/otm8009a.c ****   /* GOAVST */
 290:Drivers/BSP/Components/otm8009a/otm8009a.c ****   DSI_IO_WriteCmd(0, (uint8_t *)ShortRegData2);
 277              		.loc 1 290 3 view .LVU46
 278 0152 2946     		mov	r1, r5
 279 0154 0020     		movs	r0, #0
 280 0156 FFF7FEFF 		bl	DSI_IO_WriteCmd
 281              	.LVL44:
 291:Drivers/BSP/Components/otm8009a/otm8009a.c ****   DSI_IO_WriteCmd( 6, (uint8_t *)lcdRegData7);
 282              		.loc 1 291 3 view .LVU47
ARM GAS  /var/folders/0z/tsy30v1j4xl4_7kw94k978ww0000gn/T//cc3eeBZz.s 			page 11


 283 015a A249     		ldr	r1, .L8+124
 284 015c 0620     		movs	r0, #6
 285 015e FFF7FEFF 		bl	DSI_IO_WriteCmd
 286              	.LVL45:
 292:Drivers/BSP/Components/otm8009a/otm8009a.c **** 
 293:Drivers/BSP/Components/otm8009a/otm8009a.c ****   DSI_IO_WriteCmd(0, (uint8_t *)ShortRegData29);
 287              		.loc 1 293 3 view .LVU48
 288 0162 DFF81CA3 		ldr	r10, .L8+280
 289 0166 5146     		mov	r1, r10
 290 0168 0020     		movs	r0, #0
 291 016a FFF7FEFF 		bl	DSI_IO_WriteCmd
 292              	.LVL46:
 294:Drivers/BSP/Components/otm8009a/otm8009a.c ****   DSI_IO_WriteCmd( 14, (uint8_t *)lcdRegData8);
 293              		.loc 1 294 3 view .LVU49
 294 016e 9E49     		ldr	r1, .L8+128
 295 0170 0E20     		movs	r0, #14
 296 0172 FFF7FEFF 		bl	DSI_IO_WriteCmd
 297              	.LVL47:
 295:Drivers/BSP/Components/otm8009a/otm8009a.c **** 
 296:Drivers/BSP/Components/otm8009a/otm8009a.c ****   DSI_IO_WriteCmd(0, (uint8_t *)ShortRegData30);
 298              		.loc 1 296 3 view .LVU50
 299 0176 DFF80C93 		ldr	r9, .L8+284
 300 017a 4946     		mov	r1, r9
 301 017c 0020     		movs	r0, #0
 302 017e FFF7FEFF 		bl	DSI_IO_WriteCmd
 303              	.LVL48:
 297:Drivers/BSP/Components/otm8009a/otm8009a.c ****   DSI_IO_WriteCmd( 14, (uint8_t *)lcdRegData9);
 304              		.loc 1 297 3 view .LVU51
 305 0182 9A49     		ldr	r1, .L8+132
 306 0184 0E20     		movs	r0, #14
 307 0186 FFF7FEFF 		bl	DSI_IO_WriteCmd
 308              	.LVL49:
 298:Drivers/BSP/Components/otm8009a/otm8009a.c **** 
 299:Drivers/BSP/Components/otm8009a/otm8009a.c ****   DSI_IO_WriteCmd(0, (uint8_t *)ShortRegData31);
 309              		.loc 1 299 3 view .LVU52
 310 018a DFF8FC82 		ldr	r8, .L8+288
 311 018e 4146     		mov	r1, r8
 312 0190 0020     		movs	r0, #0
 313 0192 FFF7FEFF 		bl	DSI_IO_WriteCmd
 314              	.LVL50:
 300:Drivers/BSP/Components/otm8009a/otm8009a.c ****   DSI_IO_WriteCmd( 10, (uint8_t *)lcdRegData10);
 315              		.loc 1 300 3 view .LVU53
 316 0196 9649     		ldr	r1, .L8+136
 317 0198 0A20     		movs	r0, #10
 318 019a FFF7FEFF 		bl	DSI_IO_WriteCmd
 319              	.LVL51:
 301:Drivers/BSP/Components/otm8009a/otm8009a.c **** 
 302:Drivers/BSP/Components/otm8009a/otm8009a.c ****   DSI_IO_WriteCmd(0, (uint8_t *)ShortRegData32);
 320              		.loc 1 302 3 view .LVU54
 321 019e 954F     		ldr	r7, .L8+140
 322 01a0 3946     		mov	r1, r7
 323 01a2 0020     		movs	r0, #0
 324 01a4 FFF7FEFF 		bl	DSI_IO_WriteCmd
 325              	.LVL52:
 303:Drivers/BSP/Components/otm8009a/otm8009a.c ****   DSI_IO_WriteCmd(0, (uint8_t *)ShortRegData46);
 326              		.loc 1 303 3 view .LVU55
 327 01a8 9349     		ldr	r1, .L8+144
ARM GAS  /var/folders/0z/tsy30v1j4xl4_7kw94k978ww0000gn/T//cc3eeBZz.s 			page 12


 328 01aa 0020     		movs	r0, #0
 329 01ac FFF7FEFF 		bl	DSI_IO_WriteCmd
 330              	.LVL53:
 304:Drivers/BSP/Components/otm8009a/otm8009a.c **** 
 305:Drivers/BSP/Components/otm8009a/otm8009a.c ****   DSI_IO_WriteCmd(0, (uint8_t *)ShortRegData2);
 331              		.loc 1 305 3 view .LVU56
 332 01b0 2946     		mov	r1, r5
 333 01b2 0020     		movs	r0, #0
 334 01b4 FFF7FEFF 		bl	DSI_IO_WriteCmd
 335              	.LVL54:
 306:Drivers/BSP/Components/otm8009a/otm8009a.c ****   DSI_IO_WriteCmd( 10, (uint8_t *)lcdRegData11);
 336              		.loc 1 306 3 view .LVU57
 337 01b8 9049     		ldr	r1, .L8+148
 338 01ba 0A20     		movs	r0, #10
 339 01bc FFF7FEFF 		bl	DSI_IO_WriteCmd
 340              	.LVL55:
 307:Drivers/BSP/Components/otm8009a/otm8009a.c **** 
 308:Drivers/BSP/Components/otm8009a/otm8009a.c ****   DSI_IO_WriteCmd(0, (uint8_t *)ShortRegData33);
 341              		.loc 1 308 3 view .LVU58
 342 01c0 DFF8C8B2 		ldr	fp, .L8+292
 343 01c4 5946     		mov	r1, fp
 344 01c6 0020     		movs	r0, #0
 345 01c8 FFF7FEFF 		bl	DSI_IO_WriteCmd
 346              	.LVL56:
 309:Drivers/BSP/Components/otm8009a/otm8009a.c ****   DSI_IO_WriteCmd( 15, (uint8_t *)lcdRegData12);
 347              		.loc 1 309 3 view .LVU59
 348 01cc 8C49     		ldr	r1, .L8+152
 349 01ce 0F20     		movs	r0, #15
 350 01d0 FFF7FEFF 		bl	DSI_IO_WriteCmd
 351              	.LVL57:
 310:Drivers/BSP/Components/otm8009a/otm8009a.c **** 
 311:Drivers/BSP/Components/otm8009a/otm8009a.c ****   DSI_IO_WriteCmd(0, (uint8_t *)ShortRegData29);
 352              		.loc 1 311 3 view .LVU60
 353 01d4 5146     		mov	r1, r10
 354 01d6 0020     		movs	r0, #0
 355 01d8 FFF7FEFF 		bl	DSI_IO_WriteCmd
 356              	.LVL58:
 312:Drivers/BSP/Components/otm8009a/otm8009a.c ****   DSI_IO_WriteCmd( 15, (uint8_t *)lcdRegData13);
 357              		.loc 1 312 3 view .LVU61
 358 01dc 8949     		ldr	r1, .L8+156
 359 01de 0F20     		movs	r0, #15
 360 01e0 FFF7FEFF 		bl	DSI_IO_WriteCmd
 361              	.LVL59:
 313:Drivers/BSP/Components/otm8009a/otm8009a.c **** 
 314:Drivers/BSP/Components/otm8009a/otm8009a.c ****   DSI_IO_WriteCmd(0, (uint8_t *)ShortRegData30);
 362              		.loc 1 314 3 view .LVU62
 363 01e4 4946     		mov	r1, r9
 364 01e6 0020     		movs	r0, #0
 365 01e8 FFF7FEFF 		bl	DSI_IO_WriteCmd
 366              	.LVL60:
 315:Drivers/BSP/Components/otm8009a/otm8009a.c ****   DSI_IO_WriteCmd( 10, (uint8_t *)lcdRegData14);
 367              		.loc 1 315 3 view .LVU63
 368 01ec 8649     		ldr	r1, .L8+160
 369 01ee 0A20     		movs	r0, #10
 370 01f0 FFF7FEFF 		bl	DSI_IO_WriteCmd
 371              	.LVL61:
 316:Drivers/BSP/Components/otm8009a/otm8009a.c **** 
ARM GAS  /var/folders/0z/tsy30v1j4xl4_7kw94k978ww0000gn/T//cc3eeBZz.s 			page 13


 317:Drivers/BSP/Components/otm8009a/otm8009a.c ****   DSI_IO_WriteCmd(0, (uint8_t *)ShortRegData31);
 372              		.loc 1 317 3 view .LVU64
 373 01f4 4146     		mov	r1, r8
 374 01f6 0020     		movs	r0, #0
 375 01f8 FFF7FEFF 		bl	DSI_IO_WriteCmd
 376              	.LVL62:
 318:Drivers/BSP/Components/otm8009a/otm8009a.c ****   DSI_IO_WriteCmd( 15, (uint8_t *)lcdRegData15);
 377              		.loc 1 318 3 view .LVU65
 378 01fc 8349     		ldr	r1, .L8+164
 379 01fe 0F20     		movs	r0, #15
 380 0200 FFF7FEFF 		bl	DSI_IO_WriteCmd
 381              	.LVL63:
 319:Drivers/BSP/Components/otm8009a/otm8009a.c **** 
 320:Drivers/BSP/Components/otm8009a/otm8009a.c ****   DSI_IO_WriteCmd(0, (uint8_t *)ShortRegData32);
 382              		.loc 1 320 3 view .LVU66
 383 0204 3946     		mov	r1, r7
 384 0206 0020     		movs	r0, #0
 385 0208 FFF7FEFF 		bl	DSI_IO_WriteCmd
 386              	.LVL64:
 321:Drivers/BSP/Components/otm8009a/otm8009a.c ****   DSI_IO_WriteCmd( 15, (uint8_t *)lcdRegData16);
 387              		.loc 1 321 3 view .LVU67
 388 020c 8049     		ldr	r1, .L8+168
 389 020e 0F20     		movs	r0, #15
 390 0210 FFF7FEFF 		bl	DSI_IO_WriteCmd
 391              	.LVL65:
 322:Drivers/BSP/Components/otm8009a/otm8009a.c **** 
 323:Drivers/BSP/Components/otm8009a/otm8009a.c ****   DSI_IO_WriteCmd(0, (uint8_t *)ShortRegData34);
 392              		.loc 1 323 3 view .LVU68
 393 0214 7F49     		ldr	r1, .L8+172
 394 0216 0020     		movs	r0, #0
 395 0218 FFF7FEFF 		bl	DSI_IO_WriteCmd
 396              	.LVL66:
 324:Drivers/BSP/Components/otm8009a/otm8009a.c ****   DSI_IO_WriteCmd( 10, (uint8_t *)lcdRegData17);
 397              		.loc 1 324 3 view .LVU69
 398 021c 7E49     		ldr	r1, .L8+176
 399 021e 0A20     		movs	r0, #10
 400 0220 FFF7FEFF 		bl	DSI_IO_WriteCmd
 401              	.LVL67:
 325:Drivers/BSP/Components/otm8009a/otm8009a.c **** 
 326:Drivers/BSP/Components/otm8009a/otm8009a.c ****   DSI_IO_WriteCmd(0, (uint8_t *)ShortRegData35);
 402              		.loc 1 326 3 view .LVU70
 403 0224 7D49     		ldr	r1, .L8+180
 404 0226 0020     		movs	r0, #0
 405 0228 FFF7FEFF 		bl	DSI_IO_WriteCmd
 406              	.LVL68:
 327:Drivers/BSP/Components/otm8009a/otm8009a.c ****   DSI_IO_WriteCmd( 10, (uint8_t *)lcdRegData18);
 407              		.loc 1 327 3 view .LVU71
 408 022c 7C49     		ldr	r1, .L8+184
 409 022e 0A20     		movs	r0, #10
 410 0230 FFF7FEFF 		bl	DSI_IO_WriteCmd
 411              	.LVL69:
 328:Drivers/BSP/Components/otm8009a/otm8009a.c **** 
 329:Drivers/BSP/Components/otm8009a/otm8009a.c ****   DSI_IO_WriteCmd(0, (uint8_t *)ShortRegData2);
 412              		.loc 1 329 3 view .LVU72
 413 0234 2946     		mov	r1, r5
 414 0236 0020     		movs	r0, #0
 415 0238 FFF7FEFF 		bl	DSI_IO_WriteCmd
ARM GAS  /var/folders/0z/tsy30v1j4xl4_7kw94k978ww0000gn/T//cc3eeBZz.s 			page 14


 416              	.LVL70:
 330:Drivers/BSP/Components/otm8009a/otm8009a.c ****   DSI_IO_WriteCmd( 10, (uint8_t *)lcdRegData19);
 417              		.loc 1 330 3 view .LVU73
 418 023c 7949     		ldr	r1, .L8+188
 419 023e 0A20     		movs	r0, #10
 420 0240 FFF7FEFF 		bl	DSI_IO_WriteCmd
 421              	.LVL71:
 331:Drivers/BSP/Components/otm8009a/otm8009a.c **** 
 332:Drivers/BSP/Components/otm8009a/otm8009a.c ****   DSI_IO_WriteCmd(0, (uint8_t *)ShortRegData33);
 422              		.loc 1 332 3 view .LVU74
 423 0244 5946     		mov	r1, fp
 424 0246 0020     		movs	r0, #0
 425 0248 FFF7FEFF 		bl	DSI_IO_WriteCmd
 426              	.LVL72:
 333:Drivers/BSP/Components/otm8009a/otm8009a.c ****   DSI_IO_WriteCmd( 15, (uint8_t *)lcdRegData20);
 427              		.loc 1 333 3 view .LVU75
 428 024c 7649     		ldr	r1, .L8+192
 429 024e 0F20     		movs	r0, #15
 430 0250 FFF7FEFF 		bl	DSI_IO_WriteCmd
 431              	.LVL73:
 334:Drivers/BSP/Components/otm8009a/otm8009a.c **** 
 335:Drivers/BSP/Components/otm8009a/otm8009a.c ****   DSI_IO_WriteCmd(0, (uint8_t *)ShortRegData29);
 432              		.loc 1 335 3 view .LVU76
 433 0254 5146     		mov	r1, r10
 434 0256 0020     		movs	r0, #0
 435 0258 FFF7FEFF 		bl	DSI_IO_WriteCmd
 436              	.LVL74:
 336:Drivers/BSP/Components/otm8009a/otm8009a.c ****   DSI_IO_WriteCmd( 15, (uint8_t *)lcdRegData21);
 437              		.loc 1 336 3 view .LVU77
 438 025c 7349     		ldr	r1, .L8+196
 439 025e 0F20     		movs	r0, #15
 440 0260 FFF7FEFF 		bl	DSI_IO_WriteCmd
 441              	.LVL75:
 337:Drivers/BSP/Components/otm8009a/otm8009a.c **** 
 338:Drivers/BSP/Components/otm8009a/otm8009a.c ****   DSI_IO_WriteCmd(0, (uint8_t *)ShortRegData30);
 442              		.loc 1 338 3 view .LVU78
 443 0264 4946     		mov	r1, r9
 444 0266 0020     		movs	r0, #0
 445 0268 FFF7FEFF 		bl	DSI_IO_WriteCmd
 446              	.LVL76:
 339:Drivers/BSP/Components/otm8009a/otm8009a.c ****   DSI_IO_WriteCmd( 10, (uint8_t *)lcdRegData22);
 447              		.loc 1 339 3 view .LVU79
 448 026c 7049     		ldr	r1, .L8+200
 449 026e 0A20     		movs	r0, #10
 450 0270 FFF7FEFF 		bl	DSI_IO_WriteCmd
 451              	.LVL77:
 340:Drivers/BSP/Components/otm8009a/otm8009a.c **** 
 341:Drivers/BSP/Components/otm8009a/otm8009a.c ****   DSI_IO_WriteCmd(0, (uint8_t *)ShortRegData31);
 452              		.loc 1 341 3 view .LVU80
 453 0274 4146     		mov	r1, r8
 454 0276 0020     		movs	r0, #0
 455 0278 FFF7FEFF 		bl	DSI_IO_WriteCmd
 456              	.LVL78:
 342:Drivers/BSP/Components/otm8009a/otm8009a.c ****   DSI_IO_WriteCmd( 15, (uint8_t *)lcdRegData23);
 457              		.loc 1 342 3 view .LVU81
 458 027c 6D49     		ldr	r1, .L8+204
 459 027e 0F20     		movs	r0, #15
ARM GAS  /var/folders/0z/tsy30v1j4xl4_7kw94k978ww0000gn/T//cc3eeBZz.s 			page 15


 460 0280 FFF7FEFF 		bl	DSI_IO_WriteCmd
 461              	.LVL79:
 343:Drivers/BSP/Components/otm8009a/otm8009a.c **** 
 344:Drivers/BSP/Components/otm8009a/otm8009a.c ****   DSI_IO_WriteCmd(0, (uint8_t *)ShortRegData32);
 462              		.loc 1 344 3 view .LVU82
 463 0284 3946     		mov	r1, r7
 464 0286 0020     		movs	r0, #0
 465 0288 FFF7FEFF 		bl	DSI_IO_WriteCmd
 466              	.LVL80:
 345:Drivers/BSP/Components/otm8009a/otm8009a.c ****   DSI_IO_WriteCmd( 15, (uint8_t *)lcdRegData24);
 467              		.loc 1 345 3 view .LVU83
 468 028c 6A49     		ldr	r1, .L8+208
 469 028e 0F20     		movs	r0, #15
 470 0290 FFF7FEFF 		bl	DSI_IO_WriteCmd
 471              	.LVL81:
 346:Drivers/BSP/Components/otm8009a/otm8009a.c **** 
 347:Drivers/BSP/Components/otm8009a/otm8009a.c ****   /////////////////////////////////////////////////////////////////////////////
 348:Drivers/BSP/Components/otm8009a/otm8009a.c ****   /* PWR_CTRL1 - 0xc580h - 130th parameter - default 0x00 */
 349:Drivers/BSP/Components/otm8009a/otm8009a.c ****   /* Pump 1 min and max DM                                */
 350:Drivers/BSP/Components/otm8009a/otm8009a.c ****   DSI_IO_WriteCmd(0, (uint8_t *)ShortRegData13);
 472              		.loc 1 350 3 view .LVU84
 473 0294 3146     		mov	r1, r6
 474 0296 0020     		movs	r0, #0
 475 0298 FFF7FEFF 		bl	DSI_IO_WriteCmd
 476              	.LVL82:
 351:Drivers/BSP/Components/otm8009a/otm8009a.c ****   DSI_IO_WriteCmd(0, (uint8_t *)ShortRegData47);
 477              		.loc 1 351 3 view .LVU85
 478 029c 6749     		ldr	r1, .L8+212
 479 029e 0020     		movs	r0, #0
 480 02a0 FFF7FEFF 		bl	DSI_IO_WriteCmd
 481              	.LVL83:
 352:Drivers/BSP/Components/otm8009a/otm8009a.c ****   DSI_IO_WriteCmd(0, (uint8_t *)ShortRegData48);
 482              		.loc 1 352 3 view .LVU86
 483 02a4 6649     		ldr	r1, .L8+216
 484 02a6 0020     		movs	r0, #0
 485 02a8 FFF7FEFF 		bl	DSI_IO_WriteCmd
 486              	.LVL84:
 353:Drivers/BSP/Components/otm8009a/otm8009a.c ****   DSI_IO_WriteCmd(0, (uint8_t *)ShortRegData49);
 487              		.loc 1 353 3 view .LVU87
 488 02ac 6549     		ldr	r1, .L8+220
 489 02ae 0020     		movs	r0, #0
 490 02b0 FFF7FEFF 		bl	DSI_IO_WriteCmd
 491              	.LVL85:
 354:Drivers/BSP/Components/otm8009a/otm8009a.c ****   /////////////////////////////////////////////////////////////////////////////
 355:Drivers/BSP/Components/otm8009a/otm8009a.c **** 
 356:Drivers/BSP/Components/otm8009a/otm8009a.c ****   /* CABC LEDPWM frequency adjusted to 19,5kHz */
 357:Drivers/BSP/Components/otm8009a/otm8009a.c ****   DSI_IO_WriteCmd(0, (uint8_t *)ShortRegData50);
 492              		.loc 1 357 3 view .LVU88
 493 02b4 6449     		ldr	r1, .L8+224
 494 02b6 0020     		movs	r0, #0
 495 02b8 FFF7FEFF 		bl	DSI_IO_WriteCmd
 496              	.LVL86:
 358:Drivers/BSP/Components/otm8009a/otm8009a.c ****   DSI_IO_WriteCmd(0, (uint8_t *)ShortRegData51);
 497              		.loc 1 358 3 view .LVU89
 498 02bc 6349     		ldr	r1, .L8+228
 499 02be 0020     		movs	r0, #0
 500 02c0 FFF7FEFF 		bl	DSI_IO_WriteCmd
ARM GAS  /var/folders/0z/tsy30v1j4xl4_7kw94k978ww0000gn/T//cc3eeBZz.s 			page 16


 501              	.LVL87:
 359:Drivers/BSP/Components/otm8009a/otm8009a.c ****   
 360:Drivers/BSP/Components/otm8009a/otm8009a.c ****   /* Exit CMD2 mode */
 361:Drivers/BSP/Components/otm8009a/otm8009a.c ****   DSI_IO_WriteCmd(0, (uint8_t *)ShortRegData1);
 502              		.loc 1 361 3 view .LVU90
 503 02c4 2146     		mov	r1, r4
 504 02c6 0020     		movs	r0, #0
 505 02c8 FFF7FEFF 		bl	DSI_IO_WriteCmd
 506              	.LVL88:
 362:Drivers/BSP/Components/otm8009a/otm8009a.c ****   DSI_IO_WriteCmd( 3, (uint8_t *)lcdRegData25);
 507              		.loc 1 362 3 view .LVU91
 508 02cc 6049     		ldr	r1, .L8+232
 509 02ce 0320     		movs	r0, #3
 510 02d0 FFF7FEFF 		bl	DSI_IO_WriteCmd
 511              	.LVL89:
 363:Drivers/BSP/Components/otm8009a/otm8009a.c **** 
 364:Drivers/BSP/Components/otm8009a/otm8009a.c ****   /*************************************************************************** */
 365:Drivers/BSP/Components/otm8009a/otm8009a.c ****   /* Standard DCS Initialization TO KEEP CAN BE DONE IN HSDT                   */
 366:Drivers/BSP/Components/otm8009a/otm8009a.c ****   /*************************************************************************** */
 367:Drivers/BSP/Components/otm8009a/otm8009a.c **** 
 368:Drivers/BSP/Components/otm8009a/otm8009a.c ****   /* NOP - goes back to DCS std command ? */
 369:Drivers/BSP/Components/otm8009a/otm8009a.c ****   DSI_IO_WriteCmd(0, (uint8_t *)ShortRegData1);
 512              		.loc 1 369 3 view .LVU92
 513 02d4 2146     		mov	r1, r4
 514 02d6 0020     		movs	r0, #0
 515 02d8 FFF7FEFF 		bl	DSI_IO_WriteCmd
 516              	.LVL90:
 370:Drivers/BSP/Components/otm8009a/otm8009a.c ****           
 371:Drivers/BSP/Components/otm8009a/otm8009a.c ****   /* Gamma correction 2.2+ table (HSDT possible) */
 372:Drivers/BSP/Components/otm8009a/otm8009a.c ****   DSI_IO_WriteCmd(0, (uint8_t *)ShortRegData1);
 517              		.loc 1 372 3 view .LVU93
 518 02dc 2146     		mov	r1, r4
 519 02de 0020     		movs	r0, #0
 520 02e0 FFF7FEFF 		bl	DSI_IO_WriteCmd
 521              	.LVL91:
 373:Drivers/BSP/Components/otm8009a/otm8009a.c ****   DSI_IO_WriteCmd( 16, (uint8_t *)lcdRegData3);
 522              		.loc 1 373 3 view .LVU94
 523 02e4 5B49     		ldr	r1, .L8+236
 524 02e6 1020     		movs	r0, #16
 525 02e8 FFF7FEFF 		bl	DSI_IO_WriteCmd
 526              	.LVL92:
 374:Drivers/BSP/Components/otm8009a/otm8009a.c ****   
 375:Drivers/BSP/Components/otm8009a/otm8009a.c ****   /* Gamma correction 2.2- table (HSDT possible) */
 376:Drivers/BSP/Components/otm8009a/otm8009a.c ****   DSI_IO_WriteCmd(0, (uint8_t *)ShortRegData1);
 527              		.loc 1 376 3 view .LVU95
 528 02ec 2146     		mov	r1, r4
 529 02ee 0020     		movs	r0, #0
 530 02f0 FFF7FEFF 		bl	DSI_IO_WriteCmd
 531              	.LVL93:
 377:Drivers/BSP/Components/otm8009a/otm8009a.c ****   DSI_IO_WriteCmd( 16, (uint8_t *)lcdRegData4);
 532              		.loc 1 377 3 view .LVU96
 533 02f4 5849     		ldr	r1, .L8+240
 534 02f6 1020     		movs	r0, #16
 535 02f8 FFF7FEFF 		bl	DSI_IO_WriteCmd
 536              	.LVL94:
 378:Drivers/BSP/Components/otm8009a/otm8009a.c ****           
 379:Drivers/BSP/Components/otm8009a/otm8009a.c ****   /* Send Sleep Out command to display : no parameter */
ARM GAS  /var/folders/0z/tsy30v1j4xl4_7kw94k978ww0000gn/T//cc3eeBZz.s 			page 17


 380:Drivers/BSP/Components/otm8009a/otm8009a.c ****   DSI_IO_WriteCmd(0, (uint8_t *)ShortRegData36);
 537              		.loc 1 380 3 view .LVU97
 538 02fc 5749     		ldr	r1, .L8+244
 539 02fe 0020     		movs	r0, #0
 540 0300 FFF7FEFF 		bl	DSI_IO_WriteCmd
 541              	.LVL95:
 381:Drivers/BSP/Components/otm8009a/otm8009a.c ****   
 382:Drivers/BSP/Components/otm8009a/otm8009a.c ****   /* Wait for sleep out exit */
 383:Drivers/BSP/Components/otm8009a/otm8009a.c ****   OTM8009A_IO_Delay(120);
 542              		.loc 1 383 3 view .LVU98
 543 0304 7820     		movs	r0, #120
 544 0306 FFF7FEFF 		bl	OTM8009A_IO_Delay
 545              	.LVL96:
 384:Drivers/BSP/Components/otm8009a/otm8009a.c **** 
 385:Drivers/BSP/Components/otm8009a/otm8009a.c ****   switch(ColorCoding)
 546              		.loc 1 385 3 view .LVU99
 547 030a 009B     		ldr	r3, [sp]
 548 030c 002B     		cmp	r3, #0
 549 030e 00F0BF80 		beq	.L3
 550 0312 022B     		cmp	r3, #2
 551 0314 03D1     		bne	.L4
 386:Drivers/BSP/Components/otm8009a/otm8009a.c ****   {
 387:Drivers/BSP/Components/otm8009a/otm8009a.c ****   case OTM8009A_FORMAT_RBG565 :
 388:Drivers/BSP/Components/otm8009a/otm8009a.c ****     /* Set Pixel color format to RGB565 */
 389:Drivers/BSP/Components/otm8009a/otm8009a.c ****     DSI_IO_WriteCmd(0, (uint8_t *)ShortRegData37);
 552              		.loc 1 389 5 view .LVU100
 553 0316 5249     		ldr	r1, .L8+248
 554 0318 0020     		movs	r0, #0
 555 031a FFF7FEFF 		bl	DSI_IO_WriteCmd
 556              	.LVL97:
 390:Drivers/BSP/Components/otm8009a/otm8009a.c ****     break;
 557              		.loc 1 390 5 view .LVU101
 558              	.L4:
 391:Drivers/BSP/Components/otm8009a/otm8009a.c ****   case OTM8009A_FORMAT_RGB888 :
 392:Drivers/BSP/Components/otm8009a/otm8009a.c ****     /* Set Pixel color format to RGB888 */
 393:Drivers/BSP/Components/otm8009a/otm8009a.c ****     DSI_IO_WriteCmd(0, (uint8_t *)ShortRegData38);
 394:Drivers/BSP/Components/otm8009a/otm8009a.c ****     break;
 395:Drivers/BSP/Components/otm8009a/otm8009a.c ****   default :
 396:Drivers/BSP/Components/otm8009a/otm8009a.c ****     break;
 397:Drivers/BSP/Components/otm8009a/otm8009a.c ****   }
 398:Drivers/BSP/Components/otm8009a/otm8009a.c **** 
 399:Drivers/BSP/Components/otm8009a/otm8009a.c ****   /* Send command to configure display in landscape orientation mode. By default
 400:Drivers/BSP/Components/otm8009a/otm8009a.c ****       the orientation mode is portrait  */
 401:Drivers/BSP/Components/otm8009a/otm8009a.c ****   if(orientation == OTM8009A_ORIENTATION_LANDSCAPE)
 559              		.loc 1 401 3 view .LVU102
 560              		.loc 1 401 5 is_stmt 0 view .LVU103
 561 031e 019B     		ldr	r3, [sp, #4]
 562 0320 012B     		cmp	r3, #1
 563 0322 00F0BA80 		beq	.L7
 564              	.L5:
 402:Drivers/BSP/Components/otm8009a/otm8009a.c ****   {
 403:Drivers/BSP/Components/otm8009a/otm8009a.c ****     DSI_IO_WriteCmd(0, (uint8_t *)ShortRegData39);
 404:Drivers/BSP/Components/otm8009a/otm8009a.c ****     DSI_IO_WriteCmd( 4, (uint8_t *)lcdRegData27);
 405:Drivers/BSP/Components/otm8009a/otm8009a.c ****     DSI_IO_WriteCmd( 4, (uint8_t *)lcdRegData28);
 406:Drivers/BSP/Components/otm8009a/otm8009a.c ****   }
 407:Drivers/BSP/Components/otm8009a/otm8009a.c **** 
 408:Drivers/BSP/Components/otm8009a/otm8009a.c ****   /** CABC : Content Adaptive Backlight Control section start >> */
ARM GAS  /var/folders/0z/tsy30v1j4xl4_7kw94k978ww0000gn/T//cc3eeBZz.s 			page 18


 409:Drivers/BSP/Components/otm8009a/otm8009a.c ****   /* Note : defaut is 0 (lowest Brightness), 0xFF is highest Brightness, try 0x7F : intermediate va
 410:Drivers/BSP/Components/otm8009a/otm8009a.c ****   DSI_IO_WriteCmd(0, (uint8_t *)ShortRegData40);
 565              		.loc 1 410 3 is_stmt 1 view .LVU104
 566 0326 4F49     		ldr	r1, .L8+252
 567 0328 0020     		movs	r0, #0
 568 032a FFF7FEFF 		bl	DSI_IO_WriteCmd
 569              	.LVL98:
 411:Drivers/BSP/Components/otm8009a/otm8009a.c **** 
 412:Drivers/BSP/Components/otm8009a/otm8009a.c ****   /* defaut is 0, try 0x2C - Brightness Control Block, Display Dimming & BackLight on */
 413:Drivers/BSP/Components/otm8009a/otm8009a.c ****   DSI_IO_WriteCmd(0, (uint8_t *)ShortRegData41);
 570              		.loc 1 413 3 view .LVU105
 571 032e 4E49     		ldr	r1, .L8+256
 572 0330 0020     		movs	r0, #0
 573 0332 FFF7FEFF 		bl	DSI_IO_WriteCmd
 574              	.LVL99:
 414:Drivers/BSP/Components/otm8009a/otm8009a.c **** 
 415:Drivers/BSP/Components/otm8009a/otm8009a.c ****   /* defaut is 0, try 0x02 - image Content based Adaptive Brightness [Still Picture] */
 416:Drivers/BSP/Components/otm8009a/otm8009a.c ****   DSI_IO_WriteCmd(0, (uint8_t *)ShortRegData42);
 575              		.loc 1 416 3 view .LVU106
 576 0336 4D49     		ldr	r1, .L8+260
 577 0338 0020     		movs	r0, #0
 578 033a FFF7FEFF 		bl	DSI_IO_WriteCmd
 579              	.LVL100:
 417:Drivers/BSP/Components/otm8009a/otm8009a.c **** 
 418:Drivers/BSP/Components/otm8009a/otm8009a.c ****   /* defaut is 0 (lowest Brightness), 0xFF is highest Brightness */
 419:Drivers/BSP/Components/otm8009a/otm8009a.c ****   DSI_IO_WriteCmd(0, (uint8_t *)ShortRegData43);
 580              		.loc 1 419 3 view .LVU107
 581 033e 4C49     		ldr	r1, .L8+264
 582 0340 0020     		movs	r0, #0
 583 0342 FFF7FEFF 		bl	DSI_IO_WriteCmd
 584              	.LVL101:
 420:Drivers/BSP/Components/otm8009a/otm8009a.c **** 
 421:Drivers/BSP/Components/otm8009a/otm8009a.c ****   /** CABC : Content Adaptive Backlight Control section end << */
 422:Drivers/BSP/Components/otm8009a/otm8009a.c **** 
 423:Drivers/BSP/Components/otm8009a/otm8009a.c ****   /* Send Command Display On */
 424:Drivers/BSP/Components/otm8009a/otm8009a.c ****   DSI_IO_WriteCmd(0, (uint8_t *)ShortRegData44);
 585              		.loc 1 424 3 view .LVU108
 586 0346 4B49     		ldr	r1, .L8+268
 587 0348 0020     		movs	r0, #0
 588 034a FFF7FEFF 		bl	DSI_IO_WriteCmd
 589              	.LVL102:
 425:Drivers/BSP/Components/otm8009a/otm8009a.c **** 
 426:Drivers/BSP/Components/otm8009a/otm8009a.c ****   /* NOP command */
 427:Drivers/BSP/Components/otm8009a/otm8009a.c ****   DSI_IO_WriteCmd(0, (uint8_t *)ShortRegData1);
 590              		.loc 1 427 3 view .LVU109
 591 034e 0649     		ldr	r1, .L8
 592 0350 0020     		movs	r0, #0
 593 0352 FFF7FEFF 		bl	DSI_IO_WriteCmd
 594              	.LVL103:
 428:Drivers/BSP/Components/otm8009a/otm8009a.c **** 
 429:Drivers/BSP/Components/otm8009a/otm8009a.c ****   /* Send Command GRAM memory write (no parameters) : this initiates frame write via other DSI comm
 430:Drivers/BSP/Components/otm8009a/otm8009a.c ****   /* DSI host from LTDC incoming pixels in video mode */
 431:Drivers/BSP/Components/otm8009a/otm8009a.c ****   DSI_IO_WriteCmd(0, (uint8_t *)ShortRegData45);
 595              		.loc 1 431 3 view .LVU110
 596 0356 4849     		ldr	r1, .L8+272
 597 0358 0020     		movs	r0, #0
 598 035a FFF7FEFF 		bl	DSI_IO_WriteCmd
ARM GAS  /var/folders/0z/tsy30v1j4xl4_7kw94k978ww0000gn/T//cc3eeBZz.s 			page 19


 599              	.LVL104:
 432:Drivers/BSP/Components/otm8009a/otm8009a.c **** 
 433:Drivers/BSP/Components/otm8009a/otm8009a.c ****   return 0;
 600              		.loc 1 433 3 view .LVU111
 434:Drivers/BSP/Components/otm8009a/otm8009a.c **** }
 601              		.loc 1 434 1 is_stmt 0 view .LVU112
 602 035e 0020     		movs	r0, #0
 603 0360 03B0     		add	sp, sp, #12
 604              		.cfi_remember_state
 605              		.cfi_def_cfa_offset 36
 606              	.LVL105:
 607              		.loc 1 434 1 view .LVU113
 608              		@ sp needed
 609 0362 BDE8F08F 		pop	{r4, r5, r6, r7, r8, r9, r10, fp, pc}
 610              	.LVL106:
 611              	.L9:
 612              		.loc 1 434 1 view .LVU114
 613 0366 00BF     		.align	2
 614              	.L8:
 615 0368 00000000 		.word	.LANCHOR0
 616 036c 00000000 		.word	.LANCHOR1
 617 0370 00000000 		.word	.LANCHOR2
 618 0374 00000000 		.word	.LANCHOR3
 619 0378 00000000 		.word	.LANCHOR4
 620 037c 00000000 		.word	.LANCHOR5
 621 0380 00000000 		.word	.LANCHOR6
 622 0384 00000000 		.word	.LANCHOR7
 623 0388 00000000 		.word	.LANCHOR8
 624 038c 00000000 		.word	.LANCHOR9
 625 0390 00000000 		.word	.LANCHOR11
 626 0394 00000000 		.word	.LANCHOR12
 627 0398 00000000 		.word	.LANCHOR13
 628 039c 00000000 		.word	.LANCHOR14
 629 03a0 00000000 		.word	.LANCHOR15
 630 03a4 00000000 		.word	.LANCHOR16
 631 03a8 00000000 		.word	.LANCHOR17
 632 03ac 00000000 		.word	.LANCHOR18
 633 03b0 00000000 		.word	.LANCHOR19
 634 03b4 00000000 		.word	.LANCHOR20
 635 03b8 00000000 		.word	.LANCHOR21
 636 03bc 00000000 		.word	.LANCHOR22
 637 03c0 00000000 		.word	.LANCHOR23
 638 03c4 00000000 		.word	.LANCHOR24
 639 03c8 00000000 		.word	.LANCHOR25
 640 03cc 00000000 		.word	.LANCHOR26
 641 03d0 00000000 		.word	.LANCHOR27
 642 03d4 00000000 		.word	.LANCHOR28
 643 03d8 00000000 		.word	.LANCHOR29
 644 03dc 00000000 		.word	.LANCHOR30
 645 03e0 00000000 		.word	.LANCHOR31
 646 03e4 00000000 		.word	.LANCHOR32
 647 03e8 00000000 		.word	.LANCHOR34
 648 03ec 00000000 		.word	.LANCHOR36
 649 03f0 00000000 		.word	.LANCHOR38
 650 03f4 00000000 		.word	.LANCHOR39
 651 03f8 00000000 		.word	.LANCHOR40
 652 03fc 00000000 		.word	.LANCHOR41
ARM GAS  /var/folders/0z/tsy30v1j4xl4_7kw94k978ww0000gn/T//cc3eeBZz.s 			page 20


 653 0400 00000000 		.word	.LANCHOR43
 654 0404 00000000 		.word	.LANCHOR44
 655 0408 00000000 		.word	.LANCHOR45
 656 040c 00000000 		.word	.LANCHOR46
 657 0410 00000000 		.word	.LANCHOR47
 658 0414 00000000 		.word	.LANCHOR48
 659 0418 00000000 		.word	.LANCHOR49
 660 041c 00000000 		.word	.LANCHOR50
 661 0420 00000000 		.word	.LANCHOR51
 662 0424 00000000 		.word	.LANCHOR52
 663 0428 00000000 		.word	.LANCHOR53
 664 042c 00000000 		.word	.LANCHOR54
 665 0430 00000000 		.word	.LANCHOR55
 666 0434 00000000 		.word	.LANCHOR56
 667 0438 00000000 		.word	.LANCHOR57
 668 043c 00000000 		.word	.LANCHOR58
 669 0440 00000000 		.word	.LANCHOR59
 670 0444 00000000 		.word	.LANCHOR60
 671 0448 00000000 		.word	.LANCHOR61
 672 044c 00000000 		.word	.LANCHOR62
 673 0450 00000000 		.word	.LANCHOR63
 674 0454 00000000 		.word	.LANCHOR64
 675 0458 00000000 		.word	.LANCHOR65
 676 045c 00000000 		.word	.LANCHOR66
 677 0460 00000000 		.word	.LANCHOR67
 678 0464 00000000 		.word	.LANCHOR72
 679 0468 00000000 		.word	.LANCHOR73
 680 046c 00000000 		.word	.LANCHOR74
 681 0470 00000000 		.word	.LANCHOR75
 682 0474 00000000 		.word	.LANCHOR76
 683 0478 00000000 		.word	.LANCHOR77
 684 047c 00000000 		.word	.LANCHOR10
 685 0480 00000000 		.word	.LANCHOR33
 686 0484 00000000 		.word	.LANCHOR35
 687 0488 00000000 		.word	.LANCHOR37
 688 048c 00000000 		.word	.LANCHOR42
 689              	.LVL107:
 690              	.L3:
 691              		.cfi_restore_state
 393:Drivers/BSP/Components/otm8009a/otm8009a.c ****     break;
 692              		.loc 1 393 5 is_stmt 1 view .LVU115
 693 0490 0849     		ldr	r1, .L10
 694 0492 0020     		movs	r0, #0
 695 0494 FFF7FEFF 		bl	DSI_IO_WriteCmd
 696              	.LVL108:
 394:Drivers/BSP/Components/otm8009a/otm8009a.c ****   default :
 697              		.loc 1 394 5 view .LVU116
 698 0498 41E7     		b	.L4
 699              	.L7:
 403:Drivers/BSP/Components/otm8009a/otm8009a.c ****     DSI_IO_WriteCmd( 4, (uint8_t *)lcdRegData27);
 700              		.loc 1 403 5 view .LVU117
 701 049a 0749     		ldr	r1, .L10+4
 702 049c 0020     		movs	r0, #0
 703 049e FFF7FEFF 		bl	DSI_IO_WriteCmd
 704              	.LVL109:
 404:Drivers/BSP/Components/otm8009a/otm8009a.c ****     DSI_IO_WriteCmd( 4, (uint8_t *)lcdRegData28);
 705              		.loc 1 404 5 view .LVU118
ARM GAS  /var/folders/0z/tsy30v1j4xl4_7kw94k978ww0000gn/T//cc3eeBZz.s 			page 21


 706 04a2 0649     		ldr	r1, .L10+8
 707 04a4 0420     		movs	r0, #4
 708 04a6 FFF7FEFF 		bl	DSI_IO_WriteCmd
 709              	.LVL110:
 405:Drivers/BSP/Components/otm8009a/otm8009a.c ****   }
 710              		.loc 1 405 5 view .LVU119
 711 04aa 0549     		ldr	r1, .L10+12
 712 04ac 0420     		movs	r0, #4
 713 04ae FFF7FEFF 		bl	DSI_IO_WriteCmd
 714              	.LVL111:
 715 04b2 38E7     		b	.L5
 716              	.L11:
 717              		.align	2
 718              	.L10:
 719 04b4 00000000 		.word	.LANCHOR68
 720 04b8 00000000 		.word	.LANCHOR69
 721 04bc 00000000 		.word	.LANCHOR70
 722 04c0 00000000 		.word	.LANCHOR71
 723              		.cfi_endproc
 724              	.LFE1:
 726              		.global	ShortRegData51
 727              		.global	ShortRegData50
 728              		.global	ShortRegData49
 729              		.global	ShortRegData48
 730              		.global	ShortRegData47
 731              		.global	ShortRegData46
 732              		.global	ShortRegData45
 733              		.global	ShortRegData44
 734              		.global	ShortRegData43
 735              		.global	ShortRegData42
 736              		.global	ShortRegData41
 737              		.global	ShortRegData40
 738              		.global	ShortRegData39
 739              		.global	ShortRegData38
 740              		.global	ShortRegData37
 741              		.global	ShortRegData36
 742              		.global	ShortRegData35
 743              		.global	ShortRegData34
 744              		.global	ShortRegData33
 745              		.global	ShortRegData32
 746              		.global	ShortRegData31
 747              		.global	ShortRegData30
 748              		.global	ShortRegData29
 749              		.global	ShortRegData28
 750              		.global	ShortRegData27
 751              		.global	ShortRegData26
 752              		.global	ShortRegData25
 753              		.global	ShortRegData24
 754              		.global	ShortRegData23
 755              		.global	ShortRegData22
 756              		.global	ShortRegData21
 757              		.global	ShortRegData20
 758              		.global	ShortRegData19
 759              		.global	ShortRegData18
 760              		.global	ShortRegData17
 761              		.global	ShortRegData16
 762              		.global	ShortRegData15
ARM GAS  /var/folders/0z/tsy30v1j4xl4_7kw94k978ww0000gn/T//cc3eeBZz.s 			page 22


 763              		.global	ShortRegData14
 764              		.global	ShortRegData13
 765              		.global	ShortRegData12
 766              		.global	ShortRegData11
 767              		.global	ShortRegData10
 768              		.global	ShortRegData9
 769              		.global	ShortRegData8
 770              		.global	ShortRegData7
 771              		.global	ShortRegData6
 772              		.global	ShortRegData5
 773              		.global	ShortRegData4
 774              		.global	ShortRegData3
 775              		.global	ShortRegData2
 776              		.global	ShortRegData1
 777              		.global	lcdRegData28
 778              		.global	lcdRegData27
 779              		.global	lcdRegData25
 780              		.global	lcdRegData24
 781              		.global	lcdRegData23
 782              		.global	lcdRegData22
 783              		.global	lcdRegData21
 784              		.global	lcdRegData20
 785              		.global	lcdRegData19
 786              		.global	lcdRegData18
 787              		.global	lcdRegData17
 788              		.global	lcdRegData16
 789              		.global	lcdRegData15
 790              		.global	lcdRegData14
 791              		.global	lcdRegData13
 792              		.global	lcdRegData12
 793              		.global	lcdRegData11
 794              		.global	lcdRegData10
 795              		.global	lcdRegData9
 796              		.global	lcdRegData8
 797              		.global	lcdRegData7
 798              		.global	lcdRegData6
 799              		.global	lcdRegData5
 800              		.global	lcdRegData4
 801              		.global	lcdRegData3
 802              		.global	lcdRegData2
 803              		.global	lcdRegData1
 804              		.section	.rodata.ShortRegData1,"a"
 805              		.align	2
 806              		.set	.LANCHOR0,. + 0
 809              	ShortRegData1:
 810 0000 0000     		.space	2
 811              		.section	.rodata.ShortRegData10,"a"
 812              		.align	2
 813              		.set	.LANCHOR11,. + 0
 816              	ShortRegData10:
 817 0000 00B4     		.ascii	"\000\264"
 818              		.section	.rodata.ShortRegData11,"a"
 819              		.align	2
 820              		.set	.LANCHOR12,. + 0
 823              	ShortRegData11:
 824 0000 C050     		.ascii	"\300P"
 825              		.section	.rodata.ShortRegData12,"a"
ARM GAS  /var/folders/0z/tsy30v1j4xl4_7kw94k978ww0000gn/T//cc3eeBZz.s 			page 23


 826              		.align	2
 827              		.set	.LANCHOR13,. + 0
 830              	ShortRegData12:
 831 0000 D94E     		.ascii	"\331N"
 832              		.section	.rodata.ShortRegData13,"a"
 833              		.align	2
 834              		.set	.LANCHOR14,. + 0
 837              	ShortRegData13:
 838 0000 0081     		.ascii	"\000\201"
 839              		.section	.rodata.ShortRegData14,"a"
 840              		.align	2
 841              		.set	.LANCHOR15,. + 0
 844              	ShortRegData14:
 845 0000 C166     		.ascii	"\301f"
 846              		.section	.rodata.ShortRegData15,"a"
 847              		.align	2
 848              		.set	.LANCHOR16,. + 0
 851              	ShortRegData15:
 852 0000 00A1     		.ascii	"\000\241"
 853              		.section	.rodata.ShortRegData16,"a"
 854              		.align	2
 855              		.set	.LANCHOR17,. + 0
 858              	ShortRegData16:
 859 0000 C108     		.ascii	"\301\010"
 860              		.section	.rodata.ShortRegData17,"a"
 861              		.align	2
 862              		.set	.LANCHOR18,. + 0
 865              	ShortRegData17:
 866 0000 0092     		.ascii	"\000\222"
 867              		.section	.rodata.ShortRegData18,"a"
 868              		.align	2
 869              		.set	.LANCHOR19,. + 0
 872              	ShortRegData18:
 873 0000 C501     		.ascii	"\305\001"
 874              		.section	.rodata.ShortRegData19,"a"
 875              		.align	2
 876              		.set	.LANCHOR20,. + 0
 879              	ShortRegData19:
 880 0000 0095     		.ascii	"\000\225"
 881              		.section	.rodata.ShortRegData2,"a"
 882              		.align	2
 883              		.set	.LANCHOR2,. + 0
 886              	ShortRegData2:
 887 0000 0080     		.ascii	"\000\200"
 888              		.section	.rodata.ShortRegData20,"a"
 889              		.align	2
 890              		.set	.LANCHOR22,. + 0
 893              	ShortRegData20:
 894 0000 0094     		.ascii	"\000\224"
 895              		.section	.rodata.ShortRegData21,"a"
 896              		.align	2
 897              		.set	.LANCHOR23,. + 0
 900              	ShortRegData21:
 901 0000 C533     		.ascii	"\3053"
 902              		.section	.rodata.ShortRegData22,"a"
 903              		.align	2
 904              		.set	.LANCHOR24,. + 0
ARM GAS  /var/folders/0z/tsy30v1j4xl4_7kw94k978ww0000gn/T//cc3eeBZz.s 			page 24


 907              	ShortRegData22:
 908 0000 00A3     		.ascii	"\000\243"
 909              		.section	.rodata.ShortRegData23,"a"
 910              		.align	2
 911              		.set	.LANCHOR25,. + 0
 914              	ShortRegData23:
 915 0000 C01B     		.ascii	"\300\033"
 916              		.section	.rodata.ShortRegData24,"a"
 917              		.align	2
 918              		.set	.LANCHOR26,. + 0
 921              	ShortRegData24:
 922 0000 0082     		.ascii	"\000\202"
 923              		.section	.rodata.ShortRegData25,"a"
 924              		.align	2
 925              		.set	.LANCHOR27,. + 0
 928              	ShortRegData25:
 929 0000 C583     		.ascii	"\305\203"
 930              		.section	.rodata.ShortRegData26,"a"
 931              		.align	2
 932              		.set	.LANCHOR28,. + 0
 935              	ShortRegData26:
 936 0000 C483     		.ascii	"\304\203"
 937              		.section	.rodata.ShortRegData27,"a"
 938              		.align	2
 939              		.set	.LANCHOR29,. + 0
 942              	ShortRegData27:
 943 0000 C10E     		.ascii	"\301\016"
 944              		.section	.rodata.ShortRegData28,"a"
 945              		.align	2
 946              		.set	.LANCHOR30,. + 0
 949              	ShortRegData28:
 950 0000 00A6     		.ascii	"\000\246"
 951              		.section	.rodata.ShortRegData29,"a"
 952              		.align	2
 953              		.set	.LANCHOR33,. + 0
 956              	ShortRegData29:
 957 0000 00A0     		.ascii	"\000\240"
 958              		.section	.rodata.ShortRegData3,"a"
 959              		.align	2
 960              		.set	.LANCHOR4,. + 0
 963              	ShortRegData3:
 964 0000 C430     		.ascii	"\3040"
 965              		.section	.rodata.ShortRegData30,"a"
 966              		.align	2
 967              		.set	.LANCHOR35,. + 0
 970              	ShortRegData30:
 971 0000 00B0     		.ascii	"\000\260"
 972              		.section	.rodata.ShortRegData31,"a"
 973              		.align	2
 974              		.set	.LANCHOR37,. + 0
 977              	ShortRegData31:
 978 0000 00C0     		.ascii	"\000\300"
 979              		.section	.rodata.ShortRegData32,"a"
 980              		.align	2
 981              		.set	.LANCHOR39,. + 0
 984              	ShortRegData32:
 985 0000 00D0     		.ascii	"\000\320"
ARM GAS  /var/folders/0z/tsy30v1j4xl4_7kw94k978ww0000gn/T//cc3eeBZz.s 			page 25


 986              		.section	.rodata.ShortRegData33,"a"
 987              		.align	2
 988              		.set	.LANCHOR42,. + 0
 991              	ShortRegData33:
 992 0000 0090     		.ascii	"\000\220"
 993              		.section	.rodata.ShortRegData34,"a"
 994              		.align	2
 995              		.set	.LANCHOR48,. + 0
 998              	ShortRegData34:
 999 0000 00E0     		.ascii	"\000\340"
 1000              		.section	.rodata.ShortRegData35,"a"
 1001              		.align	2
 1002              		.set	.LANCHOR50,. + 0
 1005              	ShortRegData35:
 1006 0000 00F0     		.ascii	"\000\360"
 1007              		.section	.rodata.ShortRegData36,"a"
 1008              		.align	2
 1009              		.set	.LANCHOR66,. + 0
 1012              	ShortRegData36:
 1013 0000 1100     		.ascii	"\021\000"
 1014              		.section	.rodata.ShortRegData37,"a"
 1015              		.align	2
 1016              		.set	.LANCHOR67,. + 0
 1019              	ShortRegData37:
 1020 0000 3A55     		.ascii	":U"
 1021              		.section	.rodata.ShortRegData38,"a"
 1022              		.align	2
 1023              		.set	.LANCHOR68,. + 0
 1026              	ShortRegData38:
 1027 0000 3A77     		.ascii	":w"
 1028              		.section	.rodata.ShortRegData39,"a"
 1029              		.align	2
 1030              		.set	.LANCHOR69,. + 0
 1033              	ShortRegData39:
 1034 0000 3660     		.ascii	"6`"
 1035              		.section	.rodata.ShortRegData4,"a"
 1036              		.align	2
 1037              		.set	.LANCHOR5,. + 0
 1040              	ShortRegData4:
 1041 0000 008A     		.ascii	"\000\212"
 1042              		.section	.rodata.ShortRegData40,"a"
 1043              		.align	2
 1044              		.set	.LANCHOR72,. + 0
 1047              	ShortRegData40:
 1048 0000 517F     		.ascii	"Q\177"
 1049              		.section	.rodata.ShortRegData41,"a"
 1050              		.align	2
 1051              		.set	.LANCHOR73,. + 0
 1054              	ShortRegData41:
 1055 0000 532C     		.ascii	"S,"
 1056              		.section	.rodata.ShortRegData42,"a"
 1057              		.align	2
 1058              		.set	.LANCHOR74,. + 0
 1061              	ShortRegData42:
 1062 0000 5502     		.ascii	"U\002"
 1063              		.section	.rodata.ShortRegData43,"a"
 1064              		.align	2
ARM GAS  /var/folders/0z/tsy30v1j4xl4_7kw94k978ww0000gn/T//cc3eeBZz.s 			page 26


 1065              		.set	.LANCHOR75,. + 0
 1068              	ShortRegData43:
 1069 0000 5EFF     		.ascii	"^\377"
 1070              		.section	.rodata.ShortRegData44,"a"
 1071              		.align	2
 1072              		.set	.LANCHOR76,. + 0
 1075              	ShortRegData44:
 1076 0000 2900     		.ascii	")\000"
 1077              		.section	.rodata.ShortRegData45,"a"
 1078              		.align	2
 1079              		.set	.LANCHOR77,. + 0
 1082              	ShortRegData45:
 1083 0000 2C00     		.ascii	",\000"
 1084              		.section	.rodata.ShortRegData46,"a"
 1085              		.align	2
 1086              		.set	.LANCHOR40,. + 0
 1089              	ShortRegData46:
 1090 0000 CF00     		.ascii	"\317\000"
 1091              		.section	.rodata.ShortRegData47,"a"
 1092              		.align	2
 1093              		.set	.LANCHOR58,. + 0
 1096              	ShortRegData47:
 1097 0000 C566     		.ascii	"\305f"
 1098              		.section	.rodata.ShortRegData48,"a"
 1099              		.align	2
 1100              		.set	.LANCHOR59,. + 0
 1103              	ShortRegData48:
 1104 0000 00B6     		.ascii	"\000\266"
 1105              		.section	.rodata.ShortRegData49,"a"
 1106              		.align	2
 1107              		.set	.LANCHOR60,. + 0
 1110              	ShortRegData49:
 1111 0000 F506     		.ascii	"\365\006"
 1112              		.section	.rodata.ShortRegData5,"a"
 1113              		.align	2
 1114              		.set	.LANCHOR6,. + 0
 1117              	ShortRegData5:
 1118 0000 C440     		.ascii	"\304@"
 1119              		.section	.rodata.ShortRegData50,"a"
 1120              		.align	2
 1121              		.set	.LANCHOR61,. + 0
 1124              	ShortRegData50:
 1125 0000 00B1     		.ascii	"\000\261"
 1126              		.section	.rodata.ShortRegData51,"a"
 1127              		.align	2
 1128              		.set	.LANCHOR62,. + 0
 1131              	ShortRegData51:
 1132 0000 C606     		.ascii	"\306\006"
 1133              		.section	.rodata.ShortRegData6,"a"
 1134              		.align	2
 1135              		.set	.LANCHOR7,. + 0
 1138              	ShortRegData6:
 1139 0000 00B1     		.ascii	"\000\261"
 1140              		.section	.rodata.ShortRegData7,"a"
 1141              		.align	2
 1142              		.set	.LANCHOR8,. + 0
 1145              	ShortRegData7:
ARM GAS  /var/folders/0z/tsy30v1j4xl4_7kw94k978ww0000gn/T//cc3eeBZz.s 			page 27


 1146 0000 C5A9     		.ascii	"\305\251"
 1147              		.section	.rodata.ShortRegData8,"a"
 1148              		.align	2
 1149              		.set	.LANCHOR9,. + 0
 1152              	ShortRegData8:
 1153 0000 0091     		.ascii	"\000\221"
 1154              		.section	.rodata.ShortRegData9,"a"
 1155              		.align	2
 1156              		.set	.LANCHOR10,. + 0
 1159              	ShortRegData9:
 1160 0000 C534     		.ascii	"\3054"
 1161              		.section	.rodata.lcdRegData1,"a"
 1162              		.align	2
 1163              		.set	.LANCHOR1,. + 0
 1166              	lcdRegData1:
 1167 0000 800901FF 		.ascii	"\200\011\001\377"
 1168              		.section	.rodata.lcdRegData10,"a"
 1169              		.align	2
 1170              		.set	.LANCHOR38,. + 0
 1173              	lcdRegData10:
 1174 0000 01012020 		.ascii	"\001\001  \000\000\001\002\000\000\317"
 1174      00000102 
 1174      0000CF
 1175              		.section	.rodata.lcdRegData11,"a"
 1176              		.align	2
 1177              		.set	.LANCHOR41,. + 0
 1180              	lcdRegData11:
 1181 0000 00000000 		.ascii	"\000\000\000\000\000\000\000\000\000\000\313"
 1181      00000000 
 1181      0000CB
 1182              		.section	.rodata.lcdRegData12,"a"
 1183              		.align	2
 1184              		.set	.LANCHOR43,. + 0
 1187              	lcdRegData12:
 1188 0000 00000000 		.ascii	"\000\000\000\000\000\000\000\000\000\000\000\000\000"
 1188      00000000 
 1188      00000000 
 1188      00
 1189 000d 0000CB   		.ascii	"\000\000\313"
 1190              		.section	.rodata.lcdRegData13,"a"
 1191              		.align	2
 1192              		.set	.LANCHOR44,. + 0
 1195              	lcdRegData13:
 1196 0000 00000000 		.ascii	"\000\000\000\000\000\000\000\000\000\000\000\000\000"
 1196      00000000 
 1196      00000000 
 1196      00
 1197 000d 0000CB   		.ascii	"\000\000\313"
 1198              		.section	.rodata.lcdRegData14,"a"
 1199              		.align	2
 1200              		.set	.LANCHOR45,. + 0
 1203              	lcdRegData14:
 1204 0000 00000000 		.ascii	"\000\000\000\000\000\000\000\000\000\000\313"
 1204      00000000 
 1204      0000CB
 1205              		.section	.rodata.lcdRegData15,"a"
 1206              		.align	2
ARM GAS  /var/folders/0z/tsy30v1j4xl4_7kw94k978ww0000gn/T//cc3eeBZz.s 			page 28


 1207              		.set	.LANCHOR46,. + 0
 1210              	lcdRegData15:
 1211 0000 00040404 		.ascii	"\000\004\004\004\004\004\000\000\000\000\000\000\000"
 1211      04040000 
 1211      00000000 
 1211      00
 1212 000d 0000CB   		.ascii	"\000\000\313"
 1213              		.section	.rodata.lcdRegData16,"a"
 1214              		.align	2
 1215              		.set	.LANCHOR47,. + 0
 1218              	lcdRegData16:
 1219 0000 00000000 		.ascii	"\000\000\000\000\000\000\004\004\004\004\004\000\000"
 1219      00000404 
 1219      04040400 
 1219      00
 1220 000d 0000CB   		.ascii	"\000\000\313"
 1221              		.section	.rodata.lcdRegData17,"a"
 1222              		.align	2
 1223              		.set	.LANCHOR49,. + 0
 1226              	lcdRegData17:
 1227 0000 00000000 		.ascii	"\000\000\000\000\000\000\000\000\000\000\313"
 1227      00000000 
 1227      0000CB
 1228              		.section	.rodata.lcdRegData18,"a"
 1229              		.align	2
 1230              		.set	.LANCHOR51,. + 0
 1233              	lcdRegData18:
 1234 0000 FFFFFFFF 		.ascii	"\377\377\377\377\377\377\377\377\377\377\313"
 1234      FFFFFFFF 
 1234      FFFFCB
 1235              		.section	.rodata.lcdRegData19,"a"
 1236              		.align	2
 1237              		.set	.LANCHOR52,. + 0
 1240              	lcdRegData19:
 1241 0000 0026090B 		.ascii	"\000&\011\013\001%\000\000\000\000\314"
 1241      01250000 
 1241      0000CC
 1242              		.section	.rodata.lcdRegData2,"a"
 1243              		.align	2
 1244              		.set	.LANCHOR3,. + 0
 1247              	lcdRegData2:
 1248 0000 8009FF   		.ascii	"\200\011\377"
 1249              		.section	.rodata.lcdRegData20,"a"
 1250              		.align	2
 1251              		.set	.LANCHOR53,. + 0
 1254              	lcdRegData20:
 1255 0000 00000000 		.ascii	"\000\000\000\000\000\000\000\000\000\000\000&\012\014"
 1255      00000000 
 1255      00000026 
 1255      0A0C
 1256 000e 02CC     		.ascii	"\002\314"
 1257              		.section	.rodata.lcdRegData21,"a"
 1258              		.align	2
 1259              		.set	.LANCHOR54,. + 0
 1262              	lcdRegData21:
 1263 0000 25000000 		.ascii	"%\000\000\000\000\000\000\000\000\000\000\000\000\000"
 1263      00000000 
ARM GAS  /var/folders/0z/tsy30v1j4xl4_7kw94k978ww0000gn/T//cc3eeBZz.s 			page 29


 1263      00000000 
 1263      0000
 1264 000e 00CC     		.ascii	"\000\314"
 1265              		.section	.rodata.lcdRegData22,"a"
 1266              		.align	2
 1267              		.set	.LANCHOR55,. + 0
 1270              	lcdRegData22:
 1271 0000 00250C0A 		.ascii	"\000%\014\012\002&\000\000\000\000\314"
 1271      02260000 
 1271      0000CC
 1272              		.section	.rodata.lcdRegData23,"a"
 1273              		.align	2
 1274              		.set	.LANCHOR56,. + 0
 1277              	lcdRegData23:
 1278 0000 00000000 		.ascii	"\000\000\000\000\000\000\000\000\000\000\000%\013\011"
 1278      00000000 
 1278      00000025 
 1278      0B09
 1279 000e 01CC     		.ascii	"\001\314"
 1280              		.section	.rodata.lcdRegData24,"a"
 1281              		.align	2
 1282              		.set	.LANCHOR57,. + 0
 1285              	lcdRegData24:
 1286 0000 26000000 		.ascii	"&\000\000\000\000\000\000\000\000\000\000\000\000\000"
 1286      00000000 
 1286      00000000 
 1286      0000
 1287 000e 00CC     		.ascii	"\000\314"
 1288              		.section	.rodata.lcdRegData25,"a"
 1289              		.align	2
 1290              		.set	.LANCHOR63,. + 0
 1293              	lcdRegData25:
 1294 0000 FFFFFFFF 		.ascii	"\377\377\377\377"
 1295              		.section	.rodata.lcdRegData27,"a"
 1296              		.align	2
 1297              		.set	.LANCHOR70,. + 0
 1300              	lcdRegData27:
 1301 0000 0000031F 		.ascii	"\000\000\003\037*"
 1301      2A
 1302              		.section	.rodata.lcdRegData28,"a"
 1303              		.align	2
 1304              		.set	.LANCHOR71,. + 0
 1307              	lcdRegData28:
 1308 0000 000001DF 		.ascii	"\000\000\001\337+"
 1308      2B
 1309              		.section	.rodata.lcdRegData3,"a"
 1310              		.align	2
 1311              		.set	.LANCHOR64,. + 0
 1314              	lcdRegData3:
 1315 0000 00090F0E 		.ascii	"\000\011\017\016\007\020\013\012\004\007\013\010\017"
 1315      07100B0A 
 1315      04070B08 
 1315      0F
 1316 000d 100A01E1 		.ascii	"\020\012\001\341"
 1317              		.section	.rodata.lcdRegData4,"a"
 1318              		.align	2
 1319              		.set	.LANCHOR65,. + 0
ARM GAS  /var/folders/0z/tsy30v1j4xl4_7kw94k978ww0000gn/T//cc3eeBZz.s 			page 30


 1322              	lcdRegData4:
 1323 0000 00090F0E 		.ascii	"\000\011\017\016\007\020\013\012\004\007\013\010\017"
 1323      07100B0A 
 1323      04070B08 
 1323      0F
 1324 000d 100A01E2 		.ascii	"\020\012\001\342"
 1325              		.section	.rodata.lcdRegData5,"a"
 1326              		.align	2
 1327              		.set	.LANCHOR21,. + 0
 1330              	lcdRegData5:
 1331 0000 7979D8   		.ascii	"yy\330"
 1332              		.section	.rodata.lcdRegData6,"a"
 1333              		.align	2
 1334              		.set	.LANCHOR31,. + 0
 1337              	lcdRegData6:
 1338 0000 0001B3   		.ascii	"\000\001\263"
 1339              		.section	.rodata.lcdRegData7,"a"
 1340              		.align	2
 1341              		.set	.LANCHOR32,. + 0
 1344              	lcdRegData7:
 1345 0000 85010084 		.ascii	"\205\001\000\204\001\000\316"
 1345      0100CE
 1346              		.section	.rodata.lcdRegData8,"a"
 1347              		.align	2
 1348              		.set	.LANCHOR34,. + 0
 1351              	lcdRegData8:
 1352 0000 18040339 		.ascii	"\030\004\0039\000\000\000\030\003\003:\000\000\000\316"
 1352      00000018 
 1352      03033A00 
 1352      0000CE
 1353              		.section	.rodata.lcdRegData9,"a"
 1354              		.align	2
 1355              		.set	.LANCHOR36,. + 0
 1358              	lcdRegData9:
 1359 0000 1802033B 		.ascii	"\030\002\003;\000\000\000\030\001\003<\000\000\000\316"
 1359      00000018 
 1359      01033C00 
 1359      0000CE
 1360              		.text
 1361              	.Letext0:
 1362              		.file 2 "/Users/johannes/Library/Application Support/Code/User/globalStorage/bmd.stm32-for-vscode/
 1363              		.file 3 "/Users/johannes/Library/Application Support/Code/User/globalStorage/bmd.stm32-for-vscode/
 1364              		.file 4 "Drivers/BSP/Components/otm8009a/otm8009a.h"
ARM GAS  /var/folders/0z/tsy30v1j4xl4_7kw94k978ww0000gn/T//cc3eeBZz.s 			page 31

