ARM GAS  /var/folders/0z/tsy30v1j4xl4_7kw94k978ww0000gn/T//ccKHYiv2.s 			page 1


   1              		.cpu cortex-m4
   2              		.arch armv7e-m
   3              		.fpu fpv4-sp-d16
   4              		.eabi_attribute 27, 1
   5              		.eabi_attribute 28, 1
   6              		.eabi_attribute 20, 1
   7              		.eabi_attribute 21, 1
   8              		.eabi_attribute 23, 3
   9              		.eabi_attribute 24, 1
  10              		.eabi_attribute 25, 1
  11              		.eabi_attribute 26, 1
  12              		.eabi_attribute 30, 2
  13              		.eabi_attribute 34, 1
  14              		.eabi_attribute 18, 4
  15              		.file	"SEGGER_RTT_printf.c"
  16              		.text
  17              	.Ltext0:
  18              		.cfi_sections	.debug_frame
  19              		.section	.text._PrintUnsigned,"ax",%progbits
  20              		.align	1
  21              		.p2align 2,,3
  22              		.syntax unified
  23              		.thumb
  24              		.thumb_func
  26              	_PrintUnsigned:
  27              	.LVL0:
  28              	.LFB1:
  29              		.file 1 "Core/Src/SEGGER_RTT_printf.c"
   1:Core/Src/SEGGER_RTT_printf.c **** /*********************************************************************
   2:Core/Src/SEGGER_RTT_printf.c **** *                    SEGGER Microcontroller GmbH                     *
   3:Core/Src/SEGGER_RTT_printf.c **** *                        The Embedded Experts                        *
   4:Core/Src/SEGGER_RTT_printf.c **** **********************************************************************
   5:Core/Src/SEGGER_RTT_printf.c **** *                                                                    *
   6:Core/Src/SEGGER_RTT_printf.c **** *            (c) 1995 - 2019 SEGGER Microcontroller GmbH             *
   7:Core/Src/SEGGER_RTT_printf.c **** *                                                                    *
   8:Core/Src/SEGGER_RTT_printf.c **** *       www.segger.com     Support: support@segger.com               *
   9:Core/Src/SEGGER_RTT_printf.c **** *                                                                    *
  10:Core/Src/SEGGER_RTT_printf.c **** **********************************************************************
  11:Core/Src/SEGGER_RTT_printf.c **** *                                                                    *
  12:Core/Src/SEGGER_RTT_printf.c **** *       SEGGER RTT * Real Time Transfer for embedded targets         *
  13:Core/Src/SEGGER_RTT_printf.c **** *                                                                    *
  14:Core/Src/SEGGER_RTT_printf.c **** **********************************************************************
  15:Core/Src/SEGGER_RTT_printf.c **** *                                                                    *
  16:Core/Src/SEGGER_RTT_printf.c **** * All rights reserved.                                               *
  17:Core/Src/SEGGER_RTT_printf.c **** *                                                                    *
  18:Core/Src/SEGGER_RTT_printf.c **** * SEGGER strongly recommends to not make any changes                 *
  19:Core/Src/SEGGER_RTT_printf.c **** * to or modify the source code of this software in order to stay     *
  20:Core/Src/SEGGER_RTT_printf.c **** * compatible with the RTT protocol and J-Link.                       *
  21:Core/Src/SEGGER_RTT_printf.c **** *                                                                    *
  22:Core/Src/SEGGER_RTT_printf.c **** * Redistribution and use in source and binary forms, with or         *
  23:Core/Src/SEGGER_RTT_printf.c **** * without modification, are permitted provided that the following    *
  24:Core/Src/SEGGER_RTT_printf.c **** * condition is met:                                                  *
  25:Core/Src/SEGGER_RTT_printf.c **** *                                                                    *
  26:Core/Src/SEGGER_RTT_printf.c **** * o Redistributions of source code must retain the above copyright   *
  27:Core/Src/SEGGER_RTT_printf.c **** *   notice, this condition and the following disclaimer.             *
  28:Core/Src/SEGGER_RTT_printf.c **** *                                                                    *
  29:Core/Src/SEGGER_RTT_printf.c **** * THIS SOFTWARE IS PROVIDED BY THE COPYRIGHT HOLDERS AND             *
ARM GAS  /var/folders/0z/tsy30v1j4xl4_7kw94k978ww0000gn/T//ccKHYiv2.s 			page 2


  30:Core/Src/SEGGER_RTT_printf.c **** * CONTRIBUTORS "AS IS" AND ANY EXPRESS OR IMPLIED WARRANTIES,        *
  31:Core/Src/SEGGER_RTT_printf.c **** * INCLUDING, BUT NOT LIMITED TO, THE IMPLIED WARRANTIES OF           *
  32:Core/Src/SEGGER_RTT_printf.c **** * MERCHANTABILITY AND FITNESS FOR A PARTICULAR PURPOSE ARE           *
  33:Core/Src/SEGGER_RTT_printf.c **** * DISCLAIMED. IN NO EVENT SHALL SEGGER Microcontroller BE LIABLE FOR *
  34:Core/Src/SEGGER_RTT_printf.c **** * ANY DIRECT, INDIRECT, INCIDENTAL, SPECIAL, EXEMPLARY, OR           *
  35:Core/Src/SEGGER_RTT_printf.c **** * CONSEQUENTIAL DAMAGES (INCLUDING, BUT NOT LIMITED TO, PROCUREMENT  *
  36:Core/Src/SEGGER_RTT_printf.c **** * OF SUBSTITUTE GOODS OR SERVICES; LOSS OF USE, DATA, OR PROFITS;    *
  37:Core/Src/SEGGER_RTT_printf.c **** * OR BUSINESS INTERRUPTION) HOWEVER CAUSED AND ON ANY THEORY OF      *
  38:Core/Src/SEGGER_RTT_printf.c **** * LIABILITY, WHETHER IN CONTRACT, STRICT LIABILITY, OR TORT          *
  39:Core/Src/SEGGER_RTT_printf.c **** * (INCLUDING NEGLIGENCE OR OTHERWISE) ARISING IN ANY WAY OUT OF THE  *
  40:Core/Src/SEGGER_RTT_printf.c **** * USE OF THIS SOFTWARE, EVEN IF ADVISED OF THE POSSIBILITY OF SUCH   *
  41:Core/Src/SEGGER_RTT_printf.c **** * DAMAGE.                                                            *
  42:Core/Src/SEGGER_RTT_printf.c **** *                                                                    *
  43:Core/Src/SEGGER_RTT_printf.c **** **********************************************************************
  44:Core/Src/SEGGER_RTT_printf.c **** ---------------------------END-OF-HEADER------------------------------
  45:Core/Src/SEGGER_RTT_printf.c **** File    : SEGGER_RTT_printf.c
  46:Core/Src/SEGGER_RTT_printf.c **** Purpose : Replacement for printf to write formatted data via RTT
  47:Core/Src/SEGGER_RTT_printf.c **** Revision: $Rev: 17697 $
  48:Core/Src/SEGGER_RTT_printf.c **** ----------------------------------------------------------------------
  49:Core/Src/SEGGER_RTT_printf.c **** */
  50:Core/Src/SEGGER_RTT_printf.c **** #include "SEGGER_RTT.h"
  51:Core/Src/SEGGER_RTT_printf.c **** #include "SEGGER_RTT_Conf.h"
  52:Core/Src/SEGGER_RTT_printf.c **** 
  53:Core/Src/SEGGER_RTT_printf.c **** /*********************************************************************
  54:Core/Src/SEGGER_RTT_printf.c **** *
  55:Core/Src/SEGGER_RTT_printf.c **** *       Defines, configurable
  56:Core/Src/SEGGER_RTT_printf.c **** *
  57:Core/Src/SEGGER_RTT_printf.c **** **********************************************************************
  58:Core/Src/SEGGER_RTT_printf.c **** */
  59:Core/Src/SEGGER_RTT_printf.c **** 
  60:Core/Src/SEGGER_RTT_printf.c **** #ifndef SEGGER_RTT_PRINTF_BUFFER_SIZE
  61:Core/Src/SEGGER_RTT_printf.c ****   #define SEGGER_RTT_PRINTF_BUFFER_SIZE (64)
  62:Core/Src/SEGGER_RTT_printf.c **** #endif
  63:Core/Src/SEGGER_RTT_printf.c **** 
  64:Core/Src/SEGGER_RTT_printf.c **** #include <stdlib.h>
  65:Core/Src/SEGGER_RTT_printf.c **** #include <stdarg.h>
  66:Core/Src/SEGGER_RTT_printf.c **** 
  67:Core/Src/SEGGER_RTT_printf.c **** 
  68:Core/Src/SEGGER_RTT_printf.c **** #define FORMAT_FLAG_LEFT_JUSTIFY   (1u << 0)
  69:Core/Src/SEGGER_RTT_printf.c **** #define FORMAT_FLAG_PAD_ZERO       (1u << 1)
  70:Core/Src/SEGGER_RTT_printf.c **** #define FORMAT_FLAG_PRINT_SIGN     (1u << 2)
  71:Core/Src/SEGGER_RTT_printf.c **** #define FORMAT_FLAG_ALTERNATE      (1u << 3)
  72:Core/Src/SEGGER_RTT_printf.c **** 
  73:Core/Src/SEGGER_RTT_printf.c **** /*********************************************************************
  74:Core/Src/SEGGER_RTT_printf.c **** *
  75:Core/Src/SEGGER_RTT_printf.c **** *       Types
  76:Core/Src/SEGGER_RTT_printf.c **** *
  77:Core/Src/SEGGER_RTT_printf.c **** **********************************************************************
  78:Core/Src/SEGGER_RTT_printf.c **** */
  79:Core/Src/SEGGER_RTT_printf.c **** 
  80:Core/Src/SEGGER_RTT_printf.c **** typedef struct {
  81:Core/Src/SEGGER_RTT_printf.c ****   char*     pBuffer;
  82:Core/Src/SEGGER_RTT_printf.c ****   unsigned  BufferSize;
  83:Core/Src/SEGGER_RTT_printf.c ****   unsigned  Cnt;
  84:Core/Src/SEGGER_RTT_printf.c **** 
  85:Core/Src/SEGGER_RTT_printf.c ****   int   ReturnValue;
  86:Core/Src/SEGGER_RTT_printf.c **** 
ARM GAS  /var/folders/0z/tsy30v1j4xl4_7kw94k978ww0000gn/T//ccKHYiv2.s 			page 3


  87:Core/Src/SEGGER_RTT_printf.c ****   unsigned RTTBufferIndex;
  88:Core/Src/SEGGER_RTT_printf.c **** } SEGGER_RTT_PRINTF_DESC;
  89:Core/Src/SEGGER_RTT_printf.c **** 
  90:Core/Src/SEGGER_RTT_printf.c **** /*********************************************************************
  91:Core/Src/SEGGER_RTT_printf.c **** *
  92:Core/Src/SEGGER_RTT_printf.c **** *       Function prototypes
  93:Core/Src/SEGGER_RTT_printf.c **** *
  94:Core/Src/SEGGER_RTT_printf.c **** **********************************************************************
  95:Core/Src/SEGGER_RTT_printf.c **** */
  96:Core/Src/SEGGER_RTT_printf.c **** 
  97:Core/Src/SEGGER_RTT_printf.c **** /*********************************************************************
  98:Core/Src/SEGGER_RTT_printf.c **** *
  99:Core/Src/SEGGER_RTT_printf.c **** *       Static code
 100:Core/Src/SEGGER_RTT_printf.c **** *
 101:Core/Src/SEGGER_RTT_printf.c **** **********************************************************************
 102:Core/Src/SEGGER_RTT_printf.c **** */
 103:Core/Src/SEGGER_RTT_printf.c **** /*********************************************************************
 104:Core/Src/SEGGER_RTT_printf.c **** *
 105:Core/Src/SEGGER_RTT_printf.c **** *       _StoreChar
 106:Core/Src/SEGGER_RTT_printf.c **** */
 107:Core/Src/SEGGER_RTT_printf.c **** static void _StoreChar(SEGGER_RTT_PRINTF_DESC * p, char c) {
 108:Core/Src/SEGGER_RTT_printf.c ****   unsigned Cnt;
 109:Core/Src/SEGGER_RTT_printf.c **** 
 110:Core/Src/SEGGER_RTT_printf.c ****   Cnt = p->Cnt;
 111:Core/Src/SEGGER_RTT_printf.c ****   if ((Cnt + 1u) <= p->BufferSize) {
 112:Core/Src/SEGGER_RTT_printf.c ****     *(p->pBuffer + Cnt) = c;
 113:Core/Src/SEGGER_RTT_printf.c ****     p->Cnt = Cnt + 1u;
 114:Core/Src/SEGGER_RTT_printf.c ****     p->ReturnValue++;
 115:Core/Src/SEGGER_RTT_printf.c ****   }
 116:Core/Src/SEGGER_RTT_printf.c ****   //
 117:Core/Src/SEGGER_RTT_printf.c ****   // Write part of string, when the buffer is full
 118:Core/Src/SEGGER_RTT_printf.c ****   //
 119:Core/Src/SEGGER_RTT_printf.c ****   if (p->Cnt == p->BufferSize) {
 120:Core/Src/SEGGER_RTT_printf.c ****     if (SEGGER_RTT_Write(p->RTTBufferIndex, p->pBuffer, p->Cnt) != p->Cnt) {
 121:Core/Src/SEGGER_RTT_printf.c ****       p->ReturnValue = -1;
 122:Core/Src/SEGGER_RTT_printf.c ****     } else {
 123:Core/Src/SEGGER_RTT_printf.c ****       p->Cnt = 0u;
 124:Core/Src/SEGGER_RTT_printf.c ****     }
 125:Core/Src/SEGGER_RTT_printf.c ****   }
 126:Core/Src/SEGGER_RTT_printf.c **** }
 127:Core/Src/SEGGER_RTT_printf.c **** 
 128:Core/Src/SEGGER_RTT_printf.c **** /*********************************************************************
 129:Core/Src/SEGGER_RTT_printf.c **** *
 130:Core/Src/SEGGER_RTT_printf.c **** *       _PrintUnsigned
 131:Core/Src/SEGGER_RTT_printf.c **** */
 132:Core/Src/SEGGER_RTT_printf.c **** static void _PrintUnsigned(SEGGER_RTT_PRINTF_DESC * pBufferDesc, unsigned v, unsigned Base, unsigne
  30              		.loc 1 132 156 view -0
  31              		.cfi_startproc
  32              		@ args = 8, pretend = 0, frame = 0
  33              		@ frame_needed = 0, uses_anonymous_args = 0
  34              		.loc 1 132 156 is_stmt 0 view .LVU1
  35 0000 2DE9F84F 		push	{r3, r4, r5, r6, r7, r8, r9, r10, fp, lr}
  36              		.cfi_def_cfa_offset 40
  37              		.cfi_offset 3, -40
  38              		.cfi_offset 4, -36
  39              		.cfi_offset 5, -32
  40              		.cfi_offset 6, -28
ARM GAS  /var/folders/0z/tsy30v1j4xl4_7kw94k978ww0000gn/T//ccKHYiv2.s 			page 4


  41              		.cfi_offset 7, -24
  42              		.cfi_offset 8, -20
  43              		.cfi_offset 9, -16
  44              		.cfi_offset 10, -12
  45              		.cfi_offset 11, -8
  46              		.cfi_offset 14, -4
  47              		.loc 1 132 156 view .LVU2
  48 0004 1546     		mov	r5, r2
 133:Core/Src/SEGGER_RTT_printf.c ****   static const char _aV2C[16] = {'0', '1', '2', '3', '4', '5', '6', '7', '8', '9', 'A', 'B', 'C', '
  49              		.loc 1 133 3 is_stmt 1 view .LVU3
 134:Core/Src/SEGGER_RTT_printf.c ****   unsigned Div;
  50              		.loc 1 134 3 view .LVU4
 135:Core/Src/SEGGER_RTT_printf.c ****   unsigned Digit;
  51              		.loc 1 135 3 view .LVU5
 136:Core/Src/SEGGER_RTT_printf.c ****   unsigned Number;
  52              		.loc 1 136 3 view .LVU6
 137:Core/Src/SEGGER_RTT_printf.c ****   unsigned Width;
  53              		.loc 1 137 3 view .LVU7
 138:Core/Src/SEGGER_RTT_printf.c ****   char c;
  54              		.loc 1 138 3 view .LVU8
 139:Core/Src/SEGGER_RTT_printf.c **** 
 140:Core/Src/SEGGER_RTT_printf.c ****   Number = v;
  55              		.loc 1 140 3 view .LVU9
  56              	.LVL1:
 141:Core/Src/SEGGER_RTT_printf.c ****   Digit = 1u;
  57              		.loc 1 141 3 view .LVU10
 142:Core/Src/SEGGER_RTT_printf.c ****   //
 143:Core/Src/SEGGER_RTT_printf.c ****   // Get actual field width
 144:Core/Src/SEGGER_RTT_printf.c ****   //
 145:Core/Src/SEGGER_RTT_printf.c ****   Width = 1u;
  58              		.loc 1 145 3 view .LVU11
 146:Core/Src/SEGGER_RTT_printf.c ****   while (Number >= Base) {
  59              		.loc 1 146 3 view .LVU12
  60              		.loc 1 146 17 view .LVU13
  61 0006 A942     		cmp	r1, r5
 132:Core/Src/SEGGER_RTT_printf.c ****   static const char _aV2C[16] = {'0', '1', '2', '3', '4', '5', '6', '7', '8', '9', 'A', 'B', 'C', '
  62              		.loc 1 132 156 is_stmt 0 view .LVU14
  63 0008 DDF828A0 		ldr	r10, [sp, #40]
  64 000c 0B9A     		ldr	r2, [sp, #44]
  65              	.LVL2:
 132:Core/Src/SEGGER_RTT_printf.c ****   static const char _aV2C[16] = {'0', '1', '2', '3', '4', '5', '6', '7', '8', '9', 'A', 'B', 'C', '
  66              		.loc 1 132 156 view .LVU15
  67 000e 0F46     		mov	r7, r1
  68 0010 0646     		mov	r6, r0
  69 0012 9846     		mov	r8, r3
  70              		.loc 1 146 17 view .LVU16
  71 0014 C0F0BA80 		bcc	.L30
  72 0018 0B46     		mov	r3, r1
  73              	.LVL3:
 145:Core/Src/SEGGER_RTT_printf.c ****   while (Number >= Base) {
  74              		.loc 1 145 9 view .LVU17
  75 001a 4FF00109 		mov	r9, #1
  76              	.LVL4:
  77              	.L3:
 147:Core/Src/SEGGER_RTT_printf.c ****     Number = (Number / Base);
  78              		.loc 1 147 5 is_stmt 1 view .LVU18
  79              		.loc 1 147 12 is_stmt 0 view .LVU19
ARM GAS  /var/folders/0z/tsy30v1j4xl4_7kw94k978ww0000gn/T//ccKHYiv2.s 			page 5


  80 001e B3FBF5F3 		udiv	r3, r3, r5
  81              	.LVL5:
 148:Core/Src/SEGGER_RTT_printf.c ****     Width++;
  82              		.loc 1 148 5 is_stmt 1 view .LVU20
 146:Core/Src/SEGGER_RTT_printf.c ****     Number = (Number / Base);
  83              		.loc 1 146 17 is_stmt 0 view .LVU21
  84 0022 9D42     		cmp	r5, r3
  85              		.loc 1 148 10 view .LVU22
  86 0024 09F10109 		add	r9, r9, #1
  87              	.LVL6:
 146:Core/Src/SEGGER_RTT_printf.c ****     Number = (Number / Base);
  88              		.loc 1 146 17 is_stmt 1 view .LVU23
  89 0028 F9D9     		bls	.L3
  90              	.LVL7:
  91              	.L2:
 149:Core/Src/SEGGER_RTT_printf.c ****   }
 150:Core/Src/SEGGER_RTT_printf.c ****   if (NumDigits > Width) {
  92              		.loc 1 150 3 view .LVU24
  93 002a C145     		cmp	r9, r8
  94 002c 38BF     		it	cc
  95 002e C146     		movcc	r9, r8
  96              	.LVL8:
 151:Core/Src/SEGGER_RTT_printf.c ****     Width = NumDigits;
 152:Core/Src/SEGGER_RTT_printf.c ****   }
 153:Core/Src/SEGGER_RTT_printf.c ****   //
 154:Core/Src/SEGGER_RTT_printf.c ****   // Print leading chars if necessary
 155:Core/Src/SEGGER_RTT_printf.c ****   //
 156:Core/Src/SEGGER_RTT_printf.c ****   if ((FormatFlags & FORMAT_FLAG_LEFT_JUSTIFY) == 0u) {
  97              		.loc 1 156 3 view .LVU25
  98              		.loc 1 156 6 is_stmt 0 view .LVU26
  99 0030 12F0010B 		ands	fp, r2, #1
 100 0034 02D1     		bne	.L4
 157:Core/Src/SEGGER_RTT_printf.c ****     if (FieldWidth != 0u) {
 101              		.loc 1 157 5 is_stmt 1 view .LVU27
 102              		.loc 1 157 8 is_stmt 0 view .LVU28
 103 0036 BAF1000F 		cmp	r10, #0
 104 003a 71D1     		bne	.L61
 105              	.LVL9:
 106              	.L4:
 158:Core/Src/SEGGER_RTT_printf.c ****       if (((FormatFlags & FORMAT_FLAG_PAD_ZERO) == FORMAT_FLAG_PAD_ZERO) && (NumDigits == 0u)) {
 159:Core/Src/SEGGER_RTT_printf.c ****         c = '0';
 160:Core/Src/SEGGER_RTT_printf.c ****       } else {
 161:Core/Src/SEGGER_RTT_printf.c ****         c = ' ';
 162:Core/Src/SEGGER_RTT_printf.c ****       }
 163:Core/Src/SEGGER_RTT_printf.c ****       while ((FieldWidth != 0u) && (Width < FieldWidth)) {
 164:Core/Src/SEGGER_RTT_printf.c ****         FieldWidth--;
 165:Core/Src/SEGGER_RTT_printf.c ****         _StoreChar(pBufferDesc, c);
 166:Core/Src/SEGGER_RTT_printf.c ****         if (pBufferDesc->ReturnValue < 0) {
 167:Core/Src/SEGGER_RTT_printf.c ****           break;
 168:Core/Src/SEGGER_RTT_printf.c ****         }
 169:Core/Src/SEGGER_RTT_printf.c ****       }
 170:Core/Src/SEGGER_RTT_printf.c ****     }
 171:Core/Src/SEGGER_RTT_printf.c ****   }
 172:Core/Src/SEGGER_RTT_printf.c ****   if (pBufferDesc->ReturnValue >= 0) {
 107              		.loc 1 172 3 is_stmt 1 view .LVU29
 108              		.loc 1 172 6 is_stmt 0 view .LVU30
 109 003c F068     		ldr	r0, [r6, #12]
ARM GAS  /var/folders/0z/tsy30v1j4xl4_7kw94k978ww0000gn/T//ccKHYiv2.s 			page 6


 110 003e 0028     		cmp	r0, #0
 111 0040 6CDB     		blt	.L1
 112              	.LBB8:
 113              	.LBB9:
 110:Core/Src/SEGGER_RTT_printf.c ****   if ((Cnt + 1u) <= p->BufferSize) {
 114              		.loc 1 110 7 view .LVU31
 115 0042 B168     		ldr	r1, [r6, #8]
 116              	.L12:
 117              	.LVL10:
 110:Core/Src/SEGGER_RTT_printf.c ****   if ((Cnt + 1u) <= p->BufferSize) {
 118              		.loc 1 110 7 view .LVU32
 119              	.LBE9:
 120              	.LBE8:
 173:Core/Src/SEGGER_RTT_printf.c ****     //
 174:Core/Src/SEGGER_RTT_printf.c ****     // Compute Digit.
 175:Core/Src/SEGGER_RTT_printf.c ****     // Loop until Digit has the value of the highest digit required.
 176:Core/Src/SEGGER_RTT_printf.c ****     // Example: If the output is 345 (Base 10), loop 2 times until Digit is 100.
 177:Core/Src/SEGGER_RTT_printf.c ****     //
 178:Core/Src/SEGGER_RTT_printf.c ****     while (1) {
 179:Core/Src/SEGGER_RTT_printf.c ****       if (NumDigits > 1u) {       // User specified a min number of digits to print? => Make sure w
 121              		.loc 1 179 10 view .LVU33
 122 0044 B8F1010F 		cmp	r8, #1
 161:Core/Src/SEGGER_RTT_printf.c ****       }
 123              		.loc 1 161 11 view .LVU34
 124 0048 4FF00104 		mov	r4, #1
 125              	.LVL11:
 178:Core/Src/SEGGER_RTT_printf.c ****       if (NumDigits > 1u) {       // User specified a min number of digits to print? => Make sure w
 126              		.loc 1 178 5 is_stmt 1 view .LVU35
 127              		.loc 1 179 7 view .LVU36
 180:Core/Src/SEGGER_RTT_printf.c ****         NumDigits--;
 128              		.loc 1 180 9 view .LVU37
 179:Core/Src/SEGGER_RTT_printf.c ****         NumDigits--;
 129              		.loc 1 179 10 is_stmt 0 view .LVU38
 130 004c 06D9     		bls	.L59
 131              	.LVL12:
 132              	.L62:
 133              		.loc 1 180 18 view .LVU39
 134 004e 08F1FF38 		add	r8, r8, #-1
 181:Core/Src/SEGGER_RTT_printf.c ****       } else {
 182:Core/Src/SEGGER_RTT_printf.c ****         Div = v / Digit;
 183:Core/Src/SEGGER_RTT_printf.c ****         if (Div < Base) {        // Is our divider big enough to extract the highest digit from val
 184:Core/Src/SEGGER_RTT_printf.c ****           break;
 185:Core/Src/SEGGER_RTT_printf.c ****         }
 186:Core/Src/SEGGER_RTT_printf.c ****       }
 187:Core/Src/SEGGER_RTT_printf.c ****       Digit *= Base;
 135              		.loc 1 187 7 is_stmt 1 view .LVU40
 179:Core/Src/SEGGER_RTT_printf.c ****         NumDigits--;
 136              		.loc 1 179 10 is_stmt 0 view .LVU41
 137 0052 B8F1010F 		cmp	r8, #1
 138              		.loc 1 187 13 view .LVU42
 139 0056 05FB04F4 		mul	r4, r5, r4
 140              	.LVL13:
 178:Core/Src/SEGGER_RTT_printf.c ****       if (NumDigits > 1u) {       // User specified a min number of digits to print? => Make sure w
 141              		.loc 1 178 11 is_stmt 1 view .LVU43
 178:Core/Src/SEGGER_RTT_printf.c ****       if (NumDigits > 1u) {       // User specified a min number of digits to print? => Make sure w
 142              		.loc 1 178 5 view .LVU44
 179:Core/Src/SEGGER_RTT_printf.c ****         NumDigits--;
ARM GAS  /var/folders/0z/tsy30v1j4xl4_7kw94k978ww0000gn/T//ccKHYiv2.s 			page 7


 143              		.loc 1 179 7 view .LVU45
 180:Core/Src/SEGGER_RTT_printf.c ****       } else {
 144              		.loc 1 180 9 view .LVU46
 179:Core/Src/SEGGER_RTT_printf.c ****         NumDigits--;
 145              		.loc 1 179 10 is_stmt 0 view .LVU47
 146 005a F8D8     		bhi	.L62
 147              	.LVL14:
 148              	.L59:
 178:Core/Src/SEGGER_RTT_printf.c ****       if (NumDigits > 1u) {       // User specified a min number of digits to print? => Make sure w
 149              		.loc 1 178 11 is_stmt 1 view .LVU48
 178:Core/Src/SEGGER_RTT_printf.c ****       if (NumDigits > 1u) {       // User specified a min number of digits to print? => Make sure w
 150              		.loc 1 178 5 view .LVU49
 179:Core/Src/SEGGER_RTT_printf.c ****         NumDigits--;
 151              		.loc 1 179 7 view .LVU50
 182:Core/Src/SEGGER_RTT_printf.c ****         if (Div < Base) {        // Is our divider big enough to extract the highest digit from val
 152              		.loc 1 182 9 view .LVU51
 183:Core/Src/SEGGER_RTT_printf.c ****           break;
 153              		.loc 1 183 9 view .LVU52
 182:Core/Src/SEGGER_RTT_printf.c ****         if (Div < Base) {        // Is our divider big enough to extract the highest digit from val
 154              		.loc 1 182 13 is_stmt 0 view .LVU53
 155 005c B7FBF4FE 		udiv	lr, r7, r4
 156              	.LVL15:
 183:Core/Src/SEGGER_RTT_printf.c ****           break;
 157              		.loc 1 183 12 view .LVU54
 158 0060 7545     		cmp	r5, lr
 159 0062 05D8     		bhi	.L63
 160              	.L18:
 161              	.LVL16:
 162              		.loc 1 187 7 is_stmt 1 view .LVU55
 163              		.loc 1 187 13 is_stmt 0 view .LVU56
 164 0064 05FB04F4 		mul	r4, r5, r4
 165              	.LVL17:
 178:Core/Src/SEGGER_RTT_printf.c ****       if (NumDigits > 1u) {       // User specified a min number of digits to print? => Make sure w
 166              		.loc 1 178 11 is_stmt 1 view .LVU57
 178:Core/Src/SEGGER_RTT_printf.c ****       if (NumDigits > 1u) {       // User specified a min number of digits to print? => Make sure w
 167              		.loc 1 178 5 view .LVU58
 179:Core/Src/SEGGER_RTT_printf.c ****         NumDigits--;
 168              		.loc 1 179 7 view .LVU59
 182:Core/Src/SEGGER_RTT_printf.c ****         if (Div < Base) {        // Is our divider big enough to extract the highest digit from val
 169              		.loc 1 182 9 view .LVU60
 183:Core/Src/SEGGER_RTT_printf.c ****           break;
 170              		.loc 1 183 9 view .LVU61
 182:Core/Src/SEGGER_RTT_printf.c ****         if (Div < Base) {        // Is our divider big enough to extract the highest digit from val
 171              		.loc 1 182 13 is_stmt 0 view .LVU62
 172 0068 B7FBF4FE 		udiv	lr, r7, r4
 173              	.LVL18:
 183:Core/Src/SEGGER_RTT_printf.c ****           break;
 174              		.loc 1 183 12 view .LVU63
 175 006c 7545     		cmp	r5, lr
 176 006e F9D9     		bls	.L18
 177              	.L63:
 188:Core/Src/SEGGER_RTT_printf.c ****     }
 189:Core/Src/SEGGER_RTT_printf.c ****     //
 190:Core/Src/SEGGER_RTT_printf.c ****     // Output digits
 191:Core/Src/SEGGER_RTT_printf.c ****     //
 192:Core/Src/SEGGER_RTT_printf.c ****     do {
 193:Core/Src/SEGGER_RTT_printf.c ****       Div = v / Digit;
ARM GAS  /var/folders/0z/tsy30v1j4xl4_7kw94k978ww0000gn/T//ccKHYiv2.s 			page 8


 194:Core/Src/SEGGER_RTT_printf.c ****       v -= Div * Digit;
 195:Core/Src/SEGGER_RTT_printf.c ****       _StoreChar(pBufferDesc, _aV2C[Div]);
 178              		.loc 1 195 36 view .LVU64
 179 0070 DFF82C81 		ldr	r8, .L66
 180 0074 08E0     		b	.L23
 181              	.LVL19:
 182              	.L20:
 196:Core/Src/SEGGER_RTT_printf.c ****       if (pBufferDesc->ReturnValue < 0) {
 183              		.loc 1 196 7 is_stmt 1 view .LVU65
 197:Core/Src/SEGGER_RTT_printf.c ****         break;
 198:Core/Src/SEGGER_RTT_printf.c ****       }
 199:Core/Src/SEGGER_RTT_printf.c ****       Digit /= Base;
 184              		.loc 1 199 7 view .LVU66
 196:Core/Src/SEGGER_RTT_printf.c ****       if (pBufferDesc->ReturnValue < 0) {
 185              		.loc 1 196 10 is_stmt 0 view .LVU67
 186 0076 0028     		cmp	r0, #0
 187 0078 25DB     		blt	.L22
 188              		.loc 1 199 13 view .LVU68
 189 007a B4FBF5F3 		udiv	r3, r4, r5
 190              	.LVL20:
 200:Core/Src/SEGGER_RTT_printf.c ****     } while (Digit);
 191              		.loc 1 200 14 is_stmt 1 view .LVU69
 192 007e AC42     		cmp	r4, r5
 193 0080 21D3     		bcc	.L22
 194 0082 B7FBF3FE 		udiv	lr, r7, r3
 199:Core/Src/SEGGER_RTT_printf.c ****     } while (Digit);
 195              		.loc 1 199 13 is_stmt 0 view .LVU70
 196 0086 1C46     		mov	r4, r3
 197              	.LVL21:
 198              	.L23:
 192:Core/Src/SEGGER_RTT_printf.c ****       Div = v / Digit;
 199              		.loc 1 192 5 is_stmt 1 view .LVU71
 193:Core/Src/SEGGER_RTT_printf.c ****       v -= Div * Digit;
 200              		.loc 1 193 7 view .LVU72
 194:Core/Src/SEGGER_RTT_printf.c ****       _StoreChar(pBufferDesc, _aV2C[Div]);
 201              		.loc 1 194 7 view .LVU73
 202              	.LBB14:
 203              	.LBB10:
 112:Core/Src/SEGGER_RTT_printf.c ****     p->Cnt = Cnt + 1u;
 204              		.loc 1 112 5 view .LVU74
 119:Core/Src/SEGGER_RTT_printf.c ****     if (SEGGER_RTT_Write(p->RTTBufferIndex, p->pBuffer, p->Cnt) != p->Cnt) {
 205              		.loc 1 119 3 view .LVU75
 111:Core/Src/SEGGER_RTT_printf.c ****     *(p->pBuffer + Cnt) = c;
 206              		.loc 1 111 22 is_stmt 0 view .LVU76
 207 0088 7268     		ldr	r2, [r6, #4]
 111:Core/Src/SEGGER_RTT_printf.c ****     *(p->pBuffer + Cnt) = c;
 208              		.loc 1 111 12 view .LVU77
 209 008a 4B1C     		adds	r3, r1, #1
 111:Core/Src/SEGGER_RTT_printf.c ****     *(p->pBuffer + Cnt) = c;
 210              		.loc 1 111 6 view .LVU78
 211 008c 9342     		cmp	r3, r2
 212 008e BC46     		mov	ip, r7
 213 0090 04FB1E77 		mls	r7, r4, lr, r7
 214              	.LVL22:
 111:Core/Src/SEGGER_RTT_printf.c ****     *(p->pBuffer + Cnt) = c;
 215              		.loc 1 111 6 view .LVU79
 216              	.LBE10:
ARM GAS  /var/folders/0z/tsy30v1j4xl4_7kw94k978ww0000gn/T//ccKHYiv2.s 			page 9


 217              	.LBE14:
 195:Core/Src/SEGGER_RTT_printf.c ****       if (pBufferDesc->ReturnValue < 0) {
 218              		.loc 1 195 7 is_stmt 1 view .LVU80
 219              	.LBB15:
 220              	.LBI8:
 107:Core/Src/SEGGER_RTT_printf.c ****   unsigned Cnt;
 221              		.loc 1 107 13 view .LVU81
 222              	.LBB11:
 108:Core/Src/SEGGER_RTT_printf.c **** 
 223              		.loc 1 108 3 view .LVU82
 110:Core/Src/SEGGER_RTT_printf.c ****   if ((Cnt + 1u) <= p->BufferSize) {
 224              		.loc 1 110 3 view .LVU83
 111:Core/Src/SEGGER_RTT_printf.c ****     *(p->pBuffer + Cnt) = c;
 225              		.loc 1 111 3 view .LVU84
 111:Core/Src/SEGGER_RTT_printf.c ****     *(p->pBuffer + Cnt) = c;
 226              		.loc 1 111 6 is_stmt 0 view .LVU85
 227 0094 0BD8     		bhi	.L19
 111:Core/Src/SEGGER_RTT_printf.c ****     *(p->pBuffer + Cnt) = c;
 228              		.loc 1 111 6 view .LVU86
 229              	.LBE11:
 230              	.LBE15:
 193:Core/Src/SEGGER_RTT_printf.c ****       v -= Div * Digit;
 231              		.loc 1 193 11 view .LVU87
 232 0096 BCFBF4FC 		udiv	ip, ip, r4
 233              	.LVL23:
 234              	.LBB16:
 235              	.LBB12:
 112:Core/Src/SEGGER_RTT_printf.c ****     p->Cnt = Cnt + 1u;
 236              		.loc 1 112 25 view .LVU88
 237 009a 3268     		ldr	r2, [r6]
 238 009c 18F80C00 		ldrb	r0, [r8, ip]	@ zero_extendqisi2
 239 00a0 5054     		strb	r0, [r2, r1]
 240              	.LVL24:
 113:Core/Src/SEGGER_RTT_printf.c ****     p->ReturnValue++;
 241              		.loc 1 113 5 is_stmt 1 view .LVU89
 114:Core/Src/SEGGER_RTT_printf.c ****   }
 242              		.loc 1 114 19 is_stmt 0 view .LVU90
 243 00a2 F068     		ldr	r0, [r6, #12]
 119:Core/Src/SEGGER_RTT_printf.c ****     if (SEGGER_RTT_Write(p->RTTBufferIndex, p->pBuffer, p->Cnt) != p->Cnt) {
 244              		.loc 1 119 18 view .LVU91
 245 00a4 7268     		ldr	r2, [r6, #4]
 113:Core/Src/SEGGER_RTT_printf.c ****     p->ReturnValue++;
 246              		.loc 1 113 12 view .LVU92
 247 00a6 B360     		str	r3, [r6, #8]
 114:Core/Src/SEGGER_RTT_printf.c ****   }
 248              		.loc 1 114 5 is_stmt 1 view .LVU93
 114:Core/Src/SEGGER_RTT_printf.c ****   }
 249              		.loc 1 114 19 is_stmt 0 view .LVU94
 250 00a8 0130     		adds	r0, r0, #1
 251 00aa F060     		str	r0, [r6, #12]
 119:Core/Src/SEGGER_RTT_printf.c ****     if (SEGGER_RTT_Write(p->RTTBufferIndex, p->pBuffer, p->Cnt) != p->Cnt) {
 252              		.loc 1 119 18 view .LVU95
 253 00ac 1946     		mov	r1, r3
 254              	.LVL25:
 255              	.L19:
 119:Core/Src/SEGGER_RTT_printf.c ****     if (SEGGER_RTT_Write(p->RTTBufferIndex, p->pBuffer, p->Cnt) != p->Cnt) {
 256              		.loc 1 119 6 view .LVU96
ARM GAS  /var/folders/0z/tsy30v1j4xl4_7kw94k978ww0000gn/T//ccKHYiv2.s 			page 10


 257 00ae 8A42     		cmp	r2, r1
 258 00b0 E1D1     		bne	.L20
 120:Core/Src/SEGGER_RTT_printf.c ****       p->ReturnValue = -1;
 259              		.loc 1 120 5 is_stmt 1 view .LVU97
 120:Core/Src/SEGGER_RTT_printf.c ****       p->ReturnValue = -1;
 260              		.loc 1 120 9 is_stmt 0 view .LVU98
 261 00b2 3168     		ldr	r1, [r6]
 262 00b4 3069     		ldr	r0, [r6, #16]
 263 00b6 FFF7FEFF 		bl	SEGGER_RTT_Write
 264              	.LVL26:
 120:Core/Src/SEGGER_RTT_printf.c ****       p->ReturnValue = -1;
 265              		.loc 1 120 8 view .LVU99
 266 00ba B368     		ldr	r3, [r6, #8]
 267 00bc 9842     		cmp	r0, r3
 268 00be 5AD0     		beq	.L21
 121:Core/Src/SEGGER_RTT_printf.c ****     } else {
 269              		.loc 1 121 7 is_stmt 1 view .LVU100
 121:Core/Src/SEGGER_RTT_printf.c ****     } else {
 270              		.loc 1 121 22 is_stmt 0 view .LVU101
 271 00c0 4FF0FF33 		mov	r3, #-1
 272 00c4 F360     		str	r3, [r6, #12]
 273              	.LVL27:
 121:Core/Src/SEGGER_RTT_printf.c ****     } else {
 274              		.loc 1 121 22 view .LVU102
 275              	.LBE12:
 276              	.LBE16:
 196:Core/Src/SEGGER_RTT_printf.c ****         break;
 277              		.loc 1 196 7 is_stmt 1 view .LVU103
 278              	.L22:
 201:Core/Src/SEGGER_RTT_printf.c ****     //
 202:Core/Src/SEGGER_RTT_printf.c ****     // Print trailing spaces if necessary
 203:Core/Src/SEGGER_RTT_printf.c ****     //
 204:Core/Src/SEGGER_RTT_printf.c ****     if ((FormatFlags & FORMAT_FLAG_LEFT_JUSTIFY) == FORMAT_FLAG_LEFT_JUSTIFY) {
 279              		.loc 1 204 5 view .LVU104
 280              		.loc 1 204 8 is_stmt 0 view .LVU105
 281 00c6 BBF1000F 		cmp	fp, #0
 282 00ca 27D0     		beq	.L1
 205:Core/Src/SEGGER_RTT_printf.c ****       if (FieldWidth != 0u) {
 283              		.loc 1 205 7 is_stmt 1 view .LVU106
 284              		.loc 1 205 10 is_stmt 0 view .LVU107
 285 00cc BAF1000F 		cmp	r10, #0
 286 00d0 24D0     		beq	.L1
 287              	.LBB17:
 288              	.LBB18:
 112:Core/Src/SEGGER_RTT_printf.c ****     p->Cnt = Cnt + 1u;
 289              		.loc 1 112 25 view .LVU108
 290 00d2 2025     		movs	r5, #32
 291              	.LVL28:
 123:Core/Src/SEGGER_RTT_printf.c ****     }
 292              		.loc 1 123 14 view .LVU109
 293 00d4 0024     		movs	r4, #0
 294 00d6 5746     		mov	r7, r10
 295              	.LVL29:
 123:Core/Src/SEGGER_RTT_printf.c ****     }
 296              		.loc 1 123 14 view .LVU110
 297 00d8 03E0     		b	.L24
 298              	.LVL30:
ARM GAS  /var/folders/0z/tsy30v1j4xl4_7kw94k978ww0000gn/T//ccKHYiv2.s 			page 11


 299              	.L26:
 123:Core/Src/SEGGER_RTT_printf.c ****     }
 300              		.loc 1 123 14 view .LVU111
 301              	.LBE18:
 302              	.LBE17:
 206:Core/Src/SEGGER_RTT_printf.c ****         while ((FieldWidth != 0u) && (Width < FieldWidth)) {
 207:Core/Src/SEGGER_RTT_printf.c ****           FieldWidth--;
 208:Core/Src/SEGGER_RTT_printf.c ****           _StoreChar(pBufferDesc, ' ');
 209:Core/Src/SEGGER_RTT_printf.c ****           if (pBufferDesc->ReturnValue < 0) {
 303              		.loc 1 209 11 is_stmt 1 view .LVU112
 206:Core/Src/SEGGER_RTT_printf.c ****         while ((FieldWidth != 0u) && (Width < FieldWidth)) {
 304              		.loc 1 206 35 view .LVU113
 305              		.loc 1 209 14 is_stmt 0 view .LVU114
 306 00da F368     		ldr	r3, [r6, #12]
 307 00dc 002B     		cmp	r3, #0
 308 00de 1DDB     		blt	.L1
 206:Core/Src/SEGGER_RTT_printf.c ****         while ((FieldWidth != 0u) && (Width < FieldWidth)) {
 309              		.loc 1 206 35 view .LVU115
 310 00e0 E7B1     		cbz	r7, .L1
 311              	.LVL31:
 312              	.L24:
 207:Core/Src/SEGGER_RTT_printf.c ****           _StoreChar(pBufferDesc, ' ');
 313              		.loc 1 207 11 is_stmt 1 discriminator 1 view .LVU116
 314              	.LBB23:
 315              	.LBB19:
 112:Core/Src/SEGGER_RTT_printf.c ****     p->Cnt = Cnt + 1u;
 316              		.loc 1 112 5 discriminator 1 view .LVU117
 119:Core/Src/SEGGER_RTT_printf.c ****     if (SEGGER_RTT_Write(p->RTTBufferIndex, p->pBuffer, p->Cnt) != p->Cnt) {
 317              		.loc 1 119 3 discriminator 1 view .LVU118
 119:Core/Src/SEGGER_RTT_printf.c ****     if (SEGGER_RTT_Write(p->RTTBufferIndex, p->pBuffer, p->Cnt) != p->Cnt) {
 318              		.loc 1 119 3 is_stmt 0 discriminator 1 view .LVU119
 319              	.LBE19:
 320              	.LBE23:
 206:Core/Src/SEGGER_RTT_printf.c ****           FieldWidth--;
 321              		.loc 1 206 35 discriminator 1 view .LVU120
 322 00e2 B945     		cmp	r9, r7
 207:Core/Src/SEGGER_RTT_printf.c ****           _StoreChar(pBufferDesc, ' ');
 323              		.loc 1 207 21 discriminator 1 view .LVU121
 324 00e4 07F1FF37 		add	r7, r7, #-1
 325              	.LVL32:
 208:Core/Src/SEGGER_RTT_printf.c ****           if (pBufferDesc->ReturnValue < 0) {
 326              		.loc 1 208 11 is_stmt 1 discriminator 1 view .LVU122
 327              	.LBB24:
 328              	.LBI17:
 107:Core/Src/SEGGER_RTT_printf.c ****   unsigned Cnt;
 329              		.loc 1 107 13 discriminator 1 view .LVU123
 330              	.LBB20:
 108:Core/Src/SEGGER_RTT_printf.c **** 
 331              		.loc 1 108 3 discriminator 1 view .LVU124
 110:Core/Src/SEGGER_RTT_printf.c ****   if ((Cnt + 1u) <= p->BufferSize) {
 332              		.loc 1 110 3 discriminator 1 view .LVU125
 333              	.LBE20:
 334              	.LBE24:
 206:Core/Src/SEGGER_RTT_printf.c ****           FieldWidth--;
 335              		.loc 1 206 35 is_stmt 0 discriminator 1 view .LVU126
 336 00e8 18D2     		bcs	.L1
 337              	.LBB25:
ARM GAS  /var/folders/0z/tsy30v1j4xl4_7kw94k978ww0000gn/T//ccKHYiv2.s 			page 12


 338              	.LBB21:
 111:Core/Src/SEGGER_RTT_printf.c ****     *(p->pBuffer + Cnt) = c;
 339              		.loc 1 111 22 view .LVU127
 340 00ea D6E90123 		ldrd	r2, r3, [r6, #4]
 111:Core/Src/SEGGER_RTT_printf.c ****     *(p->pBuffer + Cnt) = c;
 341              		.loc 1 111 12 view .LVU128
 342 00ee 591C     		adds	r1, r3, #1
 111:Core/Src/SEGGER_RTT_printf.c ****     *(p->pBuffer + Cnt) = c;
 343              		.loc 1 111 6 view .LVU129
 344 00f0 9142     		cmp	r1, r2
 345 00f2 07D8     		bhi	.L25
 112:Core/Src/SEGGER_RTT_printf.c ****     p->Cnt = Cnt + 1u;
 346              		.loc 1 112 25 view .LVU130
 347 00f4 3268     		ldr	r2, [r6]
 348 00f6 D554     		strb	r5, [r2, r3]
 113:Core/Src/SEGGER_RTT_printf.c ****     p->ReturnValue++;
 349              		.loc 1 113 5 is_stmt 1 view .LVU131
 114:Core/Src/SEGGER_RTT_printf.c ****   }
 350              		.loc 1 114 19 is_stmt 0 view .LVU132
 351 00f8 F268     		ldr	r2, [r6, #12]
 113:Core/Src/SEGGER_RTT_printf.c ****     p->ReturnValue++;
 352              		.loc 1 113 12 view .LVU133
 353 00fa B160     		str	r1, [r6, #8]
 114:Core/Src/SEGGER_RTT_printf.c ****   }
 354              		.loc 1 114 5 is_stmt 1 view .LVU134
 114:Core/Src/SEGGER_RTT_printf.c ****   }
 355              		.loc 1 114 19 is_stmt 0 view .LVU135
 356 00fc 0132     		adds	r2, r2, #1
 357 00fe F260     		str	r2, [r6, #12]
 119:Core/Src/SEGGER_RTT_printf.c ****     if (SEGGER_RTT_Write(p->RTTBufferIndex, p->pBuffer, p->Cnt) != p->Cnt) {
 358              		.loc 1 119 18 view .LVU136
 359 0100 7268     		ldr	r2, [r6, #4]
 360 0102 0B46     		mov	r3, r1
 361              	.L25:
 119:Core/Src/SEGGER_RTT_printf.c ****     if (SEGGER_RTT_Write(p->RTTBufferIndex, p->pBuffer, p->Cnt) != p->Cnt) {
 362              		.loc 1 119 6 view .LVU137
 363 0104 9A42     		cmp	r2, r3
 364 0106 E8D1     		bne	.L26
 120:Core/Src/SEGGER_RTT_printf.c ****       p->ReturnValue = -1;
 365              		.loc 1 120 5 is_stmt 1 view .LVU138
 120:Core/Src/SEGGER_RTT_printf.c ****       p->ReturnValue = -1;
 366              		.loc 1 120 9 is_stmt 0 view .LVU139
 367 0108 3168     		ldr	r1, [r6]
 368 010a 3069     		ldr	r0, [r6, #16]
 369 010c FFF7FEFF 		bl	SEGGER_RTT_Write
 370              	.LVL33:
 120:Core/Src/SEGGER_RTT_printf.c ****       p->ReturnValue = -1;
 371              		.loc 1 120 8 view .LVU140
 372 0110 B368     		ldr	r3, [r6, #8]
 373 0112 9842     		cmp	r0, r3
 374 0114 3DD0     		beq	.L27
 375              	.LVL34:
 376              	.L57:
 121:Core/Src/SEGGER_RTT_printf.c ****     } else {
 377              		.loc 1 121 7 is_stmt 1 view .LVU141
 121:Core/Src/SEGGER_RTT_printf.c ****     } else {
 378              		.loc 1 121 22 is_stmt 0 view .LVU142
ARM GAS  /var/folders/0z/tsy30v1j4xl4_7kw94k978ww0000gn/T//ccKHYiv2.s 			page 13


 379 0116 4FF0FF33 		mov	r3, #-1
 380 011a F360     		str	r3, [r6, #12]
 381              	.LBE21:
 382              	.LBE25:
 383              		.loc 1 209 11 is_stmt 1 view .LVU143
 384              	.L1:
 210:Core/Src/SEGGER_RTT_printf.c ****             break;
 211:Core/Src/SEGGER_RTT_printf.c ****           }
 212:Core/Src/SEGGER_RTT_printf.c ****         }
 213:Core/Src/SEGGER_RTT_printf.c ****       }
 214:Core/Src/SEGGER_RTT_printf.c ****     }
 215:Core/Src/SEGGER_RTT_printf.c ****   }
 216:Core/Src/SEGGER_RTT_printf.c **** }
 385              		.loc 1 216 1 is_stmt 0 view .LVU144
 386 011c BDE8F88F 		pop	{r3, r4, r5, r6, r7, r8, r9, r10, fp, pc}
 387              	.LVL35:
 388              	.L61:
 158:Core/Src/SEGGER_RTT_printf.c ****         c = '0';
 389              		.loc 1 158 7 is_stmt 1 view .LVU145
 158:Core/Src/SEGGER_RTT_printf.c ****         c = '0';
 390              		.loc 1 158 10 is_stmt 0 view .LVU146
 391 0120 9307     		lsls	r3, r2, #30
 392 0122 2DD4     		bmi	.L64
 161:Core/Src/SEGGER_RTT_printf.c ****       }
 393              		.loc 1 161 11 view .LVU147
 394 0124 2024     		movs	r4, #32
 395              	.L5:
 396              	.LVL36:
 163:Core/Src/SEGGER_RTT_printf.c ****         FieldWidth--;
 397              		.loc 1 163 33 is_stmt 1 view .LVU148
 398 0126 CDF828A0 		str	r10, [sp, #40]
 399 012a A246     		mov	r10, r4
 400              	.LVL37:
 163:Core/Src/SEGGER_RTT_printf.c ****         FieldWidth--;
 401              		.loc 1 163 33 is_stmt 0 view .LVU149
 402 012c 0A9C     		ldr	r4, [sp, #40]
 403              	.LVL38:
 163:Core/Src/SEGGER_RTT_printf.c ****         FieldWidth--;
 404              		.loc 1 163 33 view .LVU150
 405 012e 03E0     		b	.L11
 406              	.LVL39:
 407              	.L7:
 166:Core/Src/SEGGER_RTT_printf.c ****           break;
 408              		.loc 1 166 9 is_stmt 1 view .LVU151
 163:Core/Src/SEGGER_RTT_printf.c ****         FieldWidth--;
 409              		.loc 1 163 33 view .LVU152
 166:Core/Src/SEGGER_RTT_printf.c ****           break;
 410              		.loc 1 166 12 is_stmt 0 view .LVU153
 411 0130 F068     		ldr	r0, [r6, #12]
 412 0132 0028     		cmp	r0, #0
 413 0134 F2DB     		blt	.L1
 163:Core/Src/SEGGER_RTT_printf.c ****         FieldWidth--;
 414              		.loc 1 163 33 view .LVU154
 415 0136 74B3     		cbz	r4, .L52
 416              	.L11:
 164:Core/Src/SEGGER_RTT_printf.c ****         _StoreChar(pBufferDesc, c);
 417              		.loc 1 164 9 is_stmt 1 discriminator 1 view .LVU155
ARM GAS  /var/folders/0z/tsy30v1j4xl4_7kw94k978ww0000gn/T//ccKHYiv2.s 			page 14


 418              	.LBB26:
 419              	.LBB27:
 112:Core/Src/SEGGER_RTT_printf.c ****     p->Cnt = Cnt + 1u;
 420              		.loc 1 112 5 discriminator 1 view .LVU156
 119:Core/Src/SEGGER_RTT_printf.c ****     if (SEGGER_RTT_Write(p->RTTBufferIndex, p->pBuffer, p->Cnt) != p->Cnt) {
 421              		.loc 1 119 3 discriminator 1 view .LVU157
 119:Core/Src/SEGGER_RTT_printf.c ****     if (SEGGER_RTT_Write(p->RTTBufferIndex, p->pBuffer, p->Cnt) != p->Cnt) {
 422              		.loc 1 119 3 is_stmt 0 discriminator 1 view .LVU158
 423              	.LBE27:
 424              	.LBE26:
 163:Core/Src/SEGGER_RTT_printf.c ****         FieldWidth--;
 425              		.loc 1 163 33 discriminator 1 view .LVU159
 426 0138 A145     		cmp	r9, r4
 427 013a 2ED2     		bcs	.L65
 428              	.LBB30:
 429              	.LBB28:
 111:Core/Src/SEGGER_RTT_printf.c ****     *(p->pBuffer + Cnt) = c;
 430              		.loc 1 111 22 view .LVU160
 431 013c D6E90121 		ldrd	r2, r1, [r6, #4]
 111:Core/Src/SEGGER_RTT_printf.c ****     *(p->pBuffer + Cnt) = c;
 432              		.loc 1 111 12 view .LVU161
 433 0140 4B1C     		adds	r3, r1, #1
 111:Core/Src/SEGGER_RTT_printf.c ****     *(p->pBuffer + Cnt) = c;
 434              		.loc 1 111 6 view .LVU162
 435 0142 9342     		cmp	r3, r2
 436              	.LBE28:
 437              	.LBE30:
 164:Core/Src/SEGGER_RTT_printf.c ****         _StoreChar(pBufferDesc, c);
 438              		.loc 1 164 19 view .LVU163
 439 0144 04F1FF34 		add	r4, r4, #-1
 440              	.LVL40:
 165:Core/Src/SEGGER_RTT_printf.c ****         if (pBufferDesc->ReturnValue < 0) {
 441              		.loc 1 165 9 is_stmt 1 view .LVU164
 442              	.LBB31:
 443              	.LBI26:
 107:Core/Src/SEGGER_RTT_printf.c ****   unsigned Cnt;
 444              		.loc 1 107 13 view .LVU165
 445              	.LBB29:
 108:Core/Src/SEGGER_RTT_printf.c **** 
 446              		.loc 1 108 3 view .LVU166
 110:Core/Src/SEGGER_RTT_printf.c ****   if ((Cnt + 1u) <= p->BufferSize) {
 447              		.loc 1 110 3 view .LVU167
 111:Core/Src/SEGGER_RTT_printf.c ****     *(p->pBuffer + Cnt) = c;
 448              		.loc 1 111 3 view .LVU168
 111:Core/Src/SEGGER_RTT_printf.c ****     *(p->pBuffer + Cnt) = c;
 449              		.loc 1 111 6 is_stmt 0 view .LVU169
 450 0148 08D8     		bhi	.L6
 112:Core/Src/SEGGER_RTT_printf.c ****     p->Cnt = Cnt + 1u;
 451              		.loc 1 112 25 view .LVU170
 452 014a 3268     		ldr	r2, [r6]
 453 014c 02F801A0 		strb	r10, [r2, r1]
 113:Core/Src/SEGGER_RTT_printf.c ****     p->ReturnValue++;
 454              		.loc 1 113 5 is_stmt 1 view .LVU171
 113:Core/Src/SEGGER_RTT_printf.c ****     p->ReturnValue++;
 455              		.loc 1 113 12 is_stmt 0 view .LVU172
 456 0150 B360     		str	r3, [r6, #8]
 114:Core/Src/SEGGER_RTT_printf.c ****   }
ARM GAS  /var/folders/0z/tsy30v1j4xl4_7kw94k978ww0000gn/T//ccKHYiv2.s 			page 15


 457              		.loc 1 114 5 is_stmt 1 view .LVU173
 119:Core/Src/SEGGER_RTT_printf.c ****     if (SEGGER_RTT_Write(p->RTTBufferIndex, p->pBuffer, p->Cnt) != p->Cnt) {
 458              		.loc 1 119 18 is_stmt 0 view .LVU174
 459 0152 1946     		mov	r1, r3
 460              	.LVL41:
 114:Core/Src/SEGGER_RTT_printf.c ****   }
 461              		.loc 1 114 19 view .LVU175
 462 0154 F368     		ldr	r3, [r6, #12]
 119:Core/Src/SEGGER_RTT_printf.c ****     if (SEGGER_RTT_Write(p->RTTBufferIndex, p->pBuffer, p->Cnt) != p->Cnt) {
 463              		.loc 1 119 18 view .LVU176
 464 0156 7268     		ldr	r2, [r6, #4]
 114:Core/Src/SEGGER_RTT_printf.c ****   }
 465              		.loc 1 114 19 view .LVU177
 466 0158 0133     		adds	r3, r3, #1
 467 015a F360     		str	r3, [r6, #12]
 468              	.LVL42:
 469              	.L6:
 119:Core/Src/SEGGER_RTT_printf.c ****     if (SEGGER_RTT_Write(p->RTTBufferIndex, p->pBuffer, p->Cnt) != p->Cnt) {
 470              		.loc 1 119 6 view .LVU178
 471 015c 8A42     		cmp	r2, r1
 472 015e E7D1     		bne	.L7
 120:Core/Src/SEGGER_RTT_printf.c ****       p->ReturnValue = -1;
 473              		.loc 1 120 5 is_stmt 1 view .LVU179
 120:Core/Src/SEGGER_RTT_printf.c ****       p->ReturnValue = -1;
 474              		.loc 1 120 9 is_stmt 0 view .LVU180
 475 0160 3168     		ldr	r1, [r6]
 476 0162 3069     		ldr	r0, [r6, #16]
 477 0164 FFF7FEFF 		bl	SEGGER_RTT_Write
 478              	.LVL43:
 120:Core/Src/SEGGER_RTT_printf.c ****       p->ReturnValue = -1;
 479              		.loc 1 120 8 view .LVU181
 480 0168 B368     		ldr	r3, [r6, #8]
 481 016a 9842     		cmp	r0, r3
 482 016c D3D1     		bne	.L57
 123:Core/Src/SEGGER_RTT_printf.c ****     }
 483              		.loc 1 123 7 is_stmt 1 view .LVU182
 123:Core/Src/SEGGER_RTT_printf.c ****     }
 484              		.loc 1 123 14 is_stmt 0 view .LVU183
 485 016e 0023     		movs	r3, #0
 486 0170 B360     		str	r3, [r6, #8]
 487 0172 1946     		mov	r1, r3
 488 0174 DCE7     		b	.L7
 489              	.LVL44:
 490              	.L21:
 123:Core/Src/SEGGER_RTT_printf.c ****     }
 491              		.loc 1 123 14 view .LVU184
 492              	.LBE29:
 493              	.LBE31:
 494              	.LBB32:
 495              	.LBB13:
 123:Core/Src/SEGGER_RTT_printf.c ****     }
 496              		.loc 1 123 7 is_stmt 1 view .LVU185
 123:Core/Src/SEGGER_RTT_printf.c ****     }
 497              		.loc 1 123 14 is_stmt 0 view .LVU186
 498 0176 0023     		movs	r3, #0
 499 0178 F068     		ldr	r0, [r6, #12]
 500 017a B360     		str	r3, [r6, #8]
ARM GAS  /var/folders/0z/tsy30v1j4xl4_7kw94k978ww0000gn/T//ccKHYiv2.s 			page 16


 501 017c 1946     		mov	r1, r3
 502 017e 7AE7     		b	.L20
 503              	.LVL45:
 504              	.L64:
 123:Core/Src/SEGGER_RTT_printf.c ****     }
 505              		.loc 1 123 14 view .LVU187
 506              	.LBE13:
 507              	.LBE32:
 161:Core/Src/SEGGER_RTT_printf.c ****       }
 508              		.loc 1 161 11 discriminator 1 view .LVU188
 509 0180 B8F1000F 		cmp	r8, #0
 510 0184 0CBF     		ite	eq
 511 0186 3024     		moveq	r4, #48
 512 0188 2024     		movne	r4, #32
 513 018a CCE7     		b	.L5
 514              	.LVL46:
 515              	.L30:
 145:Core/Src/SEGGER_RTT_printf.c ****   while (Number >= Base) {
 516              		.loc 1 145 9 view .LVU189
 517 018c 4FF00109 		mov	r9, #1
 518 0190 4BE7     		b	.L2
 519              	.LVL47:
 520              	.L27:
 521              	.LBB33:
 522              	.LBB22:
 123:Core/Src/SEGGER_RTT_printf.c ****     }
 523              		.loc 1 123 7 is_stmt 1 view .LVU190
 123:Core/Src/SEGGER_RTT_printf.c ****     }
 524              		.loc 1 123 14 is_stmt 0 view .LVU191
 525 0192 B460     		str	r4, [r6, #8]
 526 0194 A1E7     		b	.L26
 527              	.LVL48:
 528              	.L52:
 123:Core/Src/SEGGER_RTT_printf.c ****     }
 529              		.loc 1 123 14 view .LVU192
 530 0196 A246     		mov	r10, r4
 531 0198 54E7     		b	.L12
 532              	.L65:
 123:Core/Src/SEGGER_RTT_printf.c ****     }
 533              		.loc 1 123 14 view .LVU193
 534 019a A246     		mov	r10, r4
 535 019c 4EE7     		b	.L4
 536              	.L67:
 537 019e 00BF     		.align	2
 538              	.L66:
 539 01a0 00000000 		.word	.LANCHOR0
 540              	.LBE22:
 541              	.LBE33:
 542              		.cfi_endproc
 543              	.LFE1:
 545              		.section	.text.SEGGER_RTT_vprintf,"ax",%progbits
 546              		.align	1
 547              		.p2align 2,,3
 548              		.global	SEGGER_RTT_vprintf
 549              		.syntax unified
 550              		.thumb
 551              		.thumb_func
ARM GAS  /var/folders/0z/tsy30v1j4xl4_7kw94k978ww0000gn/T//ccKHYiv2.s 			page 17


 553              	SEGGER_RTT_vprintf:
 554              	.LVL49:
 555              	.LFB3:
 217:Core/Src/SEGGER_RTT_printf.c **** 
 218:Core/Src/SEGGER_RTT_printf.c **** /*********************************************************************
 219:Core/Src/SEGGER_RTT_printf.c **** *
 220:Core/Src/SEGGER_RTT_printf.c **** *       _PrintInt
 221:Core/Src/SEGGER_RTT_printf.c **** */
 222:Core/Src/SEGGER_RTT_printf.c **** static void _PrintInt(SEGGER_RTT_PRINTF_DESC * pBufferDesc, int v, unsigned Base, unsigned NumDigit
 223:Core/Src/SEGGER_RTT_printf.c ****   unsigned Width;
 224:Core/Src/SEGGER_RTT_printf.c ****   int Number;
 225:Core/Src/SEGGER_RTT_printf.c **** 
 226:Core/Src/SEGGER_RTT_printf.c ****   Number = (v < 0) ? -v : v;
 227:Core/Src/SEGGER_RTT_printf.c **** 
 228:Core/Src/SEGGER_RTT_printf.c ****   //
 229:Core/Src/SEGGER_RTT_printf.c ****   // Get actual field width
 230:Core/Src/SEGGER_RTT_printf.c ****   //
 231:Core/Src/SEGGER_RTT_printf.c ****   Width = 1u;
 232:Core/Src/SEGGER_RTT_printf.c ****   while (Number >= (int)Base) {
 233:Core/Src/SEGGER_RTT_printf.c ****     Number = (Number / (int)Base);
 234:Core/Src/SEGGER_RTT_printf.c ****     Width++;
 235:Core/Src/SEGGER_RTT_printf.c ****   }
 236:Core/Src/SEGGER_RTT_printf.c ****   if (NumDigits > Width) {
 237:Core/Src/SEGGER_RTT_printf.c ****     Width = NumDigits;
 238:Core/Src/SEGGER_RTT_printf.c ****   }
 239:Core/Src/SEGGER_RTT_printf.c ****   if ((FieldWidth > 0u) && ((v < 0) || ((FormatFlags & FORMAT_FLAG_PRINT_SIGN) == FORMAT_FLAG_PRINT
 240:Core/Src/SEGGER_RTT_printf.c ****     FieldWidth--;
 241:Core/Src/SEGGER_RTT_printf.c ****   }
 242:Core/Src/SEGGER_RTT_printf.c **** 
 243:Core/Src/SEGGER_RTT_printf.c ****   //
 244:Core/Src/SEGGER_RTT_printf.c ****   // Print leading spaces if necessary
 245:Core/Src/SEGGER_RTT_printf.c ****   //
 246:Core/Src/SEGGER_RTT_printf.c ****   if ((((FormatFlags & FORMAT_FLAG_PAD_ZERO) == 0u) || (NumDigits != 0u)) && ((FormatFlags & FORMAT
 247:Core/Src/SEGGER_RTT_printf.c ****     if (FieldWidth != 0u) {
 248:Core/Src/SEGGER_RTT_printf.c ****       while ((FieldWidth != 0u) && (Width < FieldWidth)) {
 249:Core/Src/SEGGER_RTT_printf.c ****         FieldWidth--;
 250:Core/Src/SEGGER_RTT_printf.c ****         _StoreChar(pBufferDesc, ' ');
 251:Core/Src/SEGGER_RTT_printf.c ****         if (pBufferDesc->ReturnValue < 0) {
 252:Core/Src/SEGGER_RTT_printf.c ****           break;
 253:Core/Src/SEGGER_RTT_printf.c ****         }
 254:Core/Src/SEGGER_RTT_printf.c ****       }
 255:Core/Src/SEGGER_RTT_printf.c ****     }
 256:Core/Src/SEGGER_RTT_printf.c ****   }
 257:Core/Src/SEGGER_RTT_printf.c ****   //
 258:Core/Src/SEGGER_RTT_printf.c ****   // Print sign if necessary
 259:Core/Src/SEGGER_RTT_printf.c ****   //
 260:Core/Src/SEGGER_RTT_printf.c ****   if (pBufferDesc->ReturnValue >= 0) {
 261:Core/Src/SEGGER_RTT_printf.c ****     if (v < 0) {
 262:Core/Src/SEGGER_RTT_printf.c ****       v = -v;
 263:Core/Src/SEGGER_RTT_printf.c ****       _StoreChar(pBufferDesc, '-');
 264:Core/Src/SEGGER_RTT_printf.c ****     } else if ((FormatFlags & FORMAT_FLAG_PRINT_SIGN) == FORMAT_FLAG_PRINT_SIGN) {
 265:Core/Src/SEGGER_RTT_printf.c ****       _StoreChar(pBufferDesc, '+');
 266:Core/Src/SEGGER_RTT_printf.c ****     } else {
 267:Core/Src/SEGGER_RTT_printf.c **** 
 268:Core/Src/SEGGER_RTT_printf.c ****     }
 269:Core/Src/SEGGER_RTT_printf.c ****     if (pBufferDesc->ReturnValue >= 0) {
 270:Core/Src/SEGGER_RTT_printf.c ****       //
ARM GAS  /var/folders/0z/tsy30v1j4xl4_7kw94k978ww0000gn/T//ccKHYiv2.s 			page 18


 271:Core/Src/SEGGER_RTT_printf.c ****       // Print leading zeros if necessary
 272:Core/Src/SEGGER_RTT_printf.c ****       //
 273:Core/Src/SEGGER_RTT_printf.c ****       if (((FormatFlags & FORMAT_FLAG_PAD_ZERO) == FORMAT_FLAG_PAD_ZERO) && ((FormatFlags & FORMAT_
 274:Core/Src/SEGGER_RTT_printf.c ****         if (FieldWidth != 0u) {
 275:Core/Src/SEGGER_RTT_printf.c ****           while ((FieldWidth != 0u) && (Width < FieldWidth)) {
 276:Core/Src/SEGGER_RTT_printf.c ****             FieldWidth--;
 277:Core/Src/SEGGER_RTT_printf.c ****             _StoreChar(pBufferDesc, '0');
 278:Core/Src/SEGGER_RTT_printf.c ****             if (pBufferDesc->ReturnValue < 0) {
 279:Core/Src/SEGGER_RTT_printf.c ****               break;
 280:Core/Src/SEGGER_RTT_printf.c ****             }
 281:Core/Src/SEGGER_RTT_printf.c ****           }
 282:Core/Src/SEGGER_RTT_printf.c ****         }
 283:Core/Src/SEGGER_RTT_printf.c ****       }
 284:Core/Src/SEGGER_RTT_printf.c ****       if (pBufferDesc->ReturnValue >= 0) {
 285:Core/Src/SEGGER_RTT_printf.c ****         //
 286:Core/Src/SEGGER_RTT_printf.c ****         // Print number without sign
 287:Core/Src/SEGGER_RTT_printf.c ****         //
 288:Core/Src/SEGGER_RTT_printf.c ****         _PrintUnsigned(pBufferDesc, (unsigned)v, Base, NumDigits, FieldWidth, FormatFlags);
 289:Core/Src/SEGGER_RTT_printf.c ****       }
 290:Core/Src/SEGGER_RTT_printf.c ****     }
 291:Core/Src/SEGGER_RTT_printf.c ****   }
 292:Core/Src/SEGGER_RTT_printf.c **** }
 293:Core/Src/SEGGER_RTT_printf.c **** 
 294:Core/Src/SEGGER_RTT_printf.c **** /*********************************************************************
 295:Core/Src/SEGGER_RTT_printf.c **** *
 296:Core/Src/SEGGER_RTT_printf.c **** *       Public code
 297:Core/Src/SEGGER_RTT_printf.c **** *
 298:Core/Src/SEGGER_RTT_printf.c **** **********************************************************************
 299:Core/Src/SEGGER_RTT_printf.c **** */
 300:Core/Src/SEGGER_RTT_printf.c **** /*********************************************************************
 301:Core/Src/SEGGER_RTT_printf.c **** *
 302:Core/Src/SEGGER_RTT_printf.c **** *       SEGGER_RTT_vprintf
 303:Core/Src/SEGGER_RTT_printf.c **** *
 304:Core/Src/SEGGER_RTT_printf.c **** *  Function description
 305:Core/Src/SEGGER_RTT_printf.c **** *    Stores a formatted string in SEGGER RTT control block.
 306:Core/Src/SEGGER_RTT_printf.c **** *    This data is read by the host.
 307:Core/Src/SEGGER_RTT_printf.c **** *
 308:Core/Src/SEGGER_RTT_printf.c **** *  Parameters
 309:Core/Src/SEGGER_RTT_printf.c **** *    BufferIndex  Index of "Up"-buffer to be used. (e.g. 0 for "Terminal")
 310:Core/Src/SEGGER_RTT_printf.c **** *    sFormat      Pointer to format string
 311:Core/Src/SEGGER_RTT_printf.c **** *    pParamList   Pointer to the list of arguments for the format string
 312:Core/Src/SEGGER_RTT_printf.c **** *
 313:Core/Src/SEGGER_RTT_printf.c **** *  Return values
 314:Core/Src/SEGGER_RTT_printf.c **** *    >= 0:  Number of bytes which have been stored in the "Up"-buffer.
 315:Core/Src/SEGGER_RTT_printf.c **** *     < 0:  Error
 316:Core/Src/SEGGER_RTT_printf.c **** */
 317:Core/Src/SEGGER_RTT_printf.c **** int SEGGER_RTT_vprintf(unsigned BufferIndex, const char * sFormat, va_list * pParamList) {
 556              		.loc 1 317 90 is_stmt 1 view -0
 557              		.cfi_startproc
 558              		@ args = 0, pretend = 0, frame = 104
 559              		@ frame_needed = 0, uses_anonymous_args = 0
 318:Core/Src/SEGGER_RTT_printf.c ****   char c;
 560              		.loc 1 318 3 view .LVU195
 319:Core/Src/SEGGER_RTT_printf.c ****   SEGGER_RTT_PRINTF_DESC BufferDesc;
 561              		.loc 1 319 3 view .LVU196
 320:Core/Src/SEGGER_RTT_printf.c ****   int v;
 562              		.loc 1 320 3 view .LVU197
ARM GAS  /var/folders/0z/tsy30v1j4xl4_7kw94k978ww0000gn/T//ccKHYiv2.s 			page 19


 321:Core/Src/SEGGER_RTT_printf.c ****   unsigned NumDigits;
 563              		.loc 1 321 3 view .LVU198
 322:Core/Src/SEGGER_RTT_printf.c ****   unsigned FormatFlags;
 564              		.loc 1 322 3 view .LVU199
 323:Core/Src/SEGGER_RTT_printf.c ****   unsigned FieldWidth;
 565              		.loc 1 323 3 view .LVU200
 324:Core/Src/SEGGER_RTT_printf.c ****   char acBuffer[SEGGER_RTT_PRINTF_BUFFER_SIZE];
 566              		.loc 1 324 3 view .LVU201
 325:Core/Src/SEGGER_RTT_printf.c **** 
 326:Core/Src/SEGGER_RTT_printf.c ****   BufferDesc.pBuffer        = acBuffer;
 567              		.loc 1 326 3 view .LVU202
 317:Core/Src/SEGGER_RTT_printf.c ****   char c;
 568              		.loc 1 317 90 is_stmt 0 view .LVU203
 569 0000 2DE9F04F 		push	{r4, r5, r6, r7, r8, r9, r10, fp, lr}
 570              		.cfi_def_cfa_offset 36
 571              		.cfi_offset 4, -36
 572              		.cfi_offset 5, -32
 573              		.cfi_offset 6, -28
 574              		.cfi_offset 7, -24
 575              		.cfi_offset 8, -20
 576              		.cfi_offset 9, -16
 577              		.cfi_offset 10, -12
 578              		.cfi_offset 11, -8
 579              		.cfi_offset 14, -4
 580 0004 9DB0     		sub	sp, sp, #116
 581              		.cfi_def_cfa_offset 152
 317:Core/Src/SEGGER_RTT_printf.c ****   char c;
 582              		.loc 1 317 90 view .LVU204
 583 0006 0546     		mov	r5, r0
 327:Core/Src/SEGGER_RTT_printf.c ****   BufferDesc.BufferSize     = SEGGER_RTT_PRINTF_BUFFER_SIZE;
 328:Core/Src/SEGGER_RTT_printf.c ****   BufferDesc.Cnt            = 0u;
 584              		.loc 1 328 29 view .LVU205
 585 0008 0027     		movs	r7, #0
 317:Core/Src/SEGGER_RTT_printf.c ****   char c;
 586              		.loc 1 317 90 view .LVU206
 587 000a 0290     		str	r0, [sp, #8]
 326:Core/Src/SEGGER_RTT_printf.c ****   BufferDesc.BufferSize     = SEGGER_RTT_PRINTF_BUFFER_SIZE;
 588              		.loc 1 326 29 view .LVU207
 589 000c 0CAB     		add	r3, sp, #48
 327:Core/Src/SEGGER_RTT_printf.c ****   BufferDesc.BufferSize     = SEGGER_RTT_PRINTF_BUFFER_SIZE;
 590              		.loc 1 327 29 view .LVU208
 591 000e 4020     		movs	r0, #64
 592              	.LVL50:
 327:Core/Src/SEGGER_RTT_printf.c ****   BufferDesc.BufferSize     = SEGGER_RTT_PRINTF_BUFFER_SIZE;
 593              		.loc 1 327 29 view .LVU209
 594 0010 CDE90730 		strd	r3, r0, [sp, #28]
 595              		.loc 1 328 3 is_stmt 1 view .LVU210
 329:Core/Src/SEGGER_RTT_printf.c ****   BufferDesc.RTTBufferIndex = BufferIndex;
 330:Core/Src/SEGGER_RTT_printf.c ****   BufferDesc.ReturnValue    = 0;
 596              		.loc 1 330 29 is_stmt 0 view .LVU211
 597 0014 CDE90A75 		strd	r7, r5, [sp, #40]
 598              	.LBB62:
 599              	.LBB63:
 233:Core/Src/SEGGER_RTT_printf.c ****     Width++;
 600              		.loc 1 233 12 view .LVU212
 601 0018 DFF874A4 		ldr	r10, .L205+4
 602              	.LBE63:
ARM GAS  /var/folders/0z/tsy30v1j4xl4_7kw94k978ww0000gn/T//ccKHYiv2.s 			page 20


 603              	.LBE62:
 328:Core/Src/SEGGER_RTT_printf.c ****   BufferDesc.RTTBufferIndex = BufferIndex;
 604              		.loc 1 328 29 view .LVU213
 605 001c 0997     		str	r7, [sp, #36]
 329:Core/Src/SEGGER_RTT_printf.c ****   BufferDesc.RTTBufferIndex = BufferIndex;
 606              		.loc 1 329 3 is_stmt 1 view .LVU214
 317:Core/Src/SEGGER_RTT_printf.c ****   char c;
 607              		.loc 1 317 90 is_stmt 0 view .LVU215
 608 001e 0C46     		mov	r4, r1
 609 0020 9346     		mov	fp, r2
 610              	.LVL51:
 611              	.L132:
 331:Core/Src/SEGGER_RTT_printf.c **** 
 332:Core/Src/SEGGER_RTT_printf.c ****   do {
 612              		.loc 1 332 3 is_stmt 1 view .LVU216
 333:Core/Src/SEGGER_RTT_printf.c ****     c = *sFormat;
 613              		.loc 1 333 5 view .LVU217
 614              		.loc 1 333 7 is_stmt 0 view .LVU218
 615 0022 14F8013B 		ldrb	r3, [r4], #1	@ zero_extendqisi2
 616              	.LVL52:
 334:Core/Src/SEGGER_RTT_printf.c ****     sFormat++;
 617              		.loc 1 334 5 is_stmt 1 view .LVU219
 335:Core/Src/SEGGER_RTT_printf.c ****     if (c == 0u) {
 618              		.loc 1 335 5 view .LVU220
 619              		.loc 1 335 8 is_stmt 0 view .LVU221
 620 0026 002B     		cmp	r3, #0
 621 0028 00F08980 		beq	.L69
 622              	.L195:
 336:Core/Src/SEGGER_RTT_printf.c ****       break;
 337:Core/Src/SEGGER_RTT_printf.c ****     }
 338:Core/Src/SEGGER_RTT_printf.c ****     if (c == '%') {
 623              		.loc 1 338 5 is_stmt 1 view .LVU222
 624              		.loc 1 338 8 is_stmt 0 view .LVU223
 625 002c 252B     		cmp	r3, #37
 626 002e 1AD0     		beq	.L192
 339:Core/Src/SEGGER_RTT_printf.c ****       //
 340:Core/Src/SEGGER_RTT_printf.c ****       // Filter out flags
 341:Core/Src/SEGGER_RTT_printf.c ****       //
 342:Core/Src/SEGGER_RTT_printf.c ****       FormatFlags = 0u;
 343:Core/Src/SEGGER_RTT_printf.c ****       v = 1;
 344:Core/Src/SEGGER_RTT_printf.c ****       do {
 345:Core/Src/SEGGER_RTT_printf.c ****         c = *sFormat;
 346:Core/Src/SEGGER_RTT_printf.c ****         switch (c) {
 347:Core/Src/SEGGER_RTT_printf.c ****         case '-': FormatFlags |= FORMAT_FLAG_LEFT_JUSTIFY; sFormat++; break;
 348:Core/Src/SEGGER_RTT_printf.c ****         case '0': FormatFlags |= FORMAT_FLAG_PAD_ZERO;     sFormat++; break;
 349:Core/Src/SEGGER_RTT_printf.c ****         case '+': FormatFlags |= FORMAT_FLAG_PRINT_SIGN;   sFormat++; break;
 350:Core/Src/SEGGER_RTT_printf.c ****         case '#': FormatFlags |= FORMAT_FLAG_ALTERNATE;    sFormat++; break;
 351:Core/Src/SEGGER_RTT_printf.c ****         default:  v = 0; break;
 352:Core/Src/SEGGER_RTT_printf.c ****         }
 353:Core/Src/SEGGER_RTT_printf.c ****       } while (v);
 354:Core/Src/SEGGER_RTT_printf.c ****       //
 355:Core/Src/SEGGER_RTT_printf.c ****       // filter out field with
 356:Core/Src/SEGGER_RTT_printf.c ****       //
 357:Core/Src/SEGGER_RTT_printf.c ****       FieldWidth = 0u;
 358:Core/Src/SEGGER_RTT_printf.c ****       do {
 359:Core/Src/SEGGER_RTT_printf.c ****         c = *sFormat;
 360:Core/Src/SEGGER_RTT_printf.c ****         if ((c < '0') || (c > '9')) {
ARM GAS  /var/folders/0z/tsy30v1j4xl4_7kw94k978ww0000gn/T//ccKHYiv2.s 			page 21


 361:Core/Src/SEGGER_RTT_printf.c ****           break;
 362:Core/Src/SEGGER_RTT_printf.c ****         }
 363:Core/Src/SEGGER_RTT_printf.c ****         sFormat++;
 364:Core/Src/SEGGER_RTT_printf.c ****         FieldWidth = (FieldWidth * 10u) + ((unsigned)c - '0');
 365:Core/Src/SEGGER_RTT_printf.c ****       } while (1);
 366:Core/Src/SEGGER_RTT_printf.c **** 
 367:Core/Src/SEGGER_RTT_printf.c ****       //
 368:Core/Src/SEGGER_RTT_printf.c ****       // Filter out precision (number of digits to display)
 369:Core/Src/SEGGER_RTT_printf.c ****       //
 370:Core/Src/SEGGER_RTT_printf.c ****       NumDigits = 0u;
 371:Core/Src/SEGGER_RTT_printf.c ****       c = *sFormat;
 372:Core/Src/SEGGER_RTT_printf.c ****       if (c == '.') {
 373:Core/Src/SEGGER_RTT_printf.c ****         sFormat++;
 374:Core/Src/SEGGER_RTT_printf.c ****         do {
 375:Core/Src/SEGGER_RTT_printf.c ****           c = *sFormat;
 376:Core/Src/SEGGER_RTT_printf.c ****           if ((c < '0') || (c > '9')) {
 377:Core/Src/SEGGER_RTT_printf.c ****             break;
 378:Core/Src/SEGGER_RTT_printf.c ****           }
 379:Core/Src/SEGGER_RTT_printf.c ****           sFormat++;
 380:Core/Src/SEGGER_RTT_printf.c ****           NumDigits = NumDigits * 10u + ((unsigned)c - '0');
 381:Core/Src/SEGGER_RTT_printf.c ****         } while (1);
 382:Core/Src/SEGGER_RTT_printf.c ****       }
 383:Core/Src/SEGGER_RTT_printf.c ****       //
 384:Core/Src/SEGGER_RTT_printf.c ****       // Filter out length modifier
 385:Core/Src/SEGGER_RTT_printf.c ****       //
 386:Core/Src/SEGGER_RTT_printf.c ****       c = *sFormat;
 387:Core/Src/SEGGER_RTT_printf.c ****       do {
 388:Core/Src/SEGGER_RTT_printf.c ****         if ((c == 'l') || (c == 'h')) {
 389:Core/Src/SEGGER_RTT_printf.c ****           sFormat++;
 390:Core/Src/SEGGER_RTT_printf.c ****           c = *sFormat;
 391:Core/Src/SEGGER_RTT_printf.c ****         } else {
 392:Core/Src/SEGGER_RTT_printf.c ****           break;
 393:Core/Src/SEGGER_RTT_printf.c ****         }
 394:Core/Src/SEGGER_RTT_printf.c ****       } while (1);
 395:Core/Src/SEGGER_RTT_printf.c ****       //
 396:Core/Src/SEGGER_RTT_printf.c ****       // Handle specifiers
 397:Core/Src/SEGGER_RTT_printf.c ****       //
 398:Core/Src/SEGGER_RTT_printf.c ****       switch (c) {
 399:Core/Src/SEGGER_RTT_printf.c ****       case 'c': {
 400:Core/Src/SEGGER_RTT_printf.c ****         char c0;
 401:Core/Src/SEGGER_RTT_printf.c ****         v = va_arg(*pParamList, int);
 402:Core/Src/SEGGER_RTT_printf.c ****         c0 = (char)v;
 403:Core/Src/SEGGER_RTT_printf.c ****         _StoreChar(&BufferDesc, c0);
 404:Core/Src/SEGGER_RTT_printf.c ****         break;
 405:Core/Src/SEGGER_RTT_printf.c ****       }
 406:Core/Src/SEGGER_RTT_printf.c ****       case 'd':
 407:Core/Src/SEGGER_RTT_printf.c ****         v = va_arg(*pParamList, int);
 408:Core/Src/SEGGER_RTT_printf.c ****         _PrintInt(&BufferDesc, v, 10u, NumDigits, FieldWidth, FormatFlags);
 409:Core/Src/SEGGER_RTT_printf.c ****         break;
 410:Core/Src/SEGGER_RTT_printf.c ****       case 'u':
 411:Core/Src/SEGGER_RTT_printf.c ****         v = va_arg(*pParamList, int);
 412:Core/Src/SEGGER_RTT_printf.c ****         _PrintUnsigned(&BufferDesc, (unsigned)v, 10u, NumDigits, FieldWidth, FormatFlags);
 413:Core/Src/SEGGER_RTT_printf.c ****         break;
 414:Core/Src/SEGGER_RTT_printf.c ****       case 'x':
 415:Core/Src/SEGGER_RTT_printf.c ****       case 'X':
 416:Core/Src/SEGGER_RTT_printf.c ****         v = va_arg(*pParamList, int);
 417:Core/Src/SEGGER_RTT_printf.c ****         _PrintUnsigned(&BufferDesc, (unsigned)v, 16u, NumDigits, FieldWidth, FormatFlags);
ARM GAS  /var/folders/0z/tsy30v1j4xl4_7kw94k978ww0000gn/T//ccKHYiv2.s 			page 22


 418:Core/Src/SEGGER_RTT_printf.c ****         break;
 419:Core/Src/SEGGER_RTT_printf.c ****       case 's':
 420:Core/Src/SEGGER_RTT_printf.c ****         {
 421:Core/Src/SEGGER_RTT_printf.c ****           const char * s = va_arg(*pParamList, const char *);
 422:Core/Src/SEGGER_RTT_printf.c ****           do {
 423:Core/Src/SEGGER_RTT_printf.c ****             c = *s;
 424:Core/Src/SEGGER_RTT_printf.c ****             s++;
 425:Core/Src/SEGGER_RTT_printf.c ****             if (c == '\0') {
 426:Core/Src/SEGGER_RTT_printf.c ****               break;
 427:Core/Src/SEGGER_RTT_printf.c ****             }
 428:Core/Src/SEGGER_RTT_printf.c ****            _StoreChar(&BufferDesc, c);
 429:Core/Src/SEGGER_RTT_printf.c ****           } while (BufferDesc.ReturnValue >= 0);
 430:Core/Src/SEGGER_RTT_printf.c ****         }
 431:Core/Src/SEGGER_RTT_printf.c ****         break;
 432:Core/Src/SEGGER_RTT_printf.c ****       case 'p':
 433:Core/Src/SEGGER_RTT_printf.c ****         v = va_arg(*pParamList, int);
 434:Core/Src/SEGGER_RTT_printf.c ****         _PrintUnsigned(&BufferDesc, (unsigned)v, 16u, 8u, 8u, 0u);
 435:Core/Src/SEGGER_RTT_printf.c ****         break;
 436:Core/Src/SEGGER_RTT_printf.c ****       case '%':
 437:Core/Src/SEGGER_RTT_printf.c ****         _StoreChar(&BufferDesc, '%');
 438:Core/Src/SEGGER_RTT_printf.c ****         break;
 439:Core/Src/SEGGER_RTT_printf.c ****       default:
 440:Core/Src/SEGGER_RTT_printf.c ****         break;
 441:Core/Src/SEGGER_RTT_printf.c ****       }
 442:Core/Src/SEGGER_RTT_printf.c ****       sFormat++;
 443:Core/Src/SEGGER_RTT_printf.c ****     } else {
 444:Core/Src/SEGGER_RTT_printf.c ****       _StoreChar(&BufferDesc, c);
 627              		.loc 1 444 7 is_stmt 1 view .LVU224
 628              	.LVL53:
 629              	.LBB92:
 630              	.LBI92:
 107:Core/Src/SEGGER_RTT_printf.c ****   unsigned Cnt;
 631              		.loc 1 107 13 view .LVU225
 632              	.LBB93:
 108:Core/Src/SEGGER_RTT_printf.c **** 
 633              		.loc 1 108 3 view .LVU226
 110:Core/Src/SEGGER_RTT_printf.c ****   if ((Cnt + 1u) <= p->BufferSize) {
 634              		.loc 1 110 3 view .LVU227
 111:Core/Src/SEGGER_RTT_printf.c ****     *(p->pBuffer + Cnt) = c;
 635              		.loc 1 111 22 is_stmt 0 view .LVU228
 636 0030 DDE90851 		ldrd	r5, r1, [sp, #32]
 111:Core/Src/SEGGER_RTT_printf.c ****     *(p->pBuffer + Cnt) = c;
 637              		.loc 1 111 12 view .LVU229
 638 0034 4A1C     		adds	r2, r1, #1
 111:Core/Src/SEGGER_RTT_printf.c ****     *(p->pBuffer + Cnt) = c;
 639              		.loc 1 111 6 view .LVU230
 640 0036 AA42     		cmp	r2, r5
 641 0038 05D8     		bhi	.L129
 112:Core/Src/SEGGER_RTT_printf.c ****     p->Cnt = Cnt + 1u;
 642              		.loc 1 112 5 is_stmt 1 view .LVU231
 114:Core/Src/SEGGER_RTT_printf.c ****   }
 643              		.loc 1 114 19 is_stmt 0 view .LVU232
 644 003a 0137     		adds	r7, r7, #1
 112:Core/Src/SEGGER_RTT_printf.c ****     p->Cnt = Cnt + 1u;
 645              		.loc 1 112 25 view .LVU233
 646 003c 0798     		ldr	r0, [sp, #28]
 114:Core/Src/SEGGER_RTT_printf.c ****   }
ARM GAS  /var/folders/0z/tsy30v1j4xl4_7kw94k978ww0000gn/T//ccKHYiv2.s 			page 23


 647              		.loc 1 114 19 view .LVU234
 648 003e CDE90927 		strd	r2, r7, [sp, #36]
 112:Core/Src/SEGGER_RTT_printf.c ****     p->Cnt = Cnt + 1u;
 649              		.loc 1 112 25 view .LVU235
 650 0042 4354     		strb	r3, [r0, r1]
 113:Core/Src/SEGGER_RTT_printf.c ****     p->ReturnValue++;
 651              		.loc 1 113 5 is_stmt 1 view .LVU236
 114:Core/Src/SEGGER_RTT_printf.c ****   }
 652              		.loc 1 114 5 view .LVU237
 114:Core/Src/SEGGER_RTT_printf.c ****   }
 653              		.loc 1 114 19 is_stmt 0 view .LVU238
 654 0044 1146     		mov	r1, r2
 655              	.L129:
 119:Core/Src/SEGGER_RTT_printf.c ****     if (SEGGER_RTT_Write(p->RTTBufferIndex, p->pBuffer, p->Cnt) != p->Cnt) {
 656              		.loc 1 119 3 is_stmt 1 view .LVU239
 119:Core/Src/SEGGER_RTT_printf.c ****     if (SEGGER_RTT_Write(p->RTTBufferIndex, p->pBuffer, p->Cnt) != p->Cnt) {
 657              		.loc 1 119 6 is_stmt 0 view .LVU240
 658 0046 8D42     		cmp	r5, r1
 659 0048 EBD1     		bne	.L132
 120:Core/Src/SEGGER_RTT_printf.c ****       p->ReturnValue = -1;
 660              		.loc 1 120 5 is_stmt 1 view .LVU241
 120:Core/Src/SEGGER_RTT_printf.c ****       p->ReturnValue = -1;
 661              		.loc 1 120 9 is_stmt 0 view .LVU242
 662 004a 0799     		ldr	r1, [sp, #28]
 663 004c 0B98     		ldr	r0, [sp, #44]
 664 004e 2A46     		mov	r2, r5
 665 0050 FFF7FEFF 		bl	SEGGER_RTT_Write
 666              	.LVL54:
 120:Core/Src/SEGGER_RTT_printf.c ****       p->ReturnValue = -1;
 667              		.loc 1 120 8 view .LVU243
 668 0054 A842     		cmp	r0, r5
 669 0056 00F02D81 		beq	.L193
 670              	.LVL55:
 671              	.L96:
 120:Core/Src/SEGGER_RTT_printf.c ****       p->ReturnValue = -1;
 672              		.loc 1 120 8 view .LVU244
 673              	.LBE93:
 674              	.LBE92:
 445:Core/Src/SEGGER_RTT_printf.c ****     }
 446:Core/Src/SEGGER_RTT_printf.c ****   } while (BufferDesc.ReturnValue >= 0);
 447:Core/Src/SEGGER_RTT_printf.c **** 
 448:Core/Src/SEGGER_RTT_printf.c ****   if (BufferDesc.ReturnValue > 0) {
 675              		.loc 1 448 3 is_stmt 1 view .LVU245
 676              	.LBB98:
 677              	.LBB94:
 678 005a 4FF0FF37 		mov	r7, #-1
 679              	.L68:
 680              	.LBE94:
 681              	.LBE98:
 449:Core/Src/SEGGER_RTT_printf.c ****     //
 450:Core/Src/SEGGER_RTT_printf.c ****     // Write remaining data, if any
 451:Core/Src/SEGGER_RTT_printf.c ****     //
 452:Core/Src/SEGGER_RTT_printf.c ****     if (BufferDesc.Cnt != 0u) {
 453:Core/Src/SEGGER_RTT_printf.c ****       SEGGER_RTT_Write(BufferIndex, acBuffer, BufferDesc.Cnt);
 454:Core/Src/SEGGER_RTT_printf.c ****     }
 455:Core/Src/SEGGER_RTT_printf.c ****     BufferDesc.ReturnValue += (int)BufferDesc.Cnt;
 456:Core/Src/SEGGER_RTT_printf.c ****   }
ARM GAS  /var/folders/0z/tsy30v1j4xl4_7kw94k978ww0000gn/T//ccKHYiv2.s 			page 24


 457:Core/Src/SEGGER_RTT_printf.c ****   return BufferDesc.ReturnValue;
 458:Core/Src/SEGGER_RTT_printf.c **** }
 682              		.loc 1 458 1 is_stmt 0 view .LVU246
 683 005e 3846     		mov	r0, r7
 684 0060 1DB0     		add	sp, sp, #116
 685              		.cfi_remember_state
 686              		.cfi_def_cfa_offset 36
 687              		@ sp needed
 688 0062 BDE8F08F 		pop	{r4, r5, r6, r7, r8, r9, r10, fp, pc}
 689              	.LVL56:
 690              	.L192:
 691              		.cfi_restore_state
 342:Core/Src/SEGGER_RTT_printf.c ****       v = 1;
 692              		.loc 1 342 19 view .LVU247
 693 0066 0026     		movs	r6, #0
 694              	.LVL57:
 695              	.L71:
 342:Core/Src/SEGGER_RTT_printf.c ****       v = 1;
 696              		.loc 1 342 19 view .LVU248
 697 0068 2546     		mov	r5, r4
 698              	.LVL58:
 344:Core/Src/SEGGER_RTT_printf.c ****         c = *sFormat;
 699              		.loc 1 344 7 is_stmt 1 view .LVU249
 345:Core/Src/SEGGER_RTT_printf.c ****         switch (c) {
 700              		.loc 1 345 9 view .LVU250
 345:Core/Src/SEGGER_RTT_printf.c ****         switch (c) {
 701              		.loc 1 345 11 is_stmt 0 view .LVU251
 702 006a 14F8011B 		ldrb	r1, [r4], #1	@ zero_extendqisi2
 703              	.LVL59:
 346:Core/Src/SEGGER_RTT_printf.c ****         case '-': FormatFlags |= FORMAT_FLAG_LEFT_JUSTIFY; sFormat++; break;
 704              		.loc 1 346 9 is_stmt 1 view .LVU252
 705 006e A1F12303 		sub	r3, r1, #35
 706 0072 0D2B     		cmp	r3, #13
 707 0074 08D8     		bhi	.L72
 708 0076 DFE803F0 		tbb	[pc, r3]
 709              	.L74:
 710 007a 46       		.byte	(.L77-.L74)/2
 711 007b 07       		.byte	(.L72-.L74)/2
 712 007c 07       		.byte	(.L72-.L74)/2
 713 007d 07       		.byte	(.L72-.L74)/2
 714 007e 07       		.byte	(.L72-.L74)/2
 715 007f 07       		.byte	(.L72-.L74)/2
 716 0080 07       		.byte	(.L72-.L74)/2
 717 0081 07       		.byte	(.L72-.L74)/2
 718 0082 43       		.byte	(.L76-.L74)/2
 719 0083 07       		.byte	(.L72-.L74)/2
 720 0084 49       		.byte	(.L75-.L74)/2
 721 0085 07       		.byte	(.L72-.L74)/2
 722 0086 07       		.byte	(.L72-.L74)/2
 723 0087 40       		.byte	(.L73-.L74)/2
 724              		.p2align 1
 725              	.L72:
 726              	.LVL60:
 358:Core/Src/SEGGER_RTT_printf.c ****         c = *sFormat;
 727              		.loc 1 358 7 view .LVU253
 359:Core/Src/SEGGER_RTT_printf.c ****         if ((c < '0') || (c > '9')) {
 728              		.loc 1 359 9 view .LVU254
ARM GAS  /var/folders/0z/tsy30v1j4xl4_7kw94k978ww0000gn/T//ccKHYiv2.s 			page 25


 360:Core/Src/SEGGER_RTT_printf.c ****           break;
 729              		.loc 1 360 9 view .LVU255
 360:Core/Src/SEGGER_RTT_printf.c ****           break;
 730              		.loc 1 360 12 is_stmt 0 view .LVU256
 731 0088 A1F13003 		sub	r3, r1, #48
 732 008c 092B     		cmp	r3, #9
 357:Core/Src/SEGGER_RTT_printf.c ****       do {
 733              		.loc 1 357 18 view .LVU257
 734 008e 4FF00004 		mov	r4, #0
 360:Core/Src/SEGGER_RTT_printf.c ****           break;
 735              		.loc 1 360 12 view .LVU258
 736 0092 0BD8     		bhi	.L79
 737              	.LVL61:
 738              	.L80:
 363:Core/Src/SEGGER_RTT_printf.c ****         FieldWidth = (FieldWidth * 10u) + ((unsigned)c - '0');
 739              		.loc 1 363 9 is_stmt 1 view .LVU259
 364:Core/Src/SEGGER_RTT_printf.c ****       } while (1);
 740              		.loc 1 364 9 view .LVU260
 364:Core/Src/SEGGER_RTT_printf.c ****       } while (1);
 741              		.loc 1 364 34 is_stmt 0 view .LVU261
 742 0094 04EB8404 		add	r4, r4, r4, lsl #2
 743              	.LVL62:
 364:Core/Src/SEGGER_RTT_printf.c ****       } while (1);
 744              		.loc 1 364 41 view .LVU262
 745 0098 01EB4404 		add	r4, r1, r4, lsl #1
 359:Core/Src/SEGGER_RTT_printf.c ****         if ((c < '0') || (c > '9')) {
 746              		.loc 1 359 11 view .LVU263
 747 009c 15F8011F 		ldrb	r1, [r5, #1]!	@ zero_extendqisi2
 748              	.LVL63:
 360:Core/Src/SEGGER_RTT_printf.c ****           break;
 749              		.loc 1 360 12 view .LVU264
 750 00a0 A1F13003 		sub	r3, r1, #48
 751 00a4 092B     		cmp	r3, #9
 364:Core/Src/SEGGER_RTT_printf.c ****       } while (1);
 752              		.loc 1 364 20 view .LVU265
 753 00a6 A4F13004 		sub	r4, r4, #48
 754              	.LVL64:
 358:Core/Src/SEGGER_RTT_printf.c ****         c = *sFormat;
 755              		.loc 1 358 10 is_stmt 1 view .LVU266
 358:Core/Src/SEGGER_RTT_printf.c ****         c = *sFormat;
 756              		.loc 1 358 7 view .LVU267
 359:Core/Src/SEGGER_RTT_printf.c ****         if ((c < '0') || (c > '9')) {
 757              		.loc 1 359 9 view .LVU268
 360:Core/Src/SEGGER_RTT_printf.c ****           break;
 758              		.loc 1 360 9 view .LVU269
 360:Core/Src/SEGGER_RTT_printf.c ****           break;
 759              		.loc 1 360 12 is_stmt 0 view .LVU270
 760 00aa F3D9     		bls	.L80
 761              	.LVL65:
 762              	.L79:
 370:Core/Src/SEGGER_RTT_printf.c ****       c = *sFormat;
 763              		.loc 1 370 7 is_stmt 1 view .LVU271
 371:Core/Src/SEGGER_RTT_printf.c ****       if (c == '.') {
 764              		.loc 1 371 7 view .LVU272
 372:Core/Src/SEGGER_RTT_printf.c ****         sFormat++;
 765              		.loc 1 372 7 view .LVU273
 372:Core/Src/SEGGER_RTT_printf.c ****         sFormat++;
ARM GAS  /var/folders/0z/tsy30v1j4xl4_7kw94k978ww0000gn/T//ccKHYiv2.s 			page 26


 766              		.loc 1 372 10 is_stmt 0 view .LVU274
 767 00ac 2E29     		cmp	r1, #46
 768 00ae 00F00481 		beq	.L194
 370:Core/Src/SEGGER_RTT_printf.c ****       c = *sFormat;
 769              		.loc 1 370 17 view .LVU275
 770 00b2 0023     		movs	r3, #0
 771 00b4 01E0     		b	.L185
 772              	.LVL66:
 773              	.L84:
 389:Core/Src/SEGGER_RTT_printf.c ****           c = *sFormat;
 774              		.loc 1 389 11 is_stmt 1 view .LVU276
 390:Core/Src/SEGGER_RTT_printf.c ****         } else {
 775              		.loc 1 390 11 view .LVU277
 390:Core/Src/SEGGER_RTT_printf.c ****         } else {
 776              		.loc 1 390 13 is_stmt 0 view .LVU278
 777 00b6 15F8011F 		ldrb	r1, [r5, #1]!	@ zero_extendqisi2
 778              	.LVL67:
 779              	.L185:
 387:Core/Src/SEGGER_RTT_printf.c ****         if ((c == 'l') || (c == 'h')) {
 780              		.loc 1 387 10 is_stmt 1 view .LVU279
 387:Core/Src/SEGGER_RTT_printf.c ****         if ((c == 'l') || (c == 'h')) {
 781              		.loc 1 387 7 view .LVU280
 388:Core/Src/SEGGER_RTT_printf.c ****           sFormat++;
 782              		.loc 1 388 9 view .LVU281
 388:Core/Src/SEGGER_RTT_printf.c ****           sFormat++;
 783              		.loc 1 388 24 is_stmt 0 view .LVU282
 784 00ba 01F0FB02 		and	r2, r1, #251
 785 00be 682A     		cmp	r2, #104
 786 00c0 F9D0     		beq	.L84
 398:Core/Src/SEGGER_RTT_printf.c ****       case 'c': {
 787              		.loc 1 398 7 is_stmt 1 view .LVU283
 788 00c2 2529     		cmp	r1, #37
 789 00c4 00F01081 		beq	.L85
 790 00c8 5839     		subs	r1, r1, #88
 791 00ca CAB2     		uxtb	r2, r1
 792 00cc 202A     		cmp	r2, #32
 793 00ce 2DD8     		bhi	.L86
 794 00d0 2029     		cmp	r1, #32
 795 00d2 2BD8     		bhi	.L86
 796 00d4 DFE801F0 		tbb	[pc, r1]
 797              	.L88:
 798 00d8 1D       		.byte	(.L87-.L88)/2
 799 00d9 2A       		.byte	(.L86-.L88)/2
 800 00da 2A       		.byte	(.L86-.L88)/2
 801 00db 2A       		.byte	(.L86-.L88)/2
 802 00dc 2A       		.byte	(.L86-.L88)/2
 803 00dd 2A       		.byte	(.L86-.L88)/2
 804 00de 2A       		.byte	(.L86-.L88)/2
 805 00df 2A       		.byte	(.L86-.L88)/2
 806 00e0 2A       		.byte	(.L86-.L88)/2
 807 00e1 2A       		.byte	(.L86-.L88)/2
 808 00e2 2A       		.byte	(.L86-.L88)/2
 809 00e3 CE       		.byte	(.L93-.L88)/2
 810 00e4 9C       		.byte	(.L92-.L88)/2
 811 00e5 2A       		.byte	(.L86-.L88)/2
 812 00e6 2A       		.byte	(.L86-.L88)/2
 813 00e7 2A       		.byte	(.L86-.L88)/2
ARM GAS  /var/folders/0z/tsy30v1j4xl4_7kw94k978ww0000gn/T//ccKHYiv2.s 			page 27


 814 00e8 2A       		.byte	(.L86-.L88)/2
 815 00e9 2A       		.byte	(.L86-.L88)/2
 816 00ea 2A       		.byte	(.L86-.L88)/2
 817 00eb 2A       		.byte	(.L86-.L88)/2
 818 00ec 2A       		.byte	(.L86-.L88)/2
 819 00ed 2A       		.byte	(.L86-.L88)/2
 820 00ee 2A       		.byte	(.L86-.L88)/2
 821 00ef 2A       		.byte	(.L86-.L88)/2
 822 00f0 66       		.byte	(.L91-.L88)/2
 823 00f1 2A       		.byte	(.L86-.L88)/2
 824 00f2 2A       		.byte	(.L86-.L88)/2
 825 00f3 42       		.byte	(.L90-.L88)/2
 826 00f4 2A       		.byte	(.L86-.L88)/2
 827 00f5 3E       		.byte	(.L89-.L88)/2
 828 00f6 2A       		.byte	(.L86-.L88)/2
 829 00f7 2A       		.byte	(.L86-.L88)/2
 830 00f8 1D       		.byte	(.L87-.L88)/2
 831              	.LVL68:
 832 00f9 00       		.p2align 1
 833              	.L73:
 348:Core/Src/SEGGER_RTT_printf.c ****         case '+': FormatFlags |= FORMAT_FLAG_PRINT_SIGN;   sFormat++; break;
 834              		.loc 1 348 19 view .LVU284
 348:Core/Src/SEGGER_RTT_printf.c ****         case '+': FormatFlags |= FORMAT_FLAG_PRINT_SIGN;   sFormat++; break;
 835              		.loc 1 348 31 is_stmt 0 view .LVU285
 836 00fa 46F00206 		orr	r6, r6, #2
 837              	.LVL69:
 348:Core/Src/SEGGER_RTT_printf.c ****         case '+': FormatFlags |= FORMAT_FLAG_PRINT_SIGN;   sFormat++; break;
 838              		.loc 1 348 60 is_stmt 1 view .LVU286
 348:Core/Src/SEGGER_RTT_printf.c ****         case '+': FormatFlags |= FORMAT_FLAG_PRINT_SIGN;   sFormat++; break;
 839              		.loc 1 348 71 view .LVU287
 840 00fe B3E7     		b	.L71
 841              	.LVL70:
 842              	.L76:
 349:Core/Src/SEGGER_RTT_printf.c ****         case '#': FormatFlags |= FORMAT_FLAG_ALTERNATE;    sFormat++; break;
 843              		.loc 1 349 19 view .LVU288
 349:Core/Src/SEGGER_RTT_printf.c ****         case '#': FormatFlags |= FORMAT_FLAG_ALTERNATE;    sFormat++; break;
 844              		.loc 1 349 31 is_stmt 0 view .LVU289
 845 0100 46F00406 		orr	r6, r6, #4
 846              	.LVL71:
 349:Core/Src/SEGGER_RTT_printf.c ****         case '#': FormatFlags |= FORMAT_FLAG_ALTERNATE;    sFormat++; break;
 847              		.loc 1 349 60 is_stmt 1 view .LVU290
 349:Core/Src/SEGGER_RTT_printf.c ****         case '#': FormatFlags |= FORMAT_FLAG_ALTERNATE;    sFormat++; break;
 848              		.loc 1 349 71 view .LVU291
 849 0104 B0E7     		b	.L71
 850              	.LVL72:
 851              	.L77:
 350:Core/Src/SEGGER_RTT_printf.c ****         default:  v = 0; break;
 852              		.loc 1 350 19 view .LVU292
 350:Core/Src/SEGGER_RTT_printf.c ****         default:  v = 0; break;
 853              		.loc 1 350 31 is_stmt 0 view .LVU293
 854 0106 46F00806 		orr	r6, r6, #8
 855              	.LVL73:
 350:Core/Src/SEGGER_RTT_printf.c ****         default:  v = 0; break;
 856              		.loc 1 350 60 is_stmt 1 view .LVU294
 350:Core/Src/SEGGER_RTT_printf.c ****         default:  v = 0; break;
 857              		.loc 1 350 71 view .LVU295
 858 010a ADE7     		b	.L71
ARM GAS  /var/folders/0z/tsy30v1j4xl4_7kw94k978ww0000gn/T//ccKHYiv2.s 			page 28


 859              	.LVL74:
 860              	.L75:
 347:Core/Src/SEGGER_RTT_printf.c ****         case '0': FormatFlags |= FORMAT_FLAG_PAD_ZERO;     sFormat++; break;
 861              		.loc 1 347 19 view .LVU296
 347:Core/Src/SEGGER_RTT_printf.c ****         case '0': FormatFlags |= FORMAT_FLAG_PAD_ZERO;     sFormat++; break;
 862              		.loc 1 347 31 is_stmt 0 view .LVU297
 863 010c 46F00106 		orr	r6, r6, #1
 864              	.LVL75:
 347:Core/Src/SEGGER_RTT_printf.c ****         case '0': FormatFlags |= FORMAT_FLAG_PAD_ZERO;     sFormat++; break;
 865              		.loc 1 347 60 is_stmt 1 view .LVU298
 347:Core/Src/SEGGER_RTT_printf.c ****         case '0': FormatFlags |= FORMAT_FLAG_PAD_ZERO;     sFormat++; break;
 866              		.loc 1 347 71 view .LVU299
 867 0110 AAE7     		b	.L71
 868              	.LVL76:
 869              	.L87:
 416:Core/Src/SEGGER_RTT_printf.c ****         _PrintUnsigned(&BufferDesc, (unsigned)v, 16u, NumDigits, FieldWidth, FormatFlags);
 870              		.loc 1 416 9 view .LVU300
 416:Core/Src/SEGGER_RTT_printf.c ****         _PrintUnsigned(&BufferDesc, (unsigned)v, 16u, NumDigits, FieldWidth, FormatFlags);
 871              		.loc 1 416 11 is_stmt 0 view .LVU301
 872 0112 DBF80000 		ldr	r0, [fp]
 417:Core/Src/SEGGER_RTT_printf.c ****         break;
 873              		.loc 1 417 9 view .LVU302
 874 0116 1022     		movs	r2, #16
 875              	.L187:
 876 0118 0168     		ldr	r1, [r0]
 416:Core/Src/SEGGER_RTT_printf.c ****         _PrintUnsigned(&BufferDesc, (unsigned)v, 16u, NumDigits, FieldWidth, FormatFlags);
 877              		.loc 1 416 11 view .LVU303
 878 011a 0430     		adds	r0, r0, #4
 417:Core/Src/SEGGER_RTT_printf.c ****         break;
 879              		.loc 1 417 9 view .LVU304
 880 011c CDE90046 		strd	r4, r6, [sp]
 416:Core/Src/SEGGER_RTT_printf.c ****         _PrintUnsigned(&BufferDesc, (unsigned)v, 16u, NumDigits, FieldWidth, FormatFlags);
 881              		.loc 1 416 11 view .LVU305
 882 0120 CBF80000 		str	r0, [fp]
 417:Core/Src/SEGGER_RTT_printf.c ****         break;
 883              		.loc 1 417 9 is_stmt 1 view .LVU306
 884 0124 07A8     		add	r0, sp, #28
 885 0126 FFF7FEFF 		bl	_PrintUnsigned
 886              	.LVL77:
 418:Core/Src/SEGGER_RTT_printf.c ****       case 's':
 887              		.loc 1 418 9 view .LVU307
 446:Core/Src/SEGGER_RTT_printf.c **** 
 888              		.loc 1 446 22 is_stmt 0 view .LVU308
 889 012a 0A9F     		ldr	r7, [sp, #40]
 890              	.L86:
 442:Core/Src/SEGGER_RTT_printf.c ****     } else {
 891              		.loc 1 442 7 is_stmt 1 view .LVU309
 446:Core/Src/SEGGER_RTT_printf.c **** 
 892              		.loc 1 446 35 is_stmt 0 view .LVU310
 893 012c 002F     		cmp	r7, #0
 442:Core/Src/SEGGER_RTT_printf.c ****     } else {
 894              		.loc 1 442 14 view .LVU311
 895 012e 05F10104 		add	r4, r5, #1
 896              	.LVL78:
 446:Core/Src/SEGGER_RTT_printf.c **** 
 897              		.loc 1 446 35 is_stmt 1 view .LVU312
 898 0132 94DB     		blt	.L68
ARM GAS  /var/folders/0z/tsy30v1j4xl4_7kw94k978ww0000gn/T//ccKHYiv2.s 			page 29


 332:Core/Src/SEGGER_RTT_printf.c ****     c = *sFormat;
 899              		.loc 1 332 3 view .LVU313
 333:Core/Src/SEGGER_RTT_printf.c ****     sFormat++;
 900              		.loc 1 333 5 view .LVU314
 333:Core/Src/SEGGER_RTT_printf.c ****     sFormat++;
 901              		.loc 1 333 7 is_stmt 0 view .LVU315
 902 0134 14F8013B 		ldrb	r3, [r4], #1	@ zero_extendqisi2
 903              	.LVL79:
 334:Core/Src/SEGGER_RTT_printf.c ****     if (c == 0u) {
 904              		.loc 1 334 5 is_stmt 1 view .LVU316
 335:Core/Src/SEGGER_RTT_printf.c ****       break;
 905              		.loc 1 335 5 view .LVU317
 335:Core/Src/SEGGER_RTT_printf.c ****       break;
 906              		.loc 1 335 8 is_stmt 0 view .LVU318
 907 0138 002B     		cmp	r3, #0
 908 013a 7FF477AF 		bne	.L195
 909              	.L69:
 448:Core/Src/SEGGER_RTT_printf.c ****     //
 910              		.loc 1 448 3 is_stmt 1 view .LVU319
 448:Core/Src/SEGGER_RTT_printf.c ****     //
 911              		.loc 1 448 6 is_stmt 0 view .LVU320
 912 013e 002F     		cmp	r7, #0
 913 0140 8DDD     		ble	.L68
 452:Core/Src/SEGGER_RTT_printf.c ****       SEGGER_RTT_Write(BufferIndex, acBuffer, BufferDesc.Cnt);
 914              		.loc 1 452 5 is_stmt 1 view .LVU321
 452:Core/Src/SEGGER_RTT_printf.c ****       SEGGER_RTT_Write(BufferIndex, acBuffer, BufferDesc.Cnt);
 915              		.loc 1 452 19 is_stmt 0 view .LVU322
 916 0142 099C     		ldr	r4, [sp, #36]
 917              	.LVL80:
 452:Core/Src/SEGGER_RTT_printf.c ****       SEGGER_RTT_Write(BufferIndex, acBuffer, BufferDesc.Cnt);
 918              		.loc 1 452 8 view .LVU323
 919 0144 002C     		cmp	r4, #0
 920 0146 40F01C81 		bne	.L196
 455:Core/Src/SEGGER_RTT_printf.c ****   }
 921              		.loc 1 455 5 is_stmt 1 view .LVU324
 455:Core/Src/SEGGER_RTT_printf.c ****   }
 922              		.loc 1 455 28 is_stmt 0 view .LVU325
 923 014a 2744     		add	r7, r7, r4
 924              	.LVL81:
 925              	.L203:
 926              		.loc 1 458 1 view .LVU326
 927 014c 3846     		mov	r0, r7
 928 014e 1DB0     		add	sp, sp, #116
 929              		.cfi_remember_state
 930              		.cfi_def_cfa_offset 36
 931              		@ sp needed
 932 0150 BDE8F08F 		pop	{r4, r5, r6, r7, r8, r9, r10, fp, pc}
 933              	.LVL82:
 934              	.L89:
 935              		.cfi_restore_state
 411:Core/Src/SEGGER_RTT_printf.c ****         _PrintUnsigned(&BufferDesc, (unsigned)v, 10u, NumDigits, FieldWidth, FormatFlags);
 936              		.loc 1 411 9 is_stmt 1 view .LVU327
 411:Core/Src/SEGGER_RTT_printf.c ****         _PrintUnsigned(&BufferDesc, (unsigned)v, 10u, NumDigits, FieldWidth, FormatFlags);
 937              		.loc 1 411 11 is_stmt 0 view .LVU328
 938 0154 DBF80000 		ldr	r0, [fp]
 412:Core/Src/SEGGER_RTT_printf.c ****         break;
 939              		.loc 1 412 9 view .LVU329
ARM GAS  /var/folders/0z/tsy30v1j4xl4_7kw94k978ww0000gn/T//ccKHYiv2.s 			page 30


 940 0158 0A22     		movs	r2, #10
 941 015a DDE7     		b	.L187
 942              	.L90:
 943              	.LBB99:
 421:Core/Src/SEGGER_RTT_printf.c ****           do {
 944              		.loc 1 421 11 is_stmt 1 view .LVU330
 421:Core/Src/SEGGER_RTT_printf.c ****           do {
 945              		.loc 1 421 24 is_stmt 0 view .LVU331
 946 015c DBF80030 		ldr	r3, [fp]
 947 0160 1A1D     		adds	r2, r3, #4
 948 0162 CBF80020 		str	r2, [fp]
 949 0166 1E68     		ldr	r6, [r3]
 950              	.LBB100:
 951              	.LBB101:
 123:Core/Src/SEGGER_RTT_printf.c ****     }
 952              		.loc 1 123 14 view .LVU332
 953 0168 4FF00008 		mov	r8, #0
 954              	.L140:
 955              	.LVL83:
 123:Core/Src/SEGGER_RTT_printf.c ****     }
 956              		.loc 1 123 14 view .LVU333
 957              	.LBE101:
 958              	.LBE100:
 422:Core/Src/SEGGER_RTT_printf.c ****             c = *s;
 959              		.loc 1 422 11 is_stmt 1 view .LVU334
 423:Core/Src/SEGGER_RTT_printf.c ****             s++;
 960              		.loc 1 423 13 view .LVU335
 428:Core/Src/SEGGER_RTT_printf.c ****           } while (BufferDesc.ReturnValue >= 0);
 961              		.loc 1 428 12 view .LVU336
 962              	.LBB105:
 963              	.LBB102:
 112:Core/Src/SEGGER_RTT_printf.c ****     p->Cnt = Cnt + 1u;
 964              		.loc 1 112 5 view .LVU337
 119:Core/Src/SEGGER_RTT_printf.c ****     if (SEGGER_RTT_Write(p->RTTBufferIndex, p->pBuffer, p->Cnt) != p->Cnt) {
 965              		.loc 1 119 3 view .LVU338
 966              	.LBE102:
 967              	.LBE105:
 423:Core/Src/SEGGER_RTT_printf.c ****             s++;
 968              		.loc 1 423 15 is_stmt 0 view .LVU339
 969 016c 16F8010B 		ldrb	r0, [r6], #1	@ zero_extendqisi2
 970              	.LVL84:
 424:Core/Src/SEGGER_RTT_printf.c ****             if (c == '\0') {
 971              		.loc 1 424 13 is_stmt 1 view .LVU340
 425:Core/Src/SEGGER_RTT_printf.c ****               break;
 972              		.loc 1 425 13 view .LVU341
 973              	.LBB106:
 974              	.LBI100:
 107:Core/Src/SEGGER_RTT_printf.c ****   unsigned Cnt;
 975              		.loc 1 107 13 view .LVU342
 976              	.LBB103:
 108:Core/Src/SEGGER_RTT_printf.c **** 
 977              		.loc 1 108 3 view .LVU343
 110:Core/Src/SEGGER_RTT_printf.c ****   if ((Cnt + 1u) <= p->BufferSize) {
 978              		.loc 1 110 3 view .LVU344
 979              	.LBE103:
 980              	.LBE106:
 425:Core/Src/SEGGER_RTT_printf.c ****               break;
ARM GAS  /var/folders/0z/tsy30v1j4xl4_7kw94k978ww0000gn/T//ccKHYiv2.s 			page 31


 981              		.loc 1 425 16 is_stmt 0 view .LVU345
 982 0170 0028     		cmp	r0, #0
 983 0172 DBD0     		beq	.L86
 984              	.LBB107:
 985              	.LBB104:
 111:Core/Src/SEGGER_RTT_printf.c ****     *(p->pBuffer + Cnt) = c;
 986              		.loc 1 111 22 view .LVU346
 987 0174 DDE90843 		ldrd	r4, r3, [sp, #32]
 111:Core/Src/SEGGER_RTT_printf.c ****     *(p->pBuffer + Cnt) = c;
 988              		.loc 1 111 12 view .LVU347
 989 0178 5A1C     		adds	r2, r3, #1
 111:Core/Src/SEGGER_RTT_printf.c ****     *(p->pBuffer + Cnt) = c;
 990              		.loc 1 111 6 view .LVU348
 991 017a A242     		cmp	r2, r4
 992 017c 05D8     		bhi	.L119
 114:Core/Src/SEGGER_RTT_printf.c ****   }
 993              		.loc 1 114 19 view .LVU349
 994 017e 0137     		adds	r7, r7, #1
 112:Core/Src/SEGGER_RTT_printf.c ****     p->Cnt = Cnt + 1u;
 995              		.loc 1 112 25 view .LVU350
 996 0180 0799     		ldr	r1, [sp, #28]
 114:Core/Src/SEGGER_RTT_printf.c ****   }
 997              		.loc 1 114 19 view .LVU351
 998 0182 CDE90927 		strd	r2, r7, [sp, #36]
 112:Core/Src/SEGGER_RTT_printf.c ****     p->Cnt = Cnt + 1u;
 999              		.loc 1 112 25 view .LVU352
 1000 0186 C854     		strb	r0, [r1, r3]
 113:Core/Src/SEGGER_RTT_printf.c ****     p->ReturnValue++;
 1001              		.loc 1 113 5 is_stmt 1 view .LVU353
 114:Core/Src/SEGGER_RTT_printf.c ****   }
 1002              		.loc 1 114 19 is_stmt 0 view .LVU354
 1003 0188 1346     		mov	r3, r2
 1004              	.L119:
 119:Core/Src/SEGGER_RTT_printf.c ****     if (SEGGER_RTT_Write(p->RTTBufferIndex, p->pBuffer, p->Cnt) != p->Cnt) {
 1005              		.loc 1 119 6 view .LVU355
 1006 018a 9C42     		cmp	r4, r3
 1007 018c EED1     		bne	.L140
 120:Core/Src/SEGGER_RTT_printf.c ****       p->ReturnValue = -1;
 1008              		.loc 1 120 5 is_stmt 1 view .LVU356
 120:Core/Src/SEGGER_RTT_printf.c ****       p->ReturnValue = -1;
 1009              		.loc 1 120 9 is_stmt 0 view .LVU357
 1010 018e 0799     		ldr	r1, [sp, #28]
 1011 0190 0B98     		ldr	r0, [sp, #44]
 1012              	.LVL85:
 120:Core/Src/SEGGER_RTT_printf.c ****       p->ReturnValue = -1;
 1013              		.loc 1 120 9 view .LVU358
 1014 0192 2246     		mov	r2, r4
 1015 0194 FFF7FEFF 		bl	SEGGER_RTT_Write
 1016              	.LVL86:
 120:Core/Src/SEGGER_RTT_printf.c ****       p->ReturnValue = -1;
 1017              		.loc 1 120 8 view .LVU359
 1018 0198 A042     		cmp	r0, r4
 1019 019a 7FF45EAF 		bne	.L96
 123:Core/Src/SEGGER_RTT_printf.c ****     }
 1020              		.loc 1 123 7 is_stmt 1 view .LVU360
 123:Core/Src/SEGGER_RTT_printf.c ****     }
 1021              		.loc 1 123 14 is_stmt 0 view .LVU361
ARM GAS  /var/folders/0z/tsy30v1j4xl4_7kw94k978ww0000gn/T//ccKHYiv2.s 			page 32


 1022 019e CDF82480 		str	r8, [sp, #36]
 1023              	.LVL87:
 123:Core/Src/SEGGER_RTT_printf.c ****     }
 1024              		.loc 1 123 14 view .LVU362
 1025              	.LBE104:
 1026              	.LBE107:
 429:Core/Src/SEGGER_RTT_printf.c ****         }
 1027              		.loc 1 429 43 is_stmt 1 view .LVU363
 1028 01a2 E3E7     		b	.L140
 1029              	.LVL88:
 1030              	.L91:
 429:Core/Src/SEGGER_RTT_printf.c ****         }
 1031              		.loc 1 429 43 is_stmt 0 view .LVU364
 1032              	.LBE99:
 433:Core/Src/SEGGER_RTT_printf.c ****         _PrintUnsigned(&BufferDesc, (unsigned)v, 16u, 8u, 8u, 0u);
 1033              		.loc 1 433 9 is_stmt 1 view .LVU365
 433:Core/Src/SEGGER_RTT_printf.c ****         _PrintUnsigned(&BufferDesc, (unsigned)v, 16u, 8u, 8u, 0u);
 1034              		.loc 1 433 11 is_stmt 0 view .LVU366
 1035 01a4 DBF80030 		ldr	r3, [fp]
 434:Core/Src/SEGGER_RTT_printf.c ****         break;
 1036              		.loc 1 434 9 view .LVU367
 1037 01a8 1E68     		ldr	r6, [r3]
 433:Core/Src/SEGGER_RTT_printf.c ****         _PrintUnsigned(&BufferDesc, (unsigned)v, 16u, 8u, 8u, 0u);
 1038              		.loc 1 433 11 view .LVU368
 1039 01aa 0433     		adds	r3, r3, #4
 1040              	.LBB108:
 1041              	.LBB109:
 146:Core/Src/SEGGER_RTT_printf.c ****     Number = (Number / Base);
 1042              		.loc 1 146 17 view .LVU369
 1043 01ac 0F2E     		cmp	r6, #15
 1044              	.LBE109:
 1045              	.LBE108:
 433:Core/Src/SEGGER_RTT_printf.c ****         _PrintUnsigned(&BufferDesc, (unsigned)v, 16u, 8u, 8u, 0u);
 1046              		.loc 1 433 11 view .LVU370
 1047 01ae CBF80030 		str	r3, [fp]
 434:Core/Src/SEGGER_RTT_printf.c ****         break;
 1048              		.loc 1 434 9 is_stmt 1 view .LVU371
 1049              	.LVL89:
 1050              	.LBB120:
 1051              	.LBI108:
 132:Core/Src/SEGGER_RTT_printf.c ****   static const char _aV2C[16] = {'0', '1', '2', '3', '4', '5', '6', '7', '8', '9', 'A', 'B', 'C', '
 1052              		.loc 1 132 13 view .LVU372
 1053              	.LBB118:
 146:Core/Src/SEGGER_RTT_printf.c ****     Number = (Number / Base);
 1054              		.loc 1 146 17 view .LVU373
 1055 01b2 03D9     		bls	.L122
 1056 01b4 3346     		mov	r3, r6
 1057              	.LVL90:
 1058              	.L123:
 147:Core/Src/SEGGER_RTT_printf.c ****     Width++;
 1059              		.loc 1 147 5 view .LVU374
 147:Core/Src/SEGGER_RTT_printf.c ****     Width++;
 1060              		.loc 1 147 12 is_stmt 0 view .LVU375
 1061 01b6 1B09     		lsrs	r3, r3, #4
 1062              	.LVL91:
 148:Core/Src/SEGGER_RTT_printf.c ****   }
 1063              		.loc 1 148 5 is_stmt 1 view .LVU376
ARM GAS  /var/folders/0z/tsy30v1j4xl4_7kw94k978ww0000gn/T//ccKHYiv2.s 			page 33


 146:Core/Src/SEGGER_RTT_printf.c ****     Number = (Number / Base);
 1064              		.loc 1 146 17 view .LVU377
 1065 01b8 0F2B     		cmp	r3, #15
 1066 01ba FCD8     		bhi	.L123
 1067              	.LVL92:
 1068              	.L122:
 150:Core/Src/SEGGER_RTT_printf.c ****     Width = NumDigits;
 1069              		.loc 1 150 3 view .LVU378
 156:Core/Src/SEGGER_RTT_printf.c ****     if (FieldWidth != 0u) {
 1070              		.loc 1 156 3 view .LVU379
 157:Core/Src/SEGGER_RTT_printf.c ****       if (((FormatFlags & FORMAT_FLAG_PAD_ZERO) == FORMAT_FLAG_PAD_ZERO) && (NumDigits == 0u)) {
 1071              		.loc 1 157 5 view .LVU380
 158:Core/Src/SEGGER_RTT_printf.c ****         c = '0';
 1072              		.loc 1 158 7 view .LVU381
 161:Core/Src/SEGGER_RTT_printf.c ****       }
 1073              		.loc 1 161 9 view .LVU382
 163:Core/Src/SEGGER_RTT_printf.c ****         FieldWidth--;
 1074              		.loc 1 163 33 view .LVU383
 172:Core/Src/SEGGER_RTT_printf.c ****     //
 1075              		.loc 1 172 3 view .LVU384
 180:Core/Src/SEGGER_RTT_printf.c ****       } else {
 1076              		.loc 1 180 9 view .LVU385
 187:Core/Src/SEGGER_RTT_printf.c ****     }
 1077              		.loc 1 187 7 view .LVU386
 178:Core/Src/SEGGER_RTT_printf.c ****       if (NumDigits > 1u) {       // User specified a min number of digits to print? => Make sure w
 1078              		.loc 1 178 11 view .LVU387
 178:Core/Src/SEGGER_RTT_printf.c ****       if (NumDigits > 1u) {       // User specified a min number of digits to print? => Make sure w
 1079              		.loc 1 178 5 view .LVU388
 179:Core/Src/SEGGER_RTT_printf.c ****         NumDigits--;
 1080              		.loc 1 179 7 view .LVU389
 180:Core/Src/SEGGER_RTT_printf.c ****       } else {
 1081              		.loc 1 180 9 view .LVU390
 187:Core/Src/SEGGER_RTT_printf.c ****     }
 1082              		.loc 1 187 7 view .LVU391
 178:Core/Src/SEGGER_RTT_printf.c ****       if (NumDigits > 1u) {       // User specified a min number of digits to print? => Make sure w
 1083              		.loc 1 178 11 view .LVU392
 178:Core/Src/SEGGER_RTT_printf.c ****       if (NumDigits > 1u) {       // User specified a min number of digits to print? => Make sure w
 1084              		.loc 1 178 5 view .LVU393
 179:Core/Src/SEGGER_RTT_printf.c ****         NumDigits--;
 1085              		.loc 1 179 7 view .LVU394
 180:Core/Src/SEGGER_RTT_printf.c ****       } else {
 1086              		.loc 1 180 9 view .LVU395
 187:Core/Src/SEGGER_RTT_printf.c ****     }
 1087              		.loc 1 187 7 view .LVU396
 178:Core/Src/SEGGER_RTT_printf.c ****       if (NumDigits > 1u) {       // User specified a min number of digits to print? => Make sure w
 1088              		.loc 1 178 11 view .LVU397
 178:Core/Src/SEGGER_RTT_printf.c ****       if (NumDigits > 1u) {       // User specified a min number of digits to print? => Make sure w
 1089              		.loc 1 178 5 view .LVU398
 179:Core/Src/SEGGER_RTT_printf.c ****         NumDigits--;
 1090              		.loc 1 179 7 view .LVU399
 180:Core/Src/SEGGER_RTT_printf.c ****       } else {
 1091              		.loc 1 180 9 view .LVU400
 187:Core/Src/SEGGER_RTT_printf.c ****     }
 1092              		.loc 1 187 7 view .LVU401
 178:Core/Src/SEGGER_RTT_printf.c ****       if (NumDigits > 1u) {       // User specified a min number of digits to print? => Make sure w
 1093              		.loc 1 178 11 view .LVU402
 178:Core/Src/SEGGER_RTT_printf.c ****       if (NumDigits > 1u) {       // User specified a min number of digits to print? => Make sure w
ARM GAS  /var/folders/0z/tsy30v1j4xl4_7kw94k978ww0000gn/T//ccKHYiv2.s 			page 34


 1094              		.loc 1 178 5 view .LVU403
 179:Core/Src/SEGGER_RTT_printf.c ****         NumDigits--;
 1095              		.loc 1 179 7 view .LVU404
 180:Core/Src/SEGGER_RTT_printf.c ****       } else {
 1096              		.loc 1 180 9 view .LVU405
 187:Core/Src/SEGGER_RTT_printf.c ****     }
 1097              		.loc 1 187 7 view .LVU406
 178:Core/Src/SEGGER_RTT_printf.c ****       if (NumDigits > 1u) {       // User specified a min number of digits to print? => Make sure w
 1098              		.loc 1 178 11 view .LVU407
 178:Core/Src/SEGGER_RTT_printf.c ****       if (NumDigits > 1u) {       // User specified a min number of digits to print? => Make sure w
 1099              		.loc 1 178 5 view .LVU408
 179:Core/Src/SEGGER_RTT_printf.c ****         NumDigits--;
 1100              		.loc 1 179 7 view .LVU409
 180:Core/Src/SEGGER_RTT_printf.c ****       } else {
 1101              		.loc 1 180 9 view .LVU410
 187:Core/Src/SEGGER_RTT_printf.c ****     }
 1102              		.loc 1 187 7 view .LVU411
 178:Core/Src/SEGGER_RTT_printf.c ****       if (NumDigits > 1u) {       // User specified a min number of digits to print? => Make sure w
 1103              		.loc 1 178 11 view .LVU412
 178:Core/Src/SEGGER_RTT_printf.c ****       if (NumDigits > 1u) {       // User specified a min number of digits to print? => Make sure w
 1104              		.loc 1 178 5 view .LVU413
 179:Core/Src/SEGGER_RTT_printf.c ****         NumDigits--;
 1105              		.loc 1 179 7 view .LVU414
 180:Core/Src/SEGGER_RTT_printf.c ****       } else {
 1106              		.loc 1 180 9 view .LVU415
 187:Core/Src/SEGGER_RTT_printf.c ****     }
 1107              		.loc 1 187 7 view .LVU416
 178:Core/Src/SEGGER_RTT_printf.c ****       if (NumDigits > 1u) {       // User specified a min number of digits to print? => Make sure w
 1108              		.loc 1 178 11 view .LVU417
 178:Core/Src/SEGGER_RTT_printf.c ****       if (NumDigits > 1u) {       // User specified a min number of digits to print? => Make sure w
 1109              		.loc 1 178 5 view .LVU418
 179:Core/Src/SEGGER_RTT_printf.c ****         NumDigits--;
 1110              		.loc 1 179 7 view .LVU419
 182:Core/Src/SEGGER_RTT_printf.c ****         if (Div < Base) {        // Is our divider big enough to extract the highest digit from val
 1111              		.loc 1 182 9 view .LVU420
 183:Core/Src/SEGGER_RTT_printf.c ****           break;
 1112              		.loc 1 183 9 view .LVU421
 1113              	.LBE118:
 1114              	.LBE120:
 1115              	.LBB121:
 1116              	.LBB95:
 110:Core/Src/SEGGER_RTT_printf.c ****   if ((Cnt + 1u) <= p->BufferSize) {
 1117              		.loc 1 110 7 is_stmt 0 view .LVU422
 1118 01bc DDE90893 		ldrd	r9, r3, [sp, #32]
 1119 01c0 4FF08054 		mov	r4, #268435456
 1120              	.LBE95:
 1121              	.LBE121:
 1122              	.LBB122:
 1123              	.LBB119:
 1124              	.LBB110:
 1125              	.LBB111:
 123:Core/Src/SEGGER_RTT_printf.c ****     }
 1126              		.loc 1 123 14 view .LVU423
 1127 01c4 4FF00008 		mov	r8, #0
 1128 01c8 04E0     		b	.L139
 1129              	.LVL93:
 1130              	.L125:
ARM GAS  /var/folders/0z/tsy30v1j4xl4_7kw94k978ww0000gn/T//ccKHYiv2.s 			page 35


 123:Core/Src/SEGGER_RTT_printf.c ****     }
 1131              		.loc 1 123 14 view .LVU424
 1132              	.LBE111:
 1133              	.LBE110:
 196:Core/Src/SEGGER_RTT_printf.c ****         break;
 1134              		.loc 1 196 7 is_stmt 1 view .LVU425
 199:Core/Src/SEGGER_RTT_printf.c ****     } while (Digit);
 1135              		.loc 1 199 7 view .LVU426
 200:Core/Src/SEGGER_RTT_printf.c ****     //
 1136              		.loc 1 200 14 is_stmt 0 view .LVU427
 1137 01ca 0F2C     		cmp	r4, #15
 199:Core/Src/SEGGER_RTT_printf.c ****     } while (Digit);
 1138              		.loc 1 199 13 view .LVU428
 1139 01cc 4FEA1412 		lsr	r2, r4, #4
 1140              	.LVL94:
 200:Core/Src/SEGGER_RTT_printf.c ****     //
 1141              		.loc 1 200 14 is_stmt 1 view .LVU429
 1142 01d0 ACD9     		bls	.L86
 199:Core/Src/SEGGER_RTT_printf.c ****     } while (Digit);
 1143              		.loc 1 199 13 is_stmt 0 view .LVU430
 1144 01d2 1446     		mov	r4, r2
 1145              	.LVL95:
 1146              	.L139:
 192:Core/Src/SEGGER_RTT_printf.c ****       Div = v / Digit;
 1147              		.loc 1 192 5 is_stmt 1 view .LVU431
 193:Core/Src/SEGGER_RTT_printf.c ****       v -= Div * Digit;
 1148              		.loc 1 193 7 view .LVU432
 194:Core/Src/SEGGER_RTT_printf.c ****       _StoreChar(pBufferDesc, _aV2C[Div]);
 1149              		.loc 1 194 7 view .LVU433
 1150              	.LBB115:
 1151              	.LBB112:
 112:Core/Src/SEGGER_RTT_printf.c ****     p->Cnt = Cnt + 1u;
 1152              		.loc 1 112 5 view .LVU434
 119:Core/Src/SEGGER_RTT_printf.c ****     if (SEGGER_RTT_Write(p->RTTBufferIndex, p->pBuffer, p->Cnt) != p->Cnt) {
 1153              		.loc 1 119 3 view .LVU435
 111:Core/Src/SEGGER_RTT_printf.c ****     *(p->pBuffer + Cnt) = c;
 1154              		.loc 1 111 12 is_stmt 0 view .LVU436
 1155 01d4 591C     		adds	r1, r3, #1
 111:Core/Src/SEGGER_RTT_printf.c ****     *(p->pBuffer + Cnt) = c;
 1156              		.loc 1 111 6 view .LVU437
 1157 01d6 4945     		cmp	r1, r9
 1158 01d8 B6FBF4F0 		udiv	r0, r6, r4
 1159              	.LVL96:
 111:Core/Src/SEGGER_RTT_printf.c ****     *(p->pBuffer + Cnt) = c;
 1160              		.loc 1 111 6 view .LVU438
 1161 01dc 04FB1066 		mls	r6, r4, r0, r6
 1162              	.LVL97:
 111:Core/Src/SEGGER_RTT_printf.c ****     *(p->pBuffer + Cnt) = c;
 1163              		.loc 1 111 6 view .LVU439
 1164              	.LBE112:
 1165              	.LBE115:
 195:Core/Src/SEGGER_RTT_printf.c ****       if (pBufferDesc->ReturnValue < 0) {
 1166              		.loc 1 195 7 is_stmt 1 view .LVU440
 1167              	.LBB116:
 1168              	.LBI110:
 107:Core/Src/SEGGER_RTT_printf.c ****   unsigned Cnt;
 1169              		.loc 1 107 13 view .LVU441
ARM GAS  /var/folders/0z/tsy30v1j4xl4_7kw94k978ww0000gn/T//ccKHYiv2.s 			page 36


 1170              	.LBB113:
 108:Core/Src/SEGGER_RTT_printf.c **** 
 1171              		.loc 1 108 3 view .LVU442
 110:Core/Src/SEGGER_RTT_printf.c ****   if ((Cnt + 1u) <= p->BufferSize) {
 1172              		.loc 1 110 3 view .LVU443
 111:Core/Src/SEGGER_RTT_printf.c ****     *(p->pBuffer + Cnt) = c;
 1173              		.loc 1 111 3 view .LVU444
 111:Core/Src/SEGGER_RTT_printf.c ****     *(p->pBuffer + Cnt) = c;
 1174              		.loc 1 111 6 is_stmt 0 view .LVU445
 1175 01e0 08D8     		bhi	.L124
 1176              	.LBE113:
 1177              	.LBE116:
 193:Core/Src/SEGGER_RTT_printf.c ****       v -= Div * Digit;
 1178              		.loc 1 193 11 view .LVU446
 1179 01e2 0246     		mov	r2, r0
 1180              	.LBB117:
 1181              	.LBB114:
 112:Core/Src/SEGGER_RTT_printf.c ****     p->Cnt = Cnt + 1u;
 1182              		.loc 1 112 25 view .LVU447
 1183 01e4 A948     		ldr	r0, .L205
 1184              	.LVL98:
 114:Core/Src/SEGGER_RTT_printf.c ****   }
 1185              		.loc 1 114 19 view .LVU448
 1186 01e6 0137     		adds	r7, r7, #1
 112:Core/Src/SEGGER_RTT_printf.c ****     p->Cnt = Cnt + 1u;
 1187              		.loc 1 112 25 view .LVU449
 1188 01e8 805C     		ldrb	r0, [r0, r2]	@ zero_extendqisi2
 1189 01ea 079A     		ldr	r2, [sp, #28]
 1190              	.LVL99:
 114:Core/Src/SEGGER_RTT_printf.c ****   }
 1191              		.loc 1 114 19 view .LVU450
 1192 01ec CDE90917 		strd	r1, r7, [sp, #36]
 1193              	.LVL100:
 112:Core/Src/SEGGER_RTT_printf.c ****     p->Cnt = Cnt + 1u;
 1194              		.loc 1 112 25 view .LVU451
 1195 01f0 D054     		strb	r0, [r2, r3]
 113:Core/Src/SEGGER_RTT_printf.c ****     p->ReturnValue++;
 1196              		.loc 1 113 5 is_stmt 1 view .LVU452
 114:Core/Src/SEGGER_RTT_printf.c ****   }
 1197              		.loc 1 114 5 view .LVU453
 114:Core/Src/SEGGER_RTT_printf.c ****   }
 1198              		.loc 1 114 19 is_stmt 0 view .LVU454
 1199 01f2 0B46     		mov	r3, r1
 1200              	.L124:
 119:Core/Src/SEGGER_RTT_printf.c ****     if (SEGGER_RTT_Write(p->RTTBufferIndex, p->pBuffer, p->Cnt) != p->Cnt) {
 1201              		.loc 1 119 6 view .LVU455
 1202 01f4 9945     		cmp	r9, r3
 1203 01f6 E8D1     		bne	.L125
 120:Core/Src/SEGGER_RTT_printf.c ****       p->ReturnValue = -1;
 1204              		.loc 1 120 5 is_stmt 1 view .LVU456
 120:Core/Src/SEGGER_RTT_printf.c ****       p->ReturnValue = -1;
 1205              		.loc 1 120 9 is_stmt 0 view .LVU457
 1206 01f8 0799     		ldr	r1, [sp, #28]
 1207 01fa 0B98     		ldr	r0, [sp, #44]
 1208 01fc 4A46     		mov	r2, r9
 1209 01fe FFF7FEFF 		bl	SEGGER_RTT_Write
 1210              	.LVL101:
ARM GAS  /var/folders/0z/tsy30v1j4xl4_7kw94k978ww0000gn/T//ccKHYiv2.s 			page 37


 120:Core/Src/SEGGER_RTT_printf.c ****       p->ReturnValue = -1;
 1211              		.loc 1 120 8 view .LVU458
 1212 0202 4845     		cmp	r0, r9
 1213 0204 7FF429AF 		bne	.L96
 123:Core/Src/SEGGER_RTT_printf.c ****     }
 1214              		.loc 1 123 7 is_stmt 1 view .LVU459
 123:Core/Src/SEGGER_RTT_printf.c ****     }
 1215              		.loc 1 123 14 is_stmt 0 view .LVU460
 1216 0208 CDF82480 		str	r8, [sp, #36]
 1217 020c 0023     		movs	r3, #0
 1218 020e DCE7     		b	.L125
 1219              	.LVL102:
 1220              	.L92:
 123:Core/Src/SEGGER_RTT_printf.c ****     }
 1221              		.loc 1 123 14 view .LVU461
 1222              	.LBE114:
 1223              	.LBE117:
 1224              	.LBE119:
 1225              	.LBE122:
 407:Core/Src/SEGGER_RTT_printf.c ****         _PrintInt(&BufferDesc, v, 10u, NumDigits, FieldWidth, FormatFlags);
 1226              		.loc 1 407 9 is_stmt 1 view .LVU462
 407:Core/Src/SEGGER_RTT_printf.c ****         _PrintInt(&BufferDesc, v, 10u, NumDigits, FieldWidth, FormatFlags);
 1227              		.loc 1 407 11 is_stmt 0 view .LVU463
 1228 0210 DBF80020 		ldr	r2, [fp]
 1229 0214 D2F80080 		ldr	r8, [r2]
 408:Core/Src/SEGGER_RTT_printf.c ****         break;
 1230              		.loc 1 408 9 is_stmt 1 view .LVU464
 1231              	.LVL103:
 1232              	.LBB123:
 1233              	.LBI62:
 222:Core/Src/SEGGER_RTT_printf.c ****   unsigned Width;
 1234              		.loc 1 222 13 view .LVU465
 1235              	.LBB88:
 223:Core/Src/SEGGER_RTT_printf.c ****   int Number;
 1236              		.loc 1 223 3 view .LVU466
 224:Core/Src/SEGGER_RTT_printf.c **** 
 1237              		.loc 1 224 3 view .LVU467
 226:Core/Src/SEGGER_RTT_printf.c **** 
 1238              		.loc 1 226 3 view .LVU468
 1239              	.LBE88:
 1240              	.LBE123:
 407:Core/Src/SEGGER_RTT_printf.c ****         _PrintInt(&BufferDesc, v, 10u, NumDigits, FieldWidth, FormatFlags);
 1241              		.loc 1 407 11 is_stmt 0 view .LVU469
 1242 0218 0432     		adds	r2, r2, #4
 1243 021a CBF80020 		str	r2, [fp]
 1244              	.LBB124:
 1245              	.LBB89:
 226:Core/Src/SEGGER_RTT_printf.c **** 
 1246              		.loc 1 226 10 view .LVU470
 1247 021e 88EAE872 		eor	r2, r8, r8, asr #31
 1248 0222 A2EBE872 		sub	r2, r2, r8, asr #31
 1249              	.LVL104:
 231:Core/Src/SEGGER_RTT_printf.c ****   while (Number >= (int)Base) {
 1250              		.loc 1 231 3 is_stmt 1 view .LVU471
 232:Core/Src/SEGGER_RTT_printf.c ****     Number = (Number / (int)Base);
 1251              		.loc 1 232 3 view .LVU472
 232:Core/Src/SEGGER_RTT_printf.c ****     Number = (Number / (int)Base);
ARM GAS  /var/folders/0z/tsy30v1j4xl4_7kw94k978ww0000gn/T//ccKHYiv2.s 			page 38


 1252              		.loc 1 232 17 view .LVU473
 1253 0226 092A     		cmp	r2, #9
 231:Core/Src/SEGGER_RTT_printf.c ****   while (Number >= (int)Base) {
 1254              		.loc 1 231 9 is_stmt 0 view .LVU474
 1255 0228 4FF00109 		mov	r9, #1
 232:Core/Src/SEGGER_RTT_printf.c ****     Number = (Number / (int)Base);
 1256              		.loc 1 232 17 view .LVU475
 1257 022c 08DD     		ble	.L97
 1258              	.LVL105:
 1259              	.L98:
 233:Core/Src/SEGGER_RTT_printf.c ****     Width++;
 1260              		.loc 1 233 5 is_stmt 1 view .LVU476
 1261 022e 1146     		mov	r1, r2
 232:Core/Src/SEGGER_RTT_printf.c ****     Number = (Number / (int)Base);
 1262              		.loc 1 232 17 is_stmt 0 view .LVU477
 1263 0230 6329     		cmp	r1, #99
 233:Core/Src/SEGGER_RTT_printf.c ****     Width++;
 1264              		.loc 1 233 12 view .LVU478
 1265 0232 AAFB0202 		umull	r0, r2, r10, r2
 1266              	.LVL106:
 234:Core/Src/SEGGER_RTT_printf.c ****   }
 1267              		.loc 1 234 10 view .LVU479
 1268 0236 09F10109 		add	r9, r9, #1
 1269              	.LVL107:
 233:Core/Src/SEGGER_RTT_printf.c ****     Width++;
 1270              		.loc 1 233 12 view .LVU480
 1271 023a 4FEAD202 		lsr	r2, r2, #3
 1272              	.LVL108:
 234:Core/Src/SEGGER_RTT_printf.c ****   }
 1273              		.loc 1 234 5 is_stmt 1 view .LVU481
 232:Core/Src/SEGGER_RTT_printf.c ****     Number = (Number / (int)Base);
 1274              		.loc 1 232 17 view .LVU482
 1275 023e F6DC     		bgt	.L98
 1276              	.LVL109:
 1277              	.L97:
 236:Core/Src/SEGGER_RTT_printf.c ****     Width = NumDigits;
 1278              		.loc 1 236 3 view .LVU483
 1279 0240 9945     		cmp	r9, r3
 1280 0242 38BF     		it	cc
 1281 0244 9946     		movcc	r9, r3
 1282              	.LVL110:
 239:Core/Src/SEGGER_RTT_printf.c ****     FieldWidth--;
 1283              		.loc 1 239 3 view .LVU484
 239:Core/Src/SEGGER_RTT_printf.c ****     FieldWidth--;
 1284              		.loc 1 239 6 is_stmt 0 view .LVU485
 1285 0246 002C     		cmp	r4, #0
 1286 0248 5DD1     		bne	.L197
 1287              	.LVL111:
 1288              	.L138:
 261:Core/Src/SEGGER_RTT_printf.c ****       v = -v;
 1289              		.loc 1 261 5 is_stmt 1 view .LVU486
 261:Core/Src/SEGGER_RTT_printf.c ****       v = -v;
 1290              		.loc 1 261 8 is_stmt 0 view .LVU487
 1291 024a B8F1000F 		cmp	r8, #0
 1292 024e C0F29F80 		blt	.L198
 264:Core/Src/SEGGER_RTT_printf.c ****       _StoreChar(pBufferDesc, '+');
 1293              		.loc 1 264 12 is_stmt 1 view .LVU488
ARM GAS  /var/folders/0z/tsy30v1j4xl4_7kw94k978ww0000gn/T//ccKHYiv2.s 			page 39


 264:Core/Src/SEGGER_RTT_printf.c ****       _StoreChar(pBufferDesc, '+');
 1294              		.loc 1 264 15 is_stmt 0 view .LVU489
 1295 0252 7207     		lsls	r2, r6, #29
 1296 0254 00F1BF80 		bmi	.L199
 1297              	.L110:
 1298              	.LVL112:
 273:Core/Src/SEGGER_RTT_printf.c ****         if (FieldWidth != 0u) {
 1299              		.loc 1 273 7 is_stmt 1 view .LVU490
 273:Core/Src/SEGGER_RTT_printf.c ****         if (FieldWidth != 0u) {
 1300              		.loc 1 273 74 is_stmt 0 view .LVU491
 1301 0258 06F00302 		and	r2, r6, #3
 273:Core/Src/SEGGER_RTT_printf.c ****         if (FieldWidth != 0u) {
 1302              		.loc 1 273 10 view .LVU492
 1303 025c 022A     		cmp	r2, #2
 1304 025e 00F0D680 		beq	.L200
 1305              	.LVL113:
 1306              	.L135:
 288:Core/Src/SEGGER_RTT_printf.c ****       }
 1307              		.loc 1 288 9 is_stmt 1 view .LVU493
 1308 0262 CDE90046 		strd	r4, r6, [sp]
 1309 0266 4146     		mov	r1, r8
 1310 0268 0A22     		movs	r2, #10
 1311 026a 07A8     		add	r0, sp, #28
 1312              	.LVL114:
 288:Core/Src/SEGGER_RTT_printf.c ****       }
 1313              		.loc 1 288 9 is_stmt 0 view .LVU494
 1314 026c FFF7FEFF 		bl	_PrintUnsigned
 1315              	.LVL115:
 288:Core/Src/SEGGER_RTT_printf.c ****       }
 1316              		.loc 1 288 9 view .LVU495
 1317              	.LBE89:
 1318              	.LBE124:
 446:Core/Src/SEGGER_RTT_printf.c **** 
 1319              		.loc 1 446 22 view .LVU496
 1320 0270 0A9F     		ldr	r7, [sp, #40]
 1321 0272 5BE7     		b	.L86
 1322              	.LVL116:
 1323              	.L93:
 1324              	.LBB125:
 400:Core/Src/SEGGER_RTT_printf.c ****         v = va_arg(*pParamList, int);
 1325              		.loc 1 400 9 is_stmt 1 view .LVU497
 401:Core/Src/SEGGER_RTT_printf.c ****         c0 = (char)v;
 1326              		.loc 1 401 9 view .LVU498
 1327              	.LBB126:
 1328              	.LBB127:
 111:Core/Src/SEGGER_RTT_printf.c ****     *(p->pBuffer + Cnt) = c;
 1329              		.loc 1 111 22 is_stmt 0 view .LVU499
 1330 0274 DDE90843 		ldrd	r4, r3, [sp, #32]
 1331              	.LBE127:
 1332              	.LBE126:
 401:Core/Src/SEGGER_RTT_printf.c ****         c0 = (char)v;
 1333              		.loc 1 401 11 view .LVU500
 1334 0278 DBF80010 		ldr	r1, [fp]
 1335 027c 0A1D     		adds	r2, r1, #4
 1336 027e CBF80020 		str	r2, [fp]
 402:Core/Src/SEGGER_RTT_printf.c ****         _StoreChar(&BufferDesc, c0);
 1337              		.loc 1 402 9 is_stmt 1 view .LVU501
ARM GAS  /var/folders/0z/tsy30v1j4xl4_7kw94k978ww0000gn/T//ccKHYiv2.s 			page 40


 1338              	.LVL117:
 403:Core/Src/SEGGER_RTT_printf.c ****         break;
 1339              		.loc 1 403 9 view .LVU502
 1340              	.LBB131:
 1341              	.LBI126:
 107:Core/Src/SEGGER_RTT_printf.c ****   unsigned Cnt;
 1342              		.loc 1 107 13 view .LVU503
 1343              	.LBB128:
 108:Core/Src/SEGGER_RTT_printf.c **** 
 1344              		.loc 1 108 3 view .LVU504
 110:Core/Src/SEGGER_RTT_printf.c ****   if ((Cnt + 1u) <= p->BufferSize) {
 1345              		.loc 1 110 3 view .LVU505
 111:Core/Src/SEGGER_RTT_printf.c ****     *(p->pBuffer + Cnt) = c;
 1346              		.loc 1 111 3 view .LVU506
 111:Core/Src/SEGGER_RTT_printf.c ****     *(p->pBuffer + Cnt) = c;
 1347              		.loc 1 111 12 is_stmt 0 view .LVU507
 1348 0282 5A1C     		adds	r2, r3, #1
 111:Core/Src/SEGGER_RTT_printf.c ****     *(p->pBuffer + Cnt) = c;
 1349              		.loc 1 111 6 view .LVU508
 1350 0284 A242     		cmp	r2, r4
 1351 0286 06D8     		bhi	.L126
 112:Core/Src/SEGGER_RTT_printf.c ****     p->Cnt = Cnt + 1u;
 1352              		.loc 1 112 5 is_stmt 1 view .LVU509
 114:Core/Src/SEGGER_RTT_printf.c ****   }
 1353              		.loc 1 114 19 is_stmt 0 view .LVU510
 1354 0288 0137     		adds	r7, r7, #1
 1355              	.LBE128:
 1356              	.LBE131:
 402:Core/Src/SEGGER_RTT_printf.c ****         _StoreChar(&BufferDesc, c0);
 1357              		.loc 1 402 12 view .LVU511
 1358 028a 0868     		ldr	r0, [r1]
 1359              	.LBB132:
 1360              	.LBB129:
 112:Core/Src/SEGGER_RTT_printf.c ****     p->Cnt = Cnt + 1u;
 1361              		.loc 1 112 25 view .LVU512
 1362 028c 0799     		ldr	r1, [sp, #28]
 1363              	.LVL118:
 114:Core/Src/SEGGER_RTT_printf.c ****   }
 1364              		.loc 1 114 19 view .LVU513
 1365 028e CDE90927 		strd	r2, r7, [sp, #36]
 1366              	.LBE129:
 1367              	.LBE132:
 402:Core/Src/SEGGER_RTT_printf.c ****         _StoreChar(&BufferDesc, c0);
 1368              		.loc 1 402 12 view .LVU514
 1369 0292 C854     		strb	r0, [r1, r3]
 1370              	.LBB133:
 1371              	.LBB130:
 113:Core/Src/SEGGER_RTT_printf.c ****     p->ReturnValue++;
 1372              		.loc 1 113 5 is_stmt 1 view .LVU515
 114:Core/Src/SEGGER_RTT_printf.c ****   }
 1373              		.loc 1 114 5 view .LVU516
 114:Core/Src/SEGGER_RTT_printf.c ****   }
 1374              		.loc 1 114 19 is_stmt 0 view .LVU517
 1375 0294 1346     		mov	r3, r2
 1376              	.LVL119:
 119:Core/Src/SEGGER_RTT_printf.c ****     if (SEGGER_RTT_Write(p->RTTBufferIndex, p->pBuffer, p->Cnt) != p->Cnt) {
 1377              		.loc 1 119 3 is_stmt 1 view .LVU518
ARM GAS  /var/folders/0z/tsy30v1j4xl4_7kw94k978ww0000gn/T//ccKHYiv2.s 			page 41


 1378              	.L126:
 119:Core/Src/SEGGER_RTT_printf.c ****     if (SEGGER_RTT_Write(p->RTTBufferIndex, p->pBuffer, p->Cnt) != p->Cnt) {
 1379              		.loc 1 119 3 is_stmt 0 view .LVU519
 1380              	.LBE130:
 1381              	.LBE133:
 1382              	.LBE125:
 1383              	.LBB134:
 1384              	.LBB135:
 119:Core/Src/SEGGER_RTT_printf.c ****     if (SEGGER_RTT_Write(p->RTTBufferIndex, p->pBuffer, p->Cnt) != p->Cnt) {
 1385              		.loc 1 119 3 is_stmt 1 view .LVU520
 119:Core/Src/SEGGER_RTT_printf.c ****     if (SEGGER_RTT_Write(p->RTTBufferIndex, p->pBuffer, p->Cnt) != p->Cnt) {
 1386              		.loc 1 119 6 is_stmt 0 view .LVU521
 1387 0296 9C42     		cmp	r4, r3
 1388 0298 7FF448AF 		bne	.L86
 1389              	.L201:
 120:Core/Src/SEGGER_RTT_printf.c ****       p->ReturnValue = -1;
 1390              		.loc 1 120 5 is_stmt 1 view .LVU522
 120:Core/Src/SEGGER_RTT_printf.c ****       p->ReturnValue = -1;
 1391              		.loc 1 120 9 is_stmt 0 view .LVU523
 1392 029c 0799     		ldr	r1, [sp, #28]
 1393 029e 0B98     		ldr	r0, [sp, #44]
 1394 02a0 2246     		mov	r2, r4
 1395 02a2 FFF7FEFF 		bl	SEGGER_RTT_Write
 1396              	.LVL120:
 120:Core/Src/SEGGER_RTT_printf.c ****       p->ReturnValue = -1;
 1397              		.loc 1 120 8 view .LVU524
 1398 02a6 A042     		cmp	r0, r4
 1399 02a8 7FF4D7AE 		bne	.L96
 123:Core/Src/SEGGER_RTT_printf.c ****     }
 1400              		.loc 1 123 7 is_stmt 1 view .LVU525
 123:Core/Src/SEGGER_RTT_printf.c ****     }
 1401              		.loc 1 123 14 is_stmt 0 view .LVU526
 1402 02ac 0023     		movs	r3, #0
 1403              	.LBE135:
 1404              	.LBE134:
 446:Core/Src/SEGGER_RTT_printf.c **** 
 1405              		.loc 1 446 22 view .LVU527
 1406 02ae 0A9F     		ldr	r7, [sp, #40]
 1407              	.LBB138:
 1408              	.LBB136:
 123:Core/Src/SEGGER_RTT_printf.c ****     }
 1409              		.loc 1 123 14 view .LVU528
 1410 02b0 0993     		str	r3, [sp, #36]
 1411 02b2 3BE7     		b	.L86
 1412              	.LVL121:
 1413              	.L193:
 123:Core/Src/SEGGER_RTT_printf.c ****     }
 1414              		.loc 1 123 14 view .LVU529
 1415              	.LBE136:
 1416              	.LBE138:
 1417              	.LBB139:
 1418              	.LBB96:
 123:Core/Src/SEGGER_RTT_printf.c ****     }
 1419              		.loc 1 123 7 is_stmt 1 view .LVU530
 123:Core/Src/SEGGER_RTT_printf.c ****     }
 1420              		.loc 1 123 14 is_stmt 0 view .LVU531
 1421 02b4 0023     		movs	r3, #0
ARM GAS  /var/folders/0z/tsy30v1j4xl4_7kw94k978ww0000gn/T//ccKHYiv2.s 			page 42


 1422 02b6 0993     		str	r3, [sp, #36]
 1423              	.LVL122:
 123:Core/Src/SEGGER_RTT_printf.c ****     }
 1424              		.loc 1 123 14 view .LVU532
 1425 02b8 B3E6     		b	.L132
 1426              	.LVL123:
 1427              	.L194:
 123:Core/Src/SEGGER_RTT_printf.c ****     }
 1428              		.loc 1 123 14 view .LVU533
 1429              	.LBE96:
 1430              	.LBE139:
 373:Core/Src/SEGGER_RTT_printf.c ****         do {
 1431              		.loc 1 373 9 is_stmt 1 view .LVU534
 375:Core/Src/SEGGER_RTT_printf.c ****           if ((c < '0') || (c > '9')) {
 1432              		.loc 1 375 13 is_stmt 0 view .LVU535
 1433 02ba 6978     		ldrb	r1, [r5, #1]	@ zero_extendqisi2
 376:Core/Src/SEGGER_RTT_printf.c ****             break;
 1434              		.loc 1 376 14 view .LVU536
 1435 02bc A1F13003 		sub	r3, r1, #48
 1436 02c0 092B     		cmp	r3, #9
 373:Core/Src/SEGGER_RTT_printf.c ****         do {
 1437              		.loc 1 373 16 view .LVU537
 1438 02c2 05F10105 		add	r5, r5, #1
 1439              	.LVL124:
 374:Core/Src/SEGGER_RTT_printf.c ****           c = *sFormat;
 1440              		.loc 1 374 9 is_stmt 1 view .LVU538
 375:Core/Src/SEGGER_RTT_printf.c ****           if ((c < '0') || (c > '9')) {
 1441              		.loc 1 375 11 view .LVU539
 376:Core/Src/SEGGER_RTT_printf.c ****             break;
 1442              		.loc 1 376 11 view .LVU540
 370:Core/Src/SEGGER_RTT_printf.c ****       c = *sFormat;
 1443              		.loc 1 370 17 is_stmt 0 view .LVU541
 1444 02c6 4FF00003 		mov	r3, #0
 376:Core/Src/SEGGER_RTT_printf.c ****             break;
 1445              		.loc 1 376 14 view .LVU542
 1446 02ca 3FF6F6AE 		bhi	.L185
 1447              	.LVL125:
 1448              	.L82:
 379:Core/Src/SEGGER_RTT_printf.c ****           NumDigits = NumDigits * 10u + ((unsigned)c - '0');
 1449              		.loc 1 379 11 is_stmt 1 view .LVU543
 380:Core/Src/SEGGER_RTT_printf.c ****         } while (1);
 1450              		.loc 1 380 11 view .LVU544
 380:Core/Src/SEGGER_RTT_printf.c ****         } while (1);
 1451              		.loc 1 380 33 is_stmt 0 view .LVU545
 1452 02ce 03EB8303 		add	r3, r3, r3, lsl #2
 1453              	.LVL126:
 380:Core/Src/SEGGER_RTT_printf.c ****         } while (1);
 1454              		.loc 1 380 39 view .LVU546
 1455 02d2 01EB4303 		add	r3, r1, r3, lsl #1
 375:Core/Src/SEGGER_RTT_printf.c ****           if ((c < '0') || (c > '9')) {
 1456              		.loc 1 375 13 view .LVU547
 1457 02d6 15F8011F 		ldrb	r1, [r5, #1]!	@ zero_extendqisi2
 1458              	.LVL127:
 376:Core/Src/SEGGER_RTT_printf.c ****             break;
 1459              		.loc 1 376 14 view .LVU548
 1460 02da A1F13002 		sub	r2, r1, #48
 1461 02de 092A     		cmp	r2, #9
ARM GAS  /var/folders/0z/tsy30v1j4xl4_7kw94k978ww0000gn/T//ccKHYiv2.s 			page 43


 380:Core/Src/SEGGER_RTT_printf.c ****         } while (1);
 1462              		.loc 1 380 21 view .LVU549
 1463 02e0 A3F13003 		sub	r3, r3, #48
 1464              	.LVL128:
 374:Core/Src/SEGGER_RTT_printf.c ****           c = *sFormat;
 1465              		.loc 1 374 12 is_stmt 1 view .LVU550
 374:Core/Src/SEGGER_RTT_printf.c ****           c = *sFormat;
 1466              		.loc 1 374 9 view .LVU551
 375:Core/Src/SEGGER_RTT_printf.c ****           if ((c < '0') || (c > '9')) {
 1467              		.loc 1 375 11 view .LVU552
 376:Core/Src/SEGGER_RTT_printf.c ****             break;
 1468              		.loc 1 376 11 view .LVU553
 376:Core/Src/SEGGER_RTT_printf.c ****             break;
 1469              		.loc 1 376 14 is_stmt 0 view .LVU554
 1470 02e4 F3D9     		bls	.L82
 1471 02e6 E8E6     		b	.L185
 1472              	.LVL129:
 1473              	.L85:
 437:Core/Src/SEGGER_RTT_printf.c ****         break;
 1474              		.loc 1 437 9 is_stmt 1 view .LVU555
 1475              	.LBB140:
 1476              	.LBI134:
 107:Core/Src/SEGGER_RTT_printf.c ****   unsigned Cnt;
 1477              		.loc 1 107 13 view .LVU556
 1478              	.LBB137:
 108:Core/Src/SEGGER_RTT_printf.c **** 
 1479              		.loc 1 108 3 view .LVU557
 110:Core/Src/SEGGER_RTT_printf.c ****   if ((Cnt + 1u) <= p->BufferSize) {
 1480              		.loc 1 110 3 view .LVU558
 111:Core/Src/SEGGER_RTT_printf.c ****     *(p->pBuffer + Cnt) = c;
 1481              		.loc 1 111 22 is_stmt 0 view .LVU559
 1482 02e8 DDE90843 		ldrd	r4, r3, [sp, #32]
 111:Core/Src/SEGGER_RTT_printf.c ****     *(p->pBuffer + Cnt) = c;
 1483              		.loc 1 111 12 view .LVU560
 1484 02ec 5A1C     		adds	r2, r3, #1
 111:Core/Src/SEGGER_RTT_printf.c ****     *(p->pBuffer + Cnt) = c;
 1485              		.loc 1 111 6 view .LVU561
 1486 02ee A242     		cmp	r2, r4
 1487 02f0 D1D8     		bhi	.L126
 112:Core/Src/SEGGER_RTT_printf.c ****     p->Cnt = Cnt + 1u;
 1488              		.loc 1 112 5 is_stmt 1 view .LVU562
 112:Core/Src/SEGGER_RTT_printf.c ****     p->Cnt = Cnt + 1u;
 1489              		.loc 1 112 25 is_stmt 0 view .LVU563
 1490 02f2 0798     		ldr	r0, [sp, #28]
 1491 02f4 C154     		strb	r1, [r0, r3]
 113:Core/Src/SEGGER_RTT_printf.c ****     p->ReturnValue++;
 1492              		.loc 1 113 5 is_stmt 1 view .LVU564
 114:Core/Src/SEGGER_RTT_printf.c ****   }
 1493              		.loc 1 114 5 view .LVU565
 114:Core/Src/SEGGER_RTT_printf.c ****   }
 1494              		.loc 1 114 19 is_stmt 0 view .LVU566
 1495 02f6 1346     		mov	r3, r2
 119:Core/Src/SEGGER_RTT_printf.c ****     if (SEGGER_RTT_Write(p->RTTBufferIndex, p->pBuffer, p->Cnt) != p->Cnt) {
 1496              		.loc 1 119 3 is_stmt 1 view .LVU567
 114:Core/Src/SEGGER_RTT_printf.c ****   }
 1497              		.loc 1 114 19 is_stmt 0 view .LVU568
 1498 02f8 0137     		adds	r7, r7, #1
ARM GAS  /var/folders/0z/tsy30v1j4xl4_7kw94k978ww0000gn/T//ccKHYiv2.s 			page 44


 119:Core/Src/SEGGER_RTT_printf.c ****     if (SEGGER_RTT_Write(p->RTTBufferIndex, p->pBuffer, p->Cnt) != p->Cnt) {
 1499              		.loc 1 119 6 view .LVU569
 1500 02fa 9C42     		cmp	r4, r3
 114:Core/Src/SEGGER_RTT_printf.c ****   }
 1501              		.loc 1 114 19 view .LVU570
 1502 02fc CDE90927 		strd	r2, r7, [sp, #36]
 119:Core/Src/SEGGER_RTT_printf.c ****     if (SEGGER_RTT_Write(p->RTTBufferIndex, p->pBuffer, p->Cnt) != p->Cnt) {
 1503              		.loc 1 119 6 view .LVU571
 1504 0300 7FF414AF 		bne	.L86
 1505 0304 CAE7     		b	.L201
 1506              	.LVL130:
 1507              	.L197:
 119:Core/Src/SEGGER_RTT_printf.c ****     if (SEGGER_RTT_Write(p->RTTBufferIndex, p->pBuffer, p->Cnt) != p->Cnt) {
 1508              		.loc 1 119 6 view .LVU572
 1509              	.LBE137:
 1510              	.LBE140:
 1511              	.LBB141:
 1512              	.LBB90:
 239:Core/Src/SEGGER_RTT_printf.c ****     FieldWidth--;
 1513              		.loc 1 239 25 view .LVU573
 1514 0306 B8F1000F 		cmp	r8, #0
 1515 030a 2BDB     		blt	.L100
 239:Core/Src/SEGGER_RTT_printf.c ****     FieldWidth--;
 1516              		.loc 1 239 37 view .LVU574
 1517 030c 7007     		lsls	r0, r6, #29
 1518 030e 29D4     		bmi	.L100
 1519              	.L101:
 246:Core/Src/SEGGER_RTT_printf.c ****     if (FieldWidth != 0u) {
 1520              		.loc 1 246 3 is_stmt 1 view .LVU575
 246:Core/Src/SEGGER_RTT_printf.c ****     if (FieldWidth != 0u) {
 1521              		.loc 1 246 6 is_stmt 0 view .LVU576
 1522 0310 B107     		lsls	r1, r6, #30
 1523 0312 01D5     		bpl	.L102
 246:Core/Src/SEGGER_RTT_printf.c ****     if (FieldWidth != 0u) {
 1524              		.loc 1 246 53 view .LVU577
 1525 0314 002B     		cmp	r3, #0
 1526 0316 98D0     		beq	.L138
 1527              	.L102:
 246:Core/Src/SEGGER_RTT_printf.c ****     if (FieldWidth != 0u) {
 1528              		.loc 1 246 75 view .LVU578
 1529 0318 16F00102 		ands	r2, r6, #1
 1530              	.LVL131:
 246:Core/Src/SEGGER_RTT_printf.c ****     if (FieldWidth != 0u) {
 1531              		.loc 1 246 75 view .LVU579
 1532 031c 0392     		str	r2, [sp, #12]
 1533 031e 94D1     		bne	.L138
 247:Core/Src/SEGGER_RTT_printf.c ****       while ((FieldWidth != 0u) && (Width < FieldWidth)) {
 1534              		.loc 1 247 5 is_stmt 1 view .LVU580
 247:Core/Src/SEGGER_RTT_printf.c ****       while ((FieldWidth != 0u) && (Width < FieldWidth)) {
 1535              		.loc 1 247 8 is_stmt 0 view .LVU581
 1536 0320 002C     		cmp	r4, #0
 1537 0322 92D0     		beq	.L138
 1538 0324 CDE90463 		strd	r6, r3, [sp, #16]
 1539 0328 4B46     		mov	r3, r9
 1540              	.LVL132:
 247:Core/Src/SEGGER_RTT_printf.c ****       while ((FieldWidth != 0u) && (Width < FieldWidth)) {
 1541              		.loc 1 247 8 view .LVU582
ARM GAS  /var/folders/0z/tsy30v1j4xl4_7kw94k978ww0000gn/T//ccKHYiv2.s 			page 45


 1542 032a A946     		mov	r9, r5
 1543              	.LVL133:
 247:Core/Src/SEGGER_RTT_printf.c ****       while ((FieldWidth != 0u) && (Width < FieldWidth)) {
 1544              		.loc 1 247 8 view .LVU583
 1545 032c 1D46     		mov	r5, r3
 1546              	.LVL134:
 1547              	.L103:
 249:Core/Src/SEGGER_RTT_printf.c ****         _StoreChar(pBufferDesc, ' ');
 1548              		.loc 1 249 9 is_stmt 1 view .LVU584
 1549              	.LBB64:
 1550              	.LBB65:
 112:Core/Src/SEGGER_RTT_printf.c ****     p->Cnt = Cnt + 1u;
 1551              		.loc 1 112 5 view .LVU585
 119:Core/Src/SEGGER_RTT_printf.c ****     if (SEGGER_RTT_Write(p->RTTBufferIndex, p->pBuffer, p->Cnt) != p->Cnt) {
 1552              		.loc 1 119 3 view .LVU586
 119:Core/Src/SEGGER_RTT_printf.c ****     if (SEGGER_RTT_Write(p->RTTBufferIndex, p->pBuffer, p->Cnt) != p->Cnt) {
 1553              		.loc 1 119 3 is_stmt 0 view .LVU587
 1554              	.LBE65:
 1555              	.LBE64:
 248:Core/Src/SEGGER_RTT_printf.c ****         FieldWidth--;
 1556              		.loc 1 248 33 view .LVU588
 1557 032e A542     		cmp	r5, r4
 1558 0330 12D2     		bcs	.L186
 1559              	.LBB69:
 1560              	.LBB66:
 110:Core/Src/SEGGER_RTT_printf.c ****   if ((Cnt + 1u) <= p->BufferSize) {
 1561              		.loc 1 110 7 view .LVU589
 1562 0332 0999     		ldr	r1, [sp, #36]
 111:Core/Src/SEGGER_RTT_printf.c ****     *(p->pBuffer + Cnt) = c;
 1563              		.loc 1 111 22 view .LVU590
 1564 0334 089E     		ldr	r6, [sp, #32]
 111:Core/Src/SEGGER_RTT_printf.c ****     *(p->pBuffer + Cnt) = c;
 1565              		.loc 1 111 12 view .LVU591
 1566 0336 4B1C     		adds	r3, r1, #1
 111:Core/Src/SEGGER_RTT_printf.c ****     *(p->pBuffer + Cnt) = c;
 1567              		.loc 1 111 6 view .LVU592
 1568 0338 B342     		cmp	r3, r6
 1569              	.LBE66:
 1570              	.LBE69:
 249:Core/Src/SEGGER_RTT_printf.c ****         _StoreChar(pBufferDesc, ' ');
 1571              		.loc 1 249 19 view .LVU593
 1572 033a 04F1FF34 		add	r4, r4, #-1
 1573              	.LVL135:
 250:Core/Src/SEGGER_RTT_printf.c ****         if (pBufferDesc->ReturnValue < 0) {
 1574              		.loc 1 250 9 is_stmt 1 view .LVU594
 1575              	.LBB70:
 1576              	.LBI64:
 107:Core/Src/SEGGER_RTT_printf.c ****   unsigned Cnt;
 1577              		.loc 1 107 13 view .LVU595
 1578              	.LBB67:
 108:Core/Src/SEGGER_RTT_printf.c **** 
 1579              		.loc 1 108 3 view .LVU596
 110:Core/Src/SEGGER_RTT_printf.c ****   if ((Cnt + 1u) <= p->BufferSize) {
 1580              		.loc 1 110 3 view .LVU597
 111:Core/Src/SEGGER_RTT_printf.c ****     *(p->pBuffer + Cnt) = c;
 1581              		.loc 1 111 3 view .LVU598
 111:Core/Src/SEGGER_RTT_printf.c ****     *(p->pBuffer + Cnt) = c;
ARM GAS  /var/folders/0z/tsy30v1j4xl4_7kw94k978ww0000gn/T//ccKHYiv2.s 			page 46


 1582              		.loc 1 111 6 is_stmt 0 view .LVU599
 1583 033e 07D8     		bhi	.L104
 114:Core/Src/SEGGER_RTT_printf.c ****   }
 1584              		.loc 1 114 19 view .LVU600
 1585 0340 0137     		adds	r7, r7, #1
 112:Core/Src/SEGGER_RTT_printf.c ****     p->Cnt = Cnt + 1u;
 1586              		.loc 1 112 25 view .LVU601
 1587 0342 0798     		ldr	r0, [sp, #28]
 114:Core/Src/SEGGER_RTT_printf.c ****   }
 1588              		.loc 1 114 19 view .LVU602
 1589 0344 CDE90937 		strd	r3, r7, [sp, #36]
 112:Core/Src/SEGGER_RTT_printf.c ****     p->Cnt = Cnt + 1u;
 1590              		.loc 1 112 25 view .LVU603
 1591 0348 4FF02002 		mov	r2, #32
 1592 034c 4254     		strb	r2, [r0, r1]
 113:Core/Src/SEGGER_RTT_printf.c ****     p->ReturnValue++;
 1593              		.loc 1 113 5 is_stmt 1 view .LVU604
 114:Core/Src/SEGGER_RTT_printf.c ****   }
 1594              		.loc 1 114 5 view .LVU605
 114:Core/Src/SEGGER_RTT_printf.c ****   }
 1595              		.loc 1 114 19 is_stmt 0 view .LVU606
 1596 034e 1946     		mov	r1, r3
 1597              	.LVL136:
 1598              	.L104:
 119:Core/Src/SEGGER_RTT_printf.c ****     if (SEGGER_RTT_Write(p->RTTBufferIndex, p->pBuffer, p->Cnt) != p->Cnt) {
 1599              		.loc 1 119 6 view .LVU607
 1600 0350 8E42     		cmp	r6, r1
 1601 0352 09D0     		beq	.L202
 1602              	.LVL137:
 119:Core/Src/SEGGER_RTT_printf.c ****     if (SEGGER_RTT_Write(p->RTTBufferIndex, p->pBuffer, p->Cnt) != p->Cnt) {
 1603              		.loc 1 119 6 view .LVU608
 1604              	.LBE67:
 1605              	.LBE70:
 251:Core/Src/SEGGER_RTT_printf.c ****           break;
 1606              		.loc 1 251 9 is_stmt 1 view .LVU609
 248:Core/Src/SEGGER_RTT_printf.c ****         FieldWidth--;
 1607              		.loc 1 248 33 view .LVU610
 1608 0354 002C     		cmp	r4, #0
 1609 0356 EAD1     		bne	.L103
 1610              	.L186:
 248:Core/Src/SEGGER_RTT_printf.c ****         FieldWidth--;
 1611              		.loc 1 248 33 is_stmt 0 view .LVU611
 1612 0358 2A46     		mov	r2, r5
 1613 035a DDE90463 		ldrd	r6, r3, [sp, #16]
 1614 035e 4D46     		mov	r5, r9
 1615              	.LVL138:
 248:Core/Src/SEGGER_RTT_printf.c ****         FieldWidth--;
 1616              		.loc 1 248 33 view .LVU612
 1617 0360 9146     		mov	r9, r2
 1618              	.LVL139:
 248:Core/Src/SEGGER_RTT_printf.c ****         FieldWidth--;
 1619              		.loc 1 248 33 view .LVU613
 1620 0362 72E7     		b	.L138
 1621              	.LVL140:
 1622              	.L100:
 240:Core/Src/SEGGER_RTT_printf.c ****   }
 1623              		.loc 1 240 5 is_stmt 1 view .LVU614
ARM GAS  /var/folders/0z/tsy30v1j4xl4_7kw94k978ww0000gn/T//ccKHYiv2.s 			page 47


 240:Core/Src/SEGGER_RTT_printf.c ****   }
 1624              		.loc 1 240 15 is_stmt 0 view .LVU615
 1625 0364 013C     		subs	r4, r4, #1
 1626              	.LVL141:
 240:Core/Src/SEGGER_RTT_printf.c ****   }
 1627              		.loc 1 240 15 view .LVU616
 1628 0366 D3E7     		b	.L101
 1629              	.LVL142:
 1630              	.L202:
 1631              	.LBB71:
 1632              	.LBB68:
 120:Core/Src/SEGGER_RTT_printf.c ****       p->ReturnValue = -1;
 1633              		.loc 1 120 5 is_stmt 1 view .LVU617
 120:Core/Src/SEGGER_RTT_printf.c ****       p->ReturnValue = -1;
 1634              		.loc 1 120 9 is_stmt 0 view .LVU618
 1635 0368 0799     		ldr	r1, [sp, #28]
 1636 036a 0B98     		ldr	r0, [sp, #44]
 1637 036c 3246     		mov	r2, r6
 1638 036e FFF7FEFF 		bl	SEGGER_RTT_Write
 1639              	.LVL143:
 120:Core/Src/SEGGER_RTT_printf.c ****       p->ReturnValue = -1;
 1640              		.loc 1 120 8 view .LVU619
 1641 0372 B042     		cmp	r0, r6
 1642 0374 7FF471AE 		bne	.L96
 123:Core/Src/SEGGER_RTT_printf.c ****     }
 1643              		.loc 1 123 7 is_stmt 1 view .LVU620
 123:Core/Src/SEGGER_RTT_printf.c ****     }
 1644              		.loc 1 123 14 is_stmt 0 view .LVU621
 1645 0378 039B     		ldr	r3, [sp, #12]
 1646 037a 0993     		str	r3, [sp, #36]
 1647              	.LVL144:
 123:Core/Src/SEGGER_RTT_printf.c ****     }
 1648              		.loc 1 123 14 view .LVU622
 1649              	.LBE68:
 1650              	.LBE71:
 251:Core/Src/SEGGER_RTT_printf.c ****           break;
 1651              		.loc 1 251 9 is_stmt 1 view .LVU623
 248:Core/Src/SEGGER_RTT_printf.c ****         FieldWidth--;
 1652              		.loc 1 248 33 view .LVU624
 1653 037c 002C     		cmp	r4, #0
 1654 037e D6D1     		bne	.L103
 1655 0380 EAE7     		b	.L186
 1656              	.LVL145:
 1657              	.L196:
 248:Core/Src/SEGGER_RTT_printf.c ****         FieldWidth--;
 1658              		.loc 1 248 33 is_stmt 0 view .LVU625
 1659              	.LBE90:
 1660              	.LBE141:
 453:Core/Src/SEGGER_RTT_printf.c ****     }
 1661              		.loc 1 453 7 is_stmt 1 view .LVU626
 1662 0382 0298     		ldr	r0, [sp, #8]
 1663 0384 2246     		mov	r2, r4
 1664 0386 0CA9     		add	r1, sp, #48
 1665 0388 FFF7FEFF 		bl	SEGGER_RTT_Write
 1666              	.LVL146:
 455:Core/Src/SEGGER_RTT_printf.c ****   }
 1667              		.loc 1 455 5 view .LVU627
ARM GAS  /var/folders/0z/tsy30v1j4xl4_7kw94k978ww0000gn/T//ccKHYiv2.s 			page 48


 455:Core/Src/SEGGER_RTT_printf.c ****   }
 1668              		.loc 1 455 28 is_stmt 0 view .LVU628
 1669 038c 2744     		add	r7, r7, r4
 1670 038e DDE6     		b	.L203
 1671              	.LVL147:
 1672              	.L198:
 1673              	.LBB142:
 1674              	.LBB91:
 262:Core/Src/SEGGER_RTT_printf.c ****       _StoreChar(pBufferDesc, '-');
 1675              		.loc 1 262 7 is_stmt 1 view .LVU629
 1676              	.LBB72:
 1677              	.LBB73:
 111:Core/Src/SEGGER_RTT_printf.c ****     *(p->pBuffer + Cnt) = c;
 1678              		.loc 1 111 22 is_stmt 0 view .LVU630
 1679 0390 DDE908C2 		ldrd	ip, r2, [sp, #32]
 111:Core/Src/SEGGER_RTT_printf.c ****     *(p->pBuffer + Cnt) = c;
 1680              		.loc 1 111 12 view .LVU631
 1681 0394 511C     		adds	r1, r2, #1
 111:Core/Src/SEGGER_RTT_printf.c ****     *(p->pBuffer + Cnt) = c;
 1682              		.loc 1 111 6 view .LVU632
 1683 0396 6145     		cmp	r1, ip
 1684              	.LBE73:
 1685              	.LBE72:
 262:Core/Src/SEGGER_RTT_printf.c ****       _StoreChar(pBufferDesc, '-');
 1686              		.loc 1 262 9 view .LVU633
 1687 0398 C8F10008 		rsb	r8, r8, #0
 1688              	.LVL148:
 263:Core/Src/SEGGER_RTT_printf.c ****     } else if ((FormatFlags & FORMAT_FLAG_PRINT_SIGN) == FORMAT_FLAG_PRINT_SIGN) {
 1689              		.loc 1 263 7 is_stmt 1 view .LVU634
 1690              	.LBB77:
 1691              	.LBI72:
 107:Core/Src/SEGGER_RTT_printf.c ****   unsigned Cnt;
 1692              		.loc 1 107 13 view .LVU635
 1693              	.LBB74:
 108:Core/Src/SEGGER_RTT_printf.c **** 
 1694              		.loc 1 108 3 view .LVU636
 110:Core/Src/SEGGER_RTT_printf.c ****   if ((Cnt + 1u) <= p->BufferSize) {
 1695              		.loc 1 110 3 view .LVU637
 111:Core/Src/SEGGER_RTT_printf.c ****     *(p->pBuffer + Cnt) = c;
 1696              		.loc 1 111 6 is_stmt 0 view .LVU638
 1697 039c 06D8     		bhi	.L108
 112:Core/Src/SEGGER_RTT_printf.c ****     p->Cnt = Cnt + 1u;
 1698              		.loc 1 112 5 is_stmt 1 view .LVU639
 114:Core/Src/SEGGER_RTT_printf.c ****   }
 1699              		.loc 1 114 19 is_stmt 0 view .LVU640
 1700 039e 0137     		adds	r7, r7, #1
 112:Core/Src/SEGGER_RTT_printf.c ****     p->Cnt = Cnt + 1u;
 1701              		.loc 1 112 25 view .LVU641
 1702 03a0 0798     		ldr	r0, [sp, #28]
 113:Core/Src/SEGGER_RTT_printf.c ****     p->ReturnValue++;
 1703              		.loc 1 113 12 view .LVU642
 1704 03a2 CDE90917 		strd	r1, r7, [sp, #36]
 112:Core/Src/SEGGER_RTT_printf.c ****     p->Cnt = Cnt + 1u;
 1705              		.loc 1 112 25 view .LVU643
 1706 03a6 2D27     		movs	r7, #45
 1707 03a8 8754     		strb	r7, [r0, r2]
 113:Core/Src/SEGGER_RTT_printf.c ****     p->ReturnValue++;
ARM GAS  /var/folders/0z/tsy30v1j4xl4_7kw94k978ww0000gn/T//ccKHYiv2.s 			page 49


 1708              		.loc 1 113 5 is_stmt 1 view .LVU644
 114:Core/Src/SEGGER_RTT_printf.c ****   }
 1709              		.loc 1 114 5 view .LVU645
 114:Core/Src/SEGGER_RTT_printf.c ****   }
 1710              		.loc 1 114 19 is_stmt 0 view .LVU646
 1711 03aa 0A46     		mov	r2, r1
 1712              	.L108:
 119:Core/Src/SEGGER_RTT_printf.c ****     if (SEGGER_RTT_Write(p->RTTBufferIndex, p->pBuffer, p->Cnt) != p->Cnt) {
 1713              		.loc 1 119 3 is_stmt 1 view .LVU647
 119:Core/Src/SEGGER_RTT_printf.c ****     if (SEGGER_RTT_Write(p->RTTBufferIndex, p->pBuffer, p->Cnt) != p->Cnt) {
 1714              		.loc 1 119 6 is_stmt 0 view .LVU648
 1715 03ac 6245     		cmp	r2, ip
 1716 03ae 7FF453AF 		bne	.L110
 120:Core/Src/SEGGER_RTT_printf.c ****       p->ReturnValue = -1;
 1717              		.loc 1 120 5 is_stmt 1 view .LVU649
 120:Core/Src/SEGGER_RTT_printf.c ****       p->ReturnValue = -1;
 1718              		.loc 1 120 9 is_stmt 0 view .LVU650
 1719 03b2 0799     		ldr	r1, [sp, #28]
 1720 03b4 0B98     		ldr	r0, [sp, #44]
 1721 03b6 0493     		str	r3, [sp, #16]
 1722 03b8 0392     		str	r2, [sp, #12]
 1723 03ba FFF7FEFF 		bl	SEGGER_RTT_Write
 1724              	.LVL149:
 120:Core/Src/SEGGER_RTT_printf.c ****       p->ReturnValue = -1;
 1725              		.loc 1 120 8 view .LVU651
 1726 03be 039A     		ldr	r2, [sp, #12]
 1727 03c0 049B     		ldr	r3, [sp, #16]
 1728 03c2 8242     		cmp	r2, r0
 1729 03c4 7FF449AE 		bne	.L96
 1730              	.LVL150:
 1731              	.L109:
 120:Core/Src/SEGGER_RTT_printf.c ****       p->ReturnValue = -1;
 1732              		.loc 1 120 8 view .LVU652
 1733              	.LBE74:
 1734              	.LBE77:
 269:Core/Src/SEGGER_RTT_printf.c ****       //
 1735              		.loc 1 269 20 view .LVU653
 1736 03c8 0A9F     		ldr	r7, [sp, #40]
 1737              	.LBB78:
 1738              	.LBB75:
 123:Core/Src/SEGGER_RTT_printf.c ****     }
 1739              		.loc 1 123 14 view .LVU654
 1740 03ca 0022     		movs	r2, #0
 1741              	.LBE75:
 1742              	.LBE78:
 269:Core/Src/SEGGER_RTT_printf.c ****       //
 1743              		.loc 1 269 8 view .LVU655
 1744 03cc 9742     		cmp	r7, r2
 1745              	.LBB79:
 1746              	.LBB76:
 123:Core/Src/SEGGER_RTT_printf.c ****     }
 1747              		.loc 1 123 14 view .LVU656
 1748 03ce 0992     		str	r2, [sp, #36]
 1749              	.LVL151:
 123:Core/Src/SEGGER_RTT_printf.c ****     }
 1750              		.loc 1 123 14 view .LVU657
 1751              	.LBE76:
ARM GAS  /var/folders/0z/tsy30v1j4xl4_7kw94k978ww0000gn/T//ccKHYiv2.s 			page 50


 1752              	.LBE79:
 268:Core/Src/SEGGER_RTT_printf.c ****     if (pBufferDesc->ReturnValue >= 0) {
 1753              		.loc 1 268 5 is_stmt 1 view .LVU658
 269:Core/Src/SEGGER_RTT_printf.c ****       //
 1754              		.loc 1 269 5 view .LVU659
 269:Core/Src/SEGGER_RTT_printf.c ****       //
 1755              		.loc 1 269 8 is_stmt 0 view .LVU660
 1756 03d0 FFF6ACAE 		blt	.L86
 1757 03d4 40E7     		b	.L110
 1758              	.LVL152:
 1759              	.L199:
 265:Core/Src/SEGGER_RTT_printf.c ****     } else {
 1760              		.loc 1 265 7 is_stmt 1 view .LVU661
 1761              	.LBB80:
 1762              	.LBI80:
 107:Core/Src/SEGGER_RTT_printf.c ****   unsigned Cnt;
 1763              		.loc 1 107 13 view .LVU662
 1764              	.LBB81:
 108:Core/Src/SEGGER_RTT_printf.c **** 
 1765              		.loc 1 108 3 view .LVU663
 110:Core/Src/SEGGER_RTT_printf.c ****   if ((Cnt + 1u) <= p->BufferSize) {
 1766              		.loc 1 110 3 view .LVU664
 111:Core/Src/SEGGER_RTT_printf.c ****     *(p->pBuffer + Cnt) = c;
 1767              		.loc 1 111 22 is_stmt 0 view .LVU665
 1768 03d6 DDE90821 		ldrd	r2, r1, [sp, #32]
 111:Core/Src/SEGGER_RTT_printf.c ****     *(p->pBuffer + Cnt) = c;
 1769              		.loc 1 111 12 view .LVU666
 1770 03da 01F1010C 		add	ip, r1, #1
 111:Core/Src/SEGGER_RTT_printf.c ****     *(p->pBuffer + Cnt) = c;
 1771              		.loc 1 111 6 view .LVU667
 1772 03de 9445     		cmp	ip, r2
 1773 03e0 06D8     		bhi	.L111
 112:Core/Src/SEGGER_RTT_printf.c ****     p->Cnt = Cnt + 1u;
 1774              		.loc 1 112 5 is_stmt 1 view .LVU668
 114:Core/Src/SEGGER_RTT_printf.c ****   }
 1775              		.loc 1 114 19 is_stmt 0 view .LVU669
 1776 03e2 0137     		adds	r7, r7, #1
 112:Core/Src/SEGGER_RTT_printf.c ****     p->Cnt = Cnt + 1u;
 1777              		.loc 1 112 25 view .LVU670
 1778 03e4 0798     		ldr	r0, [sp, #28]
 113:Core/Src/SEGGER_RTT_printf.c ****     p->ReturnValue++;
 1779              		.loc 1 113 12 view .LVU671
 1780 03e6 CDE909C7 		strd	ip, r7, [sp, #36]
 112:Core/Src/SEGGER_RTT_printf.c ****     p->Cnt = Cnt + 1u;
 1781              		.loc 1 112 25 view .LVU672
 1782 03ea 2B27     		movs	r7, #43
 1783 03ec 4754     		strb	r7, [r0, r1]
 113:Core/Src/SEGGER_RTT_printf.c ****     p->ReturnValue++;
 1784              		.loc 1 113 5 is_stmt 1 view .LVU673
 114:Core/Src/SEGGER_RTT_printf.c ****   }
 1785              		.loc 1 114 5 view .LVU674
 114:Core/Src/SEGGER_RTT_printf.c ****   }
 1786              		.loc 1 114 19 is_stmt 0 view .LVU675
 1787 03ee 6146     		mov	r1, ip
 1788              	.L111:
 119:Core/Src/SEGGER_RTT_printf.c ****     if (SEGGER_RTT_Write(p->RTTBufferIndex, p->pBuffer, p->Cnt) != p->Cnt) {
 1789              		.loc 1 119 3 is_stmt 1 view .LVU676
ARM GAS  /var/folders/0z/tsy30v1j4xl4_7kw94k978ww0000gn/T//ccKHYiv2.s 			page 51


 119:Core/Src/SEGGER_RTT_printf.c ****     if (SEGGER_RTT_Write(p->RTTBufferIndex, p->pBuffer, p->Cnt) != p->Cnt) {
 1790              		.loc 1 119 6 is_stmt 0 view .LVU677
 1791 03f0 8A42     		cmp	r2, r1
 1792 03f2 7FF431AF 		bne	.L110
 120:Core/Src/SEGGER_RTT_printf.c ****       p->ReturnValue = -1;
 1793              		.loc 1 120 5 is_stmt 1 view .LVU678
 120:Core/Src/SEGGER_RTT_printf.c ****       p->ReturnValue = -1;
 1794              		.loc 1 120 9 is_stmt 0 view .LVU679
 1795 03f6 0799     		ldr	r1, [sp, #28]
 1796 03f8 0B98     		ldr	r0, [sp, #44]
 1797 03fa 0493     		str	r3, [sp, #16]
 1798 03fc 0392     		str	r2, [sp, #12]
 1799 03fe FFF7FEFF 		bl	SEGGER_RTT_Write
 1800              	.LVL153:
 120:Core/Src/SEGGER_RTT_printf.c ****       p->ReturnValue = -1;
 1801              		.loc 1 120 8 view .LVU680
 1802 0402 039A     		ldr	r2, [sp, #12]
 1803 0404 049B     		ldr	r3, [sp, #16]
 1804 0406 9042     		cmp	r0, r2
 1805 0408 7FF427AE 		bne	.L96
 1806 040c DCE7     		b	.L109
 1807              	.LVL154:
 1808              	.L200:
 120:Core/Src/SEGGER_RTT_printf.c ****       p->ReturnValue = -1;
 1809              		.loc 1 120 8 view .LVU681
 1810              	.LBE81:
 1811              	.LBE80:
 273:Core/Src/SEGGER_RTT_printf.c ****         if (FieldWidth != 0u) {
 1812              		.loc 1 273 126 view .LVU682
 1813 040e 002B     		cmp	r3, #0
 1814 0410 7FF427AF 		bne	.L135
 274:Core/Src/SEGGER_RTT_printf.c ****           while ((FieldWidth != 0u) && (Width < FieldWidth)) {
 1815              		.loc 1 274 9 is_stmt 1 view .LVU683
 274:Core/Src/SEGGER_RTT_printf.c ****           while ((FieldWidth != 0u) && (Width < FieldWidth)) {
 1816              		.loc 1 274 12 is_stmt 0 view .LVU684
 1817 0414 A4B3     		cbz	r4, .L117
 1818 0416 CDF80CB0 		str	fp, [sp, #12]
 1819 041a AB46     		mov	fp, r5
 1820 041c 1D46     		mov	r5, r3
 1821              	.LVL155:
 274:Core/Src/SEGGER_RTT_printf.c ****           while ((FieldWidth != 0u) && (Width < FieldWidth)) {
 1822              		.loc 1 274 12 view .LVU685
 1823 041e 03E0     		b	.L114
 1824              	.LVL156:
 1825              	.L116:
 278:Core/Src/SEGGER_RTT_printf.c ****               break;
 1826              		.loc 1 278 13 is_stmt 1 view .LVU686
 275:Core/Src/SEGGER_RTT_printf.c ****             FieldWidth--;
 1827              		.loc 1 275 37 view .LVU687
 278:Core/Src/SEGGER_RTT_printf.c ****               break;
 1828              		.loc 1 278 28 is_stmt 0 view .LVU688
 1829 0420 0A9F     		ldr	r7, [sp, #40]
 278:Core/Src/SEGGER_RTT_printf.c ****               break;
 1830              		.loc 1 278 16 view .LVU689
 1831 0422 002F     		cmp	r7, #0
 1832 0424 2EDB     		blt	.L181
 275:Core/Src/SEGGER_RTT_printf.c ****             FieldWidth--;
ARM GAS  /var/folders/0z/tsy30v1j4xl4_7kw94k978ww0000gn/T//ccKHYiv2.s 			page 52


 1833              		.loc 1 275 37 view .LVU690
 1834 0426 3CB3     		cbz	r4, .L182
 1835              	.L114:
 276:Core/Src/SEGGER_RTT_printf.c ****             _StoreChar(pBufferDesc, '0');
 1836              		.loc 1 276 13 is_stmt 1 view .LVU691
 1837              	.LBB82:
 1838              	.LBB83:
 112:Core/Src/SEGGER_RTT_printf.c ****     p->Cnt = Cnt + 1u;
 1839              		.loc 1 112 5 view .LVU692
 119:Core/Src/SEGGER_RTT_printf.c ****     if (SEGGER_RTT_Write(p->RTTBufferIndex, p->pBuffer, p->Cnt) != p->Cnt) {
 1840              		.loc 1 119 3 view .LVU693
 119:Core/Src/SEGGER_RTT_printf.c ****     if (SEGGER_RTT_Write(p->RTTBufferIndex, p->pBuffer, p->Cnt) != p->Cnt) {
 1841              		.loc 1 119 3 is_stmt 0 view .LVU694
 1842              	.LBE83:
 1843              	.LBE82:
 275:Core/Src/SEGGER_RTT_printf.c ****             FieldWidth--;
 1844              		.loc 1 275 37 view .LVU695
 1845 0428 A145     		cmp	r9, r4
 1846 042a 1CD2     		bcs	.L204
 1847              	.LBB86:
 1848              	.LBB84:
 110:Core/Src/SEGGER_RTT_printf.c ****   if ((Cnt + 1u) <= p->BufferSize) {
 1849              		.loc 1 110 7 view .LVU696
 1850 042c 099A     		ldr	r2, [sp, #36]
 111:Core/Src/SEGGER_RTT_printf.c ****     *(p->pBuffer + Cnt) = c;
 1851              		.loc 1 111 22 view .LVU697
 1852 042e 089F     		ldr	r7, [sp, #32]
 111:Core/Src/SEGGER_RTT_printf.c ****     *(p->pBuffer + Cnt) = c;
 1853              		.loc 1 111 12 view .LVU698
 1854 0430 501C     		adds	r0, r2, #1
 111:Core/Src/SEGGER_RTT_printf.c ****     *(p->pBuffer + Cnt) = c;
 1855              		.loc 1 111 6 view .LVU699
 1856 0432 B842     		cmp	r0, r7
 1857              	.LBE84:
 1858              	.LBE86:
 276:Core/Src/SEGGER_RTT_printf.c ****             _StoreChar(pBufferDesc, '0');
 1859              		.loc 1 276 23 view .LVU700
 1860 0434 04F1FF34 		add	r4, r4, #-1
 1861              	.LVL157:
 277:Core/Src/SEGGER_RTT_printf.c ****             if (pBufferDesc->ReturnValue < 0) {
 1862              		.loc 1 277 13 is_stmt 1 view .LVU701
 1863              	.LBB87:
 1864              	.LBI82:
 107:Core/Src/SEGGER_RTT_printf.c ****   unsigned Cnt;
 1865              		.loc 1 107 13 view .LVU702
 1866              	.LBB85:
 108:Core/Src/SEGGER_RTT_printf.c **** 
 1867              		.loc 1 108 3 view .LVU703
 110:Core/Src/SEGGER_RTT_printf.c ****   if ((Cnt + 1u) <= p->BufferSize) {
 1868              		.loc 1 110 3 view .LVU704
 111:Core/Src/SEGGER_RTT_printf.c ****     *(p->pBuffer + Cnt) = c;
 1869              		.loc 1 111 3 view .LVU705
 111:Core/Src/SEGGER_RTT_printf.c ****     *(p->pBuffer + Cnt) = c;
 1870              		.loc 1 111 6 is_stmt 0 view .LVU706
 1871 0438 08D8     		bhi	.L115
 114:Core/Src/SEGGER_RTT_printf.c ****   }
 1872              		.loc 1 114 19 view .LVU707
ARM GAS  /var/folders/0z/tsy30v1j4xl4_7kw94k978ww0000gn/T//ccKHYiv2.s 			page 53


 1873 043a 0A99     		ldr	r1, [sp, #40]
 113:Core/Src/SEGGER_RTT_printf.c ****     p->ReturnValue++;
 1874              		.loc 1 113 12 view .LVU708
 1875 043c 0990     		str	r0, [sp, #36]
 114:Core/Src/SEGGER_RTT_printf.c ****   }
 1876              		.loc 1 114 19 view .LVU709
 1877 043e 0131     		adds	r1, r1, #1
 1878 0440 0A91     		str	r1, [sp, #40]
 112:Core/Src/SEGGER_RTT_printf.c ****     p->Cnt = Cnt + 1u;
 1879              		.loc 1 112 25 view .LVU710
 1880 0442 0799     		ldr	r1, [sp, #28]
 1881 0444 4FF03003 		mov	r3, #48
 1882 0448 8B54     		strb	r3, [r1, r2]
 113:Core/Src/SEGGER_RTT_printf.c ****     p->ReturnValue++;
 1883              		.loc 1 113 5 is_stmt 1 view .LVU711
 114:Core/Src/SEGGER_RTT_printf.c ****   }
 1884              		.loc 1 114 5 view .LVU712
 114:Core/Src/SEGGER_RTT_printf.c ****   }
 1885              		.loc 1 114 19 is_stmt 0 view .LVU713
 1886 044a 0246     		mov	r2, r0
 1887              	.LVL158:
 1888              	.L115:
 119:Core/Src/SEGGER_RTT_printf.c ****     if (SEGGER_RTT_Write(p->RTTBufferIndex, p->pBuffer, p->Cnt) != p->Cnt) {
 1889              		.loc 1 119 6 view .LVU714
 1890 044c 9742     		cmp	r7, r2
 1891 044e E7D1     		bne	.L116
 120:Core/Src/SEGGER_RTT_printf.c ****       p->ReturnValue = -1;
 1892              		.loc 1 120 5 is_stmt 1 view .LVU715
 120:Core/Src/SEGGER_RTT_printf.c ****       p->ReturnValue = -1;
 1893              		.loc 1 120 9 is_stmt 0 view .LVU716
 1894 0450 0799     		ldr	r1, [sp, #28]
 1895 0452 0B98     		ldr	r0, [sp, #44]
 1896              	.LVL159:
 120:Core/Src/SEGGER_RTT_printf.c ****       p->ReturnValue = -1;
 1897              		.loc 1 120 9 view .LVU717
 1898 0454 3A46     		mov	r2, r7
 1899 0456 FFF7FEFF 		bl	SEGGER_RTT_Write
 1900              	.LVL160:
 120:Core/Src/SEGGER_RTT_printf.c ****       p->ReturnValue = -1;
 1901              		.loc 1 120 8 view .LVU718
 1902 045a 8742     		cmp	r7, r0
 1903 045c 7FF4FDAD 		bne	.L96
 123:Core/Src/SEGGER_RTT_printf.c ****     }
 1904              		.loc 1 123 7 is_stmt 1 view .LVU719
 123:Core/Src/SEGGER_RTT_printf.c ****     }
 1905              		.loc 1 123 14 is_stmt 0 view .LVU720
 1906 0460 0023     		movs	r3, #0
 1907 0462 0993     		str	r3, [sp, #36]
 1908 0464 DCE7     		b	.L116
 1909              	.LVL161:
 1910              	.L204:
 123:Core/Src/SEGGER_RTT_printf.c ****     }
 1911              		.loc 1 123 14 view .LVU721
 1912              	.LBE85:
 1913              	.LBE87:
 284:Core/Src/SEGGER_RTT_printf.c ****         //
 1914              		.loc 1 284 22 view .LVU722
ARM GAS  /var/folders/0z/tsy30v1j4xl4_7kw94k978ww0000gn/T//ccKHYiv2.s 			page 54


 1915 0466 0A9F     		ldr	r7, [sp, #40]
 284:Core/Src/SEGGER_RTT_printf.c ****         //
 1916              		.loc 1 284 10 view .LVU723
 1917 0468 002F     		cmp	r7, #0
 284:Core/Src/SEGGER_RTT_printf.c ****         //
 1918              		.loc 1 284 22 view .LVU724
 1919 046a 2B46     		mov	r3, r5
 1920 046c 5D46     		mov	r5, fp
 1921 046e DDF80CB0 		ldr	fp, [sp, #12]
 1922              	.LVL162:
 284:Core/Src/SEGGER_RTT_printf.c ****         //
 1923              		.loc 1 284 7 is_stmt 1 view .LVU725
 284:Core/Src/SEGGER_RTT_printf.c ****         //
 1924              		.loc 1 284 10 is_stmt 0 view .LVU726
 1925 0472 FFF65BAE 		blt	.L86
 284:Core/Src/SEGGER_RTT_printf.c ****         //
 1926              		.loc 1 284 10 view .LVU727
 1927 0476 F4E6     		b	.L135
 1928              	.LVL163:
 1929              	.L182:
 284:Core/Src/SEGGER_RTT_printf.c ****         //
 1930              		.loc 1 284 10 view .LVU728
 1931 0478 2B46     		mov	r3, r5
 1932 047a 5D46     		mov	r5, fp
 1933 047c DDF80CB0 		ldr	fp, [sp, #12]
 1934              	.LVL164:
 1935              	.L117:
 284:Core/Src/SEGGER_RTT_printf.c ****         //
 1936              		.loc 1 284 10 view .LVU729
 1937              	.LBE91:
 1938              	.LBE142:
 1939              	.LBB143:
 1940              	.LBB97:
 1941 0480 0024     		movs	r4, #0
 1942              	.LVL165:
 284:Core/Src/SEGGER_RTT_printf.c ****         //
 1943              		.loc 1 284 10 view .LVU730
 1944 0482 EEE6     		b	.L135
 1945              	.LVL166:
 1946              	.L181:
 284:Core/Src/SEGGER_RTT_printf.c ****         //
 1947              		.loc 1 284 10 view .LVU731
 1948 0484 5D46     		mov	r5, fp
 1949 0486 DDF80CB0 		ldr	fp, [sp, #12]
 1950              	.LVL167:
 284:Core/Src/SEGGER_RTT_printf.c ****         //
 1951              		.loc 1 284 10 view .LVU732
 1952 048a 4FE6     		b	.L86
 1953              	.L206:
 1954              		.align	2
 1955              	.L205:
 1956 048c 00000000 		.word	.LANCHOR0
 1957 0490 CDCCCCCC 		.word	-858993459
 1958              	.LBE97:
 1959              	.LBE143:
 1960              		.cfi_endproc
 1961              	.LFE3:
ARM GAS  /var/folders/0z/tsy30v1j4xl4_7kw94k978ww0000gn/T//ccKHYiv2.s 			page 55


 1963              		.section	.text.SEGGER_RTT_printf,"ax",%progbits
 1964              		.align	1
 1965              		.p2align 2,,3
 1966              		.global	SEGGER_RTT_printf
 1967              		.syntax unified
 1968              		.thumb
 1969              		.thumb_func
 1971              	SEGGER_RTT_printf:
 1972              	.LVL168:
 1973              	.LFB4:
 459:Core/Src/SEGGER_RTT_printf.c **** 
 460:Core/Src/SEGGER_RTT_printf.c **** /*********************************************************************
 461:Core/Src/SEGGER_RTT_printf.c **** *
 462:Core/Src/SEGGER_RTT_printf.c **** *       SEGGER_RTT_printf
 463:Core/Src/SEGGER_RTT_printf.c **** *
 464:Core/Src/SEGGER_RTT_printf.c **** *  Function description
 465:Core/Src/SEGGER_RTT_printf.c **** *    Stores a formatted string in SEGGER RTT control block.
 466:Core/Src/SEGGER_RTT_printf.c **** *    This data is read by the host.
 467:Core/Src/SEGGER_RTT_printf.c **** *
 468:Core/Src/SEGGER_RTT_printf.c **** *  Parameters
 469:Core/Src/SEGGER_RTT_printf.c **** *    BufferIndex  Index of "Up"-buffer to be used. (e.g. 0 for "Terminal")
 470:Core/Src/SEGGER_RTT_printf.c **** *    sFormat      Pointer to format string, followed by the arguments for conversion
 471:Core/Src/SEGGER_RTT_printf.c **** *
 472:Core/Src/SEGGER_RTT_printf.c **** *  Return values
 473:Core/Src/SEGGER_RTT_printf.c **** *    >= 0:  Number of bytes which have been stored in the "Up"-buffer.
 474:Core/Src/SEGGER_RTT_printf.c **** *     < 0:  Error
 475:Core/Src/SEGGER_RTT_printf.c **** *
 476:Core/Src/SEGGER_RTT_printf.c **** *  Notes
 477:Core/Src/SEGGER_RTT_printf.c **** *    (1) Conversion specifications have following syntax:
 478:Core/Src/SEGGER_RTT_printf.c **** *          %[flags][FieldWidth][.Precision]ConversionSpecifier
 479:Core/Src/SEGGER_RTT_printf.c **** *    (2) Supported flags:
 480:Core/Src/SEGGER_RTT_printf.c **** *          -: Left justify within the field width
 481:Core/Src/SEGGER_RTT_printf.c **** *          +: Always print sign extension for signed conversions
 482:Core/Src/SEGGER_RTT_printf.c **** *          0: Pad with 0 instead of spaces. Ignored when using '-'-flag or precision
 483:Core/Src/SEGGER_RTT_printf.c **** *        Supported conversion specifiers:
 484:Core/Src/SEGGER_RTT_printf.c **** *          c: Print the argument as one char
 485:Core/Src/SEGGER_RTT_printf.c **** *          d: Print the argument as a signed integer
 486:Core/Src/SEGGER_RTT_printf.c **** *          u: Print the argument as an unsigned integer
 487:Core/Src/SEGGER_RTT_printf.c **** *          x: Print the argument as an hexadecimal integer
 488:Core/Src/SEGGER_RTT_printf.c **** *          s: Print the string pointed to by the argument
 489:Core/Src/SEGGER_RTT_printf.c **** *          p: Print the argument as an 8-digit hexadecimal integer. (Argument shall be a pointer to
 490:Core/Src/SEGGER_RTT_printf.c **** */
 491:Core/Src/SEGGER_RTT_printf.c **** int SEGGER_RTT_printf(unsigned BufferIndex, const char * sFormat, ...) {
 1974              		.loc 1 491 72 is_stmt 1 view -0
 1975              		.cfi_startproc
 1976              		@ args = 4, pretend = 12, frame = 8
 1977              		@ frame_needed = 0, uses_anonymous_args = 1
 492:Core/Src/SEGGER_RTT_printf.c ****   int r;
 1978              		.loc 1 492 3 view .LVU734
 493:Core/Src/SEGGER_RTT_printf.c ****   va_list ParamList;
 1979              		.loc 1 493 3 view .LVU735
 494:Core/Src/SEGGER_RTT_printf.c **** 
 495:Core/Src/SEGGER_RTT_printf.c ****   va_start(ParamList, sFormat);
 1980              		.loc 1 495 3 view .LVU736
 491:Core/Src/SEGGER_RTT_printf.c ****   int r;
 1981              		.loc 1 491 72 is_stmt 0 view .LVU737
 1982 0000 0EB4     		push	{r1, r2, r3}
ARM GAS  /var/folders/0z/tsy30v1j4xl4_7kw94k978ww0000gn/T//ccKHYiv2.s 			page 56


 1983              		.cfi_def_cfa_offset 12
 1984              		.cfi_offset 1, -12
 1985              		.cfi_offset 2, -8
 1986              		.cfi_offset 3, -4
 1987 0002 00B5     		push	{lr}
 1988              		.cfi_def_cfa_offset 16
 1989              		.cfi_offset 14, -16
 1990 0004 82B0     		sub	sp, sp, #8
 1991              		.cfi_def_cfa_offset 24
 491:Core/Src/SEGGER_RTT_printf.c ****   int r;
 1992              		.loc 1 491 72 view .LVU738
 1993 0006 03AB     		add	r3, sp, #12
 496:Core/Src/SEGGER_RTT_printf.c ****   r = SEGGER_RTT_vprintf(BufferIndex, sFormat, &ParamList);
 1994              		.loc 1 496 7 view .LVU739
 1995 0008 01AA     		add	r2, sp, #4
 491:Core/Src/SEGGER_RTT_printf.c ****   int r;
 1996              		.loc 1 491 72 view .LVU740
 1997 000a 53F8041B 		ldr	r1, [r3], #4
 495:Core/Src/SEGGER_RTT_printf.c ****   r = SEGGER_RTT_vprintf(BufferIndex, sFormat, &ParamList);
 1998              		.loc 1 495 3 view .LVU741
 1999 000e 0193     		str	r3, [sp, #4]
 2000              		.loc 1 496 3 is_stmt 1 view .LVU742
 2001              		.loc 1 496 7 is_stmt 0 view .LVU743
 2002 0010 FFF7FEFF 		bl	SEGGER_RTT_vprintf
 2003              	.LVL169:
 497:Core/Src/SEGGER_RTT_printf.c ****   va_end(ParamList);
 2004              		.loc 1 497 3 is_stmt 1 view .LVU744
 498:Core/Src/SEGGER_RTT_printf.c ****   return r;
 2005              		.loc 1 498 3 view .LVU745
 499:Core/Src/SEGGER_RTT_printf.c **** }
 2006              		.loc 1 499 1 is_stmt 0 view .LVU746
 2007 0014 02B0     		add	sp, sp, #8
 2008              		.cfi_def_cfa_offset 16
 2009              		@ sp needed
 2010 0016 5DF804EB 		ldr	lr, [sp], #4
 2011              		.cfi_restore 14
 2012              		.cfi_def_cfa_offset 12
 2013 001a 03B0     		add	sp, sp, #12
 2014              		.cfi_restore 3
 2015              		.cfi_restore 2
 2016              		.cfi_restore 1
 2017              		.cfi_def_cfa_offset 0
 2018 001c 7047     		bx	lr
 2019              		.cfi_endproc
 2020              	.LFE4:
 2022 001e 00BF     		.section	.rodata._aV2C.0,"a"
 2023              		.align	2
 2024              		.set	.LANCHOR0,. + 0
 2027              	_aV2C.0:
 2028 0000 30313233 		.ascii	"0123456789ABCDEF"
 2028      34353637 
 2028      38394142 
 2028      43444546 
 2029              		.text
 2030              	.Letext0:
 2031              		.file 2 "/Users/johannes/Library/Application Support/Code/User/globalStorage/bmd.stm32-for-vscode/
 2032              		.file 3 "<built-in>"
ARM GAS  /var/folders/0z/tsy30v1j4xl4_7kw94k978ww0000gn/T//ccKHYiv2.s 			page 57


 2033              		.file 4 "Core/Inc/SEGGER_RTT.h"
ARM GAS  /var/folders/0z/tsy30v1j4xl4_7kw94k978ww0000gn/T//ccKHYiv2.s 			page 58


DEFINED SYMBOLS
                            *ABS*:0000000000000000 SEGGER_RTT_printf.c
/var/folders/0z/tsy30v1j4xl4_7kw94k978ww0000gn/T//ccKHYiv2.s:20     .text._PrintUnsigned:0000000000000000 $t
/var/folders/0z/tsy30v1j4xl4_7kw94k978ww0000gn/T//ccKHYiv2.s:26     .text._PrintUnsigned:0000000000000000 _PrintUnsigned
/var/folders/0z/tsy30v1j4xl4_7kw94k978ww0000gn/T//ccKHYiv2.s:539    .text._PrintUnsigned:00000000000001a0 $d
/var/folders/0z/tsy30v1j4xl4_7kw94k978ww0000gn/T//ccKHYiv2.s:546    .text.SEGGER_RTT_vprintf:0000000000000000 $t
/var/folders/0z/tsy30v1j4xl4_7kw94k978ww0000gn/T//ccKHYiv2.s:553    .text.SEGGER_RTT_vprintf:0000000000000000 SEGGER_RTT_vprintf
/var/folders/0z/tsy30v1j4xl4_7kw94k978ww0000gn/T//ccKHYiv2.s:710    .text.SEGGER_RTT_vprintf:000000000000007a $d
/var/folders/0z/tsy30v1j4xl4_7kw94k978ww0000gn/T//ccKHYiv2.s:724    .text.SEGGER_RTT_vprintf:0000000000000088 $t
/var/folders/0z/tsy30v1j4xl4_7kw94k978ww0000gn/T//ccKHYiv2.s:798    .text.SEGGER_RTT_vprintf:00000000000000d8 $d
/var/folders/0z/tsy30v1j4xl4_7kw94k978ww0000gn/T//ccKHYiv2.s:1956   .text.SEGGER_RTT_vprintf:000000000000048c $d
/var/folders/0z/tsy30v1j4xl4_7kw94k978ww0000gn/T//ccKHYiv2.s:1964   .text.SEGGER_RTT_printf:0000000000000000 $t
/var/folders/0z/tsy30v1j4xl4_7kw94k978ww0000gn/T//ccKHYiv2.s:1971   .text.SEGGER_RTT_printf:0000000000000000 SEGGER_RTT_printf
/var/folders/0z/tsy30v1j4xl4_7kw94k978ww0000gn/T//ccKHYiv2.s:2023   .rodata._aV2C.0:0000000000000000 $d
/var/folders/0z/tsy30v1j4xl4_7kw94k978ww0000gn/T//ccKHYiv2.s:2027   .rodata._aV2C.0:0000000000000000 _aV2C.0
/var/folders/0z/tsy30v1j4xl4_7kw94k978ww0000gn/T//ccKHYiv2.s:832    .text.SEGGER_RTT_vprintf:00000000000000f9 $d
/var/folders/0z/tsy30v1j4xl4_7kw94k978ww0000gn/T//ccKHYiv2.s:832    .text.SEGGER_RTT_vprintf:00000000000000fa $t

UNDEFINED SYMBOLS
SEGGER_RTT_Write
