ARM GAS  /var/folders/0z/tsy30v1j4xl4_7kw94k978ww0000gn/T//ccSMO3JZ.s 			page 1


   1              		.cpu cortex-m4
   2              		.arch armv7e-m
   3              		.fpu fpv4-sp-d16
   4              		.eabi_attribute 27, 1
   5              		.eabi_attribute 28, 1
   6              		.eabi_attribute 20, 1
   7              		.eabi_attribute 21, 1
   8              		.eabi_attribute 23, 3
   9              		.eabi_attribute 24, 1
  10              		.eabi_attribute 25, 1
  11              		.eabi_attribute 26, 1
  12              		.eabi_attribute 30, 2
  13              		.eabi_attribute 34, 1
  14              		.eabi_attribute 18, 4
  15              		.file	"spi.c"
  16              		.text
  17              	.Ltext0:
  18              		.cfi_sections	.debug_frame
  19              		.section	.text.MX_SPI1_Init,"ax",%progbits
  20              		.align	1
  21              		.p2align 2,,3
  22              		.global	MX_SPI1_Init
  23              		.syntax unified
  24              		.thumb
  25              		.thumb_func
  27              	MX_SPI1_Init:
  28              	.LFB137:
  29              		.file 1 "Core/Src/spi.c"
   1:Core/Src/spi.c **** /* USER CODE BEGIN Header */
   2:Core/Src/spi.c **** /**
   3:Core/Src/spi.c ****   ******************************************************************************
   4:Core/Src/spi.c ****   * @file    spi.c
   5:Core/Src/spi.c ****   * @brief   This file provides code for the configuration
   6:Core/Src/spi.c ****   *          of the SPI instances.
   7:Core/Src/spi.c ****   ******************************************************************************
   8:Core/Src/spi.c ****   * @attention
   9:Core/Src/spi.c ****   *
  10:Core/Src/spi.c ****   * Copyright (c) 2023 STMicroelectronics.
  11:Core/Src/spi.c ****   * All rights reserved.
  12:Core/Src/spi.c ****   *
  13:Core/Src/spi.c ****   * This software is licensed under terms that can be found in the LICENSE file
  14:Core/Src/spi.c ****   * in the root directory of this software component.
  15:Core/Src/spi.c ****   * If no LICENSE file comes with this software, it is provided AS-IS.
  16:Core/Src/spi.c ****   *
  17:Core/Src/spi.c ****   ******************************************************************************
  18:Core/Src/spi.c ****   */
  19:Core/Src/spi.c **** /* USER CODE END Header */
  20:Core/Src/spi.c **** /* Includes ------------------------------------------------------------------*/
  21:Core/Src/spi.c **** #include "spi.h"
  22:Core/Src/spi.c **** 
  23:Core/Src/spi.c **** /* USER CODE BEGIN 0 */
  24:Core/Src/spi.c **** 
  25:Core/Src/spi.c **** /* USER CODE END 0 */
  26:Core/Src/spi.c **** 
  27:Core/Src/spi.c **** SPI_HandleTypeDef hspi1;
  28:Core/Src/spi.c **** DMA_HandleTypeDef hdma_spi1_tx;
  29:Core/Src/spi.c **** 
ARM GAS  /var/folders/0z/tsy30v1j4xl4_7kw94k978ww0000gn/T//ccSMO3JZ.s 			page 2


  30:Core/Src/spi.c **** /* SPI1 init function */
  31:Core/Src/spi.c **** void MX_SPI1_Init(void)
  32:Core/Src/spi.c **** {
  30              		.loc 1 32 1 view -0
  31              		.cfi_startproc
  32              		@ args = 0, pretend = 0, frame = 0
  33              		@ frame_needed = 0, uses_anonymous_args = 0
  33:Core/Src/spi.c **** 
  34:Core/Src/spi.c ****   /* USER CODE BEGIN SPI1_Init 0 */
  35:Core/Src/spi.c **** 
  36:Core/Src/spi.c ****   /* USER CODE END SPI1_Init 0 */
  37:Core/Src/spi.c **** 
  38:Core/Src/spi.c ****   /* USER CODE BEGIN SPI1_Init 1 */
  39:Core/Src/spi.c **** 
  40:Core/Src/spi.c ****   /* USER CODE END SPI1_Init 1 */
  41:Core/Src/spi.c ****   hspi1.Instance = SPI1;
  34              		.loc 1 41 3 view .LVU1
  35              		.loc 1 41 18 is_stmt 0 view .LVU2
  36 0000 0F48     		ldr	r0, .L6
  37 0002 1049     		ldr	r1, .L6+4
  42:Core/Src/spi.c ****   hspi1.Init.Mode = SPI_MODE_MASTER;
  38              		.loc 1 42 19 view .LVU3
  39 0004 4FF48272 		mov	r2, #260
  32:Core/Src/spi.c **** 
  40              		.loc 1 32 1 view .LVU4
  41 0008 10B5     		push	{r4, lr}
  42              		.cfi_def_cfa_offset 8
  43              		.cfi_offset 4, -8
  44              		.cfi_offset 14, -4
  45              		.loc 1 42 19 view .LVU5
  46 000a C0E90012 		strd	r1, r2, [r0]
  43:Core/Src/spi.c ****   hspi1.Init.Direction = SPI_DIRECTION_1LINE;
  47              		.loc 1 43 3 is_stmt 1 view .LVU6
  44:Core/Src/spi.c ****   hspi1.Init.DataSize = SPI_DATASIZE_8BIT;
  45:Core/Src/spi.c ****   hspi1.Init.CLKPolarity = SPI_POLARITY_LOW;
  46:Core/Src/spi.c ****   hspi1.Init.CLKPhase = SPI_PHASE_1EDGE;
  47:Core/Src/spi.c ****   hspi1.Init.NSS = SPI_NSS_SOFT;
  48              		.loc 1 47 18 is_stmt 0 view .LVU7
  49 000e 4FF40072 		mov	r2, #512
  44:Core/Src/spi.c ****   hspi1.Init.DataSize = SPI_DATASIZE_8BIT;
  50              		.loc 1 44 23 view .LVU8
  51 0012 0023     		movs	r3, #0
  43:Core/Src/spi.c ****   hspi1.Init.Direction = SPI_DIRECTION_1LINE;
  52              		.loc 1 43 24 view .LVU9
  53 0014 4FF40044 		mov	r4, #32768
  48:Core/Src/spi.c ****   hspi1.Init.BaudRatePrescaler = SPI_BAUDRATEPRESCALER_4;
  54              		.loc 1 48 32 view .LVU10
  55 0018 0821     		movs	r1, #8
  47:Core/Src/spi.c ****   hspi1.Init.BaudRatePrescaler = SPI_BAUDRATEPRESCALER_4;
  56              		.loc 1 47 18 view .LVU11
  57 001a 8261     		str	r2, [r0, #24]
  49:Core/Src/spi.c ****   hspi1.Init.FirstBit = SPI_FIRSTBIT_MSB;
  50:Core/Src/spi.c ****   hspi1.Init.TIMode = SPI_TIMODE_DISABLE;
  51:Core/Src/spi.c ****   hspi1.Init.CRCCalculation = SPI_CRCCALCULATION_DISABLE;
  52:Core/Src/spi.c ****   hspi1.Init.CRCPolynomial = 10;
  58              		.loc 1 52 28 view .LVU12
  59 001c 0A22     		movs	r2, #10
ARM GAS  /var/folders/0z/tsy30v1j4xl4_7kw94k978ww0000gn/T//ccSMO3JZ.s 			page 3


  44:Core/Src/spi.c ****   hspi1.Init.CLKPolarity = SPI_POLARITY_LOW;
  60              		.loc 1 44 23 view .LVU13
  61 001e C0E90243 		strd	r4, r3, [r0, #8]
  45:Core/Src/spi.c ****   hspi1.Init.CLKPhase = SPI_PHASE_1EDGE;
  62              		.loc 1 45 3 is_stmt 1 view .LVU14
  46:Core/Src/spi.c ****   hspi1.Init.NSS = SPI_NSS_SOFT;
  63              		.loc 1 46 23 is_stmt 0 view .LVU15
  64 0022 C0E90433 		strd	r3, r3, [r0, #16]
  47:Core/Src/spi.c ****   hspi1.Init.BaudRatePrescaler = SPI_BAUDRATEPRESCALER_4;
  65              		.loc 1 47 3 is_stmt 1 view .LVU16
  48:Core/Src/spi.c ****   hspi1.Init.FirstBit = SPI_FIRSTBIT_MSB;
  66              		.loc 1 48 3 view .LVU17
  49:Core/Src/spi.c ****   hspi1.Init.TIMode = SPI_TIMODE_DISABLE;
  67              		.loc 1 49 23 is_stmt 0 view .LVU18
  68 0026 C0E90713 		strd	r1, r3, [r0, #28]
  50:Core/Src/spi.c ****   hspi1.Init.CRCCalculation = SPI_CRCCALCULATION_DISABLE;
  69              		.loc 1 50 3 is_stmt 1 view .LVU19
  51:Core/Src/spi.c ****   hspi1.Init.CRCPolynomial = 10;
  70              		.loc 1 51 29 is_stmt 0 view .LVU20
  71 002a C0E90933 		strd	r3, r3, [r0, #36]
  72              		.loc 1 52 3 is_stmt 1 view .LVU21
  73              		.loc 1 52 28 is_stmt 0 view .LVU22
  74 002e C262     		str	r2, [r0, #44]
  53:Core/Src/spi.c ****   if (HAL_SPI_Init(&hspi1) != HAL_OK)
  75              		.loc 1 53 3 is_stmt 1 view .LVU23
  76              		.loc 1 53 7 is_stmt 0 view .LVU24
  77 0030 FFF7FEFF 		bl	HAL_SPI_Init
  78              	.LVL0:
  79              		.loc 1 53 6 view .LVU25
  80 0034 00B9     		cbnz	r0, .L5
  54:Core/Src/spi.c ****   {
  55:Core/Src/spi.c ****     Error_Handler();
  56:Core/Src/spi.c ****   }
  57:Core/Src/spi.c ****   /* USER CODE BEGIN SPI1_Init 2 */
  58:Core/Src/spi.c **** 
  59:Core/Src/spi.c ****   /* USER CODE END SPI1_Init 2 */
  60:Core/Src/spi.c **** 
  61:Core/Src/spi.c **** }
  81              		.loc 1 61 1 view .LVU26
  82 0036 10BD     		pop	{r4, pc}
  83              	.L5:
  55:Core/Src/spi.c ****   }
  84              		.loc 1 55 5 is_stmt 1 view .LVU27
  85              		.loc 1 61 1 is_stmt 0 view .LVU28
  86 0038 BDE81040 		pop	{r4, lr}
  87              		.cfi_restore 14
  88              		.cfi_restore 4
  89              		.cfi_def_cfa_offset 0
  55:Core/Src/spi.c ****   }
  90              		.loc 1 55 5 view .LVU29
  91 003c FFF7FEBF 		b	Error_Handler
  92              	.LVL1:
  93              	.L7:
  94              		.align	2
  95              	.L6:
  96 0040 00000000 		.word	.LANCHOR0
  97 0044 00300140 		.word	1073819648
ARM GAS  /var/folders/0z/tsy30v1j4xl4_7kw94k978ww0000gn/T//ccSMO3JZ.s 			page 4


  98              		.cfi_endproc
  99              	.LFE137:
 101              		.section	.text.HAL_SPI_MspInit,"ax",%progbits
 102              		.align	1
 103              		.p2align 2,,3
 104              		.global	HAL_SPI_MspInit
 105              		.syntax unified
 106              		.thumb
 107              		.thumb_func
 109              	HAL_SPI_MspInit:
 110              	.LVL2:
 111              	.LFB138:
  62:Core/Src/spi.c **** 
  63:Core/Src/spi.c **** void HAL_SPI_MspInit(SPI_HandleTypeDef* spiHandle)
  64:Core/Src/spi.c **** {
 112              		.loc 1 64 1 is_stmt 1 view -0
 113              		.cfi_startproc
 114              		@ args = 0, pretend = 0, frame = 32
 115              		@ frame_needed = 0, uses_anonymous_args = 0
  65:Core/Src/spi.c **** 
  66:Core/Src/spi.c ****   GPIO_InitTypeDef GPIO_InitStruct = {0};
 116              		.loc 1 66 3 view .LVU31
  64:Core/Src/spi.c **** 
 117              		.loc 1 64 1 is_stmt 0 view .LVU32
 118 0000 70B5     		push	{r4, r5, r6, lr}
 119              		.cfi_def_cfa_offset 16
 120              		.cfi_offset 4, -16
 121              		.cfi_offset 5, -12
 122              		.cfi_offset 6, -8
 123              		.cfi_offset 14, -4
  67:Core/Src/spi.c ****   if(spiHandle->Instance==SPI1)
 124              		.loc 1 67 5 view .LVU33
 125 0002 294B     		ldr	r3, .L17
 126 0004 0268     		ldr	r2, [r0]
  64:Core/Src/spi.c **** 
 127              		.loc 1 64 1 view .LVU34
 128 0006 88B0     		sub	sp, sp, #32
 129              		.cfi_def_cfa_offset 48
  66:Core/Src/spi.c ****   if(spiHandle->Instance==SPI1)
 130              		.loc 1 66 20 view .LVU35
 131 0008 0024     		movs	r4, #0
 132              		.loc 1 67 5 view .LVU36
 133 000a 9A42     		cmp	r2, r3
  66:Core/Src/spi.c ****   if(spiHandle->Instance==SPI1)
 134              		.loc 1 66 20 view .LVU37
 135 000c CDE90244 		strd	r4, r4, [sp, #8]
 136 0010 CDE90444 		strd	r4, r4, [sp, #16]
 137 0014 0694     		str	r4, [sp, #24]
 138              		.loc 1 67 3 is_stmt 1 view .LVU38
 139              		.loc 1 67 5 is_stmt 0 view .LVU39
 140 0016 01D0     		beq	.L15
  68:Core/Src/spi.c ****   {
  69:Core/Src/spi.c ****   /* USER CODE BEGIN SPI1_MspInit 0 */
  70:Core/Src/spi.c **** 
  71:Core/Src/spi.c ****   /* USER CODE END SPI1_MspInit 0 */
  72:Core/Src/spi.c ****     /* SPI1 clock enable */
  73:Core/Src/spi.c ****     __HAL_RCC_SPI1_CLK_ENABLE();
ARM GAS  /var/folders/0z/tsy30v1j4xl4_7kw94k978ww0000gn/T//ccSMO3JZ.s 			page 5


  74:Core/Src/spi.c **** 
  75:Core/Src/spi.c ****     __HAL_RCC_GPIOA_CLK_ENABLE();
  76:Core/Src/spi.c ****     /**SPI1 GPIO Configuration
  77:Core/Src/spi.c ****     PA5     ------> SPI1_SCK
  78:Core/Src/spi.c ****     PA6     ------> SPI1_MISO
  79:Core/Src/spi.c ****     PA7     ------> SPI1_MOSI
  80:Core/Src/spi.c ****     */
  81:Core/Src/spi.c ****     GPIO_InitStruct.Pin = SPI1_SCK_Pin|SPI1_MISO_Pin|SPI1_MOSI_Pin;
  82:Core/Src/spi.c ****     GPIO_InitStruct.Mode = GPIO_MODE_AF_PP;
  83:Core/Src/spi.c ****     GPIO_InitStruct.Pull = GPIO_NOPULL;
  84:Core/Src/spi.c ****     GPIO_InitStruct.Speed = GPIO_SPEED_FREQ_LOW;
  85:Core/Src/spi.c ****     GPIO_InitStruct.Alternate = GPIO_AF5_SPI1;
  86:Core/Src/spi.c ****     HAL_GPIO_Init(GPIOA, &GPIO_InitStruct);
  87:Core/Src/spi.c **** 
  88:Core/Src/spi.c ****     /* SPI1 DMA Init */
  89:Core/Src/spi.c ****     /* SPI1_TX Init */
  90:Core/Src/spi.c ****     hdma_spi1_tx.Instance = DMA2_Stream3;
  91:Core/Src/spi.c ****     hdma_spi1_tx.Init.Channel = DMA_CHANNEL_3;
  92:Core/Src/spi.c ****     hdma_spi1_tx.Init.Direction = DMA_MEMORY_TO_PERIPH;
  93:Core/Src/spi.c ****     hdma_spi1_tx.Init.PeriphInc = DMA_PINC_DISABLE;
  94:Core/Src/spi.c ****     hdma_spi1_tx.Init.MemInc = DMA_MINC_ENABLE;
  95:Core/Src/spi.c ****     hdma_spi1_tx.Init.PeriphDataAlignment = DMA_PDATAALIGN_BYTE;
  96:Core/Src/spi.c ****     hdma_spi1_tx.Init.MemDataAlignment = DMA_MDATAALIGN_BYTE;
  97:Core/Src/spi.c ****     hdma_spi1_tx.Init.Mode = DMA_NORMAL;
  98:Core/Src/spi.c ****     hdma_spi1_tx.Init.Priority = DMA_PRIORITY_LOW;
  99:Core/Src/spi.c ****     hdma_spi1_tx.Init.FIFOMode = DMA_FIFOMODE_DISABLE;
 100:Core/Src/spi.c ****     if (HAL_DMA_Init(&hdma_spi1_tx) != HAL_OK)
 101:Core/Src/spi.c ****     {
 102:Core/Src/spi.c ****       Error_Handler();
 103:Core/Src/spi.c ****     }
 104:Core/Src/spi.c **** 
 105:Core/Src/spi.c ****     __HAL_LINKDMA(spiHandle,hdmatx,hdma_spi1_tx);
 106:Core/Src/spi.c **** 
 107:Core/Src/spi.c ****     /* SPI1 interrupt Init */
 108:Core/Src/spi.c ****     HAL_NVIC_SetPriority(SPI1_IRQn, 0, 0);
 109:Core/Src/spi.c ****     HAL_NVIC_EnableIRQ(SPI1_IRQn);
 110:Core/Src/spi.c ****   /* USER CODE BEGIN SPI1_MspInit 1 */
 111:Core/Src/spi.c **** 
 112:Core/Src/spi.c ****   /* USER CODE END SPI1_MspInit 1 */
 113:Core/Src/spi.c ****   }
 114:Core/Src/spi.c **** }
 141              		.loc 1 114 1 view .LVU40
 142 0018 08B0     		add	sp, sp, #32
 143              		.cfi_remember_state
 144              		.cfi_def_cfa_offset 16
 145              		@ sp needed
 146 001a 70BD     		pop	{r4, r5, r6, pc}
 147              	.L15:
 148              		.cfi_restore_state
  73:Core/Src/spi.c **** 
 149              		.loc 1 73 5 is_stmt 1 view .LVU41
 150              	.LBB2:
  73:Core/Src/spi.c **** 
 151              		.loc 1 73 5 view .LVU42
 152 001c 03F58433 		add	r3, r3, #67584
 153 0020 0094     		str	r4, [sp]
  73:Core/Src/spi.c **** 
ARM GAS  /var/folders/0z/tsy30v1j4xl4_7kw94k978ww0000gn/T//ccSMO3JZ.s 			page 6


 154              		.loc 1 73 5 view .LVU43
 155 0022 5A6C     		ldr	r2, [r3, #68]
 156              	.LBE2:
  90:Core/Src/spi.c ****     hdma_spi1_tx.Init.Channel = DMA_CHANNEL_3;
 157              		.loc 1 90 27 is_stmt 0 view .LVU44
 158 0024 214E     		ldr	r6, .L17+4
 159              	.LBB3:
  73:Core/Src/spi.c **** 
 160              		.loc 1 73 5 view .LVU45
 161 0026 42F48052 		orr	r2, r2, #4096
 162 002a 5A64     		str	r2, [r3, #68]
  73:Core/Src/spi.c **** 
 163              		.loc 1 73 5 is_stmt 1 view .LVU46
 164 002c 5A6C     		ldr	r2, [r3, #68]
 165 002e 02F48052 		and	r2, r2, #4096
 166 0032 0092     		str	r2, [sp]
  73:Core/Src/spi.c **** 
 167              		.loc 1 73 5 view .LVU47
 168 0034 009A     		ldr	r2, [sp]
 169              	.LBE3:
  73:Core/Src/spi.c **** 
 170              		.loc 1 73 5 view .LVU48
  75:Core/Src/spi.c ****     /**SPI1 GPIO Configuration
 171              		.loc 1 75 5 view .LVU49
 172              	.LBB4:
  75:Core/Src/spi.c ****     /**SPI1 GPIO Configuration
 173              		.loc 1 75 5 view .LVU50
 174 0036 0194     		str	r4, [sp, #4]
  75:Core/Src/spi.c ****     /**SPI1 GPIO Configuration
 175              		.loc 1 75 5 view .LVU51
 176 0038 1A6B     		ldr	r2, [r3, #48]
 177 003a 42F00102 		orr	r2, r2, #1
 178 003e 1A63     		str	r2, [r3, #48]
  75:Core/Src/spi.c ****     /**SPI1 GPIO Configuration
 179              		.loc 1 75 5 view .LVU52
 180 0040 1B6B     		ldr	r3, [r3, #48]
 181 0042 03F00103 		and	r3, r3, #1
 182 0046 0193     		str	r3, [sp, #4]
  75:Core/Src/spi.c ****     /**SPI1 GPIO Configuration
 183              		.loc 1 75 5 view .LVU53
 184              	.LBE4:
  81:Core/Src/spi.c ****     GPIO_InitStruct.Mode = GPIO_MODE_AF_PP;
 185              		.loc 1 81 25 is_stmt 0 view .LVU54
 186 0048 E022     		movs	r2, #224
 187 004a 0223     		movs	r3, #2
 188 004c CDE90223 		strd	r2, [sp, #8]
 189 0050 0546     		mov	r5, r0
  85:Core/Src/spi.c ****     HAL_GPIO_Init(GPIOA, &GPIO_InitStruct);
 190              		.loc 1 85 31 view .LVU55
 191 0052 0523     		movs	r3, #5
  86:Core/Src/spi.c **** 
 192              		.loc 1 86 5 view .LVU56
 193 0054 1648     		ldr	r0, .L17+8
 194              	.LVL3:
  85:Core/Src/spi.c ****     HAL_GPIO_Init(GPIOA, &GPIO_InitStruct);
 195              		.loc 1 85 31 view .LVU57
 196 0056 0693     		str	r3, [sp, #24]
ARM GAS  /var/folders/0z/tsy30v1j4xl4_7kw94k978ww0000gn/T//ccSMO3JZ.s 			page 7


  86:Core/Src/spi.c **** 
 197              		.loc 1 86 5 view .LVU58
 198 0058 02A9     		add	r1, sp, #8
 199              	.LBB5:
  75:Core/Src/spi.c ****     /**SPI1 GPIO Configuration
 200              		.loc 1 75 5 view .LVU59
 201 005a 019B     		ldr	r3, [sp, #4]
 202              	.LBE5:
  75:Core/Src/spi.c ****     /**SPI1 GPIO Configuration
 203              		.loc 1 75 5 is_stmt 1 view .LVU60
  81:Core/Src/spi.c ****     GPIO_InitStruct.Mode = GPIO_MODE_AF_PP;
 204              		.loc 1 81 5 view .LVU61
  82:Core/Src/spi.c ****     GPIO_InitStruct.Pull = GPIO_NOPULL;
 205              		.loc 1 82 5 view .LVU62
  83:Core/Src/spi.c ****     GPIO_InitStruct.Speed = GPIO_SPEED_FREQ_LOW;
 206              		.loc 1 83 5 view .LVU63
  84:Core/Src/spi.c ****     GPIO_InitStruct.Alternate = GPIO_AF5_SPI1;
 207              		.loc 1 84 5 view .LVU64
  85:Core/Src/spi.c ****     HAL_GPIO_Init(GPIOA, &GPIO_InitStruct);
 208              		.loc 1 85 5 view .LVU65
  86:Core/Src/spi.c **** 
 209              		.loc 1 86 5 view .LVU66
 210 005c FFF7FEFF 		bl	HAL_GPIO_Init
 211              	.LVL4:
  90:Core/Src/spi.c ****     hdma_spi1_tx.Init.Channel = DMA_CHANNEL_3;
 212              		.loc 1 90 5 view .LVU67
  91:Core/Src/spi.c ****     hdma_spi1_tx.Init.Direction = DMA_MEMORY_TO_PERIPH;
 213              		.loc 1 91 31 is_stmt 0 view .LVU68
 214 0060 144A     		ldr	r2, .L17+12
  99:Core/Src/spi.c ****     if (HAL_DMA_Init(&hdma_spi1_tx) != HAL_OK)
 215              		.loc 1 99 32 view .LVU69
 216 0062 7462     		str	r4, [r6, #36]
  91:Core/Src/spi.c ****     hdma_spi1_tx.Init.Direction = DMA_MEMORY_TO_PERIPH;
 217              		.loc 1 91 31 view .LVU70
 218 0064 4FF0C063 		mov	r3, #100663296
 219 0068 C6E90023 		strd	r2, r3, [r6]
  92:Core/Src/spi.c ****     hdma_spi1_tx.Init.PeriphInc = DMA_PINC_DISABLE;
 220              		.loc 1 92 5 is_stmt 1 view .LVU71
 100:Core/Src/spi.c ****     {
 221              		.loc 1 100 9 is_stmt 0 view .LVU72
 222 006c 3046     		mov	r0, r6
  92:Core/Src/spi.c ****     hdma_spi1_tx.Init.PeriphInc = DMA_PINC_DISABLE;
 223              		.loc 1 92 33 view .LVU73
 224 006e 4022     		movs	r2, #64
  94:Core/Src/spi.c ****     hdma_spi1_tx.Init.PeriphDataAlignment = DMA_PDATAALIGN_BYTE;
 225              		.loc 1 94 30 view .LVU74
 226 0070 4FF48063 		mov	r3, #1024
  93:Core/Src/spi.c ****     hdma_spi1_tx.Init.MemInc = DMA_MINC_ENABLE;
 227              		.loc 1 93 33 view .LVU75
 228 0074 C6E90224 		strd	r2, r4, [r6, #8]
  94:Core/Src/spi.c ****     hdma_spi1_tx.Init.PeriphDataAlignment = DMA_PDATAALIGN_BYTE;
 229              		.loc 1 94 5 is_stmt 1 view .LVU76
  96:Core/Src/spi.c ****     hdma_spi1_tx.Init.Mode = DMA_NORMAL;
 230              		.loc 1 96 40 is_stmt 0 view .LVU77
 231 0078 C6E90544 		strd	r4, r4, [r6, #20]
  98:Core/Src/spi.c ****     hdma_spi1_tx.Init.FIFOMode = DMA_FIFOMODE_DISABLE;
 232              		.loc 1 98 32 view .LVU78
ARM GAS  /var/folders/0z/tsy30v1j4xl4_7kw94k978ww0000gn/T//ccSMO3JZ.s 			page 8


 233 007c C6E90744 		strd	r4, r4, [r6, #28]
  94:Core/Src/spi.c ****     hdma_spi1_tx.Init.PeriphDataAlignment = DMA_PDATAALIGN_BYTE;
 234              		.loc 1 94 30 view .LVU79
 235 0080 3361     		str	r3, [r6, #16]
  95:Core/Src/spi.c ****     hdma_spi1_tx.Init.MemDataAlignment = DMA_MDATAALIGN_BYTE;
 236              		.loc 1 95 5 is_stmt 1 view .LVU80
  97:Core/Src/spi.c ****     hdma_spi1_tx.Init.Priority = DMA_PRIORITY_LOW;
 237              		.loc 1 97 5 view .LVU81
  99:Core/Src/spi.c ****     if (HAL_DMA_Init(&hdma_spi1_tx) != HAL_OK)
 238              		.loc 1 99 5 view .LVU82
 100:Core/Src/spi.c ****     {
 239              		.loc 1 100 5 view .LVU83
 100:Core/Src/spi.c ****     {
 240              		.loc 1 100 9 is_stmt 0 view .LVU84
 241 0082 FFF7FEFF 		bl	HAL_DMA_Init
 242              	.LVL5:
 100:Core/Src/spi.c ****     {
 243              		.loc 1 100 8 view .LVU85
 244 0086 58B9     		cbnz	r0, .L16
 245              	.L10:
 105:Core/Src/spi.c **** 
 246              		.loc 1 105 5 is_stmt 1 view .LVU86
 105:Core/Src/spi.c **** 
 247              		.loc 1 105 5 view .LVU87
 108:Core/Src/spi.c ****     HAL_NVIC_EnableIRQ(SPI1_IRQn);
 248              		.loc 1 108 5 is_stmt 0 view .LVU88
 249 0088 0022     		movs	r2, #0
 250 008a 1146     		mov	r1, r2
 251 008c 2320     		movs	r0, #35
 105:Core/Src/spi.c **** 
 252              		.loc 1 105 5 view .LVU89
 253 008e AE64     		str	r6, [r5, #72]
 105:Core/Src/spi.c **** 
 254              		.loc 1 105 5 is_stmt 1 view .LVU90
 255 0090 B563     		str	r5, [r6, #56]
 105:Core/Src/spi.c **** 
 256              		.loc 1 105 5 view .LVU91
 108:Core/Src/spi.c ****     HAL_NVIC_EnableIRQ(SPI1_IRQn);
 257              		.loc 1 108 5 view .LVU92
 258 0092 FFF7FEFF 		bl	HAL_NVIC_SetPriority
 259              	.LVL6:
 109:Core/Src/spi.c ****   /* USER CODE BEGIN SPI1_MspInit 1 */
 260              		.loc 1 109 5 view .LVU93
 261 0096 2320     		movs	r0, #35
 262 0098 FFF7FEFF 		bl	HAL_NVIC_EnableIRQ
 263              	.LVL7:
 264              		.loc 1 114 1 is_stmt 0 view .LVU94
 265 009c 08B0     		add	sp, sp, #32
 266              		.cfi_remember_state
 267              		.cfi_def_cfa_offset 16
 268              		@ sp needed
 269 009e 70BD     		pop	{r4, r5, r6, pc}
 270              	.LVL8:
 271              	.L16:
 272              		.cfi_restore_state
 102:Core/Src/spi.c ****     }
 273              		.loc 1 102 7 is_stmt 1 view .LVU95
ARM GAS  /var/folders/0z/tsy30v1j4xl4_7kw94k978ww0000gn/T//ccSMO3JZ.s 			page 9


 274 00a0 FFF7FEFF 		bl	Error_Handler
 275              	.LVL9:
 276 00a4 F0E7     		b	.L10
 277              	.L18:
 278 00a6 00BF     		.align	2
 279              	.L17:
 280 00a8 00300140 		.word	1073819648
 281 00ac 00000000 		.word	.LANCHOR1
 282 00b0 00000240 		.word	1073872896
 283 00b4 58640240 		.word	1073898584
 284              		.cfi_endproc
 285              	.LFE138:
 287              		.section	.text.HAL_SPI_MspDeInit,"ax",%progbits
 288              		.align	1
 289              		.p2align 2,,3
 290              		.global	HAL_SPI_MspDeInit
 291              		.syntax unified
 292              		.thumb
 293              		.thumb_func
 295              	HAL_SPI_MspDeInit:
 296              	.LVL10:
 297              	.LFB139:
 115:Core/Src/spi.c **** 
 116:Core/Src/spi.c **** void HAL_SPI_MspDeInit(SPI_HandleTypeDef* spiHandle)
 117:Core/Src/spi.c **** {
 298              		.loc 1 117 1 view -0
 299              		.cfi_startproc
 300              		@ args = 0, pretend = 0, frame = 0
 301              		@ frame_needed = 0, uses_anonymous_args = 0
 118:Core/Src/spi.c **** 
 119:Core/Src/spi.c ****   if(spiHandle->Instance==SPI1)
 302              		.loc 1 119 3 view .LVU97
 303              		.loc 1 119 5 is_stmt 0 view .LVU98
 304 0000 0B4B     		ldr	r3, .L25
 305 0002 0268     		ldr	r2, [r0]
 306 0004 9A42     		cmp	r2, r3
 307 0006 00D0     		beq	.L24
 308 0008 7047     		bx	lr
 309              	.L24:
 120:Core/Src/spi.c ****   {
 121:Core/Src/spi.c ****   /* USER CODE BEGIN SPI1_MspDeInit 0 */
 122:Core/Src/spi.c **** 
 123:Core/Src/spi.c ****   /* USER CODE END SPI1_MspDeInit 0 */
 124:Core/Src/spi.c ****     /* Peripheral clock disable */
 125:Core/Src/spi.c ****     __HAL_RCC_SPI1_CLK_DISABLE();
 310              		.loc 1 125 5 is_stmt 1 view .LVU99
 311 000a 0A4A     		ldr	r2, .L25+4
 117:Core/Src/spi.c **** 
 312              		.loc 1 117 1 is_stmt 0 view .LVU100
 313 000c 10B5     		push	{r4, lr}
 314              		.cfi_def_cfa_offset 8
 315              		.cfi_offset 4, -8
 316              		.cfi_offset 14, -4
 317              		.loc 1 125 5 view .LVU101
 318 000e 536C     		ldr	r3, [r2, #68]
 319 0010 0446     		mov	r4, r0
 320 0012 23F48053 		bic	r3, r3, #4096
ARM GAS  /var/folders/0z/tsy30v1j4xl4_7kw94k978ww0000gn/T//ccSMO3JZ.s 			page 10


 126:Core/Src/spi.c **** 
 127:Core/Src/spi.c ****     /**SPI1 GPIO Configuration
 128:Core/Src/spi.c ****     PA5     ------> SPI1_SCK
 129:Core/Src/spi.c ****     PA6     ------> SPI1_MISO
 130:Core/Src/spi.c ****     PA7     ------> SPI1_MOSI
 131:Core/Src/spi.c ****     */
 132:Core/Src/spi.c ****     HAL_GPIO_DeInit(GPIOA, SPI1_SCK_Pin|SPI1_MISO_Pin|SPI1_MOSI_Pin);
 321              		.loc 1 132 5 view .LVU102
 322 0016 0848     		ldr	r0, .L25+8
 323              	.LVL11:
 125:Core/Src/spi.c **** 
 324              		.loc 1 125 5 view .LVU103
 325 0018 5364     		str	r3, [r2, #68]
 326              		.loc 1 132 5 is_stmt 1 view .LVU104
 327 001a E021     		movs	r1, #224
 328 001c FFF7FEFF 		bl	HAL_GPIO_DeInit
 329              	.LVL12:
 133:Core/Src/spi.c **** 
 134:Core/Src/spi.c ****     /* SPI1 DMA DeInit */
 135:Core/Src/spi.c ****     HAL_DMA_DeInit(spiHandle->hdmatx);
 330              		.loc 1 135 5 view .LVU105
 331 0020 A06C     		ldr	r0, [r4, #72]
 332 0022 FFF7FEFF 		bl	HAL_DMA_DeInit
 333              	.LVL13:
 136:Core/Src/spi.c **** 
 137:Core/Src/spi.c ****     /* SPI1 interrupt Deinit */
 138:Core/Src/spi.c ****     HAL_NVIC_DisableIRQ(SPI1_IRQn);
 334              		.loc 1 138 5 view .LVU106
 139:Core/Src/spi.c ****   /* USER CODE BEGIN SPI1_MspDeInit 1 */
 140:Core/Src/spi.c **** 
 141:Core/Src/spi.c ****   /* USER CODE END SPI1_MspDeInit 1 */
 142:Core/Src/spi.c ****   }
 143:Core/Src/spi.c **** }
 335              		.loc 1 143 1 is_stmt 0 view .LVU107
 336 0026 BDE81040 		pop	{r4, lr}
 337              		.cfi_restore 14
 338              		.cfi_restore 4
 339              		.cfi_def_cfa_offset 0
 340              	.LVL14:
 138:Core/Src/spi.c ****   /* USER CODE BEGIN SPI1_MspDeInit 1 */
 341              		.loc 1 138 5 view .LVU108
 342 002a 2320     		movs	r0, #35
 343 002c FFF7FEBF 		b	HAL_NVIC_DisableIRQ
 344              	.LVL15:
 345              	.L26:
 346              		.align	2
 347              	.L25:
 348 0030 00300140 		.word	1073819648
 349 0034 00380240 		.word	1073887232
 350 0038 00000240 		.word	1073872896
 351              		.cfi_endproc
 352              	.LFE139:
 354              		.global	hdma_spi1_tx
 355              		.global	hspi1
 356              		.section	.bss.hdma_spi1_tx,"aw",%nobits
 357              		.align	2
 358              		.set	.LANCHOR1,. + 0
ARM GAS  /var/folders/0z/tsy30v1j4xl4_7kw94k978ww0000gn/T//ccSMO3JZ.s 			page 11


 361              	hdma_spi1_tx:
 362 0000 00000000 		.space	96
 362      00000000 
 362      00000000 
 362      00000000 
 362      00000000 
 363              		.section	.bss.hspi1,"aw",%nobits
 364              		.align	2
 365              		.set	.LANCHOR0,. + 0
 368              	hspi1:
 369 0000 00000000 		.space	88
 369      00000000 
 369      00000000 
 369      00000000 
 369      00000000 
 370              		.text
 371              	.Letext0:
 372              		.file 2 "Drivers/CMSIS/Device/ST/STM32F4xx/Include/stm32f407xx.h"
 373              		.file 3 "/Users/johannes/Library/Application Support/Code/User/globalStorage/bmd.stm32-for-vscode/
 374              		.file 4 "/Users/johannes/Library/Application Support/Code/User/globalStorage/bmd.stm32-for-vscode/
 375              		.file 5 "Drivers/STM32F4xx_HAL_Driver/Inc/stm32f4xx_hal_def.h"
 376              		.file 6 "Drivers/STM32F4xx_HAL_Driver/Inc/stm32f4xx_hal_gpio.h"
 377              		.file 7 "Drivers/STM32F4xx_HAL_Driver/Inc/stm32f4xx_hal_dma.h"
 378              		.file 8 "Drivers/STM32F4xx_HAL_Driver/Inc/stm32f4xx_hal_spi.h"
 379              		.file 9 "Core/Inc/spi.h"
 380              		.file 10 "Drivers/STM32F4xx_HAL_Driver/Inc/stm32f4xx_hal_cortex.h"
 381              		.file 11 "Core/Inc/main.h"
ARM GAS  /var/folders/0z/tsy30v1j4xl4_7kw94k978ww0000gn/T//ccSMO3JZ.s 			page 12

