ARM GAS  /var/folders/0z/tsy30v1j4xl4_7kw94k978ww0000gn/T//ccwsJdN3.s 			page 1


   1              		.cpu cortex-m4
   2              		.arch armv7e-m
   3              		.fpu fpv4-sp-d16
   4              		.eabi_attribute 27, 1
   5              		.eabi_attribute 28, 1
   6              		.eabi_attribute 20, 1
   7              		.eabi_attribute 21, 1
   8              		.eabi_attribute 23, 3
   9              		.eabi_attribute 24, 1
  10              		.eabi_attribute 25, 1
  11              		.eabi_attribute 26, 1
  12              		.eabi_attribute 30, 1
  13              		.eabi_attribute 34, 1
  14              		.eabi_attribute 18, 4
  15              		.file	"st7789h2.c"
  16              		.text
  17              	.Ltext0:
  18              		.cfi_sections	.debug_frame
  19              		.section	.text.ST7789H2_GetLcdPixelWidth,"ax",%progbits
  20              		.align	1
  21              		.global	ST7789H2_GetLcdPixelWidth
  22              		.syntax unified
  23              		.thumb
  24              		.thumb_func
  26              	ST7789H2_GetLcdPixelWidth:
  27              	.LFB7:
  28              		.file 1 "Drivers/BSP/Components/st7789h2/st7789h2.c"
   1:Drivers/BSP/Components/st7789h2/st7789h2.c **** /**
   2:Drivers/BSP/Components/st7789h2/st7789h2.c ****   ******************************************************************************
   3:Drivers/BSP/Components/st7789h2/st7789h2.c ****   * @file    st7789h2.c
   4:Drivers/BSP/Components/st7789h2/st7789h2.c ****   * @author  MCD Application Team
   5:Drivers/BSP/Components/st7789h2/st7789h2.c ****   * @version V1.1.1
   6:Drivers/BSP/Components/st7789h2/st7789h2.c ****   * @date    29-December-2016
   7:Drivers/BSP/Components/st7789h2/st7789h2.c ****   * @brief   This file includes the LCD driver for st7789h2 LCD.
   8:Drivers/BSP/Components/st7789h2/st7789h2.c ****   ******************************************************************************
   9:Drivers/BSP/Components/st7789h2/st7789h2.c ****   * @attention
  10:Drivers/BSP/Components/st7789h2/st7789h2.c ****   *
  11:Drivers/BSP/Components/st7789h2/st7789h2.c ****   * <h2><center>&copy; COPYRIGHT(c) 2016 STMicroelectronics</center></h2>
  12:Drivers/BSP/Components/st7789h2/st7789h2.c ****   *
  13:Drivers/BSP/Components/st7789h2/st7789h2.c ****   * Redistribution and use in source and binary forms, with or without modification,
  14:Drivers/BSP/Components/st7789h2/st7789h2.c ****   * are permitted provided that the following conditions are met:
  15:Drivers/BSP/Components/st7789h2/st7789h2.c ****   *   1. Redistributions of source code must retain the above copyright notice,
  16:Drivers/BSP/Components/st7789h2/st7789h2.c ****   *      this list of conditions and the following disclaimer.
  17:Drivers/BSP/Components/st7789h2/st7789h2.c ****   *   2. Redistributions in binary form must reproduce the above copyright notice,
  18:Drivers/BSP/Components/st7789h2/st7789h2.c ****   *      this list of conditions and the following disclaimer in the documentation
  19:Drivers/BSP/Components/st7789h2/st7789h2.c ****   *      and/or other materials provided with the distribution.
  20:Drivers/BSP/Components/st7789h2/st7789h2.c ****   *   3. Neither the name of STMicroelectronics nor the names of its contributors
  21:Drivers/BSP/Components/st7789h2/st7789h2.c ****   *      may be used to endorse or promote products derived from this software
  22:Drivers/BSP/Components/st7789h2/st7789h2.c ****   *      without specific prior written permission.
  23:Drivers/BSP/Components/st7789h2/st7789h2.c ****   *
  24:Drivers/BSP/Components/st7789h2/st7789h2.c ****   * THIS SOFTWARE IS PROVIDED BY THE COPYRIGHT HOLDERS AND CONTRIBUTORS "AS IS"
  25:Drivers/BSP/Components/st7789h2/st7789h2.c ****   * AND ANY EXPRESS OR IMPLIED WARRANTIES, INCLUDING, BUT NOT LIMITED TO, THE
  26:Drivers/BSP/Components/st7789h2/st7789h2.c ****   * IMPLIED WARRANTIES OF MERCHANTABILITY AND FITNESS FOR A PARTICULAR PURPOSE ARE
  27:Drivers/BSP/Components/st7789h2/st7789h2.c ****   * DISCLAIMED. IN NO EVENT SHALL THE COPYRIGHT HOLDER OR CONTRIBUTORS BE LIABLE
  28:Drivers/BSP/Components/st7789h2/st7789h2.c ****   * FOR ANY DIRECT, INDIRECT, INCIDENTAL, SPECIAL, EXEMPLARY, OR CONSEQUENTIAL
  29:Drivers/BSP/Components/st7789h2/st7789h2.c ****   * DAMAGES (INCLUDING, BUT NOT LIMITED TO, PROCUREMENT OF SUBSTITUTE GOODS OR
  30:Drivers/BSP/Components/st7789h2/st7789h2.c ****   * SERVICES; LOSS OF USE, DATA, OR PROFITS; OR BUSINESS INTERRUPTION) HOWEVER
ARM GAS  /var/folders/0z/tsy30v1j4xl4_7kw94k978ww0000gn/T//ccwsJdN3.s 			page 2


  31:Drivers/BSP/Components/st7789h2/st7789h2.c ****   * CAUSED AND ON ANY THEORY OF LIABILITY, WHETHER IN CONTRACT, STRICT LIABILITY,
  32:Drivers/BSP/Components/st7789h2/st7789h2.c ****   * OR TORT (INCLUDING NEGLIGENCE OR OTHERWISE) ARISING IN ANY WAY OUT OF THE USE
  33:Drivers/BSP/Components/st7789h2/st7789h2.c ****   * OF THIS SOFTWARE, EVEN IF ADVISED OF THE POSSIBILITY OF SUCH DAMAGE.
  34:Drivers/BSP/Components/st7789h2/st7789h2.c ****   *
  35:Drivers/BSP/Components/st7789h2/st7789h2.c ****   ******************************************************************************
  36:Drivers/BSP/Components/st7789h2/st7789h2.c ****   */ 
  37:Drivers/BSP/Components/st7789h2/st7789h2.c **** 
  38:Drivers/BSP/Components/st7789h2/st7789h2.c **** /* Includes ------------------------------------------------------------------*/
  39:Drivers/BSP/Components/st7789h2/st7789h2.c **** #include "st7789h2.h"
  40:Drivers/BSP/Components/st7789h2/st7789h2.c **** 
  41:Drivers/BSP/Components/st7789h2/st7789h2.c **** /** @addtogroup BSP
  42:Drivers/BSP/Components/st7789h2/st7789h2.c ****   * @{
  43:Drivers/BSP/Components/st7789h2/st7789h2.c ****   */ 
  44:Drivers/BSP/Components/st7789h2/st7789h2.c **** 
  45:Drivers/BSP/Components/st7789h2/st7789h2.c **** /** @addtogroup Components
  46:Drivers/BSP/Components/st7789h2/st7789h2.c ****   * @{
  47:Drivers/BSP/Components/st7789h2/st7789h2.c ****   */ 
  48:Drivers/BSP/Components/st7789h2/st7789h2.c ****   
  49:Drivers/BSP/Components/st7789h2/st7789h2.c **** /** @defgroup ST7789H2
  50:Drivers/BSP/Components/st7789h2/st7789h2.c ****   * @brief     This file provides a set of functions needed to drive the 
  51:Drivers/BSP/Components/st7789h2/st7789h2.c ****   *            FRIDA FRD154BP2901 LCD.
  52:Drivers/BSP/Components/st7789h2/st7789h2.c ****   * @{
  53:Drivers/BSP/Components/st7789h2/st7789h2.c ****   */
  54:Drivers/BSP/Components/st7789h2/st7789h2.c **** 
  55:Drivers/BSP/Components/st7789h2/st7789h2.c **** /** @defgroup ST7789H2_Private_TypesDefinitions ST7789H2 Private TypesDefinitions
  56:Drivers/BSP/Components/st7789h2/st7789h2.c ****   * @{
  57:Drivers/BSP/Components/st7789h2/st7789h2.c ****   */ 
  58:Drivers/BSP/Components/st7789h2/st7789h2.c **** typedef struct  {
  59:Drivers/BSP/Components/st7789h2/st7789h2.c ****   uint8_t red;
  60:Drivers/BSP/Components/st7789h2/st7789h2.c ****   uint8_t green;
  61:Drivers/BSP/Components/st7789h2/st7789h2.c ****   uint8_t blue;
  62:Drivers/BSP/Components/st7789h2/st7789h2.c **** } ST7789H2_Rgb888;
  63:Drivers/BSP/Components/st7789h2/st7789h2.c **** 
  64:Drivers/BSP/Components/st7789h2/st7789h2.c **** /**
  65:Drivers/BSP/Components/st7789h2/st7789h2.c ****   * @}
  66:Drivers/BSP/Components/st7789h2/st7789h2.c ****   */ 
  67:Drivers/BSP/Components/st7789h2/st7789h2.c **** 
  68:Drivers/BSP/Components/st7789h2/st7789h2.c **** /** @defgroup ST7789H2_Private_Defines ST7789H2 Private Defines
  69:Drivers/BSP/Components/st7789h2/st7789h2.c ****   * @{
  70:Drivers/BSP/Components/st7789h2/st7789h2.c ****   */
  71:Drivers/BSP/Components/st7789h2/st7789h2.c **** 
  72:Drivers/BSP/Components/st7789h2/st7789h2.c **** /**
  73:Drivers/BSP/Components/st7789h2/st7789h2.c ****   * @}
  74:Drivers/BSP/Components/st7789h2/st7789h2.c ****   */ 
  75:Drivers/BSP/Components/st7789h2/st7789h2.c ****   
  76:Drivers/BSP/Components/st7789h2/st7789h2.c **** /** @defgroup ST7789H2_Private_Macros ST7789H2 Private Macros
  77:Drivers/BSP/Components/st7789h2/st7789h2.c ****   * @{
  78:Drivers/BSP/Components/st7789h2/st7789h2.c ****   */
  79:Drivers/BSP/Components/st7789h2/st7789h2.c ****      
  80:Drivers/BSP/Components/st7789h2/st7789h2.c **** /**
  81:Drivers/BSP/Components/st7789h2/st7789h2.c ****   * @}
  82:Drivers/BSP/Components/st7789h2/st7789h2.c ****   */  
  83:Drivers/BSP/Components/st7789h2/st7789h2.c **** 
  84:Drivers/BSP/Components/st7789h2/st7789h2.c **** /** @defgroup ST7789H2_Private_Variables ST7789H2 Private Variables
  85:Drivers/BSP/Components/st7789h2/st7789h2.c ****   * @{
  86:Drivers/BSP/Components/st7789h2/st7789h2.c ****   */ 
  87:Drivers/BSP/Components/st7789h2/st7789h2.c **** LCD_DrvTypeDef   ST7789H2_drv = 
ARM GAS  /var/folders/0z/tsy30v1j4xl4_7kw94k978ww0000gn/T//ccwsJdN3.s 			page 3


  88:Drivers/BSP/Components/st7789h2/st7789h2.c **** {
  89:Drivers/BSP/Components/st7789h2/st7789h2.c ****   ST7789H2_Init,
  90:Drivers/BSP/Components/st7789h2/st7789h2.c ****   ST7789H2_ReadID,
  91:Drivers/BSP/Components/st7789h2/st7789h2.c ****   ST7789H2_DisplayOn,
  92:Drivers/BSP/Components/st7789h2/st7789h2.c ****   ST7789H2_DisplayOff,
  93:Drivers/BSP/Components/st7789h2/st7789h2.c ****   ST7789H2_SetCursor,
  94:Drivers/BSP/Components/st7789h2/st7789h2.c ****   ST7789H2_WritePixel,
  95:Drivers/BSP/Components/st7789h2/st7789h2.c ****   ST7789H2_ReadPixel,
  96:Drivers/BSP/Components/st7789h2/st7789h2.c ****   ST7789H2_SetDisplayWindow,
  97:Drivers/BSP/Components/st7789h2/st7789h2.c ****   ST7789H2_DrawHLine,
  98:Drivers/BSP/Components/st7789h2/st7789h2.c ****   ST7789H2_DrawVLine,
  99:Drivers/BSP/Components/st7789h2/st7789h2.c ****   ST7789H2_GetLcdPixelWidth,
 100:Drivers/BSP/Components/st7789h2/st7789h2.c ****   ST7789H2_GetLcdPixelHeight,
 101:Drivers/BSP/Components/st7789h2/st7789h2.c ****   ST7789H2_DrawBitmap,
 102:Drivers/BSP/Components/st7789h2/st7789h2.c ****   ST7789H2_DrawRGBImage,  
 103:Drivers/BSP/Components/st7789h2/st7789h2.c **** };
 104:Drivers/BSP/Components/st7789h2/st7789h2.c **** 
 105:Drivers/BSP/Components/st7789h2/st7789h2.c **** static uint16_t WindowsXstart = 0;
 106:Drivers/BSP/Components/st7789h2/st7789h2.c **** static uint16_t WindowsYstart = 0;
 107:Drivers/BSP/Components/st7789h2/st7789h2.c **** static uint16_t WindowsXend = ST7789H2_LCD_PIXEL_WIDTH-1;
 108:Drivers/BSP/Components/st7789h2/st7789h2.c **** static uint16_t WindowsYend = ST7789H2_LCD_PIXEL_HEIGHT-1;
 109:Drivers/BSP/Components/st7789h2/st7789h2.c **** /**
 110:Drivers/BSP/Components/st7789h2/st7789h2.c ****   * @}
 111:Drivers/BSP/Components/st7789h2/st7789h2.c ****   */ 
 112:Drivers/BSP/Components/st7789h2/st7789h2.c ****   
 113:Drivers/BSP/Components/st7789h2/st7789h2.c **** /** @defgroup ST7789H2_Private_FunctionPrototypes ST7789H2 Private FunctionPrototypes
 114:Drivers/BSP/Components/st7789h2/st7789h2.c ****   * @{
 115:Drivers/BSP/Components/st7789h2/st7789h2.c ****   */
 116:Drivers/BSP/Components/st7789h2/st7789h2.c **** static ST7789H2_Rgb888 ST7789H2_ReadPixel_rgb888(uint16_t Xpos, uint16_t Ypos);
 117:Drivers/BSP/Components/st7789h2/st7789h2.c **** static void ST7789H2_DrawRGBHLine(uint16_t Xpos, uint16_t Ypos, uint16_t Xsize, uint8_t *pdata);
 118:Drivers/BSP/Components/st7789h2/st7789h2.c **** 
 119:Drivers/BSP/Components/st7789h2/st7789h2.c **** /**
 120:Drivers/BSP/Components/st7789h2/st7789h2.c ****   * @}
 121:Drivers/BSP/Components/st7789h2/st7789h2.c ****   */ 
 122:Drivers/BSP/Components/st7789h2/st7789h2.c ****   
 123:Drivers/BSP/Components/st7789h2/st7789h2.c **** /** @defgroup ST7789H2_Private_Functions ST7789H2 Private Functions
 124:Drivers/BSP/Components/st7789h2/st7789h2.c ****   * @{
 125:Drivers/BSP/Components/st7789h2/st7789h2.c ****   */   
 126:Drivers/BSP/Components/st7789h2/st7789h2.c **** 
 127:Drivers/BSP/Components/st7789h2/st7789h2.c **** /**
 128:Drivers/BSP/Components/st7789h2/st7789h2.c ****   * @brief  Initialize the st7789h2 LCD Component.
 129:Drivers/BSP/Components/st7789h2/st7789h2.c ****   * @param  None
 130:Drivers/BSP/Components/st7789h2/st7789h2.c ****   * @retval None
 131:Drivers/BSP/Components/st7789h2/st7789h2.c ****   */
 132:Drivers/BSP/Components/st7789h2/st7789h2.c **** void ST7789H2_Init(void)
 133:Drivers/BSP/Components/st7789h2/st7789h2.c **** {
 134:Drivers/BSP/Components/st7789h2/st7789h2.c ****   uint8_t   parameter[14];
 135:Drivers/BSP/Components/st7789h2/st7789h2.c ****   
 136:Drivers/BSP/Components/st7789h2/st7789h2.c ****   /* Initialize st7789h2 low level bus layer ----------------------------------*/
 137:Drivers/BSP/Components/st7789h2/st7789h2.c ****   LCD_IO_Init();
 138:Drivers/BSP/Components/st7789h2/st7789h2.c ****   /* Sleep In Command */ 
 139:Drivers/BSP/Components/st7789h2/st7789h2.c ****   ST7789H2_WriteReg(ST7789H2_SLEEP_IN, (uint8_t*)NULL, 0); 
 140:Drivers/BSP/Components/st7789h2/st7789h2.c ****   /* Wait for 10ms */
 141:Drivers/BSP/Components/st7789h2/st7789h2.c ****   LCD_IO_Delay(10);  
 142:Drivers/BSP/Components/st7789h2/st7789h2.c ****   
 143:Drivers/BSP/Components/st7789h2/st7789h2.c ****   /* SW Reset Command */
 144:Drivers/BSP/Components/st7789h2/st7789h2.c ****   ST7789H2_WriteReg(0x01, (uint8_t*)NULL, 0); 
ARM GAS  /var/folders/0z/tsy30v1j4xl4_7kw94k978ww0000gn/T//ccwsJdN3.s 			page 4


 145:Drivers/BSP/Components/st7789h2/st7789h2.c ****   /* Wait for 200ms */
 146:Drivers/BSP/Components/st7789h2/st7789h2.c ****   LCD_IO_Delay(200);
 147:Drivers/BSP/Components/st7789h2/st7789h2.c ****   
 148:Drivers/BSP/Components/st7789h2/st7789h2.c ****   /* Sleep Out Command */
 149:Drivers/BSP/Components/st7789h2/st7789h2.c ****   ST7789H2_WriteReg(ST7789H2_SLEEP_OUT, (uint8_t*)NULL, 0); 
 150:Drivers/BSP/Components/st7789h2/st7789h2.c ****   /* Wait for 120ms */
 151:Drivers/BSP/Components/st7789h2/st7789h2.c ****   LCD_IO_Delay(120); 
 152:Drivers/BSP/Components/st7789h2/st7789h2.c **** 
 153:Drivers/BSP/Components/st7789h2/st7789h2.c ****   /* Normal display for Driver Down side */
 154:Drivers/BSP/Components/st7789h2/st7789h2.c ****   parameter[0] = 0x00;     
 155:Drivers/BSP/Components/st7789h2/st7789h2.c ****   ST7789H2_WriteReg(ST7789H2_NORMAL_DISPLAY, parameter, 1);
 156:Drivers/BSP/Components/st7789h2/st7789h2.c ****  
 157:Drivers/BSP/Components/st7789h2/st7789h2.c ****   /* Color mode 16bits/pixel */
 158:Drivers/BSP/Components/st7789h2/st7789h2.c ****   parameter[0] = 0x05;     
 159:Drivers/BSP/Components/st7789h2/st7789h2.c ****   ST7789H2_WriteReg(ST7789H2_COLOR_MODE, parameter, 1);
 160:Drivers/BSP/Components/st7789h2/st7789h2.c ****   
 161:Drivers/BSP/Components/st7789h2/st7789h2.c ****   /* Display inversion On */
 162:Drivers/BSP/Components/st7789h2/st7789h2.c ****   ST7789H2_WriteReg(ST7789H2_DISPLAY_INVERSION, (uint8_t*)NULL, 0);     
 163:Drivers/BSP/Components/st7789h2/st7789h2.c ****   
 164:Drivers/BSP/Components/st7789h2/st7789h2.c ****   /* Set Column address CASET */  
 165:Drivers/BSP/Components/st7789h2/st7789h2.c ****   parameter[0] = 0x00;
 166:Drivers/BSP/Components/st7789h2/st7789h2.c ****   parameter[1] = 0x00;
 167:Drivers/BSP/Components/st7789h2/st7789h2.c ****   parameter[2] = 0x00;
 168:Drivers/BSP/Components/st7789h2/st7789h2.c ****   parameter[3] = 0xEF;
 169:Drivers/BSP/Components/st7789h2/st7789h2.c ****   ST7789H2_WriteReg(ST7789H2_CASET, parameter, 4);
 170:Drivers/BSP/Components/st7789h2/st7789h2.c ****   /* Set Row address RASET */  
 171:Drivers/BSP/Components/st7789h2/st7789h2.c ****   parameter[0] = 0x00;
 172:Drivers/BSP/Components/st7789h2/st7789h2.c ****   parameter[1] = 0x00;
 173:Drivers/BSP/Components/st7789h2/st7789h2.c ****   parameter[2] = 0x00;
 174:Drivers/BSP/Components/st7789h2/st7789h2.c ****   parameter[3] = 0xEF;
 175:Drivers/BSP/Components/st7789h2/st7789h2.c ****   ST7789H2_WriteReg(ST7789H2_RASET, parameter, 4);
 176:Drivers/BSP/Components/st7789h2/st7789h2.c **** 
 177:Drivers/BSP/Components/st7789h2/st7789h2.c ****   /*--------------- ST7789H2 Frame rate setting -------------------------------*/
 178:Drivers/BSP/Components/st7789h2/st7789h2.c ****   /* PORCH control setting */      
 179:Drivers/BSP/Components/st7789h2/st7789h2.c ****   parameter[0] = 0x0C;
 180:Drivers/BSP/Components/st7789h2/st7789h2.c ****   parameter[1] = 0x0C;
 181:Drivers/BSP/Components/st7789h2/st7789h2.c ****   parameter[2] = 0x00;
 182:Drivers/BSP/Components/st7789h2/st7789h2.c ****   parameter[3] = 0x33;
 183:Drivers/BSP/Components/st7789h2/st7789h2.c ****   parameter[4] = 0x33; 
 184:Drivers/BSP/Components/st7789h2/st7789h2.c ****   ST7789H2_WriteReg(ST7789H2_PORCH_CTRL, parameter, 5);
 185:Drivers/BSP/Components/st7789h2/st7789h2.c ****   
 186:Drivers/BSP/Components/st7789h2/st7789h2.c ****   /* GATE control setting */
 187:Drivers/BSP/Components/st7789h2/st7789h2.c ****   parameter[0] = 0x35; 
 188:Drivers/BSP/Components/st7789h2/st7789h2.c ****   ST7789H2_WriteReg(ST7789H2_GATE_CTRL, parameter, 1);
 189:Drivers/BSP/Components/st7789h2/st7789h2.c ****   
 190:Drivers/BSP/Components/st7789h2/st7789h2.c ****   /*--------------- ST7789H2 Power setting ------------------------------------*/
 191:Drivers/BSP/Components/st7789h2/st7789h2.c ****   /* VCOM setting */ 
 192:Drivers/BSP/Components/st7789h2/st7789h2.c ****   parameter[0] = 0x1F; 
 193:Drivers/BSP/Components/st7789h2/st7789h2.c ****   ST7789H2_WriteReg(ST7789H2_VCOM_SET, parameter, 1); 
 194:Drivers/BSP/Components/st7789h2/st7789h2.c ****   
 195:Drivers/BSP/Components/st7789h2/st7789h2.c ****   /* LCM Control setting */ 
 196:Drivers/BSP/Components/st7789h2/st7789h2.c ****   parameter[0] = 0x2C; 
 197:Drivers/BSP/Components/st7789h2/st7789h2.c ****   ST7789H2_WriteReg(ST7789H2_LCM_CTRL, parameter, 1);
 198:Drivers/BSP/Components/st7789h2/st7789h2.c ****   
 199:Drivers/BSP/Components/st7789h2/st7789h2.c ****   /* VDV and VRH Command Enable */ 
 200:Drivers/BSP/Components/st7789h2/st7789h2.c ****   parameter[0] = 0x01;
 201:Drivers/BSP/Components/st7789h2/st7789h2.c ****   parameter[1] = 0xC3;
ARM GAS  /var/folders/0z/tsy30v1j4xl4_7kw94k978ww0000gn/T//ccwsJdN3.s 			page 5


 202:Drivers/BSP/Components/st7789h2/st7789h2.c ****   ST7789H2_WriteReg(ST7789H2_VDV_VRH_EN, parameter, 2);
 203:Drivers/BSP/Components/st7789h2/st7789h2.c ****   
 204:Drivers/BSP/Components/st7789h2/st7789h2.c ****   /* VDV Set */ 
 205:Drivers/BSP/Components/st7789h2/st7789h2.c ****   parameter[0] = 0x20; 
 206:Drivers/BSP/Components/st7789h2/st7789h2.c ****   ST7789H2_WriteReg(ST7789H2_VDV_SET, parameter, 1); 
 207:Drivers/BSP/Components/st7789h2/st7789h2.c ****   
 208:Drivers/BSP/Components/st7789h2/st7789h2.c ****   /* Frame Rate Control in normal mode */ 
 209:Drivers/BSP/Components/st7789h2/st7789h2.c ****   parameter[0] = 0x0F; 
 210:Drivers/BSP/Components/st7789h2/st7789h2.c ****   ST7789H2_WriteReg(ST7789H2_FR_CTRL, parameter, 1); 
 211:Drivers/BSP/Components/st7789h2/st7789h2.c ****   
 212:Drivers/BSP/Components/st7789h2/st7789h2.c ****   /* Power Control */     
 213:Drivers/BSP/Components/st7789h2/st7789h2.c ****   parameter[0] = 0xA4;
 214:Drivers/BSP/Components/st7789h2/st7789h2.c ****   parameter[1] = 0xA1;
 215:Drivers/BSP/Components/st7789h2/st7789h2.c ****   ST7789H2_WriteReg(ST7789H2_POWER_CTRL, parameter, 1); 
 216:Drivers/BSP/Components/st7789h2/st7789h2.c ****   
 217:Drivers/BSP/Components/st7789h2/st7789h2.c ****   /*--------------- ST7789H2 Gamma setting ------------------------------------*/
 218:Drivers/BSP/Components/st7789h2/st7789h2.c ****   /* Positive Voltage Gamma Control */ 
 219:Drivers/BSP/Components/st7789h2/st7789h2.c ****   parameter[0] = 0xD0;
 220:Drivers/BSP/Components/st7789h2/st7789h2.c ****   parameter[1] = 0x08;
 221:Drivers/BSP/Components/st7789h2/st7789h2.c ****   parameter[2] = 0x11;
 222:Drivers/BSP/Components/st7789h2/st7789h2.c ****   parameter[3] = 0x08;
 223:Drivers/BSP/Components/st7789h2/st7789h2.c ****   parameter[4] = 0x0C;
 224:Drivers/BSP/Components/st7789h2/st7789h2.c ****   parameter[5] = 0x15;
 225:Drivers/BSP/Components/st7789h2/st7789h2.c ****   parameter[6] = 0x39;
 226:Drivers/BSP/Components/st7789h2/st7789h2.c ****   parameter[7] = 0x33;
 227:Drivers/BSP/Components/st7789h2/st7789h2.c ****   parameter[8] = 0x50;
 228:Drivers/BSP/Components/st7789h2/st7789h2.c ****   parameter[9] = 0x36;
 229:Drivers/BSP/Components/st7789h2/st7789h2.c ****   parameter[10] = 0x13;
 230:Drivers/BSP/Components/st7789h2/st7789h2.c ****   parameter[11] = 0x14;
 231:Drivers/BSP/Components/st7789h2/st7789h2.c ****   parameter[12] = 0x29;
 232:Drivers/BSP/Components/st7789h2/st7789h2.c ****   parameter[13] = 0x2D;
 233:Drivers/BSP/Components/st7789h2/st7789h2.c ****   ST7789H2_WriteReg(ST7789H2_PV_GAMMA_CTRL, parameter, 14); 
 234:Drivers/BSP/Components/st7789h2/st7789h2.c ****   
 235:Drivers/BSP/Components/st7789h2/st7789h2.c ****   /* Negative Voltage Gamma Control */     
 236:Drivers/BSP/Components/st7789h2/st7789h2.c ****   parameter[0] = 0xD0;
 237:Drivers/BSP/Components/st7789h2/st7789h2.c ****   parameter[1] = 0x08;
 238:Drivers/BSP/Components/st7789h2/st7789h2.c ****   parameter[2] = 0x10;
 239:Drivers/BSP/Components/st7789h2/st7789h2.c ****   parameter[3] = 0x08;
 240:Drivers/BSP/Components/st7789h2/st7789h2.c ****   parameter[4] = 0x06;
 241:Drivers/BSP/Components/st7789h2/st7789h2.c ****   parameter[5] = 0x06;
 242:Drivers/BSP/Components/st7789h2/st7789h2.c ****   parameter[6] = 0x39;
 243:Drivers/BSP/Components/st7789h2/st7789h2.c ****   parameter[7] = 0x44;
 244:Drivers/BSP/Components/st7789h2/st7789h2.c ****   parameter[8] = 0x51;
 245:Drivers/BSP/Components/st7789h2/st7789h2.c ****   parameter[9] = 0x0B;
 246:Drivers/BSP/Components/st7789h2/st7789h2.c ****   parameter[10] = 0x16;
 247:Drivers/BSP/Components/st7789h2/st7789h2.c ****   parameter[11] = 0x14;
 248:Drivers/BSP/Components/st7789h2/st7789h2.c ****   parameter[12] = 0x2F;
 249:Drivers/BSP/Components/st7789h2/st7789h2.c ****   parameter[13] = 0x31;
 250:Drivers/BSP/Components/st7789h2/st7789h2.c ****   ST7789H2_WriteReg(ST7789H2_NV_GAMMA_CTRL, parameter, 14); 
 251:Drivers/BSP/Components/st7789h2/st7789h2.c ****   
 252:Drivers/BSP/Components/st7789h2/st7789h2.c ****   /* Display ON command */
 253:Drivers/BSP/Components/st7789h2/st7789h2.c ****   ST7789H2_DisplayOn();  
 254:Drivers/BSP/Components/st7789h2/st7789h2.c ****   
 255:Drivers/BSP/Components/st7789h2/st7789h2.c ****   /* Tearing Effect Line On: Option (00h:VSYNC Interface OFF, 01h:VSYNC Interface ON) */
 256:Drivers/BSP/Components/st7789h2/st7789h2.c ****   parameter[0] = 0x00;     
 257:Drivers/BSP/Components/st7789h2/st7789h2.c ****   ST7789H2_WriteReg(ST7789H2_TEARING_EFFECT, parameter, 1);
 258:Drivers/BSP/Components/st7789h2/st7789h2.c **** 
ARM GAS  /var/folders/0z/tsy30v1j4xl4_7kw94k978ww0000gn/T//ccwsJdN3.s 			page 6


 259:Drivers/BSP/Components/st7789h2/st7789h2.c **** }
 260:Drivers/BSP/Components/st7789h2/st7789h2.c **** 
 261:Drivers/BSP/Components/st7789h2/st7789h2.c **** /**
 262:Drivers/BSP/Components/st7789h2/st7789h2.c ****   * @brief  Set the Display Orientation.
 263:Drivers/BSP/Components/st7789h2/st7789h2.c ****   * @param  orientation: ST7789H2_ORIENTATION_PORTRAIT, ST7789H2_ORIENTATION_LANDSCAPE
 264:Drivers/BSP/Components/st7789h2/st7789h2.c ****   *                      or ST7789H2_ORIENTATION_LANDSCAPE_ROT180  
 265:Drivers/BSP/Components/st7789h2/st7789h2.c ****   * @retval None
 266:Drivers/BSP/Components/st7789h2/st7789h2.c ****   */
 267:Drivers/BSP/Components/st7789h2/st7789h2.c **** void ST7789H2_SetOrientation(uint32_t orientation)
 268:Drivers/BSP/Components/st7789h2/st7789h2.c **** {
 269:Drivers/BSP/Components/st7789h2/st7789h2.c ****   uint8_t   parameter[6];
 270:Drivers/BSP/Components/st7789h2/st7789h2.c **** 
 271:Drivers/BSP/Components/st7789h2/st7789h2.c ****   if(orientation == ST7789H2_ORIENTATION_LANDSCAPE)
 272:Drivers/BSP/Components/st7789h2/st7789h2.c ****   {
 273:Drivers/BSP/Components/st7789h2/st7789h2.c ****     parameter[0] = 0x00;     
 274:Drivers/BSP/Components/st7789h2/st7789h2.c ****   }
 275:Drivers/BSP/Components/st7789h2/st7789h2.c ****   else if(orientation == ST7789H2_ORIENTATION_LANDSCAPE_ROT180)
 276:Drivers/BSP/Components/st7789h2/st7789h2.c ****   {
 277:Drivers/BSP/Components/st7789h2/st7789h2.c ****     /* Vertical Scrolling Definition */
 278:Drivers/BSP/Components/st7789h2/st7789h2.c ****     /* TFA describes the Top Fixed Area */
 279:Drivers/BSP/Components/st7789h2/st7789h2.c ****     parameter[0] = 0x00;
 280:Drivers/BSP/Components/st7789h2/st7789h2.c ****     parameter[1] = 0x00;
 281:Drivers/BSP/Components/st7789h2/st7789h2.c ****     /* VSA describes the height of the Vertical Scrolling Area */
 282:Drivers/BSP/Components/st7789h2/st7789h2.c ****     parameter[2] = 0x01;
 283:Drivers/BSP/Components/st7789h2/st7789h2.c ****     parameter[3] = 0xF0;
 284:Drivers/BSP/Components/st7789h2/st7789h2.c ****     /* BFA describes the Bottom Fixed Area */
 285:Drivers/BSP/Components/st7789h2/st7789h2.c ****     parameter[4] = 0x00;
 286:Drivers/BSP/Components/st7789h2/st7789h2.c ****     parameter[5] = 0x00; 
 287:Drivers/BSP/Components/st7789h2/st7789h2.c ****     ST7789H2_WriteReg(ST7789H2_VSCRDEF, parameter, 6);
 288:Drivers/BSP/Components/st7789h2/st7789h2.c **** 
 289:Drivers/BSP/Components/st7789h2/st7789h2.c ****     /* Vertical Scroll Start Address of RAM */
 290:Drivers/BSP/Components/st7789h2/st7789h2.c ****     /* GRAM row nbr (320) - Display row nbr (240) = 80 = 0x50 */
 291:Drivers/BSP/Components/st7789h2/st7789h2.c ****     parameter[0] = 0x00;
 292:Drivers/BSP/Components/st7789h2/st7789h2.c ****     parameter[1] = 0x50;
 293:Drivers/BSP/Components/st7789h2/st7789h2.c ****     ST7789H2_WriteReg(ST7789H2_VSCSAD, parameter, 2);
 294:Drivers/BSP/Components/st7789h2/st7789h2.c ****     
 295:Drivers/BSP/Components/st7789h2/st7789h2.c ****     parameter[0] = 0xC0; 
 296:Drivers/BSP/Components/st7789h2/st7789h2.c ****   }
 297:Drivers/BSP/Components/st7789h2/st7789h2.c ****   else
 298:Drivers/BSP/Components/st7789h2/st7789h2.c ****   {
 299:Drivers/BSP/Components/st7789h2/st7789h2.c ****     parameter[0] = 0x60;     
 300:Drivers/BSP/Components/st7789h2/st7789h2.c ****   }
 301:Drivers/BSP/Components/st7789h2/st7789h2.c ****   ST7789H2_WriteReg(ST7789H2_NORMAL_DISPLAY, parameter, 1);
 302:Drivers/BSP/Components/st7789h2/st7789h2.c **** }
 303:Drivers/BSP/Components/st7789h2/st7789h2.c **** 
 304:Drivers/BSP/Components/st7789h2/st7789h2.c **** /**
 305:Drivers/BSP/Components/st7789h2/st7789h2.c ****   * @brief  Enables the Display.
 306:Drivers/BSP/Components/st7789h2/st7789h2.c ****   * @param  None
 307:Drivers/BSP/Components/st7789h2/st7789h2.c ****   * @retval None
 308:Drivers/BSP/Components/st7789h2/st7789h2.c ****   */
 309:Drivers/BSP/Components/st7789h2/st7789h2.c **** void ST7789H2_DisplayOn(void)
 310:Drivers/BSP/Components/st7789h2/st7789h2.c **** {
 311:Drivers/BSP/Components/st7789h2/st7789h2.c ****   /* Display ON command */
 312:Drivers/BSP/Components/st7789h2/st7789h2.c ****   ST7789H2_WriteReg(ST7789H2_DISPLAY_ON, (uint8_t*)NULL, 0);
 313:Drivers/BSP/Components/st7789h2/st7789h2.c **** 
 314:Drivers/BSP/Components/st7789h2/st7789h2.c ****   /* Sleep Out command */
 315:Drivers/BSP/Components/st7789h2/st7789h2.c ****   ST7789H2_WriteReg(ST7789H2_SLEEP_OUT, (uint8_t*)NULL, 0);
ARM GAS  /var/folders/0z/tsy30v1j4xl4_7kw94k978ww0000gn/T//ccwsJdN3.s 			page 7


 316:Drivers/BSP/Components/st7789h2/st7789h2.c **** }
 317:Drivers/BSP/Components/st7789h2/st7789h2.c **** 
 318:Drivers/BSP/Components/st7789h2/st7789h2.c **** /**
 319:Drivers/BSP/Components/st7789h2/st7789h2.c ****   * @brief  Disables the Display.
 320:Drivers/BSP/Components/st7789h2/st7789h2.c ****   * @param  None
 321:Drivers/BSP/Components/st7789h2/st7789h2.c ****   * @retval None
 322:Drivers/BSP/Components/st7789h2/st7789h2.c ****   */
 323:Drivers/BSP/Components/st7789h2/st7789h2.c **** void ST7789H2_DisplayOff(void)
 324:Drivers/BSP/Components/st7789h2/st7789h2.c **** {
 325:Drivers/BSP/Components/st7789h2/st7789h2.c ****   uint8_t   parameter[1];
 326:Drivers/BSP/Components/st7789h2/st7789h2.c ****   parameter[0] = 0xFE;
 327:Drivers/BSP/Components/st7789h2/st7789h2.c ****   /* Display OFF command */
 328:Drivers/BSP/Components/st7789h2/st7789h2.c ****   ST7789H2_WriteReg(ST7789H2_DISPLAY_OFF, parameter, 1);  
 329:Drivers/BSP/Components/st7789h2/st7789h2.c ****   /* Sleep In Command */
 330:Drivers/BSP/Components/st7789h2/st7789h2.c ****   ST7789H2_WriteReg(ST7789H2_SLEEP_IN, (uint8_t*)NULL, 0); 
 331:Drivers/BSP/Components/st7789h2/st7789h2.c ****   /* Wait for 10ms */
 332:Drivers/BSP/Components/st7789h2/st7789h2.c ****   LCD_IO_Delay(10);  
 333:Drivers/BSP/Components/st7789h2/st7789h2.c **** }
 334:Drivers/BSP/Components/st7789h2/st7789h2.c **** 
 335:Drivers/BSP/Components/st7789h2/st7789h2.c **** /**
 336:Drivers/BSP/Components/st7789h2/st7789h2.c ****   * @brief  Get the LCD pixel Width.
 337:Drivers/BSP/Components/st7789h2/st7789h2.c ****   * @param  None
 338:Drivers/BSP/Components/st7789h2/st7789h2.c ****   * @retval The Lcd Pixel Width
 339:Drivers/BSP/Components/st7789h2/st7789h2.c ****   */
 340:Drivers/BSP/Components/st7789h2/st7789h2.c **** uint16_t ST7789H2_GetLcdPixelWidth(void)
 341:Drivers/BSP/Components/st7789h2/st7789h2.c **** {
  29              		.loc 1 341 1 view -0
  30              		.cfi_startproc
  31              		@ args = 0, pretend = 0, frame = 0
  32              		@ frame_needed = 0, uses_anonymous_args = 0
  33              		@ link register save eliminated.
 342:Drivers/BSP/Components/st7789h2/st7789h2.c ****  return (uint16_t)ST7789H2_LCD_PIXEL_WIDTH;
  34              		.loc 1 342 2 view .LVU1
 343:Drivers/BSP/Components/st7789h2/st7789h2.c **** }
  35              		.loc 1 343 1 is_stmt 0 view .LVU2
  36 0000 F020     		movs	r0, #240
  37 0002 7047     		bx	lr
  38              		.cfi_endproc
  39              	.LFE7:
  41              		.section	.text.ST7789H2_GetLcdPixelHeight,"ax",%progbits
  42              		.align	1
  43              		.global	ST7789H2_GetLcdPixelHeight
  44              		.syntax unified
  45              		.thumb
  46              		.thumb_func
  48              	ST7789H2_GetLcdPixelHeight:
  49              	.LFB8:
 344:Drivers/BSP/Components/st7789h2/st7789h2.c **** 
 345:Drivers/BSP/Components/st7789h2/st7789h2.c **** /**
 346:Drivers/BSP/Components/st7789h2/st7789h2.c ****   * @brief  Get the LCD pixel Height.
 347:Drivers/BSP/Components/st7789h2/st7789h2.c ****   * @param  None
 348:Drivers/BSP/Components/st7789h2/st7789h2.c ****   * @retval The Lcd Pixel Height
 349:Drivers/BSP/Components/st7789h2/st7789h2.c ****   */
 350:Drivers/BSP/Components/st7789h2/st7789h2.c **** uint16_t ST7789H2_GetLcdPixelHeight(void)
 351:Drivers/BSP/Components/st7789h2/st7789h2.c **** {
  50              		.loc 1 351 1 is_stmt 1 view -0
  51              		.cfi_startproc
ARM GAS  /var/folders/0z/tsy30v1j4xl4_7kw94k978ww0000gn/T//ccwsJdN3.s 			page 8


  52              		@ args = 0, pretend = 0, frame = 0
  53              		@ frame_needed = 0, uses_anonymous_args = 0
  54              		@ link register save eliminated.
 352:Drivers/BSP/Components/st7789h2/st7789h2.c ****  return (uint16_t)ST7789H2_LCD_PIXEL_HEIGHT;
  55              		.loc 1 352 2 view .LVU4
 353:Drivers/BSP/Components/st7789h2/st7789h2.c **** }
  56              		.loc 1 353 1 is_stmt 0 view .LVU5
  57 0000 F020     		movs	r0, #240
  58 0002 7047     		bx	lr
  59              		.cfi_endproc
  60              	.LFE8:
  62              		.section	.text.ST7789H2_SetDisplayWindow,"ax",%progbits
  63              		.align	1
  64              		.global	ST7789H2_SetDisplayWindow
  65              		.syntax unified
  66              		.thumb
  67              		.thumb_func
  69              	ST7789H2_SetDisplayWindow:
  70              	.LVL0:
  71              	.LFB15:
 354:Drivers/BSP/Components/st7789h2/st7789h2.c **** 
 355:Drivers/BSP/Components/st7789h2/st7789h2.c **** /**
 356:Drivers/BSP/Components/st7789h2/st7789h2.c ****   * @brief  Get the st7789h2 ID.
 357:Drivers/BSP/Components/st7789h2/st7789h2.c ****   * @param  None
 358:Drivers/BSP/Components/st7789h2/st7789h2.c ****   * @retval The st7789h2 ID 
 359:Drivers/BSP/Components/st7789h2/st7789h2.c ****   */
 360:Drivers/BSP/Components/st7789h2/st7789h2.c **** uint16_t ST7789H2_ReadID(void)
 361:Drivers/BSP/Components/st7789h2/st7789h2.c **** {
 362:Drivers/BSP/Components/st7789h2/st7789h2.c ****   LCD_IO_Init();
 363:Drivers/BSP/Components/st7789h2/st7789h2.c ****   
 364:Drivers/BSP/Components/st7789h2/st7789h2.c ****   return ST7789H2_ReadReg(ST7789H2_LCD_ID);
 365:Drivers/BSP/Components/st7789h2/st7789h2.c **** }
 366:Drivers/BSP/Components/st7789h2/st7789h2.c **** 
 367:Drivers/BSP/Components/st7789h2/st7789h2.c **** /**
 368:Drivers/BSP/Components/st7789h2/st7789h2.c ****   * @brief  Set Cursor position.
 369:Drivers/BSP/Components/st7789h2/st7789h2.c ****   * @param  Xpos: specifies the X position.
 370:Drivers/BSP/Components/st7789h2/st7789h2.c ****   * @param  Ypos: specifies the Y position.
 371:Drivers/BSP/Components/st7789h2/st7789h2.c ****   * @retval None
 372:Drivers/BSP/Components/st7789h2/st7789h2.c ****   */
 373:Drivers/BSP/Components/st7789h2/st7789h2.c **** void ST7789H2_SetCursor(uint16_t Xpos, uint16_t Ypos)
 374:Drivers/BSP/Components/st7789h2/st7789h2.c **** {
 375:Drivers/BSP/Components/st7789h2/st7789h2.c ****   uint8_t   parameter[4];
 376:Drivers/BSP/Components/st7789h2/st7789h2.c ****   /* CASET: Comumn Addrses Set */
 377:Drivers/BSP/Components/st7789h2/st7789h2.c ****   parameter[0] = 0x00;     
 378:Drivers/BSP/Components/st7789h2/st7789h2.c ****   parameter[1] = 0x00 + Xpos;
 379:Drivers/BSP/Components/st7789h2/st7789h2.c ****   parameter[2] = 0x00;
 380:Drivers/BSP/Components/st7789h2/st7789h2.c ****   parameter[3] = 0xEF + Xpos;
 381:Drivers/BSP/Components/st7789h2/st7789h2.c ****   ST7789H2_WriteReg(ST7789H2_CASET, parameter, 4);
 382:Drivers/BSP/Components/st7789h2/st7789h2.c ****   /* RASET: Row Addrses Set */  
 383:Drivers/BSP/Components/st7789h2/st7789h2.c ****   parameter[0] = 0x00;
 384:Drivers/BSP/Components/st7789h2/st7789h2.c ****   parameter[1] = 0x00 + Ypos;
 385:Drivers/BSP/Components/st7789h2/st7789h2.c ****   parameter[2] = 0x00;
 386:Drivers/BSP/Components/st7789h2/st7789h2.c ****   parameter[3] = 0xEF + Ypos;
 387:Drivers/BSP/Components/st7789h2/st7789h2.c ****   ST7789H2_WriteReg(ST7789H2_RASET, parameter, 4);
 388:Drivers/BSP/Components/st7789h2/st7789h2.c **** }
 389:Drivers/BSP/Components/st7789h2/st7789h2.c **** 
 390:Drivers/BSP/Components/st7789h2/st7789h2.c **** /**
ARM GAS  /var/folders/0z/tsy30v1j4xl4_7kw94k978ww0000gn/T//ccwsJdN3.s 			page 9


 391:Drivers/BSP/Components/st7789h2/st7789h2.c ****   * @brief  Write pixel.   
 392:Drivers/BSP/Components/st7789h2/st7789h2.c ****   * @param  Xpos: specifies the X position.
 393:Drivers/BSP/Components/st7789h2/st7789h2.c ****   * @param  Ypos: specifies the Y position.
 394:Drivers/BSP/Components/st7789h2/st7789h2.c ****   * @param  RGBCode: the RGB pixel color in RGB565 format
 395:Drivers/BSP/Components/st7789h2/st7789h2.c ****   * @retval None
 396:Drivers/BSP/Components/st7789h2/st7789h2.c ****   */
 397:Drivers/BSP/Components/st7789h2/st7789h2.c **** void ST7789H2_WritePixel(uint16_t Xpos, uint16_t Ypos, uint16_t RGBCode)
 398:Drivers/BSP/Components/st7789h2/st7789h2.c **** {
 399:Drivers/BSP/Components/st7789h2/st7789h2.c ****   /* Set Cursor */
 400:Drivers/BSP/Components/st7789h2/st7789h2.c ****   ST7789H2_SetCursor(Xpos, Ypos);
 401:Drivers/BSP/Components/st7789h2/st7789h2.c **** 
 402:Drivers/BSP/Components/st7789h2/st7789h2.c ****   /* Prepare to write to LCD RAM */
 403:Drivers/BSP/Components/st7789h2/st7789h2.c ****   ST7789H2_WriteReg(ST7789H2_WRITE_RAM, (uint8_t*)NULL, 0);   /* RAM write data command */
 404:Drivers/BSP/Components/st7789h2/st7789h2.c **** 
 405:Drivers/BSP/Components/st7789h2/st7789h2.c ****   /* Write RAM data */
 406:Drivers/BSP/Components/st7789h2/st7789h2.c ****   LCD_IO_WriteData(RGBCode);
 407:Drivers/BSP/Components/st7789h2/st7789h2.c **** }
 408:Drivers/BSP/Components/st7789h2/st7789h2.c **** 
 409:Drivers/BSP/Components/st7789h2/st7789h2.c **** /**
 410:Drivers/BSP/Components/st7789h2/st7789h2.c ****   * @brief  Read pixel.
 411:Drivers/BSP/Components/st7789h2/st7789h2.c ****   * @param  Xpos: specifies the X position.
 412:Drivers/BSP/Components/st7789h2/st7789h2.c ****   * @param  Ypos: specifies the Y position.
 413:Drivers/BSP/Components/st7789h2/st7789h2.c ****   * @retval The RGB pixel color in RGB565 format
 414:Drivers/BSP/Components/st7789h2/st7789h2.c ****   */
 415:Drivers/BSP/Components/st7789h2/st7789h2.c **** uint16_t ST7789H2_ReadPixel(uint16_t Xpos, uint16_t Ypos)
 416:Drivers/BSP/Components/st7789h2/st7789h2.c **** {
 417:Drivers/BSP/Components/st7789h2/st7789h2.c ****   ST7789H2_Rgb888 rgb888;
 418:Drivers/BSP/Components/st7789h2/st7789h2.c ****   uint8_t          r, g, b;
 419:Drivers/BSP/Components/st7789h2/st7789h2.c ****   uint16_t         rgb565;
 420:Drivers/BSP/Components/st7789h2/st7789h2.c **** 
 421:Drivers/BSP/Components/st7789h2/st7789h2.c ****   /* Set Cursor */
 422:Drivers/BSP/Components/st7789h2/st7789h2.c ****   ST7789H2_SetCursor(Xpos, Ypos);
 423:Drivers/BSP/Components/st7789h2/st7789h2.c ****   
 424:Drivers/BSP/Components/st7789h2/st7789h2.c ****   /* Read RGB888 data from LCD RAM */
 425:Drivers/BSP/Components/st7789h2/st7789h2.c ****   rgb888 = ST7789H2_ReadPixel_rgb888(Xpos, Ypos);
 426:Drivers/BSP/Components/st7789h2/st7789h2.c ****   
 427:Drivers/BSP/Components/st7789h2/st7789h2.c ****   /* Convert RGB888 to RGB565 */
 428:Drivers/BSP/Components/st7789h2/st7789h2.c ****   r = ((rgb888.red & 0xF8) >> 3);    /* Extract the red component 5 most significant bits */
 429:Drivers/BSP/Components/st7789h2/st7789h2.c ****   g = ((rgb888.green & 0xFC) >> 2);  /* Extract the green component 6 most significant bits */
 430:Drivers/BSP/Components/st7789h2/st7789h2.c ****   b = ((rgb888.blue & 0xF8) >> 3);   /* Extract the blue component 5 most significant bits */
 431:Drivers/BSP/Components/st7789h2/st7789h2.c **** 
 432:Drivers/BSP/Components/st7789h2/st7789h2.c ****   rgb565 = ((uint16_t)(r) << 11) + ((uint16_t)(g) << 5) + ((uint16_t)(b) << 0);
 433:Drivers/BSP/Components/st7789h2/st7789h2.c ****   
 434:Drivers/BSP/Components/st7789h2/st7789h2.c ****   return (rgb565);
 435:Drivers/BSP/Components/st7789h2/st7789h2.c **** }
 436:Drivers/BSP/Components/st7789h2/st7789h2.c **** 
 437:Drivers/BSP/Components/st7789h2/st7789h2.c **** /**
 438:Drivers/BSP/Components/st7789h2/st7789h2.c ****   * @brief  Writes to the selected LCD register.
 439:Drivers/BSP/Components/st7789h2/st7789h2.c ****   * @param  Command: command value (or register address as named in st7789h2 doc).
 440:Drivers/BSP/Components/st7789h2/st7789h2.c ****   * @param  Parameters: pointer on parameters value (if command uses one or several parameters).
 441:Drivers/BSP/Components/st7789h2/st7789h2.c ****   * @param  NbParameters: number of command parameters (0 if no parameter)
 442:Drivers/BSP/Components/st7789h2/st7789h2.c ****   * @retval None
 443:Drivers/BSP/Components/st7789h2/st7789h2.c ****   */
 444:Drivers/BSP/Components/st7789h2/st7789h2.c **** void ST7789H2_WriteReg(uint8_t Command, uint8_t *Parameters, uint8_t NbParameters)
 445:Drivers/BSP/Components/st7789h2/st7789h2.c **** {
 446:Drivers/BSP/Components/st7789h2/st7789h2.c ****   uint8_t   i;
 447:Drivers/BSP/Components/st7789h2/st7789h2.c **** 
ARM GAS  /var/folders/0z/tsy30v1j4xl4_7kw94k978ww0000gn/T//ccwsJdN3.s 			page 10


 448:Drivers/BSP/Components/st7789h2/st7789h2.c ****   /* Send command */
 449:Drivers/BSP/Components/st7789h2/st7789h2.c ****   LCD_IO_WriteReg(Command);
 450:Drivers/BSP/Components/st7789h2/st7789h2.c ****   
 451:Drivers/BSP/Components/st7789h2/st7789h2.c ****   /* Send command's parameters if any */
 452:Drivers/BSP/Components/st7789h2/st7789h2.c ****   for (i=0; i<NbParameters; i++)
 453:Drivers/BSP/Components/st7789h2/st7789h2.c ****   {
 454:Drivers/BSP/Components/st7789h2/st7789h2.c ****     LCD_IO_WriteData(Parameters[i]);
 455:Drivers/BSP/Components/st7789h2/st7789h2.c ****   }
 456:Drivers/BSP/Components/st7789h2/st7789h2.c **** }
 457:Drivers/BSP/Components/st7789h2/st7789h2.c **** 
 458:Drivers/BSP/Components/st7789h2/st7789h2.c **** /**
 459:Drivers/BSP/Components/st7789h2/st7789h2.c ****   * @brief  Reads the selected LCD Register.
 460:Drivers/BSP/Components/st7789h2/st7789h2.c ****   * @param  Command: command value (or register address as named in st7789h2 doc).
 461:Drivers/BSP/Components/st7789h2/st7789h2.c ****   * @retval Register Value.
 462:Drivers/BSP/Components/st7789h2/st7789h2.c ****   */
 463:Drivers/BSP/Components/st7789h2/st7789h2.c **** uint8_t ST7789H2_ReadReg(uint8_t Command)
 464:Drivers/BSP/Components/st7789h2/st7789h2.c **** {
 465:Drivers/BSP/Components/st7789h2/st7789h2.c ****   /* Send command */
 466:Drivers/BSP/Components/st7789h2/st7789h2.c ****   LCD_IO_WriteReg(Command);
 467:Drivers/BSP/Components/st7789h2/st7789h2.c **** 
 468:Drivers/BSP/Components/st7789h2/st7789h2.c ****   /* Read dummy data */
 469:Drivers/BSP/Components/st7789h2/st7789h2.c ****   LCD_IO_ReadData();
 470:Drivers/BSP/Components/st7789h2/st7789h2.c ****   
 471:Drivers/BSP/Components/st7789h2/st7789h2.c ****   /* Read register value */
 472:Drivers/BSP/Components/st7789h2/st7789h2.c ****   return (LCD_IO_ReadData());
 473:Drivers/BSP/Components/st7789h2/st7789h2.c **** }
 474:Drivers/BSP/Components/st7789h2/st7789h2.c **** 
 475:Drivers/BSP/Components/st7789h2/st7789h2.c **** /**
 476:Drivers/BSP/Components/st7789h2/st7789h2.c ****   * @brief  Sets a display window
 477:Drivers/BSP/Components/st7789h2/st7789h2.c ****   * @param  Xpos:   specifies the X bottom left position.
 478:Drivers/BSP/Components/st7789h2/st7789h2.c ****   * @param  Ypos:   specifies the Y bottom left position.
 479:Drivers/BSP/Components/st7789h2/st7789h2.c ****   * @param  Height: display window height.
 480:Drivers/BSP/Components/st7789h2/st7789h2.c ****   * @param  Width:  display window width.
 481:Drivers/BSP/Components/st7789h2/st7789h2.c ****   * @retval None
 482:Drivers/BSP/Components/st7789h2/st7789h2.c ****   */
 483:Drivers/BSP/Components/st7789h2/st7789h2.c **** void ST7789H2_SetDisplayWindow(uint16_t Xpos, uint16_t Ypos, uint16_t Width, uint16_t Height)
 484:Drivers/BSP/Components/st7789h2/st7789h2.c **** {
  72              		.loc 1 484 1 is_stmt 1 view -0
  73              		.cfi_startproc
  74              		@ args = 0, pretend = 0, frame = 0
  75              		@ frame_needed = 0, uses_anonymous_args = 0
  76              		@ link register save eliminated.
  77              		.loc 1 484 1 is_stmt 0 view .LVU7
  78 0000 10B4     		push	{r4}
  79              		.cfi_def_cfa_offset 4
  80              		.cfi_offset 4, -4
 485:Drivers/BSP/Components/st7789h2/st7789h2.c ****   if (Xpos < ST7789H2_LCD_PIXEL_WIDTH)
  81              		.loc 1 485 3 is_stmt 1 view .LVU8
  82              		.loc 1 485 6 is_stmt 0 view .LVU9
  83 0002 EF28     		cmp	r0, #239
  84 0004 19D8     		bhi	.L4
 486:Drivers/BSP/Components/st7789h2/st7789h2.c ****   {
 487:Drivers/BSP/Components/st7789h2/st7789h2.c ****     WindowsXstart = Xpos;
  85              		.loc 1 487 5 is_stmt 1 view .LVU10
  86              		.loc 1 487 19 is_stmt 0 view .LVU11
  87 0006 174C     		ldr	r4, .L13
  88 0008 2080     		strh	r0, [r4]	@ movhi
ARM GAS  /var/folders/0z/tsy30v1j4xl4_7kw94k978ww0000gn/T//ccwsJdN3.s 			page 11


  89              	.L5:
 488:Drivers/BSP/Components/st7789h2/st7789h2.c ****   }
 489:Drivers/BSP/Components/st7789h2/st7789h2.c ****   else
 490:Drivers/BSP/Components/st7789h2/st7789h2.c ****   {
 491:Drivers/BSP/Components/st7789h2/st7789h2.c ****     WindowsXstart = 0;
 492:Drivers/BSP/Components/st7789h2/st7789h2.c ****   }
 493:Drivers/BSP/Components/st7789h2/st7789h2.c **** 
 494:Drivers/BSP/Components/st7789h2/st7789h2.c ****   if (Ypos < ST7789H2_LCD_PIXEL_HEIGHT)
  90              		.loc 1 494 3 is_stmt 1 view .LVU12
  91              		.loc 1 494 6 is_stmt 0 view .LVU13
  92 000a EF29     		cmp	r1, #239
  93 000c 1BD8     		bhi	.L6
 495:Drivers/BSP/Components/st7789h2/st7789h2.c ****   {
 496:Drivers/BSP/Components/st7789h2/st7789h2.c ****     WindowsYstart = Ypos;
  94              		.loc 1 496 5 is_stmt 1 view .LVU14
  95              		.loc 1 496 19 is_stmt 0 view .LVU15
  96 000e 164C     		ldr	r4, .L13+4
  97 0010 2180     		strh	r1, [r4]	@ movhi
  98              	.L7:
 497:Drivers/BSP/Components/st7789h2/st7789h2.c ****   }
 498:Drivers/BSP/Components/st7789h2/st7789h2.c ****   else
 499:Drivers/BSP/Components/st7789h2/st7789h2.c ****   {
 500:Drivers/BSP/Components/st7789h2/st7789h2.c ****     WindowsYstart = 0;
 501:Drivers/BSP/Components/st7789h2/st7789h2.c ****   }
 502:Drivers/BSP/Components/st7789h2/st7789h2.c **** 
 503:Drivers/BSP/Components/st7789h2/st7789h2.c ****   if (Width  + Xpos <= ST7789H2_LCD_PIXEL_WIDTH)
  99              		.loc 1 503 3 is_stmt 1 view .LVU16
 100              		.loc 1 503 14 is_stmt 0 view .LVU17
 101 0012 02EB000C 		add	ip, r2, r0
 102              		.loc 1 503 6 view .LVU18
 103 0016 BCF1F00F 		cmp	ip, #240
 104 001a 1ADC     		bgt	.L8
 504:Drivers/BSP/Components/st7789h2/st7789h2.c ****   {
 505:Drivers/BSP/Components/st7789h2/st7789h2.c ****     WindowsXend = Width  + Xpos - 1;
 105              		.loc 1 505 5 is_stmt 1 view .LVU19
 106              		.loc 1 505 26 is_stmt 0 view .LVU20
 107 001c 1FFA8CF0 		uxth	r0, ip
 108              	.LVL1:
 109              		.loc 1 505 33 view .LVU21
 110 0020 0138     		subs	r0, r0, #1
 111              		.loc 1 505 17 view .LVU22
 112 0022 124A     		ldr	r2, .L13+8
 113              	.LVL2:
 114              		.loc 1 505 17 view .LVU23
 115 0024 1080     		strh	r0, [r2]	@ movhi
 116              	.L9:
 506:Drivers/BSP/Components/st7789h2/st7789h2.c ****   }
 507:Drivers/BSP/Components/st7789h2/st7789h2.c ****   else
 508:Drivers/BSP/Components/st7789h2/st7789h2.c ****   {
 509:Drivers/BSP/Components/st7789h2/st7789h2.c ****     WindowsXend = ST7789H2_LCD_PIXEL_WIDTH - 1;
 510:Drivers/BSP/Components/st7789h2/st7789h2.c ****   }
 511:Drivers/BSP/Components/st7789h2/st7789h2.c **** 
 512:Drivers/BSP/Components/st7789h2/st7789h2.c ****   if (Height + Ypos <= ST7789H2_LCD_PIXEL_HEIGHT)
 117              		.loc 1 512 3 is_stmt 1 view .LVU24
 118              		.loc 1 512 14 is_stmt 0 view .LVU25
 119 0026 5A18     		adds	r2, r3, r1
 120              		.loc 1 512 6 view .LVU26
ARM GAS  /var/folders/0z/tsy30v1j4xl4_7kw94k978ww0000gn/T//ccwsJdN3.s 			page 12


 121 0028 F02A     		cmp	r2, #240
 122 002a 16DC     		bgt	.L10
 513:Drivers/BSP/Components/st7789h2/st7789h2.c ****   {
 514:Drivers/BSP/Components/st7789h2/st7789h2.c ****     WindowsYend = Height + Ypos - 1;
 123              		.loc 1 514 5 is_stmt 1 view .LVU27
 124              		.loc 1 514 26 is_stmt 0 view .LVU28
 125 002c 91B2     		uxth	r1, r2
 126              	.LVL3:
 127              		.loc 1 514 33 view .LVU29
 128 002e 0139     		subs	r1, r1, #1
 129              		.loc 1 514 17 view .LVU30
 130 0030 0F4B     		ldr	r3, .L13+12
 131              	.LVL4:
 132              		.loc 1 514 17 view .LVU31
 133 0032 1980     		strh	r1, [r3]	@ movhi
 134              	.L3:
 515:Drivers/BSP/Components/st7789h2/st7789h2.c ****   }
 516:Drivers/BSP/Components/st7789h2/st7789h2.c ****   else
 517:Drivers/BSP/Components/st7789h2/st7789h2.c ****   {
 518:Drivers/BSP/Components/st7789h2/st7789h2.c ****     WindowsYend = ST7789H2_LCD_PIXEL_HEIGHT-1;
 519:Drivers/BSP/Components/st7789h2/st7789h2.c ****   }
 520:Drivers/BSP/Components/st7789h2/st7789h2.c **** }
 135              		.loc 1 520 1 view .LVU32
 136 0034 5DF8044B 		ldr	r4, [sp], #4
 137              		.cfi_remember_state
 138              		.cfi_restore 4
 139              		.cfi_def_cfa_offset 0
 140 0038 7047     		bx	lr
 141              	.LVL5:
 142              	.L4:
 143              		.cfi_restore_state
 491:Drivers/BSP/Components/st7789h2/st7789h2.c ****   }
 144              		.loc 1 491 5 is_stmt 1 view .LVU33
 491:Drivers/BSP/Components/st7789h2/st7789h2.c ****   }
 145              		.loc 1 491 19 is_stmt 0 view .LVU34
 146 003a 0A4C     		ldr	r4, .L13
 147 003c 4FF0000C 		mov	ip, #0
 148 0040 A4F800C0 		strh	ip, [r4]	@ movhi
 149 0044 E1E7     		b	.L5
 150              	.L6:
 500:Drivers/BSP/Components/st7789h2/st7789h2.c ****   }
 151              		.loc 1 500 5 is_stmt 1 view .LVU35
 500:Drivers/BSP/Components/st7789h2/st7789h2.c ****   }
 152              		.loc 1 500 19 is_stmt 0 view .LVU36
 153 0046 084C     		ldr	r4, .L13+4
 154 0048 4FF0000C 		mov	ip, #0
 155 004c A4F800C0 		strh	ip, [r4]	@ movhi
 156 0050 DFE7     		b	.L7
 157              	.L8:
 509:Drivers/BSP/Components/st7789h2/st7789h2.c ****   }
 158              		.loc 1 509 5 is_stmt 1 view .LVU37
 509:Drivers/BSP/Components/st7789h2/st7789h2.c ****   }
 159              		.loc 1 509 17 is_stmt 0 view .LVU38
 160 0052 064A     		ldr	r2, .L13+8
 161              	.LVL6:
 509:Drivers/BSP/Components/st7789h2/st7789h2.c ****   }
 162              		.loc 1 509 17 view .LVU39
ARM GAS  /var/folders/0z/tsy30v1j4xl4_7kw94k978ww0000gn/T//ccwsJdN3.s 			page 13


 163 0054 EF20     		movs	r0, #239
 164              	.LVL7:
 509:Drivers/BSP/Components/st7789h2/st7789h2.c ****   }
 165              		.loc 1 509 17 view .LVU40
 166 0056 1080     		strh	r0, [r2]	@ movhi
 167 0058 E5E7     		b	.L9
 168              	.L10:
 518:Drivers/BSP/Components/st7789h2/st7789h2.c ****   }
 169              		.loc 1 518 5 is_stmt 1 view .LVU41
 518:Drivers/BSP/Components/st7789h2/st7789h2.c ****   }
 170              		.loc 1 518 17 is_stmt 0 view .LVU42
 171 005a 054B     		ldr	r3, .L13+12
 172              	.LVL8:
 518:Drivers/BSP/Components/st7789h2/st7789h2.c ****   }
 173              		.loc 1 518 17 view .LVU43
 174 005c EF22     		movs	r2, #239
 175 005e 1A80     		strh	r2, [r3]	@ movhi
 176              		.loc 1 520 1 view .LVU44
 177 0060 E8E7     		b	.L3
 178              	.L14:
 179 0062 00BF     		.align	2
 180              	.L13:
 181 0064 00000000 		.word	.LANCHOR0
 182 0068 00000000 		.word	.LANCHOR1
 183 006c 00000000 		.word	.LANCHOR2
 184 0070 00000000 		.word	.LANCHOR3
 185              		.cfi_endproc
 186              	.LFE15:
 188              		.section	.text.ST7789H2_WriteReg,"ax",%progbits
 189              		.align	1
 190              		.global	ST7789H2_WriteReg
 191              		.syntax unified
 192              		.thumb
 193              		.thumb_func
 195              	ST7789H2_WriteReg:
 196              	.LVL9:
 197              	.LFB13:
 445:Drivers/BSP/Components/st7789h2/st7789h2.c ****   uint8_t   i;
 198              		.loc 1 445 1 is_stmt 1 view -0
 199              		.cfi_startproc
 200              		@ args = 0, pretend = 0, frame = 0
 201              		@ frame_needed = 0, uses_anonymous_args = 0
 445:Drivers/BSP/Components/st7789h2/st7789h2.c ****   uint8_t   i;
 202              		.loc 1 445 1 is_stmt 0 view .LVU46
 203 0000 70B5     		push	{r4, r5, r6, lr}
 204              		.cfi_def_cfa_offset 16
 205              		.cfi_offset 4, -16
 206              		.cfi_offset 5, -12
 207              		.cfi_offset 6, -8
 208              		.cfi_offset 14, -4
 209 0002 0E46     		mov	r6, r1
 210 0004 1546     		mov	r5, r2
 446:Drivers/BSP/Components/st7789h2/st7789h2.c **** 
 211              		.loc 1 446 3 is_stmt 1 view .LVU47
 449:Drivers/BSP/Components/st7789h2/st7789h2.c ****   
 212              		.loc 1 449 3 view .LVU48
 213 0006 FFF7FEFF 		bl	LCD_IO_WriteReg
ARM GAS  /var/folders/0z/tsy30v1j4xl4_7kw94k978ww0000gn/T//ccwsJdN3.s 			page 14


 214              	.LVL10:
 452:Drivers/BSP/Components/st7789h2/st7789h2.c ****   {
 215              		.loc 1 452 3 view .LVU49
 452:Drivers/BSP/Components/st7789h2/st7789h2.c ****   {
 216              		.loc 1 452 9 is_stmt 0 view .LVU50
 217 000a 0024     		movs	r4, #0
 452:Drivers/BSP/Components/st7789h2/st7789h2.c ****   {
 218              		.loc 1 452 3 view .LVU51
 219 000c 04E0     		b	.L16
 220              	.LVL11:
 221              	.L17:
 454:Drivers/BSP/Components/st7789h2/st7789h2.c ****   }
 222              		.loc 1 454 5 is_stmt 1 discriminator 3 view .LVU52
 223 000e 305D     		ldrb	r0, [r6, r4]	@ zero_extendqisi2
 224 0010 FFF7FEFF 		bl	LCD_IO_WriteData
 225              	.LVL12:
 452:Drivers/BSP/Components/st7789h2/st7789h2.c ****   {
 226              		.loc 1 452 30 discriminator 3 view .LVU53
 227 0014 0134     		adds	r4, r4, #1
 228              	.LVL13:
 452:Drivers/BSP/Components/st7789h2/st7789h2.c ****   {
 229              		.loc 1 452 30 is_stmt 0 discriminator 3 view .LVU54
 230 0016 E4B2     		uxtb	r4, r4
 231              	.LVL14:
 232              	.L16:
 452:Drivers/BSP/Components/st7789h2/st7789h2.c ****   {
 233              		.loc 1 452 14 is_stmt 1 discriminator 1 view .LVU55
 234 0018 AC42     		cmp	r4, r5
 235 001a F8D3     		bcc	.L17
 456:Drivers/BSP/Components/st7789h2/st7789h2.c **** 
 236              		.loc 1 456 1 is_stmt 0 view .LVU56
 237 001c 70BD     		pop	{r4, r5, r6, pc}
 456:Drivers/BSP/Components/st7789h2/st7789h2.c **** 
 238              		.loc 1 456 1 view .LVU57
 239              		.cfi_endproc
 240              	.LFE13:
 242              		.section	.text.ST7789H2_SetOrientation,"ax",%progbits
 243              		.align	1
 244              		.global	ST7789H2_SetOrientation
 245              		.syntax unified
 246              		.thumb
 247              		.thumb_func
 249              	ST7789H2_SetOrientation:
 250              	.LVL15:
 251              	.LFB4:
 268:Drivers/BSP/Components/st7789h2/st7789h2.c ****   uint8_t   parameter[6];
 252              		.loc 1 268 1 is_stmt 1 view -0
 253              		.cfi_startproc
 254              		@ args = 0, pretend = 0, frame = 8
 255              		@ frame_needed = 0, uses_anonymous_args = 0
 268:Drivers/BSP/Components/st7789h2/st7789h2.c ****   uint8_t   parameter[6];
 256              		.loc 1 268 1 is_stmt 0 view .LVU59
 257 0000 10B5     		push	{r4, lr}
 258              		.cfi_def_cfa_offset 8
 259              		.cfi_offset 4, -8
 260              		.cfi_offset 14, -4
 261 0002 82B0     		sub	sp, sp, #8
ARM GAS  /var/folders/0z/tsy30v1j4xl4_7kw94k978ww0000gn/T//ccwsJdN3.s 			page 15


 262              		.cfi_def_cfa_offset 16
 269:Drivers/BSP/Components/st7789h2/st7789h2.c **** 
 263              		.loc 1 269 3 is_stmt 1 view .LVU60
 271:Drivers/BSP/Components/st7789h2/st7789h2.c ****   {
 264              		.loc 1 271 3 view .LVU61
 271:Drivers/BSP/Components/st7789h2/st7789h2.c ****   {
 265              		.loc 1 271 5 is_stmt 0 view .LVU62
 266 0004 0128     		cmp	r0, #1
 267 0006 0BD0     		beq	.L24
 275:Drivers/BSP/Components/st7789h2/st7789h2.c ****   {
 268              		.loc 1 275 8 is_stmt 1 view .LVU63
 275:Drivers/BSP/Components/st7789h2/st7789h2.c ****   {
 269              		.loc 1 275 10 is_stmt 0 view .LVU64
 270 0008 0228     		cmp	r0, #2
 271 000a 0DD0     		beq	.L25
 299:Drivers/BSP/Components/st7789h2/st7789h2.c ****   }
 272              		.loc 1 299 5 is_stmt 1 view .LVU65
 299:Drivers/BSP/Components/st7789h2/st7789h2.c ****   }
 273              		.loc 1 299 18 is_stmt 0 view .LVU66
 274 000c 6023     		movs	r3, #96
 275 000e 8DF80030 		strb	r3, [sp]
 276              	.LVL16:
 277              	.L21:
 301:Drivers/BSP/Components/st7789h2/st7789h2.c **** }
 278              		.loc 1 301 3 is_stmt 1 view .LVU67
 279 0012 0122     		movs	r2, #1
 280 0014 6946     		mov	r1, sp
 281 0016 3620     		movs	r0, #54
 282 0018 FFF7FEFF 		bl	ST7789H2_WriteReg
 283              	.LVL17:
 302:Drivers/BSP/Components/st7789h2/st7789h2.c **** 
 284              		.loc 1 302 1 is_stmt 0 view .LVU68
 285 001c 02B0     		add	sp, sp, #8
 286              		.cfi_remember_state
 287              		.cfi_def_cfa_offset 8
 288              		@ sp needed
 289 001e 10BD     		pop	{r4, pc}
 290              	.LVL18:
 291              	.L24:
 292              		.cfi_restore_state
 273:Drivers/BSP/Components/st7789h2/st7789h2.c ****   }
 293              		.loc 1 273 5 is_stmt 1 view .LVU69
 273:Drivers/BSP/Components/st7789h2/st7789h2.c ****   }
 294              		.loc 1 273 18 is_stmt 0 view .LVU70
 295 0020 0023     		movs	r3, #0
 296 0022 8DF80030 		strb	r3, [sp]
 297 0026 F4E7     		b	.L21
 298              	.L25:
 279:Drivers/BSP/Components/st7789h2/st7789h2.c ****     parameter[1] = 0x00;
 299              		.loc 1 279 5 is_stmt 1 view .LVU71
 279:Drivers/BSP/Components/st7789h2/st7789h2.c ****     parameter[1] = 0x00;
 300              		.loc 1 279 18 is_stmt 0 view .LVU72
 301 0028 0024     		movs	r4, #0
 302 002a 8DF80040 		strb	r4, [sp]
 280:Drivers/BSP/Components/st7789h2/st7789h2.c ****     /* VSA describes the height of the Vertical Scrolling Area */
 303              		.loc 1 280 5 is_stmt 1 view .LVU73
 280:Drivers/BSP/Components/st7789h2/st7789h2.c ****     /* VSA describes the height of the Vertical Scrolling Area */
ARM GAS  /var/folders/0z/tsy30v1j4xl4_7kw94k978ww0000gn/T//ccwsJdN3.s 			page 16


 304              		.loc 1 280 18 is_stmt 0 view .LVU74
 305 002e 8DF80140 		strb	r4, [sp, #1]
 282:Drivers/BSP/Components/st7789h2/st7789h2.c ****     parameter[3] = 0xF0;
 306              		.loc 1 282 5 is_stmt 1 view .LVU75
 282:Drivers/BSP/Components/st7789h2/st7789h2.c ****     parameter[3] = 0xF0;
 307              		.loc 1 282 18 is_stmt 0 view .LVU76
 308 0032 0123     		movs	r3, #1
 309 0034 8DF80230 		strb	r3, [sp, #2]
 283:Drivers/BSP/Components/st7789h2/st7789h2.c ****     /* BFA describes the Bottom Fixed Area */
 310              		.loc 1 283 5 is_stmt 1 view .LVU77
 283:Drivers/BSP/Components/st7789h2/st7789h2.c ****     /* BFA describes the Bottom Fixed Area */
 311              		.loc 1 283 18 is_stmt 0 view .LVU78
 312 0038 F023     		movs	r3, #240
 313 003a 8DF80330 		strb	r3, [sp, #3]
 285:Drivers/BSP/Components/st7789h2/st7789h2.c ****     parameter[5] = 0x00; 
 314              		.loc 1 285 5 is_stmt 1 view .LVU79
 285:Drivers/BSP/Components/st7789h2/st7789h2.c ****     parameter[5] = 0x00; 
 315              		.loc 1 285 18 is_stmt 0 view .LVU80
 316 003e 8DF80440 		strb	r4, [sp, #4]
 286:Drivers/BSP/Components/st7789h2/st7789h2.c ****     ST7789H2_WriteReg(ST7789H2_VSCRDEF, parameter, 6);
 317              		.loc 1 286 5 is_stmt 1 view .LVU81
 286:Drivers/BSP/Components/st7789h2/st7789h2.c ****     ST7789H2_WriteReg(ST7789H2_VSCRDEF, parameter, 6);
 318              		.loc 1 286 18 is_stmt 0 view .LVU82
 319 0042 8DF80540 		strb	r4, [sp, #5]
 287:Drivers/BSP/Components/st7789h2/st7789h2.c **** 
 320              		.loc 1 287 5 is_stmt 1 view .LVU83
 321 0046 0622     		movs	r2, #6
 322 0048 6946     		mov	r1, sp
 323 004a 3320     		movs	r0, #51
 324              	.LVL19:
 287:Drivers/BSP/Components/st7789h2/st7789h2.c **** 
 325              		.loc 1 287 5 is_stmt 0 view .LVU84
 326 004c FFF7FEFF 		bl	ST7789H2_WriteReg
 327              	.LVL20:
 291:Drivers/BSP/Components/st7789h2/st7789h2.c ****     parameter[1] = 0x50;
 328              		.loc 1 291 5 is_stmt 1 view .LVU85
 291:Drivers/BSP/Components/st7789h2/st7789h2.c ****     parameter[1] = 0x50;
 329              		.loc 1 291 18 is_stmt 0 view .LVU86
 330 0050 8DF80040 		strb	r4, [sp]
 292:Drivers/BSP/Components/st7789h2/st7789h2.c ****     ST7789H2_WriteReg(ST7789H2_VSCSAD, parameter, 2);
 331              		.loc 1 292 5 is_stmt 1 view .LVU87
 292:Drivers/BSP/Components/st7789h2/st7789h2.c ****     ST7789H2_WriteReg(ST7789H2_VSCSAD, parameter, 2);
 332              		.loc 1 292 18 is_stmt 0 view .LVU88
 333 0054 5023     		movs	r3, #80
 334 0056 8DF80130 		strb	r3, [sp, #1]
 293:Drivers/BSP/Components/st7789h2/st7789h2.c ****     
 335              		.loc 1 293 5 is_stmt 1 view .LVU89
 336 005a 0222     		movs	r2, #2
 337 005c 6946     		mov	r1, sp
 338 005e 3720     		movs	r0, #55
 339 0060 FFF7FEFF 		bl	ST7789H2_WriteReg
 340              	.LVL21:
 295:Drivers/BSP/Components/st7789h2/st7789h2.c ****   }
 341              		.loc 1 295 5 view .LVU90
 295:Drivers/BSP/Components/st7789h2/st7789h2.c ****   }
 342              		.loc 1 295 18 is_stmt 0 view .LVU91
 343 0064 C023     		movs	r3, #192
ARM GAS  /var/folders/0z/tsy30v1j4xl4_7kw94k978ww0000gn/T//ccwsJdN3.s 			page 17


 344 0066 8DF80030 		strb	r3, [sp]
 345 006a D2E7     		b	.L21
 346              		.cfi_endproc
 347              	.LFE4:
 349              		.section	.text.ST7789H2_DisplayOn,"ax",%progbits
 350              		.align	1
 351              		.global	ST7789H2_DisplayOn
 352              		.syntax unified
 353              		.thumb
 354              		.thumb_func
 356              	ST7789H2_DisplayOn:
 357              	.LFB5:
 310:Drivers/BSP/Components/st7789h2/st7789h2.c ****   /* Display ON command */
 358              		.loc 1 310 1 is_stmt 1 view -0
 359              		.cfi_startproc
 360              		@ args = 0, pretend = 0, frame = 0
 361              		@ frame_needed = 0, uses_anonymous_args = 0
 362 0000 08B5     		push	{r3, lr}
 363              		.cfi_def_cfa_offset 8
 364              		.cfi_offset 3, -8
 365              		.cfi_offset 14, -4
 312:Drivers/BSP/Components/st7789h2/st7789h2.c **** 
 366              		.loc 1 312 3 view .LVU93
 367 0002 0022     		movs	r2, #0
 368 0004 1146     		mov	r1, r2
 369 0006 2920     		movs	r0, #41
 370 0008 FFF7FEFF 		bl	ST7789H2_WriteReg
 371              	.LVL22:
 315:Drivers/BSP/Components/st7789h2/st7789h2.c **** }
 372              		.loc 1 315 3 view .LVU94
 373 000c 0022     		movs	r2, #0
 374 000e 1146     		mov	r1, r2
 375 0010 1120     		movs	r0, #17
 376 0012 FFF7FEFF 		bl	ST7789H2_WriteReg
 377              	.LVL23:
 316:Drivers/BSP/Components/st7789h2/st7789h2.c **** 
 378              		.loc 1 316 1 is_stmt 0 view .LVU95
 379 0016 08BD     		pop	{r3, pc}
 380              		.cfi_endproc
 381              	.LFE5:
 383              		.section	.text.ST7789H2_Init,"ax",%progbits
 384              		.align	1
 385              		.global	ST7789H2_Init
 386              		.syntax unified
 387              		.thumb
 388              		.thumb_func
 390              	ST7789H2_Init:
 391              	.LFB3:
 133:Drivers/BSP/Components/st7789h2/st7789h2.c ****   uint8_t   parameter[14];
 392              		.loc 1 133 1 is_stmt 1 view -0
 393              		.cfi_startproc
 394              		@ args = 0, pretend = 0, frame = 16
 395              		@ frame_needed = 0, uses_anonymous_args = 0
 396 0000 2DE9F047 		push	{r4, r5, r6, r7, r8, r9, r10, lr}
 397              		.cfi_def_cfa_offset 32
 398              		.cfi_offset 4, -32
 399              		.cfi_offset 5, -28
ARM GAS  /var/folders/0z/tsy30v1j4xl4_7kw94k978ww0000gn/T//ccwsJdN3.s 			page 18


 400              		.cfi_offset 6, -24
 401              		.cfi_offset 7, -20
 402              		.cfi_offset 8, -16
 403              		.cfi_offset 9, -12
 404              		.cfi_offset 10, -8
 405              		.cfi_offset 14, -4
 406 0004 84B0     		sub	sp, sp, #16
 407              		.cfi_def_cfa_offset 48
 134:Drivers/BSP/Components/st7789h2/st7789h2.c ****   
 408              		.loc 1 134 3 view .LVU97
 137:Drivers/BSP/Components/st7789h2/st7789h2.c ****   /* Sleep In Command */ 
 409              		.loc 1 137 3 view .LVU98
 410 0006 FFF7FEFF 		bl	LCD_IO_Init
 411              	.LVL24:
 139:Drivers/BSP/Components/st7789h2/st7789h2.c ****   /* Wait for 10ms */
 412              		.loc 1 139 3 view .LVU99
 413 000a 0022     		movs	r2, #0
 414 000c 1146     		mov	r1, r2
 415 000e 1020     		movs	r0, #16
 416 0010 FFF7FEFF 		bl	ST7789H2_WriteReg
 417              	.LVL25:
 141:Drivers/BSP/Components/st7789h2/st7789h2.c ****   
 418              		.loc 1 141 3 view .LVU100
 419 0014 0A20     		movs	r0, #10
 420 0016 FFF7FEFF 		bl	LCD_IO_Delay
 421              	.LVL26:
 144:Drivers/BSP/Components/st7789h2/st7789h2.c ****   /* Wait for 200ms */
 422              		.loc 1 144 3 view .LVU101
 423 001a 0022     		movs	r2, #0
 424 001c 1146     		mov	r1, r2
 425 001e 0120     		movs	r0, #1
 426 0020 FFF7FEFF 		bl	ST7789H2_WriteReg
 427              	.LVL27:
 146:Drivers/BSP/Components/st7789h2/st7789h2.c ****   
 428              		.loc 1 146 3 view .LVU102
 429 0024 C820     		movs	r0, #200
 430 0026 FFF7FEFF 		bl	LCD_IO_Delay
 431              	.LVL28:
 149:Drivers/BSP/Components/st7789h2/st7789h2.c ****   /* Wait for 120ms */
 432              		.loc 1 149 3 view .LVU103
 433 002a 0022     		movs	r2, #0
 434 002c 1146     		mov	r1, r2
 435 002e 1120     		movs	r0, #17
 436 0030 FFF7FEFF 		bl	ST7789H2_WriteReg
 437              	.LVL29:
 151:Drivers/BSP/Components/st7789h2/st7789h2.c **** 
 438              		.loc 1 151 3 view .LVU104
 439 0034 7820     		movs	r0, #120
 440 0036 FFF7FEFF 		bl	LCD_IO_Delay
 441              	.LVL30:
 154:Drivers/BSP/Components/st7789h2/st7789h2.c ****   ST7789H2_WriteReg(ST7789H2_NORMAL_DISPLAY, parameter, 1);
 442              		.loc 1 154 3 view .LVU105
 154:Drivers/BSP/Components/st7789h2/st7789h2.c ****   ST7789H2_WriteReg(ST7789H2_NORMAL_DISPLAY, parameter, 1);
 443              		.loc 1 154 16 is_stmt 0 view .LVU106
 444 003a 0024     		movs	r4, #0
 445 003c 8DF80040 		strb	r4, [sp]
 155:Drivers/BSP/Components/st7789h2/st7789h2.c ****  
ARM GAS  /var/folders/0z/tsy30v1j4xl4_7kw94k978ww0000gn/T//ccwsJdN3.s 			page 19


 446              		.loc 1 155 3 is_stmt 1 view .LVU107
 447 0040 0122     		movs	r2, #1
 448 0042 6946     		mov	r1, sp
 449 0044 3620     		movs	r0, #54
 450 0046 FFF7FEFF 		bl	ST7789H2_WriteReg
 451              	.LVL31:
 158:Drivers/BSP/Components/st7789h2/st7789h2.c ****   ST7789H2_WriteReg(ST7789H2_COLOR_MODE, parameter, 1);
 452              		.loc 1 158 3 view .LVU108
 158:Drivers/BSP/Components/st7789h2/st7789h2.c ****   ST7789H2_WriteReg(ST7789H2_COLOR_MODE, parameter, 1);
 453              		.loc 1 158 16 is_stmt 0 view .LVU109
 454 004a 0525     		movs	r5, #5
 455 004c 8DF80050 		strb	r5, [sp]
 159:Drivers/BSP/Components/st7789h2/st7789h2.c ****   
 456              		.loc 1 159 3 is_stmt 1 view .LVU110
 457 0050 0122     		movs	r2, #1
 458 0052 6946     		mov	r1, sp
 459 0054 3A20     		movs	r0, #58
 460 0056 FFF7FEFF 		bl	ST7789H2_WriteReg
 461              	.LVL32:
 162:Drivers/BSP/Components/st7789h2/st7789h2.c ****   
 462              		.loc 1 162 3 view .LVU111
 463 005a 2246     		mov	r2, r4
 464 005c 2146     		mov	r1, r4
 465 005e 2120     		movs	r0, #33
 466 0060 FFF7FEFF 		bl	ST7789H2_WriteReg
 467              	.LVL33:
 165:Drivers/BSP/Components/st7789h2/st7789h2.c ****   parameter[1] = 0x00;
 468              		.loc 1 165 3 view .LVU112
 165:Drivers/BSP/Components/st7789h2/st7789h2.c ****   parameter[1] = 0x00;
 469              		.loc 1 165 16 is_stmt 0 view .LVU113
 470 0064 8DF80040 		strb	r4, [sp]
 166:Drivers/BSP/Components/st7789h2/st7789h2.c ****   parameter[2] = 0x00;
 471              		.loc 1 166 3 is_stmt 1 view .LVU114
 166:Drivers/BSP/Components/st7789h2/st7789h2.c ****   parameter[2] = 0x00;
 472              		.loc 1 166 16 is_stmt 0 view .LVU115
 473 0068 8DF80140 		strb	r4, [sp, #1]
 167:Drivers/BSP/Components/st7789h2/st7789h2.c ****   parameter[3] = 0xEF;
 474              		.loc 1 167 3 is_stmt 1 view .LVU116
 167:Drivers/BSP/Components/st7789h2/st7789h2.c ****   parameter[3] = 0xEF;
 475              		.loc 1 167 16 is_stmt 0 view .LVU117
 476 006c 8DF80240 		strb	r4, [sp, #2]
 168:Drivers/BSP/Components/st7789h2/st7789h2.c ****   ST7789H2_WriteReg(ST7789H2_CASET, parameter, 4);
 477              		.loc 1 168 3 is_stmt 1 view .LVU118
 168:Drivers/BSP/Components/st7789h2/st7789h2.c ****   ST7789H2_WriteReg(ST7789H2_CASET, parameter, 4);
 478              		.loc 1 168 16 is_stmt 0 view .LVU119
 479 0070 EF26     		movs	r6, #239
 480 0072 8DF80360 		strb	r6, [sp, #3]
 169:Drivers/BSP/Components/st7789h2/st7789h2.c ****   /* Set Row address RASET */  
 481              		.loc 1 169 3 is_stmt 1 view .LVU120
 482 0076 0422     		movs	r2, #4
 483 0078 6946     		mov	r1, sp
 484 007a 2A20     		movs	r0, #42
 485 007c FFF7FEFF 		bl	ST7789H2_WriteReg
 486              	.LVL34:
 171:Drivers/BSP/Components/st7789h2/st7789h2.c ****   parameter[1] = 0x00;
 487              		.loc 1 171 3 view .LVU121
 171:Drivers/BSP/Components/st7789h2/st7789h2.c ****   parameter[1] = 0x00;
ARM GAS  /var/folders/0z/tsy30v1j4xl4_7kw94k978ww0000gn/T//ccwsJdN3.s 			page 20


 488              		.loc 1 171 16 is_stmt 0 view .LVU122
 489 0080 8DF80040 		strb	r4, [sp]
 172:Drivers/BSP/Components/st7789h2/st7789h2.c ****   parameter[2] = 0x00;
 490              		.loc 1 172 3 is_stmt 1 view .LVU123
 172:Drivers/BSP/Components/st7789h2/st7789h2.c ****   parameter[2] = 0x00;
 491              		.loc 1 172 16 is_stmt 0 view .LVU124
 492 0084 8DF80140 		strb	r4, [sp, #1]
 173:Drivers/BSP/Components/st7789h2/st7789h2.c ****   parameter[3] = 0xEF;
 493              		.loc 1 173 3 is_stmt 1 view .LVU125
 173:Drivers/BSP/Components/st7789h2/st7789h2.c ****   parameter[3] = 0xEF;
 494              		.loc 1 173 16 is_stmt 0 view .LVU126
 495 0088 8DF80240 		strb	r4, [sp, #2]
 174:Drivers/BSP/Components/st7789h2/st7789h2.c ****   ST7789H2_WriteReg(ST7789H2_RASET, parameter, 4);
 496              		.loc 1 174 3 is_stmt 1 view .LVU127
 174:Drivers/BSP/Components/st7789h2/st7789h2.c ****   ST7789H2_WriteReg(ST7789H2_RASET, parameter, 4);
 497              		.loc 1 174 16 is_stmt 0 view .LVU128
 498 008c 8DF80360 		strb	r6, [sp, #3]
 175:Drivers/BSP/Components/st7789h2/st7789h2.c **** 
 499              		.loc 1 175 3 is_stmt 1 view .LVU129
 500 0090 0422     		movs	r2, #4
 501 0092 6946     		mov	r1, sp
 502 0094 2B20     		movs	r0, #43
 503 0096 FFF7FEFF 		bl	ST7789H2_WriteReg
 504              	.LVL35:
 179:Drivers/BSP/Components/st7789h2/st7789h2.c ****   parameter[1] = 0x0C;
 505              		.loc 1 179 3 view .LVU130
 179:Drivers/BSP/Components/st7789h2/st7789h2.c ****   parameter[1] = 0x0C;
 506              		.loc 1 179 16 is_stmt 0 view .LVU131
 507 009a 4FF00C08 		mov	r8, #12
 508 009e 8DF80080 		strb	r8, [sp]
 180:Drivers/BSP/Components/st7789h2/st7789h2.c ****   parameter[2] = 0x00;
 509              		.loc 1 180 3 is_stmt 1 view .LVU132
 180:Drivers/BSP/Components/st7789h2/st7789h2.c ****   parameter[2] = 0x00;
 510              		.loc 1 180 16 is_stmt 0 view .LVU133
 511 00a2 8DF80180 		strb	r8, [sp, #1]
 181:Drivers/BSP/Components/st7789h2/st7789h2.c ****   parameter[3] = 0x33;
 512              		.loc 1 181 3 is_stmt 1 view .LVU134
 181:Drivers/BSP/Components/st7789h2/st7789h2.c ****   parameter[3] = 0x33;
 513              		.loc 1 181 16 is_stmt 0 view .LVU135
 514 00a6 8DF80240 		strb	r4, [sp, #2]
 182:Drivers/BSP/Components/st7789h2/st7789h2.c ****   parameter[4] = 0x33; 
 515              		.loc 1 182 3 is_stmt 1 view .LVU136
 182:Drivers/BSP/Components/st7789h2/st7789h2.c ****   parameter[4] = 0x33; 
 516              		.loc 1 182 16 is_stmt 0 view .LVU137
 517 00aa 3327     		movs	r7, #51
 518 00ac 8DF80370 		strb	r7, [sp, #3]
 183:Drivers/BSP/Components/st7789h2/st7789h2.c ****   ST7789H2_WriteReg(ST7789H2_PORCH_CTRL, parameter, 5);
 519              		.loc 1 183 3 is_stmt 1 view .LVU138
 183:Drivers/BSP/Components/st7789h2/st7789h2.c ****   ST7789H2_WriteReg(ST7789H2_PORCH_CTRL, parameter, 5);
 520              		.loc 1 183 16 is_stmt 0 view .LVU139
 521 00b0 8DF80470 		strb	r7, [sp, #4]
 184:Drivers/BSP/Components/st7789h2/st7789h2.c ****   
 522              		.loc 1 184 3 is_stmt 1 view .LVU140
 523 00b4 2A46     		mov	r2, r5
 524 00b6 6946     		mov	r1, sp
 525 00b8 B220     		movs	r0, #178
 526 00ba FFF7FEFF 		bl	ST7789H2_WriteReg
ARM GAS  /var/folders/0z/tsy30v1j4xl4_7kw94k978ww0000gn/T//ccwsJdN3.s 			page 21


 527              	.LVL36:
 187:Drivers/BSP/Components/st7789h2/st7789h2.c ****   ST7789H2_WriteReg(ST7789H2_GATE_CTRL, parameter, 1);
 528              		.loc 1 187 3 view .LVU141
 187:Drivers/BSP/Components/st7789h2/st7789h2.c ****   ST7789H2_WriteReg(ST7789H2_GATE_CTRL, parameter, 1);
 529              		.loc 1 187 16 is_stmt 0 view .LVU142
 530 00be 4FF03509 		mov	r9, #53
 531 00c2 8DF80090 		strb	r9, [sp]
 188:Drivers/BSP/Components/st7789h2/st7789h2.c ****   
 532              		.loc 1 188 3 is_stmt 1 view .LVU143
 533 00c6 0122     		movs	r2, #1
 534 00c8 6946     		mov	r1, sp
 535 00ca B720     		movs	r0, #183
 536 00cc FFF7FEFF 		bl	ST7789H2_WriteReg
 537              	.LVL37:
 192:Drivers/BSP/Components/st7789h2/st7789h2.c ****   ST7789H2_WriteReg(ST7789H2_VCOM_SET, parameter, 1); 
 538              		.loc 1 192 3 view .LVU144
 192:Drivers/BSP/Components/st7789h2/st7789h2.c ****   ST7789H2_WriteReg(ST7789H2_VCOM_SET, parameter, 1); 
 539              		.loc 1 192 16 is_stmt 0 view .LVU145
 540 00d0 1F23     		movs	r3, #31
 541 00d2 8DF80030 		strb	r3, [sp]
 193:Drivers/BSP/Components/st7789h2/st7789h2.c ****   
 542              		.loc 1 193 3 is_stmt 1 view .LVU146
 543 00d6 0122     		movs	r2, #1
 544 00d8 6946     		mov	r1, sp
 545 00da BB20     		movs	r0, #187
 546 00dc FFF7FEFF 		bl	ST7789H2_WriteReg
 547              	.LVL38:
 196:Drivers/BSP/Components/st7789h2/st7789h2.c ****   ST7789H2_WriteReg(ST7789H2_LCM_CTRL, parameter, 1);
 548              		.loc 1 196 3 view .LVU147
 196:Drivers/BSP/Components/st7789h2/st7789h2.c ****   ST7789H2_WriteReg(ST7789H2_LCM_CTRL, parameter, 1);
 549              		.loc 1 196 16 is_stmt 0 view .LVU148
 550 00e0 2C23     		movs	r3, #44
 551 00e2 8DF80030 		strb	r3, [sp]
 197:Drivers/BSP/Components/st7789h2/st7789h2.c ****   
 552              		.loc 1 197 3 is_stmt 1 view .LVU149
 553 00e6 0122     		movs	r2, #1
 554 00e8 6946     		mov	r1, sp
 555 00ea C020     		movs	r0, #192
 556 00ec FFF7FEFF 		bl	ST7789H2_WriteReg
 557              	.LVL39:
 200:Drivers/BSP/Components/st7789h2/st7789h2.c ****   parameter[1] = 0xC3;
 558              		.loc 1 200 3 view .LVU150
 200:Drivers/BSP/Components/st7789h2/st7789h2.c ****   parameter[1] = 0xC3;
 559              		.loc 1 200 16 is_stmt 0 view .LVU151
 560 00f0 0125     		movs	r5, #1
 561 00f2 8DF80050 		strb	r5, [sp]
 201:Drivers/BSP/Components/st7789h2/st7789h2.c ****   ST7789H2_WriteReg(ST7789H2_VDV_VRH_EN, parameter, 2);
 562              		.loc 1 201 3 is_stmt 1 view .LVU152
 201:Drivers/BSP/Components/st7789h2/st7789h2.c ****   ST7789H2_WriteReg(ST7789H2_VDV_VRH_EN, parameter, 2);
 563              		.loc 1 201 16 is_stmt 0 view .LVU153
 564 00f6 C323     		movs	r3, #195
 565 00f8 8DF80130 		strb	r3, [sp, #1]
 202:Drivers/BSP/Components/st7789h2/st7789h2.c ****   
 566              		.loc 1 202 3 is_stmt 1 view .LVU154
 567 00fc 0222     		movs	r2, #2
 568 00fe 6946     		mov	r1, sp
 569 0100 C220     		movs	r0, #194
ARM GAS  /var/folders/0z/tsy30v1j4xl4_7kw94k978ww0000gn/T//ccwsJdN3.s 			page 22


 570 0102 FFF7FEFF 		bl	ST7789H2_WriteReg
 571              	.LVL40:
 205:Drivers/BSP/Components/st7789h2/st7789h2.c ****   ST7789H2_WriteReg(ST7789H2_VDV_SET, parameter, 1); 
 572              		.loc 1 205 3 view .LVU155
 205:Drivers/BSP/Components/st7789h2/st7789h2.c ****   ST7789H2_WriteReg(ST7789H2_VDV_SET, parameter, 1); 
 573              		.loc 1 205 16 is_stmt 0 view .LVU156
 574 0106 2023     		movs	r3, #32
 575 0108 8DF80030 		strb	r3, [sp]
 206:Drivers/BSP/Components/st7789h2/st7789h2.c ****   
 576              		.loc 1 206 3 is_stmt 1 view .LVU157
 577 010c 2A46     		mov	r2, r5
 578 010e 6946     		mov	r1, sp
 579 0110 C420     		movs	r0, #196
 580 0112 FFF7FEFF 		bl	ST7789H2_WriteReg
 581              	.LVL41:
 209:Drivers/BSP/Components/st7789h2/st7789h2.c ****   ST7789H2_WriteReg(ST7789H2_FR_CTRL, parameter, 1); 
 582              		.loc 1 209 3 view .LVU158
 209:Drivers/BSP/Components/st7789h2/st7789h2.c ****   ST7789H2_WriteReg(ST7789H2_FR_CTRL, parameter, 1); 
 583              		.loc 1 209 16 is_stmt 0 view .LVU159
 584 0116 0F23     		movs	r3, #15
 585 0118 8DF80030 		strb	r3, [sp]
 210:Drivers/BSP/Components/st7789h2/st7789h2.c ****   
 586              		.loc 1 210 3 is_stmt 1 view .LVU160
 587 011c 2A46     		mov	r2, r5
 588 011e 6946     		mov	r1, sp
 589 0120 C620     		movs	r0, #198
 590 0122 FFF7FEFF 		bl	ST7789H2_WriteReg
 591              	.LVL42:
 213:Drivers/BSP/Components/st7789h2/st7789h2.c ****   parameter[1] = 0xA1;
 592              		.loc 1 213 3 view .LVU161
 213:Drivers/BSP/Components/st7789h2/st7789h2.c ****   parameter[1] = 0xA1;
 593              		.loc 1 213 16 is_stmt 0 view .LVU162
 594 0126 A423     		movs	r3, #164
 595 0128 8DF80030 		strb	r3, [sp]
 214:Drivers/BSP/Components/st7789h2/st7789h2.c ****   ST7789H2_WriteReg(ST7789H2_POWER_CTRL, parameter, 1); 
 596              		.loc 1 214 3 is_stmt 1 view .LVU163
 214:Drivers/BSP/Components/st7789h2/st7789h2.c ****   ST7789H2_WriteReg(ST7789H2_POWER_CTRL, parameter, 1); 
 597              		.loc 1 214 16 is_stmt 0 view .LVU164
 598 012c A123     		movs	r3, #161
 599 012e 8DF80130 		strb	r3, [sp, #1]
 215:Drivers/BSP/Components/st7789h2/st7789h2.c ****   
 600              		.loc 1 215 3 is_stmt 1 view .LVU165
 601 0132 2A46     		mov	r2, r5
 602 0134 6946     		mov	r1, sp
 603 0136 D020     		movs	r0, #208
 604 0138 FFF7FEFF 		bl	ST7789H2_WriteReg
 605              	.LVL43:
 219:Drivers/BSP/Components/st7789h2/st7789h2.c ****   parameter[1] = 0x08;
 606              		.loc 1 219 3 view .LVU166
 219:Drivers/BSP/Components/st7789h2/st7789h2.c ****   parameter[1] = 0x08;
 607              		.loc 1 219 16 is_stmt 0 view .LVU167
 608 013c 4FF0D00A 		mov	r10, #208
 609 0140 8DF800A0 		strb	r10, [sp]
 220:Drivers/BSP/Components/st7789h2/st7789h2.c ****   parameter[2] = 0x11;
 610              		.loc 1 220 3 is_stmt 1 view .LVU168
 220:Drivers/BSP/Components/st7789h2/st7789h2.c ****   parameter[2] = 0x11;
 611              		.loc 1 220 16 is_stmt 0 view .LVU169
ARM GAS  /var/folders/0z/tsy30v1j4xl4_7kw94k978ww0000gn/T//ccwsJdN3.s 			page 23


 612 0144 0826     		movs	r6, #8
 613 0146 8DF80160 		strb	r6, [sp, #1]
 221:Drivers/BSP/Components/st7789h2/st7789h2.c ****   parameter[3] = 0x08;
 614              		.loc 1 221 3 is_stmt 1 view .LVU170
 221:Drivers/BSP/Components/st7789h2/st7789h2.c ****   parameter[3] = 0x08;
 615              		.loc 1 221 16 is_stmt 0 view .LVU171
 616 014a 1123     		movs	r3, #17
 617 014c 8DF80230 		strb	r3, [sp, #2]
 222:Drivers/BSP/Components/st7789h2/st7789h2.c ****   parameter[4] = 0x0C;
 618              		.loc 1 222 3 is_stmt 1 view .LVU172
 222:Drivers/BSP/Components/st7789h2/st7789h2.c ****   parameter[4] = 0x0C;
 619              		.loc 1 222 16 is_stmt 0 view .LVU173
 620 0150 8DF80360 		strb	r6, [sp, #3]
 223:Drivers/BSP/Components/st7789h2/st7789h2.c ****   parameter[5] = 0x15;
 621              		.loc 1 223 3 is_stmt 1 view .LVU174
 223:Drivers/BSP/Components/st7789h2/st7789h2.c ****   parameter[5] = 0x15;
 622              		.loc 1 223 16 is_stmt 0 view .LVU175
 623 0154 8DF80480 		strb	r8, [sp, #4]
 224:Drivers/BSP/Components/st7789h2/st7789h2.c ****   parameter[6] = 0x39;
 624              		.loc 1 224 3 is_stmt 1 view .LVU176
 224:Drivers/BSP/Components/st7789h2/st7789h2.c ****   parameter[6] = 0x39;
 625              		.loc 1 224 16 is_stmt 0 view .LVU177
 626 0158 1523     		movs	r3, #21
 627 015a 8DF80530 		strb	r3, [sp, #5]
 225:Drivers/BSP/Components/st7789h2/st7789h2.c ****   parameter[7] = 0x33;
 628              		.loc 1 225 3 is_stmt 1 view .LVU178
 225:Drivers/BSP/Components/st7789h2/st7789h2.c ****   parameter[7] = 0x33;
 629              		.loc 1 225 16 is_stmt 0 view .LVU179
 630 015e 4FF03908 		mov	r8, #57
 631 0162 8DF80680 		strb	r8, [sp, #6]
 226:Drivers/BSP/Components/st7789h2/st7789h2.c ****   parameter[8] = 0x50;
 632              		.loc 1 226 3 is_stmt 1 view .LVU180
 226:Drivers/BSP/Components/st7789h2/st7789h2.c ****   parameter[8] = 0x50;
 633              		.loc 1 226 16 is_stmt 0 view .LVU181
 634 0166 8DF80770 		strb	r7, [sp, #7]
 227:Drivers/BSP/Components/st7789h2/st7789h2.c ****   parameter[9] = 0x36;
 635              		.loc 1 227 3 is_stmt 1 view .LVU182
 227:Drivers/BSP/Components/st7789h2/st7789h2.c ****   parameter[9] = 0x36;
 636              		.loc 1 227 16 is_stmt 0 view .LVU183
 637 016a 5023     		movs	r3, #80
 638 016c 8DF80830 		strb	r3, [sp, #8]
 228:Drivers/BSP/Components/st7789h2/st7789h2.c ****   parameter[10] = 0x13;
 639              		.loc 1 228 3 is_stmt 1 view .LVU184
 228:Drivers/BSP/Components/st7789h2/st7789h2.c ****   parameter[10] = 0x13;
 640              		.loc 1 228 16 is_stmt 0 view .LVU185
 641 0170 3623     		movs	r3, #54
 642 0172 8DF80930 		strb	r3, [sp, #9]
 229:Drivers/BSP/Components/st7789h2/st7789h2.c ****   parameter[11] = 0x14;
 643              		.loc 1 229 3 is_stmt 1 view .LVU186
 229:Drivers/BSP/Components/st7789h2/st7789h2.c ****   parameter[11] = 0x14;
 644              		.loc 1 229 17 is_stmt 0 view .LVU187
 645 0176 1323     		movs	r3, #19
 646 0178 8DF80A30 		strb	r3, [sp, #10]
 230:Drivers/BSP/Components/st7789h2/st7789h2.c ****   parameter[12] = 0x29;
 647              		.loc 1 230 3 is_stmt 1 view .LVU188
 230:Drivers/BSP/Components/st7789h2/st7789h2.c ****   parameter[12] = 0x29;
 648              		.loc 1 230 17 is_stmt 0 view .LVU189
ARM GAS  /var/folders/0z/tsy30v1j4xl4_7kw94k978ww0000gn/T//ccwsJdN3.s 			page 24


 649 017c 1427     		movs	r7, #20
 650 017e 8DF80B70 		strb	r7, [sp, #11]
 231:Drivers/BSP/Components/st7789h2/st7789h2.c ****   parameter[13] = 0x2D;
 651              		.loc 1 231 3 is_stmt 1 view .LVU190
 231:Drivers/BSP/Components/st7789h2/st7789h2.c ****   parameter[13] = 0x2D;
 652              		.loc 1 231 17 is_stmt 0 view .LVU191
 653 0182 2923     		movs	r3, #41
 654 0184 8DF80C30 		strb	r3, [sp, #12]
 232:Drivers/BSP/Components/st7789h2/st7789h2.c ****   ST7789H2_WriteReg(ST7789H2_PV_GAMMA_CTRL, parameter, 14); 
 655              		.loc 1 232 3 is_stmt 1 view .LVU192
 232:Drivers/BSP/Components/st7789h2/st7789h2.c ****   ST7789H2_WriteReg(ST7789H2_PV_GAMMA_CTRL, parameter, 14); 
 656              		.loc 1 232 17 is_stmt 0 view .LVU193
 657 0188 2D23     		movs	r3, #45
 658 018a 8DF80D30 		strb	r3, [sp, #13]
 233:Drivers/BSP/Components/st7789h2/st7789h2.c ****   
 659              		.loc 1 233 3 is_stmt 1 view .LVU194
 660 018e 0E22     		movs	r2, #14
 661 0190 6946     		mov	r1, sp
 662 0192 E020     		movs	r0, #224
 663 0194 FFF7FEFF 		bl	ST7789H2_WriteReg
 664              	.LVL44:
 236:Drivers/BSP/Components/st7789h2/st7789h2.c ****   parameter[1] = 0x08;
 665              		.loc 1 236 3 view .LVU195
 236:Drivers/BSP/Components/st7789h2/st7789h2.c ****   parameter[1] = 0x08;
 666              		.loc 1 236 16 is_stmt 0 view .LVU196
 667 0198 8DF800A0 		strb	r10, [sp]
 237:Drivers/BSP/Components/st7789h2/st7789h2.c ****   parameter[2] = 0x10;
 668              		.loc 1 237 3 is_stmt 1 view .LVU197
 237:Drivers/BSP/Components/st7789h2/st7789h2.c ****   parameter[2] = 0x10;
 669              		.loc 1 237 16 is_stmt 0 view .LVU198
 670 019c 8DF80160 		strb	r6, [sp, #1]
 238:Drivers/BSP/Components/st7789h2/st7789h2.c ****   parameter[3] = 0x08;
 671              		.loc 1 238 3 is_stmt 1 view .LVU199
 238:Drivers/BSP/Components/st7789h2/st7789h2.c ****   parameter[3] = 0x08;
 672              		.loc 1 238 16 is_stmt 0 view .LVU200
 673 01a0 1023     		movs	r3, #16
 674 01a2 8DF80230 		strb	r3, [sp, #2]
 239:Drivers/BSP/Components/st7789h2/st7789h2.c ****   parameter[4] = 0x06;
 675              		.loc 1 239 3 is_stmt 1 view .LVU201
 239:Drivers/BSP/Components/st7789h2/st7789h2.c ****   parameter[4] = 0x06;
 676              		.loc 1 239 16 is_stmt 0 view .LVU202
 677 01a6 8DF80360 		strb	r6, [sp, #3]
 240:Drivers/BSP/Components/st7789h2/st7789h2.c ****   parameter[5] = 0x06;
 678              		.loc 1 240 3 is_stmt 1 view .LVU203
 240:Drivers/BSP/Components/st7789h2/st7789h2.c ****   parameter[5] = 0x06;
 679              		.loc 1 240 16 is_stmt 0 view .LVU204
 680 01aa 0623     		movs	r3, #6
 681 01ac 8DF80430 		strb	r3, [sp, #4]
 241:Drivers/BSP/Components/st7789h2/st7789h2.c ****   parameter[6] = 0x39;
 682              		.loc 1 241 3 is_stmt 1 view .LVU205
 241:Drivers/BSP/Components/st7789h2/st7789h2.c ****   parameter[6] = 0x39;
 683              		.loc 1 241 16 is_stmt 0 view .LVU206
 684 01b0 8DF80530 		strb	r3, [sp, #5]
 242:Drivers/BSP/Components/st7789h2/st7789h2.c ****   parameter[7] = 0x44;
 685              		.loc 1 242 3 is_stmt 1 view .LVU207
 242:Drivers/BSP/Components/st7789h2/st7789h2.c ****   parameter[7] = 0x44;
 686              		.loc 1 242 16 is_stmt 0 view .LVU208
ARM GAS  /var/folders/0z/tsy30v1j4xl4_7kw94k978ww0000gn/T//ccwsJdN3.s 			page 25


 687 01b4 8DF80680 		strb	r8, [sp, #6]
 243:Drivers/BSP/Components/st7789h2/st7789h2.c ****   parameter[8] = 0x51;
 688              		.loc 1 243 3 is_stmt 1 view .LVU209
 243:Drivers/BSP/Components/st7789h2/st7789h2.c ****   parameter[8] = 0x51;
 689              		.loc 1 243 16 is_stmt 0 view .LVU210
 690 01b8 4423     		movs	r3, #68
 691 01ba 8DF80730 		strb	r3, [sp, #7]
 244:Drivers/BSP/Components/st7789h2/st7789h2.c ****   parameter[9] = 0x0B;
 692              		.loc 1 244 3 is_stmt 1 view .LVU211
 244:Drivers/BSP/Components/st7789h2/st7789h2.c ****   parameter[9] = 0x0B;
 693              		.loc 1 244 16 is_stmt 0 view .LVU212
 694 01be 5123     		movs	r3, #81
 695 01c0 8DF80830 		strb	r3, [sp, #8]
 245:Drivers/BSP/Components/st7789h2/st7789h2.c ****   parameter[10] = 0x16;
 696              		.loc 1 245 3 is_stmt 1 view .LVU213
 245:Drivers/BSP/Components/st7789h2/st7789h2.c ****   parameter[10] = 0x16;
 697              		.loc 1 245 16 is_stmt 0 view .LVU214
 698 01c4 0B23     		movs	r3, #11
 699 01c6 8DF80930 		strb	r3, [sp, #9]
 246:Drivers/BSP/Components/st7789h2/st7789h2.c ****   parameter[11] = 0x14;
 700              		.loc 1 246 3 is_stmt 1 view .LVU215
 246:Drivers/BSP/Components/st7789h2/st7789h2.c ****   parameter[11] = 0x14;
 701              		.loc 1 246 17 is_stmt 0 view .LVU216
 702 01ca 1623     		movs	r3, #22
 703 01cc 8DF80A30 		strb	r3, [sp, #10]
 247:Drivers/BSP/Components/st7789h2/st7789h2.c ****   parameter[12] = 0x2F;
 704              		.loc 1 247 3 is_stmt 1 view .LVU217
 247:Drivers/BSP/Components/st7789h2/st7789h2.c ****   parameter[12] = 0x2F;
 705              		.loc 1 247 17 is_stmt 0 view .LVU218
 706 01d0 8DF80B70 		strb	r7, [sp, #11]
 248:Drivers/BSP/Components/st7789h2/st7789h2.c ****   parameter[13] = 0x31;
 707              		.loc 1 248 3 is_stmt 1 view .LVU219
 248:Drivers/BSP/Components/st7789h2/st7789h2.c ****   parameter[13] = 0x31;
 708              		.loc 1 248 17 is_stmt 0 view .LVU220
 709 01d4 2F23     		movs	r3, #47
 710 01d6 8DF80C30 		strb	r3, [sp, #12]
 249:Drivers/BSP/Components/st7789h2/st7789h2.c ****   ST7789H2_WriteReg(ST7789H2_NV_GAMMA_CTRL, parameter, 14); 
 711              		.loc 1 249 3 is_stmt 1 view .LVU221
 249:Drivers/BSP/Components/st7789h2/st7789h2.c ****   ST7789H2_WriteReg(ST7789H2_NV_GAMMA_CTRL, parameter, 14); 
 712              		.loc 1 249 17 is_stmt 0 view .LVU222
 713 01da 3123     		movs	r3, #49
 714 01dc 8DF80D30 		strb	r3, [sp, #13]
 250:Drivers/BSP/Components/st7789h2/st7789h2.c ****   
 715              		.loc 1 250 3 is_stmt 1 view .LVU223
 716 01e0 0E22     		movs	r2, #14
 717 01e2 6946     		mov	r1, sp
 718 01e4 E120     		movs	r0, #225
 719 01e6 FFF7FEFF 		bl	ST7789H2_WriteReg
 720              	.LVL45:
 253:Drivers/BSP/Components/st7789h2/st7789h2.c ****   
 721              		.loc 1 253 3 view .LVU224
 722 01ea FFF7FEFF 		bl	ST7789H2_DisplayOn
 723              	.LVL46:
 256:Drivers/BSP/Components/st7789h2/st7789h2.c ****   ST7789H2_WriteReg(ST7789H2_TEARING_EFFECT, parameter, 1);
 724              		.loc 1 256 3 view .LVU225
 256:Drivers/BSP/Components/st7789h2/st7789h2.c ****   ST7789H2_WriteReg(ST7789H2_TEARING_EFFECT, parameter, 1);
 725              		.loc 1 256 16 is_stmt 0 view .LVU226
ARM GAS  /var/folders/0z/tsy30v1j4xl4_7kw94k978ww0000gn/T//ccwsJdN3.s 			page 26


 726 01ee 8DF80040 		strb	r4, [sp]
 257:Drivers/BSP/Components/st7789h2/st7789h2.c **** 
 727              		.loc 1 257 3 is_stmt 1 view .LVU227
 728 01f2 2A46     		mov	r2, r5
 729 01f4 6946     		mov	r1, sp
 730 01f6 4846     		mov	r0, r9
 731 01f8 FFF7FEFF 		bl	ST7789H2_WriteReg
 732              	.LVL47:
 259:Drivers/BSP/Components/st7789h2/st7789h2.c **** 
 733              		.loc 1 259 1 is_stmt 0 view .LVU228
 734 01fc 04B0     		add	sp, sp, #16
 735              		.cfi_def_cfa_offset 32
 736              		@ sp needed
 737 01fe BDE8F087 		pop	{r4, r5, r6, r7, r8, r9, r10, pc}
 738              		.cfi_endproc
 739              	.LFE3:
 741              		.section	.text.ST7789H2_DisplayOff,"ax",%progbits
 742              		.align	1
 743              		.global	ST7789H2_DisplayOff
 744              		.syntax unified
 745              		.thumb
 746              		.thumb_func
 748              	ST7789H2_DisplayOff:
 749              	.LFB6:
 324:Drivers/BSP/Components/st7789h2/st7789h2.c ****   uint8_t   parameter[1];
 750              		.loc 1 324 1 is_stmt 1 view -0
 751              		.cfi_startproc
 752              		@ args = 0, pretend = 0, frame = 8
 753              		@ frame_needed = 0, uses_anonymous_args = 0
 754 0000 00B5     		push	{lr}
 755              		.cfi_def_cfa_offset 4
 756              		.cfi_offset 14, -4
 757 0002 83B0     		sub	sp, sp, #12
 758              		.cfi_def_cfa_offset 16
 325:Drivers/BSP/Components/st7789h2/st7789h2.c ****   parameter[0] = 0xFE;
 759              		.loc 1 325 3 view .LVU230
 326:Drivers/BSP/Components/st7789h2/st7789h2.c ****   /* Display OFF command */
 760              		.loc 1 326 3 view .LVU231
 326:Drivers/BSP/Components/st7789h2/st7789h2.c ****   /* Display OFF command */
 761              		.loc 1 326 16 is_stmt 0 view .LVU232
 762 0004 FE23     		movs	r3, #254
 763 0006 8DF80430 		strb	r3, [sp, #4]
 328:Drivers/BSP/Components/st7789h2/st7789h2.c ****   /* Sleep In Command */
 764              		.loc 1 328 3 is_stmt 1 view .LVU233
 765 000a 0122     		movs	r2, #1
 766 000c 01A9     		add	r1, sp, #4
 767 000e BD20     		movs	r0, #189
 768 0010 FFF7FEFF 		bl	ST7789H2_WriteReg
 769              	.LVL48:
 330:Drivers/BSP/Components/st7789h2/st7789h2.c ****   /* Wait for 10ms */
 770              		.loc 1 330 3 view .LVU234
 771 0014 0022     		movs	r2, #0
 772 0016 1146     		mov	r1, r2
 773 0018 1020     		movs	r0, #16
 774 001a FFF7FEFF 		bl	ST7789H2_WriteReg
 775              	.LVL49:
 332:Drivers/BSP/Components/st7789h2/st7789h2.c **** }
ARM GAS  /var/folders/0z/tsy30v1j4xl4_7kw94k978ww0000gn/T//ccwsJdN3.s 			page 27


 776              		.loc 1 332 3 view .LVU235
 777 001e 0A20     		movs	r0, #10
 778 0020 FFF7FEFF 		bl	LCD_IO_Delay
 779              	.LVL50:
 333:Drivers/BSP/Components/st7789h2/st7789h2.c **** 
 780              		.loc 1 333 1 is_stmt 0 view .LVU236
 781 0024 03B0     		add	sp, sp, #12
 782              		.cfi_def_cfa_offset 4
 783              		@ sp needed
 784 0026 5DF804FB 		ldr	pc, [sp], #4
 785              		.cfi_endproc
 786              	.LFE6:
 788              		.section	.text.ST7789H2_SetCursor,"ax",%progbits
 789              		.align	1
 790              		.global	ST7789H2_SetCursor
 791              		.syntax unified
 792              		.thumb
 793              		.thumb_func
 795              	ST7789H2_SetCursor:
 796              	.LVL51:
 797              	.LFB10:
 374:Drivers/BSP/Components/st7789h2/st7789h2.c ****   uint8_t   parameter[4];
 798              		.loc 1 374 1 is_stmt 1 view -0
 799              		.cfi_startproc
 800              		@ args = 0, pretend = 0, frame = 8
 801              		@ frame_needed = 0, uses_anonymous_args = 0
 374:Drivers/BSP/Components/st7789h2/st7789h2.c ****   uint8_t   parameter[4];
 802              		.loc 1 374 1 is_stmt 0 view .LVU238
 803 0000 30B5     		push	{r4, r5, lr}
 804              		.cfi_def_cfa_offset 12
 805              		.cfi_offset 4, -12
 806              		.cfi_offset 5, -8
 807              		.cfi_offset 14, -4
 808 0002 83B0     		sub	sp, sp, #12
 809              		.cfi_def_cfa_offset 24
 810 0004 0C46     		mov	r4, r1
 375:Drivers/BSP/Components/st7789h2/st7789h2.c ****   /* CASET: Comumn Addrses Set */
 811              		.loc 1 375 3 is_stmt 1 view .LVU239
 377:Drivers/BSP/Components/st7789h2/st7789h2.c ****   parameter[1] = 0x00 + Xpos;
 812              		.loc 1 377 3 view .LVU240
 377:Drivers/BSP/Components/st7789h2/st7789h2.c ****   parameter[1] = 0x00 + Xpos;
 813              		.loc 1 377 16 is_stmt 0 view .LVU241
 814 0006 0025     		movs	r5, #0
 815 0008 8DF80450 		strb	r5, [sp, #4]
 378:Drivers/BSP/Components/st7789h2/st7789h2.c ****   parameter[2] = 0x00;
 816              		.loc 1 378 3 is_stmt 1 view .LVU242
 378:Drivers/BSP/Components/st7789h2/st7789h2.c ****   parameter[2] = 0x00;
 817              		.loc 1 378 16 is_stmt 0 view .LVU243
 818 000c C0B2     		uxtb	r0, r0
 819              	.LVL52:
 378:Drivers/BSP/Components/st7789h2/st7789h2.c ****   parameter[2] = 0x00;
 820              		.loc 1 378 16 view .LVU244
 821 000e 8DF80500 		strb	r0, [sp, #5]
 379:Drivers/BSP/Components/st7789h2/st7789h2.c ****   parameter[3] = 0xEF + Xpos;
 822              		.loc 1 379 3 is_stmt 1 view .LVU245
 379:Drivers/BSP/Components/st7789h2/st7789h2.c ****   parameter[3] = 0xEF + Xpos;
 823              		.loc 1 379 16 is_stmt 0 view .LVU246
ARM GAS  /var/folders/0z/tsy30v1j4xl4_7kw94k978ww0000gn/T//ccwsJdN3.s 			page 28


 824 0012 8DF80650 		strb	r5, [sp, #6]
 380:Drivers/BSP/Components/st7789h2/st7789h2.c ****   ST7789H2_WriteReg(ST7789H2_CASET, parameter, 4);
 825              		.loc 1 380 3 is_stmt 1 view .LVU247
 380:Drivers/BSP/Components/st7789h2/st7789h2.c ****   ST7789H2_WriteReg(ST7789H2_CASET, parameter, 4);
 826              		.loc 1 380 23 is_stmt 0 view .LVU248
 827 0016 1138     		subs	r0, r0, #17
 380:Drivers/BSP/Components/st7789h2/st7789h2.c ****   ST7789H2_WriteReg(ST7789H2_CASET, parameter, 4);
 828              		.loc 1 380 16 view .LVU249
 829 0018 8DF80700 		strb	r0, [sp, #7]
 381:Drivers/BSP/Components/st7789h2/st7789h2.c ****   /* RASET: Row Addrses Set */  
 830              		.loc 1 381 3 is_stmt 1 view .LVU250
 831 001c 0422     		movs	r2, #4
 832 001e 0DEB0201 		add	r1, sp, r2
 833              	.LVL53:
 381:Drivers/BSP/Components/st7789h2/st7789h2.c ****   /* RASET: Row Addrses Set */  
 834              		.loc 1 381 3 is_stmt 0 view .LVU251
 835 0022 2A20     		movs	r0, #42
 836 0024 FFF7FEFF 		bl	ST7789H2_WriteReg
 837              	.LVL54:
 383:Drivers/BSP/Components/st7789h2/st7789h2.c ****   parameter[1] = 0x00 + Ypos;
 838              		.loc 1 383 3 is_stmt 1 view .LVU252
 383:Drivers/BSP/Components/st7789h2/st7789h2.c ****   parameter[1] = 0x00 + Ypos;
 839              		.loc 1 383 16 is_stmt 0 view .LVU253
 840 0028 8DF80450 		strb	r5, [sp, #4]
 384:Drivers/BSP/Components/st7789h2/st7789h2.c ****   parameter[2] = 0x00;
 841              		.loc 1 384 3 is_stmt 1 view .LVU254
 384:Drivers/BSP/Components/st7789h2/st7789h2.c ****   parameter[2] = 0x00;
 842              		.loc 1 384 16 is_stmt 0 view .LVU255
 843 002c E1B2     		uxtb	r1, r4
 844 002e 8DF80510 		strb	r1, [sp, #5]
 385:Drivers/BSP/Components/st7789h2/st7789h2.c ****   parameter[3] = 0xEF + Ypos;
 845              		.loc 1 385 3 is_stmt 1 view .LVU256
 385:Drivers/BSP/Components/st7789h2/st7789h2.c ****   parameter[3] = 0xEF + Ypos;
 846              		.loc 1 385 16 is_stmt 0 view .LVU257
 847 0032 8DF80650 		strb	r5, [sp, #6]
 386:Drivers/BSP/Components/st7789h2/st7789h2.c ****   ST7789H2_WriteReg(ST7789H2_RASET, parameter, 4);
 848              		.loc 1 386 3 is_stmt 1 view .LVU258
 386:Drivers/BSP/Components/st7789h2/st7789h2.c ****   ST7789H2_WriteReg(ST7789H2_RASET, parameter, 4);
 849              		.loc 1 386 23 is_stmt 0 view .LVU259
 850 0036 1139     		subs	r1, r1, #17
 386:Drivers/BSP/Components/st7789h2/st7789h2.c ****   ST7789H2_WriteReg(ST7789H2_RASET, parameter, 4);
 851              		.loc 1 386 16 view .LVU260
 852 0038 8DF80710 		strb	r1, [sp, #7]
 387:Drivers/BSP/Components/st7789h2/st7789h2.c **** }
 853              		.loc 1 387 3 is_stmt 1 view .LVU261
 854 003c 0422     		movs	r2, #4
 855 003e 0DEB0201 		add	r1, sp, r2
 856 0042 2B20     		movs	r0, #43
 857 0044 FFF7FEFF 		bl	ST7789H2_WriteReg
 858              	.LVL55:
 388:Drivers/BSP/Components/st7789h2/st7789h2.c **** 
 859              		.loc 1 388 1 is_stmt 0 view .LVU262
 860 0048 03B0     		add	sp, sp, #12
 861              		.cfi_def_cfa_offset 12
 862              		@ sp needed
 863 004a 30BD     		pop	{r4, r5, pc}
 864              		.cfi_endproc
ARM GAS  /var/folders/0z/tsy30v1j4xl4_7kw94k978ww0000gn/T//ccwsJdN3.s 			page 29


 865              	.LFE10:
 867              		.section	.text.ST7789H2_WritePixel,"ax",%progbits
 868              		.align	1
 869              		.global	ST7789H2_WritePixel
 870              		.syntax unified
 871              		.thumb
 872              		.thumb_func
 874              	ST7789H2_WritePixel:
 875              	.LVL56:
 876              	.LFB11:
 398:Drivers/BSP/Components/st7789h2/st7789h2.c ****   /* Set Cursor */
 877              		.loc 1 398 1 is_stmt 1 view -0
 878              		.cfi_startproc
 879              		@ args = 0, pretend = 0, frame = 0
 880              		@ frame_needed = 0, uses_anonymous_args = 0
 398:Drivers/BSP/Components/st7789h2/st7789h2.c ****   /* Set Cursor */
 881              		.loc 1 398 1 is_stmt 0 view .LVU264
 882 0000 10B5     		push	{r4, lr}
 883              		.cfi_def_cfa_offset 8
 884              		.cfi_offset 4, -8
 885              		.cfi_offset 14, -4
 886 0002 1446     		mov	r4, r2
 400:Drivers/BSP/Components/st7789h2/st7789h2.c **** 
 887              		.loc 1 400 3 is_stmt 1 view .LVU265
 888 0004 FFF7FEFF 		bl	ST7789H2_SetCursor
 889              	.LVL57:
 403:Drivers/BSP/Components/st7789h2/st7789h2.c **** 
 890              		.loc 1 403 3 view .LVU266
 891 0008 0022     		movs	r2, #0
 892 000a 1146     		mov	r1, r2
 893 000c 2C20     		movs	r0, #44
 894 000e FFF7FEFF 		bl	ST7789H2_WriteReg
 895              	.LVL58:
 406:Drivers/BSP/Components/st7789h2/st7789h2.c **** }
 896              		.loc 1 406 3 view .LVU267
 897 0012 2046     		mov	r0, r4
 898 0014 FFF7FEFF 		bl	LCD_IO_WriteData
 899              	.LVL59:
 407:Drivers/BSP/Components/st7789h2/st7789h2.c **** 
 900              		.loc 1 407 1 is_stmt 0 view .LVU268
 901 0018 10BD     		pop	{r4, pc}
 902              		.cfi_endproc
 903              	.LFE11:
 905              		.section	.text.ST7789H2_ReadPixel_rgb888,"ax",%progbits
 906              		.align	1
 907              		.syntax unified
 908              		.thumb
 909              		.thumb_func
 911              	ST7789H2_ReadPixel_rgb888:
 912              	.LVL60:
 913              	.LFB20:
 521:Drivers/BSP/Components/st7789h2/st7789h2.c **** 
 522:Drivers/BSP/Components/st7789h2/st7789h2.c **** /**
 523:Drivers/BSP/Components/st7789h2/st7789h2.c ****   * @brief  Draw vertical line.
 524:Drivers/BSP/Components/st7789h2/st7789h2.c ****   * @param  RGBCode: Specifies the RGB color in RGB565 format
 525:Drivers/BSP/Components/st7789h2/st7789h2.c ****   * @param  Xpos:     specifies the X position.
 526:Drivers/BSP/Components/st7789h2/st7789h2.c ****   * @param  Ypos:     specifies the Y position.
ARM GAS  /var/folders/0z/tsy30v1j4xl4_7kw94k978ww0000gn/T//ccwsJdN3.s 			page 30


 527:Drivers/BSP/Components/st7789h2/st7789h2.c ****   * @param  Length:   specifies the Line length.  
 528:Drivers/BSP/Components/st7789h2/st7789h2.c ****   * @retval None
 529:Drivers/BSP/Components/st7789h2/st7789h2.c ****   */
 530:Drivers/BSP/Components/st7789h2/st7789h2.c **** void ST7789H2_DrawHLine(uint16_t RGBCode, uint16_t Xpos, uint16_t Ypos, uint16_t Length)
 531:Drivers/BSP/Components/st7789h2/st7789h2.c **** {
 532:Drivers/BSP/Components/st7789h2/st7789h2.c ****   uint16_t counter = 0;
 533:Drivers/BSP/Components/st7789h2/st7789h2.c ****   
 534:Drivers/BSP/Components/st7789h2/st7789h2.c ****   /* Set Cursor */
 535:Drivers/BSP/Components/st7789h2/st7789h2.c ****   ST7789H2_SetCursor(Xpos, Ypos); 
 536:Drivers/BSP/Components/st7789h2/st7789h2.c ****   
 537:Drivers/BSP/Components/st7789h2/st7789h2.c ****   /* Prepare to write to LCD RAM */
 538:Drivers/BSP/Components/st7789h2/st7789h2.c ****   ST7789H2_WriteReg(ST7789H2_WRITE_RAM, (uint8_t*)NULL, 0);   /* RAM write data command */
 539:Drivers/BSP/Components/st7789h2/st7789h2.c ****   
 540:Drivers/BSP/Components/st7789h2/st7789h2.c ****   /* Sent a complete line */
 541:Drivers/BSP/Components/st7789h2/st7789h2.c ****   for(counter = 0; counter < Length; counter++)
 542:Drivers/BSP/Components/st7789h2/st7789h2.c ****   {
 543:Drivers/BSP/Components/st7789h2/st7789h2.c ****     LCD_IO_WriteData(RGBCode);
 544:Drivers/BSP/Components/st7789h2/st7789h2.c ****   }  
 545:Drivers/BSP/Components/st7789h2/st7789h2.c **** }
 546:Drivers/BSP/Components/st7789h2/st7789h2.c **** 
 547:Drivers/BSP/Components/st7789h2/st7789h2.c **** /**
 548:Drivers/BSP/Components/st7789h2/st7789h2.c ****   * @brief  Draw vertical line.
 549:Drivers/BSP/Components/st7789h2/st7789h2.c ****   * @param  RGBCode: Specifies the RGB color    
 550:Drivers/BSP/Components/st7789h2/st7789h2.c ****   * @param  Xpos:     specifies the X position.
 551:Drivers/BSP/Components/st7789h2/st7789h2.c ****   * @param  Ypos:     specifies the Y position.
 552:Drivers/BSP/Components/st7789h2/st7789h2.c ****   * @param  Length:   specifies the Line length.  
 553:Drivers/BSP/Components/st7789h2/st7789h2.c ****   * @retval None
 554:Drivers/BSP/Components/st7789h2/st7789h2.c ****   */
 555:Drivers/BSP/Components/st7789h2/st7789h2.c **** void ST7789H2_DrawVLine(uint16_t RGBCode, uint16_t Xpos, uint16_t Ypos, uint16_t Length)
 556:Drivers/BSP/Components/st7789h2/st7789h2.c **** {
 557:Drivers/BSP/Components/st7789h2/st7789h2.c ****   uint16_t counter = 0;
 558:Drivers/BSP/Components/st7789h2/st7789h2.c **** 
 559:Drivers/BSP/Components/st7789h2/st7789h2.c ****   /* Set Cursor */
 560:Drivers/BSP/Components/st7789h2/st7789h2.c ****   ST7789H2_SetCursor(Xpos, Ypos);
 561:Drivers/BSP/Components/st7789h2/st7789h2.c ****   
 562:Drivers/BSP/Components/st7789h2/st7789h2.c ****   /* Prepare to write to LCD RAM */
 563:Drivers/BSP/Components/st7789h2/st7789h2.c ****   ST7789H2_WriteReg(ST7789H2_WRITE_RAM, (uint8_t*)NULL, 0);   /* RAM write data command */
 564:Drivers/BSP/Components/st7789h2/st7789h2.c **** 
 565:Drivers/BSP/Components/st7789h2/st7789h2.c ****   /* Fill a complete vertical line */
 566:Drivers/BSP/Components/st7789h2/st7789h2.c ****   for(counter = 0; counter < Length; counter++)
 567:Drivers/BSP/Components/st7789h2/st7789h2.c ****   {
 568:Drivers/BSP/Components/st7789h2/st7789h2.c ****     ST7789H2_WritePixel(Xpos, Ypos + counter, RGBCode);
 569:Drivers/BSP/Components/st7789h2/st7789h2.c ****   }
 570:Drivers/BSP/Components/st7789h2/st7789h2.c **** }
 571:Drivers/BSP/Components/st7789h2/st7789h2.c **** 
 572:Drivers/BSP/Components/st7789h2/st7789h2.c **** /**
 573:Drivers/BSP/Components/st7789h2/st7789h2.c ****   * @brief  Displays a bitmap picture.
 574:Drivers/BSP/Components/st7789h2/st7789h2.c ****   * @param  BmpAddress: Bmp picture address.
 575:Drivers/BSP/Components/st7789h2/st7789h2.c ****   * @param  Xpos: Bmp X position in the LCD
 576:Drivers/BSP/Components/st7789h2/st7789h2.c ****   * @param  Ypos: Bmp Y position in the LCD    
 577:Drivers/BSP/Components/st7789h2/st7789h2.c ****   * @retval None
 578:Drivers/BSP/Components/st7789h2/st7789h2.c ****   */
 579:Drivers/BSP/Components/st7789h2/st7789h2.c **** void ST7789H2_DrawBitmap(uint16_t Xpos, uint16_t Ypos, uint8_t *pbmp)
 580:Drivers/BSP/Components/st7789h2/st7789h2.c **** {
 581:Drivers/BSP/Components/st7789h2/st7789h2.c ****   uint32_t index = 0, size = 0;
 582:Drivers/BSP/Components/st7789h2/st7789h2.c ****   uint32_t posY;
 583:Drivers/BSP/Components/st7789h2/st7789h2.c ****   uint32_t nb_line = 0;
ARM GAS  /var/folders/0z/tsy30v1j4xl4_7kw94k978ww0000gn/T//ccwsJdN3.s 			page 31


 584:Drivers/BSP/Components/st7789h2/st7789h2.c ****   uint16_t Xsize = WindowsXend - WindowsXstart + 1;
 585:Drivers/BSP/Components/st7789h2/st7789h2.c ****   uint16_t Ysize = WindowsYend - WindowsYstart + 1;
 586:Drivers/BSP/Components/st7789h2/st7789h2.c **** 
 587:Drivers/BSP/Components/st7789h2/st7789h2.c ****   /* Read bitmap size */
 588:Drivers/BSP/Components/st7789h2/st7789h2.c ****   size = *(volatile uint16_t *) (pbmp + 2);
 589:Drivers/BSP/Components/st7789h2/st7789h2.c ****   size |= (*(volatile uint16_t *) (pbmp + 4)) << 16;
 590:Drivers/BSP/Components/st7789h2/st7789h2.c ****   /* Get bitmap data address offset */
 591:Drivers/BSP/Components/st7789h2/st7789h2.c ****   index = *(volatile uint16_t *) (pbmp + 10);
 592:Drivers/BSP/Components/st7789h2/st7789h2.c ****   index |= (*(volatile uint16_t *) (pbmp + 12)) << 16;
 593:Drivers/BSP/Components/st7789h2/st7789h2.c ****   size = (size - index)/2;
 594:Drivers/BSP/Components/st7789h2/st7789h2.c ****   pbmp += index;
 595:Drivers/BSP/Components/st7789h2/st7789h2.c **** 
 596:Drivers/BSP/Components/st7789h2/st7789h2.c ****   for (posY = (Ypos + Ysize); posY > Ypos; posY--)  /* In BMP files the line order is inverted */
 597:Drivers/BSP/Components/st7789h2/st7789h2.c ****   {
 598:Drivers/BSP/Components/st7789h2/st7789h2.c ****     /* Set Cursor */
 599:Drivers/BSP/Components/st7789h2/st7789h2.c ****     ST7789H2_SetCursor(Xpos, posY - 1);
 600:Drivers/BSP/Components/st7789h2/st7789h2.c **** 
 601:Drivers/BSP/Components/st7789h2/st7789h2.c ****     /* Draw one line of the picture */
 602:Drivers/BSP/Components/st7789h2/st7789h2.c ****     ST7789H2_DrawRGBHLine(Xpos, posY - 1, Xsize, (pbmp + (nb_line * Xsize * 2)));
 603:Drivers/BSP/Components/st7789h2/st7789h2.c ****     nb_line++;
 604:Drivers/BSP/Components/st7789h2/st7789h2.c ****   }
 605:Drivers/BSP/Components/st7789h2/st7789h2.c **** }
 606:Drivers/BSP/Components/st7789h2/st7789h2.c **** 
 607:Drivers/BSP/Components/st7789h2/st7789h2.c **** /**
 608:Drivers/BSP/Components/st7789h2/st7789h2.c ****   * @brief  Displays picture.
 609:Drivers/BSP/Components/st7789h2/st7789h2.c ****   * @param  pdata: picture address.
 610:Drivers/BSP/Components/st7789h2/st7789h2.c ****   * @param  Xpos: Image X position in the LCD
 611:Drivers/BSP/Components/st7789h2/st7789h2.c ****   * @param  Ypos: Image Y position in the LCD
 612:Drivers/BSP/Components/st7789h2/st7789h2.c ****   * @param  Xsize: Image X size in the LCD
 613:Drivers/BSP/Components/st7789h2/st7789h2.c ****   * @param  Ysize: Image Y size in the LCD
 614:Drivers/BSP/Components/st7789h2/st7789h2.c ****   * @retval None
 615:Drivers/BSP/Components/st7789h2/st7789h2.c ****   */
 616:Drivers/BSP/Components/st7789h2/st7789h2.c **** void ST7789H2_DrawRGBImage(uint16_t Xpos, uint16_t Ypos, uint16_t Xsize, uint16_t Ysize, uint8_t *p
 617:Drivers/BSP/Components/st7789h2/st7789h2.c **** {
 618:Drivers/BSP/Components/st7789h2/st7789h2.c ****   uint32_t posY;
 619:Drivers/BSP/Components/st7789h2/st7789h2.c ****   uint32_t nb_line = 0;
 620:Drivers/BSP/Components/st7789h2/st7789h2.c **** 
 621:Drivers/BSP/Components/st7789h2/st7789h2.c ****   for (posY = Ypos; posY < (Ypos + Ysize); posY ++)
 622:Drivers/BSP/Components/st7789h2/st7789h2.c ****   {
 623:Drivers/BSP/Components/st7789h2/st7789h2.c ****     /* Set Cursor */
 624:Drivers/BSP/Components/st7789h2/st7789h2.c ****     ST7789H2_SetCursor(Xpos, posY);
 625:Drivers/BSP/Components/st7789h2/st7789h2.c **** 
 626:Drivers/BSP/Components/st7789h2/st7789h2.c ****     /* Draw one line of the picture */
 627:Drivers/BSP/Components/st7789h2/st7789h2.c ****     ST7789H2_DrawRGBHLine(Xpos, posY, Xsize, (pdata + (nb_line * Xsize * 2)));
 628:Drivers/BSP/Components/st7789h2/st7789h2.c ****     nb_line++;
 629:Drivers/BSP/Components/st7789h2/st7789h2.c ****   }
 630:Drivers/BSP/Components/st7789h2/st7789h2.c **** }
 631:Drivers/BSP/Components/st7789h2/st7789h2.c **** 
 632:Drivers/BSP/Components/st7789h2/st7789h2.c **** 
 633:Drivers/BSP/Components/st7789h2/st7789h2.c **** /******************************************************************************
 634:Drivers/BSP/Components/st7789h2/st7789h2.c ****                             Static Functions
 635:Drivers/BSP/Components/st7789h2/st7789h2.c **** *******************************************************************************/
 636:Drivers/BSP/Components/st7789h2/st7789h2.c **** 
 637:Drivers/BSP/Components/st7789h2/st7789h2.c **** /**
 638:Drivers/BSP/Components/st7789h2/st7789h2.c ****   * @brief  Read pixel from LCD RAM in RGB888 format
 639:Drivers/BSP/Components/st7789h2/st7789h2.c ****   * @param  Xpos: specifies the X position.
 640:Drivers/BSP/Components/st7789h2/st7789h2.c ****   * @param  Ypos: specifies the Y position.
ARM GAS  /var/folders/0z/tsy30v1j4xl4_7kw94k978ww0000gn/T//ccwsJdN3.s 			page 32


 641:Drivers/BSP/Components/st7789h2/st7789h2.c ****   * @retval Each RGB pixel color components in a structure
 642:Drivers/BSP/Components/st7789h2/st7789h2.c ****   */
 643:Drivers/BSP/Components/st7789h2/st7789h2.c **** static ST7789H2_Rgb888 ST7789H2_ReadPixel_rgb888(uint16_t Xpos, uint16_t Ypos)
 644:Drivers/BSP/Components/st7789h2/st7789h2.c **** {
 914              		.loc 1 644 1 is_stmt 1 view -0
 915              		.cfi_startproc
 916              		@ args = 0, pretend = 0, frame = 8
 917              		@ frame_needed = 0, uses_anonymous_args = 0
 918              		.loc 1 644 1 is_stmt 0 view .LVU270
 919 0000 10B5     		push	{r4, lr}
 920              		.cfi_def_cfa_offset 8
 921              		.cfi_offset 4, -8
 922              		.cfi_offset 14, -4
 923 0002 82B0     		sub	sp, sp, #8
 924              		.cfi_def_cfa_offset 16
 645:Drivers/BSP/Components/st7789h2/st7789h2.c ****   ST7789H2_Rgb888 rgb888;
 925              		.loc 1 645 3 is_stmt 1 view .LVU271
 646:Drivers/BSP/Components/st7789h2/st7789h2.c ****   uint16_t         rgb888_part1, rgb888_part2;
 926              		.loc 1 646 3 view .LVU272
 647:Drivers/BSP/Components/st7789h2/st7789h2.c **** 
 648:Drivers/BSP/Components/st7789h2/st7789h2.c ****   /* In LCD RAM, pixels are 24 bits packed and read with 16 bits access
 649:Drivers/BSP/Components/st7789h2/st7789h2.c ****    * Here is the pixels components arrangement in memory :
 650:Drivers/BSP/Components/st7789h2/st7789h2.c ****    *       bits:  15 14 13 12 11 10 09 08 | 07 06 05 04 03 02 01 00
 651:Drivers/BSP/Components/st7789h2/st7789h2.c ****    * address 0 :     red pixel 0    X  X  |   green pixel 0   X  X
 652:Drivers/BSP/Components/st7789h2/st7789h2.c ****    * address 1 :    blue pixel 0    X  X  |     red pixel 1   X  X
 653:Drivers/BSP/Components/st7789h2/st7789h2.c ****    * address 2 :   green pixel 1    X  X  |    blue pixel 1   X  X
 654:Drivers/BSP/Components/st7789h2/st7789h2.c ****    */
 655:Drivers/BSP/Components/st7789h2/st7789h2.c **** 
 656:Drivers/BSP/Components/st7789h2/st7789h2.c ****   /* Set Cursor */
 657:Drivers/BSP/Components/st7789h2/st7789h2.c ****   ST7789H2_SetCursor(Xpos, Ypos);
 927              		.loc 1 657 3 view .LVU273
 928 0004 FFF7FEFF 		bl	ST7789H2_SetCursor
 929              	.LVL61:
 658:Drivers/BSP/Components/st7789h2/st7789h2.c ****   /* Prepare to read LCD RAM */
 659:Drivers/BSP/Components/st7789h2/st7789h2.c ****   ST7789H2_WriteReg(ST7789H2_READ_RAM, (uint8_t*)NULL, 0);   /* RAM read data command */
 930              		.loc 1 659 3 view .LVU274
 931 0008 0022     		movs	r2, #0
 932 000a 1146     		mov	r1, r2
 933 000c 2E20     		movs	r0, #46
 934 000e FFF7FEFF 		bl	ST7789H2_WriteReg
 935              	.LVL62:
 660:Drivers/BSP/Components/st7789h2/st7789h2.c ****   /* Dummy read */
 661:Drivers/BSP/Components/st7789h2/st7789h2.c ****   LCD_IO_ReadData();
 936              		.loc 1 661 3 view .LVU275
 937 0012 FFF7FEFF 		bl	LCD_IO_ReadData
 938              	.LVL63:
 662:Drivers/BSP/Components/st7789h2/st7789h2.c ****   /* Read first part of the RGB888 data */
 663:Drivers/BSP/Components/st7789h2/st7789h2.c ****   rgb888_part1 = LCD_IO_ReadData();
 939              		.loc 1 663 3 view .LVU276
 940              		.loc 1 663 18 is_stmt 0 view .LVU277
 941 0016 FFF7FEFF 		bl	LCD_IO_ReadData
 942              	.LVL64:
 943 001a 0446     		mov	r4, r0
 944              	.LVL65:
 664:Drivers/BSP/Components/st7789h2/st7789h2.c ****   /* Read first part of the RGB888 data */
 665:Drivers/BSP/Components/st7789h2/st7789h2.c ****   rgb888_part2 = LCD_IO_ReadData();
 945              		.loc 1 665 3 is_stmt 1 view .LVU278
ARM GAS  /var/folders/0z/tsy30v1j4xl4_7kw94k978ww0000gn/T//ccwsJdN3.s 			page 33


 946              		.loc 1 665 18 is_stmt 0 view .LVU279
 947 001c FFF7FEFF 		bl	LCD_IO_ReadData
 948              	.LVL66:
 666:Drivers/BSP/Components/st7789h2/st7789h2.c **** 
 667:Drivers/BSP/Components/st7789h2/st7789h2.c ****   /* red component */
 668:Drivers/BSP/Components/st7789h2/st7789h2.c ****   rgb888.red   = (rgb888_part1 & 0xFC00) >> 8;
 949              		.loc 1 668 3 is_stmt 1 view .LVU280
 950              		.loc 1 668 42 is_stmt 0 view .LVU281
 951 0020 2312     		asrs	r3, r4, #8
 952 0022 03F0FC03 		and	r3, r3, #252
 953              		.loc 1 668 16 view .LVU282
 954 0026 8DF80030 		strb	r3, [sp]
 669:Drivers/BSP/Components/st7789h2/st7789h2.c ****   /* green component */
 670:Drivers/BSP/Components/st7789h2/st7789h2.c ****   rgb888.green = (rgb888_part1 & 0x00FC) >> 0;
 955              		.loc 1 670 3 is_stmt 1 view .LVU283
 956              		.loc 1 670 42 is_stmt 0 view .LVU284
 957 002a 04F0FC04 		and	r4, r4, #252
 958              	.LVL67:
 959              		.loc 1 670 16 view .LVU285
 960 002e 8DF80140 		strb	r4, [sp, #1]
 671:Drivers/BSP/Components/st7789h2/st7789h2.c ****   /* blue component */
 672:Drivers/BSP/Components/st7789h2/st7789h2.c ****   rgb888.blue  = (rgb888_part2 & 0xFC00) >> 8;
 961              		.loc 1 672 3 is_stmt 1 view .LVU286
 962              		.loc 1 672 42 is_stmt 0 view .LVU287
 963 0032 0012     		asrs	r0, r0, #8
 964              	.LVL68:
 965              		.loc 1 672 42 view .LVU288
 966 0034 00F0FC00 		and	r0, r0, #252
 967              		.loc 1 672 16 view .LVU289
 968 0038 8DF80200 		strb	r0, [sp, #2]
 673:Drivers/BSP/Components/st7789h2/st7789h2.c **** 
 674:Drivers/BSP/Components/st7789h2/st7789h2.c ****   return rgb888;
 969              		.loc 1 674 3 is_stmt 1 view .LVU290
 970              		.loc 1 674 10 is_stmt 0 view .LVU291
 971 003c 009B     		ldr	r3, [sp]
 972 003e ADF80430 		strh	r3, [sp, #4]	@ movhi
 973 0042 1B0C     		lsrs	r3, r3, #16
 974 0044 8DF80630 		strb	r3, [sp, #6]
 975 0048 0020     		movs	r0, #0
 976 004a 9DF80430 		ldrb	r3, [sp, #4]	@ zero_extendqisi2
 977 004e 63F30700 		bfi	r0, r3, #0, #8
 978 0052 9DF80530 		ldrb	r3, [sp, #5]	@ zero_extendqisi2
 979 0056 63F30F20 		bfi	r0, r3, #8, #8
 980 005a 9DF80630 		ldrb	r3, [sp, #6]	@ zero_extendqisi2
 981 005e 63F31740 		bfi	r0, r3, #16, #8
 675:Drivers/BSP/Components/st7789h2/st7789h2.c **** }
 982              		.loc 1 675 1 view .LVU292
 983 0062 02B0     		add	sp, sp, #8
 984              		.cfi_def_cfa_offset 8
 985              		@ sp needed
 986 0064 10BD     		pop	{r4, pc}
 987              		.cfi_endproc
 988              	.LFE20:
 990              		.section	.text.ST7789H2_ReadPixel,"ax",%progbits
 991              		.align	1
 992              		.global	ST7789H2_ReadPixel
 993              		.syntax unified
ARM GAS  /var/folders/0z/tsy30v1j4xl4_7kw94k978ww0000gn/T//ccwsJdN3.s 			page 34


 994              		.thumb
 995              		.thumb_func
 997              	ST7789H2_ReadPixel:
 998              	.LVL69:
 999              	.LFB12:
 416:Drivers/BSP/Components/st7789h2/st7789h2.c ****   ST7789H2_Rgb888 rgb888;
 1000              		.loc 1 416 1 is_stmt 1 view -0
 1001              		.cfi_startproc
 1002              		@ args = 0, pretend = 0, frame = 8
 1003              		@ frame_needed = 0, uses_anonymous_args = 0
 416:Drivers/BSP/Components/st7789h2/st7789h2.c ****   ST7789H2_Rgb888 rgb888;
 1004              		.loc 1 416 1 is_stmt 0 view .LVU294
 1005 0000 30B5     		push	{r4, r5, lr}
 1006              		.cfi_def_cfa_offset 12
 1007              		.cfi_offset 4, -12
 1008              		.cfi_offset 5, -8
 1009              		.cfi_offset 14, -4
 1010 0002 83B0     		sub	sp, sp, #12
 1011              		.cfi_def_cfa_offset 24
 1012 0004 0446     		mov	r4, r0
 1013 0006 0D46     		mov	r5, r1
 417:Drivers/BSP/Components/st7789h2/st7789h2.c ****   uint8_t          r, g, b;
 1014              		.loc 1 417 3 is_stmt 1 view .LVU295
 418:Drivers/BSP/Components/st7789h2/st7789h2.c ****   uint16_t         rgb565;
 1015              		.loc 1 418 3 view .LVU296
 419:Drivers/BSP/Components/st7789h2/st7789h2.c **** 
 1016              		.loc 1 419 3 view .LVU297
 422:Drivers/BSP/Components/st7789h2/st7789h2.c ****   
 1017              		.loc 1 422 3 view .LVU298
 1018 0008 FFF7FEFF 		bl	ST7789H2_SetCursor
 1019              	.LVL70:
 425:Drivers/BSP/Components/st7789h2/st7789h2.c ****   
 1020              		.loc 1 425 3 view .LVU299
 425:Drivers/BSP/Components/st7789h2/st7789h2.c ****   
 1021              		.loc 1 425 12 is_stmt 0 view .LVU300
 1022 000c 2946     		mov	r1, r5
 1023 000e 2046     		mov	r0, r4
 1024 0010 FFF7FEFF 		bl	ST7789H2_ReadPixel_rgb888
 1025              	.LVL71:
 1026 0014 8DF80400 		strb	r0, [sp, #4]
 1027 0018 C0F30723 		ubfx	r3, r0, #8, #8
 1028 001c 8DF80530 		strb	r3, [sp, #5]
 1029 0020 C0F30740 		ubfx	r0, r0, #16, #8
 1030 0024 8DF80600 		strb	r0, [sp, #6]
 428:Drivers/BSP/Components/st7789h2/st7789h2.c ****   g = ((rgb888.green & 0xFC) >> 2);  /* Extract the green component 6 most significant bits */
 1031              		.loc 1 428 3 is_stmt 1 view .LVU301
 428:Drivers/BSP/Components/st7789h2/st7789h2.c ****   g = ((rgb888.green & 0xFC) >> 2);  /* Extract the green component 6 most significant bits */
 1032              		.loc 1 428 15 is_stmt 0 view .LVU302
 1033 0028 9DF80430 		ldrb	r3, [sp, #4]	@ zero_extendqisi2
 428:Drivers/BSP/Components/st7789h2/st7789h2.c ****   g = ((rgb888.green & 0xFC) >> 2);  /* Extract the green component 6 most significant bits */
 1034              		.loc 1 428 5 view .LVU303
 1035 002c DB08     		lsrs	r3, r3, #3
 1036              	.LVL72:
 429:Drivers/BSP/Components/st7789h2/st7789h2.c ****   b = ((rgb888.blue & 0xF8) >> 3);   /* Extract the blue component 5 most significant bits */
 1037              		.loc 1 429 3 is_stmt 1 view .LVU304
 429:Drivers/BSP/Components/st7789h2/st7789h2.c ****   b = ((rgb888.blue & 0xF8) >> 3);   /* Extract the blue component 5 most significant bits */
 1038              		.loc 1 429 15 is_stmt 0 view .LVU305
ARM GAS  /var/folders/0z/tsy30v1j4xl4_7kw94k978ww0000gn/T//ccwsJdN3.s 			page 35


 1039 002e 9DF80500 		ldrb	r0, [sp, #5]	@ zero_extendqisi2
 429:Drivers/BSP/Components/st7789h2/st7789h2.c ****   b = ((rgb888.blue & 0xF8) >> 3);   /* Extract the blue component 5 most significant bits */
 1040              		.loc 1 429 5 view .LVU306
 1041 0032 8008     		lsrs	r0, r0, #2
 1042              	.LVL73:
 430:Drivers/BSP/Components/st7789h2/st7789h2.c **** 
 1043              		.loc 1 430 3 is_stmt 1 view .LVU307
 430:Drivers/BSP/Components/st7789h2/st7789h2.c **** 
 1044              		.loc 1 430 15 is_stmt 0 view .LVU308
 1045 0034 9DF80620 		ldrb	r2, [sp, #6]	@ zero_extendqisi2
 1046              	.LVL74:
 432:Drivers/BSP/Components/st7789h2/st7789h2.c ****   
 1047              		.loc 1 432 3 is_stmt 1 view .LVU309
 432:Drivers/BSP/Components/st7789h2/st7789h2.c ****   
 1048              		.loc 1 432 51 is_stmt 0 view .LVU310
 1049 0038 4001     		lsls	r0, r0, #5
 1050              	.LVL75:
 432:Drivers/BSP/Components/st7789h2/st7789h2.c ****   
 1051              		.loc 1 432 34 view .LVU311
 1052 003a 00EBC320 		add	r0, r0, r3, lsl #11
 1053 003e 80B2     		uxth	r0, r0
 432:Drivers/BSP/Components/st7789h2/st7789h2.c ****   
 1054              		.loc 1 432 10 view .LVU312
 1055 0040 00EBD200 		add	r0, r0, r2, lsr #3
 1056              	.LVL76:
 434:Drivers/BSP/Components/st7789h2/st7789h2.c **** }
 1057              		.loc 1 434 3 is_stmt 1 view .LVU313
 435:Drivers/BSP/Components/st7789h2/st7789h2.c **** 
 1058              		.loc 1 435 1 is_stmt 0 view .LVU314
 1059 0044 80B2     		uxth	r0, r0
 435:Drivers/BSP/Components/st7789h2/st7789h2.c **** 
 1060              		.loc 1 435 1 view .LVU315
 1061 0046 03B0     		add	sp, sp, #12
 1062              		.cfi_def_cfa_offset 12
 1063              		@ sp needed
 1064 0048 30BD     		pop	{r4, r5, pc}
 435:Drivers/BSP/Components/st7789h2/st7789h2.c **** 
 1065              		.loc 1 435 1 view .LVU316
 1066              		.cfi_endproc
 1067              	.LFE12:
 1069              		.section	.text.ST7789H2_DrawHLine,"ax",%progbits
 1070              		.align	1
 1071              		.global	ST7789H2_DrawHLine
 1072              		.syntax unified
 1073              		.thumb
 1074              		.thumb_func
 1076              	ST7789H2_DrawHLine:
 1077              	.LVL77:
 1078              	.LFB16:
 531:Drivers/BSP/Components/st7789h2/st7789h2.c ****   uint16_t counter = 0;
 1079              		.loc 1 531 1 is_stmt 1 view -0
 1080              		.cfi_startproc
 1081              		@ args = 0, pretend = 0, frame = 0
 1082              		@ frame_needed = 0, uses_anonymous_args = 0
 531:Drivers/BSP/Components/st7789h2/st7789h2.c ****   uint16_t counter = 0;
 1083              		.loc 1 531 1 is_stmt 0 view .LVU318
 1084 0000 70B5     		push	{r4, r5, r6, lr}
ARM GAS  /var/folders/0z/tsy30v1j4xl4_7kw94k978ww0000gn/T//ccwsJdN3.s 			page 36


 1085              		.cfi_def_cfa_offset 16
 1086              		.cfi_offset 4, -16
 1087              		.cfi_offset 5, -12
 1088              		.cfi_offset 6, -8
 1089              		.cfi_offset 14, -4
 1090 0002 0646     		mov	r6, r0
 1091 0004 0846     		mov	r0, r1
 1092              	.LVL78:
 531:Drivers/BSP/Components/st7789h2/st7789h2.c ****   uint16_t counter = 0;
 1093              		.loc 1 531 1 view .LVU319
 1094 0006 1D46     		mov	r5, r3
 532:Drivers/BSP/Components/st7789h2/st7789h2.c ****   
 1095              		.loc 1 532 3 is_stmt 1 view .LVU320
 1096              	.LVL79:
 535:Drivers/BSP/Components/st7789h2/st7789h2.c ****   
 1097              		.loc 1 535 3 view .LVU321
 1098 0008 1146     		mov	r1, r2
 1099              	.LVL80:
 535:Drivers/BSP/Components/st7789h2/st7789h2.c ****   
 1100              		.loc 1 535 3 is_stmt 0 view .LVU322
 1101 000a FFF7FEFF 		bl	ST7789H2_SetCursor
 1102              	.LVL81:
 538:Drivers/BSP/Components/st7789h2/st7789h2.c ****   
 1103              		.loc 1 538 3 is_stmt 1 view .LVU323
 1104 000e 0022     		movs	r2, #0
 1105 0010 1146     		mov	r1, r2
 1106 0012 2C20     		movs	r0, #44
 1107 0014 FFF7FEFF 		bl	ST7789H2_WriteReg
 1108              	.LVL82:
 541:Drivers/BSP/Components/st7789h2/st7789h2.c ****   {
 1109              		.loc 1 541 3 view .LVU324
 541:Drivers/BSP/Components/st7789h2/st7789h2.c ****   {
 1110              		.loc 1 541 15 is_stmt 0 view .LVU325
 1111 0018 0024     		movs	r4, #0
 541:Drivers/BSP/Components/st7789h2/st7789h2.c ****   {
 1112              		.loc 1 541 3 view .LVU326
 1113 001a 04E0     		b	.L41
 1114              	.LVL83:
 1115              	.L42:
 543:Drivers/BSP/Components/st7789h2/st7789h2.c ****   }  
 1116              		.loc 1 543 5 is_stmt 1 discriminator 3 view .LVU327
 1117 001c 3046     		mov	r0, r6
 1118 001e FFF7FEFF 		bl	LCD_IO_WriteData
 1119              	.LVL84:
 541:Drivers/BSP/Components/st7789h2/st7789h2.c ****   {
 1120              		.loc 1 541 45 discriminator 3 view .LVU328
 1121 0022 0134     		adds	r4, r4, #1
 1122              	.LVL85:
 541:Drivers/BSP/Components/st7789h2/st7789h2.c ****   {
 1123              		.loc 1 541 45 is_stmt 0 discriminator 3 view .LVU329
 1124 0024 A4B2     		uxth	r4, r4
 1125              	.LVL86:
 1126              	.L41:
 541:Drivers/BSP/Components/st7789h2/st7789h2.c ****   {
 1127              		.loc 1 541 28 is_stmt 1 discriminator 1 view .LVU330
 1128 0026 AC42     		cmp	r4, r5
 1129 0028 F8D3     		bcc	.L42
ARM GAS  /var/folders/0z/tsy30v1j4xl4_7kw94k978ww0000gn/T//ccwsJdN3.s 			page 37


 545:Drivers/BSP/Components/st7789h2/st7789h2.c **** 
 1130              		.loc 1 545 1 is_stmt 0 view .LVU331
 1131 002a 70BD     		pop	{r4, r5, r6, pc}
 545:Drivers/BSP/Components/st7789h2/st7789h2.c **** 
 1132              		.loc 1 545 1 view .LVU332
 1133              		.cfi_endproc
 1134              	.LFE16:
 1136              		.section	.text.ST7789H2_DrawVLine,"ax",%progbits
 1137              		.align	1
 1138              		.global	ST7789H2_DrawVLine
 1139              		.syntax unified
 1140              		.thumb
 1141              		.thumb_func
 1143              	ST7789H2_DrawVLine:
 1144              	.LVL87:
 1145              	.LFB17:
 556:Drivers/BSP/Components/st7789h2/st7789h2.c ****   uint16_t counter = 0;
 1146              		.loc 1 556 1 is_stmt 1 view -0
 1147              		.cfi_startproc
 1148              		@ args = 0, pretend = 0, frame = 0
 1149              		@ frame_needed = 0, uses_anonymous_args = 0
 556:Drivers/BSP/Components/st7789h2/st7789h2.c ****   uint16_t counter = 0;
 1150              		.loc 1 556 1 is_stmt 0 view .LVU334
 1151 0000 2DE9F041 		push	{r4, r5, r6, r7, r8, lr}
 1152              		.cfi_def_cfa_offset 24
 1153              		.cfi_offset 4, -24
 1154              		.cfi_offset 5, -20
 1155              		.cfi_offset 6, -16
 1156              		.cfi_offset 7, -12
 1157              		.cfi_offset 8, -8
 1158              		.cfi_offset 14, -4
 1159 0004 8046     		mov	r8, r0
 1160 0006 0D46     		mov	r5, r1
 1161 0008 1646     		mov	r6, r2
 1162 000a 1F46     		mov	r7, r3
 557:Drivers/BSP/Components/st7789h2/st7789h2.c **** 
 1163              		.loc 1 557 3 is_stmt 1 view .LVU335
 1164              	.LVL88:
 560:Drivers/BSP/Components/st7789h2/st7789h2.c ****   
 1165              		.loc 1 560 3 view .LVU336
 1166 000c 1146     		mov	r1, r2
 1167              	.LVL89:
 560:Drivers/BSP/Components/st7789h2/st7789h2.c ****   
 1168              		.loc 1 560 3 is_stmt 0 view .LVU337
 1169 000e 2846     		mov	r0, r5
 1170              	.LVL90:
 560:Drivers/BSP/Components/st7789h2/st7789h2.c ****   
 1171              		.loc 1 560 3 view .LVU338
 1172 0010 FFF7FEFF 		bl	ST7789H2_SetCursor
 1173              	.LVL91:
 563:Drivers/BSP/Components/st7789h2/st7789h2.c **** 
 1174              		.loc 1 563 3 is_stmt 1 view .LVU339
 1175 0014 0022     		movs	r2, #0
 1176 0016 1146     		mov	r1, r2
 1177 0018 2C20     		movs	r0, #44
 1178 001a FFF7FEFF 		bl	ST7789H2_WriteReg
 1179              	.LVL92:
ARM GAS  /var/folders/0z/tsy30v1j4xl4_7kw94k978ww0000gn/T//ccwsJdN3.s 			page 38


 566:Drivers/BSP/Components/st7789h2/st7789h2.c ****   {
 1180              		.loc 1 566 3 view .LVU340
 566:Drivers/BSP/Components/st7789h2/st7789h2.c ****   {
 1181              		.loc 1 566 15 is_stmt 0 view .LVU341
 1182 001e 0024     		movs	r4, #0
 566:Drivers/BSP/Components/st7789h2/st7789h2.c ****   {
 1183              		.loc 1 566 3 view .LVU342
 1184 0020 07E0     		b	.L45
 1185              	.LVL93:
 1186              	.L46:
 568:Drivers/BSP/Components/st7789h2/st7789h2.c ****   }
 1187              		.loc 1 568 5 is_stmt 1 discriminator 3 view .LVU343
 1188 0022 A119     		adds	r1, r4, r6
 1189 0024 4246     		mov	r2, r8
 1190 0026 89B2     		uxth	r1, r1
 1191 0028 2846     		mov	r0, r5
 1192 002a FFF7FEFF 		bl	ST7789H2_WritePixel
 1193              	.LVL94:
 566:Drivers/BSP/Components/st7789h2/st7789h2.c ****   {
 1194              		.loc 1 566 45 discriminator 3 view .LVU344
 1195 002e 0134     		adds	r4, r4, #1
 1196              	.LVL95:
 566:Drivers/BSP/Components/st7789h2/st7789h2.c ****   {
 1197              		.loc 1 566 45 is_stmt 0 discriminator 3 view .LVU345
 1198 0030 A4B2     		uxth	r4, r4
 1199              	.LVL96:
 1200              	.L45:
 566:Drivers/BSP/Components/st7789h2/st7789h2.c ****   {
 1201              		.loc 1 566 28 is_stmt 1 discriminator 1 view .LVU346
 1202 0032 BC42     		cmp	r4, r7
 1203 0034 F5D3     		bcc	.L46
 570:Drivers/BSP/Components/st7789h2/st7789h2.c **** 
 1204              		.loc 1 570 1 is_stmt 0 view .LVU347
 1205 0036 BDE8F081 		pop	{r4, r5, r6, r7, r8, pc}
 570:Drivers/BSP/Components/st7789h2/st7789h2.c **** 
 1206              		.loc 1 570 1 view .LVU348
 1207              		.cfi_endproc
 1208              	.LFE17:
 1210              		.section	.text.ST7789H2_DrawRGBHLine,"ax",%progbits
 1211              		.align	1
 1212              		.syntax unified
 1213              		.thumb
 1214              		.thumb_func
 1216              	ST7789H2_DrawRGBHLine:
 1217              	.LVL97:
 1218              	.LFB21:
 676:Drivers/BSP/Components/st7789h2/st7789h2.c **** 
 677:Drivers/BSP/Components/st7789h2/st7789h2.c **** 
 678:Drivers/BSP/Components/st7789h2/st7789h2.c **** /**
 679:Drivers/BSP/Components/st7789h2/st7789h2.c ****   * @brief  Displays a single picture line.
 680:Drivers/BSP/Components/st7789h2/st7789h2.c ****   * @param  pdata: picture address.
 681:Drivers/BSP/Components/st7789h2/st7789h2.c ****   * @param  Xpos: Image X position in the LCD
 682:Drivers/BSP/Components/st7789h2/st7789h2.c ****   * @param  Ypos: Image Y position in the LCD
 683:Drivers/BSP/Components/st7789h2/st7789h2.c ****   * @param  Xsize: Image X size in the LCD
 684:Drivers/BSP/Components/st7789h2/st7789h2.c ****   * @retval None
 685:Drivers/BSP/Components/st7789h2/st7789h2.c ****   */
 686:Drivers/BSP/Components/st7789h2/st7789h2.c **** static void ST7789H2_DrawRGBHLine(uint16_t Xpos, uint16_t Ypos, uint16_t Xsize, uint8_t *pdata)
ARM GAS  /var/folders/0z/tsy30v1j4xl4_7kw94k978ww0000gn/T//ccwsJdN3.s 			page 39


 687:Drivers/BSP/Components/st7789h2/st7789h2.c **** {
 1219              		.loc 1 687 1 is_stmt 1 view -0
 1220              		.cfi_startproc
 1221              		@ args = 0, pretend = 0, frame = 0
 1222              		@ frame_needed = 0, uses_anonymous_args = 0
 1223              		.loc 1 687 1 is_stmt 0 view .LVU350
 1224 0000 2DE9F843 		push	{r3, r4, r5, r6, r7, r8, r9, lr}
 1225              		.cfi_def_cfa_offset 32
 1226              		.cfi_offset 3, -32
 1227              		.cfi_offset 4, -28
 1228              		.cfi_offset 5, -24
 1229              		.cfi_offset 6, -20
 1230              		.cfi_offset 7, -16
 1231              		.cfi_offset 8, -12
 1232              		.cfi_offset 9, -8
 1233              		.cfi_offset 14, -4
 1234 0004 0546     		mov	r5, r0
 1235 0006 0F46     		mov	r7, r1
 1236 0008 1646     		mov	r6, r2
 1237 000a 9846     		mov	r8, r3
 688:Drivers/BSP/Components/st7789h2/st7789h2.c ****   uint32_t i = 0;
 1238              		.loc 1 688 3 is_stmt 1 view .LVU351
 1239              	.LVL98:
 689:Drivers/BSP/Components/st7789h2/st7789h2.c ****   uint32_t posX;
 1240              		.loc 1 689 3 view .LVU352
 690:Drivers/BSP/Components/st7789h2/st7789h2.c ****   uint16_t *rgb565 = (uint16_t*)pdata;
 1241              		.loc 1 690 3 view .LVU353
 691:Drivers/BSP/Components/st7789h2/st7789h2.c ****   
 692:Drivers/BSP/Components/st7789h2/st7789h2.c ****   /* Prepare to write to LCD RAM */
 693:Drivers/BSP/Components/st7789h2/st7789h2.c ****   ST7789H2_WriteReg(ST7789H2_WRITE_RAM, (uint8_t*)NULL, 0);   /* RAM write data command */
 1242              		.loc 1 693 3 view .LVU354
 1243 000c 0022     		movs	r2, #0
 1244              	.LVL99:
 1245              		.loc 1 693 3 is_stmt 0 view .LVU355
 1246 000e 1146     		mov	r1, r2
 1247              	.LVL100:
 1248              		.loc 1 693 3 view .LVU356
 1249 0010 2C20     		movs	r0, #44
 1250              	.LVL101:
 1251              		.loc 1 693 3 view .LVU357
 1252 0012 FFF7FEFF 		bl	ST7789H2_WriteReg
 1253              	.LVL102:
 694:Drivers/BSP/Components/st7789h2/st7789h2.c ****   
 695:Drivers/BSP/Components/st7789h2/st7789h2.c ****   for (posX = Xpos; posX < (Xsize + Xpos); posX++)
 1254              		.loc 1 695 3 is_stmt 1 view .LVU358
 1255              		.loc 1 695 13 is_stmt 0 view .LVU359
 1256 0016 2C46     		mov	r4, r5
 1257              	.LVL103:
 688:Drivers/BSP/Components/st7789h2/st7789h2.c ****   uint32_t posX;
 1258              		.loc 1 688 12 view .LVU360
 1259 0018 4FF00009 		mov	r9, #0
 1260              		.loc 1 695 3 view .LVU361
 1261 001c 02E0     		b	.L49
 1262              	.LVL104:
 1263              	.L51:
 696:Drivers/BSP/Components/st7789h2/st7789h2.c ****   {
 697:Drivers/BSP/Components/st7789h2/st7789h2.c ****     if ((posX >= WindowsXstart) && (Ypos >= WindowsYstart) &&     /* Check we are in the defined wi
ARM GAS  /var/folders/0z/tsy30v1j4xl4_7kw94k978ww0000gn/T//ccwsJdN3.s 			page 40


 698:Drivers/BSP/Components/st7789h2/st7789h2.c ****         (posX <= WindowsXend) && (Ypos <= WindowsYend))
 699:Drivers/BSP/Components/st7789h2/st7789h2.c ****     {
 700:Drivers/BSP/Components/st7789h2/st7789h2.c ****       if (posX != (Xsize + Xpos))     /* When writing last pixel when size is odd, the third part i
 701:Drivers/BSP/Components/st7789h2/st7789h2.c ****       {
 702:Drivers/BSP/Components/st7789h2/st7789h2.c ****         LCD_IO_WriteData(rgb565[i]);        
 703:Drivers/BSP/Components/st7789h2/st7789h2.c ****       }      
 704:Drivers/BSP/Components/st7789h2/st7789h2.c ****       i++;
 1264              		.loc 1 704 7 is_stmt 1 view .LVU362
 1265              		.loc 1 704 8 is_stmt 0 view .LVU363
 1266 001e 09F10109 		add	r9, r9, #1
 1267              	.LVL105:
 1268              	.L50:
 695:Drivers/BSP/Components/st7789h2/st7789h2.c ****   {
 1269              		.loc 1 695 48 is_stmt 1 discriminator 2 view .LVU364
 1270 0022 0134     		adds	r4, r4, #1
 1271              	.LVL106:
 1272              	.L49:
 695:Drivers/BSP/Components/st7789h2/st7789h2.c ****   {
 1273              		.loc 1 695 26 discriminator 1 view .LVU365
 695:Drivers/BSP/Components/st7789h2/st7789h2.c ****   {
 1274              		.loc 1 695 35 is_stmt 0 discriminator 1 view .LVU366
 1275 0024 06EB050C 		add	ip, r6, r5
 695:Drivers/BSP/Components/st7789h2/st7789h2.c ****   {
 1276              		.loc 1 695 26 discriminator 1 view .LVU367
 1277 0028 A445     		cmp	ip, r4
 1278 002a 17D9     		bls	.L54
 697:Drivers/BSP/Components/st7789h2/st7789h2.c ****         (posX <= WindowsXend) && (Ypos <= WindowsYend))
 1279              		.loc 1 697 5 is_stmt 1 view .LVU368
 697:Drivers/BSP/Components/st7789h2/st7789h2.c ****         (posX <= WindowsXend) && (Ypos <= WindowsYend))
 1280              		.loc 1 697 15 is_stmt 0 view .LVU369
 1281 002c 0C4B     		ldr	r3, .L55
 1282 002e B3F800E0 		ldrh	lr, [r3]
 697:Drivers/BSP/Components/st7789h2/st7789h2.c ****         (posX <= WindowsXend) && (Ypos <= WindowsYend))
 1283              		.loc 1 697 8 view .LVU370
 1284 0032 A645     		cmp	lr, r4
 1285 0034 F5D8     		bhi	.L50
 697:Drivers/BSP/Components/st7789h2/st7789h2.c ****         (posX <= WindowsXend) && (Ypos <= WindowsYend))
 1286              		.loc 1 697 42 discriminator 1 view .LVU371
 1287 0036 0B4B     		ldr	r3, .L55+4
 1288 0038 1B88     		ldrh	r3, [r3]
 697:Drivers/BSP/Components/st7789h2/st7789h2.c ****         (posX <= WindowsXend) && (Ypos <= WindowsYend))
 1289              		.loc 1 697 33 discriminator 1 view .LVU372
 1290 003a BB42     		cmp	r3, r7
 1291 003c F1D8     		bhi	.L50
 698:Drivers/BSP/Components/st7789h2/st7789h2.c ****     {
 1292              		.loc 1 698 15 discriminator 2 view .LVU373
 1293 003e 0A4B     		ldr	r3, .L55+8
 1294 0040 1B88     		ldrh	r3, [r3]
 697:Drivers/BSP/Components/st7789h2/st7789h2.c ****         (posX <= WindowsXend) && (Ypos <= WindowsYend))
 1295              		.loc 1 697 60 discriminator 2 view .LVU374
 1296 0042 A342     		cmp	r3, r4
 1297 0044 EDD3     		bcc	.L50
 698:Drivers/BSP/Components/st7789h2/st7789h2.c ****     {
 1298              		.loc 1 698 40 view .LVU375
 1299 0046 094B     		ldr	r3, .L55+12
 1300 0048 1B88     		ldrh	r3, [r3]
 698:Drivers/BSP/Components/st7789h2/st7789h2.c ****     {
ARM GAS  /var/folders/0z/tsy30v1j4xl4_7kw94k978ww0000gn/T//ccwsJdN3.s 			page 41


 1301              		.loc 1 698 31 view .LVU376
 1302 004a BB42     		cmp	r3, r7
 1303 004c E9D3     		bcc	.L50
 700:Drivers/BSP/Components/st7789h2/st7789h2.c ****       {
 1304              		.loc 1 700 7 is_stmt 1 view .LVU377
 700:Drivers/BSP/Components/st7789h2/st7789h2.c ****       {
 1305              		.loc 1 700 10 is_stmt 0 view .LVU378
 1306 004e 6445     		cmp	r4, ip
 1307 0050 E5D0     		beq	.L51
 702:Drivers/BSP/Components/st7789h2/st7789h2.c ****       }      
 1308              		.loc 1 702 9 is_stmt 1 view .LVU379
 1309 0052 38F81900 		ldrh	r0, [r8, r9, lsl #1]
 1310 0056 FFF7FEFF 		bl	LCD_IO_WriteData
 1311              	.LVL107:
 1312 005a E0E7     		b	.L51
 1313              	.L54:
 705:Drivers/BSP/Components/st7789h2/st7789h2.c ****     }
 706:Drivers/BSP/Components/st7789h2/st7789h2.c ****   }
 707:Drivers/BSP/Components/st7789h2/st7789h2.c **** }
 1314              		.loc 1 707 1 is_stmt 0 view .LVU380
 1315 005c BDE8F883 		pop	{r3, r4, r5, r6, r7, r8, r9, pc}
 1316              	.LVL108:
 1317              	.L56:
 1318              		.loc 1 707 1 view .LVU381
 1319              		.align	2
 1320              	.L55:
 1321 0060 00000000 		.word	.LANCHOR0
 1322 0064 00000000 		.word	.LANCHOR1
 1323 0068 00000000 		.word	.LANCHOR2
 1324 006c 00000000 		.word	.LANCHOR3
 1325              		.cfi_endproc
 1326              	.LFE21:
 1328              		.section	.text.ST7789H2_DrawBitmap,"ax",%progbits
 1329              		.align	1
 1330              		.global	ST7789H2_DrawBitmap
 1331              		.syntax unified
 1332              		.thumb
 1333              		.thumb_func
 1335              	ST7789H2_DrawBitmap:
 1336              	.LVL109:
 1337              	.LFB18:
 580:Drivers/BSP/Components/st7789h2/st7789h2.c ****   uint32_t index = 0, size = 0;
 1338              		.loc 1 580 1 is_stmt 1 view -0
 1339              		.cfi_startproc
 1340              		@ args = 0, pretend = 0, frame = 0
 1341              		@ frame_needed = 0, uses_anonymous_args = 0
 580:Drivers/BSP/Components/st7789h2/st7789h2.c ****   uint32_t index = 0, size = 0;
 1342              		.loc 1 580 1 is_stmt 0 view .LVU383
 1343 0000 2DE9F84F 		push	{r3, r4, r5, r6, r7, r8, r9, r10, fp, lr}
 1344              		.cfi_def_cfa_offset 40
 1345              		.cfi_offset 3, -40
 1346              		.cfi_offset 4, -36
 1347              		.cfi_offset 5, -32
 1348              		.cfi_offset 6, -28
 1349              		.cfi_offset 7, -24
 1350              		.cfi_offset 8, -20
 1351              		.cfi_offset 9, -16
ARM GAS  /var/folders/0z/tsy30v1j4xl4_7kw94k978ww0000gn/T//ccwsJdN3.s 			page 42


 1352              		.cfi_offset 10, -12
 1353              		.cfi_offset 11, -8
 1354              		.cfi_offset 14, -4
 1355 0004 8046     		mov	r8, r0
 1356 0006 8A46     		mov	r10, r1
 1357 0008 9146     		mov	r9, r2
 581:Drivers/BSP/Components/st7789h2/st7789h2.c ****   uint32_t posY;
 1358              		.loc 1 581 3 is_stmt 1 view .LVU384
 1359              	.LVL110:
 582:Drivers/BSP/Components/st7789h2/st7789h2.c ****   uint32_t nb_line = 0;
 1360              		.loc 1 582 3 view .LVU385
 583:Drivers/BSP/Components/st7789h2/st7789h2.c ****   uint16_t Xsize = WindowsXend - WindowsXstart + 1;
 1361              		.loc 1 583 3 view .LVU386
 584:Drivers/BSP/Components/st7789h2/st7789h2.c ****   uint16_t Ysize = WindowsYend - WindowsYstart + 1;
 1362              		.loc 1 584 3 view .LVU387
 584:Drivers/BSP/Components/st7789h2/st7789h2.c ****   uint16_t Ysize = WindowsYend - WindowsYstart + 1;
 1363              		.loc 1 584 32 is_stmt 0 view .LVU388
 1364 000a 194B     		ldr	r3, .L61
 1365 000c 1F88     		ldrh	r7, [r3]
 1366 000e 194B     		ldr	r3, .L61+4
 1367 0010 1B88     		ldrh	r3, [r3]
 1368 0012 FF1A     		subs	r7, r7, r3
 1369 0014 BFB2     		uxth	r7, r7
 584:Drivers/BSP/Components/st7789h2/st7789h2.c ****   uint16_t Ysize = WindowsYend - WindowsYstart + 1;
 1370              		.loc 1 584 12 view .LVU389
 1371 0016 0137     		adds	r7, r7, #1
 1372 0018 BFB2     		uxth	r7, r7
 1373              	.LVL111:
 585:Drivers/BSP/Components/st7789h2/st7789h2.c **** 
 1374              		.loc 1 585 3 is_stmt 1 view .LVU390
 585:Drivers/BSP/Components/st7789h2/st7789h2.c **** 
 1375              		.loc 1 585 32 is_stmt 0 view .LVU391
 1376 001a 174B     		ldr	r3, .L61+8
 1377 001c 1C88     		ldrh	r4, [r3]
 1378 001e 174B     		ldr	r3, .L61+12
 1379 0020 1B88     		ldrh	r3, [r3]
 1380 0022 E41A     		subs	r4, r4, r3
 1381 0024 A4B2     		uxth	r4, r4
 585:Drivers/BSP/Components/st7789h2/st7789h2.c **** 
 1382              		.loc 1 585 12 view .LVU392
 1383 0026 0134     		adds	r4, r4, #1
 1384              	.LVL112:
 588:Drivers/BSP/Components/st7789h2/st7789h2.c ****   size |= (*(volatile uint16_t *) (pbmp + 4)) << 16;
 1385              		.loc 1 588 3 is_stmt 1 view .LVU393
 588:Drivers/BSP/Components/st7789h2/st7789h2.c ****   size |= (*(volatile uint16_t *) (pbmp + 4)) << 16;
 1386              		.loc 1 588 10 is_stmt 0 view .LVU394
 1387 0028 5388     		ldrh	r3, [r2, #2]
 1388              	.LVL113:
 589:Drivers/BSP/Components/st7789h2/st7789h2.c ****   /* Get bitmap data address offset */
 1389              		.loc 1 589 3 is_stmt 1 view .LVU395
 589:Drivers/BSP/Components/st7789h2/st7789h2.c ****   /* Get bitmap data address offset */
 1390              		.loc 1 589 12 is_stmt 0 view .LVU396
 1391 002a 9388     		ldrh	r3, [r2, #4]
 591:Drivers/BSP/Components/st7789h2/st7789h2.c ****   index |= (*(volatile uint16_t *) (pbmp + 12)) << 16;
 1392              		.loc 1 591 3 is_stmt 1 view .LVU397
 591:Drivers/BSP/Components/st7789h2/st7789h2.c ****   index |= (*(volatile uint16_t *) (pbmp + 12)) << 16;
 1393              		.loc 1 591 11 is_stmt 0 view .LVU398
ARM GAS  /var/folders/0z/tsy30v1j4xl4_7kw94k978ww0000gn/T//ccwsJdN3.s 			page 43


 1394 002c B2F80AB0 		ldrh	fp, [r2, #10]
 1395 0030 1FFA8BFB 		uxth	fp, fp
 1396              	.LVL114:
 592:Drivers/BSP/Components/st7789h2/st7789h2.c ****   size = (size - index)/2;
 1397              		.loc 1 592 3 is_stmt 1 view .LVU399
 592:Drivers/BSP/Components/st7789h2/st7789h2.c ****   size = (size - index)/2;
 1398              		.loc 1 592 13 is_stmt 0 view .LVU400
 1399 0034 9389     		ldrh	r3, [r2, #12]
 592:Drivers/BSP/Components/st7789h2/st7789h2.c ****   size = (size - index)/2;
 1400              		.loc 1 592 9 view .LVU401
 1401 0036 4BEA034B 		orr	fp, fp, r3, lsl #16
 1402              	.LVL115:
 593:Drivers/BSP/Components/st7789h2/st7789h2.c ****   pbmp += index;
 1403              		.loc 1 593 3 is_stmt 1 view .LVU402
 594:Drivers/BSP/Components/st7789h2/st7789h2.c **** 
 1404              		.loc 1 594 3 view .LVU403
 596:Drivers/BSP/Components/st7789h2/st7789h2.c ****   {
 1405              		.loc 1 596 3 view .LVU404
 596:Drivers/BSP/Components/st7789h2/st7789h2.c ****   {
 1406              		.loc 1 596 21 is_stmt 0 view .LVU405
 1407 003a 11FA84F4 		uxtah	r4, r1, r4
 1408              	.LVL116:
 583:Drivers/BSP/Components/st7789h2/st7789h2.c ****   uint16_t Xsize = WindowsXend - WindowsXstart + 1;
 1409              		.loc 1 583 12 view .LVU406
 1410 003e 0026     		movs	r6, #0
 596:Drivers/BSP/Components/st7789h2/st7789h2.c ****   {
 1411              		.loc 1 596 3 view .LVU407
 1412 0040 11E0     		b	.L58
 1413              	.LVL117:
 1414              	.L59:
 599:Drivers/BSP/Components/st7789h2/st7789h2.c **** 
 1415              		.loc 1 599 5 is_stmt 1 discriminator 3 view .LVU408
 1416 0042 651E     		subs	r5, r4, #1
 1417 0044 ADB2     		uxth	r5, r5
 1418 0046 2946     		mov	r1, r5
 1419 0048 4046     		mov	r0, r8
 1420 004a FFF7FEFF 		bl	ST7789H2_SetCursor
 1421              	.LVL118:
 602:Drivers/BSP/Components/st7789h2/st7789h2.c ****     nb_line++;
 1422              		.loc 1 602 5 discriminator 3 view .LVU409
 602:Drivers/BSP/Components/st7789h2/st7789h2.c ****     nb_line++;
 1423              		.loc 1 602 67 is_stmt 0 discriminator 3 view .LVU410
 1424 004e 06FB07F3 		mul	r3, r6, r7
 602:Drivers/BSP/Components/st7789h2/st7789h2.c ****     nb_line++;
 1425              		.loc 1 602 5 discriminator 3 view .LVU411
 1426 0052 0BEB4303 		add	r3, fp, r3, lsl #1
 1427 0056 4B44     		add	r3, r3, r9
 1428 0058 3A46     		mov	r2, r7
 1429 005a 2946     		mov	r1, r5
 1430 005c 4046     		mov	r0, r8
 1431 005e FFF7FEFF 		bl	ST7789H2_DrawRGBHLine
 1432              	.LVL119:
 603:Drivers/BSP/Components/st7789h2/st7789h2.c ****   }
 1433              		.loc 1 603 5 is_stmt 1 discriminator 3 view .LVU412
 603:Drivers/BSP/Components/st7789h2/st7789h2.c ****   }
 1434              		.loc 1 603 12 is_stmt 0 discriminator 3 view .LVU413
 1435 0062 0136     		adds	r6, r6, #1
ARM GAS  /var/folders/0z/tsy30v1j4xl4_7kw94k978ww0000gn/T//ccwsJdN3.s 			page 44


 1436              	.LVL120:
 596:Drivers/BSP/Components/st7789h2/st7789h2.c ****   {
 1437              		.loc 1 596 48 is_stmt 1 discriminator 3 view .LVU414
 1438 0064 013C     		subs	r4, r4, #1
 1439              	.LVL121:
 1440              	.L58:
 596:Drivers/BSP/Components/st7789h2/st7789h2.c ****   {
 1441              		.loc 1 596 36 discriminator 1 view .LVU415
 1442 0066 A245     		cmp	r10, r4
 1443 0068 EBD3     		bcc	.L59
 605:Drivers/BSP/Components/st7789h2/st7789h2.c **** 
 1444              		.loc 1 605 1 is_stmt 0 view .LVU416
 1445 006a BDE8F88F 		pop	{r3, r4, r5, r6, r7, r8, r9, r10, fp, pc}
 1446              	.LVL122:
 1447              	.L62:
 605:Drivers/BSP/Components/st7789h2/st7789h2.c **** 
 1448              		.loc 1 605 1 view .LVU417
 1449 006e 00BF     		.align	2
 1450              	.L61:
 1451 0070 00000000 		.word	.LANCHOR2
 1452 0074 00000000 		.word	.LANCHOR0
 1453 0078 00000000 		.word	.LANCHOR3
 1454 007c 00000000 		.word	.LANCHOR1
 1455              		.cfi_endproc
 1456              	.LFE18:
 1458              		.section	.text.ST7789H2_DrawRGBImage,"ax",%progbits
 1459              		.align	1
 1460              		.global	ST7789H2_DrawRGBImage
 1461              		.syntax unified
 1462              		.thumb
 1463              		.thumb_func
 1465              	ST7789H2_DrawRGBImage:
 1466              	.LVL123:
 1467              	.LFB19:
 617:Drivers/BSP/Components/st7789h2/st7789h2.c ****   uint32_t posY;
 1468              		.loc 1 617 1 is_stmt 1 view -0
 1469              		.cfi_startproc
 1470              		@ args = 4, pretend = 0, frame = 0
 1471              		@ frame_needed = 0, uses_anonymous_args = 0
 617:Drivers/BSP/Components/st7789h2/st7789h2.c ****   uint32_t posY;
 1472              		.loc 1 617 1 is_stmt 0 view .LVU419
 1473 0000 2DE9F84F 		push	{r3, r4, r5, r6, r7, r8, r9, r10, fp, lr}
 1474              		.cfi_def_cfa_offset 40
 1475              		.cfi_offset 3, -40
 1476              		.cfi_offset 4, -36
 1477              		.cfi_offset 5, -32
 1478              		.cfi_offset 6, -28
 1479              		.cfi_offset 7, -24
 1480              		.cfi_offset 8, -20
 1481              		.cfi_offset 9, -16
 1482              		.cfi_offset 10, -12
 1483              		.cfi_offset 11, -8
 1484              		.cfi_offset 14, -4
 1485 0004 8046     		mov	r8, r0
 1486 0006 8946     		mov	r9, r1
 1487 0008 1746     		mov	r7, r2
 1488 000a 9A46     		mov	r10, r3
ARM GAS  /var/folders/0z/tsy30v1j4xl4_7kw94k978ww0000gn/T//ccwsJdN3.s 			page 45


 1489 000c DDF828B0 		ldr	fp, [sp, #40]
 618:Drivers/BSP/Components/st7789h2/st7789h2.c ****   uint32_t nb_line = 0;
 1490              		.loc 1 618 3 is_stmt 1 view .LVU420
 619:Drivers/BSP/Components/st7789h2/st7789h2.c **** 
 1491              		.loc 1 619 3 view .LVU421
 1492              	.LVL124:
 621:Drivers/BSP/Components/st7789h2/st7789h2.c ****   {
 1493              		.loc 1 621 3 view .LVU422
 621:Drivers/BSP/Components/st7789h2/st7789h2.c ****   {
 1494              		.loc 1 621 13 is_stmt 0 view .LVU423
 1495 0010 0C46     		mov	r4, r1
 1496              	.LVL125:
 619:Drivers/BSP/Components/st7789h2/st7789h2.c **** 
 1497              		.loc 1 619 12 view .LVU424
 1498 0012 0025     		movs	r5, #0
 621:Drivers/BSP/Components/st7789h2/st7789h2.c ****   {
 1499              		.loc 1 621 3 view .LVU425
 1500 0014 0FE0     		b	.L64
 1501              	.LVL126:
 1502              	.L65:
 624:Drivers/BSP/Components/st7789h2/st7789h2.c **** 
 1503              		.loc 1 624 5 is_stmt 1 discriminator 3 view .LVU426
 1504 0016 A6B2     		uxth	r6, r4
 1505 0018 3146     		mov	r1, r6
 1506 001a 4046     		mov	r0, r8
 1507 001c FFF7FEFF 		bl	ST7789H2_SetCursor
 1508              	.LVL127:
 627:Drivers/BSP/Components/st7789h2/st7789h2.c ****     nb_line++;
 1509              		.loc 1 627 5 discriminator 3 view .LVU427
 627:Drivers/BSP/Components/st7789h2/st7789h2.c ****     nb_line++;
 1510              		.loc 1 627 64 is_stmt 0 discriminator 3 view .LVU428
 1511 0020 05FB07F3 		mul	r3, r5, r7
 627:Drivers/BSP/Components/st7789h2/st7789h2.c ****     nb_line++;
 1512              		.loc 1 627 5 discriminator 3 view .LVU429
 1513 0024 0BEB4303 		add	r3, fp, r3, lsl #1
 1514 0028 3A46     		mov	r2, r7
 1515 002a 3146     		mov	r1, r6
 1516 002c 4046     		mov	r0, r8
 1517 002e FFF7FEFF 		bl	ST7789H2_DrawRGBHLine
 1518              	.LVL128:
 628:Drivers/BSP/Components/st7789h2/st7789h2.c ****   }
 1519              		.loc 1 628 5 is_stmt 1 discriminator 3 view .LVU430
 628:Drivers/BSP/Components/st7789h2/st7789h2.c ****   }
 1520              		.loc 1 628 12 is_stmt 0 discriminator 3 view .LVU431
 1521 0032 0135     		adds	r5, r5, #1
 1522              	.LVL129:
 621:Drivers/BSP/Components/st7789h2/st7789h2.c ****   {
 1523              		.loc 1 621 49 is_stmt 1 discriminator 3 view .LVU432
 1524 0034 0134     		adds	r4, r4, #1
 1525              	.LVL130:
 1526              	.L64:
 621:Drivers/BSP/Components/st7789h2/st7789h2.c ****   {
 1527              		.loc 1 621 26 discriminator 1 view .LVU433
 621:Drivers/BSP/Components/st7789h2/st7789h2.c ****   {
 1528              		.loc 1 621 34 is_stmt 0 discriminator 1 view .LVU434
 1529 0036 09EB0A03 		add	r3, r9, r10
 621:Drivers/BSP/Components/st7789h2/st7789h2.c ****   {
ARM GAS  /var/folders/0z/tsy30v1j4xl4_7kw94k978ww0000gn/T//ccwsJdN3.s 			page 46


 1530              		.loc 1 621 26 discriminator 1 view .LVU435
 1531 003a A342     		cmp	r3, r4
 1532 003c EBD8     		bhi	.L65
 630:Drivers/BSP/Components/st7789h2/st7789h2.c **** 
 1533              		.loc 1 630 1 view .LVU436
 1534 003e BDE8F88F 		pop	{r3, r4, r5, r6, r7, r8, r9, r10, fp, pc}
 630:Drivers/BSP/Components/st7789h2/st7789h2.c **** 
 1535              		.loc 1 630 1 view .LVU437
 1536              		.cfi_endproc
 1537              	.LFE19:
 1539              		.section	.text.ST7789H2_ReadReg,"ax",%progbits
 1540              		.align	1
 1541              		.global	ST7789H2_ReadReg
 1542              		.syntax unified
 1543              		.thumb
 1544              		.thumb_func
 1546              	ST7789H2_ReadReg:
 1547              	.LVL131:
 1548              	.LFB14:
 464:Drivers/BSP/Components/st7789h2/st7789h2.c ****   /* Send command */
 1549              		.loc 1 464 1 is_stmt 1 view -0
 1550              		.cfi_startproc
 1551              		@ args = 0, pretend = 0, frame = 0
 1552              		@ frame_needed = 0, uses_anonymous_args = 0
 464:Drivers/BSP/Components/st7789h2/st7789h2.c ****   /* Send command */
 1553              		.loc 1 464 1 is_stmt 0 view .LVU439
 1554 0000 08B5     		push	{r3, lr}
 1555              		.cfi_def_cfa_offset 8
 1556              		.cfi_offset 3, -8
 1557              		.cfi_offset 14, -4
 466:Drivers/BSP/Components/st7789h2/st7789h2.c **** 
 1558              		.loc 1 466 3 is_stmt 1 view .LVU440
 1559 0002 FFF7FEFF 		bl	LCD_IO_WriteReg
 1560              	.LVL132:
 469:Drivers/BSP/Components/st7789h2/st7789h2.c ****   
 1561              		.loc 1 469 3 view .LVU441
 1562 0006 FFF7FEFF 		bl	LCD_IO_ReadData
 1563              	.LVL133:
 472:Drivers/BSP/Components/st7789h2/st7789h2.c **** }
 1564              		.loc 1 472 3 view .LVU442
 472:Drivers/BSP/Components/st7789h2/st7789h2.c **** }
 1565              		.loc 1 472 11 is_stmt 0 view .LVU443
 1566 000a FFF7FEFF 		bl	LCD_IO_ReadData
 1567              	.LVL134:
 473:Drivers/BSP/Components/st7789h2/st7789h2.c **** 
 1568              		.loc 1 473 1 view .LVU444
 1569 000e C0B2     		uxtb	r0, r0
 1570 0010 08BD     		pop	{r3, pc}
 1571              		.cfi_endproc
 1572              	.LFE14:
 1574              		.section	.text.ST7789H2_ReadID,"ax",%progbits
 1575              		.align	1
 1576              		.global	ST7789H2_ReadID
 1577              		.syntax unified
 1578              		.thumb
 1579              		.thumb_func
 1581              	ST7789H2_ReadID:
ARM GAS  /var/folders/0z/tsy30v1j4xl4_7kw94k978ww0000gn/T//ccwsJdN3.s 			page 47


 1582              	.LFB9:
 361:Drivers/BSP/Components/st7789h2/st7789h2.c ****   LCD_IO_Init();
 1583              		.loc 1 361 1 is_stmt 1 view -0
 1584              		.cfi_startproc
 1585              		@ args = 0, pretend = 0, frame = 0
 1586              		@ frame_needed = 0, uses_anonymous_args = 0
 1587 0000 08B5     		push	{r3, lr}
 1588              		.cfi_def_cfa_offset 8
 1589              		.cfi_offset 3, -8
 1590              		.cfi_offset 14, -4
 362:Drivers/BSP/Components/st7789h2/st7789h2.c ****   
 1591              		.loc 1 362 3 view .LVU446
 1592 0002 FFF7FEFF 		bl	LCD_IO_Init
 1593              	.LVL135:
 364:Drivers/BSP/Components/st7789h2/st7789h2.c **** }
 1594              		.loc 1 364 3 view .LVU447
 364:Drivers/BSP/Components/st7789h2/st7789h2.c **** }
 1595              		.loc 1 364 10 is_stmt 0 view .LVU448
 1596 0006 0420     		movs	r0, #4
 1597 0008 FFF7FEFF 		bl	ST7789H2_ReadReg
 1598              	.LVL136:
 365:Drivers/BSP/Components/st7789h2/st7789h2.c **** 
 1599              		.loc 1 365 1 view .LVU449
 1600 000c 80B2     		uxth	r0, r0
 1601 000e 08BD     		pop	{r3, pc}
 1602              		.cfi_endproc
 1603              	.LFE9:
 1605              		.global	ST7789H2_drv
 1606              		.section	.bss.WindowsXstart,"aw",%nobits
 1607              		.align	1
 1608              		.set	.LANCHOR0,. + 0
 1611              	WindowsXstart:
 1612 0000 0000     		.space	2
 1613              		.section	.bss.WindowsYstart,"aw",%nobits
 1614              		.align	1
 1615              		.set	.LANCHOR1,. + 0
 1618              	WindowsYstart:
 1619 0000 0000     		.space	2
 1620              		.section	.data.ST7789H2_drv,"aw"
 1621              		.align	2
 1624              	ST7789H2_drv:
 1625 0000 00000000 		.word	ST7789H2_Init
 1626 0004 00000000 		.word	ST7789H2_ReadID
 1627 0008 00000000 		.word	ST7789H2_DisplayOn
 1628 000c 00000000 		.word	ST7789H2_DisplayOff
 1629 0010 00000000 		.word	ST7789H2_SetCursor
 1630 0014 00000000 		.word	ST7789H2_WritePixel
 1631 0018 00000000 		.word	ST7789H2_ReadPixel
 1632 001c 00000000 		.word	ST7789H2_SetDisplayWindow
 1633 0020 00000000 		.word	ST7789H2_DrawHLine
 1634 0024 00000000 		.word	ST7789H2_DrawVLine
 1635 0028 00000000 		.word	ST7789H2_GetLcdPixelWidth
 1636 002c 00000000 		.word	ST7789H2_GetLcdPixelHeight
 1637 0030 00000000 		.word	ST7789H2_DrawBitmap
 1638 0034 00000000 		.word	ST7789H2_DrawRGBImage
 1639              		.section	.data.WindowsXend,"aw"
 1640              		.align	1
ARM GAS  /var/folders/0z/tsy30v1j4xl4_7kw94k978ww0000gn/T//ccwsJdN3.s 			page 48


 1641              		.set	.LANCHOR2,. + 0
 1644              	WindowsXend:
 1645 0000 EF00     		.short	239
 1646              		.section	.data.WindowsYend,"aw"
 1647              		.align	1
 1648              		.set	.LANCHOR3,. + 0
 1651              	WindowsYend:
 1652 0000 EF00     		.short	239
 1653              		.text
 1654              	.Letext0:
 1655              		.file 2 "/Users/johannes/Library/Application Support/Code/User/globalStorage/bmd.stm32-for-vscode/
 1656              		.file 3 "/Users/johannes/Library/Application Support/Code/User/globalStorage/bmd.stm32-for-vscode/
 1657              		.file 4 "Drivers/BSP/Components/st7789h2/../Common/lcd.h"
 1658              		.file 5 "Drivers/BSP/Components/st7789h2/st7789h2.h"
ARM GAS  /var/folders/0z/tsy30v1j4xl4_7kw94k978ww0000gn/T//ccwsJdN3.s 			page 49


DEFINED SYMBOLS
                            *ABS*:0000000000000000 st7789h2.c
/var/folders/0z/tsy30v1j4xl4_7kw94k978ww0000gn/T//ccwsJdN3.s:20     .text.ST7789H2_GetLcdPixelWidth:0000000000000000 $t
/var/folders/0z/tsy30v1j4xl4_7kw94k978ww0000gn/T//ccwsJdN3.s:26     .text.ST7789H2_GetLcdPixelWidth:0000000000000000 ST7789H2_GetLcdPixelWidth
/var/folders/0z/tsy30v1j4xl4_7kw94k978ww0000gn/T//ccwsJdN3.s:42     .text.ST7789H2_GetLcdPixelHeight:0000000000000000 $t
/var/folders/0z/tsy30v1j4xl4_7kw94k978ww0000gn/T//ccwsJdN3.s:48     .text.ST7789H2_GetLcdPixelHeight:0000000000000000 ST7789H2_GetLcdPixelHeight
/var/folders/0z/tsy30v1j4xl4_7kw94k978ww0000gn/T//ccwsJdN3.s:63     .text.ST7789H2_SetDisplayWindow:0000000000000000 $t
/var/folders/0z/tsy30v1j4xl4_7kw94k978ww0000gn/T//ccwsJdN3.s:69     .text.ST7789H2_SetDisplayWindow:0000000000000000 ST7789H2_SetDisplayWindow
/var/folders/0z/tsy30v1j4xl4_7kw94k978ww0000gn/T//ccwsJdN3.s:181    .text.ST7789H2_SetDisplayWindow:0000000000000064 $d
/var/folders/0z/tsy30v1j4xl4_7kw94k978ww0000gn/T//ccwsJdN3.s:189    .text.ST7789H2_WriteReg:0000000000000000 $t
/var/folders/0z/tsy30v1j4xl4_7kw94k978ww0000gn/T//ccwsJdN3.s:195    .text.ST7789H2_WriteReg:0000000000000000 ST7789H2_WriteReg
/var/folders/0z/tsy30v1j4xl4_7kw94k978ww0000gn/T//ccwsJdN3.s:243    .text.ST7789H2_SetOrientation:0000000000000000 $t
/var/folders/0z/tsy30v1j4xl4_7kw94k978ww0000gn/T//ccwsJdN3.s:249    .text.ST7789H2_SetOrientation:0000000000000000 ST7789H2_SetOrientation
/var/folders/0z/tsy30v1j4xl4_7kw94k978ww0000gn/T//ccwsJdN3.s:350    .text.ST7789H2_DisplayOn:0000000000000000 $t
/var/folders/0z/tsy30v1j4xl4_7kw94k978ww0000gn/T//ccwsJdN3.s:356    .text.ST7789H2_DisplayOn:0000000000000000 ST7789H2_DisplayOn
/var/folders/0z/tsy30v1j4xl4_7kw94k978ww0000gn/T//ccwsJdN3.s:384    .text.ST7789H2_Init:0000000000000000 $t
/var/folders/0z/tsy30v1j4xl4_7kw94k978ww0000gn/T//ccwsJdN3.s:390    .text.ST7789H2_Init:0000000000000000 ST7789H2_Init
/var/folders/0z/tsy30v1j4xl4_7kw94k978ww0000gn/T//ccwsJdN3.s:742    .text.ST7789H2_DisplayOff:0000000000000000 $t
/var/folders/0z/tsy30v1j4xl4_7kw94k978ww0000gn/T//ccwsJdN3.s:748    .text.ST7789H2_DisplayOff:0000000000000000 ST7789H2_DisplayOff
/var/folders/0z/tsy30v1j4xl4_7kw94k978ww0000gn/T//ccwsJdN3.s:789    .text.ST7789H2_SetCursor:0000000000000000 $t
/var/folders/0z/tsy30v1j4xl4_7kw94k978ww0000gn/T//ccwsJdN3.s:795    .text.ST7789H2_SetCursor:0000000000000000 ST7789H2_SetCursor
/var/folders/0z/tsy30v1j4xl4_7kw94k978ww0000gn/T//ccwsJdN3.s:868    .text.ST7789H2_WritePixel:0000000000000000 $t
/var/folders/0z/tsy30v1j4xl4_7kw94k978ww0000gn/T//ccwsJdN3.s:874    .text.ST7789H2_WritePixel:0000000000000000 ST7789H2_WritePixel
/var/folders/0z/tsy30v1j4xl4_7kw94k978ww0000gn/T//ccwsJdN3.s:906    .text.ST7789H2_ReadPixel_rgb888:0000000000000000 $t
/var/folders/0z/tsy30v1j4xl4_7kw94k978ww0000gn/T//ccwsJdN3.s:911    .text.ST7789H2_ReadPixel_rgb888:0000000000000000 ST7789H2_ReadPixel_rgb888
/var/folders/0z/tsy30v1j4xl4_7kw94k978ww0000gn/T//ccwsJdN3.s:991    .text.ST7789H2_ReadPixel:0000000000000000 $t
/var/folders/0z/tsy30v1j4xl4_7kw94k978ww0000gn/T//ccwsJdN3.s:997    .text.ST7789H2_ReadPixel:0000000000000000 ST7789H2_ReadPixel
/var/folders/0z/tsy30v1j4xl4_7kw94k978ww0000gn/T//ccwsJdN3.s:1070   .text.ST7789H2_DrawHLine:0000000000000000 $t
/var/folders/0z/tsy30v1j4xl4_7kw94k978ww0000gn/T//ccwsJdN3.s:1076   .text.ST7789H2_DrawHLine:0000000000000000 ST7789H2_DrawHLine
/var/folders/0z/tsy30v1j4xl4_7kw94k978ww0000gn/T//ccwsJdN3.s:1137   .text.ST7789H2_DrawVLine:0000000000000000 $t
/var/folders/0z/tsy30v1j4xl4_7kw94k978ww0000gn/T//ccwsJdN3.s:1143   .text.ST7789H2_DrawVLine:0000000000000000 ST7789H2_DrawVLine
/var/folders/0z/tsy30v1j4xl4_7kw94k978ww0000gn/T//ccwsJdN3.s:1211   .text.ST7789H2_DrawRGBHLine:0000000000000000 $t
/var/folders/0z/tsy30v1j4xl4_7kw94k978ww0000gn/T//ccwsJdN3.s:1216   .text.ST7789H2_DrawRGBHLine:0000000000000000 ST7789H2_DrawRGBHLine
/var/folders/0z/tsy30v1j4xl4_7kw94k978ww0000gn/T//ccwsJdN3.s:1321   .text.ST7789H2_DrawRGBHLine:0000000000000060 $d
/var/folders/0z/tsy30v1j4xl4_7kw94k978ww0000gn/T//ccwsJdN3.s:1329   .text.ST7789H2_DrawBitmap:0000000000000000 $t
/var/folders/0z/tsy30v1j4xl4_7kw94k978ww0000gn/T//ccwsJdN3.s:1335   .text.ST7789H2_DrawBitmap:0000000000000000 ST7789H2_DrawBitmap
/var/folders/0z/tsy30v1j4xl4_7kw94k978ww0000gn/T//ccwsJdN3.s:1451   .text.ST7789H2_DrawBitmap:0000000000000070 $d
/var/folders/0z/tsy30v1j4xl4_7kw94k978ww0000gn/T//ccwsJdN3.s:1459   .text.ST7789H2_DrawRGBImage:0000000000000000 $t
/var/folders/0z/tsy30v1j4xl4_7kw94k978ww0000gn/T//ccwsJdN3.s:1465   .text.ST7789H2_DrawRGBImage:0000000000000000 ST7789H2_DrawRGBImage
/var/folders/0z/tsy30v1j4xl4_7kw94k978ww0000gn/T//ccwsJdN3.s:1540   .text.ST7789H2_ReadReg:0000000000000000 $t
/var/folders/0z/tsy30v1j4xl4_7kw94k978ww0000gn/T//ccwsJdN3.s:1546   .text.ST7789H2_ReadReg:0000000000000000 ST7789H2_ReadReg
/var/folders/0z/tsy30v1j4xl4_7kw94k978ww0000gn/T//ccwsJdN3.s:1575   .text.ST7789H2_ReadID:0000000000000000 $t
/var/folders/0z/tsy30v1j4xl4_7kw94k978ww0000gn/T//ccwsJdN3.s:1581   .text.ST7789H2_ReadID:0000000000000000 ST7789H2_ReadID
/var/folders/0z/tsy30v1j4xl4_7kw94k978ww0000gn/T//ccwsJdN3.s:1624   .data.ST7789H2_drv:0000000000000000 ST7789H2_drv
/var/folders/0z/tsy30v1j4xl4_7kw94k978ww0000gn/T//ccwsJdN3.s:1607   .bss.WindowsXstart:0000000000000000 $d
/var/folders/0z/tsy30v1j4xl4_7kw94k978ww0000gn/T//ccwsJdN3.s:1611   .bss.WindowsXstart:0000000000000000 WindowsXstart
/var/folders/0z/tsy30v1j4xl4_7kw94k978ww0000gn/T//ccwsJdN3.s:1614   .bss.WindowsYstart:0000000000000000 $d
/var/folders/0z/tsy30v1j4xl4_7kw94k978ww0000gn/T//ccwsJdN3.s:1618   .bss.WindowsYstart:0000000000000000 WindowsYstart
/var/folders/0z/tsy30v1j4xl4_7kw94k978ww0000gn/T//ccwsJdN3.s:1621   .data.ST7789H2_drv:0000000000000000 $d
/var/folders/0z/tsy30v1j4xl4_7kw94k978ww0000gn/T//ccwsJdN3.s:1640   .data.WindowsXend:0000000000000000 $d
/var/folders/0z/tsy30v1j4xl4_7kw94k978ww0000gn/T//ccwsJdN3.s:1644   .data.WindowsXend:0000000000000000 WindowsXend
/var/folders/0z/tsy30v1j4xl4_7kw94k978ww0000gn/T//ccwsJdN3.s:1647   .data.WindowsYend:0000000000000000 $d
/var/folders/0z/tsy30v1j4xl4_7kw94k978ww0000gn/T//ccwsJdN3.s:1651   .data.WindowsYend:0000000000000000 WindowsYend

UNDEFINED SYMBOLS
LCD_IO_WriteReg
LCD_IO_WriteData
ARM GAS  /var/folders/0z/tsy30v1j4xl4_7kw94k978ww0000gn/T//ccwsJdN3.s 			page 50


LCD_IO_Init
LCD_IO_Delay
LCD_IO_ReadData
