ARM GAS  /var/folders/0z/tsy30v1j4xl4_7kw94k978ww0000gn/T//ccK4WGjk.s 			page 1


   1              		.cpu cortex-m4
   2              		.arch armv7e-m
   3              		.fpu fpv4-sp-d16
   4              		.eabi_attribute 27, 1
   5              		.eabi_attribute 28, 1
   6              		.eabi_attribute 20, 1
   7              		.eabi_attribute 21, 1
   8              		.eabi_attribute 23, 3
   9              		.eabi_attribute 24, 1
  10              		.eabi_attribute 25, 1
  11              		.eabi_attribute 26, 1
  12              		.eabi_attribute 30, 2
  13              		.eabi_attribute 34, 1
  14              		.eabi_attribute 18, 4
  15              		.file	"st7735.c"
  16              		.text
  17              	.Ltext0:
  18              		.cfi_sections	.debug_frame
  19              		.section	.text.st7735_GetLcdPixelWidth,"ax",%progbits
  20              		.align	1
  21              		.p2align 2,,3
  22              		.global	st7735_GetLcdPixelWidth
  23              		.syntax unified
  24              		.thumb
  25              		.thumb_func
  27              	st7735_GetLcdPixelWidth:
  28              	.LFB9:
  29              		.file 1 "Drivers/BSP/Components/st7735/st7735.c"
   1:Drivers/BSP/Components/st7735/st7735.c **** /**
   2:Drivers/BSP/Components/st7735/st7735.c ****   ******************************************************************************
   3:Drivers/BSP/Components/st7735/st7735.c ****   * @file    st7735.c
   4:Drivers/BSP/Components/st7735/st7735.c ****   * @author  MCD Application Team
   5:Drivers/BSP/Components/st7735/st7735.c ****   * @version V1.1.1
   6:Drivers/BSP/Components/st7735/st7735.c ****   * @date    24-November-2014
   7:Drivers/BSP/Components/st7735/st7735.c ****   * @brief   This file includes the driver for ST7735 LCD mounted on the Adafruit
   8:Drivers/BSP/Components/st7735/st7735.c ****   *          1.8" TFT LCD shield (reference ID 802).
   9:Drivers/BSP/Components/st7735/st7735.c ****   ******************************************************************************
  10:Drivers/BSP/Components/st7735/st7735.c ****   * @attention
  11:Drivers/BSP/Components/st7735/st7735.c ****   *
  12:Drivers/BSP/Components/st7735/st7735.c ****   * <h2><center>&copy; COPYRIGHT(c) 2014 STMicroelectronics</center></h2>
  13:Drivers/BSP/Components/st7735/st7735.c ****   *
  14:Drivers/BSP/Components/st7735/st7735.c ****   * Redistribution and use in source and binary forms, with or without modification,
  15:Drivers/BSP/Components/st7735/st7735.c ****   * are permitted provided that the following conditions are met:
  16:Drivers/BSP/Components/st7735/st7735.c ****   *   1. Redistributions of source code must retain the above copyright notice,
  17:Drivers/BSP/Components/st7735/st7735.c ****   *      this list of conditions and the following disclaimer.
  18:Drivers/BSP/Components/st7735/st7735.c ****   *   2. Redistributions in binary form must reproduce the above copyright notice,
  19:Drivers/BSP/Components/st7735/st7735.c ****   *      this list of conditions and the following disclaimer in the documentation
  20:Drivers/BSP/Components/st7735/st7735.c ****   *      and/or other materials provided with the distribution.
  21:Drivers/BSP/Components/st7735/st7735.c ****   *   3. Neither the name of STMicroelectronics nor the names of its contributors
  22:Drivers/BSP/Components/st7735/st7735.c ****   *      may be used to endorse or promote products derived from this software
  23:Drivers/BSP/Components/st7735/st7735.c ****   *      without specific prior written permission.
  24:Drivers/BSP/Components/st7735/st7735.c ****   *
  25:Drivers/BSP/Components/st7735/st7735.c ****   * THIS SOFTWARE IS PROVIDED BY THE COPYRIGHT HOLDERS AND CONTRIBUTORS "AS IS"
  26:Drivers/BSP/Components/st7735/st7735.c ****   * AND ANY EXPRESS OR IMPLIED WARRANTIES, INCLUDING, BUT NOT LIMITED TO, THE
  27:Drivers/BSP/Components/st7735/st7735.c ****   * IMPLIED WARRANTIES OF MERCHANTABILITY AND FITNESS FOR A PARTICULAR PURPOSE ARE
  28:Drivers/BSP/Components/st7735/st7735.c ****   * DISCLAIMED. IN NO EVENT SHALL THE COPYRIGHT HOLDER OR CONTRIBUTORS BE LIABLE
  29:Drivers/BSP/Components/st7735/st7735.c ****   * FOR ANY DIRECT, INDIRECT, INCIDENTAL, SPECIAL, EXEMPLARY, OR CONSEQUENTIAL
ARM GAS  /var/folders/0z/tsy30v1j4xl4_7kw94k978ww0000gn/T//ccK4WGjk.s 			page 2


  30:Drivers/BSP/Components/st7735/st7735.c ****   * DAMAGES (INCLUDING, BUT NOT LIMITED TO, PROCUREMENT OF SUBSTITUTE GOODS OR
  31:Drivers/BSP/Components/st7735/st7735.c ****   * SERVICES; LOSS OF USE, DATA, OR PROFITS; OR BUSINESS INTERRUPTION) HOWEVER
  32:Drivers/BSP/Components/st7735/st7735.c ****   * CAUSED AND ON ANY THEORY OF LIABILITY, WHETHER IN CONTRACT, STRICT LIABILITY,
  33:Drivers/BSP/Components/st7735/st7735.c ****   * OR TORT (INCLUDING NEGLIGENCE OR OTHERWISE) ARISING IN ANY WAY OUT OF THE USE
  34:Drivers/BSP/Components/st7735/st7735.c ****   * OF THIS SOFTWARE, EVEN IF ADVISED OF THE POSSIBILITY OF SUCH DAMAGE.
  35:Drivers/BSP/Components/st7735/st7735.c ****   *
  36:Drivers/BSP/Components/st7735/st7735.c ****   ******************************************************************************
  37:Drivers/BSP/Components/st7735/st7735.c ****   */
  38:Drivers/BSP/Components/st7735/st7735.c **** 
  39:Drivers/BSP/Components/st7735/st7735.c **** /* Includes ------------------------------------------------------------------*/
  40:Drivers/BSP/Components/st7735/st7735.c **** #include "st7735.h"
  41:Drivers/BSP/Components/st7735/st7735.c **** 
  42:Drivers/BSP/Components/st7735/st7735.c **** /** @addtogroup BSP
  43:Drivers/BSP/Components/st7735/st7735.c ****   * @{
  44:Drivers/BSP/Components/st7735/st7735.c ****   */ 
  45:Drivers/BSP/Components/st7735/st7735.c **** 
  46:Drivers/BSP/Components/st7735/st7735.c **** /** @addtogroup Components
  47:Drivers/BSP/Components/st7735/st7735.c ****   * @{
  48:Drivers/BSP/Components/st7735/st7735.c ****   */ 
  49:Drivers/BSP/Components/st7735/st7735.c **** 
  50:Drivers/BSP/Components/st7735/st7735.c **** /** @addtogroup ST7735
  51:Drivers/BSP/Components/st7735/st7735.c ****   * @brief      This file provides a set of functions needed to drive the
  52:Drivers/BSP/Components/st7735/st7735.c ****   *             ST7735 LCD.
  53:Drivers/BSP/Components/st7735/st7735.c ****   * @{
  54:Drivers/BSP/Components/st7735/st7735.c ****   */
  55:Drivers/BSP/Components/st7735/st7735.c **** 
  56:Drivers/BSP/Components/st7735/st7735.c **** /** @defgroup ST7735_Private_TypesDefinitions
  57:Drivers/BSP/Components/st7735/st7735.c ****   * @{
  58:Drivers/BSP/Components/st7735/st7735.c ****   */ 
  59:Drivers/BSP/Components/st7735/st7735.c **** 
  60:Drivers/BSP/Components/st7735/st7735.c **** /**
  61:Drivers/BSP/Components/st7735/st7735.c ****   * @}
  62:Drivers/BSP/Components/st7735/st7735.c ****   */ 
  63:Drivers/BSP/Components/st7735/st7735.c **** 
  64:Drivers/BSP/Components/st7735/st7735.c **** /** @defgroup ST7735_Private_Defines
  65:Drivers/BSP/Components/st7735/st7735.c ****   * @{
  66:Drivers/BSP/Components/st7735/st7735.c ****   */
  67:Drivers/BSP/Components/st7735/st7735.c **** 
  68:Drivers/BSP/Components/st7735/st7735.c **** /**
  69:Drivers/BSP/Components/st7735/st7735.c ****   * @}
  70:Drivers/BSP/Components/st7735/st7735.c ****   */ 
  71:Drivers/BSP/Components/st7735/st7735.c **** 
  72:Drivers/BSP/Components/st7735/st7735.c **** /** @defgroup ST7735_Private_Macros
  73:Drivers/BSP/Components/st7735/st7735.c ****   * @{
  74:Drivers/BSP/Components/st7735/st7735.c ****   */
  75:Drivers/BSP/Components/st7735/st7735.c **** 
  76:Drivers/BSP/Components/st7735/st7735.c **** /**
  77:Drivers/BSP/Components/st7735/st7735.c ****   * @}
  78:Drivers/BSP/Components/st7735/st7735.c ****   */  
  79:Drivers/BSP/Components/st7735/st7735.c **** 
  80:Drivers/BSP/Components/st7735/st7735.c **** /** @defgroup ST7735_Private_Variables
  81:Drivers/BSP/Components/st7735/st7735.c ****   * @{
  82:Drivers/BSP/Components/st7735/st7735.c ****   */ 
  83:Drivers/BSP/Components/st7735/st7735.c **** 
  84:Drivers/BSP/Components/st7735/st7735.c **** 
  85:Drivers/BSP/Components/st7735/st7735.c **** LCD_DrvTypeDef   st7735_drv = 
  86:Drivers/BSP/Components/st7735/st7735.c **** {
ARM GAS  /var/folders/0z/tsy30v1j4xl4_7kw94k978ww0000gn/T//ccK4WGjk.s 			page 3


  87:Drivers/BSP/Components/st7735/st7735.c ****   st7735_Init,
  88:Drivers/BSP/Components/st7735/st7735.c ****   0,
  89:Drivers/BSP/Components/st7735/st7735.c ****   st7735_DisplayOn,
  90:Drivers/BSP/Components/st7735/st7735.c ****   st7735_DisplayOff,
  91:Drivers/BSP/Components/st7735/st7735.c ****   st7735_SetCursor,
  92:Drivers/BSP/Components/st7735/st7735.c ****   st7735_WritePixel,
  93:Drivers/BSP/Components/st7735/st7735.c ****   0,
  94:Drivers/BSP/Components/st7735/st7735.c ****   st7735_SetDisplayWindow,
  95:Drivers/BSP/Components/st7735/st7735.c ****   st7735_DrawHLine,
  96:Drivers/BSP/Components/st7735/st7735.c ****   st7735_DrawVLine,
  97:Drivers/BSP/Components/st7735/st7735.c ****   st7735_GetLcdPixelWidth,
  98:Drivers/BSP/Components/st7735/st7735.c ****   st7735_GetLcdPixelHeight,
  99:Drivers/BSP/Components/st7735/st7735.c ****   st7735_DrawBitmap,
 100:Drivers/BSP/Components/st7735/st7735.c **** };
 101:Drivers/BSP/Components/st7735/st7735.c **** 
 102:Drivers/BSP/Components/st7735/st7735.c **** static uint16_t ArrayRGB[320] = {0};
 103:Drivers/BSP/Components/st7735/st7735.c **** 
 104:Drivers/BSP/Components/st7735/st7735.c **** /**
 105:Drivers/BSP/Components/st7735/st7735.c **** * @}
 106:Drivers/BSP/Components/st7735/st7735.c **** */ 
 107:Drivers/BSP/Components/st7735/st7735.c **** 
 108:Drivers/BSP/Components/st7735/st7735.c **** /** @defgroup ST7735_Private_FunctionPrototypes
 109:Drivers/BSP/Components/st7735/st7735.c ****   * @{
 110:Drivers/BSP/Components/st7735/st7735.c ****   */
 111:Drivers/BSP/Components/st7735/st7735.c **** 
 112:Drivers/BSP/Components/st7735/st7735.c **** /**
 113:Drivers/BSP/Components/st7735/st7735.c **** * @}
 114:Drivers/BSP/Components/st7735/st7735.c **** */ 
 115:Drivers/BSP/Components/st7735/st7735.c **** 
 116:Drivers/BSP/Components/st7735/st7735.c **** /** @defgroup ST7735_Private_Functions
 117:Drivers/BSP/Components/st7735/st7735.c ****   * @{
 118:Drivers/BSP/Components/st7735/st7735.c ****   */
 119:Drivers/BSP/Components/st7735/st7735.c **** 
 120:Drivers/BSP/Components/st7735/st7735.c **** /**
 121:Drivers/BSP/Components/st7735/st7735.c ****   * @brief  Initialize the ST7735 LCD Component.
 122:Drivers/BSP/Components/st7735/st7735.c ****   * @param  None
 123:Drivers/BSP/Components/st7735/st7735.c ****   * @retval None
 124:Drivers/BSP/Components/st7735/st7735.c ****   */
 125:Drivers/BSP/Components/st7735/st7735.c **** void st7735_Init(void)
 126:Drivers/BSP/Components/st7735/st7735.c **** {    
 127:Drivers/BSP/Components/st7735/st7735.c ****   uint8_t data = 0;
 128:Drivers/BSP/Components/st7735/st7735.c ****   
 129:Drivers/BSP/Components/st7735/st7735.c ****   /* Initialize ST7735 low level bus layer -----------------------------------*/
 130:Drivers/BSP/Components/st7735/st7735.c ****   LCD_IO_Init();
 131:Drivers/BSP/Components/st7735/st7735.c ****   /* Out of sleep mode, 0 args, no delay */
 132:Drivers/BSP/Components/st7735/st7735.c ****   st7735_WriteReg(LCD_REG_17, 0x00); 
 133:Drivers/BSP/Components/st7735/st7735.c ****   /* Frame rate ctrl - normal mode, 3 args:Rate = fosc/(1x2+40) * (LINE+2C+2D)*/
 134:Drivers/BSP/Components/st7735/st7735.c ****   LCD_IO_WriteReg(LCD_REG_177);
 135:Drivers/BSP/Components/st7735/st7735.c ****   data = 0x01;
 136:Drivers/BSP/Components/st7735/st7735.c ****   LCD_IO_WriteMultipleData(&data, 1);
 137:Drivers/BSP/Components/st7735/st7735.c ****   data = 0x2C;
 138:Drivers/BSP/Components/st7735/st7735.c ****   LCD_IO_WriteMultipleData(&data, 1);
 139:Drivers/BSP/Components/st7735/st7735.c ****   data = 0x2D;
 140:Drivers/BSP/Components/st7735/st7735.c ****   LCD_IO_WriteMultipleData(&data, 1);
 141:Drivers/BSP/Components/st7735/st7735.c ****   /* Frame rate control - idle mode, 3 args:Rate = fosc/(1x2+40) * (LINE+2C+2D) */    
 142:Drivers/BSP/Components/st7735/st7735.c ****   st7735_WriteReg(LCD_REG_178, 0x01);
 143:Drivers/BSP/Components/st7735/st7735.c ****   st7735_WriteReg(LCD_REG_178, 0x2C);
ARM GAS  /var/folders/0z/tsy30v1j4xl4_7kw94k978ww0000gn/T//ccK4WGjk.s 			page 4


 144:Drivers/BSP/Components/st7735/st7735.c ****   st7735_WriteReg(LCD_REG_178, 0x2D);
 145:Drivers/BSP/Components/st7735/st7735.c ****   /* Frame rate ctrl - partial mode, 6 args: Dot inversion mode, Line inversion mode */ 
 146:Drivers/BSP/Components/st7735/st7735.c ****   st7735_WriteReg(LCD_REG_179, 0x01);
 147:Drivers/BSP/Components/st7735/st7735.c ****   st7735_WriteReg(LCD_REG_179, 0x2C);
 148:Drivers/BSP/Components/st7735/st7735.c ****   st7735_WriteReg(LCD_REG_179, 0x2D);
 149:Drivers/BSP/Components/st7735/st7735.c ****   st7735_WriteReg(LCD_REG_179, 0x01);
 150:Drivers/BSP/Components/st7735/st7735.c ****   st7735_WriteReg(LCD_REG_179, 0x2C);
 151:Drivers/BSP/Components/st7735/st7735.c ****   st7735_WriteReg(LCD_REG_179, 0x2D);
 152:Drivers/BSP/Components/st7735/st7735.c ****   /* Display inversion ctrl, 1 arg, no delay: No inversion */
 153:Drivers/BSP/Components/st7735/st7735.c ****   st7735_WriteReg(LCD_REG_180, 0x07);
 154:Drivers/BSP/Components/st7735/st7735.c ****   /* Power control, 3 args, no delay: -4.6V , AUTO mode */
 155:Drivers/BSP/Components/st7735/st7735.c ****   st7735_WriteReg(LCD_REG_192, 0xA2);
 156:Drivers/BSP/Components/st7735/st7735.c ****   st7735_WriteReg(LCD_REG_192, 0x02);
 157:Drivers/BSP/Components/st7735/st7735.c ****   st7735_WriteReg(LCD_REG_192, 0x84);
 158:Drivers/BSP/Components/st7735/st7735.c ****   /* Power control, 1 arg, no delay: VGH25 = 2.4C VGSEL = -10 VGH = 3 * AVDD */
 159:Drivers/BSP/Components/st7735/st7735.c ****   st7735_WriteReg(LCD_REG_193, 0xC5);
 160:Drivers/BSP/Components/st7735/st7735.c ****   /* Power control, 2 args, no delay: Opamp current small, Boost frequency */ 
 161:Drivers/BSP/Components/st7735/st7735.c ****   st7735_WriteReg(LCD_REG_194, 0x0A);
 162:Drivers/BSP/Components/st7735/st7735.c ****   st7735_WriteReg(LCD_REG_194, 0x00);
 163:Drivers/BSP/Components/st7735/st7735.c ****   /* Power control, 2 args, no delay: BCLK/2, Opamp current small & Medium low */  
 164:Drivers/BSP/Components/st7735/st7735.c ****   st7735_WriteReg(LCD_REG_195, 0x8A);
 165:Drivers/BSP/Components/st7735/st7735.c ****   st7735_WriteReg(LCD_REG_195, 0x2A);
 166:Drivers/BSP/Components/st7735/st7735.c ****   /* Power control, 2 args, no delay */
 167:Drivers/BSP/Components/st7735/st7735.c ****   st7735_WriteReg(LCD_REG_196, 0x8A);
 168:Drivers/BSP/Components/st7735/st7735.c ****   st7735_WriteReg(LCD_REG_196, 0xEE);
 169:Drivers/BSP/Components/st7735/st7735.c ****   /* Power control, 1 arg, no delay */
 170:Drivers/BSP/Components/st7735/st7735.c ****   st7735_WriteReg(LCD_REG_197, 0x0E);
 171:Drivers/BSP/Components/st7735/st7735.c ****   /* Don't invert display, no args, no delay */
 172:Drivers/BSP/Components/st7735/st7735.c ****   LCD_IO_WriteReg(LCD_REG_32);
 173:Drivers/BSP/Components/st7735/st7735.c ****   /* Set color mode, 1 arg, no delay: 16-bit color */
 174:Drivers/BSP/Components/st7735/st7735.c ****   st7735_WriteReg(LCD_REG_58, 0x05);
 175:Drivers/BSP/Components/st7735/st7735.c ****   /* Column addr set, 4 args, no delay: XSTART = 0, XEND = 127 */
 176:Drivers/BSP/Components/st7735/st7735.c ****   LCD_IO_WriteReg(LCD_REG_42);
 177:Drivers/BSP/Components/st7735/st7735.c ****   data = 0x00;
 178:Drivers/BSP/Components/st7735/st7735.c ****   LCD_IO_WriteMultipleData(&data, 1);
 179:Drivers/BSP/Components/st7735/st7735.c ****   LCD_IO_WriteMultipleData(&data, 1);
 180:Drivers/BSP/Components/st7735/st7735.c ****   LCD_IO_WriteMultipleData(&data, 1);
 181:Drivers/BSP/Components/st7735/st7735.c ****   data = 0x7F;
 182:Drivers/BSP/Components/st7735/st7735.c ****   LCD_IO_WriteMultipleData(&data, 1);
 183:Drivers/BSP/Components/st7735/st7735.c ****   /* Row addr set, 4 args, no delay: YSTART = 0, YEND = 159 */
 184:Drivers/BSP/Components/st7735/st7735.c ****   LCD_IO_WriteReg(LCD_REG_43);
 185:Drivers/BSP/Components/st7735/st7735.c ****   data = 0x00;
 186:Drivers/BSP/Components/st7735/st7735.c ****   LCD_IO_WriteMultipleData(&data, 1);
 187:Drivers/BSP/Components/st7735/st7735.c ****   LCD_IO_WriteMultipleData(&data, 1);
 188:Drivers/BSP/Components/st7735/st7735.c ****   LCD_IO_WriteMultipleData(&data, 1);
 189:Drivers/BSP/Components/st7735/st7735.c ****   data = 0x9F;
 190:Drivers/BSP/Components/st7735/st7735.c ****   LCD_IO_WriteMultipleData(&data, 1);
 191:Drivers/BSP/Components/st7735/st7735.c ****   /* Magical unicorn dust, 16 args, no delay */
 192:Drivers/BSP/Components/st7735/st7735.c ****   st7735_WriteReg(LCD_REG_224, 0x02); 
 193:Drivers/BSP/Components/st7735/st7735.c ****   st7735_WriteReg(LCD_REG_224, 0x1c);  
 194:Drivers/BSP/Components/st7735/st7735.c ****   st7735_WriteReg(LCD_REG_224, 0x07); 
 195:Drivers/BSP/Components/st7735/st7735.c ****   st7735_WriteReg(LCD_REG_224, 0x12);
 196:Drivers/BSP/Components/st7735/st7735.c ****   st7735_WriteReg(LCD_REG_224, 0x37);  
 197:Drivers/BSP/Components/st7735/st7735.c ****   st7735_WriteReg(LCD_REG_224, 0x32);  
 198:Drivers/BSP/Components/st7735/st7735.c ****   st7735_WriteReg(LCD_REG_224, 0x29);  
 199:Drivers/BSP/Components/st7735/st7735.c ****   st7735_WriteReg(LCD_REG_224, 0x2d);
 200:Drivers/BSP/Components/st7735/st7735.c ****   st7735_WriteReg(LCD_REG_224, 0x29);  
ARM GAS  /var/folders/0z/tsy30v1j4xl4_7kw94k978ww0000gn/T//ccK4WGjk.s 			page 5


 201:Drivers/BSP/Components/st7735/st7735.c ****   st7735_WriteReg(LCD_REG_224, 0x25);  
 202:Drivers/BSP/Components/st7735/st7735.c ****   st7735_WriteReg(LCD_REG_224, 0x2B);  
 203:Drivers/BSP/Components/st7735/st7735.c ****   st7735_WriteReg(LCD_REG_224, 0x39);  
 204:Drivers/BSP/Components/st7735/st7735.c ****   st7735_WriteReg(LCD_REG_224, 0x00);  
 205:Drivers/BSP/Components/st7735/st7735.c ****   st7735_WriteReg(LCD_REG_224, 0x01);  
 206:Drivers/BSP/Components/st7735/st7735.c ****   st7735_WriteReg(LCD_REG_224, 0x03);  
 207:Drivers/BSP/Components/st7735/st7735.c ****   st7735_WriteReg(LCD_REG_224, 0x10);
 208:Drivers/BSP/Components/st7735/st7735.c ****   /* Sparkles and rainbows, 16 args, no delay */
 209:Drivers/BSP/Components/st7735/st7735.c ****   st7735_WriteReg(LCD_REG_225, 0x03);
 210:Drivers/BSP/Components/st7735/st7735.c ****   st7735_WriteReg(LCD_REG_225, 0x1d);  
 211:Drivers/BSP/Components/st7735/st7735.c ****   st7735_WriteReg(LCD_REG_225, 0x07);  
 212:Drivers/BSP/Components/st7735/st7735.c ****   st7735_WriteReg(LCD_REG_225, 0x06);
 213:Drivers/BSP/Components/st7735/st7735.c ****   st7735_WriteReg(LCD_REG_225, 0x2E);  
 214:Drivers/BSP/Components/st7735/st7735.c ****   st7735_WriteReg(LCD_REG_225, 0x2C);  
 215:Drivers/BSP/Components/st7735/st7735.c ****   st7735_WriteReg(LCD_REG_225, 0x29);  
 216:Drivers/BSP/Components/st7735/st7735.c ****   st7735_WriteReg(LCD_REG_225, 0x2D);
 217:Drivers/BSP/Components/st7735/st7735.c ****   st7735_WriteReg(LCD_REG_225, 0x2E);  
 218:Drivers/BSP/Components/st7735/st7735.c ****   st7735_WriteReg(LCD_REG_225, 0x2E);  
 219:Drivers/BSP/Components/st7735/st7735.c ****   st7735_WriteReg(LCD_REG_225, 0x37);  
 220:Drivers/BSP/Components/st7735/st7735.c ****   st7735_WriteReg(LCD_REG_225, 0x3F);  
 221:Drivers/BSP/Components/st7735/st7735.c ****   st7735_WriteReg(LCD_REG_225, 0x00);  
 222:Drivers/BSP/Components/st7735/st7735.c ****   st7735_WriteReg(LCD_REG_225, 0x00);  
 223:Drivers/BSP/Components/st7735/st7735.c ****   st7735_WriteReg(LCD_REG_225, 0x02);  
 224:Drivers/BSP/Components/st7735/st7735.c ****   st7735_WriteReg(LCD_REG_225, 0x10);
 225:Drivers/BSP/Components/st7735/st7735.c ****   /* Normal display on, no args, no delay */
 226:Drivers/BSP/Components/st7735/st7735.c ****   st7735_WriteReg(LCD_REG_19, 0x00);
 227:Drivers/BSP/Components/st7735/st7735.c ****   /* Main screen turn on, no delay */
 228:Drivers/BSP/Components/st7735/st7735.c ****   st7735_WriteReg(LCD_REG_41, 0x00);
 229:Drivers/BSP/Components/st7735/st7735.c ****   /* Memory access control: MY = 1, MX = 1, MV = 0, ML = 0 */
 230:Drivers/BSP/Components/st7735/st7735.c ****   st7735_WriteReg(LCD_REG_54, 0xC0);
 231:Drivers/BSP/Components/st7735/st7735.c **** }
 232:Drivers/BSP/Components/st7735/st7735.c **** 
 233:Drivers/BSP/Components/st7735/st7735.c **** /**
 234:Drivers/BSP/Components/st7735/st7735.c ****   * @brief  Enables the Display.
 235:Drivers/BSP/Components/st7735/st7735.c ****   * @param  None
 236:Drivers/BSP/Components/st7735/st7735.c ****   * @retval None
 237:Drivers/BSP/Components/st7735/st7735.c ****   */
 238:Drivers/BSP/Components/st7735/st7735.c **** void st7735_DisplayOn(void)
 239:Drivers/BSP/Components/st7735/st7735.c **** {
 240:Drivers/BSP/Components/st7735/st7735.c ****   uint8_t data = 0;
 241:Drivers/BSP/Components/st7735/st7735.c ****   LCD_IO_WriteReg(LCD_REG_19);
 242:Drivers/BSP/Components/st7735/st7735.c ****   LCD_Delay(10);
 243:Drivers/BSP/Components/st7735/st7735.c ****   LCD_IO_WriteReg(LCD_REG_41);
 244:Drivers/BSP/Components/st7735/st7735.c ****   LCD_Delay(10);
 245:Drivers/BSP/Components/st7735/st7735.c ****   LCD_IO_WriteReg(LCD_REG_54);
 246:Drivers/BSP/Components/st7735/st7735.c ****   data = 0xC0;
 247:Drivers/BSP/Components/st7735/st7735.c ****   LCD_IO_WriteMultipleData(&data, 1);
 248:Drivers/BSP/Components/st7735/st7735.c **** }
 249:Drivers/BSP/Components/st7735/st7735.c **** 
 250:Drivers/BSP/Components/st7735/st7735.c **** /**
 251:Drivers/BSP/Components/st7735/st7735.c ****   * @brief  Disables the Display.
 252:Drivers/BSP/Components/st7735/st7735.c ****   * @param  None
 253:Drivers/BSP/Components/st7735/st7735.c ****   * @retval None
 254:Drivers/BSP/Components/st7735/st7735.c ****   */
 255:Drivers/BSP/Components/st7735/st7735.c **** void st7735_DisplayOff(void)
 256:Drivers/BSP/Components/st7735/st7735.c **** {
 257:Drivers/BSP/Components/st7735/st7735.c ****   uint8_t data = 0;
ARM GAS  /var/folders/0z/tsy30v1j4xl4_7kw94k978ww0000gn/T//ccK4WGjk.s 			page 6


 258:Drivers/BSP/Components/st7735/st7735.c ****   LCD_IO_WriteReg(LCD_REG_19);
 259:Drivers/BSP/Components/st7735/st7735.c ****   LCD_Delay(10);
 260:Drivers/BSP/Components/st7735/st7735.c ****   LCD_IO_WriteReg(LCD_REG_40);
 261:Drivers/BSP/Components/st7735/st7735.c ****   LCD_Delay(10);
 262:Drivers/BSP/Components/st7735/st7735.c ****   LCD_IO_WriteReg(LCD_REG_54);
 263:Drivers/BSP/Components/st7735/st7735.c ****   data = 0xC0;
 264:Drivers/BSP/Components/st7735/st7735.c ****   LCD_IO_WriteMultipleData(&data, 1);
 265:Drivers/BSP/Components/st7735/st7735.c **** }
 266:Drivers/BSP/Components/st7735/st7735.c **** 
 267:Drivers/BSP/Components/st7735/st7735.c **** /**
 268:Drivers/BSP/Components/st7735/st7735.c ****   * @brief  Sets Cursor position.
 269:Drivers/BSP/Components/st7735/st7735.c ****   * @param  Xpos: specifies the X position.
 270:Drivers/BSP/Components/st7735/st7735.c ****   * @param  Ypos: specifies the Y position.
 271:Drivers/BSP/Components/st7735/st7735.c ****   * @retval None
 272:Drivers/BSP/Components/st7735/st7735.c ****   */
 273:Drivers/BSP/Components/st7735/st7735.c **** void st7735_SetCursor(uint16_t Xpos, uint16_t Ypos)
 274:Drivers/BSP/Components/st7735/st7735.c **** {
 275:Drivers/BSP/Components/st7735/st7735.c ****   uint8_t data = 0;
 276:Drivers/BSP/Components/st7735/st7735.c ****   LCD_IO_WriteReg(LCD_REG_42);
 277:Drivers/BSP/Components/st7735/st7735.c ****   data = (Xpos) >> 8;
 278:Drivers/BSP/Components/st7735/st7735.c ****   LCD_IO_WriteMultipleData(&data, 1);
 279:Drivers/BSP/Components/st7735/st7735.c ****   data = (Xpos) & 0xFF;
 280:Drivers/BSP/Components/st7735/st7735.c ****   LCD_IO_WriteMultipleData(&data, 1);
 281:Drivers/BSP/Components/st7735/st7735.c ****   LCD_IO_WriteReg(LCD_REG_43); 
 282:Drivers/BSP/Components/st7735/st7735.c ****   data = (Ypos) >> 8;
 283:Drivers/BSP/Components/st7735/st7735.c ****   LCD_IO_WriteMultipleData(&data, 1);
 284:Drivers/BSP/Components/st7735/st7735.c ****   data = (Ypos) & 0xFF;
 285:Drivers/BSP/Components/st7735/st7735.c ****   LCD_IO_WriteMultipleData(&data, 1);
 286:Drivers/BSP/Components/st7735/st7735.c ****   LCD_IO_WriteReg(LCD_REG_44);
 287:Drivers/BSP/Components/st7735/st7735.c **** }
 288:Drivers/BSP/Components/st7735/st7735.c **** 
 289:Drivers/BSP/Components/st7735/st7735.c **** /**
 290:Drivers/BSP/Components/st7735/st7735.c ****   * @brief  Writes pixel.   
 291:Drivers/BSP/Components/st7735/st7735.c ****   * @param  Xpos: specifies the X position.
 292:Drivers/BSP/Components/st7735/st7735.c ****   * @param  Ypos: specifies the Y position.
 293:Drivers/BSP/Components/st7735/st7735.c ****   * @param  RGBCode: the RGB pixel color
 294:Drivers/BSP/Components/st7735/st7735.c ****   * @retval None
 295:Drivers/BSP/Components/st7735/st7735.c ****   */
 296:Drivers/BSP/Components/st7735/st7735.c **** void st7735_WritePixel(uint16_t Xpos, uint16_t Ypos, uint16_t RGBCode)
 297:Drivers/BSP/Components/st7735/st7735.c **** {
 298:Drivers/BSP/Components/st7735/st7735.c ****   uint8_t data = 0;
 299:Drivers/BSP/Components/st7735/st7735.c ****   if((Xpos >= ST7735_LCD_PIXEL_WIDTH) || (Ypos >= ST7735_LCD_PIXEL_HEIGHT)) 
 300:Drivers/BSP/Components/st7735/st7735.c ****   {
 301:Drivers/BSP/Components/st7735/st7735.c ****     return;
 302:Drivers/BSP/Components/st7735/st7735.c ****   }
 303:Drivers/BSP/Components/st7735/st7735.c ****   
 304:Drivers/BSP/Components/st7735/st7735.c ****   /* Set Cursor */
 305:Drivers/BSP/Components/st7735/st7735.c ****   st7735_SetCursor(Xpos, Ypos);
 306:Drivers/BSP/Components/st7735/st7735.c ****   
 307:Drivers/BSP/Components/st7735/st7735.c ****   data = RGBCode >> 8;
 308:Drivers/BSP/Components/st7735/st7735.c ****   LCD_IO_WriteMultipleData(&data, 1);
 309:Drivers/BSP/Components/st7735/st7735.c ****   data = RGBCode;
 310:Drivers/BSP/Components/st7735/st7735.c ****   LCD_IO_WriteMultipleData(&data, 1);
 311:Drivers/BSP/Components/st7735/st7735.c **** }  
 312:Drivers/BSP/Components/st7735/st7735.c **** 
 313:Drivers/BSP/Components/st7735/st7735.c **** 
 314:Drivers/BSP/Components/st7735/st7735.c **** /**
ARM GAS  /var/folders/0z/tsy30v1j4xl4_7kw94k978ww0000gn/T//ccK4WGjk.s 			page 7


 315:Drivers/BSP/Components/st7735/st7735.c ****   * @brief  Writes to the selected LCD register.
 316:Drivers/BSP/Components/st7735/st7735.c ****   * @param  LCDReg: Address of the selected register.
 317:Drivers/BSP/Components/st7735/st7735.c ****   * @param  LCDRegValue: value to write to the selected register.
 318:Drivers/BSP/Components/st7735/st7735.c ****   * @retval None
 319:Drivers/BSP/Components/st7735/st7735.c ****   */
 320:Drivers/BSP/Components/st7735/st7735.c **** void st7735_WriteReg(uint8_t LCDReg, uint8_t LCDRegValue)
 321:Drivers/BSP/Components/st7735/st7735.c **** {
 322:Drivers/BSP/Components/st7735/st7735.c ****   LCD_IO_WriteReg(LCDReg);
 323:Drivers/BSP/Components/st7735/st7735.c ****   LCD_IO_WriteMultipleData(&LCDRegValue, 1);
 324:Drivers/BSP/Components/st7735/st7735.c **** }
 325:Drivers/BSP/Components/st7735/st7735.c **** 
 326:Drivers/BSP/Components/st7735/st7735.c **** /**
 327:Drivers/BSP/Components/st7735/st7735.c ****   * @brief  Sets a display window
 328:Drivers/BSP/Components/st7735/st7735.c ****   * @param  Xpos:   specifies the X bottom left position.
 329:Drivers/BSP/Components/st7735/st7735.c ****   * @param  Ypos:   specifies the Y bottom left position.
 330:Drivers/BSP/Components/st7735/st7735.c ****   * @param  Height: display window height.
 331:Drivers/BSP/Components/st7735/st7735.c ****   * @param  Width:  display window width.
 332:Drivers/BSP/Components/st7735/st7735.c ****   * @retval None
 333:Drivers/BSP/Components/st7735/st7735.c ****   */
 334:Drivers/BSP/Components/st7735/st7735.c **** void st7735_SetDisplayWindow(uint16_t Xpos, uint16_t Ypos, uint16_t Width, uint16_t Height)
 335:Drivers/BSP/Components/st7735/st7735.c **** {
 336:Drivers/BSP/Components/st7735/st7735.c ****   uint8_t data = 0;
 337:Drivers/BSP/Components/st7735/st7735.c ****   /* Column addr set, 4 args, no delay: XSTART = Xpos, XEND = (Xpos + Width - 1) */
 338:Drivers/BSP/Components/st7735/st7735.c ****   LCD_IO_WriteReg(LCD_REG_42);
 339:Drivers/BSP/Components/st7735/st7735.c ****   data = (Xpos) >> 8;
 340:Drivers/BSP/Components/st7735/st7735.c ****   LCD_IO_WriteMultipleData(&data, 1);
 341:Drivers/BSP/Components/st7735/st7735.c ****   data = (Xpos) & 0xFF;
 342:Drivers/BSP/Components/st7735/st7735.c ****   LCD_IO_WriteMultipleData(&data, 1);
 343:Drivers/BSP/Components/st7735/st7735.c ****   data = (Xpos + Width - 1) >> 8;
 344:Drivers/BSP/Components/st7735/st7735.c ****   LCD_IO_WriteMultipleData(&data, 1);
 345:Drivers/BSP/Components/st7735/st7735.c ****   data = (Xpos + Width - 1) & 0xFF;
 346:Drivers/BSP/Components/st7735/st7735.c ****   LCD_IO_WriteMultipleData(&data, 1);
 347:Drivers/BSP/Components/st7735/st7735.c ****   /* Row addr set, 4 args, no delay: YSTART = Ypos, YEND = (Ypos + Height - 1) */
 348:Drivers/BSP/Components/st7735/st7735.c ****   LCD_IO_WriteReg(LCD_REG_43);
 349:Drivers/BSP/Components/st7735/st7735.c ****   data = (Ypos) >> 8;
 350:Drivers/BSP/Components/st7735/st7735.c ****   LCD_IO_WriteMultipleData(&data, 1);
 351:Drivers/BSP/Components/st7735/st7735.c ****   data = (Ypos) & 0xFF;
 352:Drivers/BSP/Components/st7735/st7735.c ****   LCD_IO_WriteMultipleData(&data, 1);
 353:Drivers/BSP/Components/st7735/st7735.c ****   data = (Ypos + Height - 1) >> 8;
 354:Drivers/BSP/Components/st7735/st7735.c ****   LCD_IO_WriteMultipleData(&data, 1);
 355:Drivers/BSP/Components/st7735/st7735.c ****   data = (Ypos + Height - 1) & 0xFF;
 356:Drivers/BSP/Components/st7735/st7735.c ****   LCD_IO_WriteMultipleData(&data, 1);
 357:Drivers/BSP/Components/st7735/st7735.c **** }
 358:Drivers/BSP/Components/st7735/st7735.c **** 
 359:Drivers/BSP/Components/st7735/st7735.c **** /**
 360:Drivers/BSP/Components/st7735/st7735.c ****   * @brief  Draws horizontal line.
 361:Drivers/BSP/Components/st7735/st7735.c ****   * @param  RGBCode: Specifies the RGB color   
 362:Drivers/BSP/Components/st7735/st7735.c ****   * @param  Xpos: specifies the X position.
 363:Drivers/BSP/Components/st7735/st7735.c ****   * @param  Ypos: specifies the Y position.
 364:Drivers/BSP/Components/st7735/st7735.c ****   * @param  Length: specifies the line length.  
 365:Drivers/BSP/Components/st7735/st7735.c ****   * @retval None
 366:Drivers/BSP/Components/st7735/st7735.c ****   */
 367:Drivers/BSP/Components/st7735/st7735.c **** void st7735_DrawHLine(uint16_t RGBCode, uint16_t Xpos, uint16_t Ypos, uint16_t Length)
 368:Drivers/BSP/Components/st7735/st7735.c **** {
 369:Drivers/BSP/Components/st7735/st7735.c ****   uint8_t counter = 0;
 370:Drivers/BSP/Components/st7735/st7735.c ****   
 371:Drivers/BSP/Components/st7735/st7735.c ****   if(Xpos + Length > ST7735_LCD_PIXEL_WIDTH) return;
ARM GAS  /var/folders/0z/tsy30v1j4xl4_7kw94k978ww0000gn/T//ccK4WGjk.s 			page 8


 372:Drivers/BSP/Components/st7735/st7735.c ****   
 373:Drivers/BSP/Components/st7735/st7735.c ****   /* Set Cursor */
 374:Drivers/BSP/Components/st7735/st7735.c ****   st7735_SetCursor(Xpos, Ypos);
 375:Drivers/BSP/Components/st7735/st7735.c ****   
 376:Drivers/BSP/Components/st7735/st7735.c ****   for(counter = 0; counter < Length; counter++)
 377:Drivers/BSP/Components/st7735/st7735.c ****   {
 378:Drivers/BSP/Components/st7735/st7735.c ****     ArrayRGB[counter] = RGBCode;
 379:Drivers/BSP/Components/st7735/st7735.c ****   }
 380:Drivers/BSP/Components/st7735/st7735.c ****   LCD_IO_WriteMultipleData((uint8_t*)&ArrayRGB[0], Length * 2);
 381:Drivers/BSP/Components/st7735/st7735.c **** }
 382:Drivers/BSP/Components/st7735/st7735.c **** 
 383:Drivers/BSP/Components/st7735/st7735.c **** /**
 384:Drivers/BSP/Components/st7735/st7735.c ****   * @brief  Draws vertical line.
 385:Drivers/BSP/Components/st7735/st7735.c ****   * @param  RGBCode: Specifies the RGB color   
 386:Drivers/BSP/Components/st7735/st7735.c ****   * @param  Xpos: specifies the X position.
 387:Drivers/BSP/Components/st7735/st7735.c ****   * @param  Ypos: specifies the Y position.
 388:Drivers/BSP/Components/st7735/st7735.c ****   * @param  Length: specifies the line length.  
 389:Drivers/BSP/Components/st7735/st7735.c ****   * @retval None
 390:Drivers/BSP/Components/st7735/st7735.c ****   */
 391:Drivers/BSP/Components/st7735/st7735.c **** void st7735_DrawVLine(uint16_t RGBCode, uint16_t Xpos, uint16_t Ypos, uint16_t Length)
 392:Drivers/BSP/Components/st7735/st7735.c **** {
 393:Drivers/BSP/Components/st7735/st7735.c ****   uint8_t counter = 0;
 394:Drivers/BSP/Components/st7735/st7735.c ****   
 395:Drivers/BSP/Components/st7735/st7735.c ****   if(Ypos + Length > ST7735_LCD_PIXEL_HEIGHT) return;
 396:Drivers/BSP/Components/st7735/st7735.c ****   for(counter = 0; counter < Length; counter++)
 397:Drivers/BSP/Components/st7735/st7735.c ****   {
 398:Drivers/BSP/Components/st7735/st7735.c ****     st7735_WritePixel(Xpos, Ypos + counter, RGBCode);
 399:Drivers/BSP/Components/st7735/st7735.c ****   }   
 400:Drivers/BSP/Components/st7735/st7735.c **** }
 401:Drivers/BSP/Components/st7735/st7735.c **** 
 402:Drivers/BSP/Components/st7735/st7735.c **** /**
 403:Drivers/BSP/Components/st7735/st7735.c ****   * @brief  Gets the LCD pixel Width.
 404:Drivers/BSP/Components/st7735/st7735.c ****   * @param  None
 405:Drivers/BSP/Components/st7735/st7735.c ****   * @retval The Lcd Pixel Width
 406:Drivers/BSP/Components/st7735/st7735.c ****   */
 407:Drivers/BSP/Components/st7735/st7735.c **** uint16_t st7735_GetLcdPixelWidth(void)
 408:Drivers/BSP/Components/st7735/st7735.c **** {
  30              		.loc 1 408 1 view -0
  31              		.cfi_startproc
  32              		@ args = 0, pretend = 0, frame = 0
  33              		@ frame_needed = 0, uses_anonymous_args = 0
  34              		@ link register save eliminated.
 409:Drivers/BSP/Components/st7735/st7735.c ****   return ST7735_LCD_PIXEL_WIDTH;
  35              		.loc 1 409 3 view .LVU1
 410:Drivers/BSP/Components/st7735/st7735.c **** }
  36              		.loc 1 410 1 is_stmt 0 view .LVU2
  37 0000 8020     		movs	r0, #128
  38 0002 7047     		bx	lr
  39              		.cfi_endproc
  40              	.LFE9:
  42              		.section	.text.st7735_GetLcdPixelHeight,"ax",%progbits
  43              		.align	1
  44              		.p2align 2,,3
  45              		.global	st7735_GetLcdPixelHeight
  46              		.syntax unified
  47              		.thumb
  48              		.thumb_func
ARM GAS  /var/folders/0z/tsy30v1j4xl4_7kw94k978ww0000gn/T//ccK4WGjk.s 			page 9


  50              	st7735_GetLcdPixelHeight:
  51              	.LFB10:
 411:Drivers/BSP/Components/st7735/st7735.c **** 
 412:Drivers/BSP/Components/st7735/st7735.c **** /**
 413:Drivers/BSP/Components/st7735/st7735.c ****   * @brief  Gets the LCD pixel Height.
 414:Drivers/BSP/Components/st7735/st7735.c ****   * @param  None
 415:Drivers/BSP/Components/st7735/st7735.c ****   * @retval The Lcd Pixel Height
 416:Drivers/BSP/Components/st7735/st7735.c ****   */
 417:Drivers/BSP/Components/st7735/st7735.c **** uint16_t st7735_GetLcdPixelHeight(void)
 418:Drivers/BSP/Components/st7735/st7735.c **** {                          
  52              		.loc 1 418 1 is_stmt 1 view -0
  53              		.cfi_startproc
  54              		@ args = 0, pretend = 0, frame = 0
  55              		@ frame_needed = 0, uses_anonymous_args = 0
  56              		@ link register save eliminated.
 419:Drivers/BSP/Components/st7735/st7735.c ****   return ST7735_LCD_PIXEL_HEIGHT;
  57              		.loc 1 419 3 view .LVU4
 420:Drivers/BSP/Components/st7735/st7735.c **** }
  58              		.loc 1 420 1 is_stmt 0 view .LVU5
  59 0000 A020     		movs	r0, #160
  60 0002 7047     		bx	lr
  61              		.cfi_endproc
  62              	.LFE10:
  64              		.section	.text.st7735_SetCursor,"ax",%progbits
  65              		.align	1
  66              		.p2align 2,,3
  67              		.global	st7735_SetCursor
  68              		.syntax unified
  69              		.thumb
  70              		.thumb_func
  72              	st7735_SetCursor:
  73              	.LVL0:
  74              	.LFB3:
 274:Drivers/BSP/Components/st7735/st7735.c ****   uint8_t data = 0;
  75              		.loc 1 274 1 is_stmt 1 view -0
  76              		.cfi_startproc
  77              		@ args = 0, pretend = 0, frame = 8
  78              		@ frame_needed = 0, uses_anonymous_args = 0
 275:Drivers/BSP/Components/st7735/st7735.c ****   LCD_IO_WriteReg(LCD_REG_42);
  79              		.loc 1 275 3 view .LVU7
 274:Drivers/BSP/Components/st7735/st7735.c ****   uint8_t data = 0;
  80              		.loc 1 274 1 is_stmt 0 view .LVU8
  81 0000 30B5     		push	{r4, r5, lr}
  82              		.cfi_def_cfa_offset 12
  83              		.cfi_offset 4, -12
  84              		.cfi_offset 5, -8
  85              		.cfi_offset 14, -4
  86 0002 83B0     		sub	sp, sp, #12
  87              		.cfi_def_cfa_offset 24
 274:Drivers/BSP/Components/st7735/st7735.c ****   uint8_t data = 0;
  88              		.loc 1 274 1 view .LVU9
  89 0004 0546     		mov	r5, r0
 275:Drivers/BSP/Components/st7735/st7735.c ****   LCD_IO_WriteReg(LCD_REG_42);
  90              		.loc 1 275 11 view .LVU10
  91 0006 0023     		movs	r3, #0
 276:Drivers/BSP/Components/st7735/st7735.c ****   data = (Xpos) >> 8;
  92              		.loc 1 276 3 view .LVU11
ARM GAS  /var/folders/0z/tsy30v1j4xl4_7kw94k978ww0000gn/T//ccK4WGjk.s 			page 10


  93 0008 2A20     		movs	r0, #42
  94              	.LVL1:
 274:Drivers/BSP/Components/st7735/st7735.c ****   uint8_t data = 0;
  95              		.loc 1 274 1 view .LVU12
  96 000a 0C46     		mov	r4, r1
 275:Drivers/BSP/Components/st7735/st7735.c ****   LCD_IO_WriteReg(LCD_REG_42);
  97              		.loc 1 275 11 view .LVU13
  98 000c 8DF80730 		strb	r3, [sp, #7]
 276:Drivers/BSP/Components/st7735/st7735.c ****   data = (Xpos) >> 8;
  99              		.loc 1 276 3 is_stmt 1 view .LVU14
 100 0010 FFF7FEFF 		bl	LCD_IO_WriteReg
 101              	.LVL2:
 277:Drivers/BSP/Components/st7735/st7735.c ****   LCD_IO_WriteMultipleData(&data, 1);
 102              		.loc 1 277 3 view .LVU15
 277:Drivers/BSP/Components/st7735/st7735.c ****   LCD_IO_WriteMultipleData(&data, 1);
 103              		.loc 1 277 8 is_stmt 0 view .LVU16
 104 0014 2B0A     		lsrs	r3, r5, #8
 278:Drivers/BSP/Components/st7735/st7735.c ****   data = (Xpos) & 0xFF;
 105              		.loc 1 278 3 view .LVU17
 106 0016 0DF10700 		add	r0, sp, #7
 107 001a 0121     		movs	r1, #1
 277:Drivers/BSP/Components/st7735/st7735.c ****   LCD_IO_WriteMultipleData(&data, 1);
 108              		.loc 1 277 8 view .LVU18
 109 001c 8DF80730 		strb	r3, [sp, #7]
 278:Drivers/BSP/Components/st7735/st7735.c ****   data = (Xpos) & 0xFF;
 110              		.loc 1 278 3 is_stmt 1 view .LVU19
 111 0020 FFF7FEFF 		bl	LCD_IO_WriteMultipleData
 112              	.LVL3:
 279:Drivers/BSP/Components/st7735/st7735.c ****   LCD_IO_WriteMultipleData(&data, 1);
 113              		.loc 1 279 3 view .LVU20
 280:Drivers/BSP/Components/st7735/st7735.c ****   LCD_IO_WriteReg(LCD_REG_43); 
 114              		.loc 1 280 3 is_stmt 0 view .LVU21
 115 0024 0121     		movs	r1, #1
 116 0026 0DF10700 		add	r0, sp, #7
 279:Drivers/BSP/Components/st7735/st7735.c ****   LCD_IO_WriteMultipleData(&data, 1);
 117              		.loc 1 279 8 view .LVU22
 118 002a 8DF80750 		strb	r5, [sp, #7]
 280:Drivers/BSP/Components/st7735/st7735.c ****   LCD_IO_WriteReg(LCD_REG_43); 
 119              		.loc 1 280 3 is_stmt 1 view .LVU23
 120 002e FFF7FEFF 		bl	LCD_IO_WriteMultipleData
 121              	.LVL4:
 281:Drivers/BSP/Components/st7735/st7735.c ****   data = (Ypos) >> 8;
 122              		.loc 1 281 3 view .LVU24
 123 0032 2B20     		movs	r0, #43
 124 0034 FFF7FEFF 		bl	LCD_IO_WriteReg
 125              	.LVL5:
 282:Drivers/BSP/Components/st7735/st7735.c ****   LCD_IO_WriteMultipleData(&data, 1);
 126              		.loc 1 282 3 view .LVU25
 282:Drivers/BSP/Components/st7735/st7735.c ****   LCD_IO_WriteMultipleData(&data, 1);
 127              		.loc 1 282 8 is_stmt 0 view .LVU26
 128 0038 230A     		lsrs	r3, r4, #8
 283:Drivers/BSP/Components/st7735/st7735.c ****   data = (Ypos) & 0xFF;
 129              		.loc 1 283 3 view .LVU27
 130 003a 0DF10700 		add	r0, sp, #7
 131 003e 0121     		movs	r1, #1
 282:Drivers/BSP/Components/st7735/st7735.c ****   LCD_IO_WriteMultipleData(&data, 1);
 132              		.loc 1 282 8 view .LVU28
ARM GAS  /var/folders/0z/tsy30v1j4xl4_7kw94k978ww0000gn/T//ccK4WGjk.s 			page 11


 133 0040 8DF80730 		strb	r3, [sp, #7]
 283:Drivers/BSP/Components/st7735/st7735.c ****   data = (Ypos) & 0xFF;
 134              		.loc 1 283 3 is_stmt 1 view .LVU29
 135 0044 FFF7FEFF 		bl	LCD_IO_WriteMultipleData
 136              	.LVL6:
 284:Drivers/BSP/Components/st7735/st7735.c ****   LCD_IO_WriteMultipleData(&data, 1);
 137              		.loc 1 284 3 view .LVU30
 285:Drivers/BSP/Components/st7735/st7735.c ****   LCD_IO_WriteReg(LCD_REG_44);
 138              		.loc 1 285 3 is_stmt 0 view .LVU31
 139 0048 0DF10700 		add	r0, sp, #7
 140 004c 0121     		movs	r1, #1
 284:Drivers/BSP/Components/st7735/st7735.c ****   LCD_IO_WriteMultipleData(&data, 1);
 141              		.loc 1 284 8 view .LVU32
 142 004e 8DF80740 		strb	r4, [sp, #7]
 285:Drivers/BSP/Components/st7735/st7735.c ****   LCD_IO_WriteReg(LCD_REG_44);
 143              		.loc 1 285 3 is_stmt 1 view .LVU33
 144 0052 FFF7FEFF 		bl	LCD_IO_WriteMultipleData
 145              	.LVL7:
 286:Drivers/BSP/Components/st7735/st7735.c **** }
 146              		.loc 1 286 3 view .LVU34
 147 0056 2C20     		movs	r0, #44
 148 0058 FFF7FEFF 		bl	LCD_IO_WriteReg
 149              	.LVL8:
 287:Drivers/BSP/Components/st7735/st7735.c **** 
 150              		.loc 1 287 1 is_stmt 0 view .LVU35
 151 005c 03B0     		add	sp, sp, #12
 152              		.cfi_def_cfa_offset 12
 153              		@ sp needed
 154 005e 30BD     		pop	{r4, r5, pc}
 155              		.cfi_endproc
 156              	.LFE3:
 158              		.section	.text.st7735_WritePixel,"ax",%progbits
 159              		.align	1
 160              		.p2align 2,,3
 161              		.global	st7735_WritePixel
 162              		.syntax unified
 163              		.thumb
 164              		.thumb_func
 166              	st7735_WritePixel:
 167              	.LVL9:
 168              	.LFB4:
 297:Drivers/BSP/Components/st7735/st7735.c ****   uint8_t data = 0;
 169              		.loc 1 297 1 is_stmt 1 view -0
 170              		.cfi_startproc
 171              		@ args = 0, pretend = 0, frame = 8
 172              		@ frame_needed = 0, uses_anonymous_args = 0
 298:Drivers/BSP/Components/st7735/st7735.c ****   if((Xpos >= ST7735_LCD_PIXEL_WIDTH) || (Ypos >= ST7735_LCD_PIXEL_HEIGHT)) 
 173              		.loc 1 298 3 view .LVU37
 297:Drivers/BSP/Components/st7735/st7735.c ****   uint8_t data = 0;
 174              		.loc 1 297 1 is_stmt 0 view .LVU38
 175 0000 10B5     		push	{r4, lr}
 176              		.cfi_def_cfa_offset 8
 177              		.cfi_offset 4, -8
 178              		.cfi_offset 14, -4
 179 0002 82B0     		sub	sp, sp, #8
 180              		.cfi_def_cfa_offset 16
 298:Drivers/BSP/Components/st7735/st7735.c ****   if((Xpos >= ST7735_LCD_PIXEL_WIDTH) || (Ypos >= ST7735_LCD_PIXEL_HEIGHT)) 
ARM GAS  /var/folders/0z/tsy30v1j4xl4_7kw94k978ww0000gn/T//ccK4WGjk.s 			page 12


 181              		.loc 1 298 11 view .LVU39
 182 0004 0023     		movs	r3, #0
 299:Drivers/BSP/Components/st7735/st7735.c ****   {
 183              		.loc 1 299 5 view .LVU40
 184 0006 7F28     		cmp	r0, #127
 298:Drivers/BSP/Components/st7735/st7735.c ****   if((Xpos >= ST7735_LCD_PIXEL_WIDTH) || (Ypos >= ST7735_LCD_PIXEL_HEIGHT)) 
 185              		.loc 1 298 11 view .LVU41
 186 0008 8DF80730 		strb	r3, [sp, #7]
 299:Drivers/BSP/Components/st7735/st7735.c ****   {
 187              		.loc 1 299 3 is_stmt 1 view .LVU42
 299:Drivers/BSP/Components/st7735/st7735.c ****   {
 188              		.loc 1 299 5 is_stmt 0 view .LVU43
 189 000c 01D8     		bhi	.L6
 299:Drivers/BSP/Components/st7735/st7735.c ****   {
 190              		.loc 1 299 39 discriminator 1 view .LVU44
 191 000e 9F29     		cmp	r1, #159
 192 0010 01D9     		bls	.L9
 193              	.L6:
 311:Drivers/BSP/Components/st7735/st7735.c **** 
 194              		.loc 1 311 1 view .LVU45
 195 0012 02B0     		add	sp, sp, #8
 196              		.cfi_remember_state
 197              		.cfi_def_cfa_offset 8
 198              		@ sp needed
 199 0014 10BD     		pop	{r4, pc}
 200              	.L9:
 201              		.cfi_restore_state
 202 0016 1446     		mov	r4, r2
 305:Drivers/BSP/Components/st7735/st7735.c ****   
 203              		.loc 1 305 3 is_stmt 1 view .LVU46
 204 0018 FFF7FEFF 		bl	st7735_SetCursor
 205              	.LVL10:
 307:Drivers/BSP/Components/st7735/st7735.c ****   LCD_IO_WriteMultipleData(&data, 1);
 206              		.loc 1 307 3 view .LVU47
 307:Drivers/BSP/Components/st7735/st7735.c ****   LCD_IO_WriteMultipleData(&data, 1);
 207              		.loc 1 307 8 is_stmt 0 view .LVU48
 208 001c 230A     		lsrs	r3, r4, #8
 308:Drivers/BSP/Components/st7735/st7735.c ****   data = RGBCode;
 209              		.loc 1 308 3 view .LVU49
 210 001e 0DF10700 		add	r0, sp, #7
 211 0022 0121     		movs	r1, #1
 307:Drivers/BSP/Components/st7735/st7735.c ****   LCD_IO_WriteMultipleData(&data, 1);
 212              		.loc 1 307 8 view .LVU50
 213 0024 8DF80730 		strb	r3, [sp, #7]
 308:Drivers/BSP/Components/st7735/st7735.c ****   data = RGBCode;
 214              		.loc 1 308 3 is_stmt 1 view .LVU51
 215 0028 FFF7FEFF 		bl	LCD_IO_WriteMultipleData
 216              	.LVL11:
 309:Drivers/BSP/Components/st7735/st7735.c ****   LCD_IO_WriteMultipleData(&data, 1);
 217              		.loc 1 309 3 view .LVU52
 310:Drivers/BSP/Components/st7735/st7735.c **** }  
 218              		.loc 1 310 3 is_stmt 0 view .LVU53
 219 002c 0121     		movs	r1, #1
 220 002e 0DF10700 		add	r0, sp, #7
 309:Drivers/BSP/Components/st7735/st7735.c ****   LCD_IO_WriteMultipleData(&data, 1);
 221              		.loc 1 309 8 view .LVU54
 222 0032 8DF80740 		strb	r4, [sp, #7]
ARM GAS  /var/folders/0z/tsy30v1j4xl4_7kw94k978ww0000gn/T//ccK4WGjk.s 			page 13


 310:Drivers/BSP/Components/st7735/st7735.c **** }  
 223              		.loc 1 310 3 is_stmt 1 view .LVU55
 224 0036 FFF7FEFF 		bl	LCD_IO_WriteMultipleData
 225              	.LVL12:
 311:Drivers/BSP/Components/st7735/st7735.c **** 
 226              		.loc 1 311 1 is_stmt 0 view .LVU56
 227 003a 02B0     		add	sp, sp, #8
 228              		.cfi_def_cfa_offset 8
 229              		@ sp needed
 230 003c 10BD     		pop	{r4, pc}
 231              		.cfi_endproc
 232              	.LFE4:
 234 003e 00BF     		.section	.text.st7735_SetDisplayWindow,"ax",%progbits
 235              		.align	1
 236              		.p2align 2,,3
 237              		.global	st7735_SetDisplayWindow
 238              		.syntax unified
 239              		.thumb
 240              		.thumb_func
 242              	st7735_SetDisplayWindow:
 243              	.LVL13:
 244              	.LFB6:
 335:Drivers/BSP/Components/st7735/st7735.c ****   uint8_t data = 0;
 245              		.loc 1 335 1 is_stmt 1 view -0
 246              		.cfi_startproc
 247              		@ args = 0, pretend = 0, frame = 8
 248              		@ frame_needed = 0, uses_anonymous_args = 0
 336:Drivers/BSP/Components/st7735/st7735.c ****   /* Column addr set, 4 args, no delay: XSTART = Xpos, XEND = (Xpos + Width - 1) */
 249              		.loc 1 336 3 view .LVU58
 335:Drivers/BSP/Components/st7735/st7735.c ****   uint8_t data = 0;
 250              		.loc 1 335 1 is_stmt 0 view .LVU59
 251 0000 2DE9F041 		push	{r4, r5, r6, r7, r8, lr}
 252              		.cfi_def_cfa_offset 24
 253              		.cfi_offset 4, -24
 254              		.cfi_offset 5, -20
 255              		.cfi_offset 6, -16
 256              		.cfi_offset 7, -12
 257              		.cfi_offset 8, -8
 258              		.cfi_offset 14, -4
 259 0004 82B0     		sub	sp, sp, #8
 260              		.cfi_def_cfa_offset 32
 335:Drivers/BSP/Components/st7735/st7735.c ****   uint8_t data = 0;
 261              		.loc 1 335 1 view .LVU60
 262 0006 0546     		mov	r5, r0
 336:Drivers/BSP/Components/st7735/st7735.c ****   /* Column addr set, 4 args, no delay: XSTART = Xpos, XEND = (Xpos + Width - 1) */
 263              		.loc 1 336 11 view .LVU61
 264 0008 0020     		movs	r0, #0
 265              	.LVL14:
 335:Drivers/BSP/Components/st7735/st7735.c ****   uint8_t data = 0;
 266              		.loc 1 335 1 view .LVU62
 267 000a 1746     		mov	r7, r2
 336:Drivers/BSP/Components/st7735/st7735.c ****   /* Column addr set, 4 args, no delay: XSTART = Xpos, XEND = (Xpos + Width - 1) */
 268              		.loc 1 336 11 view .LVU63
 269 000c 8DF80700 		strb	r0, [sp, #7]
 338:Drivers/BSP/Components/st7735/st7735.c ****   data = (Xpos) >> 8;
 270              		.loc 1 338 3 is_stmt 1 view .LVU64
 271 0010 2A20     		movs	r0, #42
ARM GAS  /var/folders/0z/tsy30v1j4xl4_7kw94k978ww0000gn/T//ccK4WGjk.s 			page 14


 335:Drivers/BSP/Components/st7735/st7735.c ****   uint8_t data = 0;
 272              		.loc 1 335 1 is_stmt 0 view .LVU65
 273 0012 0C46     		mov	r4, r1
 274 0014 1E46     		mov	r6, r3
 341:Drivers/BSP/Components/st7735/st7735.c ****   LCD_IO_WriteMultipleData(&data, 1);
 275              		.loc 1 341 8 view .LVU66
 276 0016 5FFA85F8 		uxtb	r8, r5
 338:Drivers/BSP/Components/st7735/st7735.c ****   data = (Xpos) >> 8;
 277              		.loc 1 338 3 view .LVU67
 278 001a FFF7FEFF 		bl	LCD_IO_WriteReg
 279              	.LVL15:
 339:Drivers/BSP/Components/st7735/st7735.c ****   LCD_IO_WriteMultipleData(&data, 1);
 280              		.loc 1 339 3 is_stmt 1 view .LVU68
 339:Drivers/BSP/Components/st7735/st7735.c ****   LCD_IO_WriteMultipleData(&data, 1);
 281              		.loc 1 339 8 is_stmt 0 view .LVU69
 282 001e 2B0A     		lsrs	r3, r5, #8
 340:Drivers/BSP/Components/st7735/st7735.c ****   data = (Xpos) & 0xFF;
 283              		.loc 1 340 3 view .LVU70
 284 0020 0DF10700 		add	r0, sp, #7
 285 0024 0121     		movs	r1, #1
 343:Drivers/BSP/Components/st7735/st7735.c ****   LCD_IO_WriteMultipleData(&data, 1);
 286              		.loc 1 343 16 view .LVU71
 287 0026 3D44     		add	r5, r5, r7
 339:Drivers/BSP/Components/st7735/st7735.c ****   LCD_IO_WriteMultipleData(&data, 1);
 288              		.loc 1 339 8 view .LVU72
 289 0028 8DF80730 		strb	r3, [sp, #7]
 340:Drivers/BSP/Components/st7735/st7735.c ****   data = (Xpos) & 0xFF;
 290              		.loc 1 340 3 is_stmt 1 view .LVU73
 343:Drivers/BSP/Components/st7735/st7735.c ****   LCD_IO_WriteMultipleData(&data, 1);
 291              		.loc 1 343 24 is_stmt 0 view .LVU74
 292 002c 013D     		subs	r5, r5, #1
 340:Drivers/BSP/Components/st7735/st7735.c ****   data = (Xpos) & 0xFF;
 293              		.loc 1 340 3 view .LVU75
 294 002e FFF7FEFF 		bl	LCD_IO_WriteMultipleData
 295              	.LVL16:
 341:Drivers/BSP/Components/st7735/st7735.c ****   LCD_IO_WriteMultipleData(&data, 1);
 296              		.loc 1 341 3 is_stmt 1 view .LVU76
 342:Drivers/BSP/Components/st7735/st7735.c ****   data = (Xpos + Width - 1) >> 8;
 297              		.loc 1 342 3 is_stmt 0 view .LVU77
 298 0032 0DF10700 		add	r0, sp, #7
 299 0036 0121     		movs	r1, #1
 341:Drivers/BSP/Components/st7735/st7735.c ****   LCD_IO_WriteMultipleData(&data, 1);
 300              		.loc 1 341 8 view .LVU78
 301 0038 8DF80780 		strb	r8, [sp, #7]
 342:Drivers/BSP/Components/st7735/st7735.c ****   data = (Xpos + Width - 1) >> 8;
 302              		.loc 1 342 3 is_stmt 1 view .LVU79
 343:Drivers/BSP/Components/st7735/st7735.c ****   LCD_IO_WriteMultipleData(&data, 1);
 303              		.loc 1 343 29 is_stmt 0 view .LVU80
 304 003c 2D12     		asrs	r5, r5, #8
 342:Drivers/BSP/Components/st7735/st7735.c ****   data = (Xpos + Width - 1) >> 8;
 305              		.loc 1 342 3 view .LVU81
 306 003e FFF7FEFF 		bl	LCD_IO_WriteMultipleData
 307              	.LVL17:
 343:Drivers/BSP/Components/st7735/st7735.c ****   LCD_IO_WriteMultipleData(&data, 1);
 308              		.loc 1 343 3 is_stmt 1 view .LVU82
 345:Drivers/BSP/Components/st7735/st7735.c ****   LCD_IO_WriteMultipleData(&data, 1);
 309              		.loc 1 345 24 is_stmt 0 view .LVU83
ARM GAS  /var/folders/0z/tsy30v1j4xl4_7kw94k978ww0000gn/T//ccK4WGjk.s 			page 15


 310 0042 013F     		subs	r7, r7, #1
 344:Drivers/BSP/Components/st7735/st7735.c ****   data = (Xpos + Width - 1) & 0xFF;
 311              		.loc 1 344 3 view .LVU84
 312 0044 0DF10700 		add	r0, sp, #7
 313 0048 0121     		movs	r1, #1
 343:Drivers/BSP/Components/st7735/st7735.c ****   LCD_IO_WriteMultipleData(&data, 1);
 314              		.loc 1 343 8 view .LVU85
 315 004a 8DF80750 		strb	r5, [sp, #7]
 344:Drivers/BSP/Components/st7735/st7735.c ****   data = (Xpos + Width - 1) & 0xFF;
 316              		.loc 1 344 3 is_stmt 1 view .LVU86
 345:Drivers/BSP/Components/st7735/st7735.c ****   LCD_IO_WriteMultipleData(&data, 1);
 317              		.loc 1 345 24 is_stmt 0 view .LVU87
 318 004e B844     		add	r8, r8, r7
 344:Drivers/BSP/Components/st7735/st7735.c ****   data = (Xpos + Width - 1) & 0xFF;
 319              		.loc 1 344 3 view .LVU88
 320 0050 FFF7FEFF 		bl	LCD_IO_WriteMultipleData
 321              	.LVL18:
 345:Drivers/BSP/Components/st7735/st7735.c ****   LCD_IO_WriteMultipleData(&data, 1);
 322              		.loc 1 345 3 is_stmt 1 view .LVU89
 346:Drivers/BSP/Components/st7735/st7735.c ****   /* Row addr set, 4 args, no delay: YSTART = Ypos, YEND = (Ypos + Height - 1) */
 323              		.loc 1 346 3 is_stmt 0 view .LVU90
 324 0054 0121     		movs	r1, #1
 325 0056 0DF10700 		add	r0, sp, #7
 345:Drivers/BSP/Components/st7735/st7735.c ****   LCD_IO_WriteMultipleData(&data, 1);
 326              		.loc 1 345 8 view .LVU91
 327 005a 8DF80780 		strb	r8, [sp, #7]
 346:Drivers/BSP/Components/st7735/st7735.c ****   /* Row addr set, 4 args, no delay: YSTART = Ypos, YEND = (Ypos + Height - 1) */
 328              		.loc 1 346 3 is_stmt 1 view .LVU92
 329 005e FFF7FEFF 		bl	LCD_IO_WriteMultipleData
 330              	.LVL19:
 348:Drivers/BSP/Components/st7735/st7735.c ****   data = (Ypos) >> 8;
 331              		.loc 1 348 3 view .LVU93
 332 0062 2B20     		movs	r0, #43
 333 0064 FFF7FEFF 		bl	LCD_IO_WriteReg
 334              	.LVL20:
 349:Drivers/BSP/Components/st7735/st7735.c ****   LCD_IO_WriteMultipleData(&data, 1);
 335              		.loc 1 349 3 view .LVU94
 351:Drivers/BSP/Components/st7735/st7735.c ****   LCD_IO_WriteMultipleData(&data, 1);
 336              		.loc 1 351 8 is_stmt 0 view .LVU95
 337 0068 E5B2     		uxtb	r5, r4
 349:Drivers/BSP/Components/st7735/st7735.c ****   LCD_IO_WriteMultipleData(&data, 1);
 338              		.loc 1 349 8 view .LVU96
 339 006a 230A     		lsrs	r3, r4, #8
 350:Drivers/BSP/Components/st7735/st7735.c ****   data = (Ypos) & 0xFF;
 340              		.loc 1 350 3 view .LVU97
 341 006c 0DF10700 		add	r0, sp, #7
 342 0070 0121     		movs	r1, #1
 353:Drivers/BSP/Components/st7735/st7735.c ****   LCD_IO_WriteMultipleData(&data, 1);
 343              		.loc 1 353 16 view .LVU98
 344 0072 3444     		add	r4, r4, r6
 349:Drivers/BSP/Components/st7735/st7735.c ****   LCD_IO_WriteMultipleData(&data, 1);
 345              		.loc 1 349 8 view .LVU99
 346 0074 8DF80730 		strb	r3, [sp, #7]
 350:Drivers/BSP/Components/st7735/st7735.c ****   data = (Ypos) & 0xFF;
 347              		.loc 1 350 3 is_stmt 1 view .LVU100
 353:Drivers/BSP/Components/st7735/st7735.c ****   LCD_IO_WriteMultipleData(&data, 1);
 348              		.loc 1 353 25 is_stmt 0 view .LVU101
ARM GAS  /var/folders/0z/tsy30v1j4xl4_7kw94k978ww0000gn/T//ccK4WGjk.s 			page 16


 349 0078 013C     		subs	r4, r4, #1
 350:Drivers/BSP/Components/st7735/st7735.c ****   data = (Ypos) & 0xFF;
 350              		.loc 1 350 3 view .LVU102
 351 007a FFF7FEFF 		bl	LCD_IO_WriteMultipleData
 352              	.LVL21:
 351:Drivers/BSP/Components/st7735/st7735.c ****   LCD_IO_WriteMultipleData(&data, 1);
 353              		.loc 1 351 3 is_stmt 1 view .LVU103
 352:Drivers/BSP/Components/st7735/st7735.c ****   data = (Ypos + Height - 1) >> 8;
 354              		.loc 1 352 3 is_stmt 0 view .LVU104
 355 007e 0DF10700 		add	r0, sp, #7
 356 0082 0121     		movs	r1, #1
 351:Drivers/BSP/Components/st7735/st7735.c ****   LCD_IO_WriteMultipleData(&data, 1);
 357              		.loc 1 351 8 view .LVU105
 358 0084 8DF80750 		strb	r5, [sp, #7]
 352:Drivers/BSP/Components/st7735/st7735.c ****   data = (Ypos + Height - 1) >> 8;
 359              		.loc 1 352 3 is_stmt 1 view .LVU106
 353:Drivers/BSP/Components/st7735/st7735.c ****   LCD_IO_WriteMultipleData(&data, 1);
 360              		.loc 1 353 30 is_stmt 0 view .LVU107
 361 0088 2412     		asrs	r4, r4, #8
 352:Drivers/BSP/Components/st7735/st7735.c ****   data = (Ypos + Height - 1) >> 8;
 362              		.loc 1 352 3 view .LVU108
 363 008a FFF7FEFF 		bl	LCD_IO_WriteMultipleData
 364              	.LVL22:
 353:Drivers/BSP/Components/st7735/st7735.c ****   LCD_IO_WriteMultipleData(&data, 1);
 365              		.loc 1 353 3 is_stmt 1 view .LVU109
 355:Drivers/BSP/Components/st7735/st7735.c ****   LCD_IO_WriteMultipleData(&data, 1);
 366              		.loc 1 355 25 is_stmt 0 view .LVU110
 367 008e 013E     		subs	r6, r6, #1
 354:Drivers/BSP/Components/st7735/st7735.c ****   data = (Ypos + Height - 1) & 0xFF;
 368              		.loc 1 354 3 view .LVU111
 369 0090 0DF10700 		add	r0, sp, #7
 370 0094 0121     		movs	r1, #1
 353:Drivers/BSP/Components/st7735/st7735.c ****   LCD_IO_WriteMultipleData(&data, 1);
 371              		.loc 1 353 8 view .LVU112
 372 0096 8DF80740 		strb	r4, [sp, #7]
 354:Drivers/BSP/Components/st7735/st7735.c ****   data = (Ypos + Height - 1) & 0xFF;
 373              		.loc 1 354 3 is_stmt 1 view .LVU113
 355:Drivers/BSP/Components/st7735/st7735.c ****   LCD_IO_WriteMultipleData(&data, 1);
 374              		.loc 1 355 25 is_stmt 0 view .LVU114
 375 009a 3544     		add	r5, r5, r6
 354:Drivers/BSP/Components/st7735/st7735.c ****   data = (Ypos + Height - 1) & 0xFF;
 376              		.loc 1 354 3 view .LVU115
 377 009c FFF7FEFF 		bl	LCD_IO_WriteMultipleData
 378              	.LVL23:
 355:Drivers/BSP/Components/st7735/st7735.c ****   LCD_IO_WriteMultipleData(&data, 1);
 379              		.loc 1 355 3 is_stmt 1 view .LVU116
 356:Drivers/BSP/Components/st7735/st7735.c **** }
 380              		.loc 1 356 3 is_stmt 0 view .LVU117
 381 00a0 0121     		movs	r1, #1
 382 00a2 0DF10700 		add	r0, sp, #7
 355:Drivers/BSP/Components/st7735/st7735.c ****   LCD_IO_WriteMultipleData(&data, 1);
 383              		.loc 1 355 8 view .LVU118
 384 00a6 8DF80750 		strb	r5, [sp, #7]
 356:Drivers/BSP/Components/st7735/st7735.c **** }
 385              		.loc 1 356 3 is_stmt 1 view .LVU119
 386 00aa FFF7FEFF 		bl	LCD_IO_WriteMultipleData
 387              	.LVL24:
ARM GAS  /var/folders/0z/tsy30v1j4xl4_7kw94k978ww0000gn/T//ccK4WGjk.s 			page 17


 357:Drivers/BSP/Components/st7735/st7735.c **** 
 388              		.loc 1 357 1 is_stmt 0 view .LVU120
 389 00ae 02B0     		add	sp, sp, #8
 390              		.cfi_def_cfa_offset 24
 391              		@ sp needed
 392 00b0 BDE8F081 		pop	{r4, r5, r6, r7, r8, pc}
 393              		.cfi_endproc
 394              	.LFE6:
 396              		.section	.text.st7735_DrawHLine,"ax",%progbits
 397              		.align	1
 398              		.p2align 2,,3
 399              		.global	st7735_DrawHLine
 400              		.syntax unified
 401              		.thumb
 402              		.thumb_func
 404              	st7735_DrawHLine:
 405              	.LVL25:
 406              	.LFB7:
 368:Drivers/BSP/Components/st7735/st7735.c ****   uint8_t counter = 0;
 407              		.loc 1 368 1 is_stmt 1 view -0
 408              		.cfi_startproc
 409              		@ args = 0, pretend = 0, frame = 0
 410              		@ frame_needed = 0, uses_anonymous_args = 0
 369:Drivers/BSP/Components/st7735/st7735.c ****   
 411              		.loc 1 369 3 view .LVU122
 371:Drivers/BSP/Components/st7735/st7735.c ****   
 412              		.loc 1 371 3 view .LVU123
 368:Drivers/BSP/Components/st7735/st7735.c ****   uint8_t counter = 0;
 413              		.loc 1 368 1 is_stmt 0 view .LVU124
 414 0000 38B5     		push	{r3, r4, r5, lr}
 415              		.cfi_def_cfa_offset 16
 416              		.cfi_offset 3, -16
 417              		.cfi_offset 4, -12
 418              		.cfi_offset 5, -8
 419              		.cfi_offset 14, -4
 368:Drivers/BSP/Components/st7735/st7735.c ****   uint8_t counter = 0;
 420              		.loc 1 368 1 view .LVU125
 421 0002 1C46     		mov	r4, r3
 371:Drivers/BSP/Components/st7735/st7735.c ****   
 422              		.loc 1 371 11 view .LVU126
 423 0004 CB18     		adds	r3, r1, r3
 424              	.LVL26:
 371:Drivers/BSP/Components/st7735/st7735.c ****   
 425              		.loc 1 371 5 view .LVU127
 426 0006 802B     		cmp	r3, #128
 427 0008 00DD     		ble	.L21
 381:Drivers/BSP/Components/st7735/st7735.c **** 
 428              		.loc 1 381 1 view .LVU128
 429 000a 38BD     		pop	{r3, r4, r5, pc}
 430              	.L21:
 374:Drivers/BSP/Components/st7735/st7735.c ****   
 431              		.loc 1 374 3 is_stmt 1 view .LVU129
 432 000c 8C46     		mov	ip, r1
 433 000e 0546     		mov	r5, r0
 434 0010 1146     		mov	r1, r2
 435              	.LVL27:
 374:Drivers/BSP/Components/st7735/st7735.c ****   
ARM GAS  /var/folders/0z/tsy30v1j4xl4_7kw94k978ww0000gn/T//ccK4WGjk.s 			page 18


 436              		.loc 1 374 3 is_stmt 0 view .LVU130
 437 0012 6046     		mov	r0, ip
 438              	.LVL28:
 374:Drivers/BSP/Components/st7735/st7735.c ****   
 439              		.loc 1 374 3 view .LVU131
 440 0014 FFF7FEFF 		bl	st7735_SetCursor
 441              	.LVL29:
 376:Drivers/BSP/Components/st7735/st7735.c ****   {
 442              		.loc 1 376 3 is_stmt 1 view .LVU132
 376:Drivers/BSP/Components/st7735/st7735.c ****   {
 443              		.loc 1 376 28 view .LVU133
 444 0018 44B1     		cbz	r4, .L14
 445 001a 0748     		ldr	r0, .L22
 376:Drivers/BSP/Components/st7735/st7735.c ****   {
 446              		.loc 1 376 15 is_stmt 0 view .LVU134
 447 001c 0022     		movs	r2, #0
 448              	.LVL30:
 449              	.L15:
 378:Drivers/BSP/Components/st7735/st7735.c ****   }
 450              		.loc 1 378 5 is_stmt 1 discriminator 3 view .LVU135
 376:Drivers/BSP/Components/st7735/st7735.c ****   {
 451              		.loc 1 376 45 is_stmt 0 discriminator 3 view .LVU136
 452 001e 511C     		adds	r1, r2, #1
 376:Drivers/BSP/Components/st7735/st7735.c ****   {
 453              		.loc 1 376 28 discriminator 3 view .LVU137
 454 0020 CBB2     		uxtb	r3, r1
 455 0022 A342     		cmp	r3, r4
 378:Drivers/BSP/Components/st7735/st7735.c ****   }
 456              		.loc 1 378 23 discriminator 3 view .LVU138
 457 0024 20F81250 		strh	r5, [r0, r2, lsl #1]	@ movhi
 376:Drivers/BSP/Components/st7735/st7735.c ****   {
 458              		.loc 1 376 45 is_stmt 1 discriminator 3 view .LVU139
 459 0028 1A46     		mov	r2, r3
 460              	.LVL31:
 376:Drivers/BSP/Components/st7735/st7735.c ****   {
 461              		.loc 1 376 28 discriminator 3 view .LVU140
 462 002a F8D3     		bcc	.L15
 463              	.LVL32:
 464              	.L14:
 380:Drivers/BSP/Components/st7735/st7735.c **** }
 465              		.loc 1 380 3 view .LVU141
 466 002c 6100     		lsls	r1, r4, #1
 467 002e 0248     		ldr	r0, .L22
 381:Drivers/BSP/Components/st7735/st7735.c **** 
 468              		.loc 1 381 1 is_stmt 0 view .LVU142
 469 0030 BDE83840 		pop	{r3, r4, r5, lr}
 470              		.cfi_restore 14
 471              		.cfi_restore 5
 472              		.cfi_restore 4
 473              		.cfi_restore 3
 474              		.cfi_def_cfa_offset 0
 380:Drivers/BSP/Components/st7735/st7735.c **** }
 475              		.loc 1 380 3 view .LVU143
 476 0034 FFF7FEBF 		b	LCD_IO_WriteMultipleData
 477              	.LVL33:
 478              	.L23:
 479              		.align	2
ARM GAS  /var/folders/0z/tsy30v1j4xl4_7kw94k978ww0000gn/T//ccK4WGjk.s 			page 19


 480              	.L22:
 481 0038 00000000 		.word	.LANCHOR0
 482              		.cfi_endproc
 483              	.LFE7:
 485              		.section	.text.st7735_Init,"ax",%progbits
 486              		.align	1
 487              		.p2align 2,,3
 488              		.global	st7735_Init
 489              		.syntax unified
 490              		.thumb
 491              		.thumb_func
 493              	st7735_Init:
 494              	.LFB0:
 126:Drivers/BSP/Components/st7735/st7735.c ****   uint8_t data = 0;
 495              		.loc 1 126 1 is_stmt 1 view -0
 496              		.cfi_startproc
 497              		@ args = 0, pretend = 0, frame = 8
 498              		@ frame_needed = 0, uses_anonymous_args = 0
 127:Drivers/BSP/Components/st7735/st7735.c ****   
 499              		.loc 1 127 3 view .LVU145
 126:Drivers/BSP/Components/st7735/st7735.c ****   uint8_t data = 0;
 500              		.loc 1 126 1 is_stmt 0 view .LVU146
 501 0000 2DE9F04F 		push	{r4, r5, r6, r7, r8, r9, r10, fp, lr}
 502              		.cfi_def_cfa_offset 36
 503              		.cfi_offset 4, -36
 504              		.cfi_offset 5, -32
 505              		.cfi_offset 6, -28
 506              		.cfi_offset 7, -24
 507              		.cfi_offset 8, -20
 508              		.cfi_offset 9, -16
 509              		.cfi_offset 10, -12
 510              		.cfi_offset 11, -8
 511              		.cfi_offset 14, -4
 512 0004 83B0     		sub	sp, sp, #12
 513              		.cfi_def_cfa_offset 48
 127:Drivers/BSP/Components/st7735/st7735.c ****   
 514              		.loc 1 127 11 view .LVU147
 515 0006 0025     		movs	r5, #0
 516 0008 8DF80650 		strb	r5, [sp, #6]
 130:Drivers/BSP/Components/st7735/st7735.c ****   /* Out of sleep mode, 0 args, no delay */
 517              		.loc 1 130 3 is_stmt 1 view .LVU148
 518 000c FFF7FEFF 		bl	LCD_IO_Init
 519              	.LVL34:
 132:Drivers/BSP/Components/st7735/st7735.c ****   /* Frame rate ctrl - normal mode, 3 args:Rate = fosc/(1x2+40) * (LINE+2C+2D)*/
 520              		.loc 1 132 3 view .LVU149
 521              	.LBB122:
 522              	.LBB123:
 322:Drivers/BSP/Components/st7735/st7735.c ****   LCD_IO_WriteMultipleData(&LCDRegValue, 1);
 523              		.loc 1 322 3 is_stmt 0 view .LVU150
 524 0010 1120     		movs	r0, #17
 525 0012 8DF80750 		strb	r5, [sp, #7]
 526              	.LVL35:
 322:Drivers/BSP/Components/st7735/st7735.c ****   LCD_IO_WriteMultipleData(&LCDRegValue, 1);
 527              		.loc 1 322 3 view .LVU151
 528              	.LBE123:
 529              	.LBI122:
 320:Drivers/BSP/Components/st7735/st7735.c **** {
ARM GAS  /var/folders/0z/tsy30v1j4xl4_7kw94k978ww0000gn/T//ccK4WGjk.s 			page 20


 530              		.loc 1 320 6 is_stmt 1 view .LVU152
 531              	.LBB124:
 322:Drivers/BSP/Components/st7735/st7735.c ****   LCD_IO_WriteMultipleData(&LCDRegValue, 1);
 532              		.loc 1 322 3 view .LVU153
 533 0016 FFF7FEFF 		bl	LCD_IO_WriteReg
 534              	.LVL36:
 323:Drivers/BSP/Components/st7735/st7735.c **** }
 535              		.loc 1 323 3 view .LVU154
 536 001a 0121     		movs	r1, #1
 537 001c 0DF10700 		add	r0, sp, #7
 538              	.LBE124:
 539              	.LBE122:
 135:Drivers/BSP/Components/st7735/st7735.c ****   LCD_IO_WriteMultipleData(&data, 1);
 540              		.loc 1 135 8 is_stmt 0 view .LVU155
 541 0020 0C46     		mov	r4, r1
 542              	.LBB126:
 543              	.LBB125:
 323:Drivers/BSP/Components/st7735/st7735.c **** }
 544              		.loc 1 323 3 view .LVU156
 545 0022 FFF7FEFF 		bl	LCD_IO_WriteMultipleData
 546              	.LVL37:
 323:Drivers/BSP/Components/st7735/st7735.c **** }
 547              		.loc 1 323 3 view .LVU157
 548              	.LBE125:
 549              	.LBE126:
 134:Drivers/BSP/Components/st7735/st7735.c ****   data = 0x01;
 550              		.loc 1 134 3 is_stmt 1 view .LVU158
 551 0026 B120     		movs	r0, #177
 552 0028 FFF7FEFF 		bl	LCD_IO_WriteReg
 553              	.LVL38:
 135:Drivers/BSP/Components/st7735/st7735.c ****   LCD_IO_WriteMultipleData(&data, 1);
 554              		.loc 1 135 3 view .LVU159
 136:Drivers/BSP/Components/st7735/st7735.c ****   data = 0x2C;
 555              		.loc 1 136 3 is_stmt 0 view .LVU160
 556 002c 2146     		mov	r1, r4
 557 002e 0DF10600 		add	r0, sp, #6
 137:Drivers/BSP/Components/st7735/st7735.c ****   LCD_IO_WriteMultipleData(&data, 1);
 558              		.loc 1 137 8 view .LVU161
 559 0032 2C27     		movs	r7, #44
 135:Drivers/BSP/Components/st7735/st7735.c ****   LCD_IO_WriteMultipleData(&data, 1);
 560              		.loc 1 135 8 view .LVU162
 561 0034 8DF80640 		strb	r4, [sp, #6]
 136:Drivers/BSP/Components/st7735/st7735.c ****   data = 0x2C;
 562              		.loc 1 136 3 is_stmt 1 view .LVU163
 563 0038 FFF7FEFF 		bl	LCD_IO_WriteMultipleData
 564              	.LVL39:
 137:Drivers/BSP/Components/st7735/st7735.c ****   LCD_IO_WriteMultipleData(&data, 1);
 565              		.loc 1 137 3 view .LVU164
 138:Drivers/BSP/Components/st7735/st7735.c ****   data = 0x2D;
 566              		.loc 1 138 3 is_stmt 0 view .LVU165
 567 003c 2146     		mov	r1, r4
 568 003e 0DF10600 		add	r0, sp, #6
 139:Drivers/BSP/Components/st7735/st7735.c ****   LCD_IO_WriteMultipleData(&data, 1);
 569              		.loc 1 139 8 view .LVU166
 570 0042 2D26     		movs	r6, #45
 137:Drivers/BSP/Components/st7735/st7735.c ****   LCD_IO_WriteMultipleData(&data, 1);
 571              		.loc 1 137 8 view .LVU167
ARM GAS  /var/folders/0z/tsy30v1j4xl4_7kw94k978ww0000gn/T//ccK4WGjk.s 			page 21


 572 0044 8DF80670 		strb	r7, [sp, #6]
 138:Drivers/BSP/Components/st7735/st7735.c ****   data = 0x2D;
 573              		.loc 1 138 3 is_stmt 1 view .LVU168
 574 0048 FFF7FEFF 		bl	LCD_IO_WriteMultipleData
 575              	.LVL40:
 139:Drivers/BSP/Components/st7735/st7735.c ****   LCD_IO_WriteMultipleData(&data, 1);
 576              		.loc 1 139 3 view .LVU169
 140:Drivers/BSP/Components/st7735/st7735.c ****   /* Frame rate control - idle mode, 3 args:Rate = fosc/(1x2+40) * (LINE+2C+2D) */    
 577              		.loc 1 140 3 is_stmt 0 view .LVU170
 578 004c 2146     		mov	r1, r4
 579 004e 0DF10600 		add	r0, sp, #6
 139:Drivers/BSP/Components/st7735/st7735.c ****   LCD_IO_WriteMultipleData(&data, 1);
 580              		.loc 1 139 8 view .LVU171
 581 0052 8DF80660 		strb	r6, [sp, #6]
 140:Drivers/BSP/Components/st7735/st7735.c ****   /* Frame rate control - idle mode, 3 args:Rate = fosc/(1x2+40) * (LINE+2C+2D) */    
 582              		.loc 1 140 3 is_stmt 1 view .LVU172
 583 0056 FFF7FEFF 		bl	LCD_IO_WriteMultipleData
 584              	.LVL41:
 142:Drivers/BSP/Components/st7735/st7735.c ****   st7735_WriteReg(LCD_REG_178, 0x2C);
 585              		.loc 1 142 3 view .LVU173
 586              	.LBB127:
 587              	.LBB128:
 322:Drivers/BSP/Components/st7735/st7735.c ****   LCD_IO_WriteMultipleData(&LCDRegValue, 1);
 588              		.loc 1 322 3 is_stmt 0 view .LVU174
 589 005a B220     		movs	r0, #178
 590 005c 8DF80740 		strb	r4, [sp, #7]
 591              	.LVL42:
 322:Drivers/BSP/Components/st7735/st7735.c ****   LCD_IO_WriteMultipleData(&LCDRegValue, 1);
 592              		.loc 1 322 3 view .LVU175
 593              	.LBE128:
 594              	.LBI127:
 320:Drivers/BSP/Components/st7735/st7735.c **** {
 595              		.loc 1 320 6 is_stmt 1 view .LVU176
 596              	.LBB129:
 322:Drivers/BSP/Components/st7735/st7735.c ****   LCD_IO_WriteMultipleData(&LCDRegValue, 1);
 597              		.loc 1 322 3 view .LVU177
 598 0060 FFF7FEFF 		bl	LCD_IO_WriteReg
 599              	.LVL43:
 323:Drivers/BSP/Components/st7735/st7735.c **** }
 600              		.loc 1 323 3 view .LVU178
 601 0064 2146     		mov	r1, r4
 602 0066 0DF10700 		add	r0, sp, #7
 603 006a FFF7FEFF 		bl	LCD_IO_WriteMultipleData
 604              	.LVL44:
 323:Drivers/BSP/Components/st7735/st7735.c **** }
 605              		.loc 1 323 3 is_stmt 0 view .LVU179
 606              	.LBE129:
 607              	.LBE127:
 143:Drivers/BSP/Components/st7735/st7735.c ****   st7735_WriteReg(LCD_REG_178, 0x2D);
 608              		.loc 1 143 3 is_stmt 1 view .LVU180
 609              	.LBB130:
 610              	.LBB131:
 322:Drivers/BSP/Components/st7735/st7735.c ****   LCD_IO_WriteMultipleData(&LCDRegValue, 1);
 611              		.loc 1 322 3 is_stmt 0 view .LVU181
 612 006e B220     		movs	r0, #178
 613 0070 8DF80770 		strb	r7, [sp, #7]
 614              	.LVL45:
ARM GAS  /var/folders/0z/tsy30v1j4xl4_7kw94k978ww0000gn/T//ccK4WGjk.s 			page 22


 322:Drivers/BSP/Components/st7735/st7735.c ****   LCD_IO_WriteMultipleData(&LCDRegValue, 1);
 615              		.loc 1 322 3 view .LVU182
 616              	.LBE131:
 617              	.LBI130:
 320:Drivers/BSP/Components/st7735/st7735.c **** {
 618              		.loc 1 320 6 is_stmt 1 view .LVU183
 619              	.LBB132:
 322:Drivers/BSP/Components/st7735/st7735.c ****   LCD_IO_WriteMultipleData(&LCDRegValue, 1);
 620              		.loc 1 322 3 view .LVU184
 621 0074 FFF7FEFF 		bl	LCD_IO_WriteReg
 622              	.LVL46:
 323:Drivers/BSP/Components/st7735/st7735.c **** }
 623              		.loc 1 323 3 view .LVU185
 624 0078 2146     		mov	r1, r4
 625 007a 0DF10700 		add	r0, sp, #7
 626 007e FFF7FEFF 		bl	LCD_IO_WriteMultipleData
 627              	.LVL47:
 323:Drivers/BSP/Components/st7735/st7735.c **** }
 628              		.loc 1 323 3 is_stmt 0 view .LVU186
 629              	.LBE132:
 630              	.LBE130:
 144:Drivers/BSP/Components/st7735/st7735.c ****   /* Frame rate ctrl - partial mode, 6 args: Dot inversion mode, Line inversion mode */ 
 631              		.loc 1 144 3 is_stmt 1 view .LVU187
 632              	.LBB133:
 633              	.LBB134:
 322:Drivers/BSP/Components/st7735/st7735.c ****   LCD_IO_WriteMultipleData(&LCDRegValue, 1);
 634              		.loc 1 322 3 is_stmt 0 view .LVU188
 635 0082 B220     		movs	r0, #178
 636 0084 8DF80760 		strb	r6, [sp, #7]
 637              	.LVL48:
 322:Drivers/BSP/Components/st7735/st7735.c ****   LCD_IO_WriteMultipleData(&LCDRegValue, 1);
 638              		.loc 1 322 3 view .LVU189
 639              	.LBE134:
 640              	.LBI133:
 320:Drivers/BSP/Components/st7735/st7735.c **** {
 641              		.loc 1 320 6 is_stmt 1 view .LVU190
 642              	.LBB135:
 322:Drivers/BSP/Components/st7735/st7735.c ****   LCD_IO_WriteMultipleData(&LCDRegValue, 1);
 643              		.loc 1 322 3 view .LVU191
 644 0088 FFF7FEFF 		bl	LCD_IO_WriteReg
 645              	.LVL49:
 323:Drivers/BSP/Components/st7735/st7735.c **** }
 646              		.loc 1 323 3 view .LVU192
 647 008c 2146     		mov	r1, r4
 648 008e 0DF10700 		add	r0, sp, #7
 649 0092 FFF7FEFF 		bl	LCD_IO_WriteMultipleData
 650              	.LVL50:
 323:Drivers/BSP/Components/st7735/st7735.c **** }
 651              		.loc 1 323 3 is_stmt 0 view .LVU193
 652              	.LBE135:
 653              	.LBE133:
 146:Drivers/BSP/Components/st7735/st7735.c ****   st7735_WriteReg(LCD_REG_179, 0x2C);
 654              		.loc 1 146 3 is_stmt 1 view .LVU194
 655              	.LBB136:
 656              	.LBB137:
 322:Drivers/BSP/Components/st7735/st7735.c ****   LCD_IO_WriteMultipleData(&LCDRegValue, 1);
 657              		.loc 1 322 3 is_stmt 0 view .LVU195
ARM GAS  /var/folders/0z/tsy30v1j4xl4_7kw94k978ww0000gn/T//ccK4WGjk.s 			page 23


 658 0096 B320     		movs	r0, #179
 659 0098 8DF80740 		strb	r4, [sp, #7]
 660              	.LVL51:
 322:Drivers/BSP/Components/st7735/st7735.c ****   LCD_IO_WriteMultipleData(&LCDRegValue, 1);
 661              		.loc 1 322 3 view .LVU196
 662              	.LBE137:
 663              	.LBI136:
 320:Drivers/BSP/Components/st7735/st7735.c **** {
 664              		.loc 1 320 6 is_stmt 1 view .LVU197
 665              	.LBB138:
 322:Drivers/BSP/Components/st7735/st7735.c ****   LCD_IO_WriteMultipleData(&LCDRegValue, 1);
 666              		.loc 1 322 3 view .LVU198
 667 009c FFF7FEFF 		bl	LCD_IO_WriteReg
 668              	.LVL52:
 323:Drivers/BSP/Components/st7735/st7735.c **** }
 669              		.loc 1 323 3 view .LVU199
 670 00a0 2146     		mov	r1, r4
 671 00a2 0DF10700 		add	r0, sp, #7
 672 00a6 FFF7FEFF 		bl	LCD_IO_WriteMultipleData
 673              	.LVL53:
 323:Drivers/BSP/Components/st7735/st7735.c **** }
 674              		.loc 1 323 3 is_stmt 0 view .LVU200
 675              	.LBE138:
 676              	.LBE136:
 147:Drivers/BSP/Components/st7735/st7735.c ****   st7735_WriteReg(LCD_REG_179, 0x2D);
 677              		.loc 1 147 3 is_stmt 1 view .LVU201
 678              	.LBB139:
 679              	.LBB140:
 322:Drivers/BSP/Components/st7735/st7735.c ****   LCD_IO_WriteMultipleData(&LCDRegValue, 1);
 680              		.loc 1 322 3 is_stmt 0 view .LVU202
 681 00aa B320     		movs	r0, #179
 682 00ac 8DF80770 		strb	r7, [sp, #7]
 683              	.LVL54:
 322:Drivers/BSP/Components/st7735/st7735.c ****   LCD_IO_WriteMultipleData(&LCDRegValue, 1);
 684              		.loc 1 322 3 view .LVU203
 685              	.LBE140:
 686              	.LBI139:
 320:Drivers/BSP/Components/st7735/st7735.c **** {
 687              		.loc 1 320 6 is_stmt 1 view .LVU204
 688              	.LBB141:
 322:Drivers/BSP/Components/st7735/st7735.c ****   LCD_IO_WriteMultipleData(&LCDRegValue, 1);
 689              		.loc 1 322 3 view .LVU205
 690 00b0 FFF7FEFF 		bl	LCD_IO_WriteReg
 691              	.LVL55:
 323:Drivers/BSP/Components/st7735/st7735.c **** }
 692              		.loc 1 323 3 view .LVU206
 693 00b4 2146     		mov	r1, r4
 694 00b6 0DF10700 		add	r0, sp, #7
 695 00ba FFF7FEFF 		bl	LCD_IO_WriteMultipleData
 696              	.LVL56:
 323:Drivers/BSP/Components/st7735/st7735.c **** }
 697              		.loc 1 323 3 is_stmt 0 view .LVU207
 698              	.LBE141:
 699              	.LBE139:
 148:Drivers/BSP/Components/st7735/st7735.c ****   st7735_WriteReg(LCD_REG_179, 0x01);
 700              		.loc 1 148 3 is_stmt 1 view .LVU208
 701              	.LBB142:
ARM GAS  /var/folders/0z/tsy30v1j4xl4_7kw94k978ww0000gn/T//ccK4WGjk.s 			page 24


 702              	.LBB143:
 322:Drivers/BSP/Components/st7735/st7735.c ****   LCD_IO_WriteMultipleData(&LCDRegValue, 1);
 703              		.loc 1 322 3 is_stmt 0 view .LVU209
 704 00be B320     		movs	r0, #179
 705 00c0 8DF80760 		strb	r6, [sp, #7]
 706              	.LVL57:
 322:Drivers/BSP/Components/st7735/st7735.c ****   LCD_IO_WriteMultipleData(&LCDRegValue, 1);
 707              		.loc 1 322 3 view .LVU210
 708              	.LBE143:
 709              	.LBI142:
 320:Drivers/BSP/Components/st7735/st7735.c **** {
 710              		.loc 1 320 6 is_stmt 1 view .LVU211
 711              	.LBB144:
 322:Drivers/BSP/Components/st7735/st7735.c ****   LCD_IO_WriteMultipleData(&LCDRegValue, 1);
 712              		.loc 1 322 3 view .LVU212
 713 00c4 FFF7FEFF 		bl	LCD_IO_WriteReg
 714              	.LVL58:
 323:Drivers/BSP/Components/st7735/st7735.c **** }
 715              		.loc 1 323 3 view .LVU213
 716 00c8 2146     		mov	r1, r4
 717 00ca 0DF10700 		add	r0, sp, #7
 718 00ce FFF7FEFF 		bl	LCD_IO_WriteMultipleData
 719              	.LVL59:
 323:Drivers/BSP/Components/st7735/st7735.c **** }
 720              		.loc 1 323 3 is_stmt 0 view .LVU214
 721              	.LBE144:
 722              	.LBE142:
 149:Drivers/BSP/Components/st7735/st7735.c ****   st7735_WriteReg(LCD_REG_179, 0x2C);
 723              		.loc 1 149 3 is_stmt 1 view .LVU215
 724              	.LBB145:
 725              	.LBB146:
 322:Drivers/BSP/Components/st7735/st7735.c ****   LCD_IO_WriteMultipleData(&LCDRegValue, 1);
 726              		.loc 1 322 3 is_stmt 0 view .LVU216
 727 00d2 B320     		movs	r0, #179
 728 00d4 8DF80740 		strb	r4, [sp, #7]
 729              	.LVL60:
 322:Drivers/BSP/Components/st7735/st7735.c ****   LCD_IO_WriteMultipleData(&LCDRegValue, 1);
 730              		.loc 1 322 3 view .LVU217
 731              	.LBE146:
 732              	.LBI145:
 320:Drivers/BSP/Components/st7735/st7735.c **** {
 733              		.loc 1 320 6 is_stmt 1 view .LVU218
 734              	.LBB147:
 322:Drivers/BSP/Components/st7735/st7735.c ****   LCD_IO_WriteMultipleData(&LCDRegValue, 1);
 735              		.loc 1 322 3 view .LVU219
 736 00d8 FFF7FEFF 		bl	LCD_IO_WriteReg
 737              	.LVL61:
 323:Drivers/BSP/Components/st7735/st7735.c **** }
 738              		.loc 1 323 3 view .LVU220
 739 00dc 2146     		mov	r1, r4
 740 00de 0DF10700 		add	r0, sp, #7
 741 00e2 FFF7FEFF 		bl	LCD_IO_WriteMultipleData
 742              	.LVL62:
 323:Drivers/BSP/Components/st7735/st7735.c **** }
 743              		.loc 1 323 3 is_stmt 0 view .LVU221
 744              	.LBE147:
 745              	.LBE145:
ARM GAS  /var/folders/0z/tsy30v1j4xl4_7kw94k978ww0000gn/T//ccK4WGjk.s 			page 25


 150:Drivers/BSP/Components/st7735/st7735.c ****   st7735_WriteReg(LCD_REG_179, 0x2D);
 746              		.loc 1 150 3 is_stmt 1 view .LVU222
 747              	.LBB148:
 748              	.LBB149:
 322:Drivers/BSP/Components/st7735/st7735.c ****   LCD_IO_WriteMultipleData(&LCDRegValue, 1);
 749              		.loc 1 322 3 is_stmt 0 view .LVU223
 750 00e6 B320     		movs	r0, #179
 751 00e8 8DF80770 		strb	r7, [sp, #7]
 752              	.LVL63:
 322:Drivers/BSP/Components/st7735/st7735.c ****   LCD_IO_WriteMultipleData(&LCDRegValue, 1);
 753              		.loc 1 322 3 view .LVU224
 754              	.LBE149:
 755              	.LBI148:
 320:Drivers/BSP/Components/st7735/st7735.c **** {
 756              		.loc 1 320 6 is_stmt 1 view .LVU225
 757              	.LBB150:
 322:Drivers/BSP/Components/st7735/st7735.c ****   LCD_IO_WriteMultipleData(&LCDRegValue, 1);
 758              		.loc 1 322 3 view .LVU226
 759 00ec FFF7FEFF 		bl	LCD_IO_WriteReg
 760              	.LVL64:
 323:Drivers/BSP/Components/st7735/st7735.c **** }
 761              		.loc 1 323 3 view .LVU227
 762 00f0 2146     		mov	r1, r4
 763 00f2 0DF10700 		add	r0, sp, #7
 764 00f6 FFF7FEFF 		bl	LCD_IO_WriteMultipleData
 765              	.LVL65:
 323:Drivers/BSP/Components/st7735/st7735.c **** }
 766              		.loc 1 323 3 is_stmt 0 view .LVU228
 767              	.LBE150:
 768              	.LBE148:
 151:Drivers/BSP/Components/st7735/st7735.c ****   /* Display inversion ctrl, 1 arg, no delay: No inversion */
 769              		.loc 1 151 3 is_stmt 1 view .LVU229
 770              	.LBB151:
 771              	.LBB152:
 322:Drivers/BSP/Components/st7735/st7735.c ****   LCD_IO_WriteMultipleData(&LCDRegValue, 1);
 772              		.loc 1 322 3 is_stmt 0 view .LVU230
 773 00fa B320     		movs	r0, #179
 774 00fc 8DF80760 		strb	r6, [sp, #7]
 775              	.LVL66:
 322:Drivers/BSP/Components/st7735/st7735.c ****   LCD_IO_WriteMultipleData(&LCDRegValue, 1);
 776              		.loc 1 322 3 view .LVU231
 777              	.LBE152:
 778              	.LBI151:
 320:Drivers/BSP/Components/st7735/st7735.c **** {
 779              		.loc 1 320 6 is_stmt 1 view .LVU232
 780              	.LBB153:
 322:Drivers/BSP/Components/st7735/st7735.c ****   LCD_IO_WriteMultipleData(&LCDRegValue, 1);
 781              		.loc 1 322 3 view .LVU233
 782 0100 FFF7FEFF 		bl	LCD_IO_WriteReg
 783              	.LVL67:
 323:Drivers/BSP/Components/st7735/st7735.c **** }
 784              		.loc 1 323 3 view .LVU234
 785 0104 2146     		mov	r1, r4
 786 0106 0DF10700 		add	r0, sp, #7
 787 010a 4FF0070A 		mov	r10, #7
 788 010e FFF7FEFF 		bl	LCD_IO_WriteMultipleData
 789              	.LVL68:
ARM GAS  /var/folders/0z/tsy30v1j4xl4_7kw94k978ww0000gn/T//ccK4WGjk.s 			page 26


 323:Drivers/BSP/Components/st7735/st7735.c **** }
 790              		.loc 1 323 3 is_stmt 0 view .LVU235
 791              	.LBE153:
 792              	.LBE151:
 153:Drivers/BSP/Components/st7735/st7735.c ****   /* Power control, 3 args, no delay: -4.6V , AUTO mode */
 793              		.loc 1 153 3 is_stmt 1 view .LVU236
 794              	.LBB154:
 795              	.LBB155:
 322:Drivers/BSP/Components/st7735/st7735.c ****   LCD_IO_WriteMultipleData(&LCDRegValue, 1);
 796              		.loc 1 322 3 is_stmt 0 view .LVU237
 797 0112 B420     		movs	r0, #180
 798 0114 8DF807A0 		strb	r10, [sp, #7]
 799              	.LVL69:
 322:Drivers/BSP/Components/st7735/st7735.c ****   LCD_IO_WriteMultipleData(&LCDRegValue, 1);
 800              		.loc 1 322 3 view .LVU238
 801              	.LBE155:
 802              	.LBI154:
 320:Drivers/BSP/Components/st7735/st7735.c **** {
 803              		.loc 1 320 6 is_stmt 1 view .LVU239
 804              	.LBB156:
 322:Drivers/BSP/Components/st7735/st7735.c ****   LCD_IO_WriteMultipleData(&LCDRegValue, 1);
 805              		.loc 1 322 3 view .LVU240
 806 0118 FFF7FEFF 		bl	LCD_IO_WriteReg
 807              	.LVL70:
 323:Drivers/BSP/Components/st7735/st7735.c **** }
 808              		.loc 1 323 3 view .LVU241
 809 011c 2146     		mov	r1, r4
 810 011e 0DEB0A00 		add	r0, sp, r10
 811 0122 FFF7FEFF 		bl	LCD_IO_WriteMultipleData
 812              	.LVL71:
 323:Drivers/BSP/Components/st7735/st7735.c **** }
 813              		.loc 1 323 3 is_stmt 0 view .LVU242
 814              	.LBE156:
 815              	.LBE154:
 155:Drivers/BSP/Components/st7735/st7735.c ****   st7735_WriteReg(LCD_REG_192, 0x02);
 816              		.loc 1 155 3 is_stmt 1 view .LVU243
 155:Drivers/BSP/Components/st7735/st7735.c ****   st7735_WriteReg(LCD_REG_192, 0x02);
 817              		.loc 1 155 3 is_stmt 0 view .LVU244
 818 0126 A223     		movs	r3, #162
 819              	.LBB157:
 820              	.LBB158:
 322:Drivers/BSP/Components/st7735/st7735.c ****   LCD_IO_WriteMultipleData(&LCDRegValue, 1);
 821              		.loc 1 322 3 view .LVU245
 822 0128 C020     		movs	r0, #192
 823 012a 8DF80730 		strb	r3, [sp, #7]
 824              	.LVL72:
 322:Drivers/BSP/Components/st7735/st7735.c ****   LCD_IO_WriteMultipleData(&LCDRegValue, 1);
 825              		.loc 1 322 3 view .LVU246
 826              	.LBE158:
 827              	.LBI157:
 320:Drivers/BSP/Components/st7735/st7735.c **** {
 828              		.loc 1 320 6 is_stmt 1 view .LVU247
 829              	.LBB159:
 322:Drivers/BSP/Components/st7735/st7735.c ****   LCD_IO_WriteMultipleData(&LCDRegValue, 1);
 830              		.loc 1 322 3 view .LVU248
 831 012e FFF7FEFF 		bl	LCD_IO_WriteReg
 832              	.LVL73:
ARM GAS  /var/folders/0z/tsy30v1j4xl4_7kw94k978ww0000gn/T//ccK4WGjk.s 			page 27


 323:Drivers/BSP/Components/st7735/st7735.c **** }
 833              		.loc 1 323 3 view .LVU249
 834 0132 2146     		mov	r1, r4
 835 0134 0DEB0A00 		add	r0, sp, r10
 836 0138 FFF7FEFF 		bl	LCD_IO_WriteMultipleData
 837              	.LVL74:
 323:Drivers/BSP/Components/st7735/st7735.c **** }
 838              		.loc 1 323 3 is_stmt 0 view .LVU250
 839              	.LBE159:
 840              	.LBE157:
 156:Drivers/BSP/Components/st7735/st7735.c ****   st7735_WriteReg(LCD_REG_192, 0x84);
 841              		.loc 1 156 3 is_stmt 1 view .LVU251
 156:Drivers/BSP/Components/st7735/st7735.c ****   st7735_WriteReg(LCD_REG_192, 0x84);
 842              		.loc 1 156 3 is_stmt 0 view .LVU252
 843 013c 4FF00209 		mov	r9, #2
 844              	.LBB160:
 845              	.LBB161:
 322:Drivers/BSP/Components/st7735/st7735.c ****   LCD_IO_WriteMultipleData(&LCDRegValue, 1);
 846              		.loc 1 322 3 view .LVU253
 847 0140 C020     		movs	r0, #192
 848 0142 8DF80790 		strb	r9, [sp, #7]
 849              	.LVL75:
 322:Drivers/BSP/Components/st7735/st7735.c ****   LCD_IO_WriteMultipleData(&LCDRegValue, 1);
 850              		.loc 1 322 3 view .LVU254
 851              	.LBE161:
 852              	.LBI160:
 320:Drivers/BSP/Components/st7735/st7735.c **** {
 853              		.loc 1 320 6 is_stmt 1 view .LVU255
 854              	.LBB162:
 322:Drivers/BSP/Components/st7735/st7735.c ****   LCD_IO_WriteMultipleData(&LCDRegValue, 1);
 855              		.loc 1 322 3 view .LVU256
 856 0146 FFF7FEFF 		bl	LCD_IO_WriteReg
 857              	.LVL76:
 323:Drivers/BSP/Components/st7735/st7735.c **** }
 858              		.loc 1 323 3 view .LVU257
 859 014a 2146     		mov	r1, r4
 860 014c 0DEB0A00 		add	r0, sp, r10
 861 0150 FFF7FEFF 		bl	LCD_IO_WriteMultipleData
 862              	.LVL77:
 323:Drivers/BSP/Components/st7735/st7735.c **** }
 863              		.loc 1 323 3 is_stmt 0 view .LVU258
 864              	.LBE162:
 865              	.LBE160:
 157:Drivers/BSP/Components/st7735/st7735.c ****   /* Power control, 1 arg, no delay: VGH25 = 2.4C VGSEL = -10 VGH = 3 * AVDD */
 866              		.loc 1 157 3 is_stmt 1 view .LVU259
 157:Drivers/BSP/Components/st7735/st7735.c ****   /* Power control, 1 arg, no delay: VGH25 = 2.4C VGSEL = -10 VGH = 3 * AVDD */
 867              		.loc 1 157 3 is_stmt 0 view .LVU260
 868 0154 8423     		movs	r3, #132
 869              	.LBB163:
 870              	.LBB164:
 322:Drivers/BSP/Components/st7735/st7735.c ****   LCD_IO_WriteMultipleData(&LCDRegValue, 1);
 871              		.loc 1 322 3 view .LVU261
 872 0156 C020     		movs	r0, #192
 873 0158 8DF80730 		strb	r3, [sp, #7]
 874              	.LVL78:
 322:Drivers/BSP/Components/st7735/st7735.c ****   LCD_IO_WriteMultipleData(&LCDRegValue, 1);
 875              		.loc 1 322 3 view .LVU262
ARM GAS  /var/folders/0z/tsy30v1j4xl4_7kw94k978ww0000gn/T//ccK4WGjk.s 			page 28


 876              	.LBE164:
 877              	.LBI163:
 320:Drivers/BSP/Components/st7735/st7735.c **** {
 878              		.loc 1 320 6 is_stmt 1 view .LVU263
 879              	.LBB165:
 322:Drivers/BSP/Components/st7735/st7735.c ****   LCD_IO_WriteMultipleData(&LCDRegValue, 1);
 880              		.loc 1 322 3 view .LVU264
 881 015c FFF7FEFF 		bl	LCD_IO_WriteReg
 882              	.LVL79:
 323:Drivers/BSP/Components/st7735/st7735.c **** }
 883              		.loc 1 323 3 view .LVU265
 884 0160 2146     		mov	r1, r4
 885 0162 0DEB0A00 		add	r0, sp, r10
 886 0166 FFF7FEFF 		bl	LCD_IO_WriteMultipleData
 887              	.LVL80:
 323:Drivers/BSP/Components/st7735/st7735.c **** }
 888              		.loc 1 323 3 is_stmt 0 view .LVU266
 889              	.LBE165:
 890              	.LBE163:
 159:Drivers/BSP/Components/st7735/st7735.c ****   /* Power control, 2 args, no delay: Opamp current small, Boost frequency */ 
 891              		.loc 1 159 3 is_stmt 1 view .LVU267
 159:Drivers/BSP/Components/st7735/st7735.c ****   /* Power control, 2 args, no delay: Opamp current small, Boost frequency */ 
 892              		.loc 1 159 3 is_stmt 0 view .LVU268
 893 016a 4FF0C50B 		mov	fp, #197
 894              	.LBB166:
 895              	.LBB167:
 322:Drivers/BSP/Components/st7735/st7735.c ****   LCD_IO_WriteMultipleData(&LCDRegValue, 1);
 896              		.loc 1 322 3 view .LVU269
 897 016e C120     		movs	r0, #193
 898 0170 8DF807B0 		strb	fp, [sp, #7]
 899              	.LVL81:
 322:Drivers/BSP/Components/st7735/st7735.c ****   LCD_IO_WriteMultipleData(&LCDRegValue, 1);
 900              		.loc 1 322 3 view .LVU270
 901              	.LBE167:
 902              	.LBI166:
 320:Drivers/BSP/Components/st7735/st7735.c **** {
 903              		.loc 1 320 6 is_stmt 1 view .LVU271
 904              	.LBB168:
 322:Drivers/BSP/Components/st7735/st7735.c ****   LCD_IO_WriteMultipleData(&LCDRegValue, 1);
 905              		.loc 1 322 3 view .LVU272
 906 0174 FFF7FEFF 		bl	LCD_IO_WriteReg
 907              	.LVL82:
 323:Drivers/BSP/Components/st7735/st7735.c **** }
 908              		.loc 1 323 3 view .LVU273
 909 0178 2146     		mov	r1, r4
 910 017a 0DEB0A00 		add	r0, sp, r10
 911 017e FFF7FEFF 		bl	LCD_IO_WriteMultipleData
 912              	.LVL83:
 323:Drivers/BSP/Components/st7735/st7735.c **** }
 913              		.loc 1 323 3 is_stmt 0 view .LVU274
 914              	.LBE168:
 915              	.LBE166:
 161:Drivers/BSP/Components/st7735/st7735.c ****   st7735_WriteReg(LCD_REG_194, 0x00);
 916              		.loc 1 161 3 is_stmt 1 view .LVU275
 161:Drivers/BSP/Components/st7735/st7735.c ****   st7735_WriteReg(LCD_REG_194, 0x00);
 917              		.loc 1 161 3 is_stmt 0 view .LVU276
 918 0182 0A23     		movs	r3, #10
ARM GAS  /var/folders/0z/tsy30v1j4xl4_7kw94k978ww0000gn/T//ccK4WGjk.s 			page 29


 919              	.LBB169:
 920              	.LBB170:
 322:Drivers/BSP/Components/st7735/st7735.c ****   LCD_IO_WriteMultipleData(&LCDRegValue, 1);
 921              		.loc 1 322 3 view .LVU277
 922 0184 C220     		movs	r0, #194
 923 0186 8DF80730 		strb	r3, [sp, #7]
 924              	.LVL84:
 322:Drivers/BSP/Components/st7735/st7735.c ****   LCD_IO_WriteMultipleData(&LCDRegValue, 1);
 925              		.loc 1 322 3 view .LVU278
 926              	.LBE170:
 927              	.LBI169:
 320:Drivers/BSP/Components/st7735/st7735.c **** {
 928              		.loc 1 320 6 is_stmt 1 view .LVU279
 929              	.LBB171:
 322:Drivers/BSP/Components/st7735/st7735.c ****   LCD_IO_WriteMultipleData(&LCDRegValue, 1);
 930              		.loc 1 322 3 view .LVU280
 931 018a FFF7FEFF 		bl	LCD_IO_WriteReg
 932              	.LVL85:
 323:Drivers/BSP/Components/st7735/st7735.c **** }
 933              		.loc 1 323 3 view .LVU281
 934 018e 2146     		mov	r1, r4
 935 0190 0DEB0A00 		add	r0, sp, r10
 936 0194 FFF7FEFF 		bl	LCD_IO_WriteMultipleData
 937              	.LVL86:
 323:Drivers/BSP/Components/st7735/st7735.c **** }
 938              		.loc 1 323 3 is_stmt 0 view .LVU282
 939              	.LBE171:
 940              	.LBE169:
 162:Drivers/BSP/Components/st7735/st7735.c ****   /* Power control, 2 args, no delay: BCLK/2, Opamp current small & Medium low */  
 941              		.loc 1 162 3 is_stmt 1 view .LVU283
 942              	.LBB172:
 943              	.LBB173:
 322:Drivers/BSP/Components/st7735/st7735.c ****   LCD_IO_WriteMultipleData(&LCDRegValue, 1);
 944              		.loc 1 322 3 is_stmt 0 view .LVU284
 945 0198 C220     		movs	r0, #194
 946 019a 8DF80750 		strb	r5, [sp, #7]
 947              	.LVL87:
 322:Drivers/BSP/Components/st7735/st7735.c ****   LCD_IO_WriteMultipleData(&LCDRegValue, 1);
 948              		.loc 1 322 3 view .LVU285
 949              	.LBE173:
 950              	.LBI172:
 320:Drivers/BSP/Components/st7735/st7735.c **** {
 951              		.loc 1 320 6 is_stmt 1 view .LVU286
 952              	.LBB174:
 322:Drivers/BSP/Components/st7735/st7735.c ****   LCD_IO_WriteMultipleData(&LCDRegValue, 1);
 953              		.loc 1 322 3 view .LVU287
 954 019e FFF7FEFF 		bl	LCD_IO_WriteReg
 955              	.LVL88:
 323:Drivers/BSP/Components/st7735/st7735.c **** }
 956              		.loc 1 323 3 view .LVU288
 957 01a2 2146     		mov	r1, r4
 958 01a4 0DEB0A00 		add	r0, sp, r10
 959 01a8 FFF7FEFF 		bl	LCD_IO_WriteMultipleData
 960              	.LVL89:
 323:Drivers/BSP/Components/st7735/st7735.c **** }
 961              		.loc 1 323 3 is_stmt 0 view .LVU289
 962              	.LBE174:
ARM GAS  /var/folders/0z/tsy30v1j4xl4_7kw94k978ww0000gn/T//ccK4WGjk.s 			page 30


 963              	.LBE172:
 164:Drivers/BSP/Components/st7735/st7735.c ****   st7735_WriteReg(LCD_REG_195, 0x2A);
 964              		.loc 1 164 3 is_stmt 1 view .LVU290
 965              	.LBB175:
 966              	.LBI175:
 320:Drivers/BSP/Components/st7735/st7735.c **** {
 967              		.loc 1 320 6 view .LVU291
 968              	.LBB176:
 322:Drivers/BSP/Components/st7735/st7735.c ****   LCD_IO_WriteMultipleData(&LCDRegValue, 1);
 969              		.loc 1 322 3 view .LVU292
 970 01ac 8A23     		movs	r3, #138
 971 01ae C320     		movs	r0, #195
 972 01b0 8DF80730 		strb	r3, [sp, #7]
 973              	.LVL90:
 322:Drivers/BSP/Components/st7735/st7735.c ****   LCD_IO_WriteMultipleData(&LCDRegValue, 1);
 974              		.loc 1 322 3 is_stmt 0 view .LVU293
 975 01b4 FFF7FEFF 		bl	LCD_IO_WriteReg
 976              	.LVL91:
 323:Drivers/BSP/Components/st7735/st7735.c **** }
 977              		.loc 1 323 3 is_stmt 1 view .LVU294
 978 01b8 2146     		mov	r1, r4
 979 01ba 0DEB0A00 		add	r0, sp, r10
 980 01be FFF7FEFF 		bl	LCD_IO_WriteMultipleData
 981              	.LVL92:
 323:Drivers/BSP/Components/st7735/st7735.c **** }
 982              		.loc 1 323 3 is_stmt 0 view .LVU295
 983              	.LBE176:
 984              	.LBE175:
 165:Drivers/BSP/Components/st7735/st7735.c ****   /* Power control, 2 args, no delay */
 985              		.loc 1 165 3 is_stmt 1 view .LVU296
 165:Drivers/BSP/Components/st7735/st7735.c ****   /* Power control, 2 args, no delay */
 986              		.loc 1 165 3 is_stmt 0 view .LVU297
 987 01c2 4FF02A08 		mov	r8, #42
 988              	.LBB177:
 989              	.LBB178:
 322:Drivers/BSP/Components/st7735/st7735.c ****   LCD_IO_WriteMultipleData(&LCDRegValue, 1);
 990              		.loc 1 322 3 view .LVU298
 991 01c6 C320     		movs	r0, #195
 992 01c8 8DF80780 		strb	r8, [sp, #7]
 993              	.LVL93:
 322:Drivers/BSP/Components/st7735/st7735.c ****   LCD_IO_WriteMultipleData(&LCDRegValue, 1);
 994              		.loc 1 322 3 view .LVU299
 995              	.LBE178:
 996              	.LBI177:
 320:Drivers/BSP/Components/st7735/st7735.c **** {
 997              		.loc 1 320 6 is_stmt 1 view .LVU300
 998              	.LBB179:
 322:Drivers/BSP/Components/st7735/st7735.c ****   LCD_IO_WriteMultipleData(&LCDRegValue, 1);
 999              		.loc 1 322 3 view .LVU301
 1000 01cc FFF7FEFF 		bl	LCD_IO_WriteReg
 1001              	.LVL94:
 323:Drivers/BSP/Components/st7735/st7735.c **** }
 1002              		.loc 1 323 3 view .LVU302
 1003 01d0 2146     		mov	r1, r4
 1004 01d2 0DEB0A00 		add	r0, sp, r10
 1005 01d6 FFF7FEFF 		bl	LCD_IO_WriteMultipleData
 1006              	.LVL95:
ARM GAS  /var/folders/0z/tsy30v1j4xl4_7kw94k978ww0000gn/T//ccK4WGjk.s 			page 31


 323:Drivers/BSP/Components/st7735/st7735.c **** }
 1007              		.loc 1 323 3 is_stmt 0 view .LVU303
 1008              	.LBE179:
 1009              	.LBE177:
 167:Drivers/BSP/Components/st7735/st7735.c ****   st7735_WriteReg(LCD_REG_196, 0xEE);
 1010              		.loc 1 167 3 is_stmt 1 view .LVU304
 167:Drivers/BSP/Components/st7735/st7735.c ****   st7735_WriteReg(LCD_REG_196, 0xEE);
 1011              		.loc 1 167 3 is_stmt 0 view .LVU305
 1012 01da 8A23     		movs	r3, #138
 1013              	.LBB180:
 1014              	.LBB181:
 322:Drivers/BSP/Components/st7735/st7735.c ****   LCD_IO_WriteMultipleData(&LCDRegValue, 1);
 1015              		.loc 1 322 3 view .LVU306
 1016 01dc C420     		movs	r0, #196
 1017 01de 8DF80730 		strb	r3, [sp, #7]
 1018              	.LVL96:
 322:Drivers/BSP/Components/st7735/st7735.c ****   LCD_IO_WriteMultipleData(&LCDRegValue, 1);
 1019              		.loc 1 322 3 view .LVU307
 1020              	.LBE181:
 1021              	.LBI180:
 320:Drivers/BSP/Components/st7735/st7735.c **** {
 1022              		.loc 1 320 6 is_stmt 1 view .LVU308
 1023              	.LBB182:
 322:Drivers/BSP/Components/st7735/st7735.c ****   LCD_IO_WriteMultipleData(&LCDRegValue, 1);
 1024              		.loc 1 322 3 view .LVU309
 1025 01e2 FFF7FEFF 		bl	LCD_IO_WriteReg
 1026              	.LVL97:
 323:Drivers/BSP/Components/st7735/st7735.c **** }
 1027              		.loc 1 323 3 view .LVU310
 1028 01e6 2146     		mov	r1, r4
 1029 01e8 0DEB0A00 		add	r0, sp, r10
 1030 01ec FFF7FEFF 		bl	LCD_IO_WriteMultipleData
 1031              	.LVL98:
 323:Drivers/BSP/Components/st7735/st7735.c **** }
 1032              		.loc 1 323 3 is_stmt 0 view .LVU311
 1033              	.LBE182:
 1034              	.LBE180:
 168:Drivers/BSP/Components/st7735/st7735.c ****   /* Power control, 1 arg, no delay */
 1035              		.loc 1 168 3 is_stmt 1 view .LVU312
 168:Drivers/BSP/Components/st7735/st7735.c ****   /* Power control, 1 arg, no delay */
 1036              		.loc 1 168 3 is_stmt 0 view .LVU313
 1037 01f0 EE23     		movs	r3, #238
 1038              	.LBB183:
 1039              	.LBB184:
 322:Drivers/BSP/Components/st7735/st7735.c ****   LCD_IO_WriteMultipleData(&LCDRegValue, 1);
 1040              		.loc 1 322 3 view .LVU314
 1041 01f2 C420     		movs	r0, #196
 1042 01f4 8DF80730 		strb	r3, [sp, #7]
 1043              	.LVL99:
 322:Drivers/BSP/Components/st7735/st7735.c ****   LCD_IO_WriteMultipleData(&LCDRegValue, 1);
 1044              		.loc 1 322 3 view .LVU315
 1045              	.LBE184:
 1046              	.LBI183:
 320:Drivers/BSP/Components/st7735/st7735.c **** {
 1047              		.loc 1 320 6 is_stmt 1 view .LVU316
 1048              	.LBB185:
 322:Drivers/BSP/Components/st7735/st7735.c ****   LCD_IO_WriteMultipleData(&LCDRegValue, 1);
ARM GAS  /var/folders/0z/tsy30v1j4xl4_7kw94k978ww0000gn/T//ccK4WGjk.s 			page 32


 1049              		.loc 1 322 3 view .LVU317
 1050 01f8 FFF7FEFF 		bl	LCD_IO_WriteReg
 1051              	.LVL100:
 323:Drivers/BSP/Components/st7735/st7735.c **** }
 1052              		.loc 1 323 3 view .LVU318
 1053 01fc 2146     		mov	r1, r4
 1054 01fe 0DEB0A00 		add	r0, sp, r10
 1055 0202 FFF7FEFF 		bl	LCD_IO_WriteMultipleData
 1056              	.LVL101:
 323:Drivers/BSP/Components/st7735/st7735.c **** }
 1057              		.loc 1 323 3 is_stmt 0 view .LVU319
 1058              	.LBE185:
 1059              	.LBE183:
 170:Drivers/BSP/Components/st7735/st7735.c ****   /* Don't invert display, no args, no delay */
 1060              		.loc 1 170 3 is_stmt 1 view .LVU320
 170:Drivers/BSP/Components/st7735/st7735.c ****   /* Don't invert display, no args, no delay */
 1061              		.loc 1 170 3 is_stmt 0 view .LVU321
 1062 0206 0E23     		movs	r3, #14
 1063              	.LBB186:
 1064              	.LBB187:
 322:Drivers/BSP/Components/st7735/st7735.c ****   LCD_IO_WriteMultipleData(&LCDRegValue, 1);
 1065              		.loc 1 322 3 view .LVU322
 1066 0208 5846     		mov	r0, fp
 1067 020a 8DF80730 		strb	r3, [sp, #7]
 1068              	.LVL102:
 322:Drivers/BSP/Components/st7735/st7735.c ****   LCD_IO_WriteMultipleData(&LCDRegValue, 1);
 1069              		.loc 1 322 3 view .LVU323
 1070              	.LBE187:
 1071              	.LBI186:
 320:Drivers/BSP/Components/st7735/st7735.c **** {
 1072              		.loc 1 320 6 is_stmt 1 view .LVU324
 1073              	.LBB188:
 322:Drivers/BSP/Components/st7735/st7735.c ****   LCD_IO_WriteMultipleData(&LCDRegValue, 1);
 1074              		.loc 1 322 3 view .LVU325
 1075 020e FFF7FEFF 		bl	LCD_IO_WriteReg
 1076              	.LVL103:
 323:Drivers/BSP/Components/st7735/st7735.c **** }
 1077              		.loc 1 323 3 view .LVU326
 1078 0212 2146     		mov	r1, r4
 1079 0214 0DEB0A00 		add	r0, sp, r10
 1080 0218 FFF7FEFF 		bl	LCD_IO_WriteMultipleData
 1081              	.LVL104:
 323:Drivers/BSP/Components/st7735/st7735.c **** }
 1082              		.loc 1 323 3 is_stmt 0 view .LVU327
 1083              	.LBE188:
 1084              	.LBE186:
 172:Drivers/BSP/Components/st7735/st7735.c ****   /* Set color mode, 1 arg, no delay: 16-bit color */
 1085              		.loc 1 172 3 is_stmt 1 view .LVU328
 1086 021c 2020     		movs	r0, #32
 1087 021e FFF7FEFF 		bl	LCD_IO_WriteReg
 1088              	.LVL105:
 174:Drivers/BSP/Components/st7735/st7735.c ****   /* Column addr set, 4 args, no delay: XSTART = 0, XEND = 127 */
 1089              		.loc 1 174 3 view .LVU329
 174:Drivers/BSP/Components/st7735/st7735.c ****   /* Column addr set, 4 args, no delay: XSTART = 0, XEND = 127 */
 1090              		.loc 1 174 3 is_stmt 0 view .LVU330
 1091 0222 0523     		movs	r3, #5
 1092              	.LBB189:
ARM GAS  /var/folders/0z/tsy30v1j4xl4_7kw94k978ww0000gn/T//ccK4WGjk.s 			page 33


 1093              	.LBB190:
 322:Drivers/BSP/Components/st7735/st7735.c ****   LCD_IO_WriteMultipleData(&LCDRegValue, 1);
 1094              		.loc 1 322 3 view .LVU331
 1095 0224 3A20     		movs	r0, #58
 1096 0226 8DF80730 		strb	r3, [sp, #7]
 1097              	.LVL106:
 322:Drivers/BSP/Components/st7735/st7735.c ****   LCD_IO_WriteMultipleData(&LCDRegValue, 1);
 1098              		.loc 1 322 3 view .LVU332
 1099              	.LBE190:
 1100              	.LBI189:
 320:Drivers/BSP/Components/st7735/st7735.c **** {
 1101              		.loc 1 320 6 is_stmt 1 view .LVU333
 1102              	.LBB191:
 322:Drivers/BSP/Components/st7735/st7735.c ****   LCD_IO_WriteMultipleData(&LCDRegValue, 1);
 1103              		.loc 1 322 3 view .LVU334
 1104 022a FFF7FEFF 		bl	LCD_IO_WriteReg
 1105              	.LVL107:
 323:Drivers/BSP/Components/st7735/st7735.c **** }
 1106              		.loc 1 323 3 view .LVU335
 1107 022e 2146     		mov	r1, r4
 1108 0230 0DEB0A00 		add	r0, sp, r10
 1109 0234 FFF7FEFF 		bl	LCD_IO_WriteMultipleData
 1110              	.LVL108:
 323:Drivers/BSP/Components/st7735/st7735.c **** }
 1111              		.loc 1 323 3 is_stmt 0 view .LVU336
 1112              	.LBE191:
 1113              	.LBE189:
 176:Drivers/BSP/Components/st7735/st7735.c ****   data = 0x00;
 1114              		.loc 1 176 3 is_stmt 1 view .LVU337
 1115 0238 4046     		mov	r0, r8
 1116 023a FFF7FEFF 		bl	LCD_IO_WriteReg
 1117              	.LVL109:
 177:Drivers/BSP/Components/st7735/st7735.c ****   LCD_IO_WriteMultipleData(&data, 1);
 1118              		.loc 1 177 3 view .LVU338
 178:Drivers/BSP/Components/st7735/st7735.c ****   LCD_IO_WriteMultipleData(&data, 1);
 1119              		.loc 1 178 3 is_stmt 0 view .LVU339
 1120 023e 2146     		mov	r1, r4
 1121 0240 0DF10600 		add	r0, sp, #6
 177:Drivers/BSP/Components/st7735/st7735.c ****   LCD_IO_WriteMultipleData(&data, 1);
 1122              		.loc 1 177 8 view .LVU340
 1123 0244 8DF80650 		strb	r5, [sp, #6]
 178:Drivers/BSP/Components/st7735/st7735.c ****   LCD_IO_WriteMultipleData(&data, 1);
 1124              		.loc 1 178 3 is_stmt 1 view .LVU341
 1125 0248 FFF7FEFF 		bl	LCD_IO_WriteMultipleData
 1126              	.LVL110:
 179:Drivers/BSP/Components/st7735/st7735.c ****   LCD_IO_WriteMultipleData(&data, 1);
 1127              		.loc 1 179 3 view .LVU342
 1128 024c 2146     		mov	r1, r4
 1129 024e 0DF10600 		add	r0, sp, #6
 1130 0252 FFF7FEFF 		bl	LCD_IO_WriteMultipleData
 1131              	.LVL111:
 180:Drivers/BSP/Components/st7735/st7735.c ****   data = 0x7F;
 1132              		.loc 1 180 3 view .LVU343
 1133 0256 2146     		mov	r1, r4
 1134 0258 0DF10600 		add	r0, sp, #6
 1135 025c FFF7FEFF 		bl	LCD_IO_WriteMultipleData
 1136              	.LVL112:
ARM GAS  /var/folders/0z/tsy30v1j4xl4_7kw94k978ww0000gn/T//ccK4WGjk.s 			page 34


 181:Drivers/BSP/Components/st7735/st7735.c ****   LCD_IO_WriteMultipleData(&data, 1);
 1137              		.loc 1 181 3 view .LVU344
 181:Drivers/BSP/Components/st7735/st7735.c ****   LCD_IO_WriteMultipleData(&data, 1);
 1138              		.loc 1 181 8 is_stmt 0 view .LVU345
 1139 0260 7F23     		movs	r3, #127
 182:Drivers/BSP/Components/st7735/st7735.c ****   /* Row addr set, 4 args, no delay: YSTART = 0, YEND = 159 */
 1140              		.loc 1 182 3 view .LVU346
 1141 0262 2146     		mov	r1, r4
 1142 0264 0DF10600 		add	r0, sp, #6
 181:Drivers/BSP/Components/st7735/st7735.c ****   LCD_IO_WriteMultipleData(&data, 1);
 1143              		.loc 1 181 8 view .LVU347
 1144 0268 8DF80630 		strb	r3, [sp, #6]
 182:Drivers/BSP/Components/st7735/st7735.c ****   /* Row addr set, 4 args, no delay: YSTART = 0, YEND = 159 */
 1145              		.loc 1 182 3 is_stmt 1 view .LVU348
 1146 026c FFF7FEFF 		bl	LCD_IO_WriteMultipleData
 1147              	.LVL113:
 184:Drivers/BSP/Components/st7735/st7735.c ****   data = 0x00;
 1148              		.loc 1 184 3 view .LVU349
 1149 0270 2B20     		movs	r0, #43
 1150 0272 FFF7FEFF 		bl	LCD_IO_WriteReg
 1151              	.LVL114:
 185:Drivers/BSP/Components/st7735/st7735.c ****   LCD_IO_WriteMultipleData(&data, 1);
 1152              		.loc 1 185 3 view .LVU350
 186:Drivers/BSP/Components/st7735/st7735.c ****   LCD_IO_WriteMultipleData(&data, 1);
 1153              		.loc 1 186 3 is_stmt 0 view .LVU351
 1154 0276 2146     		mov	r1, r4
 1155 0278 0DF10600 		add	r0, sp, #6
 185:Drivers/BSP/Components/st7735/st7735.c ****   LCD_IO_WriteMultipleData(&data, 1);
 1156              		.loc 1 185 8 view .LVU352
 1157 027c 8DF80650 		strb	r5, [sp, #6]
 186:Drivers/BSP/Components/st7735/st7735.c ****   LCD_IO_WriteMultipleData(&data, 1);
 1158              		.loc 1 186 3 is_stmt 1 view .LVU353
 1159 0280 FFF7FEFF 		bl	LCD_IO_WriteMultipleData
 1160              	.LVL115:
 187:Drivers/BSP/Components/st7735/st7735.c ****   LCD_IO_WriteMultipleData(&data, 1);
 1161              		.loc 1 187 3 view .LVU354
 1162 0284 2146     		mov	r1, r4
 1163 0286 0DF10600 		add	r0, sp, #6
 1164 028a FFF7FEFF 		bl	LCD_IO_WriteMultipleData
 1165              	.LVL116:
 188:Drivers/BSP/Components/st7735/st7735.c ****   data = 0x9F;
 1166              		.loc 1 188 3 view .LVU355
 1167 028e 2146     		mov	r1, r4
 1168 0290 0DF10600 		add	r0, sp, #6
 1169 0294 FFF7FEFF 		bl	LCD_IO_WriteMultipleData
 1170              	.LVL117:
 189:Drivers/BSP/Components/st7735/st7735.c ****   LCD_IO_WriteMultipleData(&data, 1);
 1171              		.loc 1 189 3 view .LVU356
 189:Drivers/BSP/Components/st7735/st7735.c ****   LCD_IO_WriteMultipleData(&data, 1);
 1172              		.loc 1 189 8 is_stmt 0 view .LVU357
 1173 0298 9F23     		movs	r3, #159
 190:Drivers/BSP/Components/st7735/st7735.c ****   /* Magical unicorn dust, 16 args, no delay */
 1174              		.loc 1 190 3 view .LVU358
 1175 029a 2146     		mov	r1, r4
 1176 029c 0DF10600 		add	r0, sp, #6
 189:Drivers/BSP/Components/st7735/st7735.c ****   LCD_IO_WriteMultipleData(&data, 1);
 1177              		.loc 1 189 8 view .LVU359
ARM GAS  /var/folders/0z/tsy30v1j4xl4_7kw94k978ww0000gn/T//ccK4WGjk.s 			page 35


 1178 02a0 8DF80630 		strb	r3, [sp, #6]
 190:Drivers/BSP/Components/st7735/st7735.c ****   /* Magical unicorn dust, 16 args, no delay */
 1179              		.loc 1 190 3 is_stmt 1 view .LVU360
 1180 02a4 FFF7FEFF 		bl	LCD_IO_WriteMultipleData
 1181              	.LVL118:
 192:Drivers/BSP/Components/st7735/st7735.c ****   st7735_WriteReg(LCD_REG_224, 0x1c);  
 1182              		.loc 1 192 3 view .LVU361
 1183              	.LBB192:
 1184              	.LBB193:
 322:Drivers/BSP/Components/st7735/st7735.c ****   LCD_IO_WriteMultipleData(&LCDRegValue, 1);
 1185              		.loc 1 322 3 is_stmt 0 view .LVU362
 1186 02a8 E020     		movs	r0, #224
 1187 02aa 8DF80790 		strb	r9, [sp, #7]
 1188              	.LVL119:
 322:Drivers/BSP/Components/st7735/st7735.c ****   LCD_IO_WriteMultipleData(&LCDRegValue, 1);
 1189              		.loc 1 322 3 view .LVU363
 1190              	.LBE193:
 1191              	.LBI192:
 320:Drivers/BSP/Components/st7735/st7735.c **** {
 1192              		.loc 1 320 6 is_stmt 1 view .LVU364
 1193              	.LBB194:
 322:Drivers/BSP/Components/st7735/st7735.c ****   LCD_IO_WriteMultipleData(&LCDRegValue, 1);
 1194              		.loc 1 322 3 view .LVU365
 1195 02ae FFF7FEFF 		bl	LCD_IO_WriteReg
 1196              	.LVL120:
 323:Drivers/BSP/Components/st7735/st7735.c **** }
 1197              		.loc 1 323 3 view .LVU366
 1198 02b2 2146     		mov	r1, r4
 1199 02b4 0DEB0A00 		add	r0, sp, r10
 1200 02b8 FFF7FEFF 		bl	LCD_IO_WriteMultipleData
 1201              	.LVL121:
 323:Drivers/BSP/Components/st7735/st7735.c **** }
 1202              		.loc 1 323 3 is_stmt 0 view .LVU367
 1203              	.LBE194:
 1204              	.LBE192:
 193:Drivers/BSP/Components/st7735/st7735.c ****   st7735_WriteReg(LCD_REG_224, 0x07); 
 1205              		.loc 1 193 3 is_stmt 1 view .LVU368
 193:Drivers/BSP/Components/st7735/st7735.c ****   st7735_WriteReg(LCD_REG_224, 0x07); 
 1206              		.loc 1 193 3 is_stmt 0 view .LVU369
 1207 02bc 1C23     		movs	r3, #28
 1208              	.LBB195:
 1209              	.LBB196:
 322:Drivers/BSP/Components/st7735/st7735.c ****   LCD_IO_WriteMultipleData(&LCDRegValue, 1);
 1210              		.loc 1 322 3 view .LVU370
 1211 02be E020     		movs	r0, #224
 1212 02c0 8DF80730 		strb	r3, [sp, #7]
 1213              	.LVL122:
 322:Drivers/BSP/Components/st7735/st7735.c ****   LCD_IO_WriteMultipleData(&LCDRegValue, 1);
 1214              		.loc 1 322 3 view .LVU371
 1215              	.LBE196:
 1216              	.LBI195:
 320:Drivers/BSP/Components/st7735/st7735.c **** {
 1217              		.loc 1 320 6 is_stmt 1 view .LVU372
 1218              	.LBB197:
 322:Drivers/BSP/Components/st7735/st7735.c ****   LCD_IO_WriteMultipleData(&LCDRegValue, 1);
 1219              		.loc 1 322 3 view .LVU373
 1220 02c4 FFF7FEFF 		bl	LCD_IO_WriteReg
ARM GAS  /var/folders/0z/tsy30v1j4xl4_7kw94k978ww0000gn/T//ccK4WGjk.s 			page 36


 1221              	.LVL123:
 323:Drivers/BSP/Components/st7735/st7735.c **** }
 1222              		.loc 1 323 3 view .LVU374
 1223 02c8 2146     		mov	r1, r4
 1224 02ca 0DEB0A00 		add	r0, sp, r10
 1225 02ce FFF7FEFF 		bl	LCD_IO_WriteMultipleData
 1226              	.LVL124:
 323:Drivers/BSP/Components/st7735/st7735.c **** }
 1227              		.loc 1 323 3 is_stmt 0 view .LVU375
 1228              	.LBE197:
 1229              	.LBE195:
 194:Drivers/BSP/Components/st7735/st7735.c ****   st7735_WriteReg(LCD_REG_224, 0x12);
 1230              		.loc 1 194 3 is_stmt 1 view .LVU376
 1231              	.LBB198:
 1232              	.LBB199:
 322:Drivers/BSP/Components/st7735/st7735.c ****   LCD_IO_WriteMultipleData(&LCDRegValue, 1);
 1233              		.loc 1 322 3 is_stmt 0 view .LVU377
 1234 02d2 E020     		movs	r0, #224
 1235 02d4 8DF807A0 		strb	r10, [sp, #7]
 1236              	.LVL125:
 322:Drivers/BSP/Components/st7735/st7735.c ****   LCD_IO_WriteMultipleData(&LCDRegValue, 1);
 1237              		.loc 1 322 3 view .LVU378
 1238              	.LBE199:
 1239              	.LBI198:
 320:Drivers/BSP/Components/st7735/st7735.c **** {
 1240              		.loc 1 320 6 is_stmt 1 view .LVU379
 1241              	.LBB200:
 322:Drivers/BSP/Components/st7735/st7735.c ****   LCD_IO_WriteMultipleData(&LCDRegValue, 1);
 1242              		.loc 1 322 3 view .LVU380
 1243 02d8 FFF7FEFF 		bl	LCD_IO_WriteReg
 1244              	.LVL126:
 323:Drivers/BSP/Components/st7735/st7735.c **** }
 1245              		.loc 1 323 3 view .LVU381
 1246 02dc 2146     		mov	r1, r4
 1247 02de 0DEB0A00 		add	r0, sp, r10
 1248 02e2 FFF7FEFF 		bl	LCD_IO_WriteMultipleData
 1249              	.LVL127:
 323:Drivers/BSP/Components/st7735/st7735.c **** }
 1250              		.loc 1 323 3 is_stmt 0 view .LVU382
 1251              	.LBE200:
 1252              	.LBE198:
 195:Drivers/BSP/Components/st7735/st7735.c ****   st7735_WriteReg(LCD_REG_224, 0x37);  
 1253              		.loc 1 195 3 is_stmt 1 view .LVU383
 195:Drivers/BSP/Components/st7735/st7735.c ****   st7735_WriteReg(LCD_REG_224, 0x37);  
 1254              		.loc 1 195 3 is_stmt 0 view .LVU384
 1255 02e6 1223     		movs	r3, #18
 1256              	.LBB201:
 1257              	.LBB202:
 322:Drivers/BSP/Components/st7735/st7735.c ****   LCD_IO_WriteMultipleData(&LCDRegValue, 1);
 1258              		.loc 1 322 3 view .LVU385
 1259 02e8 E020     		movs	r0, #224
 1260 02ea 8DF80730 		strb	r3, [sp, #7]
 1261              	.LVL128:
 322:Drivers/BSP/Components/st7735/st7735.c ****   LCD_IO_WriteMultipleData(&LCDRegValue, 1);
 1262              		.loc 1 322 3 view .LVU386
 1263              	.LBE202:
 1264              	.LBI201:
ARM GAS  /var/folders/0z/tsy30v1j4xl4_7kw94k978ww0000gn/T//ccK4WGjk.s 			page 37


 320:Drivers/BSP/Components/st7735/st7735.c **** {
 1265              		.loc 1 320 6 is_stmt 1 view .LVU387
 1266              	.LBB203:
 322:Drivers/BSP/Components/st7735/st7735.c ****   LCD_IO_WriteMultipleData(&LCDRegValue, 1);
 1267              		.loc 1 322 3 view .LVU388
 1268 02ee FFF7FEFF 		bl	LCD_IO_WriteReg
 1269              	.LVL129:
 323:Drivers/BSP/Components/st7735/st7735.c **** }
 1270              		.loc 1 323 3 view .LVU389
 1271 02f2 2146     		mov	r1, r4
 1272 02f4 0DEB0A00 		add	r0, sp, r10
 1273 02f8 FFF7FEFF 		bl	LCD_IO_WriteMultipleData
 1274              	.LVL130:
 323:Drivers/BSP/Components/st7735/st7735.c **** }
 1275              		.loc 1 323 3 is_stmt 0 view .LVU390
 1276              	.LBE203:
 1277              	.LBE201:
 196:Drivers/BSP/Components/st7735/st7735.c ****   st7735_WriteReg(LCD_REG_224, 0x32);  
 1278              		.loc 1 196 3 is_stmt 1 view .LVU391
 1279              	.LBB204:
 1280              	.LBI204:
 320:Drivers/BSP/Components/st7735/st7735.c **** {
 1281              		.loc 1 320 6 view .LVU392
 1282              	.LBB205:
 322:Drivers/BSP/Components/st7735/st7735.c ****   LCD_IO_WriteMultipleData(&LCDRegValue, 1);
 1283              		.loc 1 322 3 view .LVU393
 1284 02fc 3723     		movs	r3, #55
 1285 02fe E020     		movs	r0, #224
 1286 0300 8DF80730 		strb	r3, [sp, #7]
 1287              	.LVL131:
 322:Drivers/BSP/Components/st7735/st7735.c ****   LCD_IO_WriteMultipleData(&LCDRegValue, 1);
 1288              		.loc 1 322 3 is_stmt 0 view .LVU394
 1289 0304 FFF7FEFF 		bl	LCD_IO_WriteReg
 1290              	.LVL132:
 323:Drivers/BSP/Components/st7735/st7735.c **** }
 1291              		.loc 1 323 3 is_stmt 1 view .LVU395
 1292 0308 2146     		mov	r1, r4
 1293 030a 0DEB0A00 		add	r0, sp, r10
 1294 030e FFF7FEFF 		bl	LCD_IO_WriteMultipleData
 1295              	.LVL133:
 323:Drivers/BSP/Components/st7735/st7735.c **** }
 1296              		.loc 1 323 3 is_stmt 0 view .LVU396
 1297              	.LBE205:
 1298              	.LBE204:
 197:Drivers/BSP/Components/st7735/st7735.c ****   st7735_WriteReg(LCD_REG_224, 0x29);  
 1299              		.loc 1 197 3 is_stmt 1 view .LVU397
 197:Drivers/BSP/Components/st7735/st7735.c ****   st7735_WriteReg(LCD_REG_224, 0x29);  
 1300              		.loc 1 197 3 is_stmt 0 view .LVU398
 1301 0312 3222     		movs	r2, #50
 1302              	.LBB206:
 1303              	.LBB207:
 322:Drivers/BSP/Components/st7735/st7735.c ****   LCD_IO_WriteMultipleData(&LCDRegValue, 1);
 1304              		.loc 1 322 3 view .LVU399
 1305 0314 E020     		movs	r0, #224
 1306 0316 8DF80720 		strb	r2, [sp, #7]
 1307              	.LVL134:
 322:Drivers/BSP/Components/st7735/st7735.c ****   LCD_IO_WriteMultipleData(&LCDRegValue, 1);
ARM GAS  /var/folders/0z/tsy30v1j4xl4_7kw94k978ww0000gn/T//ccK4WGjk.s 			page 38


 1308              		.loc 1 322 3 view .LVU400
 1309              	.LBE207:
 1310              	.LBI206:
 320:Drivers/BSP/Components/st7735/st7735.c **** {
 1311              		.loc 1 320 6 is_stmt 1 view .LVU401
 1312              	.LBB208:
 322:Drivers/BSP/Components/st7735/st7735.c ****   LCD_IO_WriteMultipleData(&LCDRegValue, 1);
 1313              		.loc 1 322 3 view .LVU402
 1314 031a FFF7FEFF 		bl	LCD_IO_WriteReg
 1315              	.LVL135:
 323:Drivers/BSP/Components/st7735/st7735.c **** }
 1316              		.loc 1 323 3 view .LVU403
 1317 031e 2146     		mov	r1, r4
 1318 0320 0DEB0A00 		add	r0, sp, r10
 1319 0324 FFF7FEFF 		bl	LCD_IO_WriteMultipleData
 1320              	.LVL136:
 323:Drivers/BSP/Components/st7735/st7735.c **** }
 1321              		.loc 1 323 3 is_stmt 0 view .LVU404
 1322              	.LBE208:
 1323              	.LBE206:
 198:Drivers/BSP/Components/st7735/st7735.c ****   st7735_WriteReg(LCD_REG_224, 0x2d);
 1324              		.loc 1 198 3 is_stmt 1 view .LVU405
 198:Drivers/BSP/Components/st7735/st7735.c ****   st7735_WriteReg(LCD_REG_224, 0x2d);
 1325              		.loc 1 198 3 is_stmt 0 view .LVU406
 1326 0328 4FF02908 		mov	r8, #41
 1327              	.LBB209:
 1328              	.LBB210:
 322:Drivers/BSP/Components/st7735/st7735.c ****   LCD_IO_WriteMultipleData(&LCDRegValue, 1);
 1329              		.loc 1 322 3 view .LVU407
 1330 032c E020     		movs	r0, #224
 1331 032e 8DF80780 		strb	r8, [sp, #7]
 1332              	.LVL137:
 322:Drivers/BSP/Components/st7735/st7735.c ****   LCD_IO_WriteMultipleData(&LCDRegValue, 1);
 1333              		.loc 1 322 3 view .LVU408
 1334              	.LBE210:
 1335              	.LBI209:
 320:Drivers/BSP/Components/st7735/st7735.c **** {
 1336              		.loc 1 320 6 is_stmt 1 view .LVU409
 1337              	.LBB211:
 322:Drivers/BSP/Components/st7735/st7735.c ****   LCD_IO_WriteMultipleData(&LCDRegValue, 1);
 1338              		.loc 1 322 3 view .LVU410
 1339 0332 FFF7FEFF 		bl	LCD_IO_WriteReg
 1340              	.LVL138:
 323:Drivers/BSP/Components/st7735/st7735.c **** }
 1341              		.loc 1 323 3 view .LVU411
 1342 0336 2146     		mov	r1, r4
 1343 0338 0DEB0A00 		add	r0, sp, r10
 1344 033c FFF7FEFF 		bl	LCD_IO_WriteMultipleData
 1345              	.LVL139:
 323:Drivers/BSP/Components/st7735/st7735.c **** }
 1346              		.loc 1 323 3 is_stmt 0 view .LVU412
 1347              	.LBE211:
 1348              	.LBE209:
 199:Drivers/BSP/Components/st7735/st7735.c ****   st7735_WriteReg(LCD_REG_224, 0x29);  
 1349              		.loc 1 199 3 is_stmt 1 view .LVU413
 1350              	.LBB212:
 1351              	.LBB213:
ARM GAS  /var/folders/0z/tsy30v1j4xl4_7kw94k978ww0000gn/T//ccK4WGjk.s 			page 39


 322:Drivers/BSP/Components/st7735/st7735.c ****   LCD_IO_WriteMultipleData(&LCDRegValue, 1);
 1352              		.loc 1 322 3 is_stmt 0 view .LVU414
 1353 0340 E020     		movs	r0, #224
 1354 0342 8DF80760 		strb	r6, [sp, #7]
 1355              	.LVL140:
 322:Drivers/BSP/Components/st7735/st7735.c ****   LCD_IO_WriteMultipleData(&LCDRegValue, 1);
 1356              		.loc 1 322 3 view .LVU415
 1357              	.LBE213:
 1358              	.LBI212:
 320:Drivers/BSP/Components/st7735/st7735.c **** {
 1359              		.loc 1 320 6 is_stmt 1 view .LVU416
 1360              	.LBB214:
 322:Drivers/BSP/Components/st7735/st7735.c ****   LCD_IO_WriteMultipleData(&LCDRegValue, 1);
 1361              		.loc 1 322 3 view .LVU417
 1362 0346 FFF7FEFF 		bl	LCD_IO_WriteReg
 1363              	.LVL141:
 323:Drivers/BSP/Components/st7735/st7735.c **** }
 1364              		.loc 1 323 3 view .LVU418
 1365 034a 2146     		mov	r1, r4
 1366 034c 0DEB0A00 		add	r0, sp, r10
 1367 0350 FFF7FEFF 		bl	LCD_IO_WriteMultipleData
 1368              	.LVL142:
 323:Drivers/BSP/Components/st7735/st7735.c **** }
 1369              		.loc 1 323 3 is_stmt 0 view .LVU419
 1370              	.LBE214:
 1371              	.LBE212:
 200:Drivers/BSP/Components/st7735/st7735.c ****   st7735_WriteReg(LCD_REG_224, 0x25);  
 1372              		.loc 1 200 3 is_stmt 1 view .LVU420
 1373              	.LBB215:
 1374              	.LBB216:
 322:Drivers/BSP/Components/st7735/st7735.c ****   LCD_IO_WriteMultipleData(&LCDRegValue, 1);
 1375              		.loc 1 322 3 is_stmt 0 view .LVU421
 1376 0354 E020     		movs	r0, #224
 1377 0356 8DF80780 		strb	r8, [sp, #7]
 1378              	.LVL143:
 322:Drivers/BSP/Components/st7735/st7735.c ****   LCD_IO_WriteMultipleData(&LCDRegValue, 1);
 1379              		.loc 1 322 3 view .LVU422
 1380              	.LBE216:
 1381              	.LBI215:
 320:Drivers/BSP/Components/st7735/st7735.c **** {
 1382              		.loc 1 320 6 is_stmt 1 view .LVU423
 1383              	.LBB217:
 322:Drivers/BSP/Components/st7735/st7735.c ****   LCD_IO_WriteMultipleData(&LCDRegValue, 1);
 1384              		.loc 1 322 3 view .LVU424
 1385 035a FFF7FEFF 		bl	LCD_IO_WriteReg
 1386              	.LVL144:
 323:Drivers/BSP/Components/st7735/st7735.c **** }
 1387              		.loc 1 323 3 view .LVU425
 1388 035e 2146     		mov	r1, r4
 1389 0360 0DEB0A00 		add	r0, sp, r10
 1390 0364 FFF7FEFF 		bl	LCD_IO_WriteMultipleData
 1391              	.LVL145:
 323:Drivers/BSP/Components/st7735/st7735.c **** }
 1392              		.loc 1 323 3 is_stmt 0 view .LVU426
 1393              	.LBE217:
 1394              	.LBE215:
 201:Drivers/BSP/Components/st7735/st7735.c ****   st7735_WriteReg(LCD_REG_224, 0x2B);  
ARM GAS  /var/folders/0z/tsy30v1j4xl4_7kw94k978ww0000gn/T//ccK4WGjk.s 			page 40


 1395              		.loc 1 201 3 is_stmt 1 view .LVU427
 201:Drivers/BSP/Components/st7735/st7735.c ****   st7735_WriteReg(LCD_REG_224, 0x2B);  
 1396              		.loc 1 201 3 is_stmt 0 view .LVU428
 1397 0368 2522     		movs	r2, #37
 1398              	.LBB218:
 1399              	.LBB219:
 322:Drivers/BSP/Components/st7735/st7735.c ****   LCD_IO_WriteMultipleData(&LCDRegValue, 1);
 1400              		.loc 1 322 3 view .LVU429
 1401 036a E020     		movs	r0, #224
 1402 036c 8DF80720 		strb	r2, [sp, #7]
 1403              	.LVL146:
 322:Drivers/BSP/Components/st7735/st7735.c ****   LCD_IO_WriteMultipleData(&LCDRegValue, 1);
 1404              		.loc 1 322 3 view .LVU430
 1405              	.LBE219:
 1406              	.LBI218:
 320:Drivers/BSP/Components/st7735/st7735.c **** {
 1407              		.loc 1 320 6 is_stmt 1 view .LVU431
 1408              	.LBB220:
 322:Drivers/BSP/Components/st7735/st7735.c ****   LCD_IO_WriteMultipleData(&LCDRegValue, 1);
 1409              		.loc 1 322 3 view .LVU432
 1410 0370 FFF7FEFF 		bl	LCD_IO_WriteReg
 1411              	.LVL147:
 323:Drivers/BSP/Components/st7735/st7735.c **** }
 1412              		.loc 1 323 3 view .LVU433
 1413 0374 2146     		mov	r1, r4
 1414 0376 0DEB0A00 		add	r0, sp, r10
 1415 037a FFF7FEFF 		bl	LCD_IO_WriteMultipleData
 1416              	.LVL148:
 323:Drivers/BSP/Components/st7735/st7735.c **** }
 1417              		.loc 1 323 3 is_stmt 0 view .LVU434
 1418              	.LBE220:
 1419              	.LBE218:
 202:Drivers/BSP/Components/st7735/st7735.c ****   st7735_WriteReg(LCD_REG_224, 0x39);  
 1420              		.loc 1 202 3 is_stmt 1 view .LVU435
 202:Drivers/BSP/Components/st7735/st7735.c ****   st7735_WriteReg(LCD_REG_224, 0x39);  
 1421              		.loc 1 202 3 is_stmt 0 view .LVU436
 1422 037e 2B22     		movs	r2, #43
 1423              	.LBB221:
 1424              	.LBB222:
 322:Drivers/BSP/Components/st7735/st7735.c ****   LCD_IO_WriteMultipleData(&LCDRegValue, 1);
 1425              		.loc 1 322 3 view .LVU437
 1426 0380 E020     		movs	r0, #224
 1427 0382 8DF80720 		strb	r2, [sp, #7]
 1428              	.LVL149:
 322:Drivers/BSP/Components/st7735/st7735.c ****   LCD_IO_WriteMultipleData(&LCDRegValue, 1);
 1429              		.loc 1 322 3 view .LVU438
 1430              	.LBE222:
 1431              	.LBI221:
 320:Drivers/BSP/Components/st7735/st7735.c **** {
 1432              		.loc 1 320 6 is_stmt 1 view .LVU439
 1433              	.LBB223:
 322:Drivers/BSP/Components/st7735/st7735.c ****   LCD_IO_WriteMultipleData(&LCDRegValue, 1);
 1434              		.loc 1 322 3 view .LVU440
 1435 0386 FFF7FEFF 		bl	LCD_IO_WriteReg
 1436              	.LVL150:
 323:Drivers/BSP/Components/st7735/st7735.c **** }
 1437              		.loc 1 323 3 view .LVU441
ARM GAS  /var/folders/0z/tsy30v1j4xl4_7kw94k978ww0000gn/T//ccK4WGjk.s 			page 41


 1438 038a 2146     		mov	r1, r4
 1439 038c 0DEB0A00 		add	r0, sp, r10
 1440 0390 FFF7FEFF 		bl	LCD_IO_WriteMultipleData
 1441              	.LVL151:
 323:Drivers/BSP/Components/st7735/st7735.c **** }
 1442              		.loc 1 323 3 is_stmt 0 view .LVU442
 1443              	.LBE223:
 1444              	.LBE221:
 203:Drivers/BSP/Components/st7735/st7735.c ****   st7735_WriteReg(LCD_REG_224, 0x00);  
 1445              		.loc 1 203 3 is_stmt 1 view .LVU443
 203:Drivers/BSP/Components/st7735/st7735.c ****   st7735_WriteReg(LCD_REG_224, 0x00);  
 1446              		.loc 1 203 3 is_stmt 0 view .LVU444
 1447 0394 3922     		movs	r2, #57
 1448              	.LBB224:
 1449              	.LBB225:
 322:Drivers/BSP/Components/st7735/st7735.c ****   LCD_IO_WriteMultipleData(&LCDRegValue, 1);
 1450              		.loc 1 322 3 view .LVU445
 1451 0396 E020     		movs	r0, #224
 1452 0398 8DF80720 		strb	r2, [sp, #7]
 1453              	.LVL152:
 322:Drivers/BSP/Components/st7735/st7735.c ****   LCD_IO_WriteMultipleData(&LCDRegValue, 1);
 1454              		.loc 1 322 3 view .LVU446
 1455              	.LBE225:
 1456              	.LBI224:
 320:Drivers/BSP/Components/st7735/st7735.c **** {
 1457              		.loc 1 320 6 is_stmt 1 view .LVU447
 1458              	.LBB226:
 322:Drivers/BSP/Components/st7735/st7735.c ****   LCD_IO_WriteMultipleData(&LCDRegValue, 1);
 1459              		.loc 1 322 3 view .LVU448
 1460 039c FFF7FEFF 		bl	LCD_IO_WriteReg
 1461              	.LVL153:
 323:Drivers/BSP/Components/st7735/st7735.c **** }
 1462              		.loc 1 323 3 view .LVU449
 1463 03a0 2146     		mov	r1, r4
 1464 03a2 0DEB0A00 		add	r0, sp, r10
 1465 03a6 FFF7FEFF 		bl	LCD_IO_WriteMultipleData
 1466              	.LVL154:
 323:Drivers/BSP/Components/st7735/st7735.c **** }
 1467              		.loc 1 323 3 is_stmt 0 view .LVU450
 1468              	.LBE226:
 1469              	.LBE224:
 204:Drivers/BSP/Components/st7735/st7735.c ****   st7735_WriteReg(LCD_REG_224, 0x01);  
 1470              		.loc 1 204 3 is_stmt 1 view .LVU451
 1471              	.LBB227:
 1472              	.LBB228:
 322:Drivers/BSP/Components/st7735/st7735.c ****   LCD_IO_WriteMultipleData(&LCDRegValue, 1);
 1473              		.loc 1 322 3 is_stmt 0 view .LVU452
 1474 03aa E020     		movs	r0, #224
 1475 03ac 8DF80750 		strb	r5, [sp, #7]
 1476              	.LVL155:
 322:Drivers/BSP/Components/st7735/st7735.c ****   LCD_IO_WriteMultipleData(&LCDRegValue, 1);
 1477              		.loc 1 322 3 view .LVU453
 1478              	.LBE228:
 1479              	.LBI227:
 320:Drivers/BSP/Components/st7735/st7735.c **** {
 1480              		.loc 1 320 6 is_stmt 1 view .LVU454
 1481              	.LBB229:
ARM GAS  /var/folders/0z/tsy30v1j4xl4_7kw94k978ww0000gn/T//ccK4WGjk.s 			page 42


 322:Drivers/BSP/Components/st7735/st7735.c ****   LCD_IO_WriteMultipleData(&LCDRegValue, 1);
 1482              		.loc 1 322 3 view .LVU455
 1483 03b0 FFF7FEFF 		bl	LCD_IO_WriteReg
 1484              	.LVL156:
 323:Drivers/BSP/Components/st7735/st7735.c **** }
 1485              		.loc 1 323 3 view .LVU456
 1486 03b4 2146     		mov	r1, r4
 1487 03b6 0DEB0A00 		add	r0, sp, r10
 1488 03ba FFF7FEFF 		bl	LCD_IO_WriteMultipleData
 1489              	.LVL157:
 323:Drivers/BSP/Components/st7735/st7735.c **** }
 1490              		.loc 1 323 3 is_stmt 0 view .LVU457
 1491              	.LBE229:
 1492              	.LBE227:
 205:Drivers/BSP/Components/st7735/st7735.c ****   st7735_WriteReg(LCD_REG_224, 0x03);  
 1493              		.loc 1 205 3 is_stmt 1 view .LVU458
 1494              	.LBB230:
 1495              	.LBB231:
 322:Drivers/BSP/Components/st7735/st7735.c ****   LCD_IO_WriteMultipleData(&LCDRegValue, 1);
 1496              		.loc 1 322 3 is_stmt 0 view .LVU459
 1497 03be E020     		movs	r0, #224
 1498 03c0 8DF80740 		strb	r4, [sp, #7]
 1499              	.LVL158:
 322:Drivers/BSP/Components/st7735/st7735.c ****   LCD_IO_WriteMultipleData(&LCDRegValue, 1);
 1500              		.loc 1 322 3 view .LVU460
 1501              	.LBE231:
 1502              	.LBI230:
 320:Drivers/BSP/Components/st7735/st7735.c **** {
 1503              		.loc 1 320 6 is_stmt 1 view .LVU461
 1504              	.LBB232:
 322:Drivers/BSP/Components/st7735/st7735.c ****   LCD_IO_WriteMultipleData(&LCDRegValue, 1);
 1505              		.loc 1 322 3 view .LVU462
 1506 03c4 FFF7FEFF 		bl	LCD_IO_WriteReg
 1507              	.LVL159:
 323:Drivers/BSP/Components/st7735/st7735.c **** }
 1508              		.loc 1 323 3 view .LVU463
 1509 03c8 2146     		mov	r1, r4
 1510 03ca 0DEB0A00 		add	r0, sp, r10
 1511 03ce FFF7FEFF 		bl	LCD_IO_WriteMultipleData
 1512              	.LVL160:
 323:Drivers/BSP/Components/st7735/st7735.c **** }
 1513              		.loc 1 323 3 is_stmt 0 view .LVU464
 1514              	.LBE232:
 1515              	.LBE230:
 206:Drivers/BSP/Components/st7735/st7735.c ****   st7735_WriteReg(LCD_REG_224, 0x10);
 1516              		.loc 1 206 3 is_stmt 1 view .LVU465
 1517              	.LBB233:
 1518              	.LBI233:
 320:Drivers/BSP/Components/st7735/st7735.c **** {
 1519              		.loc 1 320 6 view .LVU466
 1520              	.LBB234:
 322:Drivers/BSP/Components/st7735/st7735.c ****   LCD_IO_WriteMultipleData(&LCDRegValue, 1);
 1521              		.loc 1 322 3 view .LVU467
 1522 03d2 0322     		movs	r2, #3
 1523 03d4 E020     		movs	r0, #224
 1524 03d6 8DF80720 		strb	r2, [sp, #7]
 1525              	.LVL161:
ARM GAS  /var/folders/0z/tsy30v1j4xl4_7kw94k978ww0000gn/T//ccK4WGjk.s 			page 43


 322:Drivers/BSP/Components/st7735/st7735.c ****   LCD_IO_WriteMultipleData(&LCDRegValue, 1);
 1526              		.loc 1 322 3 is_stmt 0 view .LVU468
 1527 03da FFF7FEFF 		bl	LCD_IO_WriteReg
 1528              	.LVL162:
 323:Drivers/BSP/Components/st7735/st7735.c **** }
 1529              		.loc 1 323 3 is_stmt 1 view .LVU469
 1530 03de 2146     		mov	r1, r4
 1531 03e0 0DEB0A00 		add	r0, sp, r10
 1532 03e4 FFF7FEFF 		bl	LCD_IO_WriteMultipleData
 1533              	.LVL163:
 323:Drivers/BSP/Components/st7735/st7735.c **** }
 1534              		.loc 1 323 3 is_stmt 0 view .LVU470
 1535              	.LBE234:
 1536              	.LBE233:
 207:Drivers/BSP/Components/st7735/st7735.c ****   /* Sparkles and rainbows, 16 args, no delay */
 1537              		.loc 1 207 3 is_stmt 1 view .LVU471
 207:Drivers/BSP/Components/st7735/st7735.c ****   /* Sparkles and rainbows, 16 args, no delay */
 1538              		.loc 1 207 3 is_stmt 0 view .LVU472
 1539 03e8 4FF0100B 		mov	fp, #16
 1540              	.LBB235:
 1541              	.LBB236:
 322:Drivers/BSP/Components/st7735/st7735.c ****   LCD_IO_WriteMultipleData(&LCDRegValue, 1);
 1542              		.loc 1 322 3 view .LVU473
 1543 03ec E020     		movs	r0, #224
 1544 03ee 8DF807B0 		strb	fp, [sp, #7]
 1545              	.LVL164:
 322:Drivers/BSP/Components/st7735/st7735.c ****   LCD_IO_WriteMultipleData(&LCDRegValue, 1);
 1546              		.loc 1 322 3 view .LVU474
 1547              	.LBE236:
 1548              	.LBI235:
 320:Drivers/BSP/Components/st7735/st7735.c **** {
 1549              		.loc 1 320 6 is_stmt 1 view .LVU475
 1550              	.LBB237:
 322:Drivers/BSP/Components/st7735/st7735.c ****   LCD_IO_WriteMultipleData(&LCDRegValue, 1);
 1551              		.loc 1 322 3 view .LVU476
 1552 03f2 FFF7FEFF 		bl	LCD_IO_WriteReg
 1553              	.LVL165:
 323:Drivers/BSP/Components/st7735/st7735.c **** }
 1554              		.loc 1 323 3 view .LVU477
 1555 03f6 2146     		mov	r1, r4
 1556 03f8 0DEB0A00 		add	r0, sp, r10
 1557 03fc FFF7FEFF 		bl	LCD_IO_WriteMultipleData
 1558              	.LVL166:
 323:Drivers/BSP/Components/st7735/st7735.c **** }
 1559              		.loc 1 323 3 is_stmt 0 view .LVU478
 1560              	.LBE237:
 1561              	.LBE235:
 209:Drivers/BSP/Components/st7735/st7735.c ****   st7735_WriteReg(LCD_REG_225, 0x1d);  
 1562              		.loc 1 209 3 is_stmt 1 view .LVU479
 209:Drivers/BSP/Components/st7735/st7735.c ****   st7735_WriteReg(LCD_REG_225, 0x1d);  
 1563              		.loc 1 209 3 is_stmt 0 view .LVU480
 1564 0400 0322     		movs	r2, #3
 1565              	.LBB238:
 1566              	.LBB239:
 322:Drivers/BSP/Components/st7735/st7735.c ****   LCD_IO_WriteMultipleData(&LCDRegValue, 1);
 1567              		.loc 1 322 3 view .LVU481
 1568 0402 E120     		movs	r0, #225
ARM GAS  /var/folders/0z/tsy30v1j4xl4_7kw94k978ww0000gn/T//ccK4WGjk.s 			page 44


 1569 0404 8DF80720 		strb	r2, [sp, #7]
 1570              	.LVL167:
 322:Drivers/BSP/Components/st7735/st7735.c ****   LCD_IO_WriteMultipleData(&LCDRegValue, 1);
 1571              		.loc 1 322 3 view .LVU482
 1572              	.LBE239:
 1573              	.LBI238:
 320:Drivers/BSP/Components/st7735/st7735.c **** {
 1574              		.loc 1 320 6 is_stmt 1 view .LVU483
 1575              	.LBB240:
 322:Drivers/BSP/Components/st7735/st7735.c ****   LCD_IO_WriteMultipleData(&LCDRegValue, 1);
 1576              		.loc 1 322 3 view .LVU484
 1577 0408 FFF7FEFF 		bl	LCD_IO_WriteReg
 1578              	.LVL168:
 323:Drivers/BSP/Components/st7735/st7735.c **** }
 1579              		.loc 1 323 3 view .LVU485
 1580 040c 2146     		mov	r1, r4
 1581 040e 0DEB0A00 		add	r0, sp, r10
 1582 0412 FFF7FEFF 		bl	LCD_IO_WriteMultipleData
 1583              	.LVL169:
 323:Drivers/BSP/Components/st7735/st7735.c **** }
 1584              		.loc 1 323 3 is_stmt 0 view .LVU486
 1585              	.LBE240:
 1586              	.LBE238:
 210:Drivers/BSP/Components/st7735/st7735.c ****   st7735_WriteReg(LCD_REG_225, 0x07);  
 1587              		.loc 1 210 3 is_stmt 1 view .LVU487
 210:Drivers/BSP/Components/st7735/st7735.c ****   st7735_WriteReg(LCD_REG_225, 0x07);  
 1588              		.loc 1 210 3 is_stmt 0 view .LVU488
 1589 0416 1D22     		movs	r2, #29
 1590              	.LBB241:
 1591              	.LBB242:
 322:Drivers/BSP/Components/st7735/st7735.c ****   LCD_IO_WriteMultipleData(&LCDRegValue, 1);
 1592              		.loc 1 322 3 view .LVU489
 1593 0418 E120     		movs	r0, #225
 1594 041a 8DF80720 		strb	r2, [sp, #7]
 1595              	.LVL170:
 322:Drivers/BSP/Components/st7735/st7735.c ****   LCD_IO_WriteMultipleData(&LCDRegValue, 1);
 1596              		.loc 1 322 3 view .LVU490
 1597              	.LBE242:
 1598              	.LBI241:
 320:Drivers/BSP/Components/st7735/st7735.c **** {
 1599              		.loc 1 320 6 is_stmt 1 view .LVU491
 1600              	.LBB243:
 322:Drivers/BSP/Components/st7735/st7735.c ****   LCD_IO_WriteMultipleData(&LCDRegValue, 1);
 1601              		.loc 1 322 3 view .LVU492
 1602 041e FFF7FEFF 		bl	LCD_IO_WriteReg
 1603              	.LVL171:
 323:Drivers/BSP/Components/st7735/st7735.c **** }
 1604              		.loc 1 323 3 view .LVU493
 1605 0422 2146     		mov	r1, r4
 1606 0424 0DEB0A00 		add	r0, sp, r10
 1607 0428 FFF7FEFF 		bl	LCD_IO_WriteMultipleData
 1608              	.LVL172:
 323:Drivers/BSP/Components/st7735/st7735.c **** }
 1609              		.loc 1 323 3 is_stmt 0 view .LVU494
 1610              	.LBE243:
 1611              	.LBE241:
 211:Drivers/BSP/Components/st7735/st7735.c ****   st7735_WriteReg(LCD_REG_225, 0x06);
ARM GAS  /var/folders/0z/tsy30v1j4xl4_7kw94k978ww0000gn/T//ccK4WGjk.s 			page 45


 1612              		.loc 1 211 3 is_stmt 1 view .LVU495
 1613              	.LBB244:
 1614              	.LBB245:
 322:Drivers/BSP/Components/st7735/st7735.c ****   LCD_IO_WriteMultipleData(&LCDRegValue, 1);
 1615              		.loc 1 322 3 is_stmt 0 view .LVU496
 1616 042c E120     		movs	r0, #225
 1617 042e 8DF807A0 		strb	r10, [sp, #7]
 1618              	.LVL173:
 322:Drivers/BSP/Components/st7735/st7735.c ****   LCD_IO_WriteMultipleData(&LCDRegValue, 1);
 1619              		.loc 1 322 3 view .LVU497
 1620              	.LBE245:
 1621              	.LBI244:
 320:Drivers/BSP/Components/st7735/st7735.c **** {
 1622              		.loc 1 320 6 is_stmt 1 view .LVU498
 1623              	.LBB246:
 322:Drivers/BSP/Components/st7735/st7735.c ****   LCD_IO_WriteMultipleData(&LCDRegValue, 1);
 1624              		.loc 1 322 3 view .LVU499
 1625 0432 FFF7FEFF 		bl	LCD_IO_WriteReg
 1626              	.LVL174:
 323:Drivers/BSP/Components/st7735/st7735.c **** }
 1627              		.loc 1 323 3 view .LVU500
 1628 0436 2146     		mov	r1, r4
 1629 0438 0DEB0A00 		add	r0, sp, r10
 1630 043c FFF7FEFF 		bl	LCD_IO_WriteMultipleData
 1631              	.LVL175:
 323:Drivers/BSP/Components/st7735/st7735.c **** }
 1632              		.loc 1 323 3 is_stmt 0 view .LVU501
 1633              	.LBE246:
 1634              	.LBE244:
 212:Drivers/BSP/Components/st7735/st7735.c ****   st7735_WriteReg(LCD_REG_225, 0x2E);  
 1635              		.loc 1 212 3 is_stmt 1 view .LVU502
 212:Drivers/BSP/Components/st7735/st7735.c ****   st7735_WriteReg(LCD_REG_225, 0x2E);  
 1636              		.loc 1 212 3 is_stmt 0 view .LVU503
 1637 0440 0622     		movs	r2, #6
 1638              	.LBB247:
 1639              	.LBB248:
 322:Drivers/BSP/Components/st7735/st7735.c ****   LCD_IO_WriteMultipleData(&LCDRegValue, 1);
 1640              		.loc 1 322 3 view .LVU504
 1641 0442 E120     		movs	r0, #225
 1642 0444 8DF80720 		strb	r2, [sp, #7]
 1643              	.LVL176:
 322:Drivers/BSP/Components/st7735/st7735.c ****   LCD_IO_WriteMultipleData(&LCDRegValue, 1);
 1644              		.loc 1 322 3 view .LVU505
 1645              	.LBE248:
 1646              	.LBI247:
 320:Drivers/BSP/Components/st7735/st7735.c **** {
 1647              		.loc 1 320 6 is_stmt 1 view .LVU506
 1648              	.LBB249:
 322:Drivers/BSP/Components/st7735/st7735.c ****   LCD_IO_WriteMultipleData(&LCDRegValue, 1);
 1649              		.loc 1 322 3 view .LVU507
 1650 0448 FFF7FEFF 		bl	LCD_IO_WriteReg
 1651              	.LVL177:
 323:Drivers/BSP/Components/st7735/st7735.c **** }
 1652              		.loc 1 323 3 view .LVU508
 1653 044c 2146     		mov	r1, r4
 1654 044e 0DEB0A00 		add	r0, sp, r10
 1655 0452 FFF7FEFF 		bl	LCD_IO_WriteMultipleData
ARM GAS  /var/folders/0z/tsy30v1j4xl4_7kw94k978ww0000gn/T//ccK4WGjk.s 			page 46


 1656              	.LVL178:
 323:Drivers/BSP/Components/st7735/st7735.c **** }
 1657              		.loc 1 323 3 is_stmt 0 view .LVU509
 1658              	.LBE249:
 1659              	.LBE247:
 213:Drivers/BSP/Components/st7735/st7735.c ****   st7735_WriteReg(LCD_REG_225, 0x2C);  
 1660              		.loc 1 213 3 is_stmt 1 view .LVU510
 213:Drivers/BSP/Components/st7735/st7735.c ****   st7735_WriteReg(LCD_REG_225, 0x2C);  
 1661              		.loc 1 213 3 is_stmt 0 view .LVU511
 1662 0456 4FF02E0A 		mov	r10, #46
 1663              	.LBB250:
 1664              	.LBB251:
 322:Drivers/BSP/Components/st7735/st7735.c ****   LCD_IO_WriteMultipleData(&LCDRegValue, 1);
 1665              		.loc 1 322 3 view .LVU512
 1666 045a E120     		movs	r0, #225
 1667 045c 8DF807A0 		strb	r10, [sp, #7]
 1668              	.LVL179:
 322:Drivers/BSP/Components/st7735/st7735.c ****   LCD_IO_WriteMultipleData(&LCDRegValue, 1);
 1669              		.loc 1 322 3 view .LVU513
 1670              	.LBE251:
 1671              	.LBI250:
 320:Drivers/BSP/Components/st7735/st7735.c **** {
 1672              		.loc 1 320 6 is_stmt 1 view .LVU514
 1673              	.LBB252:
 322:Drivers/BSP/Components/st7735/st7735.c ****   LCD_IO_WriteMultipleData(&LCDRegValue, 1);
 1674              		.loc 1 322 3 view .LVU515
 1675 0460 FFF7FEFF 		bl	LCD_IO_WriteReg
 1676              	.LVL180:
 323:Drivers/BSP/Components/st7735/st7735.c **** }
 1677              		.loc 1 323 3 view .LVU516
 1678 0464 2146     		mov	r1, r4
 1679 0466 0DF10700 		add	r0, sp, #7
 1680 046a FFF7FEFF 		bl	LCD_IO_WriteMultipleData
 1681              	.LVL181:
 323:Drivers/BSP/Components/st7735/st7735.c **** }
 1682              		.loc 1 323 3 is_stmt 0 view .LVU517
 1683              	.LBE252:
 1684              	.LBE250:
 214:Drivers/BSP/Components/st7735/st7735.c ****   st7735_WriteReg(LCD_REG_225, 0x29);  
 1685              		.loc 1 214 3 is_stmt 1 view .LVU518
 1686              	.LBB253:
 1687              	.LBB254:
 322:Drivers/BSP/Components/st7735/st7735.c ****   LCD_IO_WriteMultipleData(&LCDRegValue, 1);
 1688              		.loc 1 322 3 is_stmt 0 view .LVU519
 1689 046e E120     		movs	r0, #225
 1690 0470 8DF80770 		strb	r7, [sp, #7]
 1691              	.LVL182:
 322:Drivers/BSP/Components/st7735/st7735.c ****   LCD_IO_WriteMultipleData(&LCDRegValue, 1);
 1692              		.loc 1 322 3 view .LVU520
 1693              	.LBE254:
 1694              	.LBI253:
 320:Drivers/BSP/Components/st7735/st7735.c **** {
 1695              		.loc 1 320 6 is_stmt 1 view .LVU521
 1696              	.LBB255:
 322:Drivers/BSP/Components/st7735/st7735.c ****   LCD_IO_WriteMultipleData(&LCDRegValue, 1);
 1697              		.loc 1 322 3 view .LVU522
 1698 0474 FFF7FEFF 		bl	LCD_IO_WriteReg
ARM GAS  /var/folders/0z/tsy30v1j4xl4_7kw94k978ww0000gn/T//ccK4WGjk.s 			page 47


 1699              	.LVL183:
 323:Drivers/BSP/Components/st7735/st7735.c **** }
 1700              		.loc 1 323 3 view .LVU523
 1701 0478 2146     		mov	r1, r4
 1702 047a 0DF10700 		add	r0, sp, #7
 1703 047e FFF7FEFF 		bl	LCD_IO_WriteMultipleData
 1704              	.LVL184:
 323:Drivers/BSP/Components/st7735/st7735.c **** }
 1705              		.loc 1 323 3 is_stmt 0 view .LVU524
 1706              	.LBE255:
 1707              	.LBE253:
 215:Drivers/BSP/Components/st7735/st7735.c ****   st7735_WriteReg(LCD_REG_225, 0x2D);
 1708              		.loc 1 215 3 is_stmt 1 view .LVU525
 1709              	.LBB256:
 1710              	.LBB257:
 322:Drivers/BSP/Components/st7735/st7735.c ****   LCD_IO_WriteMultipleData(&LCDRegValue, 1);
 1711              		.loc 1 322 3 is_stmt 0 view .LVU526
 1712 0482 E120     		movs	r0, #225
 1713 0484 8DF80780 		strb	r8, [sp, #7]
 1714              	.LVL185:
 322:Drivers/BSP/Components/st7735/st7735.c ****   LCD_IO_WriteMultipleData(&LCDRegValue, 1);
 1715              		.loc 1 322 3 view .LVU527
 1716              	.LBE257:
 1717              	.LBI256:
 320:Drivers/BSP/Components/st7735/st7735.c **** {
 1718              		.loc 1 320 6 is_stmt 1 view .LVU528
 1719              	.LBB258:
 322:Drivers/BSP/Components/st7735/st7735.c ****   LCD_IO_WriteMultipleData(&LCDRegValue, 1);
 1720              		.loc 1 322 3 view .LVU529
 1721 0488 FFF7FEFF 		bl	LCD_IO_WriteReg
 1722              	.LVL186:
 323:Drivers/BSP/Components/st7735/st7735.c **** }
 1723              		.loc 1 323 3 view .LVU530
 1724 048c 2146     		mov	r1, r4
 1725 048e 0DF10700 		add	r0, sp, #7
 1726 0492 FFF7FEFF 		bl	LCD_IO_WriteMultipleData
 1727              	.LVL187:
 323:Drivers/BSP/Components/st7735/st7735.c **** }
 1728              		.loc 1 323 3 is_stmt 0 view .LVU531
 1729              	.LBE258:
 1730              	.LBE256:
 216:Drivers/BSP/Components/st7735/st7735.c ****   st7735_WriteReg(LCD_REG_225, 0x2E);  
 1731              		.loc 1 216 3 is_stmt 1 view .LVU532
 1732              	.LBB259:
 1733              	.LBB260:
 322:Drivers/BSP/Components/st7735/st7735.c ****   LCD_IO_WriteMultipleData(&LCDRegValue, 1);
 1734              		.loc 1 322 3 is_stmt 0 view .LVU533
 1735 0496 E120     		movs	r0, #225
 1736 0498 8DF80760 		strb	r6, [sp, #7]
 1737              	.LVL188:
 322:Drivers/BSP/Components/st7735/st7735.c ****   LCD_IO_WriteMultipleData(&LCDRegValue, 1);
 1738              		.loc 1 322 3 view .LVU534
 1739              	.LBE260:
 1740              	.LBI259:
 320:Drivers/BSP/Components/st7735/st7735.c **** {
 1741              		.loc 1 320 6 is_stmt 1 view .LVU535
 1742              	.LBB261:
ARM GAS  /var/folders/0z/tsy30v1j4xl4_7kw94k978ww0000gn/T//ccK4WGjk.s 			page 48


 322:Drivers/BSP/Components/st7735/st7735.c ****   LCD_IO_WriteMultipleData(&LCDRegValue, 1);
 1743              		.loc 1 322 3 view .LVU536
 1744 049c FFF7FEFF 		bl	LCD_IO_WriteReg
 1745              	.LVL189:
 323:Drivers/BSP/Components/st7735/st7735.c **** }
 1746              		.loc 1 323 3 view .LVU537
 1747 04a0 2146     		mov	r1, r4
 1748 04a2 0DF10700 		add	r0, sp, #7
 1749 04a6 FFF7FEFF 		bl	LCD_IO_WriteMultipleData
 1750              	.LVL190:
 323:Drivers/BSP/Components/st7735/st7735.c **** }
 1751              		.loc 1 323 3 is_stmt 0 view .LVU538
 1752              	.LBE261:
 1753              	.LBE259:
 217:Drivers/BSP/Components/st7735/st7735.c ****   st7735_WriteReg(LCD_REG_225, 0x2E);  
 1754              		.loc 1 217 3 is_stmt 1 view .LVU539
 1755              	.LBB262:
 1756              	.LBB263:
 322:Drivers/BSP/Components/st7735/st7735.c ****   LCD_IO_WriteMultipleData(&LCDRegValue, 1);
 1757              		.loc 1 322 3 is_stmt 0 view .LVU540
 1758 04aa E120     		movs	r0, #225
 1759 04ac 8DF807A0 		strb	r10, [sp, #7]
 1760              	.LVL191:
 322:Drivers/BSP/Components/st7735/st7735.c ****   LCD_IO_WriteMultipleData(&LCDRegValue, 1);
 1761              		.loc 1 322 3 view .LVU541
 1762              	.LBE263:
 1763              	.LBI262:
 320:Drivers/BSP/Components/st7735/st7735.c **** {
 1764              		.loc 1 320 6 is_stmt 1 view .LVU542
 1765              	.LBB264:
 322:Drivers/BSP/Components/st7735/st7735.c ****   LCD_IO_WriteMultipleData(&LCDRegValue, 1);
 1766              		.loc 1 322 3 view .LVU543
 1767 04b0 FFF7FEFF 		bl	LCD_IO_WriteReg
 1768              	.LVL192:
 323:Drivers/BSP/Components/st7735/st7735.c **** }
 1769              		.loc 1 323 3 view .LVU544
 1770 04b4 2146     		mov	r1, r4
 1771 04b6 0DF10700 		add	r0, sp, #7
 1772 04ba FFF7FEFF 		bl	LCD_IO_WriteMultipleData
 1773              	.LVL193:
 323:Drivers/BSP/Components/st7735/st7735.c **** }
 1774              		.loc 1 323 3 is_stmt 0 view .LVU545
 1775              	.LBE264:
 1776              	.LBE262:
 218:Drivers/BSP/Components/st7735/st7735.c ****   st7735_WriteReg(LCD_REG_225, 0x37);  
 1777              		.loc 1 218 3 is_stmt 1 view .LVU546
 1778              	.LBB265:
 1779              	.LBB266:
 322:Drivers/BSP/Components/st7735/st7735.c ****   LCD_IO_WriteMultipleData(&LCDRegValue, 1);
 1780              		.loc 1 322 3 is_stmt 0 view .LVU547
 1781 04be E120     		movs	r0, #225
 1782 04c0 8DF807A0 		strb	r10, [sp, #7]
 1783              	.LVL194:
 322:Drivers/BSP/Components/st7735/st7735.c ****   LCD_IO_WriteMultipleData(&LCDRegValue, 1);
 1784              		.loc 1 322 3 view .LVU548
 1785              	.LBE266:
 1786              	.LBI265:
ARM GAS  /var/folders/0z/tsy30v1j4xl4_7kw94k978ww0000gn/T//ccK4WGjk.s 			page 49


 320:Drivers/BSP/Components/st7735/st7735.c **** {
 1787              		.loc 1 320 6 is_stmt 1 view .LVU549
 1788              	.LBB267:
 322:Drivers/BSP/Components/st7735/st7735.c ****   LCD_IO_WriteMultipleData(&LCDRegValue, 1);
 1789              		.loc 1 322 3 view .LVU550
 1790 04c4 FFF7FEFF 		bl	LCD_IO_WriteReg
 1791              	.LVL195:
 323:Drivers/BSP/Components/st7735/st7735.c **** }
 1792              		.loc 1 323 3 view .LVU551
 1793 04c8 2146     		mov	r1, r4
 1794 04ca 0DF10700 		add	r0, sp, #7
 1795 04ce FFF7FEFF 		bl	LCD_IO_WriteMultipleData
 1796              	.LVL196:
 323:Drivers/BSP/Components/st7735/st7735.c **** }
 1797              		.loc 1 323 3 is_stmt 0 view .LVU552
 1798              	.LBE267:
 1799              	.LBE265:
 219:Drivers/BSP/Components/st7735/st7735.c ****   st7735_WriteReg(LCD_REG_225, 0x3F);  
 1800              		.loc 1 219 3 is_stmt 1 view .LVU553
 219:Drivers/BSP/Components/st7735/st7735.c ****   st7735_WriteReg(LCD_REG_225, 0x3F);  
 1801              		.loc 1 219 3 is_stmt 0 view .LVU554
 1802 04d2 3723     		movs	r3, #55
 1803              	.LBB268:
 1804              	.LBB269:
 322:Drivers/BSP/Components/st7735/st7735.c ****   LCD_IO_WriteMultipleData(&LCDRegValue, 1);
 1805              		.loc 1 322 3 view .LVU555
 1806 04d4 E120     		movs	r0, #225
 1807 04d6 8DF80730 		strb	r3, [sp, #7]
 1808              	.LVL197:
 322:Drivers/BSP/Components/st7735/st7735.c ****   LCD_IO_WriteMultipleData(&LCDRegValue, 1);
 1809              		.loc 1 322 3 view .LVU556
 1810              	.LBE269:
 1811              	.LBI268:
 320:Drivers/BSP/Components/st7735/st7735.c **** {
 1812              		.loc 1 320 6 is_stmt 1 view .LVU557
 1813              	.LBB270:
 322:Drivers/BSP/Components/st7735/st7735.c ****   LCD_IO_WriteMultipleData(&LCDRegValue, 1);
 1814              		.loc 1 322 3 view .LVU558
 1815 04da FFF7FEFF 		bl	LCD_IO_WriteReg
 1816              	.LVL198:
 323:Drivers/BSP/Components/st7735/st7735.c **** }
 1817              		.loc 1 323 3 view .LVU559
 1818 04de 2146     		mov	r1, r4
 1819 04e0 0DF10700 		add	r0, sp, #7
 1820 04e4 FFF7FEFF 		bl	LCD_IO_WriteMultipleData
 1821              	.LVL199:
 323:Drivers/BSP/Components/st7735/st7735.c **** }
 1822              		.loc 1 323 3 is_stmt 0 view .LVU560
 1823              	.LBE270:
 1824              	.LBE268:
 220:Drivers/BSP/Components/st7735/st7735.c ****   st7735_WriteReg(LCD_REG_225, 0x00);  
 1825              		.loc 1 220 3 is_stmt 1 view .LVU561
 220:Drivers/BSP/Components/st7735/st7735.c ****   st7735_WriteReg(LCD_REG_225, 0x00);  
 1826              		.loc 1 220 3 is_stmt 0 view .LVU562
 1827 04e8 3F23     		movs	r3, #63
 1828              	.LBB271:
 1829              	.LBB272:
ARM GAS  /var/folders/0z/tsy30v1j4xl4_7kw94k978ww0000gn/T//ccK4WGjk.s 			page 50


 322:Drivers/BSP/Components/st7735/st7735.c ****   LCD_IO_WriteMultipleData(&LCDRegValue, 1);
 1830              		.loc 1 322 3 view .LVU563
 1831 04ea E120     		movs	r0, #225
 1832 04ec 8DF80730 		strb	r3, [sp, #7]
 1833              	.LVL200:
 322:Drivers/BSP/Components/st7735/st7735.c ****   LCD_IO_WriteMultipleData(&LCDRegValue, 1);
 1834              		.loc 1 322 3 view .LVU564
 1835              	.LBE272:
 1836              	.LBI271:
 320:Drivers/BSP/Components/st7735/st7735.c **** {
 1837              		.loc 1 320 6 is_stmt 1 view .LVU565
 1838              	.LBB273:
 322:Drivers/BSP/Components/st7735/st7735.c ****   LCD_IO_WriteMultipleData(&LCDRegValue, 1);
 1839              		.loc 1 322 3 view .LVU566
 1840 04f0 FFF7FEFF 		bl	LCD_IO_WriteReg
 1841              	.LVL201:
 323:Drivers/BSP/Components/st7735/st7735.c **** }
 1842              		.loc 1 323 3 view .LVU567
 1843 04f4 2146     		mov	r1, r4
 1844 04f6 0DF10700 		add	r0, sp, #7
 1845 04fa FFF7FEFF 		bl	LCD_IO_WriteMultipleData
 1846              	.LVL202:
 323:Drivers/BSP/Components/st7735/st7735.c **** }
 1847              		.loc 1 323 3 is_stmt 0 view .LVU568
 1848              	.LBE273:
 1849              	.LBE271:
 221:Drivers/BSP/Components/st7735/st7735.c ****   st7735_WriteReg(LCD_REG_225, 0x00);  
 1850              		.loc 1 221 3 is_stmt 1 view .LVU569
 1851              	.LBB274:
 1852              	.LBB275:
 322:Drivers/BSP/Components/st7735/st7735.c ****   LCD_IO_WriteMultipleData(&LCDRegValue, 1);
 1853              		.loc 1 322 3 is_stmt 0 view .LVU570
 1854 04fe E120     		movs	r0, #225
 1855 0500 8DF80750 		strb	r5, [sp, #7]
 1856              	.LVL203:
 322:Drivers/BSP/Components/st7735/st7735.c ****   LCD_IO_WriteMultipleData(&LCDRegValue, 1);
 1857              		.loc 1 322 3 view .LVU571
 1858              	.LBE275:
 1859              	.LBI274:
 320:Drivers/BSP/Components/st7735/st7735.c **** {
 1860              		.loc 1 320 6 is_stmt 1 view .LVU572
 1861              	.LBB276:
 322:Drivers/BSP/Components/st7735/st7735.c ****   LCD_IO_WriteMultipleData(&LCDRegValue, 1);
 1862              		.loc 1 322 3 view .LVU573
 1863 0504 FFF7FEFF 		bl	LCD_IO_WriteReg
 1864              	.LVL204:
 323:Drivers/BSP/Components/st7735/st7735.c **** }
 1865              		.loc 1 323 3 view .LVU574
 1866 0508 2146     		mov	r1, r4
 1867 050a 0DF10700 		add	r0, sp, #7
 1868 050e FFF7FEFF 		bl	LCD_IO_WriteMultipleData
 1869              	.LVL205:
 323:Drivers/BSP/Components/st7735/st7735.c **** }
 1870              		.loc 1 323 3 is_stmt 0 view .LVU575
 1871              	.LBE276:
 1872              	.LBE274:
 222:Drivers/BSP/Components/st7735/st7735.c ****   st7735_WriteReg(LCD_REG_225, 0x02);  
ARM GAS  /var/folders/0z/tsy30v1j4xl4_7kw94k978ww0000gn/T//ccK4WGjk.s 			page 51


 1873              		.loc 1 222 3 is_stmt 1 view .LVU576
 1874              	.LBB277:
 1875              	.LBB278:
 322:Drivers/BSP/Components/st7735/st7735.c ****   LCD_IO_WriteMultipleData(&LCDRegValue, 1);
 1876              		.loc 1 322 3 is_stmt 0 view .LVU577
 1877 0512 E120     		movs	r0, #225
 1878 0514 8DF80750 		strb	r5, [sp, #7]
 1879              	.LVL206:
 322:Drivers/BSP/Components/st7735/st7735.c ****   LCD_IO_WriteMultipleData(&LCDRegValue, 1);
 1880              		.loc 1 322 3 view .LVU578
 1881              	.LBE278:
 1882              	.LBI277:
 320:Drivers/BSP/Components/st7735/st7735.c **** {
 1883              		.loc 1 320 6 is_stmt 1 view .LVU579
 1884              	.LBB279:
 322:Drivers/BSP/Components/st7735/st7735.c ****   LCD_IO_WriteMultipleData(&LCDRegValue, 1);
 1885              		.loc 1 322 3 view .LVU580
 1886 0518 FFF7FEFF 		bl	LCD_IO_WriteReg
 1887              	.LVL207:
 323:Drivers/BSP/Components/st7735/st7735.c **** }
 1888              		.loc 1 323 3 view .LVU581
 1889 051c 2146     		mov	r1, r4
 1890 051e 0DF10700 		add	r0, sp, #7
 1891 0522 FFF7FEFF 		bl	LCD_IO_WriteMultipleData
 1892              	.LVL208:
 323:Drivers/BSP/Components/st7735/st7735.c **** }
 1893              		.loc 1 323 3 is_stmt 0 view .LVU582
 1894              	.LBE279:
 1895              	.LBE277:
 223:Drivers/BSP/Components/st7735/st7735.c ****   st7735_WriteReg(LCD_REG_225, 0x10);
 1896              		.loc 1 223 3 is_stmt 1 view .LVU583
 1897              	.LBB280:
 1898              	.LBB281:
 322:Drivers/BSP/Components/st7735/st7735.c ****   LCD_IO_WriteMultipleData(&LCDRegValue, 1);
 1899              		.loc 1 322 3 is_stmt 0 view .LVU584
 1900 0526 E120     		movs	r0, #225
 1901 0528 8DF80790 		strb	r9, [sp, #7]
 1902              	.LVL209:
 322:Drivers/BSP/Components/st7735/st7735.c ****   LCD_IO_WriteMultipleData(&LCDRegValue, 1);
 1903              		.loc 1 322 3 view .LVU585
 1904              	.LBE281:
 1905              	.LBI280:
 320:Drivers/BSP/Components/st7735/st7735.c **** {
 1906              		.loc 1 320 6 is_stmt 1 view .LVU586
 1907              	.LBB282:
 322:Drivers/BSP/Components/st7735/st7735.c ****   LCD_IO_WriteMultipleData(&LCDRegValue, 1);
 1908              		.loc 1 322 3 view .LVU587
 1909 052c FFF7FEFF 		bl	LCD_IO_WriteReg
 1910              	.LVL210:
 323:Drivers/BSP/Components/st7735/st7735.c **** }
 1911              		.loc 1 323 3 view .LVU588
 1912 0530 2146     		mov	r1, r4
 1913 0532 0DF10700 		add	r0, sp, #7
 1914 0536 FFF7FEFF 		bl	LCD_IO_WriteMultipleData
 1915              	.LVL211:
 323:Drivers/BSP/Components/st7735/st7735.c **** }
 1916              		.loc 1 323 3 is_stmt 0 view .LVU589
ARM GAS  /var/folders/0z/tsy30v1j4xl4_7kw94k978ww0000gn/T//ccK4WGjk.s 			page 52


 1917              	.LBE282:
 1918              	.LBE280:
 224:Drivers/BSP/Components/st7735/st7735.c ****   /* Normal display on, no args, no delay */
 1919              		.loc 1 224 3 is_stmt 1 view .LVU590
 1920              	.LBB283:
 1921              	.LBB284:
 322:Drivers/BSP/Components/st7735/st7735.c ****   LCD_IO_WriteMultipleData(&LCDRegValue, 1);
 1922              		.loc 1 322 3 is_stmt 0 view .LVU591
 1923 053a E120     		movs	r0, #225
 1924 053c 8DF807B0 		strb	fp, [sp, #7]
 1925              	.LVL212:
 322:Drivers/BSP/Components/st7735/st7735.c ****   LCD_IO_WriteMultipleData(&LCDRegValue, 1);
 1926              		.loc 1 322 3 view .LVU592
 1927              	.LBE284:
 1928              	.LBI283:
 320:Drivers/BSP/Components/st7735/st7735.c **** {
 1929              		.loc 1 320 6 is_stmt 1 view .LVU593
 1930              	.LBB285:
 322:Drivers/BSP/Components/st7735/st7735.c ****   LCD_IO_WriteMultipleData(&LCDRegValue, 1);
 1931              		.loc 1 322 3 view .LVU594
 1932 0540 FFF7FEFF 		bl	LCD_IO_WriteReg
 1933              	.LVL213:
 323:Drivers/BSP/Components/st7735/st7735.c **** }
 1934              		.loc 1 323 3 view .LVU595
 1935 0544 2146     		mov	r1, r4
 1936 0546 0DF10700 		add	r0, sp, #7
 1937 054a FFF7FEFF 		bl	LCD_IO_WriteMultipleData
 1938              	.LVL214:
 323:Drivers/BSP/Components/st7735/st7735.c **** }
 1939              		.loc 1 323 3 is_stmt 0 view .LVU596
 1940              	.LBE285:
 1941              	.LBE283:
 226:Drivers/BSP/Components/st7735/st7735.c ****   /* Main screen turn on, no delay */
 1942              		.loc 1 226 3 is_stmt 1 view .LVU597
 1943              	.LBB286:
 1944              	.LBB287:
 322:Drivers/BSP/Components/st7735/st7735.c ****   LCD_IO_WriteMultipleData(&LCDRegValue, 1);
 1945              		.loc 1 322 3 is_stmt 0 view .LVU598
 1946 054e 1320     		movs	r0, #19
 1947 0550 8DF80750 		strb	r5, [sp, #7]
 1948              	.LVL215:
 322:Drivers/BSP/Components/st7735/st7735.c ****   LCD_IO_WriteMultipleData(&LCDRegValue, 1);
 1949              		.loc 1 322 3 view .LVU599
 1950              	.LBE287:
 1951              	.LBI286:
 320:Drivers/BSP/Components/st7735/st7735.c **** {
 1952              		.loc 1 320 6 is_stmt 1 view .LVU600
 1953              	.LBB288:
 322:Drivers/BSP/Components/st7735/st7735.c ****   LCD_IO_WriteMultipleData(&LCDRegValue, 1);
 1954              		.loc 1 322 3 view .LVU601
 1955 0554 FFF7FEFF 		bl	LCD_IO_WriteReg
 1956              	.LVL216:
 323:Drivers/BSP/Components/st7735/st7735.c **** }
 1957              		.loc 1 323 3 view .LVU602
 1958 0558 2146     		mov	r1, r4
 1959 055a 0DF10700 		add	r0, sp, #7
 1960 055e FFF7FEFF 		bl	LCD_IO_WriteMultipleData
ARM GAS  /var/folders/0z/tsy30v1j4xl4_7kw94k978ww0000gn/T//ccK4WGjk.s 			page 53


 1961              	.LVL217:
 323:Drivers/BSP/Components/st7735/st7735.c **** }
 1962              		.loc 1 323 3 is_stmt 0 view .LVU603
 1963              	.LBE288:
 1964              	.LBE286:
 228:Drivers/BSP/Components/st7735/st7735.c ****   /* Memory access control: MY = 1, MX = 1, MV = 0, ML = 0 */
 1965              		.loc 1 228 3 is_stmt 1 view .LVU604
 1966              	.LBB289:
 1967              	.LBB290:
 322:Drivers/BSP/Components/st7735/st7735.c ****   LCD_IO_WriteMultipleData(&LCDRegValue, 1);
 1968              		.loc 1 322 3 is_stmt 0 view .LVU605
 1969 0562 4046     		mov	r0, r8
 1970 0564 8DF80750 		strb	r5, [sp, #7]
 1971              	.LVL218:
 322:Drivers/BSP/Components/st7735/st7735.c ****   LCD_IO_WriteMultipleData(&LCDRegValue, 1);
 1972              		.loc 1 322 3 view .LVU606
 1973              	.LBE290:
 1974              	.LBI289:
 320:Drivers/BSP/Components/st7735/st7735.c **** {
 1975              		.loc 1 320 6 is_stmt 1 view .LVU607
 1976              	.LBB291:
 322:Drivers/BSP/Components/st7735/st7735.c ****   LCD_IO_WriteMultipleData(&LCDRegValue, 1);
 1977              		.loc 1 322 3 view .LVU608
 1978 0568 FFF7FEFF 		bl	LCD_IO_WriteReg
 1979              	.LVL219:
 323:Drivers/BSP/Components/st7735/st7735.c **** }
 1980              		.loc 1 323 3 view .LVU609
 1981 056c 2146     		mov	r1, r4
 1982 056e 0DF10700 		add	r0, sp, #7
 1983 0572 FFF7FEFF 		bl	LCD_IO_WriteMultipleData
 1984              	.LVL220:
 323:Drivers/BSP/Components/st7735/st7735.c **** }
 1985              		.loc 1 323 3 is_stmt 0 view .LVU610
 1986              	.LBE291:
 1987              	.LBE289:
 230:Drivers/BSP/Components/st7735/st7735.c **** }
 1988              		.loc 1 230 3 is_stmt 1 view .LVU611
 230:Drivers/BSP/Components/st7735/st7735.c **** }
 1989              		.loc 1 230 3 is_stmt 0 view .LVU612
 1990 0576 C023     		movs	r3, #192
 1991              	.LBB292:
 1992              	.LBB293:
 322:Drivers/BSP/Components/st7735/st7735.c ****   LCD_IO_WriteMultipleData(&LCDRegValue, 1);
 1993              		.loc 1 322 3 view .LVU613
 1994 0578 3620     		movs	r0, #54
 1995 057a 8DF80730 		strb	r3, [sp, #7]
 1996              	.LVL221:
 322:Drivers/BSP/Components/st7735/st7735.c ****   LCD_IO_WriteMultipleData(&LCDRegValue, 1);
 1997              		.loc 1 322 3 view .LVU614
 1998              	.LBE293:
 1999              	.LBI292:
 320:Drivers/BSP/Components/st7735/st7735.c **** {
 2000              		.loc 1 320 6 is_stmt 1 view .LVU615
 2001              	.LBB294:
 322:Drivers/BSP/Components/st7735/st7735.c ****   LCD_IO_WriteMultipleData(&LCDRegValue, 1);
 2002              		.loc 1 322 3 view .LVU616
 2003 057e FFF7FEFF 		bl	LCD_IO_WriteReg
ARM GAS  /var/folders/0z/tsy30v1j4xl4_7kw94k978ww0000gn/T//ccK4WGjk.s 			page 54


 2004              	.LVL222:
 323:Drivers/BSP/Components/st7735/st7735.c **** }
 2005              		.loc 1 323 3 view .LVU617
 2006 0582 2146     		mov	r1, r4
 2007 0584 0DF10700 		add	r0, sp, #7
 2008 0588 FFF7FEFF 		bl	LCD_IO_WriteMultipleData
 2009              	.LVL223:
 323:Drivers/BSP/Components/st7735/st7735.c **** }
 2010              		.loc 1 323 3 is_stmt 0 view .LVU618
 2011              	.LBE294:
 2012              	.LBE292:
 231:Drivers/BSP/Components/st7735/st7735.c **** 
 2013              		.loc 1 231 1 view .LVU619
 2014 058c 03B0     		add	sp, sp, #12
 2015              		.cfi_def_cfa_offset 36
 2016              		@ sp needed
 2017 058e BDE8F08F 		pop	{r4, r5, r6, r7, r8, r9, r10, fp, pc}
 2018              		.cfi_endproc
 2019              	.LFE0:
 2021 0592 00BF     		.section	.text.st7735_DrawBitmap,"ax",%progbits
 2022              		.align	1
 2023              		.p2align 2,,3
 2024              		.global	st7735_DrawBitmap
 2025              		.syntax unified
 2026              		.thumb
 2027              		.thumb_func
 2029              	st7735_DrawBitmap:
 2030              	.LVL224:
 2031              	.LFB11:
 421:Drivers/BSP/Components/st7735/st7735.c **** 
 422:Drivers/BSP/Components/st7735/st7735.c **** /**
 423:Drivers/BSP/Components/st7735/st7735.c ****   * @brief  Displays a bitmap picture loaded in the internal Flash.
 424:Drivers/BSP/Components/st7735/st7735.c ****   * @param  BmpAddress: Bmp picture address in the internal Flash.
 425:Drivers/BSP/Components/st7735/st7735.c ****   * @retval None
 426:Drivers/BSP/Components/st7735/st7735.c ****   */
 427:Drivers/BSP/Components/st7735/st7735.c **** void st7735_DrawBitmap(uint16_t Xpos, uint16_t Ypos, uint8_t *pbmp)
 428:Drivers/BSP/Components/st7735/st7735.c **** {
 2032              		.loc 1 428 1 is_stmt 1 view -0
 2033              		.cfi_startproc
 2034              		@ args = 0, pretend = 0, frame = 8
 2035              		@ frame_needed = 0, uses_anonymous_args = 0
 429:Drivers/BSP/Components/st7735/st7735.c ****   uint32_t index = 0, size = 0;
 2036              		.loc 1 429 3 view .LVU621
 430:Drivers/BSP/Components/st7735/st7735.c ****   
 431:Drivers/BSP/Components/st7735/st7735.c ****   /* Read bitmap size */
 432:Drivers/BSP/Components/st7735/st7735.c ****   size = *(volatile uint16_t *) (pbmp + 2);
 2037              		.loc 1 432 3 view .LVU622
 428:Drivers/BSP/Components/st7735/st7735.c ****   uint32_t index = 0, size = 0;
 2038              		.loc 1 428 1 is_stmt 0 view .LVU623
 2039 0000 F0B5     		push	{r4, r5, r6, r7, lr}
 2040              		.cfi_def_cfa_offset 20
 2041              		.cfi_offset 4, -20
 2042              		.cfi_offset 5, -16
 2043              		.cfi_offset 6, -12
 2044              		.cfi_offset 7, -8
 2045              		.cfi_offset 14, -4
 2046              		.loc 1 432 10 view .LVU624
ARM GAS  /var/folders/0z/tsy30v1j4xl4_7kw94k978ww0000gn/T//ccK4WGjk.s 			page 55


 2047 0002 5588     		ldrh	r5, [r2, #2]
 433:Drivers/BSP/Components/st7735/st7735.c ****   size |= (*(volatile uint16_t *) (pbmp + 4)) << 16;
 2048              		.loc 1 433 12 view .LVU625
 2049 0004 9388     		ldrh	r3, [r2, #4]
 432:Drivers/BSP/Components/st7735/st7735.c ****   size |= (*(volatile uint16_t *) (pbmp + 4)) << 16;
 2050              		.loc 1 432 10 view .LVU626
 2051 0006 ADB2     		uxth	r5, r5
 2052              	.LVL225:
 2053              		.loc 1 433 3 is_stmt 1 view .LVU627
 434:Drivers/BSP/Components/st7735/st7735.c ****   /* Get bitmap data address offset */
 435:Drivers/BSP/Components/st7735/st7735.c ****   index = *(volatile uint16_t *) (pbmp + 10);
 2054              		.loc 1 435 3 view .LVU628
 433:Drivers/BSP/Components/st7735/st7735.c ****   /* Get bitmap data address offset */
 2055              		.loc 1 433 8 is_stmt 0 view .LVU629
 2056 0008 45EA0345 		orr	r5, r5, r3, lsl #16
 2057              	.LVL226:
 2058              		.loc 1 435 11 view .LVU630
 2059 000c 5389     		ldrh	r3, [r2, #10]
 428:Drivers/BSP/Components/st7735/st7735.c ****   uint32_t index = 0, size = 0;
 2060              		.loc 1 428 1 view .LVU631
 2061 000e 0F46     		mov	r7, r1
 436:Drivers/BSP/Components/st7735/st7735.c ****   index |= (*(volatile uint16_t *) (pbmp + 12)) << 16;
 2062              		.loc 1 436 13 view .LVU632
 2063 0010 9189     		ldrh	r1, [r2, #12]
 2064              	.LVL227:
 435:Drivers/BSP/Components/st7735/st7735.c ****   index |= (*(volatile uint16_t *) (pbmp + 12)) << 16;
 2065              		.loc 1 435 11 view .LVU633
 2066 0012 9BB2     		uxth	r3, r3
 2067              	.LVL228:
 2068              		.loc 1 436 3 is_stmt 1 view .LVU634
 428:Drivers/BSP/Components/st7735/st7735.c ****   uint32_t index = 0, size = 0;
 2069              		.loc 1 428 1 is_stmt 0 view .LVU635
 2070 0014 83B0     		sub	sp, sp, #12
 2071              		.cfi_def_cfa_offset 32
 2072              		.loc 1 436 9 view .LVU636
 2073 0016 43EA0143 		orr	r3, r3, r1, lsl #16
 2074              	.LVL229:
 437:Drivers/BSP/Components/st7735/st7735.c ****   size = (size - index)/2;
 2075              		.loc 1 437 3 is_stmt 1 view .LVU637
 438:Drivers/BSP/Components/st7735/st7735.c ****   pbmp += index;
 2076              		.loc 1 438 8 is_stmt 0 view .LVU638
 2077 001a D418     		adds	r4, r2, r3
 428:Drivers/BSP/Components/st7735/st7735.c ****   uint32_t index = 0, size = 0;
 2078              		.loc 1 428 1 view .LVU639
 2079 001c 0646     		mov	r6, r0
 437:Drivers/BSP/Components/st7735/st7735.c ****   size = (size - index)/2;
 2080              		.loc 1 437 16 view .LVU640
 2081 001e ED1A     		subs	r5, r5, r3
 2082              	.LVL230:
 2083              		.loc 1 438 3 is_stmt 1 view .LVU641
 439:Drivers/BSP/Components/st7735/st7735.c ****   
 440:Drivers/BSP/Components/st7735/st7735.c ****   /* Set GRAM write direction and BGR = 0 */
 441:Drivers/BSP/Components/st7735/st7735.c ****   /* Memory access control: MY = 0, MX = 1, MV = 0, ML = 0 */
 442:Drivers/BSP/Components/st7735/st7735.c ****   st7735_WriteReg(LCD_REG_54, 0x40);
 2084              		.loc 1 442 3 view .LVU642
 2085              	.LBB295:
 2086              	.LBB296:
ARM GAS  /var/folders/0z/tsy30v1j4xl4_7kw94k978ww0000gn/T//ccK4WGjk.s 			page 56


 322:Drivers/BSP/Components/st7735/st7735.c ****   LCD_IO_WriteMultipleData(&LCDRegValue, 1);
 2087              		.loc 1 322 3 is_stmt 0 view .LVU643
 2088 0020 3620     		movs	r0, #54
 2089              	.LVL231:
 322:Drivers/BSP/Components/st7735/st7735.c ****   LCD_IO_WriteMultipleData(&LCDRegValue, 1);
 2090              		.loc 1 322 3 view .LVU644
 2091 0022 4023     		movs	r3, #64
 2092              	.LVL232:
 322:Drivers/BSP/Components/st7735/st7735.c ****   LCD_IO_WriteMultipleData(&LCDRegValue, 1);
 2093              		.loc 1 322 3 view .LVU645
 2094 0024 8DF80730 		strb	r3, [sp, #7]
 2095              	.LVL233:
 322:Drivers/BSP/Components/st7735/st7735.c ****   LCD_IO_WriteMultipleData(&LCDRegValue, 1);
 2096              		.loc 1 322 3 view .LVU646
 2097              	.LBE296:
 2098              	.LBI295:
 320:Drivers/BSP/Components/st7735/st7735.c **** {
 2099              		.loc 1 320 6 is_stmt 1 view .LVU647
 2100              	.LBB297:
 322:Drivers/BSP/Components/st7735/st7735.c ****   LCD_IO_WriteMultipleData(&LCDRegValue, 1);
 2101              		.loc 1 322 3 view .LVU648
 2102 0028 FFF7FEFF 		bl	LCD_IO_WriteReg
 2103              	.LVL234:
 323:Drivers/BSP/Components/st7735/st7735.c **** }
 2104              		.loc 1 323 3 view .LVU649
 2105 002c 0DF10700 		add	r0, sp, #7
 2106 0030 0121     		movs	r1, #1
 2107 0032 FFF7FEFF 		bl	LCD_IO_WriteMultipleData
 2108              	.LVL235:
 323:Drivers/BSP/Components/st7735/st7735.c **** }
 2109              		.loc 1 323 3 is_stmt 0 view .LVU650
 2110              	.LBE297:
 2111              	.LBE295:
 443:Drivers/BSP/Components/st7735/st7735.c **** 
 444:Drivers/BSP/Components/st7735/st7735.c ****   /* Set Cursor */
 445:Drivers/BSP/Components/st7735/st7735.c ****   st7735_SetCursor(Xpos, Ypos);  
 2112              		.loc 1 445 3 is_stmt 1 view .LVU651
 2113 0036 3946     		mov	r1, r7
 2114 0038 3046     		mov	r0, r6
 2115 003a FFF7FEFF 		bl	st7735_SetCursor
 2116              	.LVL236:
 446:Drivers/BSP/Components/st7735/st7735.c ****  
 447:Drivers/BSP/Components/st7735/st7735.c ****   LCD_IO_WriteMultipleData((uint8_t*)pbmp, size*2);
 2117              		.loc 1 447 3 view .LVU652
 2118 003e 25F00101 		bic	r1, r5, #1
 2119 0042 2046     		mov	r0, r4
 2120 0044 FFF7FEFF 		bl	LCD_IO_WriteMultipleData
 2121              	.LVL237:
 448:Drivers/BSP/Components/st7735/st7735.c ****  
 449:Drivers/BSP/Components/st7735/st7735.c ****   /* Set GRAM write direction and BGR = 0 */
 450:Drivers/BSP/Components/st7735/st7735.c ****   /* Memory access control: MY = 1, MX = 1, MV = 0, ML = 0 */
 451:Drivers/BSP/Components/st7735/st7735.c ****   st7735_WriteReg(LCD_REG_54, 0xC0);
 2122              		.loc 1 451 3 view .LVU653
 2123              		.loc 1 451 3 is_stmt 0 view .LVU654
 2124 0048 C023     		movs	r3, #192
 2125              	.LBB298:
 2126              	.LBB299:
ARM GAS  /var/folders/0z/tsy30v1j4xl4_7kw94k978ww0000gn/T//ccK4WGjk.s 			page 57


 322:Drivers/BSP/Components/st7735/st7735.c ****   LCD_IO_WriteMultipleData(&LCDRegValue, 1);
 2127              		.loc 1 322 3 view .LVU655
 2128 004a 3620     		movs	r0, #54
 2129 004c 8DF80730 		strb	r3, [sp, #7]
 2130              	.LVL238:
 322:Drivers/BSP/Components/st7735/st7735.c ****   LCD_IO_WriteMultipleData(&LCDRegValue, 1);
 2131              		.loc 1 322 3 view .LVU656
 2132              	.LBE299:
 2133              	.LBI298:
 320:Drivers/BSP/Components/st7735/st7735.c **** {
 2134              		.loc 1 320 6 is_stmt 1 view .LVU657
 2135              	.LBB300:
 322:Drivers/BSP/Components/st7735/st7735.c ****   LCD_IO_WriteMultipleData(&LCDRegValue, 1);
 2136              		.loc 1 322 3 view .LVU658
 2137 0050 FFF7FEFF 		bl	LCD_IO_WriteReg
 2138              	.LVL239:
 323:Drivers/BSP/Components/st7735/st7735.c **** }
 2139              		.loc 1 323 3 view .LVU659
 2140 0054 0121     		movs	r1, #1
 2141 0056 0DF10700 		add	r0, sp, #7
 2142 005a FFF7FEFF 		bl	LCD_IO_WriteMultipleData
 2143              	.LVL240:
 323:Drivers/BSP/Components/st7735/st7735.c **** }
 2144              		.loc 1 323 3 is_stmt 0 view .LVU660
 2145              	.LBE300:
 2146              	.LBE298:
 452:Drivers/BSP/Components/st7735/st7735.c **** }
 2147              		.loc 1 452 1 view .LVU661
 2148 005e 03B0     		add	sp, sp, #12
 2149              		.cfi_def_cfa_offset 20
 2150              		@ sp needed
 2151 0060 F0BD     		pop	{r4, r5, r6, r7, pc}
 2152              		.loc 1 452 1 view .LVU662
 2153              		.cfi_endproc
 2154              	.LFE11:
 2156 0062 00BF     		.section	.text.st7735_DisplayOn,"ax",%progbits
 2157              		.align	1
 2158              		.p2align 2,,3
 2159              		.global	st7735_DisplayOn
 2160              		.syntax unified
 2161              		.thumb
 2162              		.thumb_func
 2164              	st7735_DisplayOn:
 2165              	.LFB1:
 239:Drivers/BSP/Components/st7735/st7735.c ****   uint8_t data = 0;
 2166              		.loc 1 239 1 is_stmt 1 view -0
 2167              		.cfi_startproc
 2168              		@ args = 0, pretend = 0, frame = 8
 2169              		@ frame_needed = 0, uses_anonymous_args = 0
 240:Drivers/BSP/Components/st7735/st7735.c ****   LCD_IO_WriteReg(LCD_REG_19);
 2170              		.loc 1 240 3 view .LVU664
 239:Drivers/BSP/Components/st7735/st7735.c ****   uint8_t data = 0;
 2171              		.loc 1 239 1 is_stmt 0 view .LVU665
 2172 0000 00B5     		push	{lr}
 2173              		.cfi_def_cfa_offset 4
 2174              		.cfi_offset 14, -4
 2175 0002 83B0     		sub	sp, sp, #12
ARM GAS  /var/folders/0z/tsy30v1j4xl4_7kw94k978ww0000gn/T//ccK4WGjk.s 			page 58


 2176              		.cfi_def_cfa_offset 16
 240:Drivers/BSP/Components/st7735/st7735.c ****   LCD_IO_WriteReg(LCD_REG_19);
 2177              		.loc 1 240 11 view .LVU666
 2178 0004 0023     		movs	r3, #0
 241:Drivers/BSP/Components/st7735/st7735.c ****   LCD_Delay(10);
 2179              		.loc 1 241 3 view .LVU667
 2180 0006 1320     		movs	r0, #19
 240:Drivers/BSP/Components/st7735/st7735.c ****   LCD_IO_WriteReg(LCD_REG_19);
 2181              		.loc 1 240 11 view .LVU668
 2182 0008 8DF80730 		strb	r3, [sp, #7]
 241:Drivers/BSP/Components/st7735/st7735.c ****   LCD_Delay(10);
 2183              		.loc 1 241 3 is_stmt 1 view .LVU669
 2184 000c FFF7FEFF 		bl	LCD_IO_WriteReg
 2185              	.LVL241:
 242:Drivers/BSP/Components/st7735/st7735.c ****   LCD_IO_WriteReg(LCD_REG_41);
 2186              		.loc 1 242 3 view .LVU670
 2187 0010 0A20     		movs	r0, #10
 2188 0012 FFF7FEFF 		bl	LCD_Delay
 2189              	.LVL242:
 243:Drivers/BSP/Components/st7735/st7735.c ****   LCD_Delay(10);
 2190              		.loc 1 243 3 view .LVU671
 2191 0016 2920     		movs	r0, #41
 2192 0018 FFF7FEFF 		bl	LCD_IO_WriteReg
 2193              	.LVL243:
 244:Drivers/BSP/Components/st7735/st7735.c ****   LCD_IO_WriteReg(LCD_REG_54);
 2194              		.loc 1 244 3 view .LVU672
 2195 001c 0A20     		movs	r0, #10
 2196 001e FFF7FEFF 		bl	LCD_Delay
 2197              	.LVL244:
 245:Drivers/BSP/Components/st7735/st7735.c ****   data = 0xC0;
 2198              		.loc 1 245 3 view .LVU673
 2199 0022 3620     		movs	r0, #54
 2200 0024 FFF7FEFF 		bl	LCD_IO_WriteReg
 2201              	.LVL245:
 246:Drivers/BSP/Components/st7735/st7735.c ****   LCD_IO_WriteMultipleData(&data, 1);
 2202              		.loc 1 246 3 view .LVU674
 246:Drivers/BSP/Components/st7735/st7735.c ****   LCD_IO_WriteMultipleData(&data, 1);
 2203              		.loc 1 246 8 is_stmt 0 view .LVU675
 2204 0028 C023     		movs	r3, #192
 247:Drivers/BSP/Components/st7735/st7735.c **** }
 2205              		.loc 1 247 3 view .LVU676
 2206 002a 0121     		movs	r1, #1
 2207 002c 0DF10700 		add	r0, sp, #7
 246:Drivers/BSP/Components/st7735/st7735.c ****   LCD_IO_WriteMultipleData(&data, 1);
 2208              		.loc 1 246 8 view .LVU677
 2209 0030 8DF80730 		strb	r3, [sp, #7]
 247:Drivers/BSP/Components/st7735/st7735.c **** }
 2210              		.loc 1 247 3 is_stmt 1 view .LVU678
 2211 0034 FFF7FEFF 		bl	LCD_IO_WriteMultipleData
 2212              	.LVL246:
 248:Drivers/BSP/Components/st7735/st7735.c **** 
 2213              		.loc 1 248 1 is_stmt 0 view .LVU679
 2214 0038 03B0     		add	sp, sp, #12
 2215              		.cfi_def_cfa_offset 4
 2216              		@ sp needed
 2217 003a 5DF804FB 		ldr	pc, [sp], #4
 2218              		.cfi_endproc
ARM GAS  /var/folders/0z/tsy30v1j4xl4_7kw94k978ww0000gn/T//ccK4WGjk.s 			page 59


 2219              	.LFE1:
 2221 003e 00BF     		.section	.text.st7735_DisplayOff,"ax",%progbits
 2222              		.align	1
 2223              		.p2align 2,,3
 2224              		.global	st7735_DisplayOff
 2225              		.syntax unified
 2226              		.thumb
 2227              		.thumb_func
 2229              	st7735_DisplayOff:
 2230              	.LFB2:
 256:Drivers/BSP/Components/st7735/st7735.c ****   uint8_t data = 0;
 2231              		.loc 1 256 1 is_stmt 1 view -0
 2232              		.cfi_startproc
 2233              		@ args = 0, pretend = 0, frame = 8
 2234              		@ frame_needed = 0, uses_anonymous_args = 0
 257:Drivers/BSP/Components/st7735/st7735.c ****   LCD_IO_WriteReg(LCD_REG_19);
 2235              		.loc 1 257 3 view .LVU681
 256:Drivers/BSP/Components/st7735/st7735.c ****   uint8_t data = 0;
 2236              		.loc 1 256 1 is_stmt 0 view .LVU682
 2237 0000 00B5     		push	{lr}
 2238              		.cfi_def_cfa_offset 4
 2239              		.cfi_offset 14, -4
 2240 0002 83B0     		sub	sp, sp, #12
 2241              		.cfi_def_cfa_offset 16
 257:Drivers/BSP/Components/st7735/st7735.c ****   LCD_IO_WriteReg(LCD_REG_19);
 2242              		.loc 1 257 11 view .LVU683
 2243 0004 0023     		movs	r3, #0
 258:Drivers/BSP/Components/st7735/st7735.c ****   LCD_Delay(10);
 2244              		.loc 1 258 3 view .LVU684
 2245 0006 1320     		movs	r0, #19
 257:Drivers/BSP/Components/st7735/st7735.c ****   LCD_IO_WriteReg(LCD_REG_19);
 2246              		.loc 1 257 11 view .LVU685
 2247 0008 8DF80730 		strb	r3, [sp, #7]
 258:Drivers/BSP/Components/st7735/st7735.c ****   LCD_Delay(10);
 2248              		.loc 1 258 3 is_stmt 1 view .LVU686
 2249 000c FFF7FEFF 		bl	LCD_IO_WriteReg
 2250              	.LVL247:
 259:Drivers/BSP/Components/st7735/st7735.c ****   LCD_IO_WriteReg(LCD_REG_40);
 2251              		.loc 1 259 3 view .LVU687
 2252 0010 0A20     		movs	r0, #10
 2253 0012 FFF7FEFF 		bl	LCD_Delay
 2254              	.LVL248:
 260:Drivers/BSP/Components/st7735/st7735.c ****   LCD_Delay(10);
 2255              		.loc 1 260 3 view .LVU688
 2256 0016 2820     		movs	r0, #40
 2257 0018 FFF7FEFF 		bl	LCD_IO_WriteReg
 2258              	.LVL249:
 261:Drivers/BSP/Components/st7735/st7735.c ****   LCD_IO_WriteReg(LCD_REG_54);
 2259              		.loc 1 261 3 view .LVU689
 2260 001c 0A20     		movs	r0, #10
 2261 001e FFF7FEFF 		bl	LCD_Delay
 2262              	.LVL250:
 262:Drivers/BSP/Components/st7735/st7735.c ****   data = 0xC0;
 2263              		.loc 1 262 3 view .LVU690
 2264 0022 3620     		movs	r0, #54
 2265 0024 FFF7FEFF 		bl	LCD_IO_WriteReg
 2266              	.LVL251:
ARM GAS  /var/folders/0z/tsy30v1j4xl4_7kw94k978ww0000gn/T//ccK4WGjk.s 			page 60


 263:Drivers/BSP/Components/st7735/st7735.c ****   LCD_IO_WriteMultipleData(&data, 1);
 2267              		.loc 1 263 3 view .LVU691
 263:Drivers/BSP/Components/st7735/st7735.c ****   LCD_IO_WriteMultipleData(&data, 1);
 2268              		.loc 1 263 8 is_stmt 0 view .LVU692
 2269 0028 C023     		movs	r3, #192
 264:Drivers/BSP/Components/st7735/st7735.c **** }
 2270              		.loc 1 264 3 view .LVU693
 2271 002a 0121     		movs	r1, #1
 2272 002c 0DF10700 		add	r0, sp, #7
 263:Drivers/BSP/Components/st7735/st7735.c ****   LCD_IO_WriteMultipleData(&data, 1);
 2273              		.loc 1 263 8 view .LVU694
 2274 0030 8DF80730 		strb	r3, [sp, #7]
 264:Drivers/BSP/Components/st7735/st7735.c **** }
 2275              		.loc 1 264 3 is_stmt 1 view .LVU695
 2276 0034 FFF7FEFF 		bl	LCD_IO_WriteMultipleData
 2277              	.LVL252:
 265:Drivers/BSP/Components/st7735/st7735.c **** 
 2278              		.loc 1 265 1 is_stmt 0 view .LVU696
 2279 0038 03B0     		add	sp, sp, #12
 2280              		.cfi_def_cfa_offset 4
 2281              		@ sp needed
 2282 003a 5DF804FB 		ldr	pc, [sp], #4
 2283              		.cfi_endproc
 2284              	.LFE2:
 2286 003e 00BF     		.section	.text.st7735_DrawVLine,"ax",%progbits
 2287              		.align	1
 2288              		.p2align 2,,3
 2289              		.global	st7735_DrawVLine
 2290              		.syntax unified
 2291              		.thumb
 2292              		.thumb_func
 2294              	st7735_DrawVLine:
 2295              	.LVL253:
 2296              	.LFB8:
 392:Drivers/BSP/Components/st7735/st7735.c ****   uint8_t counter = 0;
 2297              		.loc 1 392 1 is_stmt 1 view -0
 2298              		.cfi_startproc
 2299              		@ args = 0, pretend = 0, frame = 8
 2300              		@ frame_needed = 0, uses_anonymous_args = 0
 393:Drivers/BSP/Components/st7735/st7735.c ****   
 2301              		.loc 1 393 3 view .LVU698
 395:Drivers/BSP/Components/st7735/st7735.c ****   for(counter = 0; counter < Length; counter++)
 2302              		.loc 1 395 3 view .LVU699
 392:Drivers/BSP/Components/st7735/st7735.c ****   uint8_t counter = 0;
 2303              		.loc 1 392 1 is_stmt 0 view .LVU700
 2304 0000 2DE9F047 		push	{r4, r5, r6, r7, r8, r9, r10, lr}
 2305              		.cfi_def_cfa_offset 32
 2306              		.cfi_offset 4, -32
 2307              		.cfi_offset 5, -28
 2308              		.cfi_offset 6, -24
 2309              		.cfi_offset 7, -20
 2310              		.cfi_offset 8, -16
 2311              		.cfi_offset 9, -12
 2312              		.cfi_offset 10, -8
 2313              		.cfi_offset 14, -4
 2314 0004 1D46     		mov	r5, r3
 395:Drivers/BSP/Components/st7735/st7735.c ****   for(counter = 0; counter < Length; counter++)
ARM GAS  /var/folders/0z/tsy30v1j4xl4_7kw94k978ww0000gn/T//ccK4WGjk.s 			page 61


 2315              		.loc 1 395 11 view .LVU701
 2316 0006 D318     		adds	r3, r2, r3
 2317              	.LVL254:
 395:Drivers/BSP/Components/st7735/st7735.c ****   for(counter = 0; counter < Length; counter++)
 2318              		.loc 1 395 5 view .LVU702
 2319 0008 A02B     		cmp	r3, #160
 392:Drivers/BSP/Components/st7735/st7735.c ****   uint8_t counter = 0;
 2320              		.loc 1 392 1 view .LVU703
 2321 000a 82B0     		sub	sp, sp, #8
 2322              		.cfi_def_cfa_offset 40
 395:Drivers/BSP/Components/st7735/st7735.c ****   for(counter = 0; counter < Length; counter++)
 2323              		.loc 1 395 5 view .LVU704
 2324 000c 29DC     		bgt	.L32
 2325              	.LVL255:
 2326              	.LBB305:
 2327              	.LBB306:
 396:Drivers/BSP/Components/st7735/st7735.c ****   {
 2328              		.loc 1 396 28 is_stmt 1 view .LVU705
 2329 000e 45B3     		cbz	r5, .L32
 396:Drivers/BSP/Components/st7735/st7735.c ****   {
 2330              		.loc 1 396 15 is_stmt 0 view .LVU706
 2331 0010 4FF0000A 		mov	r10, #0
 2332 0014 9046     		mov	r8, r2
 2333 0016 0646     		mov	r6, r0
 2334 0018 0C46     		mov	r4, r1
 2335              	.LBB307:
 2336              	.LBB308:
 307:Drivers/BSP/Components/st7735/st7735.c ****   LCD_IO_WriteMultipleData(&data, 1);
 2337              		.loc 1 307 8 view .LVU707
 2338 001a 070A     		lsrs	r7, r0, #8
 2339              	.LBE308:
 2340              	.LBE307:
 396:Drivers/BSP/Components/st7735/st7735.c ****   {
 2341              		.loc 1 396 28 view .LVU708
 2342 001c D446     		mov	ip, r10
 2343              	.LBB313:
 2344              	.LBB309:
 298:Drivers/BSP/Components/st7735/st7735.c ****   if((Xpos >= ST7735_LCD_PIXEL_WIDTH) || (Ypos >= ST7735_LCD_PIXEL_HEIGHT)) 
 2345              		.loc 1 298 11 view .LVU709
 2346 001e D146     		mov	r9, r10
 2347              	.LVL256:
 2348              	.L35:
 298:Drivers/BSP/Components/st7735/st7735.c ****   if((Xpos >= ST7735_LCD_PIXEL_WIDTH) || (Ypos >= ST7735_LCD_PIXEL_HEIGHT)) 
 2349              		.loc 1 298 11 view .LVU710
 2350              	.LBE309:
 2351              	.LBE313:
 398:Drivers/BSP/Components/st7735/st7735.c ****   }   
 2352              		.loc 1 398 5 is_stmt 1 view .LVU711
 2353              	.LBB314:
 2354              	.LBI307:
 296:Drivers/BSP/Components/st7735/st7735.c **** {
 2355              		.loc 1 296 6 view .LVU712
 2356              	.LBB310:
 298:Drivers/BSP/Components/st7735/st7735.c ****   if((Xpos >= ST7735_LCD_PIXEL_WIDTH) || (Ypos >= ST7735_LCD_PIXEL_HEIGHT)) 
 2357              		.loc 1 298 3 view .LVU713
 2358              	.LBE310:
 2359              	.LBE314:
ARM GAS  /var/folders/0z/tsy30v1j4xl4_7kw94k978ww0000gn/T//ccK4WGjk.s 			page 62


 398:Drivers/BSP/Components/st7735/st7735.c ****   }   
 2360              		.loc 1 398 5 is_stmt 0 view .LVU714
 2361 0020 C444     		add	ip, ip, r8
 2362              	.LBB315:
 2363              	.LBB311:
 299:Drivers/BSP/Components/st7735/st7735.c ****   {
 2364              		.loc 1 299 5 view .LVU715
 2365 0022 7F2C     		cmp	r4, #127
 2366              	.LBE311:
 2367              	.LBE315:
 398:Drivers/BSP/Components/st7735/st7735.c ****   }   
 2368              		.loc 1 398 5 view .LVU716
 2369 0024 1FFA8CF1 		uxth	r1, ip
 2370              	.LBB316:
 2371              	.LBB312:
 298:Drivers/BSP/Components/st7735/st7735.c ****   if((Xpos >= ST7735_LCD_PIXEL_WIDTH) || (Ypos >= ST7735_LCD_PIXEL_HEIGHT)) 
 2372              		.loc 1 298 11 view .LVU717
 2373 0028 8DF80790 		strb	r9, [sp, #7]
 299:Drivers/BSP/Components/st7735/st7735.c ****   {
 2374              		.loc 1 299 3 is_stmt 1 view .LVU718
 299:Drivers/BSP/Components/st7735/st7735.c ****   {
 2375              		.loc 1 299 5 is_stmt 0 view .LVU719
 2376 002c 12D8     		bhi	.L34
 305:Drivers/BSP/Components/st7735/st7735.c ****   
 2377              		.loc 1 305 3 is_stmt 1 view .LVU720
 299:Drivers/BSP/Components/st7735/st7735.c ****   {
 2378              		.loc 1 299 39 is_stmt 0 view .LVU721
 2379 002e 9F29     		cmp	r1, #159
 305:Drivers/BSP/Components/st7735/st7735.c ****   
 2380              		.loc 1 305 3 view .LVU722
 2381 0030 2046     		mov	r0, r4
 299:Drivers/BSP/Components/st7735/st7735.c ****   {
 2382              		.loc 1 299 39 view .LVU723
 2383 0032 0FD8     		bhi	.L34
 305:Drivers/BSP/Components/st7735/st7735.c ****   
 2384              		.loc 1 305 3 view .LVU724
 2385 0034 FFF7FEFF 		bl	st7735_SetCursor
 2386              	.LVL257:
 307:Drivers/BSP/Components/st7735/st7735.c ****   LCD_IO_WriteMultipleData(&data, 1);
 2387              		.loc 1 307 3 is_stmt 1 view .LVU725
 308:Drivers/BSP/Components/st7735/st7735.c ****   data = RGBCode;
 2388              		.loc 1 308 3 is_stmt 0 view .LVU726
 2389 0038 0121     		movs	r1, #1
 2390 003a 0DF10700 		add	r0, sp, #7
 307:Drivers/BSP/Components/st7735/st7735.c ****   LCD_IO_WriteMultipleData(&data, 1);
 2391              		.loc 1 307 8 view .LVU727
 2392 003e 8DF80770 		strb	r7, [sp, #7]
 308:Drivers/BSP/Components/st7735/st7735.c ****   data = RGBCode;
 2393              		.loc 1 308 3 is_stmt 1 view .LVU728
 2394 0042 FFF7FEFF 		bl	LCD_IO_WriteMultipleData
 2395              	.LVL258:
 309:Drivers/BSP/Components/st7735/st7735.c ****   LCD_IO_WriteMultipleData(&data, 1);
 2396              		.loc 1 309 3 view .LVU729
 310:Drivers/BSP/Components/st7735/st7735.c **** }  
 2397              		.loc 1 310 3 is_stmt 0 view .LVU730
 2398 0046 0121     		movs	r1, #1
 2399 0048 0DF10700 		add	r0, sp, #7
ARM GAS  /var/folders/0z/tsy30v1j4xl4_7kw94k978ww0000gn/T//ccK4WGjk.s 			page 63


 309:Drivers/BSP/Components/st7735/st7735.c ****   LCD_IO_WriteMultipleData(&data, 1);
 2400              		.loc 1 309 8 view .LVU731
 2401 004c 8DF80760 		strb	r6, [sp, #7]
 310:Drivers/BSP/Components/st7735/st7735.c **** }  
 2402              		.loc 1 310 3 is_stmt 1 view .LVU732
 2403 0050 FFF7FEFF 		bl	LCD_IO_WriteMultipleData
 2404              	.LVL259:
 2405              	.L34:
 310:Drivers/BSP/Components/st7735/st7735.c **** }  
 2406              		.loc 1 310 3 is_stmt 0 view .LVU733
 2407              	.LBE312:
 2408              	.LBE316:
 396:Drivers/BSP/Components/st7735/st7735.c ****   {
 2409              		.loc 1 396 45 is_stmt 1 view .LVU734
 2410 0054 0AF1010E 		add	lr, r10, #1
 396:Drivers/BSP/Components/st7735/st7735.c ****   {
 2411              		.loc 1 396 28 is_stmt 0 view .LVU735
 2412 0058 5FFA8EFC 		uxtb	ip, lr
 2413 005c 6545     		cmp	r5, ip
 396:Drivers/BSP/Components/st7735/st7735.c ****   {
 2414              		.loc 1 396 45 view .LVU736
 2415 005e E246     		mov	r10, ip
 2416              	.LVL260:
 396:Drivers/BSP/Components/st7735/st7735.c ****   {
 2417              		.loc 1 396 28 is_stmt 1 view .LVU737
 2418 0060 DED8     		bhi	.L35
 2419              	.LVL261:
 2420              	.L32:
 396:Drivers/BSP/Components/st7735/st7735.c ****   {
 2421              		.loc 1 396 28 is_stmt 0 view .LVU738
 2422              	.LBE306:
 2423              	.LBE305:
 400:Drivers/BSP/Components/st7735/st7735.c **** 
 2424              		.loc 1 400 1 view .LVU739
 2425 0062 02B0     		add	sp, sp, #8
 2426              		.cfi_def_cfa_offset 32
 2427              		@ sp needed
 2428 0064 BDE8F087 		pop	{r4, r5, r6, r7, r8, r9, r10, pc}
 2429              		.cfi_endproc
 2430              	.LFE8:
 2432              		.section	.text.st7735_WriteReg,"ax",%progbits
 2433              		.align	1
 2434              		.p2align 2,,3
 2435              		.global	st7735_WriteReg
 2436              		.syntax unified
 2437              		.thumb
 2438              		.thumb_func
 2440              	st7735_WriteReg:
 2441              	.LVL262:
 2442              	.LFB5:
 321:Drivers/BSP/Components/st7735/st7735.c ****   LCD_IO_WriteReg(LCDReg);
 2443              		.loc 1 321 1 is_stmt 1 view -0
 2444              		.cfi_startproc
 2445              		@ args = 0, pretend = 0, frame = 8
 2446              		@ frame_needed = 0, uses_anonymous_args = 0
 322:Drivers/BSP/Components/st7735/st7735.c ****   LCD_IO_WriteMultipleData(&LCDRegValue, 1);
 2447              		.loc 1 322 3 view .LVU741
ARM GAS  /var/folders/0z/tsy30v1j4xl4_7kw94k978ww0000gn/T//ccK4WGjk.s 			page 64


 321:Drivers/BSP/Components/st7735/st7735.c ****   LCD_IO_WriteReg(LCDReg);
 2448              		.loc 1 321 1 is_stmt 0 view .LVU742
 2449 0000 00B5     		push	{lr}
 2450              		.cfi_def_cfa_offset 4
 2451              		.cfi_offset 14, -4
 2452 0002 83B0     		sub	sp, sp, #12
 2453              		.cfi_def_cfa_offset 16
 321:Drivers/BSP/Components/st7735/st7735.c ****   LCD_IO_WriteReg(LCDReg);
 2454              		.loc 1 321 1 view .LVU743
 2455 0004 8DF80710 		strb	r1, [sp, #7]
 322:Drivers/BSP/Components/st7735/st7735.c ****   LCD_IO_WriteMultipleData(&LCDRegValue, 1);
 2456              		.loc 1 322 3 view .LVU744
 2457 0008 FFF7FEFF 		bl	LCD_IO_WriteReg
 2458              	.LVL263:
 323:Drivers/BSP/Components/st7735/st7735.c **** }
 2459              		.loc 1 323 3 is_stmt 1 view .LVU745
 2460 000c 0121     		movs	r1, #1
 2461 000e 0DF10700 		add	r0, sp, #7
 2462 0012 FFF7FEFF 		bl	LCD_IO_WriteMultipleData
 2463              	.LVL264:
 324:Drivers/BSP/Components/st7735/st7735.c **** 
 2464              		.loc 1 324 1 is_stmt 0 view .LVU746
 2465 0016 03B0     		add	sp, sp, #12
 2466              		.cfi_def_cfa_offset 4
 2467              		@ sp needed
 2468 0018 5DF804FB 		ldr	pc, [sp], #4
 2469              		.cfi_endproc
 2470              	.LFE5:
 2472              		.global	st7735_drv
 2473              		.section	.bss.ArrayRGB,"aw",%nobits
 2474              		.align	2
 2475              		.set	.LANCHOR0,. + 0
 2478              	ArrayRGB:
 2479 0000 00000000 		.space	640
 2479      00000000 
 2479      00000000 
 2479      00000000 
 2479      00000000 
 2480              		.section	.data.st7735_drv,"aw"
 2481              		.align	2
 2484              	st7735_drv:
 2485 0000 00000000 		.word	st7735_Init
 2486 0004 00000000 		.word	0
 2487 0008 00000000 		.word	st7735_DisplayOn
 2488 000c 00000000 		.word	st7735_DisplayOff
 2489 0010 00000000 		.word	st7735_SetCursor
 2490 0014 00000000 		.word	st7735_WritePixel
 2491 0018 00000000 		.word	0
 2492 001c 00000000 		.word	st7735_SetDisplayWindow
 2493 0020 00000000 		.word	st7735_DrawHLine
 2494 0024 00000000 		.word	st7735_DrawVLine
 2495 0028 00000000 		.word	st7735_GetLcdPixelWidth
 2496 002c 00000000 		.word	st7735_GetLcdPixelHeight
 2497 0030 00000000 		.word	st7735_DrawBitmap
 2498 0034 00000000 		.space	4
 2499              		.text
 2500              	.Letext0:
ARM GAS  /var/folders/0z/tsy30v1j4xl4_7kw94k978ww0000gn/T//ccK4WGjk.s 			page 65


 2501              		.file 2 "/Users/johannes/Library/Application Support/Code/User/globalStorage/bmd.stm32-for-vscode/
 2502              		.file 3 "/Users/johannes/Library/Application Support/Code/User/globalStorage/bmd.stm32-for-vscode/
 2503              		.file 4 "Drivers/BSP/Components/st7735/../Common/lcd.h"
 2504              		.file 5 "Drivers/BSP/Components/st7735/st7735.h"
ARM GAS  /var/folders/0z/tsy30v1j4xl4_7kw94k978ww0000gn/T//ccK4WGjk.s 			page 66

