ARM GAS  /var/folders/0z/tsy30v1j4xl4_7kw94k978ww0000gn/T//ccaz1ZPA.s 			page 1


   1              		.cpu cortex-m4
   2              		.arch armv7e-m
   3              		.fpu fpv4-sp-d16
   4              		.eabi_attribute 27, 1
   5              		.eabi_attribute 28, 1
   6              		.eabi_attribute 20, 1
   7              		.eabi_attribute 21, 1
   8              		.eabi_attribute 23, 3
   9              		.eabi_attribute 24, 1
  10              		.eabi_attribute 25, 1
  11              		.eabi_attribute 26, 1
  12              		.eabi_attribute 30, 2
  13              		.eabi_attribute 34, 1
  14              		.eabi_attribute 18, 4
  15              		.file	"st7789h2.c"
  16              		.text
  17              	.Ltext0:
  18              		.cfi_sections	.debug_frame
  19              		.section	.text.ST7789H2_GetLcdPixelWidth,"ax",%progbits
  20              		.align	1
  21              		.p2align 2,,3
  22              		.global	ST7789H2_GetLcdPixelWidth
  23              		.syntax unified
  24              		.thumb
  25              		.thumb_func
  27              	ST7789H2_GetLcdPixelWidth:
  28              	.LFB7:
  29              		.file 1 "Drivers/BSP/Components/st7789h2/st7789h2.c"
   1:Drivers/BSP/Components/st7789h2/st7789h2.c **** /**
   2:Drivers/BSP/Components/st7789h2/st7789h2.c ****   ******************************************************************************
   3:Drivers/BSP/Components/st7789h2/st7789h2.c ****   * @file    st7789h2.c
   4:Drivers/BSP/Components/st7789h2/st7789h2.c ****   * @author  MCD Application Team
   5:Drivers/BSP/Components/st7789h2/st7789h2.c ****   * @version V1.1.1
   6:Drivers/BSP/Components/st7789h2/st7789h2.c ****   * @date    29-December-2016
   7:Drivers/BSP/Components/st7789h2/st7789h2.c ****   * @brief   This file includes the LCD driver for st7789h2 LCD.
   8:Drivers/BSP/Components/st7789h2/st7789h2.c ****   ******************************************************************************
   9:Drivers/BSP/Components/st7789h2/st7789h2.c ****   * @attention
  10:Drivers/BSP/Components/st7789h2/st7789h2.c ****   *
  11:Drivers/BSP/Components/st7789h2/st7789h2.c ****   * <h2><center>&copy; COPYRIGHT(c) 2016 STMicroelectronics</center></h2>
  12:Drivers/BSP/Components/st7789h2/st7789h2.c ****   *
  13:Drivers/BSP/Components/st7789h2/st7789h2.c ****   * Redistribution and use in source and binary forms, with or without modification,
  14:Drivers/BSP/Components/st7789h2/st7789h2.c ****   * are permitted provided that the following conditions are met:
  15:Drivers/BSP/Components/st7789h2/st7789h2.c ****   *   1. Redistributions of source code must retain the above copyright notice,
  16:Drivers/BSP/Components/st7789h2/st7789h2.c ****   *      this list of conditions and the following disclaimer.
  17:Drivers/BSP/Components/st7789h2/st7789h2.c ****   *   2. Redistributions in binary form must reproduce the above copyright notice,
  18:Drivers/BSP/Components/st7789h2/st7789h2.c ****   *      this list of conditions and the following disclaimer in the documentation
  19:Drivers/BSP/Components/st7789h2/st7789h2.c ****   *      and/or other materials provided with the distribution.
  20:Drivers/BSP/Components/st7789h2/st7789h2.c ****   *   3. Neither the name of STMicroelectronics nor the names of its contributors
  21:Drivers/BSP/Components/st7789h2/st7789h2.c ****   *      may be used to endorse or promote products derived from this software
  22:Drivers/BSP/Components/st7789h2/st7789h2.c ****   *      without specific prior written permission.
  23:Drivers/BSP/Components/st7789h2/st7789h2.c ****   *
  24:Drivers/BSP/Components/st7789h2/st7789h2.c ****   * THIS SOFTWARE IS PROVIDED BY THE COPYRIGHT HOLDERS AND CONTRIBUTORS "AS IS"
  25:Drivers/BSP/Components/st7789h2/st7789h2.c ****   * AND ANY EXPRESS OR IMPLIED WARRANTIES, INCLUDING, BUT NOT LIMITED TO, THE
  26:Drivers/BSP/Components/st7789h2/st7789h2.c ****   * IMPLIED WARRANTIES OF MERCHANTABILITY AND FITNESS FOR A PARTICULAR PURPOSE ARE
  27:Drivers/BSP/Components/st7789h2/st7789h2.c ****   * DISCLAIMED. IN NO EVENT SHALL THE COPYRIGHT HOLDER OR CONTRIBUTORS BE LIABLE
  28:Drivers/BSP/Components/st7789h2/st7789h2.c ****   * FOR ANY DIRECT, INDIRECT, INCIDENTAL, SPECIAL, EXEMPLARY, OR CONSEQUENTIAL
  29:Drivers/BSP/Components/st7789h2/st7789h2.c ****   * DAMAGES (INCLUDING, BUT NOT LIMITED TO, PROCUREMENT OF SUBSTITUTE GOODS OR
ARM GAS  /var/folders/0z/tsy30v1j4xl4_7kw94k978ww0000gn/T//ccaz1ZPA.s 			page 2


  30:Drivers/BSP/Components/st7789h2/st7789h2.c ****   * SERVICES; LOSS OF USE, DATA, OR PROFITS; OR BUSINESS INTERRUPTION) HOWEVER
  31:Drivers/BSP/Components/st7789h2/st7789h2.c ****   * CAUSED AND ON ANY THEORY OF LIABILITY, WHETHER IN CONTRACT, STRICT LIABILITY,
  32:Drivers/BSP/Components/st7789h2/st7789h2.c ****   * OR TORT (INCLUDING NEGLIGENCE OR OTHERWISE) ARISING IN ANY WAY OUT OF THE USE
  33:Drivers/BSP/Components/st7789h2/st7789h2.c ****   * OF THIS SOFTWARE, EVEN IF ADVISED OF THE POSSIBILITY OF SUCH DAMAGE.
  34:Drivers/BSP/Components/st7789h2/st7789h2.c ****   *
  35:Drivers/BSP/Components/st7789h2/st7789h2.c ****   ******************************************************************************
  36:Drivers/BSP/Components/st7789h2/st7789h2.c ****   */ 
  37:Drivers/BSP/Components/st7789h2/st7789h2.c **** 
  38:Drivers/BSP/Components/st7789h2/st7789h2.c **** /* Includes ------------------------------------------------------------------*/
  39:Drivers/BSP/Components/st7789h2/st7789h2.c **** #include "st7789h2.h"
  40:Drivers/BSP/Components/st7789h2/st7789h2.c **** 
  41:Drivers/BSP/Components/st7789h2/st7789h2.c **** /** @addtogroup BSP
  42:Drivers/BSP/Components/st7789h2/st7789h2.c ****   * @{
  43:Drivers/BSP/Components/st7789h2/st7789h2.c ****   */ 
  44:Drivers/BSP/Components/st7789h2/st7789h2.c **** 
  45:Drivers/BSP/Components/st7789h2/st7789h2.c **** /** @addtogroup Components
  46:Drivers/BSP/Components/st7789h2/st7789h2.c ****   * @{
  47:Drivers/BSP/Components/st7789h2/st7789h2.c ****   */ 
  48:Drivers/BSP/Components/st7789h2/st7789h2.c ****   
  49:Drivers/BSP/Components/st7789h2/st7789h2.c **** /** @defgroup ST7789H2
  50:Drivers/BSP/Components/st7789h2/st7789h2.c ****   * @brief     This file provides a set of functions needed to drive the 
  51:Drivers/BSP/Components/st7789h2/st7789h2.c ****   *            FRIDA FRD154BP2901 LCD.
  52:Drivers/BSP/Components/st7789h2/st7789h2.c ****   * @{
  53:Drivers/BSP/Components/st7789h2/st7789h2.c ****   */
  54:Drivers/BSP/Components/st7789h2/st7789h2.c **** 
  55:Drivers/BSP/Components/st7789h2/st7789h2.c **** /** @defgroup ST7789H2_Private_TypesDefinitions ST7789H2 Private TypesDefinitions
  56:Drivers/BSP/Components/st7789h2/st7789h2.c ****   * @{
  57:Drivers/BSP/Components/st7789h2/st7789h2.c ****   */ 
  58:Drivers/BSP/Components/st7789h2/st7789h2.c **** typedef struct  {
  59:Drivers/BSP/Components/st7789h2/st7789h2.c ****   uint8_t red;
  60:Drivers/BSP/Components/st7789h2/st7789h2.c ****   uint8_t green;
  61:Drivers/BSP/Components/st7789h2/st7789h2.c ****   uint8_t blue;
  62:Drivers/BSP/Components/st7789h2/st7789h2.c **** } ST7789H2_Rgb888;
  63:Drivers/BSP/Components/st7789h2/st7789h2.c **** 
  64:Drivers/BSP/Components/st7789h2/st7789h2.c **** /**
  65:Drivers/BSP/Components/st7789h2/st7789h2.c ****   * @}
  66:Drivers/BSP/Components/st7789h2/st7789h2.c ****   */ 
  67:Drivers/BSP/Components/st7789h2/st7789h2.c **** 
  68:Drivers/BSP/Components/st7789h2/st7789h2.c **** /** @defgroup ST7789H2_Private_Defines ST7789H2 Private Defines
  69:Drivers/BSP/Components/st7789h2/st7789h2.c ****   * @{
  70:Drivers/BSP/Components/st7789h2/st7789h2.c ****   */
  71:Drivers/BSP/Components/st7789h2/st7789h2.c **** 
  72:Drivers/BSP/Components/st7789h2/st7789h2.c **** /**
  73:Drivers/BSP/Components/st7789h2/st7789h2.c ****   * @}
  74:Drivers/BSP/Components/st7789h2/st7789h2.c ****   */ 
  75:Drivers/BSP/Components/st7789h2/st7789h2.c ****   
  76:Drivers/BSP/Components/st7789h2/st7789h2.c **** /** @defgroup ST7789H2_Private_Macros ST7789H2 Private Macros
  77:Drivers/BSP/Components/st7789h2/st7789h2.c ****   * @{
  78:Drivers/BSP/Components/st7789h2/st7789h2.c ****   */
  79:Drivers/BSP/Components/st7789h2/st7789h2.c ****      
  80:Drivers/BSP/Components/st7789h2/st7789h2.c **** /**
  81:Drivers/BSP/Components/st7789h2/st7789h2.c ****   * @}
  82:Drivers/BSP/Components/st7789h2/st7789h2.c ****   */  
  83:Drivers/BSP/Components/st7789h2/st7789h2.c **** 
  84:Drivers/BSP/Components/st7789h2/st7789h2.c **** /** @defgroup ST7789H2_Private_Variables ST7789H2 Private Variables
  85:Drivers/BSP/Components/st7789h2/st7789h2.c ****   * @{
  86:Drivers/BSP/Components/st7789h2/st7789h2.c ****   */ 
ARM GAS  /var/folders/0z/tsy30v1j4xl4_7kw94k978ww0000gn/T//ccaz1ZPA.s 			page 3


  87:Drivers/BSP/Components/st7789h2/st7789h2.c **** LCD_DrvTypeDef   ST7789H2_drv = 
  88:Drivers/BSP/Components/st7789h2/st7789h2.c **** {
  89:Drivers/BSP/Components/st7789h2/st7789h2.c ****   ST7789H2_Init,
  90:Drivers/BSP/Components/st7789h2/st7789h2.c ****   ST7789H2_ReadID,
  91:Drivers/BSP/Components/st7789h2/st7789h2.c ****   ST7789H2_DisplayOn,
  92:Drivers/BSP/Components/st7789h2/st7789h2.c ****   ST7789H2_DisplayOff,
  93:Drivers/BSP/Components/st7789h2/st7789h2.c ****   ST7789H2_SetCursor,
  94:Drivers/BSP/Components/st7789h2/st7789h2.c ****   ST7789H2_WritePixel,
  95:Drivers/BSP/Components/st7789h2/st7789h2.c ****   ST7789H2_ReadPixel,
  96:Drivers/BSP/Components/st7789h2/st7789h2.c ****   ST7789H2_SetDisplayWindow,
  97:Drivers/BSP/Components/st7789h2/st7789h2.c ****   ST7789H2_DrawHLine,
  98:Drivers/BSP/Components/st7789h2/st7789h2.c ****   ST7789H2_DrawVLine,
  99:Drivers/BSP/Components/st7789h2/st7789h2.c ****   ST7789H2_GetLcdPixelWidth,
 100:Drivers/BSP/Components/st7789h2/st7789h2.c ****   ST7789H2_GetLcdPixelHeight,
 101:Drivers/BSP/Components/st7789h2/st7789h2.c ****   ST7789H2_DrawBitmap,
 102:Drivers/BSP/Components/st7789h2/st7789h2.c ****   ST7789H2_DrawRGBImage,  
 103:Drivers/BSP/Components/st7789h2/st7789h2.c **** };
 104:Drivers/BSP/Components/st7789h2/st7789h2.c **** 
 105:Drivers/BSP/Components/st7789h2/st7789h2.c **** static uint16_t WindowsXstart = 0;
 106:Drivers/BSP/Components/st7789h2/st7789h2.c **** static uint16_t WindowsYstart = 0;
 107:Drivers/BSP/Components/st7789h2/st7789h2.c **** static uint16_t WindowsXend = ST7789H2_LCD_PIXEL_WIDTH-1;
 108:Drivers/BSP/Components/st7789h2/st7789h2.c **** static uint16_t WindowsYend = ST7789H2_LCD_PIXEL_HEIGHT-1;
 109:Drivers/BSP/Components/st7789h2/st7789h2.c **** /**
 110:Drivers/BSP/Components/st7789h2/st7789h2.c ****   * @}
 111:Drivers/BSP/Components/st7789h2/st7789h2.c ****   */ 
 112:Drivers/BSP/Components/st7789h2/st7789h2.c ****   
 113:Drivers/BSP/Components/st7789h2/st7789h2.c **** /** @defgroup ST7789H2_Private_FunctionPrototypes ST7789H2 Private FunctionPrototypes
 114:Drivers/BSP/Components/st7789h2/st7789h2.c ****   * @{
 115:Drivers/BSP/Components/st7789h2/st7789h2.c ****   */
 116:Drivers/BSP/Components/st7789h2/st7789h2.c **** static ST7789H2_Rgb888 ST7789H2_ReadPixel_rgb888(uint16_t Xpos, uint16_t Ypos);
 117:Drivers/BSP/Components/st7789h2/st7789h2.c **** static void ST7789H2_DrawRGBHLine(uint16_t Xpos, uint16_t Ypos, uint16_t Xsize, uint8_t *pdata);
 118:Drivers/BSP/Components/st7789h2/st7789h2.c **** 
 119:Drivers/BSP/Components/st7789h2/st7789h2.c **** /**
 120:Drivers/BSP/Components/st7789h2/st7789h2.c ****   * @}
 121:Drivers/BSP/Components/st7789h2/st7789h2.c ****   */ 
 122:Drivers/BSP/Components/st7789h2/st7789h2.c ****   
 123:Drivers/BSP/Components/st7789h2/st7789h2.c **** /** @defgroup ST7789H2_Private_Functions ST7789H2 Private Functions
 124:Drivers/BSP/Components/st7789h2/st7789h2.c ****   * @{
 125:Drivers/BSP/Components/st7789h2/st7789h2.c ****   */   
 126:Drivers/BSP/Components/st7789h2/st7789h2.c **** 
 127:Drivers/BSP/Components/st7789h2/st7789h2.c **** /**
 128:Drivers/BSP/Components/st7789h2/st7789h2.c ****   * @brief  Initialize the st7789h2 LCD Component.
 129:Drivers/BSP/Components/st7789h2/st7789h2.c ****   * @param  None
 130:Drivers/BSP/Components/st7789h2/st7789h2.c ****   * @retval None
 131:Drivers/BSP/Components/st7789h2/st7789h2.c ****   */
 132:Drivers/BSP/Components/st7789h2/st7789h2.c **** void ST7789H2_Init(void)
 133:Drivers/BSP/Components/st7789h2/st7789h2.c **** {
 134:Drivers/BSP/Components/st7789h2/st7789h2.c ****   uint8_t   parameter[14];
 135:Drivers/BSP/Components/st7789h2/st7789h2.c ****   
 136:Drivers/BSP/Components/st7789h2/st7789h2.c ****   /* Initialize st7789h2 low level bus layer ----------------------------------*/
 137:Drivers/BSP/Components/st7789h2/st7789h2.c ****   LCD_IO_Init();
 138:Drivers/BSP/Components/st7789h2/st7789h2.c ****   /* Sleep In Command */ 
 139:Drivers/BSP/Components/st7789h2/st7789h2.c ****   ST7789H2_WriteReg(ST7789H2_SLEEP_IN, (uint8_t*)NULL, 0); 
 140:Drivers/BSP/Components/st7789h2/st7789h2.c ****   /* Wait for 10ms */
 141:Drivers/BSP/Components/st7789h2/st7789h2.c ****   LCD_IO_Delay(10);  
 142:Drivers/BSP/Components/st7789h2/st7789h2.c ****   
 143:Drivers/BSP/Components/st7789h2/st7789h2.c ****   /* SW Reset Command */
ARM GAS  /var/folders/0z/tsy30v1j4xl4_7kw94k978ww0000gn/T//ccaz1ZPA.s 			page 4


 144:Drivers/BSP/Components/st7789h2/st7789h2.c ****   ST7789H2_WriteReg(0x01, (uint8_t*)NULL, 0); 
 145:Drivers/BSP/Components/st7789h2/st7789h2.c ****   /* Wait for 200ms */
 146:Drivers/BSP/Components/st7789h2/st7789h2.c ****   LCD_IO_Delay(200);
 147:Drivers/BSP/Components/st7789h2/st7789h2.c ****   
 148:Drivers/BSP/Components/st7789h2/st7789h2.c ****   /* Sleep Out Command */
 149:Drivers/BSP/Components/st7789h2/st7789h2.c ****   ST7789H2_WriteReg(ST7789H2_SLEEP_OUT, (uint8_t*)NULL, 0); 
 150:Drivers/BSP/Components/st7789h2/st7789h2.c ****   /* Wait for 120ms */
 151:Drivers/BSP/Components/st7789h2/st7789h2.c ****   LCD_IO_Delay(120); 
 152:Drivers/BSP/Components/st7789h2/st7789h2.c **** 
 153:Drivers/BSP/Components/st7789h2/st7789h2.c ****   /* Normal display for Driver Down side */
 154:Drivers/BSP/Components/st7789h2/st7789h2.c ****   parameter[0] = 0x00;     
 155:Drivers/BSP/Components/st7789h2/st7789h2.c ****   ST7789H2_WriteReg(ST7789H2_NORMAL_DISPLAY, parameter, 1);
 156:Drivers/BSP/Components/st7789h2/st7789h2.c ****  
 157:Drivers/BSP/Components/st7789h2/st7789h2.c ****   /* Color mode 16bits/pixel */
 158:Drivers/BSP/Components/st7789h2/st7789h2.c ****   parameter[0] = 0x05;     
 159:Drivers/BSP/Components/st7789h2/st7789h2.c ****   ST7789H2_WriteReg(ST7789H2_COLOR_MODE, parameter, 1);
 160:Drivers/BSP/Components/st7789h2/st7789h2.c ****   
 161:Drivers/BSP/Components/st7789h2/st7789h2.c ****   /* Display inversion On */
 162:Drivers/BSP/Components/st7789h2/st7789h2.c ****   ST7789H2_WriteReg(ST7789H2_DISPLAY_INVERSION, (uint8_t*)NULL, 0);     
 163:Drivers/BSP/Components/st7789h2/st7789h2.c ****   
 164:Drivers/BSP/Components/st7789h2/st7789h2.c ****   /* Set Column address CASET */  
 165:Drivers/BSP/Components/st7789h2/st7789h2.c ****   parameter[0] = 0x00;
 166:Drivers/BSP/Components/st7789h2/st7789h2.c ****   parameter[1] = 0x00;
 167:Drivers/BSP/Components/st7789h2/st7789h2.c ****   parameter[2] = 0x00;
 168:Drivers/BSP/Components/st7789h2/st7789h2.c ****   parameter[3] = 0xEF;
 169:Drivers/BSP/Components/st7789h2/st7789h2.c ****   ST7789H2_WriteReg(ST7789H2_CASET, parameter, 4);
 170:Drivers/BSP/Components/st7789h2/st7789h2.c ****   /* Set Row address RASET */  
 171:Drivers/BSP/Components/st7789h2/st7789h2.c ****   parameter[0] = 0x00;
 172:Drivers/BSP/Components/st7789h2/st7789h2.c ****   parameter[1] = 0x00;
 173:Drivers/BSP/Components/st7789h2/st7789h2.c ****   parameter[2] = 0x00;
 174:Drivers/BSP/Components/st7789h2/st7789h2.c ****   parameter[3] = 0xEF;
 175:Drivers/BSP/Components/st7789h2/st7789h2.c ****   ST7789H2_WriteReg(ST7789H2_RASET, parameter, 4);
 176:Drivers/BSP/Components/st7789h2/st7789h2.c **** 
 177:Drivers/BSP/Components/st7789h2/st7789h2.c ****   /*--------------- ST7789H2 Frame rate setting -------------------------------*/
 178:Drivers/BSP/Components/st7789h2/st7789h2.c ****   /* PORCH control setting */      
 179:Drivers/BSP/Components/st7789h2/st7789h2.c ****   parameter[0] = 0x0C;
 180:Drivers/BSP/Components/st7789h2/st7789h2.c ****   parameter[1] = 0x0C;
 181:Drivers/BSP/Components/st7789h2/st7789h2.c ****   parameter[2] = 0x00;
 182:Drivers/BSP/Components/st7789h2/st7789h2.c ****   parameter[3] = 0x33;
 183:Drivers/BSP/Components/st7789h2/st7789h2.c ****   parameter[4] = 0x33; 
 184:Drivers/BSP/Components/st7789h2/st7789h2.c ****   ST7789H2_WriteReg(ST7789H2_PORCH_CTRL, parameter, 5);
 185:Drivers/BSP/Components/st7789h2/st7789h2.c ****   
 186:Drivers/BSP/Components/st7789h2/st7789h2.c ****   /* GATE control setting */
 187:Drivers/BSP/Components/st7789h2/st7789h2.c ****   parameter[0] = 0x35; 
 188:Drivers/BSP/Components/st7789h2/st7789h2.c ****   ST7789H2_WriteReg(ST7789H2_GATE_CTRL, parameter, 1);
 189:Drivers/BSP/Components/st7789h2/st7789h2.c ****   
 190:Drivers/BSP/Components/st7789h2/st7789h2.c ****   /*--------------- ST7789H2 Power setting ------------------------------------*/
 191:Drivers/BSP/Components/st7789h2/st7789h2.c ****   /* VCOM setting */ 
 192:Drivers/BSP/Components/st7789h2/st7789h2.c ****   parameter[0] = 0x1F; 
 193:Drivers/BSP/Components/st7789h2/st7789h2.c ****   ST7789H2_WriteReg(ST7789H2_VCOM_SET, parameter, 1); 
 194:Drivers/BSP/Components/st7789h2/st7789h2.c ****   
 195:Drivers/BSP/Components/st7789h2/st7789h2.c ****   /* LCM Control setting */ 
 196:Drivers/BSP/Components/st7789h2/st7789h2.c ****   parameter[0] = 0x2C; 
 197:Drivers/BSP/Components/st7789h2/st7789h2.c ****   ST7789H2_WriteReg(ST7789H2_LCM_CTRL, parameter, 1);
 198:Drivers/BSP/Components/st7789h2/st7789h2.c ****   
 199:Drivers/BSP/Components/st7789h2/st7789h2.c ****   /* VDV and VRH Command Enable */ 
 200:Drivers/BSP/Components/st7789h2/st7789h2.c ****   parameter[0] = 0x01;
ARM GAS  /var/folders/0z/tsy30v1j4xl4_7kw94k978ww0000gn/T//ccaz1ZPA.s 			page 5


 201:Drivers/BSP/Components/st7789h2/st7789h2.c ****   parameter[1] = 0xC3;
 202:Drivers/BSP/Components/st7789h2/st7789h2.c ****   ST7789H2_WriteReg(ST7789H2_VDV_VRH_EN, parameter, 2);
 203:Drivers/BSP/Components/st7789h2/st7789h2.c ****   
 204:Drivers/BSP/Components/st7789h2/st7789h2.c ****   /* VDV Set */ 
 205:Drivers/BSP/Components/st7789h2/st7789h2.c ****   parameter[0] = 0x20; 
 206:Drivers/BSP/Components/st7789h2/st7789h2.c ****   ST7789H2_WriteReg(ST7789H2_VDV_SET, parameter, 1); 
 207:Drivers/BSP/Components/st7789h2/st7789h2.c ****   
 208:Drivers/BSP/Components/st7789h2/st7789h2.c ****   /* Frame Rate Control in normal mode */ 
 209:Drivers/BSP/Components/st7789h2/st7789h2.c ****   parameter[0] = 0x0F; 
 210:Drivers/BSP/Components/st7789h2/st7789h2.c ****   ST7789H2_WriteReg(ST7789H2_FR_CTRL, parameter, 1); 
 211:Drivers/BSP/Components/st7789h2/st7789h2.c ****   
 212:Drivers/BSP/Components/st7789h2/st7789h2.c ****   /* Power Control */     
 213:Drivers/BSP/Components/st7789h2/st7789h2.c ****   parameter[0] = 0xA4;
 214:Drivers/BSP/Components/st7789h2/st7789h2.c ****   parameter[1] = 0xA1;
 215:Drivers/BSP/Components/st7789h2/st7789h2.c ****   ST7789H2_WriteReg(ST7789H2_POWER_CTRL, parameter, 1); 
 216:Drivers/BSP/Components/st7789h2/st7789h2.c ****   
 217:Drivers/BSP/Components/st7789h2/st7789h2.c ****   /*--------------- ST7789H2 Gamma setting ------------------------------------*/
 218:Drivers/BSP/Components/st7789h2/st7789h2.c ****   /* Positive Voltage Gamma Control */ 
 219:Drivers/BSP/Components/st7789h2/st7789h2.c ****   parameter[0] = 0xD0;
 220:Drivers/BSP/Components/st7789h2/st7789h2.c ****   parameter[1] = 0x08;
 221:Drivers/BSP/Components/st7789h2/st7789h2.c ****   parameter[2] = 0x11;
 222:Drivers/BSP/Components/st7789h2/st7789h2.c ****   parameter[3] = 0x08;
 223:Drivers/BSP/Components/st7789h2/st7789h2.c ****   parameter[4] = 0x0C;
 224:Drivers/BSP/Components/st7789h2/st7789h2.c ****   parameter[5] = 0x15;
 225:Drivers/BSP/Components/st7789h2/st7789h2.c ****   parameter[6] = 0x39;
 226:Drivers/BSP/Components/st7789h2/st7789h2.c ****   parameter[7] = 0x33;
 227:Drivers/BSP/Components/st7789h2/st7789h2.c ****   parameter[8] = 0x50;
 228:Drivers/BSP/Components/st7789h2/st7789h2.c ****   parameter[9] = 0x36;
 229:Drivers/BSP/Components/st7789h2/st7789h2.c ****   parameter[10] = 0x13;
 230:Drivers/BSP/Components/st7789h2/st7789h2.c ****   parameter[11] = 0x14;
 231:Drivers/BSP/Components/st7789h2/st7789h2.c ****   parameter[12] = 0x29;
 232:Drivers/BSP/Components/st7789h2/st7789h2.c ****   parameter[13] = 0x2D;
 233:Drivers/BSP/Components/st7789h2/st7789h2.c ****   ST7789H2_WriteReg(ST7789H2_PV_GAMMA_CTRL, parameter, 14); 
 234:Drivers/BSP/Components/st7789h2/st7789h2.c ****   
 235:Drivers/BSP/Components/st7789h2/st7789h2.c ****   /* Negative Voltage Gamma Control */     
 236:Drivers/BSP/Components/st7789h2/st7789h2.c ****   parameter[0] = 0xD0;
 237:Drivers/BSP/Components/st7789h2/st7789h2.c ****   parameter[1] = 0x08;
 238:Drivers/BSP/Components/st7789h2/st7789h2.c ****   parameter[2] = 0x10;
 239:Drivers/BSP/Components/st7789h2/st7789h2.c ****   parameter[3] = 0x08;
 240:Drivers/BSP/Components/st7789h2/st7789h2.c ****   parameter[4] = 0x06;
 241:Drivers/BSP/Components/st7789h2/st7789h2.c ****   parameter[5] = 0x06;
 242:Drivers/BSP/Components/st7789h2/st7789h2.c ****   parameter[6] = 0x39;
 243:Drivers/BSP/Components/st7789h2/st7789h2.c ****   parameter[7] = 0x44;
 244:Drivers/BSP/Components/st7789h2/st7789h2.c ****   parameter[8] = 0x51;
 245:Drivers/BSP/Components/st7789h2/st7789h2.c ****   parameter[9] = 0x0B;
 246:Drivers/BSP/Components/st7789h2/st7789h2.c ****   parameter[10] = 0x16;
 247:Drivers/BSP/Components/st7789h2/st7789h2.c ****   parameter[11] = 0x14;
 248:Drivers/BSP/Components/st7789h2/st7789h2.c ****   parameter[12] = 0x2F;
 249:Drivers/BSP/Components/st7789h2/st7789h2.c ****   parameter[13] = 0x31;
 250:Drivers/BSP/Components/st7789h2/st7789h2.c ****   ST7789H2_WriteReg(ST7789H2_NV_GAMMA_CTRL, parameter, 14); 
 251:Drivers/BSP/Components/st7789h2/st7789h2.c ****   
 252:Drivers/BSP/Components/st7789h2/st7789h2.c ****   /* Display ON command */
 253:Drivers/BSP/Components/st7789h2/st7789h2.c ****   ST7789H2_DisplayOn();  
 254:Drivers/BSP/Components/st7789h2/st7789h2.c ****   
 255:Drivers/BSP/Components/st7789h2/st7789h2.c ****   /* Tearing Effect Line On: Option (00h:VSYNC Interface OFF, 01h:VSYNC Interface ON) */
 256:Drivers/BSP/Components/st7789h2/st7789h2.c ****   parameter[0] = 0x00;     
 257:Drivers/BSP/Components/st7789h2/st7789h2.c ****   ST7789H2_WriteReg(ST7789H2_TEARING_EFFECT, parameter, 1);
ARM GAS  /var/folders/0z/tsy30v1j4xl4_7kw94k978ww0000gn/T//ccaz1ZPA.s 			page 6


 258:Drivers/BSP/Components/st7789h2/st7789h2.c **** 
 259:Drivers/BSP/Components/st7789h2/st7789h2.c **** }
 260:Drivers/BSP/Components/st7789h2/st7789h2.c **** 
 261:Drivers/BSP/Components/st7789h2/st7789h2.c **** /**
 262:Drivers/BSP/Components/st7789h2/st7789h2.c ****   * @brief  Set the Display Orientation.
 263:Drivers/BSP/Components/st7789h2/st7789h2.c ****   * @param  orientation: ST7789H2_ORIENTATION_PORTRAIT, ST7789H2_ORIENTATION_LANDSCAPE
 264:Drivers/BSP/Components/st7789h2/st7789h2.c ****   *                      or ST7789H2_ORIENTATION_LANDSCAPE_ROT180  
 265:Drivers/BSP/Components/st7789h2/st7789h2.c ****   * @retval None
 266:Drivers/BSP/Components/st7789h2/st7789h2.c ****   */
 267:Drivers/BSP/Components/st7789h2/st7789h2.c **** void ST7789H2_SetOrientation(uint32_t orientation)
 268:Drivers/BSP/Components/st7789h2/st7789h2.c **** {
 269:Drivers/BSP/Components/st7789h2/st7789h2.c ****   uint8_t   parameter[6];
 270:Drivers/BSP/Components/st7789h2/st7789h2.c **** 
 271:Drivers/BSP/Components/st7789h2/st7789h2.c ****   if(orientation == ST7789H2_ORIENTATION_LANDSCAPE)
 272:Drivers/BSP/Components/st7789h2/st7789h2.c ****   {
 273:Drivers/BSP/Components/st7789h2/st7789h2.c ****     parameter[0] = 0x00;     
 274:Drivers/BSP/Components/st7789h2/st7789h2.c ****   }
 275:Drivers/BSP/Components/st7789h2/st7789h2.c ****   else if(orientation == ST7789H2_ORIENTATION_LANDSCAPE_ROT180)
 276:Drivers/BSP/Components/st7789h2/st7789h2.c ****   {
 277:Drivers/BSP/Components/st7789h2/st7789h2.c ****     /* Vertical Scrolling Definition */
 278:Drivers/BSP/Components/st7789h2/st7789h2.c ****     /* TFA describes the Top Fixed Area */
 279:Drivers/BSP/Components/st7789h2/st7789h2.c ****     parameter[0] = 0x00;
 280:Drivers/BSP/Components/st7789h2/st7789h2.c ****     parameter[1] = 0x00;
 281:Drivers/BSP/Components/st7789h2/st7789h2.c ****     /* VSA describes the height of the Vertical Scrolling Area */
 282:Drivers/BSP/Components/st7789h2/st7789h2.c ****     parameter[2] = 0x01;
 283:Drivers/BSP/Components/st7789h2/st7789h2.c ****     parameter[3] = 0xF0;
 284:Drivers/BSP/Components/st7789h2/st7789h2.c ****     /* BFA describes the Bottom Fixed Area */
 285:Drivers/BSP/Components/st7789h2/st7789h2.c ****     parameter[4] = 0x00;
 286:Drivers/BSP/Components/st7789h2/st7789h2.c ****     parameter[5] = 0x00; 
 287:Drivers/BSP/Components/st7789h2/st7789h2.c ****     ST7789H2_WriteReg(ST7789H2_VSCRDEF, parameter, 6);
 288:Drivers/BSP/Components/st7789h2/st7789h2.c **** 
 289:Drivers/BSP/Components/st7789h2/st7789h2.c ****     /* Vertical Scroll Start Address of RAM */
 290:Drivers/BSP/Components/st7789h2/st7789h2.c ****     /* GRAM row nbr (320) - Display row nbr (240) = 80 = 0x50 */
 291:Drivers/BSP/Components/st7789h2/st7789h2.c ****     parameter[0] = 0x00;
 292:Drivers/BSP/Components/st7789h2/st7789h2.c ****     parameter[1] = 0x50;
 293:Drivers/BSP/Components/st7789h2/st7789h2.c ****     ST7789H2_WriteReg(ST7789H2_VSCSAD, parameter, 2);
 294:Drivers/BSP/Components/st7789h2/st7789h2.c ****     
 295:Drivers/BSP/Components/st7789h2/st7789h2.c ****     parameter[0] = 0xC0; 
 296:Drivers/BSP/Components/st7789h2/st7789h2.c ****   }
 297:Drivers/BSP/Components/st7789h2/st7789h2.c ****   else
 298:Drivers/BSP/Components/st7789h2/st7789h2.c ****   {
 299:Drivers/BSP/Components/st7789h2/st7789h2.c ****     parameter[0] = 0x60;     
 300:Drivers/BSP/Components/st7789h2/st7789h2.c ****   }
 301:Drivers/BSP/Components/st7789h2/st7789h2.c ****   ST7789H2_WriteReg(ST7789H2_NORMAL_DISPLAY, parameter, 1);
 302:Drivers/BSP/Components/st7789h2/st7789h2.c **** }
 303:Drivers/BSP/Components/st7789h2/st7789h2.c **** 
 304:Drivers/BSP/Components/st7789h2/st7789h2.c **** /**
 305:Drivers/BSP/Components/st7789h2/st7789h2.c ****   * @brief  Enables the Display.
 306:Drivers/BSP/Components/st7789h2/st7789h2.c ****   * @param  None
 307:Drivers/BSP/Components/st7789h2/st7789h2.c ****   * @retval None
 308:Drivers/BSP/Components/st7789h2/st7789h2.c ****   */
 309:Drivers/BSP/Components/st7789h2/st7789h2.c **** void ST7789H2_DisplayOn(void)
 310:Drivers/BSP/Components/st7789h2/st7789h2.c **** {
 311:Drivers/BSP/Components/st7789h2/st7789h2.c ****   /* Display ON command */
 312:Drivers/BSP/Components/st7789h2/st7789h2.c ****   ST7789H2_WriteReg(ST7789H2_DISPLAY_ON, (uint8_t*)NULL, 0);
 313:Drivers/BSP/Components/st7789h2/st7789h2.c **** 
 314:Drivers/BSP/Components/st7789h2/st7789h2.c ****   /* Sleep Out command */
ARM GAS  /var/folders/0z/tsy30v1j4xl4_7kw94k978ww0000gn/T//ccaz1ZPA.s 			page 7


 315:Drivers/BSP/Components/st7789h2/st7789h2.c ****   ST7789H2_WriteReg(ST7789H2_SLEEP_OUT, (uint8_t*)NULL, 0);
 316:Drivers/BSP/Components/st7789h2/st7789h2.c **** }
 317:Drivers/BSP/Components/st7789h2/st7789h2.c **** 
 318:Drivers/BSP/Components/st7789h2/st7789h2.c **** /**
 319:Drivers/BSP/Components/st7789h2/st7789h2.c ****   * @brief  Disables the Display.
 320:Drivers/BSP/Components/st7789h2/st7789h2.c ****   * @param  None
 321:Drivers/BSP/Components/st7789h2/st7789h2.c ****   * @retval None
 322:Drivers/BSP/Components/st7789h2/st7789h2.c ****   */
 323:Drivers/BSP/Components/st7789h2/st7789h2.c **** void ST7789H2_DisplayOff(void)
 324:Drivers/BSP/Components/st7789h2/st7789h2.c **** {
 325:Drivers/BSP/Components/st7789h2/st7789h2.c ****   uint8_t   parameter[1];
 326:Drivers/BSP/Components/st7789h2/st7789h2.c ****   parameter[0] = 0xFE;
 327:Drivers/BSP/Components/st7789h2/st7789h2.c ****   /* Display OFF command */
 328:Drivers/BSP/Components/st7789h2/st7789h2.c ****   ST7789H2_WriteReg(ST7789H2_DISPLAY_OFF, parameter, 1);  
 329:Drivers/BSP/Components/st7789h2/st7789h2.c ****   /* Sleep In Command */
 330:Drivers/BSP/Components/st7789h2/st7789h2.c ****   ST7789H2_WriteReg(ST7789H2_SLEEP_IN, (uint8_t*)NULL, 0); 
 331:Drivers/BSP/Components/st7789h2/st7789h2.c ****   /* Wait for 10ms */
 332:Drivers/BSP/Components/st7789h2/st7789h2.c ****   LCD_IO_Delay(10);  
 333:Drivers/BSP/Components/st7789h2/st7789h2.c **** }
 334:Drivers/BSP/Components/st7789h2/st7789h2.c **** 
 335:Drivers/BSP/Components/st7789h2/st7789h2.c **** /**
 336:Drivers/BSP/Components/st7789h2/st7789h2.c ****   * @brief  Get the LCD pixel Width.
 337:Drivers/BSP/Components/st7789h2/st7789h2.c ****   * @param  None
 338:Drivers/BSP/Components/st7789h2/st7789h2.c ****   * @retval The Lcd Pixel Width
 339:Drivers/BSP/Components/st7789h2/st7789h2.c ****   */
 340:Drivers/BSP/Components/st7789h2/st7789h2.c **** uint16_t ST7789H2_GetLcdPixelWidth(void)
 341:Drivers/BSP/Components/st7789h2/st7789h2.c **** {
  30              		.loc 1 341 1 view -0
  31              		.cfi_startproc
  32              		@ args = 0, pretend = 0, frame = 0
  33              		@ frame_needed = 0, uses_anonymous_args = 0
  34              		@ link register save eliminated.
 342:Drivers/BSP/Components/st7789h2/st7789h2.c ****  return (uint16_t)ST7789H2_LCD_PIXEL_WIDTH;
  35              		.loc 1 342 2 view .LVU1
 343:Drivers/BSP/Components/st7789h2/st7789h2.c **** }
  36              		.loc 1 343 1 is_stmt 0 view .LVU2
  37 0000 F020     		movs	r0, #240
  38 0002 7047     		bx	lr
  39              		.cfi_endproc
  40              	.LFE7:
  42              		.section	.text.ST7789H2_SetDisplayWindow,"ax",%progbits
  43              		.align	1
  44              		.p2align 2,,3
  45              		.global	ST7789H2_SetDisplayWindow
  46              		.syntax unified
  47              		.thumb
  48              		.thumb_func
  50              	ST7789H2_SetDisplayWindow:
  51              	.LVL0:
  52              	.LFB15:
 344:Drivers/BSP/Components/st7789h2/st7789h2.c **** 
 345:Drivers/BSP/Components/st7789h2/st7789h2.c **** /**
 346:Drivers/BSP/Components/st7789h2/st7789h2.c ****   * @brief  Get the LCD pixel Height.
 347:Drivers/BSP/Components/st7789h2/st7789h2.c ****   * @param  None
 348:Drivers/BSP/Components/st7789h2/st7789h2.c ****   * @retval The Lcd Pixel Height
 349:Drivers/BSP/Components/st7789h2/st7789h2.c ****   */
 350:Drivers/BSP/Components/st7789h2/st7789h2.c **** uint16_t ST7789H2_GetLcdPixelHeight(void)
ARM GAS  /var/folders/0z/tsy30v1j4xl4_7kw94k978ww0000gn/T//ccaz1ZPA.s 			page 8


 351:Drivers/BSP/Components/st7789h2/st7789h2.c **** {
 352:Drivers/BSP/Components/st7789h2/st7789h2.c ****  return (uint16_t)ST7789H2_LCD_PIXEL_HEIGHT;
 353:Drivers/BSP/Components/st7789h2/st7789h2.c **** }
 354:Drivers/BSP/Components/st7789h2/st7789h2.c **** 
 355:Drivers/BSP/Components/st7789h2/st7789h2.c **** /**
 356:Drivers/BSP/Components/st7789h2/st7789h2.c ****   * @brief  Get the st7789h2 ID.
 357:Drivers/BSP/Components/st7789h2/st7789h2.c ****   * @param  None
 358:Drivers/BSP/Components/st7789h2/st7789h2.c ****   * @retval The st7789h2 ID 
 359:Drivers/BSP/Components/st7789h2/st7789h2.c ****   */
 360:Drivers/BSP/Components/st7789h2/st7789h2.c **** uint16_t ST7789H2_ReadID(void)
 361:Drivers/BSP/Components/st7789h2/st7789h2.c **** {
 362:Drivers/BSP/Components/st7789h2/st7789h2.c ****   LCD_IO_Init();
 363:Drivers/BSP/Components/st7789h2/st7789h2.c ****   
 364:Drivers/BSP/Components/st7789h2/st7789h2.c ****   return ST7789H2_ReadReg(ST7789H2_LCD_ID);
 365:Drivers/BSP/Components/st7789h2/st7789h2.c **** }
 366:Drivers/BSP/Components/st7789h2/st7789h2.c **** 
 367:Drivers/BSP/Components/st7789h2/st7789h2.c **** /**
 368:Drivers/BSP/Components/st7789h2/st7789h2.c ****   * @brief  Set Cursor position.
 369:Drivers/BSP/Components/st7789h2/st7789h2.c ****   * @param  Xpos: specifies the X position.
 370:Drivers/BSP/Components/st7789h2/st7789h2.c ****   * @param  Ypos: specifies the Y position.
 371:Drivers/BSP/Components/st7789h2/st7789h2.c ****   * @retval None
 372:Drivers/BSP/Components/st7789h2/st7789h2.c ****   */
 373:Drivers/BSP/Components/st7789h2/st7789h2.c **** void ST7789H2_SetCursor(uint16_t Xpos, uint16_t Ypos)
 374:Drivers/BSP/Components/st7789h2/st7789h2.c **** {
 375:Drivers/BSP/Components/st7789h2/st7789h2.c ****   uint8_t   parameter[4];
 376:Drivers/BSP/Components/st7789h2/st7789h2.c ****   /* CASET: Comumn Addrses Set */
 377:Drivers/BSP/Components/st7789h2/st7789h2.c ****   parameter[0] = 0x00;     
 378:Drivers/BSP/Components/st7789h2/st7789h2.c ****   parameter[1] = 0x00 + Xpos;
 379:Drivers/BSP/Components/st7789h2/st7789h2.c ****   parameter[2] = 0x00;
 380:Drivers/BSP/Components/st7789h2/st7789h2.c ****   parameter[3] = 0xEF + Xpos;
 381:Drivers/BSP/Components/st7789h2/st7789h2.c ****   ST7789H2_WriteReg(ST7789H2_CASET, parameter, 4);
 382:Drivers/BSP/Components/st7789h2/st7789h2.c ****   /* RASET: Row Addrses Set */  
 383:Drivers/BSP/Components/st7789h2/st7789h2.c ****   parameter[0] = 0x00;
 384:Drivers/BSP/Components/st7789h2/st7789h2.c ****   parameter[1] = 0x00 + Ypos;
 385:Drivers/BSP/Components/st7789h2/st7789h2.c ****   parameter[2] = 0x00;
 386:Drivers/BSP/Components/st7789h2/st7789h2.c ****   parameter[3] = 0xEF + Ypos;
 387:Drivers/BSP/Components/st7789h2/st7789h2.c ****   ST7789H2_WriteReg(ST7789H2_RASET, parameter, 4);
 388:Drivers/BSP/Components/st7789h2/st7789h2.c **** }
 389:Drivers/BSP/Components/st7789h2/st7789h2.c **** 
 390:Drivers/BSP/Components/st7789h2/st7789h2.c **** /**
 391:Drivers/BSP/Components/st7789h2/st7789h2.c ****   * @brief  Write pixel.   
 392:Drivers/BSP/Components/st7789h2/st7789h2.c ****   * @param  Xpos: specifies the X position.
 393:Drivers/BSP/Components/st7789h2/st7789h2.c ****   * @param  Ypos: specifies the Y position.
 394:Drivers/BSP/Components/st7789h2/st7789h2.c ****   * @param  RGBCode: the RGB pixel color in RGB565 format
 395:Drivers/BSP/Components/st7789h2/st7789h2.c ****   * @retval None
 396:Drivers/BSP/Components/st7789h2/st7789h2.c ****   */
 397:Drivers/BSP/Components/st7789h2/st7789h2.c **** void ST7789H2_WritePixel(uint16_t Xpos, uint16_t Ypos, uint16_t RGBCode)
 398:Drivers/BSP/Components/st7789h2/st7789h2.c **** {
 399:Drivers/BSP/Components/st7789h2/st7789h2.c ****   /* Set Cursor */
 400:Drivers/BSP/Components/st7789h2/st7789h2.c ****   ST7789H2_SetCursor(Xpos, Ypos);
 401:Drivers/BSP/Components/st7789h2/st7789h2.c **** 
 402:Drivers/BSP/Components/st7789h2/st7789h2.c ****   /* Prepare to write to LCD RAM */
 403:Drivers/BSP/Components/st7789h2/st7789h2.c ****   ST7789H2_WriteReg(ST7789H2_WRITE_RAM, (uint8_t*)NULL, 0);   /* RAM write data command */
 404:Drivers/BSP/Components/st7789h2/st7789h2.c **** 
 405:Drivers/BSP/Components/st7789h2/st7789h2.c ****   /* Write RAM data */
 406:Drivers/BSP/Components/st7789h2/st7789h2.c ****   LCD_IO_WriteData(RGBCode);
 407:Drivers/BSP/Components/st7789h2/st7789h2.c **** }
ARM GAS  /var/folders/0z/tsy30v1j4xl4_7kw94k978ww0000gn/T//ccaz1ZPA.s 			page 9


 408:Drivers/BSP/Components/st7789h2/st7789h2.c **** 
 409:Drivers/BSP/Components/st7789h2/st7789h2.c **** /**
 410:Drivers/BSP/Components/st7789h2/st7789h2.c ****   * @brief  Read pixel.
 411:Drivers/BSP/Components/st7789h2/st7789h2.c ****   * @param  Xpos: specifies the X position.
 412:Drivers/BSP/Components/st7789h2/st7789h2.c ****   * @param  Ypos: specifies the Y position.
 413:Drivers/BSP/Components/st7789h2/st7789h2.c ****   * @retval The RGB pixel color in RGB565 format
 414:Drivers/BSP/Components/st7789h2/st7789h2.c ****   */
 415:Drivers/BSP/Components/st7789h2/st7789h2.c **** uint16_t ST7789H2_ReadPixel(uint16_t Xpos, uint16_t Ypos)
 416:Drivers/BSP/Components/st7789h2/st7789h2.c **** {
 417:Drivers/BSP/Components/st7789h2/st7789h2.c ****   ST7789H2_Rgb888 rgb888;
 418:Drivers/BSP/Components/st7789h2/st7789h2.c ****   uint8_t          r, g, b;
 419:Drivers/BSP/Components/st7789h2/st7789h2.c ****   uint16_t         rgb565;
 420:Drivers/BSP/Components/st7789h2/st7789h2.c **** 
 421:Drivers/BSP/Components/st7789h2/st7789h2.c ****   /* Set Cursor */
 422:Drivers/BSP/Components/st7789h2/st7789h2.c ****   ST7789H2_SetCursor(Xpos, Ypos);
 423:Drivers/BSP/Components/st7789h2/st7789h2.c ****   
 424:Drivers/BSP/Components/st7789h2/st7789h2.c ****   /* Read RGB888 data from LCD RAM */
 425:Drivers/BSP/Components/st7789h2/st7789h2.c ****   rgb888 = ST7789H2_ReadPixel_rgb888(Xpos, Ypos);
 426:Drivers/BSP/Components/st7789h2/st7789h2.c ****   
 427:Drivers/BSP/Components/st7789h2/st7789h2.c ****   /* Convert RGB888 to RGB565 */
 428:Drivers/BSP/Components/st7789h2/st7789h2.c ****   r = ((rgb888.red & 0xF8) >> 3);    /* Extract the red component 5 most significant bits */
 429:Drivers/BSP/Components/st7789h2/st7789h2.c ****   g = ((rgb888.green & 0xFC) >> 2);  /* Extract the green component 6 most significant bits */
 430:Drivers/BSP/Components/st7789h2/st7789h2.c ****   b = ((rgb888.blue & 0xF8) >> 3);   /* Extract the blue component 5 most significant bits */
 431:Drivers/BSP/Components/st7789h2/st7789h2.c **** 
 432:Drivers/BSP/Components/st7789h2/st7789h2.c ****   rgb565 = ((uint16_t)(r) << 11) + ((uint16_t)(g) << 5) + ((uint16_t)(b) << 0);
 433:Drivers/BSP/Components/st7789h2/st7789h2.c ****   
 434:Drivers/BSP/Components/st7789h2/st7789h2.c ****   return (rgb565);
 435:Drivers/BSP/Components/st7789h2/st7789h2.c **** }
 436:Drivers/BSP/Components/st7789h2/st7789h2.c **** 
 437:Drivers/BSP/Components/st7789h2/st7789h2.c **** /**
 438:Drivers/BSP/Components/st7789h2/st7789h2.c ****   * @brief  Writes to the selected LCD register.
 439:Drivers/BSP/Components/st7789h2/st7789h2.c ****   * @param  Command: command value (or register address as named in st7789h2 doc).
 440:Drivers/BSP/Components/st7789h2/st7789h2.c ****   * @param  Parameters: pointer on parameters value (if command uses one or several parameters).
 441:Drivers/BSP/Components/st7789h2/st7789h2.c ****   * @param  NbParameters: number of command parameters (0 if no parameter)
 442:Drivers/BSP/Components/st7789h2/st7789h2.c ****   * @retval None
 443:Drivers/BSP/Components/st7789h2/st7789h2.c ****   */
 444:Drivers/BSP/Components/st7789h2/st7789h2.c **** void ST7789H2_WriteReg(uint8_t Command, uint8_t *Parameters, uint8_t NbParameters)
 445:Drivers/BSP/Components/st7789h2/st7789h2.c **** {
 446:Drivers/BSP/Components/st7789h2/st7789h2.c ****   uint8_t   i;
 447:Drivers/BSP/Components/st7789h2/st7789h2.c **** 
 448:Drivers/BSP/Components/st7789h2/st7789h2.c ****   /* Send command */
 449:Drivers/BSP/Components/st7789h2/st7789h2.c ****   LCD_IO_WriteReg(Command);
 450:Drivers/BSP/Components/st7789h2/st7789h2.c ****   
 451:Drivers/BSP/Components/st7789h2/st7789h2.c ****   /* Send command's parameters if any */
 452:Drivers/BSP/Components/st7789h2/st7789h2.c ****   for (i=0; i<NbParameters; i++)
 453:Drivers/BSP/Components/st7789h2/st7789h2.c ****   {
 454:Drivers/BSP/Components/st7789h2/st7789h2.c ****     LCD_IO_WriteData(Parameters[i]);
 455:Drivers/BSP/Components/st7789h2/st7789h2.c ****   }
 456:Drivers/BSP/Components/st7789h2/st7789h2.c **** }
 457:Drivers/BSP/Components/st7789h2/st7789h2.c **** 
 458:Drivers/BSP/Components/st7789h2/st7789h2.c **** /**
 459:Drivers/BSP/Components/st7789h2/st7789h2.c ****   * @brief  Reads the selected LCD Register.
 460:Drivers/BSP/Components/st7789h2/st7789h2.c ****   * @param  Command: command value (or register address as named in st7789h2 doc).
 461:Drivers/BSP/Components/st7789h2/st7789h2.c ****   * @retval Register Value.
 462:Drivers/BSP/Components/st7789h2/st7789h2.c ****   */
 463:Drivers/BSP/Components/st7789h2/st7789h2.c **** uint8_t ST7789H2_ReadReg(uint8_t Command)
 464:Drivers/BSP/Components/st7789h2/st7789h2.c **** {
ARM GAS  /var/folders/0z/tsy30v1j4xl4_7kw94k978ww0000gn/T//ccaz1ZPA.s 			page 10


 465:Drivers/BSP/Components/st7789h2/st7789h2.c ****   /* Send command */
 466:Drivers/BSP/Components/st7789h2/st7789h2.c ****   LCD_IO_WriteReg(Command);
 467:Drivers/BSP/Components/st7789h2/st7789h2.c **** 
 468:Drivers/BSP/Components/st7789h2/st7789h2.c ****   /* Read dummy data */
 469:Drivers/BSP/Components/st7789h2/st7789h2.c ****   LCD_IO_ReadData();
 470:Drivers/BSP/Components/st7789h2/st7789h2.c ****   
 471:Drivers/BSP/Components/st7789h2/st7789h2.c ****   /* Read register value */
 472:Drivers/BSP/Components/st7789h2/st7789h2.c ****   return (LCD_IO_ReadData());
 473:Drivers/BSP/Components/st7789h2/st7789h2.c **** }
 474:Drivers/BSP/Components/st7789h2/st7789h2.c **** 
 475:Drivers/BSP/Components/st7789h2/st7789h2.c **** /**
 476:Drivers/BSP/Components/st7789h2/st7789h2.c ****   * @brief  Sets a display window
 477:Drivers/BSP/Components/st7789h2/st7789h2.c ****   * @param  Xpos:   specifies the X bottom left position.
 478:Drivers/BSP/Components/st7789h2/st7789h2.c ****   * @param  Ypos:   specifies the Y bottom left position.
 479:Drivers/BSP/Components/st7789h2/st7789h2.c ****   * @param  Height: display window height.
 480:Drivers/BSP/Components/st7789h2/st7789h2.c ****   * @param  Width:  display window width.
 481:Drivers/BSP/Components/st7789h2/st7789h2.c ****   * @retval None
 482:Drivers/BSP/Components/st7789h2/st7789h2.c ****   */
 483:Drivers/BSP/Components/st7789h2/st7789h2.c **** void ST7789H2_SetDisplayWindow(uint16_t Xpos, uint16_t Ypos, uint16_t Width, uint16_t Height)
 484:Drivers/BSP/Components/st7789h2/st7789h2.c **** {
  53              		.loc 1 484 1 is_stmt 1 view -0
  54              		.cfi_startproc
  55              		@ args = 0, pretend = 0, frame = 0
  56              		@ frame_needed = 0, uses_anonymous_args = 0
  57              		@ link register save eliminated.
 485:Drivers/BSP/Components/st7789h2/st7789h2.c ****   if (Xpos < ST7789H2_LCD_PIXEL_WIDTH)
  58              		.loc 1 485 3 view .LVU4
 484:Drivers/BSP/Components/st7789h2/st7789h2.c ****   if (Xpos < ST7789H2_LCD_PIXEL_WIDTH)
  59              		.loc 1 484 1 is_stmt 0 view .LVU5
  60 0000 10B4     		push	{r4}
  61              		.cfi_def_cfa_offset 4
  62              		.cfi_offset 4, -4
  63              		.loc 1 485 6 view .LVU6
  64 0002 EF28     		cmp	r0, #239
  65 0004 144C     		ldr	r4, .L13
  66 0006 94BF     		ite	ls
  67 0008 8446     		movls	ip, r0
  68 000a 4FF0000C 		movhi	ip, #0
  69 000e A4F800C0 		strh	ip, [r4]	@ movhi
 486:Drivers/BSP/Components/st7789h2/st7789h2.c ****   {
 487:Drivers/BSP/Components/st7789h2/st7789h2.c ****     WindowsXstart = Xpos;
 488:Drivers/BSP/Components/st7789h2/st7789h2.c ****   }
 489:Drivers/BSP/Components/st7789h2/st7789h2.c ****   else
 490:Drivers/BSP/Components/st7789h2/st7789h2.c ****   {
 491:Drivers/BSP/Components/st7789h2/st7789h2.c ****     WindowsXstart = 0;
 492:Drivers/BSP/Components/st7789h2/st7789h2.c ****   }
 493:Drivers/BSP/Components/st7789h2/st7789h2.c **** 
 494:Drivers/BSP/Components/st7789h2/st7789h2.c ****   if (Ypos < ST7789H2_LCD_PIXEL_HEIGHT)
  70              		.loc 1 494 3 is_stmt 1 view .LVU7
  71              		.loc 1 494 6 is_stmt 0 view .LVU8
  72 0012 EF29     		cmp	r1, #239
  73 0014 114C     		ldr	r4, .L13+4
  74 0016 94BF     		ite	ls
  75 0018 8C46     		movls	ip, r1
  76 001a 4FF0000C 		movhi	ip, #0
  77 001e A4F800C0 		strh	ip, [r4]	@ movhi
 495:Drivers/BSP/Components/st7789h2/st7789h2.c ****   {
ARM GAS  /var/folders/0z/tsy30v1j4xl4_7kw94k978ww0000gn/T//ccaz1ZPA.s 			page 11


 496:Drivers/BSP/Components/st7789h2/st7789h2.c ****     WindowsYstart = Ypos;
 497:Drivers/BSP/Components/st7789h2/st7789h2.c ****   }
 498:Drivers/BSP/Components/st7789h2/st7789h2.c ****   else
 499:Drivers/BSP/Components/st7789h2/st7789h2.c ****   {
 500:Drivers/BSP/Components/st7789h2/st7789h2.c ****     WindowsYstart = 0;
 501:Drivers/BSP/Components/st7789h2/st7789h2.c ****   }
 502:Drivers/BSP/Components/st7789h2/st7789h2.c **** 
 503:Drivers/BSP/Components/st7789h2/st7789h2.c ****   if (Width  + Xpos <= ST7789H2_LCD_PIXEL_WIDTH)
  78              		.loc 1 503 3 is_stmt 1 view .LVU9
  79              		.loc 1 503 14 is_stmt 0 view .LVU10
  80 0022 1418     		adds	r4, r2, r0
  81              		.loc 1 503 6 view .LVU11
  82 0024 F02C     		cmp	r4, #240
 504:Drivers/BSP/Components/st7789h2/st7789h2.c ****   {
 505:Drivers/BSP/Components/st7789h2/st7789h2.c ****     WindowsXend = Width  + Xpos - 1;
  83              		.loc 1 505 5 is_stmt 1 view .LVU12
  84              		.loc 1 505 33 is_stmt 0 view .LVU13
  85 0026 DCBF     		itt	le
  86 0028 02F1FF32 		addle	r2, r2, #-1
  87              	.LVL1:
  88              		.loc 1 505 33 view .LVU14
  89 002c 8018     		addle	r0, r0, r2
  90              	.LVL2:
 506:Drivers/BSP/Components/st7789h2/st7789h2.c ****   }
 507:Drivers/BSP/Components/st7789h2/st7789h2.c ****   else
 508:Drivers/BSP/Components/st7789h2/st7789h2.c ****   {
 509:Drivers/BSP/Components/st7789h2/st7789h2.c ****     WindowsXend = ST7789H2_LCD_PIXEL_WIDTH - 1;
 510:Drivers/BSP/Components/st7789h2/st7789h2.c ****   }
 511:Drivers/BSP/Components/st7789h2/st7789h2.c **** 
 512:Drivers/BSP/Components/st7789h2/st7789h2.c ****   if (Height + Ypos <= ST7789H2_LCD_PIXEL_HEIGHT)
  91              		.loc 1 512 14 view .LVU15
  92 002e 03EB0102 		add	r2, r3, r1
 505:Drivers/BSP/Components/st7789h2/st7789h2.c ****   }
  93              		.loc 1 505 33 view .LVU16
  94 0032 D4BF     		ite	le
  95 0034 80B2     		uxthle	r0, r0
 509:Drivers/BSP/Components/st7789h2/st7789h2.c ****   }
  96              		.loc 1 509 17 view .LVU17
  97 0036 EF20     		movgt	r0, #239
  98              		.loc 1 512 6 view .LVU18
  99 0038 F02A     		cmp	r2, #240
 513:Drivers/BSP/Components/st7789h2/st7789h2.c ****   {
 514:Drivers/BSP/Components/st7789h2/st7789h2.c ****     WindowsYend = Height + Ypos - 1;
 100              		.loc 1 514 33 view .LVU19
 101 003a D8BF     		it	le
 102 003c 03F1FF33 		addle	r3, r3, #-1
 103              	.LVL3:
 104              		.loc 1 514 33 view .LVU20
 105 0040 074C     		ldr	r4, .L13+8
 106 0042 084A     		ldr	r2, .L13+12
 107 0044 2080     		strh	r0, [r4]	@ movhi
 512:Drivers/BSP/Components/st7789h2/st7789h2.c ****   {
 108              		.loc 1 512 3 is_stmt 1 view .LVU21
 109              		.loc 1 514 5 view .LVU22
 110              		.loc 1 514 33 is_stmt 0 view .LVU23
 111 0046 DABF     		itte	le
 112 0048 5B18     		addle	r3, r3, r1
ARM GAS  /var/folders/0z/tsy30v1j4xl4_7kw94k978ww0000gn/T//ccaz1ZPA.s 			page 12


 113 004a 9BB2     		uxthle	r3, r3
 515:Drivers/BSP/Components/st7789h2/st7789h2.c ****   }
 516:Drivers/BSP/Components/st7789h2/st7789h2.c ****   else
 517:Drivers/BSP/Components/st7789h2/st7789h2.c ****   {
 518:Drivers/BSP/Components/st7789h2/st7789h2.c ****     WindowsYend = ST7789H2_LCD_PIXEL_HEIGHT-1;
 114              		.loc 1 518 17 view .LVU24
 115 004c EF23     		movgt	r3, #239
 519:Drivers/BSP/Components/st7789h2/st7789h2.c ****   }
 520:Drivers/BSP/Components/st7789h2/st7789h2.c **** }
 116              		.loc 1 520 1 view .LVU25
 117 004e 5DF8044B 		ldr	r4, [sp], #4
 118              		.cfi_restore 4
 119              		.cfi_def_cfa_offset 0
 120 0052 1380     		strh	r3, [r2]	@ movhi
 121 0054 7047     		bx	lr
 122              	.L14:
 123 0056 00BF     		.align	2
 124              	.L13:
 125 0058 00000000 		.word	.LANCHOR0
 126 005c 00000000 		.word	.LANCHOR1
 127 0060 00000000 		.word	.LANCHOR2
 128 0064 00000000 		.word	.LANCHOR3
 129              		.cfi_endproc
 130              	.LFE15:
 132              		.section	.text.ST7789H2_GetLcdPixelHeight,"ax",%progbits
 133              		.align	1
 134              		.p2align 2,,3
 135              		.global	ST7789H2_GetLcdPixelHeight
 136              		.syntax unified
 137              		.thumb
 138              		.thumb_func
 140              	ST7789H2_GetLcdPixelHeight:
 141              	.LFB23:
 142              		.cfi_startproc
 143              		@ args = 0, pretend = 0, frame = 0
 144              		@ frame_needed = 0, uses_anonymous_args = 0
 145              		@ link register save eliminated.
 146 0000 F020     		movs	r0, #240
 147 0002 7047     		bx	lr
 148              		.cfi_endproc
 149              	.LFE23:
 151              		.section	.text.ST7789H2_ReadID,"ax",%progbits
 152              		.align	1
 153              		.p2align 2,,3
 154              		.global	ST7789H2_ReadID
 155              		.syntax unified
 156              		.thumb
 157              		.thumb_func
 159              	ST7789H2_ReadID:
 160              	.LFB9:
 361:Drivers/BSP/Components/st7789h2/st7789h2.c ****   LCD_IO_Init();
 161              		.loc 1 361 1 is_stmt 1 view -0
 162              		.cfi_startproc
 163              		@ args = 0, pretend = 0, frame = 0
 164              		@ frame_needed = 0, uses_anonymous_args = 0
 362:Drivers/BSP/Components/st7789h2/st7789h2.c ****   
 165              		.loc 1 362 3 view .LVU27
ARM GAS  /var/folders/0z/tsy30v1j4xl4_7kw94k978ww0000gn/T//ccaz1ZPA.s 			page 13


 361:Drivers/BSP/Components/st7789h2/st7789h2.c ****   LCD_IO_Init();
 166              		.loc 1 361 1 is_stmt 0 view .LVU28
 167 0000 08B5     		push	{r3, lr}
 168              		.cfi_def_cfa_offset 8
 169              		.cfi_offset 3, -8
 170              		.cfi_offset 14, -4
 362:Drivers/BSP/Components/st7789h2/st7789h2.c ****   
 171              		.loc 1 362 3 view .LVU29
 172 0002 FFF7FEFF 		bl	LCD_IO_Init
 173              	.LVL4:
 364:Drivers/BSP/Components/st7789h2/st7789h2.c **** }
 174              		.loc 1 364 3 is_stmt 1 view .LVU30
 175              	.LBB4:
 176              	.LBI4:
 463:Drivers/BSP/Components/st7789h2/st7789h2.c **** {
 177              		.loc 1 463 9 view .LVU31
 178              	.LBB5:
 466:Drivers/BSP/Components/st7789h2/st7789h2.c **** 
 179              		.loc 1 466 3 view .LVU32
 180 0006 0420     		movs	r0, #4
 181 0008 FFF7FEFF 		bl	LCD_IO_WriteReg
 182              	.LVL5:
 469:Drivers/BSP/Components/st7789h2/st7789h2.c ****   
 183              		.loc 1 469 3 view .LVU33
 184 000c FFF7FEFF 		bl	LCD_IO_ReadData
 185              	.LVL6:
 472:Drivers/BSP/Components/st7789h2/st7789h2.c **** }
 186              		.loc 1 472 3 view .LVU34
 472:Drivers/BSP/Components/st7789h2/st7789h2.c **** }
 187              		.loc 1 472 11 is_stmt 0 view .LVU35
 188 0010 FFF7FEFF 		bl	LCD_IO_ReadData
 189              	.LVL7:
 472:Drivers/BSP/Components/st7789h2/st7789h2.c **** }
 190              		.loc 1 472 11 view .LVU36
 191              	.LBE5:
 192              	.LBE4:
 365:Drivers/BSP/Components/st7789h2/st7789h2.c **** 
 193              		.loc 1 365 1 view .LVU37
 194 0014 C0B2     		uxtb	r0, r0
 195 0016 08BD     		pop	{r3, pc}
 196              		.cfi_endproc
 197              	.LFE9:
 199              		.section	.text.ST7789H2_DisplayOn,"ax",%progbits
 200              		.align	1
 201              		.p2align 2,,3
 202              		.global	ST7789H2_DisplayOn
 203              		.syntax unified
 204              		.thumb
 205              		.thumb_func
 207              	ST7789H2_DisplayOn:
 208              	.LFB5:
 310:Drivers/BSP/Components/st7789h2/st7789h2.c ****   /* Display ON command */
 209              		.loc 1 310 1 is_stmt 1 view -0
 210              		.cfi_startproc
 211              		@ args = 0, pretend = 0, frame = 0
 212              		@ frame_needed = 0, uses_anonymous_args = 0
 312:Drivers/BSP/Components/st7789h2/st7789h2.c **** 
ARM GAS  /var/folders/0z/tsy30v1j4xl4_7kw94k978ww0000gn/T//ccaz1ZPA.s 			page 14


 213              		.loc 1 312 3 view .LVU39
 214              	.LVL8:
 215              	.LBB10:
 216              	.LBI10:
 444:Drivers/BSP/Components/st7789h2/st7789h2.c **** {
 217              		.loc 1 444 6 view .LVU40
 218              	.LBB11:
 446:Drivers/BSP/Components/st7789h2/st7789h2.c **** 
 219              		.loc 1 446 3 view .LVU41
 449:Drivers/BSP/Components/st7789h2/st7789h2.c ****   
 220              		.loc 1 449 3 view .LVU42
 221              	.LBE11:
 222              	.LBE10:
 310:Drivers/BSP/Components/st7789h2/st7789h2.c ****   /* Display ON command */
 223              		.loc 1 310 1 is_stmt 0 view .LVU43
 224 0000 08B5     		push	{r3, lr}
 225              		.cfi_def_cfa_offset 8
 226              		.cfi_offset 3, -8
 227              		.cfi_offset 14, -4
 228              	.LBB13:
 229              	.LBB12:
 449:Drivers/BSP/Components/st7789h2/st7789h2.c ****   
 230              		.loc 1 449 3 view .LVU44
 231 0002 2920     		movs	r0, #41
 232 0004 FFF7FEFF 		bl	LCD_IO_WriteReg
 233              	.LVL9:
 452:Drivers/BSP/Components/st7789h2/st7789h2.c ****   {
 234              		.loc 1 452 3 is_stmt 1 view .LVU45
 452:Drivers/BSP/Components/st7789h2/st7789h2.c ****   {
 235              		.loc 1 452 14 view .LVU46
 452:Drivers/BSP/Components/st7789h2/st7789h2.c ****   {
 236              		.loc 1 452 14 is_stmt 0 view .LVU47
 237              	.LBE12:
 238              	.LBE13:
 315:Drivers/BSP/Components/st7789h2/st7789h2.c **** }
 239              		.loc 1 315 3 is_stmt 1 view .LVU48
 240              	.LBB14:
 241              	.LBI14:
 444:Drivers/BSP/Components/st7789h2/st7789h2.c **** {
 242              		.loc 1 444 6 view .LVU49
 243              	.LBB15:
 446:Drivers/BSP/Components/st7789h2/st7789h2.c **** 
 244              		.loc 1 446 3 view .LVU50
 449:Drivers/BSP/Components/st7789h2/st7789h2.c ****   
 245              		.loc 1 449 3 view .LVU51
 246              	.LBE15:
 247              	.LBE14:
 316:Drivers/BSP/Components/st7789h2/st7789h2.c **** 
 248              		.loc 1 316 1 is_stmt 0 view .LVU52
 249 0008 BDE80840 		pop	{r3, lr}
 250              		.cfi_restore 14
 251              		.cfi_restore 3
 252              		.cfi_def_cfa_offset 0
 253              	.LBB17:
 254              	.LBB16:
 449:Drivers/BSP/Components/st7789h2/st7789h2.c ****   
 255              		.loc 1 449 3 view .LVU53
ARM GAS  /var/folders/0z/tsy30v1j4xl4_7kw94k978ww0000gn/T//ccaz1ZPA.s 			page 15


 256 000c 1120     		movs	r0, #17
 257 000e FFF7FEBF 		b	LCD_IO_WriteReg
 258              	.LVL10:
 259              	.LBE16:
 260              	.LBE17:
 261              		.cfi_endproc
 262              	.LFE5:
 264 0012 00BF     		.section	.text.ST7789H2_DisplayOff,"ax",%progbits
 265              		.align	1
 266              		.p2align 2,,3
 267              		.global	ST7789H2_DisplayOff
 268              		.syntax unified
 269              		.thumb
 270              		.thumb_func
 272              	ST7789H2_DisplayOff:
 273              	.LFB6:
 324:Drivers/BSP/Components/st7789h2/st7789h2.c ****   uint8_t   parameter[1];
 274              		.loc 1 324 1 is_stmt 1 view -0
 275              		.cfi_startproc
 276              		@ args = 0, pretend = 0, frame = 0
 277              		@ frame_needed = 0, uses_anonymous_args = 0
 325:Drivers/BSP/Components/st7789h2/st7789h2.c ****   parameter[0] = 0xFE;
 278              		.loc 1 325 3 view .LVU55
 326:Drivers/BSP/Components/st7789h2/st7789h2.c ****   /* Display OFF command */
 279              		.loc 1 326 3 view .LVU56
 280              	.LVL11:
 328:Drivers/BSP/Components/st7789h2/st7789h2.c ****   /* Sleep In Command */
 281              		.loc 1 328 3 view .LVU57
 282              	.LBB22:
 283              	.LBI22:
 444:Drivers/BSP/Components/st7789h2/st7789h2.c **** {
 284              		.loc 1 444 6 view .LVU58
 285              	.LBB23:
 446:Drivers/BSP/Components/st7789h2/st7789h2.c **** 
 286              		.loc 1 446 3 view .LVU59
 449:Drivers/BSP/Components/st7789h2/st7789h2.c ****   
 287              		.loc 1 449 3 view .LVU60
 288              	.LBE23:
 289              	.LBE22:
 324:Drivers/BSP/Components/st7789h2/st7789h2.c ****   uint8_t   parameter[1];
 290              		.loc 1 324 1 is_stmt 0 view .LVU61
 291 0000 08B5     		push	{r3, lr}
 292              		.cfi_def_cfa_offset 8
 293              		.cfi_offset 3, -8
 294              		.cfi_offset 14, -4
 295              	.LBB25:
 296              	.LBB24:
 449:Drivers/BSP/Components/st7789h2/st7789h2.c ****   
 297              		.loc 1 449 3 view .LVU62
 298 0002 BD20     		movs	r0, #189
 299 0004 FFF7FEFF 		bl	LCD_IO_WriteReg
 300              	.LVL12:
 452:Drivers/BSP/Components/st7789h2/st7789h2.c ****   {
 301              		.loc 1 452 3 is_stmt 1 view .LVU63
 452:Drivers/BSP/Components/st7789h2/st7789h2.c ****   {
 302              		.loc 1 452 14 view .LVU64
 454:Drivers/BSP/Components/st7789h2/st7789h2.c ****   }
ARM GAS  /var/folders/0z/tsy30v1j4xl4_7kw94k978ww0000gn/T//ccaz1ZPA.s 			page 16


 303              		.loc 1 454 5 view .LVU65
 304 0008 FE20     		movs	r0, #254
 305 000a FFF7FEFF 		bl	LCD_IO_WriteData
 306              	.LVL13:
 452:Drivers/BSP/Components/st7789h2/st7789h2.c ****   {
 307              		.loc 1 452 30 view .LVU66
 452:Drivers/BSP/Components/st7789h2/st7789h2.c ****   {
 308              		.loc 1 452 14 view .LVU67
 452:Drivers/BSP/Components/st7789h2/st7789h2.c ****   {
 309              		.loc 1 452 14 is_stmt 0 view .LVU68
 310              	.LBE24:
 311              	.LBE25:
 330:Drivers/BSP/Components/st7789h2/st7789h2.c ****   /* Wait for 10ms */
 312              		.loc 1 330 3 is_stmt 1 view .LVU69
 313              	.LBB26:
 314              	.LBI26:
 444:Drivers/BSP/Components/st7789h2/st7789h2.c **** {
 315              		.loc 1 444 6 view .LVU70
 316              	.LBB27:
 446:Drivers/BSP/Components/st7789h2/st7789h2.c **** 
 317              		.loc 1 446 3 view .LVU71
 449:Drivers/BSP/Components/st7789h2/st7789h2.c ****   
 318              		.loc 1 449 3 view .LVU72
 319 000e 1020     		movs	r0, #16
 320 0010 FFF7FEFF 		bl	LCD_IO_WriteReg
 321              	.LVL14:
 452:Drivers/BSP/Components/st7789h2/st7789h2.c ****   {
 322              		.loc 1 452 3 view .LVU73
 452:Drivers/BSP/Components/st7789h2/st7789h2.c ****   {
 323              		.loc 1 452 14 view .LVU74
 452:Drivers/BSP/Components/st7789h2/st7789h2.c ****   {
 324              		.loc 1 452 14 is_stmt 0 view .LVU75
 325              	.LBE27:
 326              	.LBE26:
 332:Drivers/BSP/Components/st7789h2/st7789h2.c **** }
 327              		.loc 1 332 3 is_stmt 1 view .LVU76
 333:Drivers/BSP/Components/st7789h2/st7789h2.c **** 
 328              		.loc 1 333 1 is_stmt 0 view .LVU77
 329 0014 BDE80840 		pop	{r3, lr}
 330              		.cfi_restore 14
 331              		.cfi_restore 3
 332              		.cfi_def_cfa_offset 0
 332:Drivers/BSP/Components/st7789h2/st7789h2.c **** }
 333              		.loc 1 332 3 view .LVU78
 334 0018 0A20     		movs	r0, #10
 335 001a FFF7FEBF 		b	LCD_IO_Delay
 336              	.LVL15:
 337              		.cfi_endproc
 338              	.LFE6:
 340 001e 00BF     		.section	.text.ST7789H2_SetCursor,"ax",%progbits
 341              		.align	1
 342              		.p2align 2,,3
 343              		.global	ST7789H2_SetCursor
 344              		.syntax unified
 345              		.thumb
 346              		.thumb_func
 348              	ST7789H2_SetCursor:
ARM GAS  /var/folders/0z/tsy30v1j4xl4_7kw94k978ww0000gn/T//ccaz1ZPA.s 			page 17


 349              	.LVL16:
 350              	.LFB10:
 374:Drivers/BSP/Components/st7789h2/st7789h2.c ****   uint8_t   parameter[4];
 351              		.loc 1 374 1 is_stmt 1 view -0
 352              		.cfi_startproc
 353              		@ args = 0, pretend = 0, frame = 8
 354              		@ frame_needed = 0, uses_anonymous_args = 0
 375:Drivers/BSP/Components/st7789h2/st7789h2.c ****   /* CASET: Comumn Addrses Set */
 355              		.loc 1 375 3 view .LVU80
 377:Drivers/BSP/Components/st7789h2/st7789h2.c ****   parameter[1] = 0x00 + Xpos;
 356              		.loc 1 377 3 view .LVU81
 374:Drivers/BSP/Components/st7789h2/st7789h2.c ****   uint8_t   parameter[4];
 357              		.loc 1 374 1 is_stmt 0 view .LVU82
 358 0000 2DE9F041 		push	{r4, r5, r6, r7, r8, lr}
 359              		.cfi_def_cfa_offset 24
 360              		.cfi_offset 4, -24
 361              		.cfi_offset 5, -20
 362              		.cfi_offset 6, -16
 363              		.cfi_offset 7, -12
 364              		.cfi_offset 8, -8
 365              		.cfi_offset 14, -4
 378:Drivers/BSP/Components/st7789h2/st7789h2.c ****   parameter[2] = 0x00;
 366              		.loc 1 378 16 view .LVU83
 367 0004 C3B2     		uxtb	r3, r0
 374:Drivers/BSP/Components/st7789h2/st7789h2.c ****   uint8_t   parameter[4];
 368              		.loc 1 374 1 view .LVU84
 369 0006 82B0     		sub	sp, sp, #8
 370              		.cfi_def_cfa_offset 32
 377:Drivers/BSP/Components/st7789h2/st7789h2.c ****   parameter[1] = 0x00 + Xpos;
 371              		.loc 1 377 16 view .LVU85
 372 0008 0026     		movs	r6, #0
 380:Drivers/BSP/Components/st7789h2/st7789h2.c ****   ST7789H2_WriteReg(ST7789H2_CASET, parameter, 4);
 373              		.loc 1 380 23 view .LVU86
 374 000a A3F11102 		sub	r2, r3, #17
 375              	.LBB32:
 376              	.LBB33:
 449:Drivers/BSP/Components/st7789h2/st7789h2.c ****   
 377              		.loc 1 449 3 view .LVU87
 378 000e 2A20     		movs	r0, #42
 379              	.LVL17:
 449:Drivers/BSP/Components/st7789h2/st7789h2.c ****   
 380              		.loc 1 449 3 view .LVU88
 381 0010 0DF10504 		add	r4, sp, #5
 382              	.LBE33:
 383              	.LBE32:
 374:Drivers/BSP/Components/st7789h2/st7789h2.c ****   uint8_t   parameter[4];
 384              		.loc 1 374 1 view .LVU89
 385 0014 8846     		mov	r8, r1
 377:Drivers/BSP/Components/st7789h2/st7789h2.c ****   parameter[1] = 0x00 + Xpos;
 386              		.loc 1 377 16 view .LVU90
 387 0016 8DF80460 		strb	r6, [sp, #4]
 378:Drivers/BSP/Components/st7789h2/st7789h2.c ****   parameter[2] = 0x00;
 388              		.loc 1 378 3 is_stmt 1 view .LVU91
 378:Drivers/BSP/Components/st7789h2/st7789h2.c ****   parameter[2] = 0x00;
 389              		.loc 1 378 16 is_stmt 0 view .LVU92
 390 001a 8DF80530 		strb	r3, [sp, #5]
 379:Drivers/BSP/Components/st7789h2/st7789h2.c ****   parameter[3] = 0xEF + Xpos;
ARM GAS  /var/folders/0z/tsy30v1j4xl4_7kw94k978ww0000gn/T//ccaz1ZPA.s 			page 18


 391              		.loc 1 379 3 is_stmt 1 view .LVU93
 379:Drivers/BSP/Components/st7789h2/st7789h2.c ****   parameter[3] = 0xEF + Xpos;
 392              		.loc 1 379 16 is_stmt 0 view .LVU94
 393 001e 8DF80660 		strb	r6, [sp, #6]
 380:Drivers/BSP/Components/st7789h2/st7789h2.c ****   ST7789H2_WriteReg(ST7789H2_CASET, parameter, 4);
 394              		.loc 1 380 3 is_stmt 1 view .LVU95
 380:Drivers/BSP/Components/st7789h2/st7789h2.c ****   ST7789H2_WriteReg(ST7789H2_CASET, parameter, 4);
 395              		.loc 1 380 16 is_stmt 0 view .LVU96
 396 0022 8DF80720 		strb	r2, [sp, #7]
 381:Drivers/BSP/Components/st7789h2/st7789h2.c ****   /* RASET: Row Addrses Set */  
 397              		.loc 1 381 3 is_stmt 1 view .LVU97
 398              	.LVL18:
 399              	.LBB35:
 400              	.LBI32:
 444:Drivers/BSP/Components/st7789h2/st7789h2.c **** {
 401              		.loc 1 444 6 view .LVU98
 402              	.LBB34:
 446:Drivers/BSP/Components/st7789h2/st7789h2.c **** 
 403              		.loc 1 446 3 view .LVU99
 449:Drivers/BSP/Components/st7789h2/st7789h2.c ****   
 404              		.loc 1 449 3 view .LVU100
 405 0026 02AF     		add	r7, sp, #8
 406 0028 FFF7FEFF 		bl	LCD_IO_WriteReg
 407              	.LVL19:
 452:Drivers/BSP/Components/st7789h2/st7789h2.c ****   {
 408              		.loc 1 452 3 view .LVU101
 452:Drivers/BSP/Components/st7789h2/st7789h2.c ****   {
 409              		.loc 1 452 14 view .LVU102
 449:Drivers/BSP/Components/st7789h2/st7789h2.c ****   
 410              		.loc 1 449 3 is_stmt 0 view .LVU103
 411 002c 2546     		mov	r5, r4
 412 002e 3046     		mov	r0, r6
 413 0030 01E0     		b	.L24
 414              	.LVL20:
 415              	.L28:
 454:Drivers/BSP/Components/st7789h2/st7789h2.c ****   }
 416              		.loc 1 454 32 view .LVU104
 417 0032 15F8010B 		ldrb	r0, [r5], #1	@ zero_extendqisi2
 418              	.LVL21:
 419              	.L24:
 454:Drivers/BSP/Components/st7789h2/st7789h2.c ****   }
 420              		.loc 1 454 5 is_stmt 1 view .LVU105
 421 0036 FFF7FEFF 		bl	LCD_IO_WriteData
 422              	.LVL22:
 452:Drivers/BSP/Components/st7789h2/st7789h2.c ****   {
 423              		.loc 1 452 30 view .LVU106
 452:Drivers/BSP/Components/st7789h2/st7789h2.c ****   {
 424              		.loc 1 452 14 view .LVU107
 425 003a BD42     		cmp	r5, r7
 426 003c F9D1     		bne	.L28
 427              	.LVL23:
 452:Drivers/BSP/Components/st7789h2/st7789h2.c ****   {
 428              		.loc 1 452 14 is_stmt 0 view .LVU108
 429              	.LBE34:
 430              	.LBE35:
 383:Drivers/BSP/Components/st7789h2/st7789h2.c ****   parameter[1] = 0x00 + Ypos;
 431              		.loc 1 383 3 is_stmt 1 view .LVU109
ARM GAS  /var/folders/0z/tsy30v1j4xl4_7kw94k978ww0000gn/T//ccaz1ZPA.s 			page 19


 384:Drivers/BSP/Components/st7789h2/st7789h2.c ****   parameter[2] = 0x00;
 432              		.loc 1 384 3 view .LVU110
 384:Drivers/BSP/Components/st7789h2/st7789h2.c ****   parameter[2] = 0x00;
 433              		.loc 1 384 16 is_stmt 0 view .LVU111
 434 003e 5FFA88F1 		uxtb	r1, r8
 386:Drivers/BSP/Components/st7789h2/st7789h2.c ****   ST7789H2_WriteReg(ST7789H2_RASET, parameter, 4);
 435              		.loc 1 386 23 view .LVU112
 436 0042 A1F11103 		sub	r3, r1, #17
 437              	.LBB36:
 438              	.LBB37:
 449:Drivers/BSP/Components/st7789h2/st7789h2.c ****   
 439              		.loc 1 449 3 view .LVU113
 440 0046 2B20     		movs	r0, #43
 441              	.LBE37:
 442              	.LBE36:
 384:Drivers/BSP/Components/st7789h2/st7789h2.c ****   parameter[2] = 0x00;
 443              		.loc 1 384 16 view .LVU114
 444 0048 8DF80510 		strb	r1, [sp, #5]
 385:Drivers/BSP/Components/st7789h2/st7789h2.c ****   parameter[3] = 0xEF + Ypos;
 445              		.loc 1 385 3 is_stmt 1 view .LVU115
 386:Drivers/BSP/Components/st7789h2/st7789h2.c ****   ST7789H2_WriteReg(ST7789H2_RASET, parameter, 4);
 446              		.loc 1 386 3 view .LVU116
 386:Drivers/BSP/Components/st7789h2/st7789h2.c ****   ST7789H2_WriteReg(ST7789H2_RASET, parameter, 4);
 447              		.loc 1 386 16 is_stmt 0 view .LVU117
 448 004c 8DF80730 		strb	r3, [sp, #7]
 387:Drivers/BSP/Components/st7789h2/st7789h2.c **** }
 449              		.loc 1 387 3 is_stmt 1 view .LVU118
 450              	.LVL24:
 451              	.LBB39:
 452              	.LBI36:
 444:Drivers/BSP/Components/st7789h2/st7789h2.c **** {
 453              		.loc 1 444 6 view .LVU119
 454              	.LBB38:
 446:Drivers/BSP/Components/st7789h2/st7789h2.c **** 
 455              		.loc 1 446 3 view .LVU120
 449:Drivers/BSP/Components/st7789h2/st7789h2.c ****   
 456              		.loc 1 449 3 view .LVU121
 457 0050 FFF7FEFF 		bl	LCD_IO_WriteReg
 458              	.LVL25:
 452:Drivers/BSP/Components/st7789h2/st7789h2.c ****   {
 459              		.loc 1 452 3 view .LVU122
 452:Drivers/BSP/Components/st7789h2/st7789h2.c ****   {
 460              		.loc 1 452 14 view .LVU123
 449:Drivers/BSP/Components/st7789h2/st7789h2.c ****   
 461              		.loc 1 449 3 is_stmt 0 view .LVU124
 462 0054 0020     		movs	r0, #0
 463 0056 01E0     		b	.L26
 464              	.LVL26:
 465              	.L29:
 454:Drivers/BSP/Components/st7789h2/st7789h2.c ****   }
 466              		.loc 1 454 32 view .LVU125
 467 0058 14F8010B 		ldrb	r0, [r4], #1	@ zero_extendqisi2
 468              	.LVL27:
 469              	.L26:
 454:Drivers/BSP/Components/st7789h2/st7789h2.c ****   }
 470              		.loc 1 454 5 is_stmt 1 view .LVU126
 471 005c FFF7FEFF 		bl	LCD_IO_WriteData
ARM GAS  /var/folders/0z/tsy30v1j4xl4_7kw94k978ww0000gn/T//ccaz1ZPA.s 			page 20


 472              	.LVL28:
 452:Drivers/BSP/Components/st7789h2/st7789h2.c ****   {
 473              		.loc 1 452 30 view .LVU127
 452:Drivers/BSP/Components/st7789h2/st7789h2.c ****   {
 474              		.loc 1 452 14 view .LVU128
 475 0060 BC42     		cmp	r4, r7
 476 0062 F9D1     		bne	.L29
 477              	.LBE38:
 478              	.LBE39:
 388:Drivers/BSP/Components/st7789h2/st7789h2.c **** 
 479              		.loc 1 388 1 is_stmt 0 view .LVU129
 480 0064 02B0     		add	sp, sp, #8
 481              		.cfi_def_cfa_offset 24
 482              		@ sp needed
 483 0066 BDE8F081 		pop	{r4, r5, r6, r7, r8, pc}
 388:Drivers/BSP/Components/st7789h2/st7789h2.c **** 
 484              		.loc 1 388 1 view .LVU130
 485              		.cfi_endproc
 486              	.LFE10:
 488 006a 00BF     		.section	.text.ST7789H2_WritePixel,"ax",%progbits
 489              		.align	1
 490              		.p2align 2,,3
 491              		.global	ST7789H2_WritePixel
 492              		.syntax unified
 493              		.thumb
 494              		.thumb_func
 496              	ST7789H2_WritePixel:
 497              	.LVL29:
 498              	.LFB11:
 398:Drivers/BSP/Components/st7789h2/st7789h2.c ****   /* Set Cursor */
 499              		.loc 1 398 1 is_stmt 1 view -0
 500              		.cfi_startproc
 501              		@ args = 0, pretend = 0, frame = 0
 502              		@ frame_needed = 0, uses_anonymous_args = 0
 400:Drivers/BSP/Components/st7789h2/st7789h2.c **** 
 503              		.loc 1 400 3 view .LVU132
 398:Drivers/BSP/Components/st7789h2/st7789h2.c ****   /* Set Cursor */
 504              		.loc 1 398 1 is_stmt 0 view .LVU133
 505 0000 10B5     		push	{r4, lr}
 506              		.cfi_def_cfa_offset 8
 507              		.cfi_offset 4, -8
 508              		.cfi_offset 14, -4
 398:Drivers/BSP/Components/st7789h2/st7789h2.c ****   /* Set Cursor */
 509              		.loc 1 398 1 view .LVU134
 510 0002 1446     		mov	r4, r2
 400:Drivers/BSP/Components/st7789h2/st7789h2.c **** 
 511              		.loc 1 400 3 view .LVU135
 512 0004 FFF7FEFF 		bl	ST7789H2_SetCursor
 513              	.LVL30:
 403:Drivers/BSP/Components/st7789h2/st7789h2.c **** 
 514              		.loc 1 403 3 is_stmt 1 view .LVU136
 515              	.LBB42:
 516              	.LBI42:
 444:Drivers/BSP/Components/st7789h2/st7789h2.c **** {
 517              		.loc 1 444 6 view .LVU137
 518              	.LBB43:
 446:Drivers/BSP/Components/st7789h2/st7789h2.c **** 
ARM GAS  /var/folders/0z/tsy30v1j4xl4_7kw94k978ww0000gn/T//ccaz1ZPA.s 			page 21


 519              		.loc 1 446 3 view .LVU138
 449:Drivers/BSP/Components/st7789h2/st7789h2.c ****   
 520              		.loc 1 449 3 view .LVU139
 521 0008 2C20     		movs	r0, #44
 522 000a FFF7FEFF 		bl	LCD_IO_WriteReg
 523              	.LVL31:
 452:Drivers/BSP/Components/st7789h2/st7789h2.c ****   {
 524              		.loc 1 452 3 view .LVU140
 452:Drivers/BSP/Components/st7789h2/st7789h2.c ****   {
 525              		.loc 1 452 14 view .LVU141
 452:Drivers/BSP/Components/st7789h2/st7789h2.c ****   {
 526              		.loc 1 452 14 is_stmt 0 view .LVU142
 527              	.LBE43:
 528              	.LBE42:
 406:Drivers/BSP/Components/st7789h2/st7789h2.c **** }
 529              		.loc 1 406 3 is_stmt 1 view .LVU143
 530 000e 2046     		mov	r0, r4
 407:Drivers/BSP/Components/st7789h2/st7789h2.c **** 
 531              		.loc 1 407 1 is_stmt 0 view .LVU144
 532 0010 BDE81040 		pop	{r4, lr}
 533              		.cfi_restore 14
 534              		.cfi_restore 4
 535              		.cfi_def_cfa_offset 0
 406:Drivers/BSP/Components/st7789h2/st7789h2.c **** }
 536              		.loc 1 406 3 view .LVU145
 537 0014 FFF7FEBF 		b	LCD_IO_WriteData
 538              	.LVL32:
 539              		.cfi_endproc
 540              	.LFE11:
 542              		.section	.text.ST7789H2_DrawHLine,"ax",%progbits
 543              		.align	1
 544              		.p2align 2,,3
 545              		.global	ST7789H2_DrawHLine
 546              		.syntax unified
 547              		.thumb
 548              		.thumb_func
 550              	ST7789H2_DrawHLine:
 551              	.LVL33:
 552              	.LFB16:
 521:Drivers/BSP/Components/st7789h2/st7789h2.c **** 
 522:Drivers/BSP/Components/st7789h2/st7789h2.c **** /**
 523:Drivers/BSP/Components/st7789h2/st7789h2.c ****   * @brief  Draw vertical line.
 524:Drivers/BSP/Components/st7789h2/st7789h2.c ****   * @param  RGBCode: Specifies the RGB color in RGB565 format
 525:Drivers/BSP/Components/st7789h2/st7789h2.c ****   * @param  Xpos:     specifies the X position.
 526:Drivers/BSP/Components/st7789h2/st7789h2.c ****   * @param  Ypos:     specifies the Y position.
 527:Drivers/BSP/Components/st7789h2/st7789h2.c ****   * @param  Length:   specifies the Line length.  
 528:Drivers/BSP/Components/st7789h2/st7789h2.c ****   * @retval None
 529:Drivers/BSP/Components/st7789h2/st7789h2.c ****   */
 530:Drivers/BSP/Components/st7789h2/st7789h2.c **** void ST7789H2_DrawHLine(uint16_t RGBCode, uint16_t Xpos, uint16_t Ypos, uint16_t Length)
 531:Drivers/BSP/Components/st7789h2/st7789h2.c **** {
 553              		.loc 1 531 1 is_stmt 1 view -0
 554              		.cfi_startproc
 555              		@ args = 0, pretend = 0, frame = 0
 556              		@ frame_needed = 0, uses_anonymous_args = 0
 532:Drivers/BSP/Components/st7789h2/st7789h2.c ****   uint16_t counter = 0;
 557              		.loc 1 532 3 view .LVU147
 533:Drivers/BSP/Components/st7789h2/st7789h2.c ****   
ARM GAS  /var/folders/0z/tsy30v1j4xl4_7kw94k978ww0000gn/T//ccaz1ZPA.s 			page 22


 534:Drivers/BSP/Components/st7789h2/st7789h2.c ****   /* Set Cursor */
 535:Drivers/BSP/Components/st7789h2/st7789h2.c ****   ST7789H2_SetCursor(Xpos, Ypos); 
 558              		.loc 1 535 3 view .LVU148
 531:Drivers/BSP/Components/st7789h2/st7789h2.c ****   uint16_t counter = 0;
 559              		.loc 1 531 1 is_stmt 0 view .LVU149
 560 0000 70B5     		push	{r4, r5, r6, lr}
 561              		.cfi_def_cfa_offset 16
 562              		.cfi_offset 4, -16
 563              		.cfi_offset 5, -12
 564              		.cfi_offset 6, -8
 565              		.cfi_offset 14, -4
 531:Drivers/BSP/Components/st7789h2/st7789h2.c ****   uint16_t counter = 0;
 566              		.loc 1 531 1 view .LVU150
 567 0002 0646     		mov	r6, r0
 568              		.loc 1 535 3 view .LVU151
 569 0004 0846     		mov	r0, r1
 570              	.LVL34:
 571              		.loc 1 535 3 view .LVU152
 572 0006 1146     		mov	r1, r2
 573              	.LVL35:
 531:Drivers/BSP/Components/st7789h2/st7789h2.c ****   uint16_t counter = 0;
 574              		.loc 1 531 1 view .LVU153
 575 0008 1D46     		mov	r5, r3
 576              		.loc 1 535 3 view .LVU154
 577 000a FFF7FEFF 		bl	ST7789H2_SetCursor
 578              	.LVL36:
 536:Drivers/BSP/Components/st7789h2/st7789h2.c ****   
 537:Drivers/BSP/Components/st7789h2/st7789h2.c ****   /* Prepare to write to LCD RAM */
 538:Drivers/BSP/Components/st7789h2/st7789h2.c ****   ST7789H2_WriteReg(ST7789H2_WRITE_RAM, (uint8_t*)NULL, 0);   /* RAM write data command */
 579              		.loc 1 538 3 is_stmt 1 view .LVU155
 580              	.LBB46:
 581              	.LBI46:
 444:Drivers/BSP/Components/st7789h2/st7789h2.c **** {
 582              		.loc 1 444 6 view .LVU156
 583              	.LBB47:
 446:Drivers/BSP/Components/st7789h2/st7789h2.c **** 
 584              		.loc 1 446 3 view .LVU157
 449:Drivers/BSP/Components/st7789h2/st7789h2.c ****   
 585              		.loc 1 449 3 view .LVU158
 586 000e 2C20     		movs	r0, #44
 587 0010 FFF7FEFF 		bl	LCD_IO_WriteReg
 588              	.LVL37:
 452:Drivers/BSP/Components/st7789h2/st7789h2.c ****   {
 589              		.loc 1 452 3 view .LVU159
 452:Drivers/BSP/Components/st7789h2/st7789h2.c ****   {
 590              		.loc 1 452 14 view .LVU160
 452:Drivers/BSP/Components/st7789h2/st7789h2.c ****   {
 591              		.loc 1 452 14 is_stmt 0 view .LVU161
 592              	.LBE47:
 593              	.LBE46:
 539:Drivers/BSP/Components/st7789h2/st7789h2.c ****   
 540:Drivers/BSP/Components/st7789h2/st7789h2.c ****   /* Sent a complete line */
 541:Drivers/BSP/Components/st7789h2/st7789h2.c ****   for(counter = 0; counter < Length; counter++)
 594              		.loc 1 541 28 is_stmt 1 view .LVU162
 595 0014 3DB1     		cbz	r5, .L32
 596              		.loc 1 541 15 is_stmt 0 view .LVU163
 597 0016 0024     		movs	r4, #0
ARM GAS  /var/folders/0z/tsy30v1j4xl4_7kw94k978ww0000gn/T//ccaz1ZPA.s 			page 23


 598              	.LVL38:
 599              	.L34:
 542:Drivers/BSP/Components/st7789h2/st7789h2.c ****   {
 543:Drivers/BSP/Components/st7789h2/st7789h2.c ****     LCD_IO_WriteData(RGBCode);
 600              		.loc 1 543 5 is_stmt 1 discriminator 3 view .LVU164
 541:Drivers/BSP/Components/st7789h2/st7789h2.c ****   {
 601              		.loc 1 541 45 is_stmt 0 discriminator 3 view .LVU165
 602 0018 0134     		adds	r4, r4, #1
 603              	.LVL39:
 604              		.loc 1 543 5 discriminator 3 view .LVU166
 605 001a 3046     		mov	r0, r6
 541:Drivers/BSP/Components/st7789h2/st7789h2.c ****   {
 606              		.loc 1 541 45 discriminator 3 view .LVU167
 607 001c A4B2     		uxth	r4, r4
 608              		.loc 1 543 5 discriminator 3 view .LVU168
 609 001e FFF7FEFF 		bl	LCD_IO_WriteData
 610              	.LVL40:
 541:Drivers/BSP/Components/st7789h2/st7789h2.c ****   {
 611              		.loc 1 541 45 is_stmt 1 discriminator 3 view .LVU169
 541:Drivers/BSP/Components/st7789h2/st7789h2.c ****   {
 612              		.loc 1 541 28 discriminator 3 view .LVU170
 613 0022 A542     		cmp	r5, r4
 614 0024 F8D1     		bne	.L34
 615              	.LVL41:
 616              	.L32:
 544:Drivers/BSP/Components/st7789h2/st7789h2.c ****   }  
 545:Drivers/BSP/Components/st7789h2/st7789h2.c **** }
 617              		.loc 1 545 1 is_stmt 0 view .LVU171
 618 0026 70BD     		pop	{r4, r5, r6, pc}
 619              		.cfi_endproc
 620              	.LFE16:
 622              		.section	.text.ST7789H2_DrawVLine,"ax",%progbits
 623              		.align	1
 624              		.p2align 2,,3
 625              		.global	ST7789H2_DrawVLine
 626              		.syntax unified
 627              		.thumb
 628              		.thumb_func
 630              	ST7789H2_DrawVLine:
 631              	.LVL42:
 632              	.LFB17:
 546:Drivers/BSP/Components/st7789h2/st7789h2.c **** 
 547:Drivers/BSP/Components/st7789h2/st7789h2.c **** /**
 548:Drivers/BSP/Components/st7789h2/st7789h2.c ****   * @brief  Draw vertical line.
 549:Drivers/BSP/Components/st7789h2/st7789h2.c ****   * @param  RGBCode: Specifies the RGB color    
 550:Drivers/BSP/Components/st7789h2/st7789h2.c ****   * @param  Xpos:     specifies the X position.
 551:Drivers/BSP/Components/st7789h2/st7789h2.c ****   * @param  Ypos:     specifies the Y position.
 552:Drivers/BSP/Components/st7789h2/st7789h2.c ****   * @param  Length:   specifies the Line length.  
 553:Drivers/BSP/Components/st7789h2/st7789h2.c ****   * @retval None
 554:Drivers/BSP/Components/st7789h2/st7789h2.c ****   */
 555:Drivers/BSP/Components/st7789h2/st7789h2.c **** void ST7789H2_DrawVLine(uint16_t RGBCode, uint16_t Xpos, uint16_t Ypos, uint16_t Length)
 556:Drivers/BSP/Components/st7789h2/st7789h2.c **** {
 633              		.loc 1 556 1 is_stmt 1 view -0
 634              		.cfi_startproc
 635              		@ args = 0, pretend = 0, frame = 0
 636              		@ frame_needed = 0, uses_anonymous_args = 0
 557:Drivers/BSP/Components/st7789h2/st7789h2.c ****   uint16_t counter = 0;
ARM GAS  /var/folders/0z/tsy30v1j4xl4_7kw94k978ww0000gn/T//ccaz1ZPA.s 			page 24


 637              		.loc 1 557 3 view .LVU173
 558:Drivers/BSP/Components/st7789h2/st7789h2.c **** 
 559:Drivers/BSP/Components/st7789h2/st7789h2.c ****   /* Set Cursor */
 560:Drivers/BSP/Components/st7789h2/st7789h2.c ****   ST7789H2_SetCursor(Xpos, Ypos);
 638              		.loc 1 560 3 view .LVU174
 556:Drivers/BSP/Components/st7789h2/st7789h2.c ****   uint16_t counter = 0;
 639              		.loc 1 556 1 is_stmt 0 view .LVU175
 640 0000 F8B5     		push	{r3, r4, r5, r6, r7, lr}
 641              		.cfi_def_cfa_offset 24
 642              		.cfi_offset 3, -24
 643              		.cfi_offset 4, -20
 644              		.cfi_offset 5, -16
 645              		.cfi_offset 6, -12
 646              		.cfi_offset 7, -8
 647              		.cfi_offset 14, -4
 556:Drivers/BSP/Components/st7789h2/st7789h2.c ****   uint16_t counter = 0;
 648              		.loc 1 556 1 view .LVU176
 649 0002 0E46     		mov	r6, r1
 650 0004 0746     		mov	r7, r0
 651              		.loc 1 560 3 view .LVU177
 652 0006 1146     		mov	r1, r2
 653              	.LVL43:
 654              		.loc 1 560 3 view .LVU178
 655 0008 3046     		mov	r0, r6
 656              	.LVL44:
 556:Drivers/BSP/Components/st7789h2/st7789h2.c ****   uint16_t counter = 0;
 657              		.loc 1 556 1 view .LVU179
 658 000a 1D46     		mov	r5, r3
 659 000c 1446     		mov	r4, r2
 660              		.loc 1 560 3 view .LVU180
 661 000e FFF7FEFF 		bl	ST7789H2_SetCursor
 662              	.LVL45:
 561:Drivers/BSP/Components/st7789h2/st7789h2.c ****   
 562:Drivers/BSP/Components/st7789h2/st7789h2.c ****   /* Prepare to write to LCD RAM */
 563:Drivers/BSP/Components/st7789h2/st7789h2.c ****   ST7789H2_WriteReg(ST7789H2_WRITE_RAM, (uint8_t*)NULL, 0);   /* RAM write data command */
 663              		.loc 1 563 3 is_stmt 1 view .LVU181
 664              	.LBB54:
 665              	.LBI54:
 444:Drivers/BSP/Components/st7789h2/st7789h2.c **** {
 666              		.loc 1 444 6 view .LVU182
 667              	.LBB55:
 446:Drivers/BSP/Components/st7789h2/st7789h2.c **** 
 668              		.loc 1 446 3 view .LVU183
 449:Drivers/BSP/Components/st7789h2/st7789h2.c ****   
 669              		.loc 1 449 3 view .LVU184
 670 0012 2C20     		movs	r0, #44
 671 0014 FFF7FEFF 		bl	LCD_IO_WriteReg
 672              	.LVL46:
 452:Drivers/BSP/Components/st7789h2/st7789h2.c ****   {
 673              		.loc 1 452 3 view .LVU185
 452:Drivers/BSP/Components/st7789h2/st7789h2.c ****   {
 674              		.loc 1 452 14 view .LVU186
 452:Drivers/BSP/Components/st7789h2/st7789h2.c ****   {
 675              		.loc 1 452 14 is_stmt 0 view .LVU187
 676              	.LBE55:
 677              	.LBE54:
 564:Drivers/BSP/Components/st7789h2/st7789h2.c **** 
ARM GAS  /var/folders/0z/tsy30v1j4xl4_7kw94k978ww0000gn/T//ccaz1ZPA.s 			page 25


 565:Drivers/BSP/Components/st7789h2/st7789h2.c ****   /* Fill a complete vertical line */
 566:Drivers/BSP/Components/st7789h2/st7789h2.c ****   for(counter = 0; counter < Length; counter++)
 678              		.loc 1 566 28 is_stmt 1 view .LVU188
 679 0018 7DB1     		cbz	r5, .L40
 680 001a 2544     		add	r5, r5, r4
 681 001c ADB2     		uxth	r5, r5
 682              	.LVL47:
 683              	.L42:
 567:Drivers/BSP/Components/st7789h2/st7789h2.c ****   {
 568:Drivers/BSP/Components/st7789h2/st7789h2.c ****     ST7789H2_WritePixel(Xpos, Ypos + counter, RGBCode);
 684              		.loc 1 568 5 discriminator 3 view .LVU189
 685              	.LBB56:
 686              	.LBI56:
 397:Drivers/BSP/Components/st7789h2/st7789h2.c **** {
 687              		.loc 1 397 6 discriminator 3 view .LVU190
 688              	.LBB57:
 400:Drivers/BSP/Components/st7789h2/st7789h2.c **** 
 689              		.loc 1 400 3 discriminator 3 view .LVU191
 690 001e 2146     		mov	r1, r4
 691 0020 3046     		mov	r0, r6
 692 0022 FFF7FEFF 		bl	ST7789H2_SetCursor
 693              	.LVL48:
 403:Drivers/BSP/Components/st7789h2/st7789h2.c **** 
 694              		.loc 1 403 3 discriminator 3 view .LVU192
 695              	.LBB58:
 696              	.LBI58:
 444:Drivers/BSP/Components/st7789h2/st7789h2.c **** {
 697              		.loc 1 444 6 discriminator 3 view .LVU193
 698              	.LBB59:
 446:Drivers/BSP/Components/st7789h2/st7789h2.c **** 
 699              		.loc 1 446 3 discriminator 3 view .LVU194
 449:Drivers/BSP/Components/st7789h2/st7789h2.c ****   
 700              		.loc 1 449 3 discriminator 3 view .LVU195
 701              	.LBE59:
 702              	.LBE58:
 703              	.LBE57:
 704              	.LBE56:
 566:Drivers/BSP/Components/st7789h2/st7789h2.c ****   {
 705              		.loc 1 566 28 is_stmt 0 discriminator 3 view .LVU196
 706 0026 0134     		adds	r4, r4, #1
 707              	.LVL49:
 708              	.LBB64:
 709              	.LBB62:
 710              	.LBB61:
 711              	.LBB60:
 449:Drivers/BSP/Components/st7789h2/st7789h2.c ****   
 712              		.loc 1 449 3 discriminator 3 view .LVU197
 713 0028 2C20     		movs	r0, #44
 714 002a FFF7FEFF 		bl	LCD_IO_WriteReg
 715              	.LVL50:
 452:Drivers/BSP/Components/st7789h2/st7789h2.c ****   {
 716              		.loc 1 452 3 is_stmt 1 discriminator 3 view .LVU198
 452:Drivers/BSP/Components/st7789h2/st7789h2.c ****   {
 717              		.loc 1 452 14 discriminator 3 view .LVU199
 452:Drivers/BSP/Components/st7789h2/st7789h2.c ****   {
 718              		.loc 1 452 14 is_stmt 0 discriminator 3 view .LVU200
 719              	.LBE60:
ARM GAS  /var/folders/0z/tsy30v1j4xl4_7kw94k978ww0000gn/T//ccaz1ZPA.s 			page 26


 720              	.LBE61:
 406:Drivers/BSP/Components/st7789h2/st7789h2.c **** }
 721              		.loc 1 406 3 is_stmt 1 discriminator 3 view .LVU201
 722              	.LBE62:
 723              	.LBE64:
 566:Drivers/BSP/Components/st7789h2/st7789h2.c ****   {
 724              		.loc 1 566 28 is_stmt 0 discriminator 3 view .LVU202
 725 002e A4B2     		uxth	r4, r4
 726              	.LBB65:
 727              	.LBB63:
 406:Drivers/BSP/Components/st7789h2/st7789h2.c **** }
 728              		.loc 1 406 3 discriminator 3 view .LVU203
 729 0030 3846     		mov	r0, r7
 730 0032 FFF7FEFF 		bl	LCD_IO_WriteData
 731              	.LVL51:
 406:Drivers/BSP/Components/st7789h2/st7789h2.c **** }
 732              		.loc 1 406 3 discriminator 3 view .LVU204
 733              	.LBE63:
 734              	.LBE65:
 566:Drivers/BSP/Components/st7789h2/st7789h2.c ****   {
 735              		.loc 1 566 45 is_stmt 1 discriminator 3 view .LVU205
 566:Drivers/BSP/Components/st7789h2/st7789h2.c ****   {
 736              		.loc 1 566 28 discriminator 3 view .LVU206
 737 0036 AC42     		cmp	r4, r5
 738 0038 F1D1     		bne	.L42
 739              	.LVL52:
 740              	.L40:
 569:Drivers/BSP/Components/st7789h2/st7789h2.c ****   }
 570:Drivers/BSP/Components/st7789h2/st7789h2.c **** }
 741              		.loc 1 570 1 is_stmt 0 view .LVU207
 742 003a F8BD     		pop	{r3, r4, r5, r6, r7, pc}
 743              		.cfi_endproc
 744              	.LFE17:
 746              		.section	.text.ST7789H2_DrawRGBHLine,"ax",%progbits
 747              		.align	1
 748              		.p2align 2,,3
 749              		.syntax unified
 750              		.thumb
 751              		.thumb_func
 753              	ST7789H2_DrawRGBHLine:
 754              	.LVL53:
 755              	.LFB21:
 571:Drivers/BSP/Components/st7789h2/st7789h2.c **** 
 572:Drivers/BSP/Components/st7789h2/st7789h2.c **** /**
 573:Drivers/BSP/Components/st7789h2/st7789h2.c ****   * @brief  Displays a bitmap picture.
 574:Drivers/BSP/Components/st7789h2/st7789h2.c ****   * @param  BmpAddress: Bmp picture address.
 575:Drivers/BSP/Components/st7789h2/st7789h2.c ****   * @param  Xpos: Bmp X position in the LCD
 576:Drivers/BSP/Components/st7789h2/st7789h2.c ****   * @param  Ypos: Bmp Y position in the LCD    
 577:Drivers/BSP/Components/st7789h2/st7789h2.c ****   * @retval None
 578:Drivers/BSP/Components/st7789h2/st7789h2.c ****   */
 579:Drivers/BSP/Components/st7789h2/st7789h2.c **** void ST7789H2_DrawBitmap(uint16_t Xpos, uint16_t Ypos, uint8_t *pbmp)
 580:Drivers/BSP/Components/st7789h2/st7789h2.c **** {
 581:Drivers/BSP/Components/st7789h2/st7789h2.c ****   uint32_t index = 0, size = 0;
 582:Drivers/BSP/Components/st7789h2/st7789h2.c ****   uint32_t posY;
 583:Drivers/BSP/Components/st7789h2/st7789h2.c ****   uint32_t nb_line = 0;
 584:Drivers/BSP/Components/st7789h2/st7789h2.c ****   uint16_t Xsize = WindowsXend - WindowsXstart + 1;
 585:Drivers/BSP/Components/st7789h2/st7789h2.c ****   uint16_t Ysize = WindowsYend - WindowsYstart + 1;
ARM GAS  /var/folders/0z/tsy30v1j4xl4_7kw94k978ww0000gn/T//ccaz1ZPA.s 			page 27


 586:Drivers/BSP/Components/st7789h2/st7789h2.c **** 
 587:Drivers/BSP/Components/st7789h2/st7789h2.c ****   /* Read bitmap size */
 588:Drivers/BSP/Components/st7789h2/st7789h2.c ****   size = *(volatile uint16_t *) (pbmp + 2);
 589:Drivers/BSP/Components/st7789h2/st7789h2.c ****   size |= (*(volatile uint16_t *) (pbmp + 4)) << 16;
 590:Drivers/BSP/Components/st7789h2/st7789h2.c ****   /* Get bitmap data address offset */
 591:Drivers/BSP/Components/st7789h2/st7789h2.c ****   index = *(volatile uint16_t *) (pbmp + 10);
 592:Drivers/BSP/Components/st7789h2/st7789h2.c ****   index |= (*(volatile uint16_t *) (pbmp + 12)) << 16;
 593:Drivers/BSP/Components/st7789h2/st7789h2.c ****   size = (size - index)/2;
 594:Drivers/BSP/Components/st7789h2/st7789h2.c ****   pbmp += index;
 595:Drivers/BSP/Components/st7789h2/st7789h2.c **** 
 596:Drivers/BSP/Components/st7789h2/st7789h2.c ****   for (posY = (Ypos + Ysize); posY > Ypos; posY--)  /* In BMP files the line order is inverted */
 597:Drivers/BSP/Components/st7789h2/st7789h2.c ****   {
 598:Drivers/BSP/Components/st7789h2/st7789h2.c ****     /* Set Cursor */
 599:Drivers/BSP/Components/st7789h2/st7789h2.c ****     ST7789H2_SetCursor(Xpos, posY - 1);
 600:Drivers/BSP/Components/st7789h2/st7789h2.c **** 
 601:Drivers/BSP/Components/st7789h2/st7789h2.c ****     /* Draw one line of the picture */
 602:Drivers/BSP/Components/st7789h2/st7789h2.c ****     ST7789H2_DrawRGBHLine(Xpos, posY - 1, Xsize, (pbmp + (nb_line * Xsize * 2)));
 603:Drivers/BSP/Components/st7789h2/st7789h2.c ****     nb_line++;
 604:Drivers/BSP/Components/st7789h2/st7789h2.c ****   }
 605:Drivers/BSP/Components/st7789h2/st7789h2.c **** }
 606:Drivers/BSP/Components/st7789h2/st7789h2.c **** 
 607:Drivers/BSP/Components/st7789h2/st7789h2.c **** /**
 608:Drivers/BSP/Components/st7789h2/st7789h2.c ****   * @brief  Displays picture.
 609:Drivers/BSP/Components/st7789h2/st7789h2.c ****   * @param  pdata: picture address.
 610:Drivers/BSP/Components/st7789h2/st7789h2.c ****   * @param  Xpos: Image X position in the LCD
 611:Drivers/BSP/Components/st7789h2/st7789h2.c ****   * @param  Ypos: Image Y position in the LCD
 612:Drivers/BSP/Components/st7789h2/st7789h2.c ****   * @param  Xsize: Image X size in the LCD
 613:Drivers/BSP/Components/st7789h2/st7789h2.c ****   * @param  Ysize: Image Y size in the LCD
 614:Drivers/BSP/Components/st7789h2/st7789h2.c ****   * @retval None
 615:Drivers/BSP/Components/st7789h2/st7789h2.c ****   */
 616:Drivers/BSP/Components/st7789h2/st7789h2.c **** void ST7789H2_DrawRGBImage(uint16_t Xpos, uint16_t Ypos, uint16_t Xsize, uint16_t Ysize, uint8_t *p
 617:Drivers/BSP/Components/st7789h2/st7789h2.c **** {
 618:Drivers/BSP/Components/st7789h2/st7789h2.c ****   uint32_t posY;
 619:Drivers/BSP/Components/st7789h2/st7789h2.c ****   uint32_t nb_line = 0;
 620:Drivers/BSP/Components/st7789h2/st7789h2.c **** 
 621:Drivers/BSP/Components/st7789h2/st7789h2.c ****   for (posY = Ypos; posY < (Ypos + Ysize); posY ++)
 622:Drivers/BSP/Components/st7789h2/st7789h2.c ****   {
 623:Drivers/BSP/Components/st7789h2/st7789h2.c ****     /* Set Cursor */
 624:Drivers/BSP/Components/st7789h2/st7789h2.c ****     ST7789H2_SetCursor(Xpos, posY);
 625:Drivers/BSP/Components/st7789h2/st7789h2.c **** 
 626:Drivers/BSP/Components/st7789h2/st7789h2.c ****     /* Draw one line of the picture */
 627:Drivers/BSP/Components/st7789h2/st7789h2.c ****     ST7789H2_DrawRGBHLine(Xpos, posY, Xsize, (pdata + (nb_line * Xsize * 2)));
 628:Drivers/BSP/Components/st7789h2/st7789h2.c ****     nb_line++;
 629:Drivers/BSP/Components/st7789h2/st7789h2.c ****   }
 630:Drivers/BSP/Components/st7789h2/st7789h2.c **** }
 631:Drivers/BSP/Components/st7789h2/st7789h2.c **** 
 632:Drivers/BSP/Components/st7789h2/st7789h2.c **** 
 633:Drivers/BSP/Components/st7789h2/st7789h2.c **** /******************************************************************************
 634:Drivers/BSP/Components/st7789h2/st7789h2.c ****                             Static Functions
 635:Drivers/BSP/Components/st7789h2/st7789h2.c **** *******************************************************************************/
 636:Drivers/BSP/Components/st7789h2/st7789h2.c **** 
 637:Drivers/BSP/Components/st7789h2/st7789h2.c **** /**
 638:Drivers/BSP/Components/st7789h2/st7789h2.c ****   * @brief  Read pixel from LCD RAM in RGB888 format
 639:Drivers/BSP/Components/st7789h2/st7789h2.c ****   * @param  Xpos: specifies the X position.
 640:Drivers/BSP/Components/st7789h2/st7789h2.c ****   * @param  Ypos: specifies the Y position.
 641:Drivers/BSP/Components/st7789h2/st7789h2.c ****   * @retval Each RGB pixel color components in a structure
 642:Drivers/BSP/Components/st7789h2/st7789h2.c ****   */
ARM GAS  /var/folders/0z/tsy30v1j4xl4_7kw94k978ww0000gn/T//ccaz1ZPA.s 			page 28


 643:Drivers/BSP/Components/st7789h2/st7789h2.c **** static ST7789H2_Rgb888 ST7789H2_ReadPixel_rgb888(uint16_t Xpos, uint16_t Ypos)
 644:Drivers/BSP/Components/st7789h2/st7789h2.c **** {
 645:Drivers/BSP/Components/st7789h2/st7789h2.c ****   ST7789H2_Rgb888 rgb888;
 646:Drivers/BSP/Components/st7789h2/st7789h2.c ****   uint16_t         rgb888_part1, rgb888_part2;
 647:Drivers/BSP/Components/st7789h2/st7789h2.c **** 
 648:Drivers/BSP/Components/st7789h2/st7789h2.c ****   /* In LCD RAM, pixels are 24 bits packed and read with 16 bits access
 649:Drivers/BSP/Components/st7789h2/st7789h2.c ****    * Here is the pixels components arrangement in memory :
 650:Drivers/BSP/Components/st7789h2/st7789h2.c ****    *       bits:  15 14 13 12 11 10 09 08 | 07 06 05 04 03 02 01 00
 651:Drivers/BSP/Components/st7789h2/st7789h2.c ****    * address 0 :     red pixel 0    X  X  |   green pixel 0   X  X
 652:Drivers/BSP/Components/st7789h2/st7789h2.c ****    * address 1 :    blue pixel 0    X  X  |     red pixel 1   X  X
 653:Drivers/BSP/Components/st7789h2/st7789h2.c ****    * address 2 :   green pixel 1    X  X  |    blue pixel 1   X  X
 654:Drivers/BSP/Components/st7789h2/st7789h2.c ****    */
 655:Drivers/BSP/Components/st7789h2/st7789h2.c **** 
 656:Drivers/BSP/Components/st7789h2/st7789h2.c ****   /* Set Cursor */
 657:Drivers/BSP/Components/st7789h2/st7789h2.c ****   ST7789H2_SetCursor(Xpos, Ypos);
 658:Drivers/BSP/Components/st7789h2/st7789h2.c ****   /* Prepare to read LCD RAM */
 659:Drivers/BSP/Components/st7789h2/st7789h2.c ****   ST7789H2_WriteReg(ST7789H2_READ_RAM, (uint8_t*)NULL, 0);   /* RAM read data command */
 660:Drivers/BSP/Components/st7789h2/st7789h2.c ****   /* Dummy read */
 661:Drivers/BSP/Components/st7789h2/st7789h2.c ****   LCD_IO_ReadData();
 662:Drivers/BSP/Components/st7789h2/st7789h2.c ****   /* Read first part of the RGB888 data */
 663:Drivers/BSP/Components/st7789h2/st7789h2.c ****   rgb888_part1 = LCD_IO_ReadData();
 664:Drivers/BSP/Components/st7789h2/st7789h2.c ****   /* Read first part of the RGB888 data */
 665:Drivers/BSP/Components/st7789h2/st7789h2.c ****   rgb888_part2 = LCD_IO_ReadData();
 666:Drivers/BSP/Components/st7789h2/st7789h2.c **** 
 667:Drivers/BSP/Components/st7789h2/st7789h2.c ****   /* red component */
 668:Drivers/BSP/Components/st7789h2/st7789h2.c ****   rgb888.red   = (rgb888_part1 & 0xFC00) >> 8;
 669:Drivers/BSP/Components/st7789h2/st7789h2.c ****   /* green component */
 670:Drivers/BSP/Components/st7789h2/st7789h2.c ****   rgb888.green = (rgb888_part1 & 0x00FC) >> 0;
 671:Drivers/BSP/Components/st7789h2/st7789h2.c ****   /* blue component */
 672:Drivers/BSP/Components/st7789h2/st7789h2.c ****   rgb888.blue  = (rgb888_part2 & 0xFC00) >> 8;
 673:Drivers/BSP/Components/st7789h2/st7789h2.c **** 
 674:Drivers/BSP/Components/st7789h2/st7789h2.c ****   return rgb888;
 675:Drivers/BSP/Components/st7789h2/st7789h2.c **** }
 676:Drivers/BSP/Components/st7789h2/st7789h2.c **** 
 677:Drivers/BSP/Components/st7789h2/st7789h2.c **** 
 678:Drivers/BSP/Components/st7789h2/st7789h2.c **** /**
 679:Drivers/BSP/Components/st7789h2/st7789h2.c ****   * @brief  Displays a single picture line.
 680:Drivers/BSP/Components/st7789h2/st7789h2.c ****   * @param  pdata: picture address.
 681:Drivers/BSP/Components/st7789h2/st7789h2.c ****   * @param  Xpos: Image X position in the LCD
 682:Drivers/BSP/Components/st7789h2/st7789h2.c ****   * @param  Ypos: Image Y position in the LCD
 683:Drivers/BSP/Components/st7789h2/st7789h2.c ****   * @param  Xsize: Image X size in the LCD
 684:Drivers/BSP/Components/st7789h2/st7789h2.c ****   * @retval None
 685:Drivers/BSP/Components/st7789h2/st7789h2.c ****   */
 686:Drivers/BSP/Components/st7789h2/st7789h2.c **** static void ST7789H2_DrawRGBHLine(uint16_t Xpos, uint16_t Ypos, uint16_t Xsize, uint8_t *pdata)
 687:Drivers/BSP/Components/st7789h2/st7789h2.c **** {
 756              		.loc 1 687 1 is_stmt 1 view -0
 757              		.cfi_startproc
 758              		@ args = 0, pretend = 0, frame = 0
 759              		@ frame_needed = 0, uses_anonymous_args = 0
 688:Drivers/BSP/Components/st7789h2/st7789h2.c ****   uint32_t i = 0;
 760              		.loc 1 688 3 view .LVU209
 689:Drivers/BSP/Components/st7789h2/st7789h2.c ****   uint32_t posX;
 761              		.loc 1 689 3 view .LVU210
 690:Drivers/BSP/Components/st7789h2/st7789h2.c ****   uint16_t *rgb565 = (uint16_t*)pdata;
 762              		.loc 1 690 3 view .LVU211
 687:Drivers/BSP/Components/st7789h2/st7789h2.c ****   uint32_t i = 0;
 763              		.loc 1 687 1 is_stmt 0 view .LVU212
ARM GAS  /var/folders/0z/tsy30v1j4xl4_7kw94k978ww0000gn/T//ccaz1ZPA.s 			page 29


 764 0000 2DE9F84F 		push	{r3, r4, r5, r6, r7, r8, r9, r10, fp, lr}
 765              		.cfi_def_cfa_offset 40
 766              		.cfi_offset 3, -40
 767              		.cfi_offset 4, -36
 768              		.cfi_offset 5, -32
 769              		.cfi_offset 6, -28
 770              		.cfi_offset 7, -24
 771              		.cfi_offset 8, -20
 772              		.cfi_offset 9, -16
 773              		.cfi_offset 10, -12
 774              		.cfi_offset 11, -8
 775              		.cfi_offset 14, -4
 691:Drivers/BSP/Components/st7789h2/st7789h2.c ****   
 692:Drivers/BSP/Components/st7789h2/st7789h2.c ****   /* Prepare to write to LCD RAM */
 693:Drivers/BSP/Components/st7789h2/st7789h2.c ****   ST7789H2_WriteReg(ST7789H2_WRITE_RAM, (uint8_t*)NULL, 0);   /* RAM write data command */
 694:Drivers/BSP/Components/st7789h2/st7789h2.c ****   
 695:Drivers/BSP/Components/st7789h2/st7789h2.c ****   for (posX = Xpos; posX < (Xsize + Xpos); posX++)
 776              		.loc 1 695 13 view .LVU213
 777 0004 0446     		mov	r4, r0
 778              		.loc 1 695 35 view .LVU214
 779 0006 1519     		adds	r5, r2, r4
 780              	.LBB68:
 781              	.LBB69:
 449:Drivers/BSP/Components/st7789h2/st7789h2.c ****   
 782              		.loc 1 449 3 view .LVU215
 783 0008 2C20     		movs	r0, #44
 784              	.LVL54:
 449:Drivers/BSP/Components/st7789h2/st7789h2.c ****   
 785              		.loc 1 449 3 view .LVU216
 786              	.LBE69:
 787              	.LBE68:
 687:Drivers/BSP/Components/st7789h2/st7789h2.c ****   uint32_t i = 0;
 788              		.loc 1 687 1 view .LVU217
 789 000a 0F46     		mov	r7, r1
 790 000c 9946     		mov	r9, r3
 791              	.LVL55:
 693:Drivers/BSP/Components/st7789h2/st7789h2.c ****   
 792              		.loc 1 693 3 is_stmt 1 view .LVU218
 793              	.LBB71:
 794              	.LBI68:
 444:Drivers/BSP/Components/st7789h2/st7789h2.c **** {
 795              		.loc 1 444 6 view .LVU219
 796              	.LBB70:
 446:Drivers/BSP/Components/st7789h2/st7789h2.c **** 
 797              		.loc 1 446 3 view .LVU220
 449:Drivers/BSP/Components/st7789h2/st7789h2.c ****   
 798              		.loc 1 449 3 view .LVU221
 799 000e FFF7FEFF 		bl	LCD_IO_WriteReg
 800              	.LVL56:
 452:Drivers/BSP/Components/st7789h2/st7789h2.c ****   {
 801              		.loc 1 452 3 view .LVU222
 452:Drivers/BSP/Components/st7789h2/st7789h2.c ****   {
 802              		.loc 1 452 14 view .LVU223
 452:Drivers/BSP/Components/st7789h2/st7789h2.c ****   {
 803              		.loc 1 452 14 is_stmt 0 view .LVU224
 804              	.LBE70:
 805              	.LBE71:
ARM GAS  /var/folders/0z/tsy30v1j4xl4_7kw94k978ww0000gn/T//ccaz1ZPA.s 			page 30


 806              		.loc 1 695 3 is_stmt 1 view .LVU225
 807              		.loc 1 695 26 view .LVU226
 808 0012 A542     		cmp	r5, r4
 809 0014 1CD9     		bls	.L48
 810 0016 124E     		ldr	r6, .L56
 696:Drivers/BSP/Components/st7789h2/st7789h2.c ****   {
 697:Drivers/BSP/Components/st7789h2/st7789h2.c ****     if ((posX >= WindowsXstart) && (Ypos >= WindowsYstart) &&     /* Check we are in the defined wi
 811              		.loc 1 697 42 is_stmt 0 view .LVU227
 812 0018 DFF84C80 		ldr	r8, .L56+8
 698:Drivers/BSP/Components/st7789h2/st7789h2.c ****         (posX <= WindowsXend) && (Ypos <= WindowsYend))
 813              		.loc 1 698 15 view .LVU228
 814 001c DFF84CA0 		ldr	r10, .L56+12
 815              		.loc 1 698 40 view .LVU229
 816 0020 104B     		ldr	r3, .L56+4
 688:Drivers/BSP/Components/st7789h2/st7789h2.c ****   uint32_t posX;
 817              		.loc 1 688 12 view .LVU230
 818 0022 4FF0000B 		mov	fp, #0
 819              	.LVL57:
 820              	.L52:
 697:Drivers/BSP/Components/st7789h2/st7789h2.c ****         (posX <= WindowsXend) && (Ypos <= WindowsYend))
 821              		.loc 1 697 5 is_stmt 1 view .LVU231
 697:Drivers/BSP/Components/st7789h2/st7789h2.c ****         (posX <= WindowsXend) && (Ypos <= WindowsYend))
 822              		.loc 1 697 15 is_stmt 0 view .LVU232
 823 0026 3288     		ldrh	r2, [r6]
 697:Drivers/BSP/Components/st7789h2/st7789h2.c ****         (posX <= WindowsXend) && (Ypos <= WindowsYend))
 824              		.loc 1 697 8 view .LVU233
 825 0028 A242     		cmp	r2, r4
 826 002a 0ED8     		bhi	.L50
 697:Drivers/BSP/Components/st7789h2/st7789h2.c ****         (posX <= WindowsXend) && (Ypos <= WindowsYend))
 827              		.loc 1 697 33 discriminator 1 view .LVU234
 828 002c B8F80020 		ldrh	r2, [r8]
 829 0030 BA42     		cmp	r2, r7
 830 0032 0AD8     		bhi	.L50
 831              		.loc 1 698 15 discriminator 2 view .LVU235
 832 0034 BAF80020 		ldrh	r2, [r10]
 697:Drivers/BSP/Components/st7789h2/st7789h2.c ****         (posX <= WindowsXend) && (Ypos <= WindowsYend))
 833              		.loc 1 697 60 discriminator 2 view .LVU236
 834 0038 A242     		cmp	r2, r4
 835 003a 06D3     		bcc	.L50
 699:Drivers/BSP/Components/st7789h2/st7789h2.c ****     {
 700:Drivers/BSP/Components/st7789h2/st7789h2.c ****       if (posX != (Xsize + Xpos))     /* When writing last pixel when size is odd, the third part i
 836              		.loc 1 700 7 is_stmt 1 view .LVU237
 698:Drivers/BSP/Components/st7789h2/st7789h2.c ****     {
 837              		.loc 1 698 31 is_stmt 0 view .LVU238
 838 003c 1A88     		ldrh	r2, [r3]
 839 003e BA42     		cmp	r2, r7
 840 0040 03D3     		bcc	.L50
 701:Drivers/BSP/Components/st7789h2/st7789h2.c ****       {
 702:Drivers/BSP/Components/st7789h2/st7789h2.c ****         LCD_IO_WriteData(rgb565[i]);        
 841              		.loc 1 702 9 is_stmt 1 view .LVU239
 700:Drivers/BSP/Components/st7789h2/st7789h2.c ****       {
 842              		.loc 1 700 10 is_stmt 0 view .LVU240
 843 0042 A542     		cmp	r5, r4
 844 0044 06D1     		bne	.L55
 845              	.L51:
 703:Drivers/BSP/Components/st7789h2/st7789h2.c ****       }      
 704:Drivers/BSP/Components/st7789h2/st7789h2.c ****       i++;
ARM GAS  /var/folders/0z/tsy30v1j4xl4_7kw94k978ww0000gn/T//ccaz1ZPA.s 			page 31


 846              		.loc 1 704 7 is_stmt 1 view .LVU241
 847              		.loc 1 704 8 is_stmt 0 view .LVU242
 848 0046 0BF1010B 		add	fp, fp, #1
 849              	.LVL58:
 850              	.L50:
 695:Drivers/BSP/Components/st7789h2/st7789h2.c ****   {
 851              		.loc 1 695 48 is_stmt 1 discriminator 2 view .LVU243
 852 004a 0134     		adds	r4, r4, #1
 853              	.LVL59:
 695:Drivers/BSP/Components/st7789h2/st7789h2.c ****   {
 854              		.loc 1 695 26 discriminator 2 view .LVU244
 855 004c A542     		cmp	r5, r4
 856 004e EAD8     		bhi	.L52
 857              	.LVL60:
 858              	.L48:
 705:Drivers/BSP/Components/st7789h2/st7789h2.c ****     }
 706:Drivers/BSP/Components/st7789h2/st7789h2.c ****   }
 707:Drivers/BSP/Components/st7789h2/st7789h2.c **** }
 859              		.loc 1 707 1 is_stmt 0 view .LVU245
 860 0050 BDE8F88F 		pop	{r3, r4, r5, r6, r7, r8, r9, r10, fp, pc}
 861              	.LVL61:
 862              	.L55:
 702:Drivers/BSP/Components/st7789h2/st7789h2.c ****       }      
 863              		.loc 1 702 9 view .LVU246
 864 0054 39F81B00 		ldrh	r0, [r9, fp, lsl #1]
 865 0058 FFF7FEFF 		bl	LCD_IO_WriteData
 866              	.LVL62:
 867 005c 014B     		ldr	r3, .L56+4
 868 005e F2E7     		b	.L51
 869              	.L57:
 870              		.align	2
 871              	.L56:
 872 0060 00000000 		.word	.LANCHOR0
 873 0064 00000000 		.word	.LANCHOR3
 874 0068 00000000 		.word	.LANCHOR1
 875 006c 00000000 		.word	.LANCHOR2
 876              		.cfi_endproc
 877              	.LFE21:
 879              		.section	.text.ST7789H2_DrawBitmap,"ax",%progbits
 880              		.align	1
 881              		.p2align 2,,3
 882              		.global	ST7789H2_DrawBitmap
 883              		.syntax unified
 884              		.thumb
 885              		.thumb_func
 887              	ST7789H2_DrawBitmap:
 888              	.LVL63:
 889              	.LFB18:
 580:Drivers/BSP/Components/st7789h2/st7789h2.c ****   uint32_t index = 0, size = 0;
 890              		.loc 1 580 1 is_stmt 1 view -0
 891              		.cfi_startproc
 892              		@ args = 0, pretend = 0, frame = 8
 893              		@ frame_needed = 0, uses_anonymous_args = 0
 581:Drivers/BSP/Components/st7789h2/st7789h2.c ****   uint32_t posY;
 894              		.loc 1 581 3 view .LVU248
 582:Drivers/BSP/Components/st7789h2/st7789h2.c ****   uint32_t nb_line = 0;
 895              		.loc 1 582 3 view .LVU249
ARM GAS  /var/folders/0z/tsy30v1j4xl4_7kw94k978ww0000gn/T//ccaz1ZPA.s 			page 32


 583:Drivers/BSP/Components/st7789h2/st7789h2.c ****   uint16_t Xsize = WindowsXend - WindowsXstart + 1;
 896              		.loc 1 583 3 view .LVU250
 584:Drivers/BSP/Components/st7789h2/st7789h2.c ****   uint16_t Ysize = WindowsYend - WindowsYstart + 1;
 897              		.loc 1 584 3 view .LVU251
 580:Drivers/BSP/Components/st7789h2/st7789h2.c ****   uint32_t index = 0, size = 0;
 898              		.loc 1 580 1 is_stmt 0 view .LVU252
 899 0000 2DE9F043 		push	{r4, r5, r6, r7, r8, r9, lr}
 900              		.cfi_def_cfa_offset 28
 901              		.cfi_offset 4, -28
 902              		.cfi_offset 5, -24
 903              		.cfi_offset 6, -20
 904              		.cfi_offset 7, -16
 905              		.cfi_offset 8, -12
 906              		.cfi_offset 9, -8
 907              		.cfi_offset 14, -4
 908 0004 0F46     		mov	r7, r1
 585:Drivers/BSP/Components/st7789h2/st7789h2.c **** 
 909              		.loc 1 585 32 view .LVU253
 910 0006 1A49     		ldr	r1, .L63
 911              	.LVL64:
 584:Drivers/BSP/Components/st7789h2/st7789h2.c ****   uint16_t Ysize = WindowsYend - WindowsYstart + 1;
 912              		.loc 1 584 32 view .LVU254
 913 0008 1A4C     		ldr	r4, .L63+4
 585:Drivers/BSP/Components/st7789h2/st7789h2.c **** 
 914              		.loc 1 585 12 view .LVU255
 915 000a B1F800C0 		ldrh	ip, [r1]
 584:Drivers/BSP/Components/st7789h2/st7789h2.c ****   uint16_t Ysize = WindowsYend - WindowsYstart + 1;
 916              		.loc 1 584 32 view .LVU256
 917 000e 1A4B     		ldr	r3, .L63+8
 585:Drivers/BSP/Components/st7789h2/st7789h2.c **** 
 918              		.loc 1 585 32 view .LVU257
 919 0010 1A49     		ldr	r1, .L63+12
 584:Drivers/BSP/Components/st7789h2/st7789h2.c ****   uint16_t Ysize = WindowsYend - WindowsYstart + 1;
 920              		.loc 1 584 12 view .LVU258
 921 0012 2688     		ldrh	r6, [r4]
 922 0014 1B88     		ldrh	r3, [r3]
 585:Drivers/BSP/Components/st7789h2/st7789h2.c **** 
 923              		.loc 1 585 12 view .LVU259
 924 0016 0988     		ldrh	r1, [r1]
 588:Drivers/BSP/Components/st7789h2/st7789h2.c ****   size |= (*(volatile uint16_t *) (pbmp + 4)) << 16;
 925              		.loc 1 588 10 view .LVU260
 926 0018 5488     		ldrh	r4, [r2, #2]
 589:Drivers/BSP/Components/st7789h2/st7789h2.c ****   /* Get bitmap data address offset */
 927              		.loc 1 589 12 view .LVU261
 928 001a 9488     		ldrh	r4, [r2, #4]
 584:Drivers/BSP/Components/st7789h2/st7789h2.c ****   uint16_t Ysize = WindowsYend - WindowsYstart + 1;
 929              		.loc 1 584 12 view .LVU262
 930 001c 0136     		adds	r6, r6, #1
 585:Drivers/BSP/Components/st7789h2/st7789h2.c **** 
 931              		.loc 1 585 12 view .LVU263
 932 001e 0CF1010C 		add	ip, ip, #1
 933 0022 ACEB010C 		sub	ip, ip, r1
 584:Drivers/BSP/Components/st7789h2/st7789h2.c ****   uint16_t Ysize = WindowsYend - WindowsYstart + 1;
 934              		.loc 1 584 12 view .LVU264
 935 0026 F61A     		subs	r6, r6, r3
 591:Drivers/BSP/Components/st7789h2/st7789h2.c ****   index |= (*(volatile uint16_t *) (pbmp + 12)) << 16;
 936              		.loc 1 591 11 view .LVU265
ARM GAS  /var/folders/0z/tsy30v1j4xl4_7kw94k978ww0000gn/T//ccaz1ZPA.s 			page 33


 937 0028 5389     		ldrh	r3, [r2, #10]
 592:Drivers/BSP/Components/st7789h2/st7789h2.c ****   size = (size - index)/2;
 938              		.loc 1 592 13 view .LVU266
 939 002a 9189     		ldrh	r1, [r2, #12]
 596:Drivers/BSP/Components/st7789h2/st7789h2.c ****   {
 940              		.loc 1 596 21 view .LVU267
 941 002c 17FA8CFC 		uxtah	ip, r7, ip
 591:Drivers/BSP/Components/st7789h2/st7789h2.c ****   index |= (*(volatile uint16_t *) (pbmp + 12)) << 16;
 942              		.loc 1 591 11 view .LVU268
 943 0030 9BB2     		uxth	r3, r3
 944              	.LVL65:
 585:Drivers/BSP/Components/st7789h2/st7789h2.c **** 
 945              		.loc 1 585 3 is_stmt 1 view .LVU269
 588:Drivers/BSP/Components/st7789h2/st7789h2.c ****   size |= (*(volatile uint16_t *) (pbmp + 4)) << 16;
 946              		.loc 1 588 3 view .LVU270
 589:Drivers/BSP/Components/st7789h2/st7789h2.c ****   /* Get bitmap data address offset */
 947              		.loc 1 589 3 view .LVU271
 591:Drivers/BSP/Components/st7789h2/st7789h2.c ****   index |= (*(volatile uint16_t *) (pbmp + 12)) << 16;
 948              		.loc 1 591 3 view .LVU272
 592:Drivers/BSP/Components/st7789h2/st7789h2.c ****   size = (size - index)/2;
 949              		.loc 1 592 3 view .LVU273
 596:Drivers/BSP/Components/st7789h2/st7789h2.c ****   {
 950              		.loc 1 596 36 is_stmt 0 view .LVU274
 951 0032 BC45     		cmp	ip, r7
 580:Drivers/BSP/Components/st7789h2/st7789h2.c ****   uint32_t index = 0, size = 0;
 952              		.loc 1 580 1 view .LVU275
 953 0034 83B0     		sub	sp, sp, #12
 954              		.cfi_def_cfa_offset 40
 592:Drivers/BSP/Components/st7789h2/st7789h2.c ****   size = (size - index)/2;
 955              		.loc 1 592 9 view .LVU276
 956 0036 43EA0143 		orr	r3, r3, r1, lsl #16
 957              	.LVL66:
 593:Drivers/BSP/Components/st7789h2/st7789h2.c ****   pbmp += index;
 958              		.loc 1 593 3 is_stmt 1 view .LVU277
 594:Drivers/BSP/Components/st7789h2/st7789h2.c **** 
 959              		.loc 1 594 3 view .LVU278
 596:Drivers/BSP/Components/st7789h2/st7789h2.c ****   {
 960              		.loc 1 596 3 view .LVU279
 596:Drivers/BSP/Components/st7789h2/st7789h2.c ****   {
 961              		.loc 1 596 36 view .LVU280
 962 003a 15D9     		bls	.L58
 963 003c B6B2     		uxth	r6, r6
 596:Drivers/BSP/Components/st7789h2/st7789h2.c ****   {
 964              		.loc 1 596 36 is_stmt 0 view .LVU281
 965 003e 8046     		mov	r8, r0
 966 0040 D518     		adds	r5, r2, r3
 967              	.LVL67:
 596:Drivers/BSP/Components/st7789h2/st7789h2.c ****   {
 968              		.loc 1 596 36 view .LVU282
 969 0042 4FEA4609 		lsl	r9, r6, #1
 970              	.LVL68:
 971              	.L60:
 599:Drivers/BSP/Components/st7789h2/st7789h2.c **** 
 972              		.loc 1 599 5 is_stmt 1 discriminator 3 view .LVU283
 973 0046 0CF1FF34 		add	r4, ip, #-1
 974 004a A1B2     		uxth	r1, r4
 975 004c 4046     		mov	r0, r8
ARM GAS  /var/folders/0z/tsy30v1j4xl4_7kw94k978ww0000gn/T//ccaz1ZPA.s 			page 34


 976 004e 0191     		str	r1, [sp, #4]
 977 0050 FFF7FEFF 		bl	ST7789H2_SetCursor
 978              	.LVL69:
 602:Drivers/BSP/Components/st7789h2/st7789h2.c ****     nb_line++;
 979              		.loc 1 602 5 discriminator 3 view .LVU284
 980 0054 2B46     		mov	r3, r5
 981 0056 0199     		ldr	r1, [sp, #4]
 982 0058 3246     		mov	r2, r6
 983 005a 4046     		mov	r0, r8
 984 005c FFF7FEFF 		bl	ST7789H2_DrawRGBHLine
 985              	.LVL70:
 603:Drivers/BSP/Components/st7789h2/st7789h2.c ****   }
 986              		.loc 1 603 5 discriminator 3 view .LVU285
 596:Drivers/BSP/Components/st7789h2/st7789h2.c ****   {
 987              		.loc 1 596 48 discriminator 3 view .LVU286
 596:Drivers/BSP/Components/st7789h2/st7789h2.c ****   {
 988              		.loc 1 596 36 is_stmt 0 discriminator 3 view .LVU287
 989 0060 BC42     		cmp	r4, r7
 596:Drivers/BSP/Components/st7789h2/st7789h2.c ****   {
 990              		.loc 1 596 48 discriminator 3 view .LVU288
 991 0062 A446     		mov	ip, r4
 596:Drivers/BSP/Components/st7789h2/st7789h2.c ****   {
 992              		.loc 1 596 36 is_stmt 1 discriminator 3 view .LVU289
 993 0064 4D44     		add	r5, r5, r9
 994 0066 EED8     		bhi	.L60
 995              	.LVL71:
 996              	.L58:
 605:Drivers/BSP/Components/st7789h2/st7789h2.c **** 
 997              		.loc 1 605 1 is_stmt 0 view .LVU290
 998 0068 03B0     		add	sp, sp, #12
 999              		.cfi_def_cfa_offset 28
 1000              		@ sp needed
 1001 006a BDE8F083 		pop	{r4, r5, r6, r7, r8, r9, pc}
 1002              	.L64:
 1003 006e 00BF     		.align	2
 1004              	.L63:
 1005 0070 00000000 		.word	.LANCHOR3
 1006 0074 00000000 		.word	.LANCHOR2
 1007 0078 00000000 		.word	.LANCHOR0
 1008 007c 00000000 		.word	.LANCHOR1
 1009              		.cfi_endproc
 1010              	.LFE18:
 1012              		.section	.text.ST7789H2_DrawRGBImage,"ax",%progbits
 1013              		.align	1
 1014              		.p2align 2,,3
 1015              		.global	ST7789H2_DrawRGBImage
 1016              		.syntax unified
 1017              		.thumb
 1018              		.thumb_func
 1020              	ST7789H2_DrawRGBImage:
 1021              	.LVL72:
 1022              	.LFB19:
 617:Drivers/BSP/Components/st7789h2/st7789h2.c ****   uint32_t posY;
 1023              		.loc 1 617 1 is_stmt 1 view -0
 1024              		.cfi_startproc
 1025              		@ args = 4, pretend = 0, frame = 8
 1026              		@ frame_needed = 0, uses_anonymous_args = 0
ARM GAS  /var/folders/0z/tsy30v1j4xl4_7kw94k978ww0000gn/T//ccaz1ZPA.s 			page 35


 618:Drivers/BSP/Components/st7789h2/st7789h2.c ****   uint32_t nb_line = 0;
 1027              		.loc 1 618 3 view .LVU292
 619:Drivers/BSP/Components/st7789h2/st7789h2.c **** 
 1028              		.loc 1 619 3 view .LVU293
 621:Drivers/BSP/Components/st7789h2/st7789h2.c ****   {
 1029              		.loc 1 621 3 view .LVU294
 621:Drivers/BSP/Components/st7789h2/st7789h2.c ****   {
 1030              		.loc 1 621 26 view .LVU295
 617:Drivers/BSP/Components/st7789h2/st7789h2.c ****   uint32_t posY;
 1031              		.loc 1 617 1 is_stmt 0 view .LVU296
 1032 0000 2DE9F043 		push	{r4, r5, r6, r7, r8, r9, lr}
 1033              		.cfi_def_cfa_offset 28
 1034              		.cfi_offset 4, -28
 1035              		.cfi_offset 5, -24
 1036              		.cfi_offset 6, -20
 1037              		.cfi_offset 7, -16
 1038              		.cfi_offset 8, -12
 1039              		.cfi_offset 9, -8
 1040              		.cfi_offset 14, -4
 621:Drivers/BSP/Components/st7789h2/st7789h2.c ****   {
 1041              		.loc 1 621 34 view .LVU297
 1042 0004 CF18     		adds	r7, r1, r3
 621:Drivers/BSP/Components/st7789h2/st7789h2.c ****   {
 1043              		.loc 1 621 26 view .LVU298
 1044 0006 B942     		cmp	r1, r7
 617:Drivers/BSP/Components/st7789h2/st7789h2.c ****   uint32_t posY;
 1045              		.loc 1 617 1 view .LVU299
 1046 0008 83B0     		sub	sp, sp, #12
 1047              		.cfi_def_cfa_offset 40
 621:Drivers/BSP/Components/st7789h2/st7789h2.c ****   {
 1048              		.loc 1 621 26 view .LVU300
 1049 000a 14D2     		bcs	.L65
 1050 000c 0A9D     		ldr	r5, [sp, #40]
 1051 000e 0C46     		mov	r4, r1
 1052 0010 0646     		mov	r6, r0
 1053 0012 9046     		mov	r8, r2
 1054 0014 4FEA4209 		lsl	r9, r2, #1
 1055              	.LVL73:
 1056              	.L67:
 624:Drivers/BSP/Components/st7789h2/st7789h2.c **** 
 1057              		.loc 1 624 5 is_stmt 1 discriminator 3 view .LVU301
 1058 0018 A1B2     		uxth	r1, r4
 1059 001a 3046     		mov	r0, r6
 1060 001c 0191     		str	r1, [sp, #4]
 621:Drivers/BSP/Components/st7789h2/st7789h2.c ****   {
 1061              		.loc 1 621 49 is_stmt 0 discriminator 3 view .LVU302
 1062 001e 0134     		adds	r4, r4, #1
 1063              	.LVL74:
 624:Drivers/BSP/Components/st7789h2/st7789h2.c **** 
 1064              		.loc 1 624 5 discriminator 3 view .LVU303
 1065 0020 FFF7FEFF 		bl	ST7789H2_SetCursor
 1066              	.LVL75:
 627:Drivers/BSP/Components/st7789h2/st7789h2.c ****     nb_line++;
 1067              		.loc 1 627 5 is_stmt 1 discriminator 3 view .LVU304
 1068 0024 2B46     		mov	r3, r5
 1069 0026 0199     		ldr	r1, [sp, #4]
 1070 0028 4246     		mov	r2, r8
ARM GAS  /var/folders/0z/tsy30v1j4xl4_7kw94k978ww0000gn/T//ccaz1ZPA.s 			page 36


 1071 002a 3046     		mov	r0, r6
 1072 002c FFF7FEFF 		bl	ST7789H2_DrawRGBHLine
 1073              	.LVL76:
 628:Drivers/BSP/Components/st7789h2/st7789h2.c ****   }
 1074              		.loc 1 628 5 discriminator 3 view .LVU305
 621:Drivers/BSP/Components/st7789h2/st7789h2.c ****   {
 1075              		.loc 1 621 49 discriminator 3 view .LVU306
 621:Drivers/BSP/Components/st7789h2/st7789h2.c ****   {
 1076              		.loc 1 621 26 discriminator 3 view .LVU307
 1077 0030 BC42     		cmp	r4, r7
 1078 0032 4D44     		add	r5, r5, r9
 1079 0034 F0D3     		bcc	.L67
 1080              	.LVL77:
 1081              	.L65:
 630:Drivers/BSP/Components/st7789h2/st7789h2.c **** 
 1082              		.loc 1 630 1 is_stmt 0 view .LVU308
 1083 0036 03B0     		add	sp, sp, #12
 1084              		.cfi_def_cfa_offset 28
 1085              		@ sp needed
 1086 0038 BDE8F083 		pop	{r4, r5, r6, r7, r8, r9, pc}
 630:Drivers/BSP/Components/st7789h2/st7789h2.c **** 
 1087              		.loc 1 630 1 view .LVU309
 1088              		.cfi_endproc
 1089              	.LFE19:
 1091              		.section	.text.ST7789H2_ReadPixel,"ax",%progbits
 1092              		.align	1
 1093              		.p2align 2,,3
 1094              		.global	ST7789H2_ReadPixel
 1095              		.syntax unified
 1096              		.thumb
 1097              		.thumb_func
 1099              	ST7789H2_ReadPixel:
 1100              	.LVL78:
 1101              	.LFB12:
 416:Drivers/BSP/Components/st7789h2/st7789h2.c ****   ST7789H2_Rgb888 rgb888;
 1102              		.loc 1 416 1 is_stmt 1 view -0
 1103              		.cfi_startproc
 1104              		@ args = 0, pretend = 0, frame = 0
 1105              		@ frame_needed = 0, uses_anonymous_args = 0
 417:Drivers/BSP/Components/st7789h2/st7789h2.c ****   uint8_t          r, g, b;
 1106              		.loc 1 417 3 view .LVU311
 418:Drivers/BSP/Components/st7789h2/st7789h2.c ****   uint16_t         rgb565;
 1107              		.loc 1 418 3 view .LVU312
 419:Drivers/BSP/Components/st7789h2/st7789h2.c **** 
 1108              		.loc 1 419 3 view .LVU313
 422:Drivers/BSP/Components/st7789h2/st7789h2.c ****   
 1109              		.loc 1 422 3 view .LVU314
 416:Drivers/BSP/Components/st7789h2/st7789h2.c ****   ST7789H2_Rgb888 rgb888;
 1110              		.loc 1 416 1 is_stmt 0 view .LVU315
 1111 0000 38B5     		push	{r3, r4, r5, lr}
 1112              		.cfi_def_cfa_offset 16
 1113              		.cfi_offset 3, -16
 1114              		.cfi_offset 4, -12
 1115              		.cfi_offset 5, -8
 1116              		.cfi_offset 14, -4
 416:Drivers/BSP/Components/st7789h2/st7789h2.c ****   ST7789H2_Rgb888 rgb888;
 1117              		.loc 1 416 1 view .LVU316
ARM GAS  /var/folders/0z/tsy30v1j4xl4_7kw94k978ww0000gn/T//ccaz1ZPA.s 			page 37


 1118 0002 0446     		mov	r4, r0
 1119 0004 0D46     		mov	r5, r1
 422:Drivers/BSP/Components/st7789h2/st7789h2.c ****   
 1120              		.loc 1 422 3 view .LVU317
 1121 0006 FFF7FEFF 		bl	ST7789H2_SetCursor
 1122              	.LVL79:
 425:Drivers/BSP/Components/st7789h2/st7789h2.c ****   
 1123              		.loc 1 425 3 is_stmt 1 view .LVU318
 1124              	.LBB76:
 1125              	.LBI76:
 643:Drivers/BSP/Components/st7789h2/st7789h2.c **** {
 1126              		.loc 1 643 24 view .LVU319
 1127              	.LBB77:
 645:Drivers/BSP/Components/st7789h2/st7789h2.c ****   uint16_t         rgb888_part1, rgb888_part2;
 1128              		.loc 1 645 3 view .LVU320
 646:Drivers/BSP/Components/st7789h2/st7789h2.c **** 
 1129              		.loc 1 646 3 view .LVU321
 657:Drivers/BSP/Components/st7789h2/st7789h2.c ****   /* Prepare to read LCD RAM */
 1130              		.loc 1 657 3 view .LVU322
 1131 000a 2946     		mov	r1, r5
 1132 000c 2046     		mov	r0, r4
 1133 000e FFF7FEFF 		bl	ST7789H2_SetCursor
 1134              	.LVL80:
 659:Drivers/BSP/Components/st7789h2/st7789h2.c ****   /* Dummy read */
 1135              		.loc 1 659 3 view .LVU323
 1136              	.LBB78:
 1137              	.LBI78:
 444:Drivers/BSP/Components/st7789h2/st7789h2.c **** {
 1138              		.loc 1 444 6 view .LVU324
 1139              	.LBB79:
 446:Drivers/BSP/Components/st7789h2/st7789h2.c **** 
 1140              		.loc 1 446 3 view .LVU325
 449:Drivers/BSP/Components/st7789h2/st7789h2.c ****   
 1141              		.loc 1 449 3 view .LVU326
 1142 0012 2E20     		movs	r0, #46
 1143 0014 FFF7FEFF 		bl	LCD_IO_WriteReg
 1144              	.LVL81:
 452:Drivers/BSP/Components/st7789h2/st7789h2.c ****   {
 1145              		.loc 1 452 3 view .LVU327
 452:Drivers/BSP/Components/st7789h2/st7789h2.c ****   {
 1146              		.loc 1 452 14 view .LVU328
 452:Drivers/BSP/Components/st7789h2/st7789h2.c ****   {
 1147              		.loc 1 452 14 is_stmt 0 view .LVU329
 1148              	.LBE79:
 1149              	.LBE78:
 661:Drivers/BSP/Components/st7789h2/st7789h2.c ****   /* Read first part of the RGB888 data */
 1150              		.loc 1 661 3 is_stmt 1 view .LVU330
 1151 0018 FFF7FEFF 		bl	LCD_IO_ReadData
 1152              	.LVL82:
 663:Drivers/BSP/Components/st7789h2/st7789h2.c ****   /* Read first part of the RGB888 data */
 1153              		.loc 1 663 3 view .LVU331
 663:Drivers/BSP/Components/st7789h2/st7789h2.c ****   /* Read first part of the RGB888 data */
 1154              		.loc 1 663 18 is_stmt 0 view .LVU332
 1155 001c FFF7FEFF 		bl	LCD_IO_ReadData
 1156              	.LVL83:
 1157 0020 0446     		mov	r4, r0
 1158              	.LVL84:
ARM GAS  /var/folders/0z/tsy30v1j4xl4_7kw94k978ww0000gn/T//ccaz1ZPA.s 			page 38


 665:Drivers/BSP/Components/st7789h2/st7789h2.c **** 
 1159              		.loc 1 665 3 is_stmt 1 view .LVU333
 665:Drivers/BSP/Components/st7789h2/st7789h2.c **** 
 1160              		.loc 1 665 18 is_stmt 0 view .LVU334
 1161 0022 FFF7FEFF 		bl	LCD_IO_ReadData
 1162              	.LVL85:
 668:Drivers/BSP/Components/st7789h2/st7789h2.c ****   /* green component */
 1163              		.loc 1 668 3 is_stmt 1 view .LVU335
 670:Drivers/BSP/Components/st7789h2/st7789h2.c ****   /* blue component */
 1164              		.loc 1 670 3 view .LVU336
 672:Drivers/BSP/Components/st7789h2/st7789h2.c **** 
 1165              		.loc 1 672 3 view .LVU337
 674:Drivers/BSP/Components/st7789h2/st7789h2.c **** }
 1166              		.loc 1 674 3 view .LVU338
 674:Drivers/BSP/Components/st7789h2/st7789h2.c **** }
 1167              		.loc 1 674 3 is_stmt 0 view .LVU339
 1168              	.LBE77:
 1169              	.LBE76:
 428:Drivers/BSP/Components/st7789h2/st7789h2.c ****   g = ((rgb888.green & 0xFC) >> 2);  /* Extract the green component 6 most significant bits */
 1170              		.loc 1 428 3 is_stmt 1 view .LVU340
 429:Drivers/BSP/Components/st7789h2/st7789h2.c ****   b = ((rgb888.blue & 0xF8) >> 3);   /* Extract the blue component 5 most significant bits */
 1171              		.loc 1 429 3 view .LVU341
 430:Drivers/BSP/Components/st7789h2/st7789h2.c **** 
 1172              		.loc 1 430 3 view .LVU342
 432:Drivers/BSP/Components/st7789h2/st7789h2.c ****   
 1173              		.loc 1 432 3 view .LVU343
 434:Drivers/BSP/Components/st7789h2/st7789h2.c **** }
 1174              		.loc 1 434 3 view .LVU344
 432:Drivers/BSP/Components/st7789h2/st7789h2.c ****   
 1175              		.loc 1 432 51 is_stmt 0 view .LVU345
 1176 0026 C4F38502 		ubfx	r2, r4, #2, #6
 432:Drivers/BSP/Components/st7789h2/st7789h2.c ****   
 1177              		.loc 1 432 57 view .LVU346
 1178 002a C0F3C423 		ubfx	r3, r0, #11, #5
 432:Drivers/BSP/Components/st7789h2/st7789h2.c ****   
 1179              		.loc 1 432 10 view .LVU347
 1180 002e 03EB4213 		add	r3, r3, r2, lsl #5
 432:Drivers/BSP/Components/st7789h2/st7789h2.c ****   
 1181              		.loc 1 432 27 view .LVU348
 1182 0032 04F47844 		and	r4, r4, #63488
 1183              	.LVL86:
 432:Drivers/BSP/Components/st7789h2/st7789h2.c ****   
 1184              		.loc 1 432 10 view .LVU349
 1185 0036 1819     		adds	r0, r3, r4
 1186              	.LVL87:
 435:Drivers/BSP/Components/st7789h2/st7789h2.c **** 
 1187              		.loc 1 435 1 view .LVU350
 1188 0038 80B2     		uxth	r0, r0
 1189 003a 38BD     		pop	{r3, r4, r5, pc}
 1190              		.cfi_endproc
 1191              	.LFE12:
 1193              		.section	.text.ST7789H2_Init,"ax",%progbits
 1194              		.align	1
 1195              		.p2align 2,,3
 1196              		.global	ST7789H2_Init
 1197              		.syntax unified
 1198              		.thumb
ARM GAS  /var/folders/0z/tsy30v1j4xl4_7kw94k978ww0000gn/T//ccaz1ZPA.s 			page 39


 1199              		.thumb_func
 1201              	ST7789H2_Init:
 1202              	.LFB3:
 133:Drivers/BSP/Components/st7789h2/st7789h2.c ****   uint8_t   parameter[14];
 1203              		.loc 1 133 1 is_stmt 1 view -0
 1204              		.cfi_startproc
 1205              		@ args = 0, pretend = 0, frame = 16
 1206              		@ frame_needed = 0, uses_anonymous_args = 0
 134:Drivers/BSP/Components/st7789h2/st7789h2.c ****   
 1207              		.loc 1 134 3 view .LVU352
 137:Drivers/BSP/Components/st7789h2/st7789h2.c ****   /* Sleep In Command */ 
 1208              		.loc 1 137 3 view .LVU353
 133:Drivers/BSP/Components/st7789h2/st7789h2.c ****   uint8_t   parameter[14];
 1209              		.loc 1 133 1 is_stmt 0 view .LVU354
 1210 0000 70B5     		push	{r4, r5, r6, lr}
 1211              		.cfi_def_cfa_offset 16
 1212              		.cfi_offset 4, -16
 1213              		.cfi_offset 5, -12
 1214              		.cfi_offset 6, -8
 1215              		.cfi_offset 14, -4
 1216 0002 84B0     		sub	sp, sp, #16
 1217              		.cfi_def_cfa_offset 32
 137:Drivers/BSP/Components/st7789h2/st7789h2.c ****   /* Sleep In Command */ 
 1218              		.loc 1 137 3 view .LVU355
 1219 0004 FFF7FEFF 		bl	LCD_IO_Init
 1220              	.LVL88:
 139:Drivers/BSP/Components/st7789h2/st7789h2.c ****   /* Wait for 10ms */
 1221              		.loc 1 139 3 is_stmt 1 view .LVU356
 1222              	.LBB124:
 1223              	.LBI124:
 444:Drivers/BSP/Components/st7789h2/st7789h2.c **** {
 1224              		.loc 1 444 6 view .LVU357
 1225              	.LBB125:
 446:Drivers/BSP/Components/st7789h2/st7789h2.c **** 
 1226              		.loc 1 446 3 view .LVU358
 449:Drivers/BSP/Components/st7789h2/st7789h2.c ****   
 1227              		.loc 1 449 3 view .LVU359
 1228 0008 1020     		movs	r0, #16
 1229 000a FFF7FEFF 		bl	LCD_IO_WriteReg
 1230              	.LVL89:
 452:Drivers/BSP/Components/st7789h2/st7789h2.c ****   {
 1231              		.loc 1 452 3 view .LVU360
 452:Drivers/BSP/Components/st7789h2/st7789h2.c ****   {
 1232              		.loc 1 452 14 view .LVU361
 452:Drivers/BSP/Components/st7789h2/st7789h2.c ****   {
 1233              		.loc 1 452 14 is_stmt 0 view .LVU362
 1234              	.LBE125:
 1235              	.LBE124:
 141:Drivers/BSP/Components/st7789h2/st7789h2.c ****   
 1236              		.loc 1 141 3 is_stmt 1 view .LVU363
 1237 000e 0A20     		movs	r0, #10
 1238 0010 FFF7FEFF 		bl	LCD_IO_Delay
 1239              	.LVL90:
 144:Drivers/BSP/Components/st7789h2/st7789h2.c ****   /* Wait for 200ms */
 1240              		.loc 1 144 3 view .LVU364
 1241              	.LBB126:
 1242              	.LBI126:
ARM GAS  /var/folders/0z/tsy30v1j4xl4_7kw94k978ww0000gn/T//ccaz1ZPA.s 			page 40


 444:Drivers/BSP/Components/st7789h2/st7789h2.c **** {
 1243              		.loc 1 444 6 view .LVU365
 1244              	.LBB127:
 446:Drivers/BSP/Components/st7789h2/st7789h2.c **** 
 1245              		.loc 1 446 3 view .LVU366
 449:Drivers/BSP/Components/st7789h2/st7789h2.c ****   
 1246              		.loc 1 449 3 view .LVU367
 1247 0014 0120     		movs	r0, #1
 1248 0016 FFF7FEFF 		bl	LCD_IO_WriteReg
 1249              	.LVL91:
 452:Drivers/BSP/Components/st7789h2/st7789h2.c ****   {
 1250              		.loc 1 452 3 view .LVU368
 452:Drivers/BSP/Components/st7789h2/st7789h2.c ****   {
 1251              		.loc 1 452 14 view .LVU369
 452:Drivers/BSP/Components/st7789h2/st7789h2.c ****   {
 1252              		.loc 1 452 14 is_stmt 0 view .LVU370
 1253              	.LBE127:
 1254              	.LBE126:
 146:Drivers/BSP/Components/st7789h2/st7789h2.c ****   
 1255              		.loc 1 146 3 is_stmt 1 view .LVU371
 1256 001a C820     		movs	r0, #200
 1257 001c FFF7FEFF 		bl	LCD_IO_Delay
 1258              	.LVL92:
 149:Drivers/BSP/Components/st7789h2/st7789h2.c ****   /* Wait for 120ms */
 1259              		.loc 1 149 3 view .LVU372
 1260              	.LBB128:
 1261              	.LBI128:
 444:Drivers/BSP/Components/st7789h2/st7789h2.c **** {
 1262              		.loc 1 444 6 view .LVU373
 1263              	.LBB129:
 446:Drivers/BSP/Components/st7789h2/st7789h2.c **** 
 1264              		.loc 1 446 3 view .LVU374
 449:Drivers/BSP/Components/st7789h2/st7789h2.c ****   
 1265              		.loc 1 449 3 view .LVU375
 1266 0020 1120     		movs	r0, #17
 1267 0022 FFF7FEFF 		bl	LCD_IO_WriteReg
 1268              	.LVL93:
 452:Drivers/BSP/Components/st7789h2/st7789h2.c ****   {
 1269              		.loc 1 452 3 view .LVU376
 452:Drivers/BSP/Components/st7789h2/st7789h2.c ****   {
 1270              		.loc 1 452 14 view .LVU377
 452:Drivers/BSP/Components/st7789h2/st7789h2.c ****   {
 1271              		.loc 1 452 14 is_stmt 0 view .LVU378
 1272              	.LBE129:
 1273              	.LBE128:
 151:Drivers/BSP/Components/st7789h2/st7789h2.c **** 
 1274              		.loc 1 151 3 is_stmt 1 view .LVU379
 1275 0026 7820     		movs	r0, #120
 1276 0028 FFF7FEFF 		bl	LCD_IO_Delay
 1277              	.LVL94:
 154:Drivers/BSP/Components/st7789h2/st7789h2.c ****   ST7789H2_WriteReg(ST7789H2_NORMAL_DISPLAY, parameter, 1);
 1278              		.loc 1 154 3 view .LVU380
 155:Drivers/BSP/Components/st7789h2/st7789h2.c ****  
 1279              		.loc 1 155 3 view .LVU381
 1280              	.LBB130:
 1281              	.LBI130:
 444:Drivers/BSP/Components/st7789h2/st7789h2.c **** {
ARM GAS  /var/folders/0z/tsy30v1j4xl4_7kw94k978ww0000gn/T//ccaz1ZPA.s 			page 41


 1282              		.loc 1 444 6 view .LVU382
 1283              	.LBB131:
 446:Drivers/BSP/Components/st7789h2/st7789h2.c **** 
 1284              		.loc 1 446 3 view .LVU383
 449:Drivers/BSP/Components/st7789h2/st7789h2.c ****   
 1285              		.loc 1 449 3 view .LVU384
 1286 002c 3620     		movs	r0, #54
 1287 002e FFF7FEFF 		bl	LCD_IO_WriteReg
 1288              	.LVL95:
 452:Drivers/BSP/Components/st7789h2/st7789h2.c ****   {
 1289              		.loc 1 452 3 view .LVU385
 452:Drivers/BSP/Components/st7789h2/st7789h2.c ****   {
 1290              		.loc 1 452 14 view .LVU386
 454:Drivers/BSP/Components/st7789h2/st7789h2.c ****   }
 1291              		.loc 1 454 5 view .LVU387
 1292 0032 0020     		movs	r0, #0
 1293 0034 FFF7FEFF 		bl	LCD_IO_WriteData
 1294              	.LVL96:
 452:Drivers/BSP/Components/st7789h2/st7789h2.c ****   {
 1295              		.loc 1 452 30 view .LVU388
 452:Drivers/BSP/Components/st7789h2/st7789h2.c ****   {
 1296              		.loc 1 452 14 view .LVU389
 452:Drivers/BSP/Components/st7789h2/st7789h2.c ****   {
 1297              		.loc 1 452 14 is_stmt 0 view .LVU390
 1298              	.LBE131:
 1299              	.LBE130:
 158:Drivers/BSP/Components/st7789h2/st7789h2.c ****   ST7789H2_WriteReg(ST7789H2_COLOR_MODE, parameter, 1);
 1300              		.loc 1 158 3 is_stmt 1 view .LVU391
 159:Drivers/BSP/Components/st7789h2/st7789h2.c ****   
 1301              		.loc 1 159 3 view .LVU392
 1302              	.LBB132:
 1303              	.LBI132:
 444:Drivers/BSP/Components/st7789h2/st7789h2.c **** {
 1304              		.loc 1 444 6 view .LVU393
 1305              	.LBB133:
 446:Drivers/BSP/Components/st7789h2/st7789h2.c **** 
 1306              		.loc 1 446 3 view .LVU394
 449:Drivers/BSP/Components/st7789h2/st7789h2.c ****   
 1307              		.loc 1 449 3 view .LVU395
 1308 0038 3A20     		movs	r0, #58
 1309 003a FFF7FEFF 		bl	LCD_IO_WriteReg
 1310              	.LVL97:
 452:Drivers/BSP/Components/st7789h2/st7789h2.c ****   {
 1311              		.loc 1 452 3 view .LVU396
 452:Drivers/BSP/Components/st7789h2/st7789h2.c ****   {
 1312              		.loc 1 452 14 view .LVU397
 454:Drivers/BSP/Components/st7789h2/st7789h2.c ****   }
 1313              		.loc 1 454 5 view .LVU398
 1314 003e 0520     		movs	r0, #5
 1315 0040 FFF7FEFF 		bl	LCD_IO_WriteData
 1316              	.LVL98:
 452:Drivers/BSP/Components/st7789h2/st7789h2.c ****   {
 1317              		.loc 1 452 30 view .LVU399
 452:Drivers/BSP/Components/st7789h2/st7789h2.c ****   {
 1318              		.loc 1 452 14 view .LVU400
 452:Drivers/BSP/Components/st7789h2/st7789h2.c ****   {
 1319              		.loc 1 452 14 is_stmt 0 view .LVU401
ARM GAS  /var/folders/0z/tsy30v1j4xl4_7kw94k978ww0000gn/T//ccaz1ZPA.s 			page 42


 1320              	.LBE133:
 1321              	.LBE132:
 162:Drivers/BSP/Components/st7789h2/st7789h2.c ****   
 1322              		.loc 1 162 3 is_stmt 1 view .LVU402
 1323              	.LBB134:
 1324              	.LBI134:
 444:Drivers/BSP/Components/st7789h2/st7789h2.c **** {
 1325              		.loc 1 444 6 view .LVU403
 1326              	.LBB135:
 446:Drivers/BSP/Components/st7789h2/st7789h2.c **** 
 1327              		.loc 1 446 3 view .LVU404
 449:Drivers/BSP/Components/st7789h2/st7789h2.c ****   
 1328              		.loc 1 449 3 view .LVU405
 1329 0044 2120     		movs	r0, #33
 1330 0046 FFF7FEFF 		bl	LCD_IO_WriteReg
 1331              	.LVL99:
 452:Drivers/BSP/Components/st7789h2/st7789h2.c ****   {
 1332              		.loc 1 452 3 view .LVU406
 452:Drivers/BSP/Components/st7789h2/st7789h2.c ****   {
 1333              		.loc 1 452 14 view .LVU407
 452:Drivers/BSP/Components/st7789h2/st7789h2.c ****   {
 1334              		.loc 1 452 14 is_stmt 0 view .LVU408
 1335              	.LBE135:
 1336              	.LBE134:
 165:Drivers/BSP/Components/st7789h2/st7789h2.c ****   parameter[1] = 0x00;
 1337              		.loc 1 165 3 is_stmt 1 view .LVU409
 166:Drivers/BSP/Components/st7789h2/st7789h2.c ****   parameter[2] = 0x00;
 1338              		.loc 1 166 3 view .LVU410
 167:Drivers/BSP/Components/st7789h2/st7789h2.c ****   parameter[3] = 0xEF;
 1339              		.loc 1 167 3 view .LVU411
 168:Drivers/BSP/Components/st7789h2/st7789h2.c ****   ST7789H2_WriteReg(ST7789H2_CASET, parameter, 4);
 1340              		.loc 1 168 3 view .LVU412
 1341 004a 0DF10105 		add	r5, sp, #1
 165:Drivers/BSP/Components/st7789h2/st7789h2.c ****   parameter[1] = 0x00;
 1342              		.loc 1 165 16 is_stmt 0 view .LVU413
 1343 004e 4FF06F43 		mov	r3, #-285212672
 1344              	.LBB136:
 1345              	.LBB137:
 449:Drivers/BSP/Components/st7789h2/st7789h2.c ****   
 1346              		.loc 1 449 3 view .LVU414
 1347 0052 2A20     		movs	r0, #42
 1348              	.LBE137:
 1349              	.LBE136:
 165:Drivers/BSP/Components/st7789h2/st7789h2.c ****   parameter[1] = 0x00;
 1350              		.loc 1 165 16 view .LVU415
 1351 0054 0093     		str	r3, [sp]
 169:Drivers/BSP/Components/st7789h2/st7789h2.c ****   /* Set Row address RASET */  
 1352              		.loc 1 169 3 is_stmt 1 view .LVU416
 1353              	.LVL100:
 1354              	.LBB139:
 1355              	.LBI136:
 444:Drivers/BSP/Components/st7789h2/st7789h2.c **** {
 1356              		.loc 1 444 6 view .LVU417
 1357              	.LBB138:
 446:Drivers/BSP/Components/st7789h2/st7789h2.c **** 
 1358              		.loc 1 446 3 view .LVU418
 449:Drivers/BSP/Components/st7789h2/st7789h2.c ****   
ARM GAS  /var/folders/0z/tsy30v1j4xl4_7kw94k978ww0000gn/T//ccaz1ZPA.s 			page 43


 1359              		.loc 1 449 3 view .LVU419
 1360 0056 01AE     		add	r6, sp, #4
 1361 0058 FFF7FEFF 		bl	LCD_IO_WriteReg
 1362              	.LVL101:
 452:Drivers/BSP/Components/st7789h2/st7789h2.c ****   {
 1363              		.loc 1 452 3 view .LVU420
 452:Drivers/BSP/Components/st7789h2/st7789h2.c ****   {
 1364              		.loc 1 452 14 view .LVU421
 449:Drivers/BSP/Components/st7789h2/st7789h2.c ****   
 1365              		.loc 1 449 3 is_stmt 0 view .LVU422
 1366 005c 2C46     		mov	r4, r5
 1367 005e 0020     		movs	r0, #0
 1368 0060 01E0     		b	.L74
 1369              	.LVL102:
 1370              	.L84:
 454:Drivers/BSP/Components/st7789h2/st7789h2.c ****   }
 1371              		.loc 1 454 32 view .LVU423
 1372 0062 14F8010B 		ldrb	r0, [r4], #1	@ zero_extendqisi2
 1373              	.LVL103:
 1374              	.L74:
 454:Drivers/BSP/Components/st7789h2/st7789h2.c ****   }
 1375              		.loc 1 454 5 is_stmt 1 view .LVU424
 1376 0066 FFF7FEFF 		bl	LCD_IO_WriteData
 1377              	.LVL104:
 452:Drivers/BSP/Components/st7789h2/st7789h2.c ****   {
 1378              		.loc 1 452 30 view .LVU425
 452:Drivers/BSP/Components/st7789h2/st7789h2.c ****   {
 1379              		.loc 1 452 14 view .LVU426
 1380 006a A642     		cmp	r6, r4
 1381 006c F9D1     		bne	.L84
 1382              	.LVL105:
 452:Drivers/BSP/Components/st7789h2/st7789h2.c ****   {
 1383              		.loc 1 452 14 is_stmt 0 view .LVU427
 1384              	.LBE138:
 1385              	.LBE139:
 171:Drivers/BSP/Components/st7789h2/st7789h2.c ****   parameter[1] = 0x00;
 1386              		.loc 1 171 3 is_stmt 1 view .LVU428
 172:Drivers/BSP/Components/st7789h2/st7789h2.c ****   parameter[2] = 0x00;
 1387              		.loc 1 172 3 view .LVU429
 173:Drivers/BSP/Components/st7789h2/st7789h2.c ****   parameter[3] = 0xEF;
 1388              		.loc 1 173 3 view .LVU430
 174:Drivers/BSP/Components/st7789h2/st7789h2.c ****   ST7789H2_WriteReg(ST7789H2_RASET, parameter, 4);
 1389              		.loc 1 174 3 view .LVU431
 175:Drivers/BSP/Components/st7789h2/st7789h2.c **** 
 1390              		.loc 1 175 3 view .LVU432
 1391              	.LBB140:
 1392              	.LBI140:
 444:Drivers/BSP/Components/st7789h2/st7789h2.c **** {
 1393              		.loc 1 444 6 view .LVU433
 1394              	.LBB141:
 446:Drivers/BSP/Components/st7789h2/st7789h2.c **** 
 1395              		.loc 1 446 3 view .LVU434
 449:Drivers/BSP/Components/st7789h2/st7789h2.c ****   
 1396              		.loc 1 449 3 view .LVU435
 1397 006e 2B20     		movs	r0, #43
 1398 0070 FFF7FEFF 		bl	LCD_IO_WriteReg
 1399              	.LVL106:
ARM GAS  /var/folders/0z/tsy30v1j4xl4_7kw94k978ww0000gn/T//ccaz1ZPA.s 			page 44


 452:Drivers/BSP/Components/st7789h2/st7789h2.c ****   {
 1400              		.loc 1 452 3 view .LVU436
 452:Drivers/BSP/Components/st7789h2/st7789h2.c ****   {
 1401              		.loc 1 452 14 view .LVU437
 449:Drivers/BSP/Components/st7789h2/st7789h2.c ****   
 1402              		.loc 1 449 3 is_stmt 0 view .LVU438
 1403 0074 2E46     		mov	r6, r5
 1404 0076 0020     		movs	r0, #0
 1405 0078 01E0     		b	.L76
 1406              	.LVL107:
 1407              	.L85:
 454:Drivers/BSP/Components/st7789h2/st7789h2.c ****   }
 1408              		.loc 1 454 32 view .LVU439
 1409 007a 16F8010B 		ldrb	r0, [r6], #1	@ zero_extendqisi2
 1410              	.LVL108:
 1411              	.L76:
 454:Drivers/BSP/Components/st7789h2/st7789h2.c ****   }
 1412              		.loc 1 454 5 is_stmt 1 view .LVU440
 1413 007e FFF7FEFF 		bl	LCD_IO_WriteData
 1414              	.LVL109:
 452:Drivers/BSP/Components/st7789h2/st7789h2.c ****   {
 1415              		.loc 1 452 30 view .LVU441
 452:Drivers/BSP/Components/st7789h2/st7789h2.c ****   {
 1416              		.loc 1 452 14 view .LVU442
 1417 0082 A642     		cmp	r6, r4
 1418 0084 F9D1     		bne	.L85
 1419              	.LVL110:
 452:Drivers/BSP/Components/st7789h2/st7789h2.c ****   {
 1420              		.loc 1 452 14 is_stmt 0 view .LVU443
 1421              	.LBE141:
 1422              	.LBE140:
 179:Drivers/BSP/Components/st7789h2/st7789h2.c ****   parameter[1] = 0x0C;
 1423              		.loc 1 179 3 is_stmt 1 view .LVU444
 180:Drivers/BSP/Components/st7789h2/st7789h2.c ****   parameter[2] = 0x00;
 1424              		.loc 1 180 3 view .LVU445
 182:Drivers/BSP/Components/st7789h2/st7789h2.c ****   parameter[4] = 0x33; 
 1425              		.loc 1 182 16 is_stmt 0 view .LVU446
 1426 0086 3323     		movs	r3, #51
 179:Drivers/BSP/Components/st7789h2/st7789h2.c ****   parameter[1] = 0x0C;
 1427              		.loc 1 179 16 view .LVU447
 1428 0088 40F60C42 		movw	r2, #3084
 1429              	.LBB142:
 1430              	.LBB143:
 449:Drivers/BSP/Components/st7789h2/st7789h2.c ****   
 1431              		.loc 1 449 3 view .LVU448
 1432 008c B220     		movs	r0, #178
 1433              	.LBE143:
 1434              	.LBE142:
 179:Drivers/BSP/Components/st7789h2/st7789h2.c ****   parameter[1] = 0x0C;
 1435              		.loc 1 179 16 view .LVU449
 1436 008e ADF80020 		strh	r2, [sp]	@ movhi
 181:Drivers/BSP/Components/st7789h2/st7789h2.c ****   parameter[3] = 0x33;
 1437              		.loc 1 181 3 is_stmt 1 view .LVU450
 182:Drivers/BSP/Components/st7789h2/st7789h2.c ****   parameter[4] = 0x33; 
 1438              		.loc 1 182 3 view .LVU451
 182:Drivers/BSP/Components/st7789h2/st7789h2.c ****   parameter[4] = 0x33; 
 1439              		.loc 1 182 16 is_stmt 0 view .LVU452
ARM GAS  /var/folders/0z/tsy30v1j4xl4_7kw94k978ww0000gn/T//ccaz1ZPA.s 			page 45


 1440 0092 8DF80330 		strb	r3, [sp, #3]
 183:Drivers/BSP/Components/st7789h2/st7789h2.c ****   ST7789H2_WriteReg(ST7789H2_PORCH_CTRL, parameter, 5);
 1441              		.loc 1 183 3 is_stmt 1 view .LVU453
 183:Drivers/BSP/Components/st7789h2/st7789h2.c ****   ST7789H2_WriteReg(ST7789H2_PORCH_CTRL, parameter, 5);
 1442              		.loc 1 183 16 is_stmt 0 view .LVU454
 1443 0096 8DF80430 		strb	r3, [sp, #4]
 184:Drivers/BSP/Components/st7789h2/st7789h2.c ****   
 1444              		.loc 1 184 3 is_stmt 1 view .LVU455
 1445              	.LVL111:
 1446              	.LBB145:
 1447              	.LBI142:
 444:Drivers/BSP/Components/st7789h2/st7789h2.c **** {
 1448              		.loc 1 444 6 view .LVU456
 1449              	.LBB144:
 446:Drivers/BSP/Components/st7789h2/st7789h2.c **** 
 1450              		.loc 1 446 3 view .LVU457
 449:Drivers/BSP/Components/st7789h2/st7789h2.c ****   
 1451              		.loc 1 449 3 view .LVU458
 1452 009a 0DF10506 		add	r6, sp, #5
 1453 009e FFF7FEFF 		bl	LCD_IO_WriteReg
 1454              	.LVL112:
 452:Drivers/BSP/Components/st7789h2/st7789h2.c ****   {
 1455              		.loc 1 452 3 view .LVU459
 452:Drivers/BSP/Components/st7789h2/st7789h2.c ****   {
 1456              		.loc 1 452 14 view .LVU460
 449:Drivers/BSP/Components/st7789h2/st7789h2.c ****   
 1457              		.loc 1 449 3 is_stmt 0 view .LVU461
 1458 00a2 2C46     		mov	r4, r5
 1459 00a4 0C20     		movs	r0, #12
 1460 00a6 01E0     		b	.L78
 1461              	.LVL113:
 1462              	.L86:
 454:Drivers/BSP/Components/st7789h2/st7789h2.c ****   }
 1463              		.loc 1 454 32 view .LVU462
 1464 00a8 14F8010B 		ldrb	r0, [r4], #1	@ zero_extendqisi2
 1465              	.LVL114:
 1466              	.L78:
 454:Drivers/BSP/Components/st7789h2/st7789h2.c ****   }
 1467              		.loc 1 454 5 is_stmt 1 view .LVU463
 1468 00ac FFF7FEFF 		bl	LCD_IO_WriteData
 1469              	.LVL115:
 452:Drivers/BSP/Components/st7789h2/st7789h2.c ****   {
 1470              		.loc 1 452 30 view .LVU464
 452:Drivers/BSP/Components/st7789h2/st7789h2.c ****   {
 1471              		.loc 1 452 14 view .LVU465
 1472 00b0 B442     		cmp	r4, r6
 1473 00b2 F9D1     		bne	.L86
 1474              	.LVL116:
 452:Drivers/BSP/Components/st7789h2/st7789h2.c ****   {
 1475              		.loc 1 452 14 is_stmt 0 view .LVU466
 1476              	.LBE144:
 1477              	.LBE145:
 187:Drivers/BSP/Components/st7789h2/st7789h2.c ****   ST7789H2_WriteReg(ST7789H2_GATE_CTRL, parameter, 1);
 1478              		.loc 1 187 3 is_stmt 1 view .LVU467
 188:Drivers/BSP/Components/st7789h2/st7789h2.c ****   
 1479              		.loc 1 188 3 view .LVU468
 1480              	.LBB146:
ARM GAS  /var/folders/0z/tsy30v1j4xl4_7kw94k978ww0000gn/T//ccaz1ZPA.s 			page 46


 1481              	.LBI146:
 444:Drivers/BSP/Components/st7789h2/st7789h2.c **** {
 1482              		.loc 1 444 6 view .LVU469
 1483              	.LBB147:
 446:Drivers/BSP/Components/st7789h2/st7789h2.c **** 
 1484              		.loc 1 446 3 view .LVU470
 449:Drivers/BSP/Components/st7789h2/st7789h2.c ****   
 1485              		.loc 1 449 3 view .LVU471
 1486 00b4 B720     		movs	r0, #183
 1487 00b6 FFF7FEFF 		bl	LCD_IO_WriteReg
 1488              	.LVL117:
 452:Drivers/BSP/Components/st7789h2/st7789h2.c ****   {
 1489              		.loc 1 452 3 view .LVU472
 452:Drivers/BSP/Components/st7789h2/st7789h2.c ****   {
 1490              		.loc 1 452 14 view .LVU473
 454:Drivers/BSP/Components/st7789h2/st7789h2.c ****   }
 1491              		.loc 1 454 5 view .LVU474
 1492 00ba 3520     		movs	r0, #53
 1493 00bc FFF7FEFF 		bl	LCD_IO_WriteData
 1494              	.LVL118:
 452:Drivers/BSP/Components/st7789h2/st7789h2.c ****   {
 1495              		.loc 1 452 30 view .LVU475
 452:Drivers/BSP/Components/st7789h2/st7789h2.c ****   {
 1496              		.loc 1 452 14 view .LVU476
 452:Drivers/BSP/Components/st7789h2/st7789h2.c ****   {
 1497              		.loc 1 452 14 is_stmt 0 view .LVU477
 1498              	.LBE147:
 1499              	.LBE146:
 192:Drivers/BSP/Components/st7789h2/st7789h2.c ****   ST7789H2_WriteReg(ST7789H2_VCOM_SET, parameter, 1); 
 1500              		.loc 1 192 3 is_stmt 1 view .LVU478
 193:Drivers/BSP/Components/st7789h2/st7789h2.c ****   
 1501              		.loc 1 193 3 view .LVU479
 1502              	.LBB148:
 1503              	.LBI148:
 444:Drivers/BSP/Components/st7789h2/st7789h2.c **** {
 1504              		.loc 1 444 6 view .LVU480
 1505              	.LBB149:
 446:Drivers/BSP/Components/st7789h2/st7789h2.c **** 
 1506              		.loc 1 446 3 view .LVU481
 449:Drivers/BSP/Components/st7789h2/st7789h2.c ****   
 1507              		.loc 1 449 3 view .LVU482
 1508 00c0 BB20     		movs	r0, #187
 1509 00c2 FFF7FEFF 		bl	LCD_IO_WriteReg
 1510              	.LVL119:
 452:Drivers/BSP/Components/st7789h2/st7789h2.c ****   {
 1511              		.loc 1 452 3 view .LVU483
 452:Drivers/BSP/Components/st7789h2/st7789h2.c ****   {
 1512              		.loc 1 452 14 view .LVU484
 454:Drivers/BSP/Components/st7789h2/st7789h2.c ****   }
 1513              		.loc 1 454 5 view .LVU485
 1514 00c6 1F20     		movs	r0, #31
 1515 00c8 FFF7FEFF 		bl	LCD_IO_WriteData
 1516              	.LVL120:
 452:Drivers/BSP/Components/st7789h2/st7789h2.c ****   {
 1517              		.loc 1 452 30 view .LVU486
 452:Drivers/BSP/Components/st7789h2/st7789h2.c ****   {
 1518              		.loc 1 452 14 view .LVU487
ARM GAS  /var/folders/0z/tsy30v1j4xl4_7kw94k978ww0000gn/T//ccaz1ZPA.s 			page 47


 452:Drivers/BSP/Components/st7789h2/st7789h2.c ****   {
 1519              		.loc 1 452 14 is_stmt 0 view .LVU488
 1520              	.LBE149:
 1521              	.LBE148:
 196:Drivers/BSP/Components/st7789h2/st7789h2.c ****   ST7789H2_WriteReg(ST7789H2_LCM_CTRL, parameter, 1);
 1522              		.loc 1 196 3 is_stmt 1 view .LVU489
 197:Drivers/BSP/Components/st7789h2/st7789h2.c ****   
 1523              		.loc 1 197 3 view .LVU490
 1524              	.LBB150:
 1525              	.LBI150:
 444:Drivers/BSP/Components/st7789h2/st7789h2.c **** {
 1526              		.loc 1 444 6 view .LVU491
 1527              	.LBB151:
 446:Drivers/BSP/Components/st7789h2/st7789h2.c **** 
 1528              		.loc 1 446 3 view .LVU492
 449:Drivers/BSP/Components/st7789h2/st7789h2.c ****   
 1529              		.loc 1 449 3 view .LVU493
 1530 00cc C020     		movs	r0, #192
 1531 00ce FFF7FEFF 		bl	LCD_IO_WriteReg
 1532              	.LVL121:
 452:Drivers/BSP/Components/st7789h2/st7789h2.c ****   {
 1533              		.loc 1 452 3 view .LVU494
 452:Drivers/BSP/Components/st7789h2/st7789h2.c ****   {
 1534              		.loc 1 452 14 view .LVU495
 454:Drivers/BSP/Components/st7789h2/st7789h2.c ****   }
 1535              		.loc 1 454 5 view .LVU496
 1536 00d2 2C20     		movs	r0, #44
 1537 00d4 FFF7FEFF 		bl	LCD_IO_WriteData
 1538              	.LVL122:
 452:Drivers/BSP/Components/st7789h2/st7789h2.c ****   {
 1539              		.loc 1 452 30 view .LVU497
 452:Drivers/BSP/Components/st7789h2/st7789h2.c ****   {
 1540              		.loc 1 452 14 view .LVU498
 452:Drivers/BSP/Components/st7789h2/st7789h2.c ****   {
 1541              		.loc 1 452 14 is_stmt 0 view .LVU499
 1542              	.LBE151:
 1543              	.LBE150:
 200:Drivers/BSP/Components/st7789h2/st7789h2.c ****   parameter[1] = 0xC3;
 1544              		.loc 1 200 3 is_stmt 1 view .LVU500
 201:Drivers/BSP/Components/st7789h2/st7789h2.c ****   ST7789H2_WriteReg(ST7789H2_VDV_VRH_EN, parameter, 2);
 1545              		.loc 1 201 3 view .LVU501
 202:Drivers/BSP/Components/st7789h2/st7789h2.c ****   
 1546              		.loc 1 202 3 view .LVU502
 1547              	.LBB152:
 1548              	.LBI152:
 444:Drivers/BSP/Components/st7789h2/st7789h2.c **** {
 1549              		.loc 1 444 6 view .LVU503
 1550              	.LBB153:
 446:Drivers/BSP/Components/st7789h2/st7789h2.c **** 
 1551              		.loc 1 446 3 view .LVU504
 449:Drivers/BSP/Components/st7789h2/st7789h2.c ****   
 1552              		.loc 1 449 3 view .LVU505
 1553 00d8 C220     		movs	r0, #194
 1554 00da FFF7FEFF 		bl	LCD_IO_WriteReg
 1555              	.LVL123:
 452:Drivers/BSP/Components/st7789h2/st7789h2.c ****   {
 1556              		.loc 1 452 3 view .LVU506
ARM GAS  /var/folders/0z/tsy30v1j4xl4_7kw94k978ww0000gn/T//ccaz1ZPA.s 			page 48


 452:Drivers/BSP/Components/st7789h2/st7789h2.c ****   {
 1557              		.loc 1 452 14 view .LVU507
 454:Drivers/BSP/Components/st7789h2/st7789h2.c ****   }
 1558              		.loc 1 454 5 view .LVU508
 1559 00de 0120     		movs	r0, #1
 1560 00e0 FFF7FEFF 		bl	LCD_IO_WriteData
 1561              	.LVL124:
 452:Drivers/BSP/Components/st7789h2/st7789h2.c ****   {
 1562              		.loc 1 452 30 view .LVU509
 452:Drivers/BSP/Components/st7789h2/st7789h2.c ****   {
 1563              		.loc 1 452 14 view .LVU510
 454:Drivers/BSP/Components/st7789h2/st7789h2.c ****   }
 1564              		.loc 1 454 5 view .LVU511
 1565 00e4 C320     		movs	r0, #195
 1566 00e6 FFF7FEFF 		bl	LCD_IO_WriteData
 1567              	.LVL125:
 452:Drivers/BSP/Components/st7789h2/st7789h2.c ****   {
 1568              		.loc 1 452 30 view .LVU512
 452:Drivers/BSP/Components/st7789h2/st7789h2.c ****   {
 1569              		.loc 1 452 14 view .LVU513
 452:Drivers/BSP/Components/st7789h2/st7789h2.c ****   {
 1570              		.loc 1 452 14 is_stmt 0 view .LVU514
 1571              	.LBE153:
 1572              	.LBE152:
 205:Drivers/BSP/Components/st7789h2/st7789h2.c ****   ST7789H2_WriteReg(ST7789H2_VDV_SET, parameter, 1); 
 1573              		.loc 1 205 3 is_stmt 1 view .LVU515
 206:Drivers/BSP/Components/st7789h2/st7789h2.c ****   
 1574              		.loc 1 206 3 view .LVU516
 1575              	.LBB154:
 1576              	.LBI154:
 444:Drivers/BSP/Components/st7789h2/st7789h2.c **** {
 1577              		.loc 1 444 6 view .LVU517
 1578              	.LBB155:
 446:Drivers/BSP/Components/st7789h2/st7789h2.c **** 
 1579              		.loc 1 446 3 view .LVU518
 449:Drivers/BSP/Components/st7789h2/st7789h2.c ****   
 1580              		.loc 1 449 3 view .LVU519
 1581 00ea C420     		movs	r0, #196
 1582 00ec FFF7FEFF 		bl	LCD_IO_WriteReg
 1583              	.LVL126:
 452:Drivers/BSP/Components/st7789h2/st7789h2.c ****   {
 1584              		.loc 1 452 3 view .LVU520
 452:Drivers/BSP/Components/st7789h2/st7789h2.c ****   {
 1585              		.loc 1 452 14 view .LVU521
 454:Drivers/BSP/Components/st7789h2/st7789h2.c ****   }
 1586              		.loc 1 454 5 view .LVU522
 1587 00f0 2020     		movs	r0, #32
 1588 00f2 FFF7FEFF 		bl	LCD_IO_WriteData
 1589              	.LVL127:
 452:Drivers/BSP/Components/st7789h2/st7789h2.c ****   {
 1590              		.loc 1 452 30 view .LVU523
 452:Drivers/BSP/Components/st7789h2/st7789h2.c ****   {
 1591              		.loc 1 452 14 view .LVU524
 452:Drivers/BSP/Components/st7789h2/st7789h2.c ****   {
 1592              		.loc 1 452 14 is_stmt 0 view .LVU525
 1593              	.LBE155:
 1594              	.LBE154:
ARM GAS  /var/folders/0z/tsy30v1j4xl4_7kw94k978ww0000gn/T//ccaz1ZPA.s 			page 49


 209:Drivers/BSP/Components/st7789h2/st7789h2.c ****   ST7789H2_WriteReg(ST7789H2_FR_CTRL, parameter, 1); 
 1595              		.loc 1 209 3 is_stmt 1 view .LVU526
 210:Drivers/BSP/Components/st7789h2/st7789h2.c ****   
 1596              		.loc 1 210 3 view .LVU527
 1597              	.LBB156:
 1598              	.LBI156:
 444:Drivers/BSP/Components/st7789h2/st7789h2.c **** {
 1599              		.loc 1 444 6 view .LVU528
 1600              	.LBB157:
 446:Drivers/BSP/Components/st7789h2/st7789h2.c **** 
 1601              		.loc 1 446 3 view .LVU529
 449:Drivers/BSP/Components/st7789h2/st7789h2.c ****   
 1602              		.loc 1 449 3 view .LVU530
 1603 00f6 C620     		movs	r0, #198
 1604 00f8 FFF7FEFF 		bl	LCD_IO_WriteReg
 1605              	.LVL128:
 452:Drivers/BSP/Components/st7789h2/st7789h2.c ****   {
 1606              		.loc 1 452 3 view .LVU531
 452:Drivers/BSP/Components/st7789h2/st7789h2.c ****   {
 1607              		.loc 1 452 14 view .LVU532
 454:Drivers/BSP/Components/st7789h2/st7789h2.c ****   }
 1608              		.loc 1 454 5 view .LVU533
 1609 00fc 0F20     		movs	r0, #15
 1610 00fe FFF7FEFF 		bl	LCD_IO_WriteData
 1611              	.LVL129:
 452:Drivers/BSP/Components/st7789h2/st7789h2.c ****   {
 1612              		.loc 1 452 30 view .LVU534
 452:Drivers/BSP/Components/st7789h2/st7789h2.c ****   {
 1613              		.loc 1 452 14 view .LVU535
 452:Drivers/BSP/Components/st7789h2/st7789h2.c ****   {
 1614              		.loc 1 452 14 is_stmt 0 view .LVU536
 1615              	.LBE157:
 1616              	.LBE156:
 213:Drivers/BSP/Components/st7789h2/st7789h2.c ****   parameter[1] = 0xA1;
 1617              		.loc 1 213 3 is_stmt 1 view .LVU537
 214:Drivers/BSP/Components/st7789h2/st7789h2.c ****   ST7789H2_WriteReg(ST7789H2_POWER_CTRL, parameter, 1); 
 1618              		.loc 1 214 3 view .LVU538
 215:Drivers/BSP/Components/st7789h2/st7789h2.c ****   
 1619              		.loc 1 215 3 view .LVU539
 1620              	.LBB158:
 1621              	.LBI158:
 444:Drivers/BSP/Components/st7789h2/st7789h2.c **** {
 1622              		.loc 1 444 6 view .LVU540
 1623              	.LBB159:
 446:Drivers/BSP/Components/st7789h2/st7789h2.c **** 
 1624              		.loc 1 446 3 view .LVU541
 449:Drivers/BSP/Components/st7789h2/st7789h2.c ****   
 1625              		.loc 1 449 3 view .LVU542
 1626 0102 D020     		movs	r0, #208
 1627 0104 FFF7FEFF 		bl	LCD_IO_WriteReg
 1628              	.LVL130:
 452:Drivers/BSP/Components/st7789h2/st7789h2.c ****   {
 1629              		.loc 1 452 3 view .LVU543
 452:Drivers/BSP/Components/st7789h2/st7789h2.c ****   {
 1630              		.loc 1 452 14 view .LVU544
 454:Drivers/BSP/Components/st7789h2/st7789h2.c ****   }
 1631              		.loc 1 454 5 view .LVU545
ARM GAS  /var/folders/0z/tsy30v1j4xl4_7kw94k978ww0000gn/T//ccaz1ZPA.s 			page 50


 1632 0108 A420     		movs	r0, #164
 1633 010a FFF7FEFF 		bl	LCD_IO_WriteData
 1634              	.LVL131:
 452:Drivers/BSP/Components/st7789h2/st7789h2.c ****   {
 1635              		.loc 1 452 30 view .LVU546
 452:Drivers/BSP/Components/st7789h2/st7789h2.c ****   {
 1636              		.loc 1 452 14 view .LVU547
 452:Drivers/BSP/Components/st7789h2/st7789h2.c ****   {
 1637              		.loc 1 452 14 is_stmt 0 view .LVU548
 1638              	.LBE159:
 1639              	.LBE158:
 219:Drivers/BSP/Components/st7789h2/st7789h2.c ****   parameter[1] = 0x08;
 1640              		.loc 1 219 3 is_stmt 1 view .LVU549
 220:Drivers/BSP/Components/st7789h2/st7789h2.c ****   parameter[2] = 0x11;
 1641              		.loc 1 220 3 view .LVU550
 221:Drivers/BSP/Components/st7789h2/st7789h2.c ****   parameter[3] = 0x08;
 1642              		.loc 1 221 3 view .LVU551
 222:Drivers/BSP/Components/st7789h2/st7789h2.c ****   parameter[4] = 0x0C;
 1643              		.loc 1 222 3 view .LVU552
 223:Drivers/BSP/Components/st7789h2/st7789h2.c ****   parameter[5] = 0x15;
 1644              		.loc 1 223 3 view .LVU553
 224:Drivers/BSP/Components/st7789h2/st7789h2.c ****   parameter[6] = 0x39;
 1645              		.loc 1 224 3 view .LVU554
 225:Drivers/BSP/Components/st7789h2/st7789h2.c ****   parameter[7] = 0x33;
 1646              		.loc 1 225 3 view .LVU555
 226:Drivers/BSP/Components/st7789h2/st7789h2.c ****   parameter[8] = 0x50;
 1647              		.loc 1 226 3 view .LVU556
 227:Drivers/BSP/Components/st7789h2/st7789h2.c ****   parameter[9] = 0x36;
 1648              		.loc 1 227 3 view .LVU557
 228:Drivers/BSP/Components/st7789h2/st7789h2.c ****   parameter[10] = 0x13;
 1649              		.loc 1 228 3 view .LVU558
 229:Drivers/BSP/Components/st7789h2/st7789h2.c ****   parameter[11] = 0x14;
 1650              		.loc 1 229 3 view .LVU559
 230:Drivers/BSP/Components/st7789h2/st7789h2.c ****   parameter[12] = 0x29;
 1651              		.loc 1 230 3 view .LVU560
 231:Drivers/BSP/Components/st7789h2/st7789h2.c ****   parameter[13] = 0x2D;
 1652              		.loc 1 231 3 view .LVU561
 232:Drivers/BSP/Components/st7789h2/st7789h2.c ****   ST7789H2_WriteReg(ST7789H2_PV_GAMMA_CTRL, parameter, 14); 
 1653              		.loc 1 232 3 view .LVU562
 219:Drivers/BSP/Components/st7789h2/st7789h2.c ****   parameter[1] = 0x08;
 1654              		.loc 1 219 16 is_stmt 0 view .LVU563
 1655 010e 2349     		ldr	r1, .L89
 223:Drivers/BSP/Components/st7789h2/st7789h2.c ****   parameter[5] = 0x15;
 1656              		.loc 1 223 16 view .LVU564
 1657 0110 234B     		ldr	r3, .L89+4
 227:Drivers/BSP/Components/st7789h2/st7789h2.c ****   parameter[9] = 0x36;
 1658              		.loc 1 227 16 view .LVU565
 1659 0112 244A     		ldr	r2, .L89+8
 1660 0114 0292     		str	r2, [sp, #8]
 223:Drivers/BSP/Components/st7789h2/st7789h2.c ****   parameter[5] = 0x15;
 1661              		.loc 1 223 16 view .LVU566
 1662 0116 CDE90013 		strd	r1, r3, [sp]
 1663              	.LBB160:
 1664              	.LBB161:
 449:Drivers/BSP/Components/st7789h2/st7789h2.c ****   
 1665              		.loc 1 449 3 view .LVU567
 1666 011a E020     		movs	r0, #224
ARM GAS  /var/folders/0z/tsy30v1j4xl4_7kw94k978ww0000gn/T//ccaz1ZPA.s 			page 51


 1667              	.LBE161:
 1668              	.LBE160:
 231:Drivers/BSP/Components/st7789h2/st7789h2.c ****   parameter[13] = 0x2D;
 1669              		.loc 1 231 17 view .LVU568
 1670 011c 42F62953 		movw	r3, #11561
 1671 0120 ADF80C30 		strh	r3, [sp, #12]	@ movhi
 233:Drivers/BSP/Components/st7789h2/st7789h2.c ****   
 1672              		.loc 1 233 3 is_stmt 1 view .LVU569
 1673              	.LVL132:
 1674              	.LBB163:
 1675              	.LBI160:
 444:Drivers/BSP/Components/st7789h2/st7789h2.c **** {
 1676              		.loc 1 444 6 view .LVU570
 1677              	.LBB162:
 446:Drivers/BSP/Components/st7789h2/st7789h2.c **** 
 1678              		.loc 1 446 3 view .LVU571
 449:Drivers/BSP/Components/st7789h2/st7789h2.c ****   
 1679              		.loc 1 449 3 view .LVU572
 1680 0124 0DF10E06 		add	r6, sp, #14
 1681 0128 FFF7FEFF 		bl	LCD_IO_WriteReg
 1682              	.LVL133:
 452:Drivers/BSP/Components/st7789h2/st7789h2.c ****   {
 1683              		.loc 1 452 3 view .LVU573
 452:Drivers/BSP/Components/st7789h2/st7789h2.c ****   {
 1684              		.loc 1 452 14 view .LVU574
 449:Drivers/BSP/Components/st7789h2/st7789h2.c ****   
 1685              		.loc 1 449 3 is_stmt 0 view .LVU575
 1686 012c 2C46     		mov	r4, r5
 1687 012e D020     		movs	r0, #208
 1688 0130 01E0     		b	.L80
 1689              	.LVL134:
 1690              	.L87:
 454:Drivers/BSP/Components/st7789h2/st7789h2.c ****   }
 1691              		.loc 1 454 32 view .LVU576
 1692 0132 14F8010B 		ldrb	r0, [r4], #1	@ zero_extendqisi2
 1693              	.LVL135:
 1694              	.L80:
 454:Drivers/BSP/Components/st7789h2/st7789h2.c ****   }
 1695              		.loc 1 454 5 is_stmt 1 view .LVU577
 1696 0136 FFF7FEFF 		bl	LCD_IO_WriteData
 1697              	.LVL136:
 452:Drivers/BSP/Components/st7789h2/st7789h2.c ****   {
 1698              		.loc 1 452 30 view .LVU578
 452:Drivers/BSP/Components/st7789h2/st7789h2.c ****   {
 1699              		.loc 1 452 14 view .LVU579
 1700 013a A642     		cmp	r6, r4
 1701 013c F9D1     		bne	.L87
 1702              	.LVL137:
 452:Drivers/BSP/Components/st7789h2/st7789h2.c ****   {
 1703              		.loc 1 452 14 is_stmt 0 view .LVU580
 1704              	.LBE162:
 1705              	.LBE163:
 236:Drivers/BSP/Components/st7789h2/st7789h2.c ****   parameter[1] = 0x08;
 1706              		.loc 1 236 3 is_stmt 1 view .LVU581
 237:Drivers/BSP/Components/st7789h2/st7789h2.c ****   parameter[2] = 0x10;
 1707              		.loc 1 237 3 view .LVU582
 238:Drivers/BSP/Components/st7789h2/st7789h2.c ****   parameter[3] = 0x08;
ARM GAS  /var/folders/0z/tsy30v1j4xl4_7kw94k978ww0000gn/T//ccaz1ZPA.s 			page 52


 1708              		.loc 1 238 3 view .LVU583
 240:Drivers/BSP/Components/st7789h2/st7789h2.c ****   parameter[5] = 0x06;
 1709              		.loc 1 240 16 is_stmt 0 view .LVU584
 1710 013e 40F20663 		movw	r3, #1542
 238:Drivers/BSP/Components/st7789h2/st7789h2.c ****   parameter[3] = 0x08;
 1711              		.loc 1 238 16 view .LVU585
 1712 0142 1022     		movs	r2, #16
 240:Drivers/BSP/Components/st7789h2/st7789h2.c ****   parameter[5] = 0x06;
 1713              		.loc 1 240 16 view .LVU586
 1714 0144 ADF80430 		strh	r3, [sp, #4]	@ movhi
 244:Drivers/BSP/Components/st7789h2/st7789h2.c ****   parameter[9] = 0x0B;
 1715              		.loc 1 244 16 view .LVU587
 1716 0148 40F65133 		movw	r3, #2897
 243:Drivers/BSP/Components/st7789h2/st7789h2.c ****   parameter[8] = 0x51;
 1717              		.loc 1 243 16 view .LVU588
 1718 014c 4421     		movs	r1, #68
 238:Drivers/BSP/Components/st7789h2/st7789h2.c ****   parameter[3] = 0x08;
 1719              		.loc 1 238 16 view .LVU589
 1720 014e 8DF80220 		strb	r2, [sp, #2]
 239:Drivers/BSP/Components/st7789h2/st7789h2.c ****   parameter[4] = 0x06;
 1721              		.loc 1 239 3 is_stmt 1 view .LVU590
 240:Drivers/BSP/Components/st7789h2/st7789h2.c ****   parameter[5] = 0x06;
 1722              		.loc 1 240 3 view .LVU591
 241:Drivers/BSP/Components/st7789h2/st7789h2.c ****   parameter[6] = 0x39;
 1723              		.loc 1 241 3 view .LVU592
 242:Drivers/BSP/Components/st7789h2/st7789h2.c ****   parameter[7] = 0x44;
 1724              		.loc 1 242 3 view .LVU593
 243:Drivers/BSP/Components/st7789h2/st7789h2.c ****   parameter[8] = 0x51;
 1725              		.loc 1 243 3 view .LVU594
 244:Drivers/BSP/Components/st7789h2/st7789h2.c ****   parameter[9] = 0x0B;
 1726              		.loc 1 244 3 view .LVU595
 245:Drivers/BSP/Components/st7789h2/st7789h2.c ****   parameter[10] = 0x16;
 1727              		.loc 1 245 3 view .LVU596
 246:Drivers/BSP/Components/st7789h2/st7789h2.c ****   parameter[11] = 0x14;
 1728              		.loc 1 246 3 view .LVU597
 244:Drivers/BSP/Components/st7789h2/st7789h2.c ****   parameter[9] = 0x0B;
 1729              		.loc 1 244 16 is_stmt 0 view .LVU598
 1730 0152 ADF80830 		strh	r3, [sp, #8]	@ movhi
 246:Drivers/BSP/Components/st7789h2/st7789h2.c ****   parameter[11] = 0x14;
 1731              		.loc 1 246 17 view .LVU599
 1732 0156 1622     		movs	r2, #22
 248:Drivers/BSP/Components/st7789h2/st7789h2.c ****   parameter[13] = 0x31;
 1733              		.loc 1 248 17 view .LVU600
 1734 0158 43F22F13 		movw	r3, #12591
 1735              	.LBB164:
 1736              	.LBB165:
 449:Drivers/BSP/Components/st7789h2/st7789h2.c ****   
 1737              		.loc 1 449 3 view .LVU601
 1738 015c E120     		movs	r0, #225
 1739              	.LBE165:
 1740              	.LBE164:
 243:Drivers/BSP/Components/st7789h2/st7789h2.c ****   parameter[8] = 0x51;
 1741              		.loc 1 243 16 view .LVU602
 1742 015e 8DF80710 		strb	r1, [sp, #7]
 246:Drivers/BSP/Components/st7789h2/st7789h2.c ****   parameter[11] = 0x14;
 1743              		.loc 1 246 17 view .LVU603
 1744 0162 8DF80A20 		strb	r2, [sp, #10]
ARM GAS  /var/folders/0z/tsy30v1j4xl4_7kw94k978ww0000gn/T//ccaz1ZPA.s 			page 53


 247:Drivers/BSP/Components/st7789h2/st7789h2.c ****   parameter[12] = 0x2F;
 1745              		.loc 1 247 3 is_stmt 1 view .LVU604
 248:Drivers/BSP/Components/st7789h2/st7789h2.c ****   parameter[13] = 0x31;
 1746              		.loc 1 248 3 view .LVU605
 249:Drivers/BSP/Components/st7789h2/st7789h2.c ****   ST7789H2_WriteReg(ST7789H2_NV_GAMMA_CTRL, parameter, 14); 
 1747              		.loc 1 249 3 view .LVU606
 248:Drivers/BSP/Components/st7789h2/st7789h2.c ****   parameter[13] = 0x31;
 1748              		.loc 1 248 17 is_stmt 0 view .LVU607
 1749 0166 ADF80C30 		strh	r3, [sp, #12]	@ movhi
 250:Drivers/BSP/Components/st7789h2/st7789h2.c ****   
 1750              		.loc 1 250 3 is_stmt 1 view .LVU608
 1751              	.LVL138:
 1752              	.LBB167:
 1753              	.LBI164:
 444:Drivers/BSP/Components/st7789h2/st7789h2.c **** {
 1754              		.loc 1 444 6 view .LVU609
 1755              	.LBB166:
 446:Drivers/BSP/Components/st7789h2/st7789h2.c **** 
 1756              		.loc 1 446 3 view .LVU610
 449:Drivers/BSP/Components/st7789h2/st7789h2.c ****   
 1757              		.loc 1 449 3 view .LVU611
 1758 016a FFF7FEFF 		bl	LCD_IO_WriteReg
 1759              	.LVL139:
 452:Drivers/BSP/Components/st7789h2/st7789h2.c ****   {
 1760              		.loc 1 452 3 view .LVU612
 452:Drivers/BSP/Components/st7789h2/st7789h2.c ****   {
 1761              		.loc 1 452 14 view .LVU613
 449:Drivers/BSP/Components/st7789h2/st7789h2.c ****   
 1762              		.loc 1 449 3 is_stmt 0 view .LVU614
 1763 016e D020     		movs	r0, #208
 1764 0170 01E0     		b	.L82
 1765              	.LVL140:
 1766              	.L88:
 454:Drivers/BSP/Components/st7789h2/st7789h2.c ****   }
 1767              		.loc 1 454 32 view .LVU615
 1768 0172 15F8010B 		ldrb	r0, [r5], #1	@ zero_extendqisi2
 1769              	.LVL141:
 1770              	.L82:
 454:Drivers/BSP/Components/st7789h2/st7789h2.c ****   }
 1771              		.loc 1 454 5 is_stmt 1 view .LVU616
 1772 0176 FFF7FEFF 		bl	LCD_IO_WriteData
 1773              	.LVL142:
 452:Drivers/BSP/Components/st7789h2/st7789h2.c ****   {
 1774              		.loc 1 452 30 view .LVU617
 452:Drivers/BSP/Components/st7789h2/st7789h2.c ****   {
 1775              		.loc 1 452 14 view .LVU618
 1776 017a AC42     		cmp	r4, r5
 1777 017c F9D1     		bne	.L88
 1778              	.LVL143:
 452:Drivers/BSP/Components/st7789h2/st7789h2.c ****   {
 1779              		.loc 1 452 14 is_stmt 0 view .LVU619
 1780              	.LBE166:
 1781              	.LBE167:
 253:Drivers/BSP/Components/st7789h2/st7789h2.c ****   
 1782              		.loc 1 253 3 is_stmt 1 view .LVU620
 1783              	.LBB168:
 1784              	.LBI168:
ARM GAS  /var/folders/0z/tsy30v1j4xl4_7kw94k978ww0000gn/T//ccaz1ZPA.s 			page 54


 309:Drivers/BSP/Components/st7789h2/st7789h2.c **** {
 1785              		.loc 1 309 6 view .LVU621
 312:Drivers/BSP/Components/st7789h2/st7789h2.c **** 
 1786              		.loc 1 312 3 view .LVU622
 1787              	.LBB169:
 1788              	.LBI169:
 444:Drivers/BSP/Components/st7789h2/st7789h2.c **** {
 1789              		.loc 1 444 6 view .LVU623
 1790              	.LBB170:
 446:Drivers/BSP/Components/st7789h2/st7789h2.c **** 
 1791              		.loc 1 446 3 view .LVU624
 449:Drivers/BSP/Components/st7789h2/st7789h2.c ****   
 1792              		.loc 1 449 3 view .LVU625
 1793 017e 2920     		movs	r0, #41
 1794 0180 FFF7FEFF 		bl	LCD_IO_WriteReg
 1795              	.LVL144:
 452:Drivers/BSP/Components/st7789h2/st7789h2.c ****   {
 1796              		.loc 1 452 3 view .LVU626
 452:Drivers/BSP/Components/st7789h2/st7789h2.c ****   {
 1797              		.loc 1 452 14 view .LVU627
 452:Drivers/BSP/Components/st7789h2/st7789h2.c ****   {
 1798              		.loc 1 452 14 is_stmt 0 view .LVU628
 1799              	.LBE170:
 1800              	.LBE169:
 315:Drivers/BSP/Components/st7789h2/st7789h2.c **** }
 1801              		.loc 1 315 3 is_stmt 1 view .LVU629
 1802              	.LBB171:
 1803              	.LBI171:
 444:Drivers/BSP/Components/st7789h2/st7789h2.c **** {
 1804              		.loc 1 444 6 view .LVU630
 1805              	.LBB172:
 446:Drivers/BSP/Components/st7789h2/st7789h2.c **** 
 1806              		.loc 1 446 3 view .LVU631
 449:Drivers/BSP/Components/st7789h2/st7789h2.c ****   
 1807              		.loc 1 449 3 view .LVU632
 1808 0184 1120     		movs	r0, #17
 1809 0186 FFF7FEFF 		bl	LCD_IO_WriteReg
 1810              	.LVL145:
 452:Drivers/BSP/Components/st7789h2/st7789h2.c ****   {
 1811              		.loc 1 452 3 view .LVU633
 452:Drivers/BSP/Components/st7789h2/st7789h2.c ****   {
 1812              		.loc 1 452 14 view .LVU634
 452:Drivers/BSP/Components/st7789h2/st7789h2.c ****   {
 1813              		.loc 1 452 14 is_stmt 0 view .LVU635
 1814              	.LBE172:
 1815              	.LBE171:
 1816              	.LBE168:
 256:Drivers/BSP/Components/st7789h2/st7789h2.c ****   ST7789H2_WriteReg(ST7789H2_TEARING_EFFECT, parameter, 1);
 1817              		.loc 1 256 3 is_stmt 1 view .LVU636
 257:Drivers/BSP/Components/st7789h2/st7789h2.c **** 
 1818              		.loc 1 257 3 view .LVU637
 1819              	.LBB173:
 1820              	.LBI173:
 444:Drivers/BSP/Components/st7789h2/st7789h2.c **** {
 1821              		.loc 1 444 6 view .LVU638
 1822              	.LBB174:
 446:Drivers/BSP/Components/st7789h2/st7789h2.c **** 
ARM GAS  /var/folders/0z/tsy30v1j4xl4_7kw94k978ww0000gn/T//ccaz1ZPA.s 			page 55


 1823              		.loc 1 446 3 view .LVU639
 449:Drivers/BSP/Components/st7789h2/st7789h2.c ****   
 1824              		.loc 1 449 3 view .LVU640
 1825 018a 3520     		movs	r0, #53
 1826 018c FFF7FEFF 		bl	LCD_IO_WriteReg
 1827              	.LVL146:
 452:Drivers/BSP/Components/st7789h2/st7789h2.c ****   {
 1828              		.loc 1 452 3 view .LVU641
 452:Drivers/BSP/Components/st7789h2/st7789h2.c ****   {
 1829              		.loc 1 452 14 view .LVU642
 454:Drivers/BSP/Components/st7789h2/st7789h2.c ****   }
 1830              		.loc 1 454 5 view .LVU643
 1831 0190 0020     		movs	r0, #0
 1832              	.LBE174:
 1833              	.LBE173:
 259:Drivers/BSP/Components/st7789h2/st7789h2.c **** 
 1834              		.loc 1 259 1 is_stmt 0 view .LVU644
 1835 0192 04B0     		add	sp, sp, #16
 1836              		.cfi_def_cfa_offset 16
 1837              	.LVL147:
 259:Drivers/BSP/Components/st7789h2/st7789h2.c **** 
 1838              		.loc 1 259 1 view .LVU645
 1839              		@ sp needed
 1840 0194 BDE87040 		pop	{r4, r5, r6, lr}
 1841              		.cfi_restore 14
 1842              		.cfi_restore 6
 1843              		.cfi_restore 5
 1844              		.cfi_restore 4
 1845              		.cfi_def_cfa_offset 0
 1846              	.LVL148:
 1847              	.LBB176:
 1848              	.LBB175:
 454:Drivers/BSP/Components/st7789h2/st7789h2.c ****   }
 1849              		.loc 1 454 5 view .LVU646
 1850 0198 FFF7FEBF 		b	LCD_IO_WriteData
 1851              	.LVL149:
 1852              	.L90:
 1853              		.align	2
 1854              	.L89:
 1855 019c D0081108 		.word	135334096
 1856 01a0 0C153933 		.word	859378956
 1857 01a4 50361314 		.word	336803408
 1858              	.LBE175:
 1859              	.LBE176:
 1860              		.cfi_endproc
 1861              	.LFE3:
 1863              		.section	.text.ST7789H2_SetOrientation,"ax",%progbits
 1864              		.align	1
 1865              		.p2align 2,,3
 1866              		.global	ST7789H2_SetOrientation
 1867              		.syntax unified
 1868              		.thumb
 1869              		.thumb_func
 1871              	ST7789H2_SetOrientation:
 1872              	.LVL150:
 1873              	.LFB4:
 268:Drivers/BSP/Components/st7789h2/st7789h2.c ****   uint8_t   parameter[6];
ARM GAS  /var/folders/0z/tsy30v1j4xl4_7kw94k978ww0000gn/T//ccaz1ZPA.s 			page 56


 1874              		.loc 1 268 1 is_stmt 1 view -0
 1875              		.cfi_startproc
 1876              		@ args = 0, pretend = 0, frame = 8
 1877              		@ frame_needed = 0, uses_anonymous_args = 0
 269:Drivers/BSP/Components/st7789h2/st7789h2.c **** 
 1878              		.loc 1 269 3 view .LVU648
 271:Drivers/BSP/Components/st7789h2/st7789h2.c ****   {
 1879              		.loc 1 271 3 view .LVU649
 268:Drivers/BSP/Components/st7789h2/st7789h2.c ****   uint8_t   parameter[6];
 1880              		.loc 1 268 1 is_stmt 0 view .LVU650
 1881 0000 70B5     		push	{r4, r5, r6, lr}
 1882              		.cfi_def_cfa_offset 16
 1883              		.cfi_offset 4, -16
 1884              		.cfi_offset 5, -12
 1885              		.cfi_offset 6, -8
 1886              		.cfi_offset 14, -4
 271:Drivers/BSP/Components/st7789h2/st7789h2.c ****   {
 1887              		.loc 1 271 5 view .LVU651
 1888 0002 0128     		cmp	r0, #1
 268:Drivers/BSP/Components/st7789h2/st7789h2.c ****   uint8_t   parameter[6];
 1889              		.loc 1 268 1 view .LVU652
 1890 0004 82B0     		sub	sp, sp, #8
 1891              		.cfi_def_cfa_offset 24
 271:Drivers/BSP/Components/st7789h2/st7789h2.c ****   {
 1892              		.loc 1 271 5 view .LVU653
 1893 0006 0BD0     		beq	.L95
 275:Drivers/BSP/Components/st7789h2/st7789h2.c ****   {
 1894              		.loc 1 275 8 is_stmt 1 view .LVU654
 275:Drivers/BSP/Components/st7789h2/st7789h2.c ****   {
 1895              		.loc 1 275 10 is_stmt 0 view .LVU655
 1896 0008 0228     		cmp	r0, #2
 1897 000a 0BD0     		beq	.L98
 1898 000c 6024     		movs	r4, #96
 1899              	.LVL151:
 1900              	.L92:
 301:Drivers/BSP/Components/st7789h2/st7789h2.c **** }
 1901              		.loc 1 301 3 is_stmt 1 view .LVU656
 1902              	.LBB183:
 1903              	.LBI183:
 444:Drivers/BSP/Components/st7789h2/st7789h2.c **** {
 1904              		.loc 1 444 6 view .LVU657
 1905              	.LBB184:
 446:Drivers/BSP/Components/st7789h2/st7789h2.c **** 
 1906              		.loc 1 446 3 view .LVU658
 449:Drivers/BSP/Components/st7789h2/st7789h2.c ****   
 1907              		.loc 1 449 3 view .LVU659
 1908 000e 3620     		movs	r0, #54
 1909 0010 FFF7FEFF 		bl	LCD_IO_WriteReg
 1910              	.LVL152:
 452:Drivers/BSP/Components/st7789h2/st7789h2.c ****   {
 1911              		.loc 1 452 3 view .LVU660
 452:Drivers/BSP/Components/st7789h2/st7789h2.c ****   {
 1912              		.loc 1 452 14 view .LVU661
 454:Drivers/BSP/Components/st7789h2/st7789h2.c ****   }
 1913              		.loc 1 454 5 view .LVU662
 1914 0014 2046     		mov	r0, r4
 1915              	.LBE184:
ARM GAS  /var/folders/0z/tsy30v1j4xl4_7kw94k978ww0000gn/T//ccaz1ZPA.s 			page 57


 1916              	.LBE183:
 302:Drivers/BSP/Components/st7789h2/st7789h2.c **** 
 1917              		.loc 1 302 1 is_stmt 0 view .LVU663
 1918 0016 02B0     		add	sp, sp, #8
 1919              		.cfi_remember_state
 1920              		.cfi_def_cfa_offset 16
 1921              	.LVL153:
 302:Drivers/BSP/Components/st7789h2/st7789h2.c **** 
 1922              		.loc 1 302 1 view .LVU664
 1923              		@ sp needed
 1924 0018 BDE87040 		pop	{r4, r5, r6, lr}
 1925              		.cfi_restore 14
 1926              		.cfi_restore 6
 1927              		.cfi_restore 5
 1928              		.cfi_restore 4
 1929              		.cfi_def_cfa_offset 0
 1930              	.LVL154:
 1931              	.LBB186:
 1932              	.LBB185:
 454:Drivers/BSP/Components/st7789h2/st7789h2.c ****   }
 1933              		.loc 1 454 5 view .LVU665
 1934 001c FFF7FEBF 		b	LCD_IO_WriteData
 1935              	.LVL155:
 1936              	.L95:
 1937              		.cfi_restore_state
 454:Drivers/BSP/Components/st7789h2/st7789h2.c ****   }
 1938              		.loc 1 454 5 view .LVU666
 1939              	.LBE185:
 1940              	.LBE186:
 1941 0020 0024     		movs	r4, #0
 1942 0022 F4E7     		b	.L92
 1943              	.L98:
 279:Drivers/BSP/Components/st7789h2/st7789h2.c ****     parameter[1] = 0x00;
 1944              		.loc 1 279 5 is_stmt 1 view .LVU667
 280:Drivers/BSP/Components/st7789h2/st7789h2.c ****     /* VSA describes the height of the Vertical Scrolling Area */
 1945              		.loc 1 280 5 view .LVU668
 282:Drivers/BSP/Components/st7789h2/st7789h2.c ****     parameter[3] = 0xF0;
 1946              		.loc 1 282 5 view .LVU669
 283:Drivers/BSP/Components/st7789h2/st7789h2.c ****     /* BFA describes the Bottom Fixed Area */
 1947              		.loc 1 283 5 view .LVU670
 285:Drivers/BSP/Components/st7789h2/st7789h2.c ****     parameter[5] = 0x00; 
 1948              		.loc 1 285 5 view .LVU671
 286:Drivers/BSP/Components/st7789h2/st7789h2.c ****     ST7789H2_WriteReg(ST7789H2_VSCRDEF, parameter, 6);
 1949              		.loc 1 286 5 view .LVU672
 279:Drivers/BSP/Components/st7789h2/st7789h2.c ****     parameter[1] = 0x00;
 1950              		.loc 1 279 18 is_stmt 0 view .LVU673
 1951 0024 0E4B     		ldr	r3, .L100
 1952 0026 0093     		str	r3, [sp]
 285:Drivers/BSP/Components/st7789h2/st7789h2.c ****     parameter[5] = 0x00; 
 1953              		.loc 1 285 18 view .LVU674
 1954 0028 0025     		movs	r5, #0
 1955              	.LBB187:
 1956              	.LBB188:
 449:Drivers/BSP/Components/st7789h2/st7789h2.c ****   
 1957              		.loc 1 449 3 view .LVU675
 1958 002a 3320     		movs	r0, #51
 1959              	.LVL156:
ARM GAS  /var/folders/0z/tsy30v1j4xl4_7kw94k978ww0000gn/T//ccaz1ZPA.s 			page 58


 449:Drivers/BSP/Components/st7789h2/st7789h2.c ****   
 1960              		.loc 1 449 3 view .LVU676
 1961              	.LBE188:
 1962              	.LBE187:
 285:Drivers/BSP/Components/st7789h2/st7789h2.c ****     parameter[5] = 0x00; 
 1963              		.loc 1 285 18 view .LVU677
 1964 002c ADF80450 		strh	r5, [sp, #4]	@ movhi
 287:Drivers/BSP/Components/st7789h2/st7789h2.c **** 
 1965              		.loc 1 287 5 is_stmt 1 view .LVU678
 1966              	.LVL157:
 1967              	.LBB190:
 1968              	.LBI187:
 444:Drivers/BSP/Components/st7789h2/st7789h2.c **** {
 1969              		.loc 1 444 6 view .LVU679
 1970              	.LBB189:
 446:Drivers/BSP/Components/st7789h2/st7789h2.c **** 
 1971              		.loc 1 446 3 view .LVU680
 449:Drivers/BSP/Components/st7789h2/st7789h2.c ****   
 1972              		.loc 1 449 3 view .LVU681
 1973 0030 6C46     		mov	r4, sp
 1974 0032 FFF7FEFF 		bl	LCD_IO_WriteReg
 1975              	.LVL158:
 452:Drivers/BSP/Components/st7789h2/st7789h2.c ****   {
 1976              		.loc 1 452 3 view .LVU682
 452:Drivers/BSP/Components/st7789h2/st7789h2.c ****   {
 1977              		.loc 1 452 14 view .LVU683
 1978 0036 0DF10506 		add	r6, sp, #5
 449:Drivers/BSP/Components/st7789h2/st7789h2.c ****   
 1979              		.loc 1 449 3 is_stmt 0 view .LVU684
 1980 003a 2846     		mov	r0, r5
 1981 003c 01E0     		b	.L94
 1982              	.LVL159:
 1983              	.L99:
 454:Drivers/BSP/Components/st7789h2/st7789h2.c ****   }
 1984              		.loc 1 454 32 view .LVU685
 1985 003e 14F8010F 		ldrb	r0, [r4, #1]!	@ zero_extendqisi2
 1986              	.LVL160:
 1987              	.L94:
 454:Drivers/BSP/Components/st7789h2/st7789h2.c ****   }
 1988              		.loc 1 454 5 is_stmt 1 view .LVU686
 1989 0042 FFF7FEFF 		bl	LCD_IO_WriteData
 1990              	.LVL161:
 452:Drivers/BSP/Components/st7789h2/st7789h2.c ****   {
 1991              		.loc 1 452 30 view .LVU687
 452:Drivers/BSP/Components/st7789h2/st7789h2.c ****   {
 1992              		.loc 1 452 14 view .LVU688
 1993 0046 B442     		cmp	r4, r6
 1994 0048 F9D1     		bne	.L99
 1995              	.LVL162:
 452:Drivers/BSP/Components/st7789h2/st7789h2.c ****   {
 1996              		.loc 1 452 14 is_stmt 0 view .LVU689
 1997              	.LBE189:
 1998              	.LBE190:
 291:Drivers/BSP/Components/st7789h2/st7789h2.c ****     parameter[1] = 0x50;
 1999              		.loc 1 291 5 is_stmt 1 view .LVU690
 292:Drivers/BSP/Components/st7789h2/st7789h2.c ****     ST7789H2_WriteReg(ST7789H2_VSCSAD, parameter, 2);
 2000              		.loc 1 292 5 view .LVU691
ARM GAS  /var/folders/0z/tsy30v1j4xl4_7kw94k978ww0000gn/T//ccaz1ZPA.s 			page 59


 293:Drivers/BSP/Components/st7789h2/st7789h2.c ****     
 2001              		.loc 1 293 5 view .LVU692
 2002              	.LBB191:
 2003              	.LBI191:
 444:Drivers/BSP/Components/st7789h2/st7789h2.c **** {
 2004              		.loc 1 444 6 view .LVU693
 2005              	.LBB192:
 446:Drivers/BSP/Components/st7789h2/st7789h2.c **** 
 2006              		.loc 1 446 3 view .LVU694
 449:Drivers/BSP/Components/st7789h2/st7789h2.c ****   
 2007              		.loc 1 449 3 view .LVU695
 2008 004a 3720     		movs	r0, #55
 2009 004c FFF7FEFF 		bl	LCD_IO_WriteReg
 2010              	.LVL163:
 452:Drivers/BSP/Components/st7789h2/st7789h2.c ****   {
 2011              		.loc 1 452 3 view .LVU696
 452:Drivers/BSP/Components/st7789h2/st7789h2.c ****   {
 2012              		.loc 1 452 14 view .LVU697
 454:Drivers/BSP/Components/st7789h2/st7789h2.c ****   }
 2013              		.loc 1 454 5 view .LVU698
 2014 0050 0020     		movs	r0, #0
 2015 0052 FFF7FEFF 		bl	LCD_IO_WriteData
 2016              	.LVL164:
 452:Drivers/BSP/Components/st7789h2/st7789h2.c ****   {
 2017              		.loc 1 452 30 view .LVU699
 452:Drivers/BSP/Components/st7789h2/st7789h2.c ****   {
 2018              		.loc 1 452 14 view .LVU700
 454:Drivers/BSP/Components/st7789h2/st7789h2.c ****   }
 2019              		.loc 1 454 5 view .LVU701
 2020 0056 5020     		movs	r0, #80
 2021 0058 FFF7FEFF 		bl	LCD_IO_WriteData
 2022              	.LVL165:
 452:Drivers/BSP/Components/st7789h2/st7789h2.c ****   {
 2023              		.loc 1 452 30 view .LVU702
 452:Drivers/BSP/Components/st7789h2/st7789h2.c ****   {
 2024              		.loc 1 452 14 view .LVU703
 452:Drivers/BSP/Components/st7789h2/st7789h2.c ****   {
 2025              		.loc 1 452 14 is_stmt 0 view .LVU704
 2026              	.LBE192:
 2027              	.LBE191:
 295:Drivers/BSP/Components/st7789h2/st7789h2.c ****   }
 2028              		.loc 1 295 5 is_stmt 1 view .LVU705
 2029 005c C024     		movs	r4, #192
 2030 005e D6E7     		b	.L92
 2031              	.L101:
 2032              		.align	2
 2033              	.L100:
 2034 0060 000001F0 		.word	-268369920
 2035              		.cfi_endproc
 2036              	.LFE4:
 2038              		.section	.text.ST7789H2_WriteReg,"ax",%progbits
 2039              		.align	1
 2040              		.p2align 2,,3
 2041              		.global	ST7789H2_WriteReg
 2042              		.syntax unified
 2043              		.thumb
 2044              		.thumb_func
ARM GAS  /var/folders/0z/tsy30v1j4xl4_7kw94k978ww0000gn/T//ccaz1ZPA.s 			page 60


 2046              	ST7789H2_WriteReg:
 2047              	.LVL166:
 2048              	.LFB13:
 445:Drivers/BSP/Components/st7789h2/st7789h2.c ****   uint8_t   i;
 2049              		.loc 1 445 1 view -0
 2050              		.cfi_startproc
 2051              		@ args = 0, pretend = 0, frame = 0
 2052              		@ frame_needed = 0, uses_anonymous_args = 0
 446:Drivers/BSP/Components/st7789h2/st7789h2.c **** 
 2053              		.loc 1 446 3 view .LVU707
 449:Drivers/BSP/Components/st7789h2/st7789h2.c ****   
 2054              		.loc 1 449 3 view .LVU708
 445:Drivers/BSP/Components/st7789h2/st7789h2.c ****   uint8_t   i;
 2055              		.loc 1 445 1 is_stmt 0 view .LVU709
 2056 0000 70B5     		push	{r4, r5, r6, lr}
 2057              		.cfi_def_cfa_offset 16
 2058              		.cfi_offset 4, -16
 2059              		.cfi_offset 5, -12
 2060              		.cfi_offset 6, -8
 2061              		.cfi_offset 14, -4
 445:Drivers/BSP/Components/st7789h2/st7789h2.c ****   uint8_t   i;
 2062              		.loc 1 445 1 view .LVU710
 2063 0002 1546     		mov	r5, r2
 2064 0004 0E46     		mov	r6, r1
 449:Drivers/BSP/Components/st7789h2/st7789h2.c ****   
 2065              		.loc 1 449 3 view .LVU711
 2066 0006 FFF7FEFF 		bl	LCD_IO_WriteReg
 2067              	.LVL167:
 452:Drivers/BSP/Components/st7789h2/st7789h2.c ****   {
 2068              		.loc 1 452 3 is_stmt 1 view .LVU712
 452:Drivers/BSP/Components/st7789h2/st7789h2.c ****   {
 2069              		.loc 1 452 14 view .LVU713
 2070 000a 4DB1     		cbz	r5, .L102
 2071 000c 013D     		subs	r5, r5, #1
 2072 000e 741E     		subs	r4, r6, #1
 2073 0010 56FA85F5 		uxtab	r5, r6, r5
 2074              	.LVL168:
 2075              	.L104:
 454:Drivers/BSP/Components/st7789h2/st7789h2.c ****   }
 2076              		.loc 1 454 5 discriminator 3 view .LVU714
 2077 0014 14F8010F 		ldrb	r0, [r4, #1]!	@ zero_extendqisi2
 2078              	.LVL169:
 454:Drivers/BSP/Components/st7789h2/st7789h2.c ****   }
 2079              		.loc 1 454 5 is_stmt 0 discriminator 3 view .LVU715
 2080 0018 FFF7FEFF 		bl	LCD_IO_WriteData
 2081              	.LVL170:
 452:Drivers/BSP/Components/st7789h2/st7789h2.c ****   {
 2082              		.loc 1 452 30 is_stmt 1 discriminator 3 view .LVU716
 452:Drivers/BSP/Components/st7789h2/st7789h2.c ****   {
 2083              		.loc 1 452 14 discriminator 3 view .LVU717
 2084 001c AC42     		cmp	r4, r5
 2085 001e F9D1     		bne	.L104
 2086              	.LVL171:
 2087              	.L102:
 456:Drivers/BSP/Components/st7789h2/st7789h2.c **** 
 2088              		.loc 1 456 1 is_stmt 0 view .LVU718
 2089 0020 70BD     		pop	{r4, r5, r6, pc}
ARM GAS  /var/folders/0z/tsy30v1j4xl4_7kw94k978ww0000gn/T//ccaz1ZPA.s 			page 61


 456:Drivers/BSP/Components/st7789h2/st7789h2.c **** 
 2090              		.loc 1 456 1 view .LVU719
 2091              		.cfi_endproc
 2092              	.LFE13:
 2094 0022 00BF     		.section	.text.ST7789H2_ReadReg,"ax",%progbits
 2095              		.align	1
 2096              		.p2align 2,,3
 2097              		.global	ST7789H2_ReadReg
 2098              		.syntax unified
 2099              		.thumb
 2100              		.thumb_func
 2102              	ST7789H2_ReadReg:
 2103              	.LVL172:
 2104              	.LFB14:
 464:Drivers/BSP/Components/st7789h2/st7789h2.c ****   /* Send command */
 2105              		.loc 1 464 1 is_stmt 1 view -0
 2106              		.cfi_startproc
 2107              		@ args = 0, pretend = 0, frame = 0
 2108              		@ frame_needed = 0, uses_anonymous_args = 0
 466:Drivers/BSP/Components/st7789h2/st7789h2.c **** 
 2109              		.loc 1 466 3 view .LVU721
 464:Drivers/BSP/Components/st7789h2/st7789h2.c ****   /* Send command */
 2110              		.loc 1 464 1 is_stmt 0 view .LVU722
 2111 0000 08B5     		push	{r3, lr}
 2112              		.cfi_def_cfa_offset 8
 2113              		.cfi_offset 3, -8
 2114              		.cfi_offset 14, -4
 466:Drivers/BSP/Components/st7789h2/st7789h2.c **** 
 2115              		.loc 1 466 3 view .LVU723
 2116 0002 FFF7FEFF 		bl	LCD_IO_WriteReg
 2117              	.LVL173:
 469:Drivers/BSP/Components/st7789h2/st7789h2.c ****   
 2118              		.loc 1 469 3 is_stmt 1 view .LVU724
 2119 0006 FFF7FEFF 		bl	LCD_IO_ReadData
 2120              	.LVL174:
 472:Drivers/BSP/Components/st7789h2/st7789h2.c **** }
 2121              		.loc 1 472 3 view .LVU725
 472:Drivers/BSP/Components/st7789h2/st7789h2.c **** }
 2122              		.loc 1 472 11 is_stmt 0 view .LVU726
 2123 000a FFF7FEFF 		bl	LCD_IO_ReadData
 2124              	.LVL175:
 473:Drivers/BSP/Components/st7789h2/st7789h2.c **** 
 2125              		.loc 1 473 1 view .LVU727
 2126 000e C0B2     		uxtb	r0, r0
 2127 0010 08BD     		pop	{r3, pc}
 2128              		.cfi_endproc
 2129              	.LFE14:
 2131              		.global	ST7789H2_drv
 2132 0012 00BF     		.section	.bss.WindowsXstart,"aw",%nobits
 2133              		.align	1
 2134              		.set	.LANCHOR0,. + 0
 2137              	WindowsXstart:
 2138 0000 0000     		.space	2
 2139              		.section	.bss.WindowsYstart,"aw",%nobits
 2140              		.align	1
 2141              		.set	.LANCHOR1,. + 0
 2144              	WindowsYstart:
ARM GAS  /var/folders/0z/tsy30v1j4xl4_7kw94k978ww0000gn/T//ccaz1ZPA.s 			page 62


 2145 0000 0000     		.space	2
 2146              		.section	.data.ST7789H2_drv,"aw"
 2147              		.align	2
 2150              	ST7789H2_drv:
 2151 0000 00000000 		.word	ST7789H2_Init
 2152 0004 00000000 		.word	ST7789H2_ReadID
 2153 0008 00000000 		.word	ST7789H2_DisplayOn
 2154 000c 00000000 		.word	ST7789H2_DisplayOff
 2155 0010 00000000 		.word	ST7789H2_SetCursor
 2156 0014 00000000 		.word	ST7789H2_WritePixel
 2157 0018 00000000 		.word	ST7789H2_ReadPixel
 2158 001c 00000000 		.word	ST7789H2_SetDisplayWindow
 2159 0020 00000000 		.word	ST7789H2_DrawHLine
 2160 0024 00000000 		.word	ST7789H2_DrawVLine
 2161 0028 00000000 		.word	ST7789H2_GetLcdPixelWidth
 2162 002c 00000000 		.word	ST7789H2_GetLcdPixelHeight
 2163 0030 00000000 		.word	ST7789H2_DrawBitmap
 2164 0034 00000000 		.word	ST7789H2_DrawRGBImage
 2165              		.section	.data.WindowsXend,"aw"
 2166              		.align	1
 2167              		.set	.LANCHOR2,. + 0
 2170              	WindowsXend:
 2171 0000 EF00     		.short	239
 2172              		.section	.data.WindowsYend,"aw"
 2173              		.align	1
 2174              		.set	.LANCHOR3,. + 0
 2177              	WindowsYend:
 2178 0000 EF00     		.short	239
 2179              		.text
 2180              	.Letext0:
 2181              		.file 2 "/Users/johannes/Library/Application Support/Code/User/globalStorage/bmd.stm32-for-vscode/
 2182              		.file 3 "/Users/johannes/Library/Application Support/Code/User/globalStorage/bmd.stm32-for-vscode/
 2183              		.file 4 "Drivers/BSP/Components/st7789h2/../Common/lcd.h"
 2184              		.file 5 "Drivers/BSP/Components/st7789h2/st7789h2.h"
ARM GAS  /var/folders/0z/tsy30v1j4xl4_7kw94k978ww0000gn/T//ccaz1ZPA.s 			page 63

