ARM GAS  /var/folders/lp/x54gwt890xv47sdkqj1k04q40000gn/T//ccAXhYZq.s 			page 1


   1              		.cpu cortex-m4
   2              		.arch armv7e-m
   3              		.fpu fpv4-sp-d16
   4              		.eabi_attribute 27, 1
   5              		.eabi_attribute 28, 1
   6              		.eabi_attribute 20, 1
   7              		.eabi_attribute 21, 1
   8              		.eabi_attribute 23, 3
   9              		.eabi_attribute 24, 1
  10              		.eabi_attribute 25, 1
  11              		.eabi_attribute 26, 1
  12              		.eabi_attribute 30, 2
  13              		.eabi_attribute 34, 1
  14              		.eabi_attribute 18, 4
  15              		.file	"st7789v.c"
  16              		.text
  17              	.Ltext0:
  18              		.cfi_sections	.debug_frame
  19              		.file 1 "Drivers/ST7789V/st7789v.c"
  20              		.section	.text.ST7789V_WriteCommand,"ax",%progbits
  21              		.align	1
  22              		.p2align 2,,3
  23              		.syntax unified
  24              		.thumb
  25              		.thumb_func
  27              	ST7789V_WriteCommand:
  28              	.LVL0:
  29              	.LFB242:
   1:Drivers/ST7789V/st7789v.c **** /**
   2:Drivers/ST7789V/st7789v.c ****  * @file st7789v.c
   3:Drivers/ST7789V/st7789v.c ****  * @author johannes regnier
   4:Drivers/ST7789V/st7789v.c ****  * @brief Driver for ST7789V based LCD display. Adapted from https://github.com/Floyd-Fish/ST7789-S
   5:Drivers/ST7789V/st7789v.c ****  * @version 0.1
   6:Drivers/ST7789V/st7789v.c ****  * @date 2023-12-22
   7:Drivers/ST7789V/st7789v.c ****  * 
   8:Drivers/ST7789V/st7789v.c ****  * @copyright Copyright (c) 2023
   9:Drivers/ST7789V/st7789v.c ****  * 
  10:Drivers/ST7789V/st7789v.c ****  */
  11:Drivers/ST7789V/st7789v.c **** 
  12:Drivers/ST7789V/st7789v.c **** 
  13:Drivers/ST7789V/st7789v.c **** #include "st7789v.h"
  14:Drivers/ST7789V/st7789v.c **** #include <stdlib.h>
  15:Drivers/ST7789V/st7789v.c **** 
  16:Drivers/ST7789V/st7789v.c **** #ifdef USE_DMA
  17:Drivers/ST7789V/st7789v.c **** #include <string.h>
  18:Drivers/ST7789V/st7789v.c **** uint16_t DMA_MIN_SIZE = 16;
  19:Drivers/ST7789V/st7789v.c **** /* If you're using DMA, then u need a "framebuffer" to store datas to be displayed.
  20:Drivers/ST7789V/st7789v.c ****  * If your MCU don't have enough RAM, please avoid using DMA(or set 5 to 1).
  21:Drivers/ST7789V/st7789v.c ****  * And if your MCU have enough RAM(even larger than full-frame size),
  22:Drivers/ST7789V/st7789v.c ****  * Then you can specify the framebuffer size to the full resolution below.
  23:Drivers/ST7789V/st7789v.c ****  */
  24:Drivers/ST7789V/st7789v.c ****  #define HOR_LEN 	5	//	Alse mind the resolution of your screen!
  25:Drivers/ST7789V/st7789v.c **** uint16_t disp_buf[ST7789V_WIDTH * HOR_LEN];
  26:Drivers/ST7789V/st7789v.c **** #endif
  27:Drivers/ST7789V/st7789v.c **** 
  28:Drivers/ST7789V/st7789v.c **** /**
  29:Drivers/ST7789V/st7789v.c ****  * @brief 
ARM GAS  /var/folders/lp/x54gwt890xv47sdkqj1k04q40000gn/T//ccAXhYZq.s 			page 2


  30:Drivers/ST7789V/st7789v.c ****  * 
  31:Drivers/ST7789V/st7789v.c ****  * @param cmd 
  32:Drivers/ST7789V/st7789v.c ****  */
  33:Drivers/ST7789V/st7789v.c **** static void ST7789V_WriteCommand(uint8_t cmd)
  34:Drivers/ST7789V/st7789v.c **** {
  30              		.loc 1 34 1 view -0
  31              		.cfi_startproc
  32              		@ args = 0, pretend = 0, frame = 8
  33              		@ frame_needed = 0, uses_anonymous_args = 0
  35:Drivers/ST7789V/st7789v.c **** 	ST7789V_Select();
  34              		.loc 1 35 2 view .LVU1
  34:Drivers/ST7789V/st7789v.c **** 	ST7789V_Select();
  35              		.loc 1 34 1 is_stmt 0 view .LVU2
  36 0000 10B5     		push	{r4, lr}
  37              		.cfi_def_cfa_offset 8
  38              		.cfi_offset 4, -8
  39              		.cfi_offset 14, -4
  40              		.loc 1 35 2 view .LVU3
  41 0002 0F4C     		ldr	r4, .L4
  34:Drivers/ST7789V/st7789v.c **** 	ST7789V_Select();
  42              		.loc 1 34 1 view .LVU4
  43 0004 82B0     		sub	sp, sp, #8
  44              		.cfi_def_cfa_offset 16
  34:Drivers/ST7789V/st7789v.c **** 	ST7789V_Select();
  45              		.loc 1 34 1 view .LVU5
  46 0006 0346     		mov	r3, r0
  47              		.loc 1 35 2 view .LVU6
  48 0008 0022     		movs	r2, #0
  49 000a 2046     		mov	r0, r4
  50              	.LVL1:
  51              		.loc 1 35 2 view .LVU7
  52 000c 0421     		movs	r1, #4
  34:Drivers/ST7789V/st7789v.c **** 	ST7789V_Select();
  53              		.loc 1 34 1 view .LVU8
  54 000e 8DF80730 		strb	r3, [sp, #7]
  55              		.loc 1 35 2 view .LVU9
  56 0012 FFF7FEFF 		bl	HAL_GPIO_WritePin
  57              	.LVL2:
  36:Drivers/ST7789V/st7789v.c **** 	ST7789V_DC_Clr();
  58              		.loc 1 36 2 is_stmt 1 view .LVU10
  59 0016 2046     		mov	r0, r4
  60 0018 0022     		movs	r2, #0
  61 001a 0221     		movs	r1, #2
  62 001c FFF7FEFF 		bl	HAL_GPIO_WritePin
  63              	.LVL3:
  37:Drivers/ST7789V/st7789v.c **** 	HAL_SPI_Transmit(&ST7789V_SPI_PORT, &cmd, sizeof(cmd), HAL_MAX_DELAY);
  64              		.loc 1 37 2 view .LVU11
  65 0020 4FF0FF33 		mov	r3, #-1
  66 0024 0DF10701 		add	r1, sp, #7
  67 0028 0122     		movs	r2, #1
  68 002a 0648     		ldr	r0, .L4+4
  69 002c FFF7FEFF 		bl	HAL_SPI_Transmit
  70              	.LVL4:
  38:Drivers/ST7789V/st7789v.c **** 	ST7789V_UnSelect();
  71              		.loc 1 38 2 view .LVU12
  72 0030 0122     		movs	r2, #1
  73 0032 0421     		movs	r1, #4
ARM GAS  /var/folders/lp/x54gwt890xv47sdkqj1k04q40000gn/T//ccAXhYZq.s 			page 3


  74 0034 2046     		mov	r0, r4
  75 0036 FFF7FEFF 		bl	HAL_GPIO_WritePin
  76              	.LVL5:
  39:Drivers/ST7789V/st7789v.c **** }
  77              		.loc 1 39 1 is_stmt 0 view .LVU13
  78 003a 02B0     		add	sp, sp, #8
  79              		.cfi_def_cfa_offset 8
  80              		@ sp needed
  81 003c 10BD     		pop	{r4, pc}
  82              	.L5:
  83 003e 00BF     		.align	2
  84              	.L4:
  85 0040 00000240 		.word	1073872896
  86 0044 00000000 		.word	hspi1
  87              		.cfi_endproc
  88              	.LFE242:
  90              		.section	.text.ST7789V_WriteSmallData,"ax",%progbits
  91              		.align	1
  92              		.p2align 2,,3
  93              		.syntax unified
  94              		.thumb
  95              		.thumb_func
  97              	ST7789V_WriteSmallData:
  98              	.LVL6:
  99              	.LFB244:
  40:Drivers/ST7789V/st7789v.c **** 
  41:Drivers/ST7789V/st7789v.c **** /**
  42:Drivers/ST7789V/st7789v.c ****  * @brief Write data to ST7789V controller
  43:Drivers/ST7789V/st7789v.c ****  * @param buff -> pointer of data buffer
  44:Drivers/ST7789V/st7789v.c ****  * @param buff_size -> size of the data buffer
  45:Drivers/ST7789V/st7789v.c ****  * @return none
  46:Drivers/ST7789V/st7789v.c ****  */
  47:Drivers/ST7789V/st7789v.c **** void ST7789V_WriteData(uint8_t *buff, size_t buff_size)
  48:Drivers/ST7789V/st7789v.c **** {
  49:Drivers/ST7789V/st7789v.c **** 	ST7789V_Select();
  50:Drivers/ST7789V/st7789v.c **** 
  51:Drivers/ST7789V/st7789v.c **** 	ST7789V_DC_Set();
  52:Drivers/ST7789V/st7789v.c **** 
  53:Drivers/ST7789V/st7789v.c **** 	// split data in small chunks because HAL can't send more than 64K at once
  54:Drivers/ST7789V/st7789v.c **** 
  55:Drivers/ST7789V/st7789v.c **** 	while (buff_size > 0) {
  56:Drivers/ST7789V/st7789v.c **** 		uint16_t chunk_size = buff_size > 65535 ? 65535 : buff_size;
  57:Drivers/ST7789V/st7789v.c **** 		HAL_SPI_Transmit(&ST7789V_SPI_PORT, buff, chunk_size, 10);
  58:Drivers/ST7789V/st7789v.c **** 		// HAL_SPI_Transmit_DMA(&ST7789V_SPI_PORT, buff, chunk_size);
  59:Drivers/ST7789V/st7789v.c **** 		buff += chunk_size;
  60:Drivers/ST7789V/st7789v.c **** 		buff_size -= chunk_size;
  61:Drivers/ST7789V/st7789v.c **** 	}
  62:Drivers/ST7789V/st7789v.c **** 	ST7789V_UnSelect();
  63:Drivers/ST7789V/st7789v.c **** 
  64:Drivers/ST7789V/st7789v.c **** }
  65:Drivers/ST7789V/st7789v.c **** /**
  66:Drivers/ST7789V/st7789v.c ****  * @brief Write data to ST7789V controller, simplify for 8bit data.
  67:Drivers/ST7789V/st7789v.c ****  * data -> data to write
  68:Drivers/ST7789V/st7789v.c ****  * @return none
  69:Drivers/ST7789V/st7789v.c ****  */
  70:Drivers/ST7789V/st7789v.c **** static void ST7789V_WriteSmallData(uint8_t data)
  71:Drivers/ST7789V/st7789v.c **** {
ARM GAS  /var/folders/lp/x54gwt890xv47sdkqj1k04q40000gn/T//ccAXhYZq.s 			page 4


 100              		.loc 1 71 1 is_stmt 1 view -0
 101              		.cfi_startproc
 102              		@ args = 0, pretend = 0, frame = 8
 103              		@ frame_needed = 0, uses_anonymous_args = 0
  72:Drivers/ST7789V/st7789v.c **** 	 ST7789V_Select();
 104              		.loc 1 72 3 view .LVU15
  71:Drivers/ST7789V/st7789v.c **** 	 ST7789V_Select();
 105              		.loc 1 71 1 is_stmt 0 view .LVU16
 106 0000 10B5     		push	{r4, lr}
 107              		.cfi_def_cfa_offset 8
 108              		.cfi_offset 4, -8
 109              		.cfi_offset 14, -4
 110              		.loc 1 72 3 view .LVU17
 111 0002 0F4C     		ldr	r4, .L8
  71:Drivers/ST7789V/st7789v.c **** 	 ST7789V_Select();
 112              		.loc 1 71 1 view .LVU18
 113 0004 82B0     		sub	sp, sp, #8
 114              		.cfi_def_cfa_offset 16
  71:Drivers/ST7789V/st7789v.c **** 	 ST7789V_Select();
 115              		.loc 1 71 1 view .LVU19
 116 0006 0346     		mov	r3, r0
 117              		.loc 1 72 3 view .LVU20
 118 0008 0022     		movs	r2, #0
 119 000a 2046     		mov	r0, r4
 120              	.LVL7:
 121              		.loc 1 72 3 view .LVU21
 122 000c 0421     		movs	r1, #4
  71:Drivers/ST7789V/st7789v.c **** 	 ST7789V_Select();
 123              		.loc 1 71 1 view .LVU22
 124 000e 8DF80730 		strb	r3, [sp, #7]
 125              		.loc 1 72 3 view .LVU23
 126 0012 FFF7FEFF 		bl	HAL_GPIO_WritePin
 127              	.LVL8:
  73:Drivers/ST7789V/st7789v.c **** 	ST7789V_DC_Set();
 128              		.loc 1 73 2 is_stmt 1 view .LVU24
 129 0016 2046     		mov	r0, r4
 130 0018 0122     		movs	r2, #1
 131 001a 0221     		movs	r1, #2
 132 001c FFF7FEFF 		bl	HAL_GPIO_WritePin
 133              	.LVL9:
  74:Drivers/ST7789V/st7789v.c **** 	HAL_SPI_Transmit(&ST7789V_SPI_PORT, &data, sizeof(data), HAL_MAX_DELAY);
 134              		.loc 1 74 2 view .LVU25
 135 0020 4FF0FF33 		mov	r3, #-1
 136 0024 0DF10701 		add	r1, sp, #7
 137 0028 0122     		movs	r2, #1
 138 002a 0648     		ldr	r0, .L8+4
 139 002c FFF7FEFF 		bl	HAL_SPI_Transmit
 140              	.LVL10:
  75:Drivers/ST7789V/st7789v.c **** 	 ST7789V_UnSelect();
 141              		.loc 1 75 3 view .LVU26
 142 0030 0122     		movs	r2, #1
 143 0032 0421     		movs	r1, #4
 144 0034 2046     		mov	r0, r4
 145 0036 FFF7FEFF 		bl	HAL_GPIO_WritePin
 146              	.LVL11:
  76:Drivers/ST7789V/st7789v.c **** }
 147              		.loc 1 76 1 is_stmt 0 view .LVU27
ARM GAS  /var/folders/lp/x54gwt890xv47sdkqj1k04q40000gn/T//ccAXhYZq.s 			page 5


 148 003a 02B0     		add	sp, sp, #8
 149              		.cfi_def_cfa_offset 8
 150              		@ sp needed
 151 003c 10BD     		pop	{r4, pc}
 152              	.L9:
 153 003e 00BF     		.align	2
 154              	.L8:
 155 0040 00000240 		.word	1073872896
 156 0044 00000000 		.word	hspi1
 157              		.cfi_endproc
 158              	.LFE244:
 160              		.section	.text.ST7789V_WriteData,"ax",%progbits
 161              		.align	1
 162              		.p2align 2,,3
 163              		.global	ST7789V_WriteData
 164              		.syntax unified
 165              		.thumb
 166              		.thumb_func
 168              	ST7789V_WriteData:
 169              	.LVL12:
 170              	.LFB243:
  48:Drivers/ST7789V/st7789v.c **** 	ST7789V_Select();
 171              		.loc 1 48 1 is_stmt 1 view -0
 172              		.cfi_startproc
 173              		@ args = 0, pretend = 0, frame = 0
 174              		@ frame_needed = 0, uses_anonymous_args = 0
  49:Drivers/ST7789V/st7789v.c **** 
 175              		.loc 1 49 2 view .LVU29
  48:Drivers/ST7789V/st7789v.c **** 	ST7789V_Select();
 176              		.loc 1 48 1 is_stmt 0 view .LVU30
 177 0000 2DE9F041 		push	{r4, r5, r6, r7, r8, lr}
 178              		.cfi_def_cfa_offset 24
 179              		.cfi_offset 4, -24
 180              		.cfi_offset 5, -20
 181              		.cfi_offset 6, -16
 182              		.cfi_offset 7, -12
 183              		.cfi_offset 8, -8
 184              		.cfi_offset 14, -4
  49:Drivers/ST7789V/st7789v.c **** 
 185              		.loc 1 49 2 view .LVU31
 186 0004 0022     		movs	r2, #0
  48:Drivers/ST7789V/st7789v.c **** 	ST7789V_Select();
 187              		.loc 1 48 1 view .LVU32
 188 0006 0D46     		mov	r5, r1
 189 0008 0646     		mov	r6, r0
  49:Drivers/ST7789V/st7789v.c **** 
 190              		.loc 1 49 2 view .LVU33
 191 000a 0421     		movs	r1, #4
 192              	.LVL13:
  49:Drivers/ST7789V/st7789v.c **** 
 193              		.loc 1 49 2 view .LVU34
 194 000c 1048     		ldr	r0, .L18
 195              	.LVL14:
  49:Drivers/ST7789V/st7789v.c **** 
 196              		.loc 1 49 2 view .LVU35
 197 000e FFF7FEFF 		bl	HAL_GPIO_WritePin
 198              	.LVL15:
ARM GAS  /var/folders/lp/x54gwt890xv47sdkqj1k04q40000gn/T//ccAXhYZq.s 			page 6


  51:Drivers/ST7789V/st7789v.c **** 
 199              		.loc 1 51 2 is_stmt 1 view .LVU36
 200 0012 0F48     		ldr	r0, .L18
 201 0014 0122     		movs	r2, #1
 202 0016 0221     		movs	r1, #2
 203 0018 FFF7FEFF 		bl	HAL_GPIO_WritePin
 204              	.LVL16:
  55:Drivers/ST7789V/st7789v.c **** 		uint16_t chunk_size = buff_size > 65535 ? 65535 : buff_size;
 205              		.loc 1 55 2 view .LVU37
  55:Drivers/ST7789V/st7789v.c **** 		uint16_t chunk_size = buff_size > 65535 ? 65535 : buff_size;
 206              		.loc 1 55 19 view .LVU38
 207 001c 85B1     		cbz	r5, .L11
 208              	.LBB7:
  57:Drivers/ST7789V/st7789v.c **** 		// HAL_SPI_Transmit_DMA(&ST7789V_SPI_PORT, buff, chunk_size);
 209              		.loc 1 57 3 is_stmt 0 view .LVU39
 210 001e DFF83480 		ldr	r8, .L18+4
  56:Drivers/ST7789V/st7789v.c **** 		HAL_SPI_Transmit(&ST7789V_SPI_PORT, buff, chunk_size, 10);
 211              		.loc 1 56 51 view .LVU40
 212 0022 4FF6FF77 		movw	r7, #65535
 213              	.LVL17:
 214              	.L12:
  56:Drivers/ST7789V/st7789v.c **** 		HAL_SPI_Transmit(&ST7789V_SPI_PORT, buff, chunk_size, 10);
 215              		.loc 1 56 3 is_stmt 1 view .LVU41
  56:Drivers/ST7789V/st7789v.c **** 		HAL_SPI_Transmit(&ST7789V_SPI_PORT, buff, chunk_size, 10);
 216              		.loc 1 56 51 is_stmt 0 view .LVU42
 217 0026 BD42     		cmp	r5, r7
 218 0028 2C46     		mov	r4, r5
 219 002a 28BF     		it	cs
 220 002c 3C46     		movcs	r4, r7
 221              	.LVL18:
  57:Drivers/ST7789V/st7789v.c **** 		// HAL_SPI_Transmit_DMA(&ST7789V_SPI_PORT, buff, chunk_size);
 222              		.loc 1 57 3 is_stmt 1 view .LVU43
 223 002e 3146     		mov	r1, r6
 224 0030 0A23     		movs	r3, #10
 225 0032 A2B2     		uxth	r2, r4
 226 0034 4046     		mov	r0, r8
 227 0036 FFF7FEFF 		bl	HAL_SPI_Transmit
 228              	.LVL19:
  59:Drivers/ST7789V/st7789v.c **** 		buff_size -= chunk_size;
 229              		.loc 1 59 3 view .LVU44
 230              	.LBE7:
  55:Drivers/ST7789V/st7789v.c **** 		uint16_t chunk_size = buff_size > 65535 ? 65535 : buff_size;
 231              		.loc 1 55 19 is_stmt 0 view .LVU45
 232 003a 2D1B     		subs	r5, r5, r4
 233              	.LVL20:
 234              	.LBB8:
  59:Drivers/ST7789V/st7789v.c **** 		buff_size -= chunk_size;
 235              		.loc 1 59 8 view .LVU46
 236 003c 2644     		add	r6, r6, r4
 237              	.LVL21:
  60:Drivers/ST7789V/st7789v.c **** 	}
 238              		.loc 1 60 3 is_stmt 1 view .LVU47
  60:Drivers/ST7789V/st7789v.c **** 	}
 239              		.loc 1 60 3 is_stmt 0 view .LVU48
 240              	.LBE8:
  55:Drivers/ST7789V/st7789v.c **** 		uint16_t chunk_size = buff_size > 65535 ? 65535 : buff_size;
 241              		.loc 1 55 19 is_stmt 1 view .LVU49
ARM GAS  /var/folders/lp/x54gwt890xv47sdkqj1k04q40000gn/T//ccAXhYZq.s 			page 7


 242 003e F2D1     		bne	.L12
 243              	.LVL22:
 244              	.L11:
  62:Drivers/ST7789V/st7789v.c **** 
 245              		.loc 1 62 2 view .LVU50
  64:Drivers/ST7789V/st7789v.c **** /**
 246              		.loc 1 64 1 is_stmt 0 view .LVU51
 247 0040 BDE8F041 		pop	{r4, r5, r6, r7, r8, lr}
 248              		.cfi_restore 14
 249              		.cfi_restore 8
 250              		.cfi_restore 7
 251              		.cfi_restore 6
 252              		.cfi_restore 5
 253              		.cfi_restore 4
 254              		.cfi_def_cfa_offset 0
 255              	.LVL23:
  62:Drivers/ST7789V/st7789v.c **** 
 256              		.loc 1 62 2 view .LVU52
 257 0044 0248     		ldr	r0, .L18
 258 0046 0122     		movs	r2, #1
 259 0048 0421     		movs	r1, #4
 260 004a FFF7FEBF 		b	HAL_GPIO_WritePin
 261              	.LVL24:
 262              	.L19:
 263 004e 00BF     		.align	2
 264              	.L18:
 265 0050 00000240 		.word	1073872896
 266 0054 00000000 		.word	hspi1
 267              		.cfi_endproc
 268              	.LFE243:
 270              		.section	.text.ST7789V_SetRotation,"ax",%progbits
 271              		.align	1
 272              		.p2align 2,,3
 273              		.global	ST7789V_SetRotation
 274              		.syntax unified
 275              		.thumb
 276              		.thumb_func
 278              	ST7789V_SetRotation:
 279              	.LVL25:
 280              	.LFB245:
  77:Drivers/ST7789V/st7789v.c **** 
  78:Drivers/ST7789V/st7789v.c **** /**
  79:Drivers/ST7789V/st7789v.c ****  * @brief Set the rotation direction of the display
  80:Drivers/ST7789V/st7789v.c ****  * @param m -> rotation parameter(please refer it in ST7789V.h)
  81:Drivers/ST7789V/st7789v.c ****  * @return none
  82:Drivers/ST7789V/st7789v.c ****  */
  83:Drivers/ST7789V/st7789v.c **** void ST7789V_SetRotation(uint8_t m)
  84:Drivers/ST7789V/st7789v.c **** {
 281              		.loc 1 84 1 is_stmt 1 view -0
 282              		.cfi_startproc
 283              		@ args = 0, pretend = 0, frame = 0
 284              		@ frame_needed = 0, uses_anonymous_args = 0
  85:Drivers/ST7789V/st7789v.c **** 	ST7789V_WriteCommand(ST7789V_MADCTL);	// MADCTL
 285              		.loc 1 85 2 view .LVU54
  84:Drivers/ST7789V/st7789v.c **** 	ST7789V_WriteCommand(ST7789V_MADCTL);	// MADCTL
 286              		.loc 1 84 1 is_stmt 0 view .LVU55
 287 0000 10B5     		push	{r4, lr}
ARM GAS  /var/folders/lp/x54gwt890xv47sdkqj1k04q40000gn/T//ccAXhYZq.s 			page 8


 288              		.cfi_def_cfa_offset 8
 289              		.cfi_offset 4, -8
 290              		.cfi_offset 14, -4
  84:Drivers/ST7789V/st7789v.c **** 	ST7789V_WriteCommand(ST7789V_MADCTL);	// MADCTL
 291              		.loc 1 84 1 view .LVU56
 292 0002 0446     		mov	r4, r0
 293              		.loc 1 85 2 view .LVU57
 294 0004 3620     		movs	r0, #54
 295              	.LVL26:
 296              		.loc 1 85 2 view .LVU58
 297 0006 FFF7FEFF 		bl	ST7789V_WriteCommand
 298              	.LVL27:
  86:Drivers/ST7789V/st7789v.c **** 	switch (m) {
 299              		.loc 1 86 2 is_stmt 1 view .LVU59
 300 000a 032C     		cmp	r4, #3
 301 000c 17D8     		bhi	.L20
 302 000e DFE804F0 		tbb	[pc, r4]
 303              	.L23:
 304 0012 11       		.byte	(.L26-.L23)/2
 305 0013 0C       		.byte	(.L25-.L23)/2
 306 0014 07       		.byte	(.L24-.L23)/2
 307 0015 02       		.byte	(.L22-.L23)/2
 308              		.p2align 1
 309              	.L22:
  87:Drivers/ST7789V/st7789v.c **** 	case 0:
  88:Drivers/ST7789V/st7789v.c **** 		ST7789V_WriteSmallData(ST7789V_MADCTL_MX | ST7789V_MADCTL_MY | ST7789V_MADCTL_RGB);
  89:Drivers/ST7789V/st7789v.c **** 		break;
  90:Drivers/ST7789V/st7789v.c **** 	case 1:
  91:Drivers/ST7789V/st7789v.c **** 		ST7789V_WriteSmallData(ST7789V_MADCTL_MY | ST7789V_MADCTL_MV | ST7789V_MADCTL_RGB);
  92:Drivers/ST7789V/st7789v.c **** 		break;
  93:Drivers/ST7789V/st7789v.c **** 	case 2:
  94:Drivers/ST7789V/st7789v.c **** 		ST7789V_WriteSmallData(ST7789V_MADCTL_RGB);
  95:Drivers/ST7789V/st7789v.c **** 		break;
  96:Drivers/ST7789V/st7789v.c **** 	case 3:
  97:Drivers/ST7789V/st7789v.c **** 		ST7789V_WriteSmallData(ST7789V_MADCTL_MX | ST7789V_MADCTL_MV | ST7789V_MADCTL_RGB);
 310              		.loc 1 97 3 view .LVU60
  98:Drivers/ST7789V/st7789v.c **** 		break;
  99:Drivers/ST7789V/st7789v.c **** 	default:
 100:Drivers/ST7789V/st7789v.c **** 		break;
 101:Drivers/ST7789V/st7789v.c **** 	}
 102:Drivers/ST7789V/st7789v.c **** }
 311              		.loc 1 102 1 is_stmt 0 view .LVU61
 312 0016 BDE81040 		pop	{r4, lr}
 313              		.cfi_remember_state
 314              		.cfi_restore 14
 315              		.cfi_restore 4
 316              		.cfi_def_cfa_offset 0
 317              	.LVL28:
  97:Drivers/ST7789V/st7789v.c **** 		break;
 318              		.loc 1 97 3 view .LVU62
 319 001a 6020     		movs	r0, #96
 320 001c FFF7FEBF 		b	ST7789V_WriteSmallData
 321              	.LVL29:
 322              	.L24:
 323              		.cfi_restore_state
  94:Drivers/ST7789V/st7789v.c **** 		break;
 324              		.loc 1 94 3 is_stmt 1 view .LVU63
ARM GAS  /var/folders/lp/x54gwt890xv47sdkqj1k04q40000gn/T//ccAXhYZq.s 			page 9


 325              		.loc 1 102 1 is_stmt 0 view .LVU64
 326 0020 BDE81040 		pop	{r4, lr}
 327              		.cfi_remember_state
 328              		.cfi_restore 14
 329              		.cfi_restore 4
 330              		.cfi_def_cfa_offset 0
  94:Drivers/ST7789V/st7789v.c **** 		break;
 331              		.loc 1 94 3 view .LVU65
 332 0024 0020     		movs	r0, #0
 333 0026 FFF7FEBF 		b	ST7789V_WriteSmallData
 334              	.LVL30:
 335              	.L25:
 336              		.cfi_restore_state
  91:Drivers/ST7789V/st7789v.c **** 		break;
 337              		.loc 1 91 3 is_stmt 1 view .LVU66
 338              		.loc 1 102 1 is_stmt 0 view .LVU67
 339 002a BDE81040 		pop	{r4, lr}
 340              		.cfi_remember_state
 341              		.cfi_restore 14
 342              		.cfi_restore 4
 343              		.cfi_def_cfa_offset 0
  91:Drivers/ST7789V/st7789v.c **** 		break;
 344              		.loc 1 91 3 view .LVU68
 345 002e A020     		movs	r0, #160
 346 0030 FFF7FEBF 		b	ST7789V_WriteSmallData
 347              	.LVL31:
 348              	.L26:
 349              		.cfi_restore_state
 350              	.LBB11:
 351              	.LBI11:
  83:Drivers/ST7789V/st7789v.c **** {
 352              		.loc 1 83 6 is_stmt 1 view .LVU69
 353              	.LBB12:
  88:Drivers/ST7789V/st7789v.c **** 		break;
 354              		.loc 1 88 3 view .LVU70
 355              	.LBE12:
 356              	.LBE11:
 357              		.loc 1 102 1 is_stmt 0 view .LVU71
 358 0034 BDE81040 		pop	{r4, lr}
 359              		.cfi_remember_state
 360              		.cfi_restore 14
 361              		.cfi_restore 4
 362              		.cfi_def_cfa_offset 0
 363              	.LBB14:
 364              	.LBB13:
  88:Drivers/ST7789V/st7789v.c **** 		break;
 365              		.loc 1 88 3 view .LVU72
 366 0038 C020     		movs	r0, #192
 367 003a FFF7FEBF 		b	ST7789V_WriteSmallData
 368              	.LVL32:
 369              	.L20:
 370              		.cfi_restore_state
  88:Drivers/ST7789V/st7789v.c **** 		break;
 371              		.loc 1 88 3 view .LVU73
 372              	.LBE13:
 373              	.LBE14:
 374              		.loc 1 102 1 view .LVU74
ARM GAS  /var/folders/lp/x54gwt890xv47sdkqj1k04q40000gn/T//ccAXhYZq.s 			page 10


 375 003e 10BD     		pop	{r4, pc}
 376              		.cfi_endproc
 377              	.LFE245:
 379              		.section	.text.ST7789V_SetAddressWindow,"ax",%progbits
 380              		.align	1
 381              		.p2align 2,,3
 382              		.global	ST7789V_SetAddressWindow
 383              		.syntax unified
 384              		.thumb
 385              		.thumb_func
 387              	ST7789V_SetAddressWindow:
 388              	.LVL33:
 389              	.LFB246:
 103:Drivers/ST7789V/st7789v.c **** 
 104:Drivers/ST7789V/st7789v.c **** /**
 105:Drivers/ST7789V/st7789v.c ****  * @brief Set address of DisplayWindow
 106:Drivers/ST7789V/st7789v.c ****  * @param xi&yi -> coordinates of window
 107:Drivers/ST7789V/st7789v.c ****  * @return none
 108:Drivers/ST7789V/st7789v.c ****  */
 109:Drivers/ST7789V/st7789v.c **** void ST7789V_SetAddressWindow(uint16_t x0, uint16_t y0, uint16_t x1, uint16_t y1)
 110:Drivers/ST7789V/st7789v.c **** {
 390              		.loc 1 110 1 is_stmt 1 view -0
 391              		.cfi_startproc
 392              		@ args = 0, pretend = 0, frame = 8
 393              		@ frame_needed = 0, uses_anonymous_args = 0
 111:Drivers/ST7789V/st7789v.c **** 	// ST7789V_Select();
 112:Drivers/ST7789V/st7789v.c **** 	uint16_t x_start = x0 + X_SHIFT, x_end = x1 + X_SHIFT;
 394              		.loc 1 112 2 view .LVU76
 110:Drivers/ST7789V/st7789v.c **** 	// ST7789V_Select();
 395              		.loc 1 110 1 is_stmt 0 view .LVU77
 396 0000 2DE9F041 		push	{r4, r5, r6, r7, r8, lr}
 397              		.cfi_def_cfa_offset 24
 398              		.cfi_offset 4, -24
 399              		.cfi_offset 5, -20
 400              		.cfi_offset 6, -16
 401              		.cfi_offset 7, -12
 402              		.cfi_offset 8, -8
 403              		.cfi_offset 14, -4
 404 0004 8046     		mov	r8, r0
 405 0006 82B0     		sub	sp, sp, #8
 406              		.cfi_def_cfa_offset 32
 113:Drivers/ST7789V/st7789v.c **** 	uint16_t y_start = y0 + Y_SHIFT, y_end = y1 + Y_SHIFT;
 114:Drivers/ST7789V/st7789v.c **** 	
 115:Drivers/ST7789V/st7789v.c **** 	/* Column Address set */
 116:Drivers/ST7789V/st7789v.c **** 	ST7789V_WriteCommand(ST7789V_CASET); 
 407              		.loc 1 116 2 view .LVU78
 408 0008 2A20     		movs	r0, #42
 409              	.LVL34:
 110:Drivers/ST7789V/st7789v.c **** 	// ST7789V_Select();
 410              		.loc 1 110 1 view .LVU79
 411 000a 1746     		mov	r7, r2
 412              	.LVL35:
 113:Drivers/ST7789V/st7789v.c **** 	uint16_t y_start = y0 + Y_SHIFT, y_end = y1 + Y_SHIFT;
 413              		.loc 1 113 2 is_stmt 1 view .LVU80
 110:Drivers/ST7789V/st7789v.c **** 	// ST7789V_Select();
 414              		.loc 1 110 1 is_stmt 0 view .LVU81
 415 000c 0E46     		mov	r6, r1
ARM GAS  /var/folders/lp/x54gwt890xv47sdkqj1k04q40000gn/T//ccAXhYZq.s 			page 11


 416              	.LVL36:
 110:Drivers/ST7789V/st7789v.c **** 	// ST7789V_Select();
 417              		.loc 1 110 1 view .LVU82
 418 000e 1D46     		mov	r5, r3
 419              	.LVL37:
 420              		.loc 1 116 2 is_stmt 1 view .LVU83
 421              	.LBB15:
 117:Drivers/ST7789V/st7789v.c **** 	{
 118:Drivers/ST7789V/st7789v.c **** 		uint8_t data[] = {x_start >> 8, x_start & 0xFF, x_end >> 8, x_end & 0xFF};
 422              		.loc 1 118 11 is_stmt 0 view .LVU84
 423 0010 0024     		movs	r4, #0
 424              	.LBE15:
 116:Drivers/ST7789V/st7789v.c **** 	{
 425              		.loc 1 116 2 view .LVU85
 426 0012 FFF7FEFF 		bl	ST7789V_WriteCommand
 427              	.LVL38:
 428              	.LBB16:
 429              		.loc 1 118 3 is_stmt 1 view .LVU86
 430              		.loc 1 118 11 is_stmt 0 view .LVU87
 431 0016 4FEA1823 		lsr	r3, r8, #8
 432 001a 63F30704 		bfi	r4, r3, #0, #8
 433              	.LVL39:
 434              		.loc 1 118 11 view .LVU88
 435 001e 68F30F24 		bfi	r4, r8, #8, #8
 436 0022 3B0A     		lsrs	r3, r7, #8
 119:Drivers/ST7789V/st7789v.c **** 		ST7789V_WriteData(data, sizeof(data));
 437              		.loc 1 119 3 view .LVU89
 438 0024 0421     		movs	r1, #4
 118:Drivers/ST7789V/st7789v.c **** 		ST7789V_WriteData(data, sizeof(data));
 439              		.loc 1 118 11 view .LVU90
 440 0026 63F31744 		bfi	r4, r3, #16, #8
 441              		.loc 1 119 3 view .LVU91
 442 002a 0DEB0100 		add	r0, sp, r1
 118:Drivers/ST7789V/st7789v.c **** 		ST7789V_WriteData(data, sizeof(data));
 443              		.loc 1 118 11 view .LVU92
 444 002e 67F31F64 		bfi	r4, r7, #24, #8
 445 0032 0194     		str	r4, [sp, #4]
 446              		.loc 1 119 3 is_stmt 1 view .LVU93
 447 0034 FFF7FEFF 		bl	ST7789V_WriteData
 448              	.LVL40:
 449              	.LBE16:
 120:Drivers/ST7789V/st7789v.c **** 	}
 121:Drivers/ST7789V/st7789v.c **** 
 122:Drivers/ST7789V/st7789v.c **** 	/* Row Address set */
 123:Drivers/ST7789V/st7789v.c **** 	ST7789V_WriteCommand(ST7789V_RASET);
 450              		.loc 1 123 2 view .LVU94
 451 0038 2B20     		movs	r0, #43
 452 003a FFF7FEFF 		bl	ST7789V_WriteCommand
 453              	.LVL41:
 454              	.LBB17:
 124:Drivers/ST7789V/st7789v.c **** 	{
 125:Drivers/ST7789V/st7789v.c **** 		uint8_t data[] = {y_start >> 8, y_start & 0xFF, y_end >> 8, y_end & 0xFF};
 455              		.loc 1 125 3 view .LVU95
 456              		.loc 1 125 11 is_stmt 0 view .LVU96
 457 003e 330A     		lsrs	r3, r6, #8
 458 0040 0022     		movs	r2, #0
 459 0042 63F30702 		bfi	r2, r3, #0, #8
ARM GAS  /var/folders/lp/x54gwt890xv47sdkqj1k04q40000gn/T//ccAXhYZq.s 			page 12


 460              	.LVL42:
 461              		.loc 1 125 11 view .LVU97
 462 0046 66F30F22 		bfi	r2, r6, #8, #8
 463 004a 2B0A     		lsrs	r3, r5, #8
 464 004c 63F31742 		bfi	r2, r3, #16, #8
 126:Drivers/ST7789V/st7789v.c **** 		ST7789V_WriteData(data, sizeof(data));
 465              		.loc 1 126 3 view .LVU98
 466 0050 0421     		movs	r1, #4
 125:Drivers/ST7789V/st7789v.c **** 		ST7789V_WriteData(data, sizeof(data));
 467              		.loc 1 125 11 view .LVU99
 468 0052 65F31F62 		bfi	r2, r5, #24, #8
 469              		.loc 1 126 3 view .LVU100
 470 0056 0DEB0100 		add	r0, sp, r1
 125:Drivers/ST7789V/st7789v.c **** 		ST7789V_WriteData(data, sizeof(data));
 471              		.loc 1 125 11 view .LVU101
 472 005a 0192     		str	r2, [sp, #4]
 473              		.loc 1 126 3 is_stmt 1 view .LVU102
 474 005c FFF7FEFF 		bl	ST7789V_WriteData
 475              	.LVL43:
 476              	.LBE17:
 127:Drivers/ST7789V/st7789v.c **** 	}
 128:Drivers/ST7789V/st7789v.c **** 	/* Write to RAM */
 129:Drivers/ST7789V/st7789v.c **** 	ST7789V_WriteCommand(ST7789V_RAMWR);
 477              		.loc 1 129 2 view .LVU103
 478 0060 2C20     		movs	r0, #44
 130:Drivers/ST7789V/st7789v.c **** 	// ST7789V_UnSelect();
 131:Drivers/ST7789V/st7789v.c **** }
 479              		.loc 1 131 1 is_stmt 0 view .LVU104
 480 0062 02B0     		add	sp, sp, #8
 481              		.cfi_def_cfa_offset 24
 482              		@ sp needed
 483 0064 BDE8F041 		pop	{r4, r5, r6, r7, r8, lr}
 484              		.cfi_restore 14
 485              		.cfi_restore 8
 486              		.cfi_restore 7
 487              		.cfi_restore 6
 488              		.cfi_restore 5
 489              		.cfi_restore 4
 490              		.cfi_def_cfa_offset 0
 491              	.LVL44:
 129:Drivers/ST7789V/st7789v.c **** 	// ST7789V_UnSelect();
 492              		.loc 1 129 2 view .LVU105
 493 0068 FFF7FEBF 		b	ST7789V_WriteCommand
 494              	.LVL45:
 495              		.cfi_endproc
 496              	.LFE246:
 498              		.section	.text.ST7789V_DrawPixel.part.0,"ax",%progbits
 499              		.align	1
 500              		.p2align 2,,3
 501              		.syntax unified
 502              		.thumb
 503              		.thumb_func
 505              	ST7789V_DrawPixel.part.0:
 506              	.LVL46:
 507              	.LFB270:
 132:Drivers/ST7789V/st7789v.c **** 
 133:Drivers/ST7789V/st7789v.c **** /**
ARM GAS  /var/folders/lp/x54gwt890xv47sdkqj1k04q40000gn/T//ccAXhYZq.s 			page 13


 134:Drivers/ST7789V/st7789v.c ****  * @brief Initialize ST7789V controller
 135:Drivers/ST7789V/st7789v.c ****  * @param none
 136:Drivers/ST7789V/st7789v.c ****  * @return none
 137:Drivers/ST7789V/st7789v.c ****  */
 138:Drivers/ST7789V/st7789v.c **** void ST7789V_Init(void)
 139:Drivers/ST7789V/st7789v.c **** {
 140:Drivers/ST7789V/st7789v.c **** 	// #ifdef USE_DMA
 141:Drivers/ST7789V/st7789v.c **** 	// 	memset(disp_buf, 0, sizeof(disp_buf));
 142:Drivers/ST7789V/st7789v.c **** 	// #endif
 143:Drivers/ST7789V/st7789v.c **** 	
 144:Drivers/ST7789V/st7789v.c **** 	HAL_Delay(50);
 145:Drivers/ST7789V/st7789v.c **** 	ST7789V_DC_Set();
 146:Drivers/ST7789V/st7789v.c **** 	HAL_Delay(50);
 147:Drivers/ST7789V/st7789v.c **** 	ST7789V_RST_Clr();
 148:Drivers/ST7789V/st7789v.c ****     HAL_Delay(25);
 149:Drivers/ST7789V/st7789v.c ****     ST7789V_RST_Set();
 150:Drivers/ST7789V/st7789v.c **** 	HAL_Delay(25);
 151:Drivers/ST7789V/st7789v.c ****     
 152:Drivers/ST7789V/st7789v.c **** 	ST7789V_WriteCommand(ST7789V_MADCTL); 
 153:Drivers/ST7789V/st7789v.c **** 	ST7789V_WriteSmallData(0x00); 
 154:Drivers/ST7789V/st7789v.c **** 
 155:Drivers/ST7789V/st7789v.c **** 	ST7789V_WriteCommand(ST7789V_COLMOD); 
 156:Drivers/ST7789V/st7789v.c **** 	ST7789V_WriteSmallData(0x05);
 157:Drivers/ST7789V/st7789v.c **** 
 158:Drivers/ST7789V/st7789v.c **** 	ST7789V_WriteCommand(ST7789V_INVON); 
 159:Drivers/ST7789V/st7789v.c **** 
 160:Drivers/ST7789V/st7789v.c **** 	ST7789V_WriteCommand(ST7789V_CASET);
 161:Drivers/ST7789V/st7789v.c **** 	ST7789V_WriteSmallData(0x00);
 162:Drivers/ST7789V/st7789v.c **** 	ST7789V_WriteSmallData(0x00);
 163:Drivers/ST7789V/st7789v.c **** 	ST7789V_WriteSmallData(0x01);
 164:Drivers/ST7789V/st7789v.c **** 	ST7789V_WriteSmallData(0x3F);
 165:Drivers/ST7789V/st7789v.c **** 
 166:Drivers/ST7789V/st7789v.c **** 	ST7789V_WriteCommand(ST7789V_RASET);
 167:Drivers/ST7789V/st7789v.c **** 	ST7789V_WriteSmallData(0x00);
 168:Drivers/ST7789V/st7789v.c **** 	ST7789V_WriteSmallData(0x00);
 169:Drivers/ST7789V/st7789v.c **** 	ST7789V_WriteSmallData(0x00);
 170:Drivers/ST7789V/st7789v.c **** 	ST7789V_WriteSmallData(0xEF);
 171:Drivers/ST7789V/st7789v.c **** 
 172:Drivers/ST7789V/st7789v.c **** 	ST7789V_WriteCommand(ST7789V_PORCTRL);
 173:Drivers/ST7789V/st7789v.c **** 	ST7789V_WriteSmallData(0x0C);
 174:Drivers/ST7789V/st7789v.c **** 	ST7789V_WriteSmallData(0x0C);
 175:Drivers/ST7789V/st7789v.c **** 	ST7789V_WriteSmallData(0x00);
 176:Drivers/ST7789V/st7789v.c **** 	ST7789V_WriteSmallData(0x33);
 177:Drivers/ST7789V/st7789v.c **** 	ST7789V_WriteSmallData(0x33);
 178:Drivers/ST7789V/st7789v.c **** 
 179:Drivers/ST7789V/st7789v.c **** 	
 180:Drivers/ST7789V/st7789v.c **** 
 181:Drivers/ST7789V/st7789v.c **** 	ST7789V_WriteCommand(ST7789V_GCTRL);
 182:Drivers/ST7789V/st7789v.c **** 	ST7789V_WriteSmallData(0x35); 
 183:Drivers/ST7789V/st7789v.c **** 
 184:Drivers/ST7789V/st7789v.c **** 	ST7789V_WriteCommand(ST7789V_VCOMS);
 185:Drivers/ST7789V/st7789v.c **** 	ST7789V_WriteSmallData(0x1F);
 186:Drivers/ST7789V/st7789v.c **** 
 187:Drivers/ST7789V/st7789v.c **** 	ST7789V_WriteCommand(ST7789V_LCMCTRL);
 188:Drivers/ST7789V/st7789v.c **** 	ST7789V_WriteSmallData(0x2C);
 189:Drivers/ST7789V/st7789v.c **** 
 190:Drivers/ST7789V/st7789v.c **** 	ST7789V_WriteCommand(ST7789V_VDVVRHEN);
ARM GAS  /var/folders/lp/x54gwt890xv47sdkqj1k04q40000gn/T//ccAXhYZq.s 			page 14


 191:Drivers/ST7789V/st7789v.c **** 	ST7789V_WriteSmallData(0x01);
 192:Drivers/ST7789V/st7789v.c **** 
 193:Drivers/ST7789V/st7789v.c **** 	ST7789V_WriteCommand(ST7789V_VRHS);
 194:Drivers/ST7789V/st7789v.c **** 	ST7789V_WriteSmallData(0x12);   
 195:Drivers/ST7789V/st7789v.c **** 
 196:Drivers/ST7789V/st7789v.c **** 	ST7789V_WriteCommand(ST7789V_VDVSET);
 197:Drivers/ST7789V/st7789v.c **** 	ST7789V_WriteSmallData(0x20);
 198:Drivers/ST7789V/st7789v.c **** 
 199:Drivers/ST7789V/st7789v.c **** 	ST7789V_WriteCommand(ST7789V_FRCTLR2);
 200:Drivers/ST7789V/st7789v.c **** 	ST7789V_WriteSmallData(0x0F); 
 201:Drivers/ST7789V/st7789v.c **** 
 202:Drivers/ST7789V/st7789v.c **** 	ST7789V_WriteCommand(ST7789V_PWCTRL1);
 203:Drivers/ST7789V/st7789v.c **** 	ST7789V_WriteSmallData(0xA4);
 204:Drivers/ST7789V/st7789v.c **** 	ST7789V_WriteSmallData(0xA1);
 205:Drivers/ST7789V/st7789v.c **** 
 206:Drivers/ST7789V/st7789v.c **** 	ST7789V_WriteCommand(ST7789V_PVGAMCTRL);
 207:Drivers/ST7789V/st7789v.c **** 	ST7789V_WriteSmallData(0xD0);
 208:Drivers/ST7789V/st7789v.c **** 	ST7789V_WriteSmallData(0x08);
 209:Drivers/ST7789V/st7789v.c **** 	ST7789V_WriteSmallData(0x11);
 210:Drivers/ST7789V/st7789v.c **** 	ST7789V_WriteSmallData(0x08);
 211:Drivers/ST7789V/st7789v.c **** 	ST7789V_WriteSmallData(0x0C);
 212:Drivers/ST7789V/st7789v.c **** 	ST7789V_WriteSmallData(0x15);
 213:Drivers/ST7789V/st7789v.c **** 	ST7789V_WriteSmallData(0x39);
 214:Drivers/ST7789V/st7789v.c **** 	ST7789V_WriteSmallData(0x33);
 215:Drivers/ST7789V/st7789v.c **** 	ST7789V_WriteSmallData(0x50);
 216:Drivers/ST7789V/st7789v.c **** 	ST7789V_WriteSmallData(0x36);
 217:Drivers/ST7789V/st7789v.c **** 	ST7789V_WriteSmallData(0x13);
 218:Drivers/ST7789V/st7789v.c **** 	ST7789V_WriteSmallData(0x14);
 219:Drivers/ST7789V/st7789v.c **** 	ST7789V_WriteSmallData(0x29);
 220:Drivers/ST7789V/st7789v.c **** 	ST7789V_WriteSmallData(0x2D);
 221:Drivers/ST7789V/st7789v.c **** 
 222:Drivers/ST7789V/st7789v.c **** 	ST7789V_WriteCommand(ST7789V_NVGAMCTRL);
 223:Drivers/ST7789V/st7789v.c **** 	ST7789V_WriteSmallData(0xD0);
 224:Drivers/ST7789V/st7789v.c **** 	ST7789V_WriteSmallData(0x08);
 225:Drivers/ST7789V/st7789v.c **** 	ST7789V_WriteSmallData(0x10);
 226:Drivers/ST7789V/st7789v.c **** 	ST7789V_WriteSmallData(0x08);
 227:Drivers/ST7789V/st7789v.c **** 	ST7789V_WriteSmallData(0x06);
 228:Drivers/ST7789V/st7789v.c **** 	ST7789V_WriteSmallData(0x06);
 229:Drivers/ST7789V/st7789v.c **** 	ST7789V_WriteSmallData(0x39);
 230:Drivers/ST7789V/st7789v.c **** 	ST7789V_WriteSmallData(0x44);
 231:Drivers/ST7789V/st7789v.c **** 	ST7789V_WriteSmallData(0x51);
 232:Drivers/ST7789V/st7789v.c **** 	ST7789V_WriteSmallData(0x0B);
 233:Drivers/ST7789V/st7789v.c **** 	ST7789V_WriteSmallData(0x16);
 234:Drivers/ST7789V/st7789v.c **** 	ST7789V_WriteSmallData(0x14);
 235:Drivers/ST7789V/st7789v.c **** 	ST7789V_WriteSmallData(0x2F);
 236:Drivers/ST7789V/st7789v.c **** 	ST7789V_WriteSmallData(0x31);
 237:Drivers/ST7789V/st7789v.c **** 
 238:Drivers/ST7789V/st7789v.c ****     ST7789V_WriteCommand (ST7789V_INVON);		//	Inversion ON
 239:Drivers/ST7789V/st7789v.c **** 	ST7789V_WriteCommand (ST7789V_SLPOUT);	//	Out of sleep mode
 240:Drivers/ST7789V/st7789v.c ****   	ST7789V_WriteCommand (ST7789V_NORON);		//	Normal Display on
 241:Drivers/ST7789V/st7789v.c ****   	ST7789V_WriteCommand (ST7789V_DISPON);	//	Main screen turned on	
 242:Drivers/ST7789V/st7789v.c **** 
 243:Drivers/ST7789V/st7789v.c **** 	HAL_Delay(50);
 244:Drivers/ST7789V/st7789v.c **** 	ST7789V_SetRotation(3);
 245:Drivers/ST7789V/st7789v.c **** 	// ST7789V_Fill_Color(BLACK);				//	Fill with Black.
 246:Drivers/ST7789V/st7789v.c **** }
 247:Drivers/ST7789V/st7789v.c **** 
ARM GAS  /var/folders/lp/x54gwt890xv47sdkqj1k04q40000gn/T//ccAXhYZq.s 			page 15


 248:Drivers/ST7789V/st7789v.c **** 
 249:Drivers/ST7789V/st7789v.c **** /* memset function */
 250:Drivers/ST7789V/st7789v.c **** /* Thanks to  BTurc.2 for the fix*/
 251:Drivers/ST7789V/st7789v.c **** /*https://community.st.com/t5/stm32-mcus-products/using-spi-with-dma/td-p/571681/page/2*/
 252:Drivers/ST7789V/st7789v.c **** void MemsetBuffer(uint16_t *buf, uint16_t data, uint32_t size)
 253:Drivers/ST7789V/st7789v.c **** {
 254:Drivers/ST7789V/st7789v.c **** 	for (uint32_t contador = 0; contador < size; contador++)
 255:Drivers/ST7789V/st7789v.c **** 	{			
 256:Drivers/ST7789V/st7789v.c **** 		buf[contador] = data;
 257:Drivers/ST7789V/st7789v.c **** 	}
 258:Drivers/ST7789V/st7789v.c **** }
 259:Drivers/ST7789V/st7789v.c **** 
 260:Drivers/ST7789V/st7789v.c **** 
 261:Drivers/ST7789V/st7789v.c **** 
 262:Drivers/ST7789V/st7789v.c **** /**
 263:Drivers/ST7789V/st7789v.c ****  * @brief Fill the DisplayWindow with single color
 264:Drivers/ST7789V/st7789v.c ****  * @param color -> color to Fill with
 265:Drivers/ST7789V/st7789v.c ****  * @return none
 266:Drivers/ST7789V/st7789v.c ****  */
 267:Drivers/ST7789V/st7789v.c **** void ST7789V_Fill_Color(uint16_t color)
 268:Drivers/ST7789V/st7789v.c **** {
 269:Drivers/ST7789V/st7789v.c **** 	uint16_t i, convert_color;
 270:Drivers/ST7789V/st7789v.c **** 	ST7789V_SetAddressWindow(0, 0, ST7789V_WIDTH - 1, ST7789V_HEIGHT - 1);
 271:Drivers/ST7789V/st7789v.c **** 	ST7789V_Select();
 272:Drivers/ST7789V/st7789v.c **** 
 273:Drivers/ST7789V/st7789v.c **** 	convert_color = (uint16_t)(color << 8) | (color >> 8);
 274:Drivers/ST7789V/st7789v.c **** 
 275:Drivers/ST7789V/st7789v.c **** 	#ifdef USE_DMA
 276:Drivers/ST7789V/st7789v.c **** 		for (i = 0; i < ST7789V_HEIGHT / HOR_LEN; i++)
 277:Drivers/ST7789V/st7789v.c **** 		{
 278:Drivers/ST7789V/st7789v.c **** 			MemsetBuffer(disp_buf, convert_color, sizeof(disp_buf));
 279:Drivers/ST7789V/st7789v.c **** 			ST7789V_WriteData(disp_buf, sizeof(disp_buf));
 280:Drivers/ST7789V/st7789v.c **** 		}
 281:Drivers/ST7789V/st7789v.c **** 	#else
 282:Drivers/ST7789V/st7789v.c **** 		uint16_t j;
 283:Drivers/ST7789V/st7789v.c **** 		for (i = 0; i < ST7789V_WIDTH; i++)
 284:Drivers/ST7789V/st7789v.c **** 				for (j = 0; j < ST7789V_HEIGHT; j++) {
 285:Drivers/ST7789V/st7789v.c **** 					uint8_t data[] = {color >> 8, color & 0xFF};
 286:Drivers/ST7789V/st7789v.c **** 					ST7789V_WriteData(data, sizeof(data));
 287:Drivers/ST7789V/st7789v.c **** 				}
 288:Drivers/ST7789V/st7789v.c **** 	#endif
 289:Drivers/ST7789V/st7789v.c **** 	ST7789V_UnSelect();
 290:Drivers/ST7789V/st7789v.c **** }
 291:Drivers/ST7789V/st7789v.c **** 
 292:Drivers/ST7789V/st7789v.c **** /**
 293:Drivers/ST7789V/st7789v.c ****  * @brief Draw a Pixel
 294:Drivers/ST7789V/st7789v.c ****  * @param x&y -> coordinate to Draw
 295:Drivers/ST7789V/st7789v.c ****  * @param color -> color of the Pixel
 296:Drivers/ST7789V/st7789v.c ****  * @return none
 297:Drivers/ST7789V/st7789v.c ****  */
 298:Drivers/ST7789V/st7789v.c **** void ST7789V_DrawPixel(uint16_t x, uint16_t y, uint16_t color)
 508              		.loc 1 298 6 is_stmt 1 view -0
 509              		.cfi_startproc
 510              		@ args = 0, pretend = 0, frame = 8
 511              		@ frame_needed = 0, uses_anonymous_args = 0
 299:Drivers/ST7789V/st7789v.c **** {
 300:Drivers/ST7789V/st7789v.c **** 	if ((x < 0) || (x >= ST7789V_WIDTH) ||
ARM GAS  /var/folders/lp/x54gwt890xv47sdkqj1k04q40000gn/T//ccAXhYZq.s 			page 16


 301:Drivers/ST7789V/st7789v.c **** 		 (y < 0) || (y >= ST7789V_HEIGHT))	return;
 302:Drivers/ST7789V/st7789v.c **** 	
 303:Drivers/ST7789V/st7789v.c **** 	ST7789V_SetAddressWindow(x, y, x, y);
 512              		.loc 1 303 2 view .LVU107
 298:Drivers/ST7789V/st7789v.c **** {
 513              		.loc 1 298 6 is_stmt 0 view .LVU108
 514 0000 30B5     		push	{r4, r5, lr}
 515              		.cfi_def_cfa_offset 12
 516              		.cfi_offset 4, -12
 517              		.cfi_offset 5, -8
 518              		.cfi_offset 14, -4
 304:Drivers/ST7789V/st7789v.c **** 	uint8_t data[] = {color >> 8, color & 0xFF};
 305:Drivers/ST7789V/st7789v.c **** 	ST7789V_Select();
 519              		.loc 1 305 2 view .LVU109
 520 0002 0D4D     		ldr	r5, .L32
 298:Drivers/ST7789V/st7789v.c **** {
 521              		.loc 1 298 6 view .LVU110
 522 0004 83B0     		sub	sp, sp, #12
 523              		.cfi_def_cfa_offset 24
 298:Drivers/ST7789V/st7789v.c **** {
 524              		.loc 1 298 6 view .LVU111
 525 0006 0B46     		mov	r3, r1
 526 0008 1446     		mov	r4, r2
 303:Drivers/ST7789V/st7789v.c **** 	uint8_t data[] = {color >> 8, color & 0xFF};
 527              		.loc 1 303 2 view .LVU112
 528 000a 0246     		mov	r2, r0
 529              	.LVL47:
 303:Drivers/ST7789V/st7789v.c **** 	uint8_t data[] = {color >> 8, color & 0xFF};
 530              		.loc 1 303 2 view .LVU113
 531 000c FFF7FEFF 		bl	ST7789V_SetAddressWindow
 532              	.LVL48:
 304:Drivers/ST7789V/st7789v.c **** 	uint8_t data[] = {color >> 8, color & 0xFF};
 533              		.loc 1 304 2 is_stmt 1 view .LVU114
 304:Drivers/ST7789V/st7789v.c **** 	uint8_t data[] = {color >> 8, color & 0xFF};
 534              		.loc 1 304 10 is_stmt 0 view .LVU115
 535 0010 64BA     		rev16	r4, r4
 536              	.LVL49:
 537              		.loc 1 305 2 view .LVU116
 538 0012 0022     		movs	r2, #0
 539 0014 2846     		mov	r0, r5
 540 0016 0421     		movs	r1, #4
 304:Drivers/ST7789V/st7789v.c **** 	uint8_t data[] = {color >> 8, color & 0xFF};
 541              		.loc 1 304 10 view .LVU117
 542 0018 ADF80440 		strh	r4, [sp, #4]	@ movhi
 543              		.loc 1 305 2 is_stmt 1 view .LVU118
 544 001c FFF7FEFF 		bl	HAL_GPIO_WritePin
 545              	.LVL50:
 306:Drivers/ST7789V/st7789v.c **** 	ST7789V_WriteData(data, sizeof(data));
 546              		.loc 1 306 2 view .LVU119
 547 0020 01A8     		add	r0, sp, #4
 548 0022 0221     		movs	r1, #2
 549 0024 FFF7FEFF 		bl	ST7789V_WriteData
 550              	.LVL51:
 307:Drivers/ST7789V/st7789v.c **** 	ST7789V_UnSelect();
 551              		.loc 1 307 2 view .LVU120
 552 0028 0122     		movs	r2, #1
 553 002a 0421     		movs	r1, #4
ARM GAS  /var/folders/lp/x54gwt890xv47sdkqj1k04q40000gn/T//ccAXhYZq.s 			page 17


 554 002c 2846     		mov	r0, r5
 555 002e FFF7FEFF 		bl	HAL_GPIO_WritePin
 556              	.LVL52:
 308:Drivers/ST7789V/st7789v.c **** }
 557              		.loc 1 308 1 is_stmt 0 view .LVU121
 558 0032 03B0     		add	sp, sp, #12
 559              		.cfi_def_cfa_offset 12
 560              		@ sp needed
 561 0034 30BD     		pop	{r4, r5, pc}
 562              	.L33:
 563 0036 00BF     		.align	2
 564              	.L32:
 565 0038 00000240 		.word	1073872896
 566              		.cfi_endproc
 567              	.LFE270:
 569              		.section	.text.ST7789V_Init,"ax",%progbits
 570              		.align	1
 571              		.p2align 2,,3
 572              		.global	ST7789V_Init
 573              		.syntax unified
 574              		.thumb
 575              		.thumb_func
 577              	ST7789V_Init:
 578              	.LFB247:
 139:Drivers/ST7789V/st7789v.c **** 	// #ifdef USE_DMA
 579              		.loc 1 139 1 is_stmt 1 view -0
 580              		.cfi_startproc
 581              		@ args = 0, pretend = 0, frame = 0
 582              		@ frame_needed = 0, uses_anonymous_args = 0
 144:Drivers/ST7789V/st7789v.c **** 	ST7789V_DC_Set();
 583              		.loc 1 144 2 view .LVU123
 139:Drivers/ST7789V/st7789v.c **** 	// #ifdef USE_DMA
 584              		.loc 1 139 1 is_stmt 0 view .LVU124
 585 0000 10B5     		push	{r4, lr}
 586              		.cfi_def_cfa_offset 8
 587              		.cfi_offset 4, -8
 588              		.cfi_offset 14, -4
 145:Drivers/ST7789V/st7789v.c **** 	HAL_Delay(50);
 589              		.loc 1 145 2 view .LVU125
 590 0002 7F4C     		ldr	r4, .L36
 144:Drivers/ST7789V/st7789v.c **** 	ST7789V_DC_Set();
 591              		.loc 1 144 2 view .LVU126
 592 0004 3220     		movs	r0, #50
 593 0006 FFF7FEFF 		bl	HAL_Delay
 594              	.LVL53:
 145:Drivers/ST7789V/st7789v.c **** 	HAL_Delay(50);
 595              		.loc 1 145 2 is_stmt 1 view .LVU127
 596 000a 0122     		movs	r2, #1
 597 000c 0221     		movs	r1, #2
 598 000e 2046     		mov	r0, r4
 599 0010 FFF7FEFF 		bl	HAL_GPIO_WritePin
 600              	.LVL54:
 146:Drivers/ST7789V/st7789v.c **** 	ST7789V_RST_Clr();
 601              		.loc 1 146 2 view .LVU128
 602 0014 3220     		movs	r0, #50
 603 0016 FFF7FEFF 		bl	HAL_Delay
 604              	.LVL55:
ARM GAS  /var/folders/lp/x54gwt890xv47sdkqj1k04q40000gn/T//ccAXhYZq.s 			page 18


 147:Drivers/ST7789V/st7789v.c ****     HAL_Delay(25);
 605              		.loc 1 147 2 view .LVU129
 606 001a 0022     		movs	r2, #0
 607 001c 0821     		movs	r1, #8
 608 001e 2046     		mov	r0, r4
 609 0020 FFF7FEFF 		bl	HAL_GPIO_WritePin
 610              	.LVL56:
 148:Drivers/ST7789V/st7789v.c ****     ST7789V_RST_Set();
 611              		.loc 1 148 5 view .LVU130
 612 0024 1920     		movs	r0, #25
 613 0026 FFF7FEFF 		bl	HAL_Delay
 614              	.LVL57:
 149:Drivers/ST7789V/st7789v.c **** 	HAL_Delay(25);
 615              		.loc 1 149 5 view .LVU131
 616 002a 0122     		movs	r2, #1
 617 002c 0821     		movs	r1, #8
 618 002e 2046     		mov	r0, r4
 619 0030 FFF7FEFF 		bl	HAL_GPIO_WritePin
 620              	.LVL58:
 150:Drivers/ST7789V/st7789v.c ****     
 621              		.loc 1 150 2 view .LVU132
 622 0034 1920     		movs	r0, #25
 623 0036 FFF7FEFF 		bl	HAL_Delay
 624              	.LVL59:
 152:Drivers/ST7789V/st7789v.c **** 	ST7789V_WriteSmallData(0x00); 
 625              		.loc 1 152 2 view .LVU133
 626 003a 3620     		movs	r0, #54
 627 003c FFF7FEFF 		bl	ST7789V_WriteCommand
 628              	.LVL60:
 153:Drivers/ST7789V/st7789v.c **** 
 629              		.loc 1 153 2 view .LVU134
 630 0040 0020     		movs	r0, #0
 631 0042 FFF7FEFF 		bl	ST7789V_WriteSmallData
 632              	.LVL61:
 155:Drivers/ST7789V/st7789v.c **** 	ST7789V_WriteSmallData(0x05);
 633              		.loc 1 155 2 view .LVU135
 634 0046 3A20     		movs	r0, #58
 635 0048 FFF7FEFF 		bl	ST7789V_WriteCommand
 636              	.LVL62:
 156:Drivers/ST7789V/st7789v.c **** 
 637              		.loc 1 156 2 view .LVU136
 638 004c 0520     		movs	r0, #5
 639 004e FFF7FEFF 		bl	ST7789V_WriteSmallData
 640              	.LVL63:
 158:Drivers/ST7789V/st7789v.c **** 
 641              		.loc 1 158 2 view .LVU137
 642 0052 2120     		movs	r0, #33
 643 0054 FFF7FEFF 		bl	ST7789V_WriteCommand
 644              	.LVL64:
 160:Drivers/ST7789V/st7789v.c **** 	ST7789V_WriteSmallData(0x00);
 645              		.loc 1 160 2 view .LVU138
 646 0058 2A20     		movs	r0, #42
 647 005a FFF7FEFF 		bl	ST7789V_WriteCommand
 648              	.LVL65:
 161:Drivers/ST7789V/st7789v.c **** 	ST7789V_WriteSmallData(0x00);
 649              		.loc 1 161 2 view .LVU139
 650 005e 0020     		movs	r0, #0
ARM GAS  /var/folders/lp/x54gwt890xv47sdkqj1k04q40000gn/T//ccAXhYZq.s 			page 19


 651 0060 FFF7FEFF 		bl	ST7789V_WriteSmallData
 652              	.LVL66:
 162:Drivers/ST7789V/st7789v.c **** 	ST7789V_WriteSmallData(0x01);
 653              		.loc 1 162 2 view .LVU140
 654 0064 0020     		movs	r0, #0
 655 0066 FFF7FEFF 		bl	ST7789V_WriteSmallData
 656              	.LVL67:
 163:Drivers/ST7789V/st7789v.c **** 	ST7789V_WriteSmallData(0x3F);
 657              		.loc 1 163 2 view .LVU141
 658 006a 0120     		movs	r0, #1
 659 006c FFF7FEFF 		bl	ST7789V_WriteSmallData
 660              	.LVL68:
 164:Drivers/ST7789V/st7789v.c **** 
 661              		.loc 1 164 2 view .LVU142
 662 0070 3F20     		movs	r0, #63
 663 0072 FFF7FEFF 		bl	ST7789V_WriteSmallData
 664              	.LVL69:
 166:Drivers/ST7789V/st7789v.c **** 	ST7789V_WriteSmallData(0x00);
 665              		.loc 1 166 2 view .LVU143
 666 0076 2B20     		movs	r0, #43
 667 0078 FFF7FEFF 		bl	ST7789V_WriteCommand
 668              	.LVL70:
 167:Drivers/ST7789V/st7789v.c **** 	ST7789V_WriteSmallData(0x00);
 669              		.loc 1 167 2 view .LVU144
 670 007c 0020     		movs	r0, #0
 671 007e FFF7FEFF 		bl	ST7789V_WriteSmallData
 672              	.LVL71:
 168:Drivers/ST7789V/st7789v.c **** 	ST7789V_WriteSmallData(0x00);
 673              		.loc 1 168 2 view .LVU145
 674 0082 0020     		movs	r0, #0
 675 0084 FFF7FEFF 		bl	ST7789V_WriteSmallData
 676              	.LVL72:
 169:Drivers/ST7789V/st7789v.c **** 	ST7789V_WriteSmallData(0xEF);
 677              		.loc 1 169 2 view .LVU146
 678 0088 0020     		movs	r0, #0
 679 008a FFF7FEFF 		bl	ST7789V_WriteSmallData
 680              	.LVL73:
 170:Drivers/ST7789V/st7789v.c **** 
 681              		.loc 1 170 2 view .LVU147
 682 008e EF20     		movs	r0, #239
 683 0090 FFF7FEFF 		bl	ST7789V_WriteSmallData
 684              	.LVL74:
 172:Drivers/ST7789V/st7789v.c **** 	ST7789V_WriteSmallData(0x0C);
 685              		.loc 1 172 2 view .LVU148
 686 0094 B220     		movs	r0, #178
 687 0096 FFF7FEFF 		bl	ST7789V_WriteCommand
 688              	.LVL75:
 173:Drivers/ST7789V/st7789v.c **** 	ST7789V_WriteSmallData(0x0C);
 689              		.loc 1 173 2 view .LVU149
 690 009a 0C20     		movs	r0, #12
 691 009c FFF7FEFF 		bl	ST7789V_WriteSmallData
 692              	.LVL76:
 174:Drivers/ST7789V/st7789v.c **** 	ST7789V_WriteSmallData(0x00);
 693              		.loc 1 174 2 view .LVU150
 694 00a0 0C20     		movs	r0, #12
 695 00a2 FFF7FEFF 		bl	ST7789V_WriteSmallData
 696              	.LVL77:
ARM GAS  /var/folders/lp/x54gwt890xv47sdkqj1k04q40000gn/T//ccAXhYZq.s 			page 20


 175:Drivers/ST7789V/st7789v.c **** 	ST7789V_WriteSmallData(0x33);
 697              		.loc 1 175 2 view .LVU151
 698 00a6 0020     		movs	r0, #0
 699 00a8 FFF7FEFF 		bl	ST7789V_WriteSmallData
 700              	.LVL78:
 176:Drivers/ST7789V/st7789v.c **** 	ST7789V_WriteSmallData(0x33);
 701              		.loc 1 176 2 view .LVU152
 702 00ac 3320     		movs	r0, #51
 703 00ae FFF7FEFF 		bl	ST7789V_WriteSmallData
 704              	.LVL79:
 177:Drivers/ST7789V/st7789v.c **** 
 705              		.loc 1 177 2 view .LVU153
 706 00b2 3320     		movs	r0, #51
 707 00b4 FFF7FEFF 		bl	ST7789V_WriteSmallData
 708              	.LVL80:
 181:Drivers/ST7789V/st7789v.c **** 	ST7789V_WriteSmallData(0x35); 
 709              		.loc 1 181 2 view .LVU154
 710 00b8 B720     		movs	r0, #183
 711 00ba FFF7FEFF 		bl	ST7789V_WriteCommand
 712              	.LVL81:
 182:Drivers/ST7789V/st7789v.c **** 
 713              		.loc 1 182 2 view .LVU155
 714 00be 3520     		movs	r0, #53
 715 00c0 FFF7FEFF 		bl	ST7789V_WriteSmallData
 716              	.LVL82:
 184:Drivers/ST7789V/st7789v.c **** 	ST7789V_WriteSmallData(0x1F);
 717              		.loc 1 184 2 view .LVU156
 718 00c4 B720     		movs	r0, #183
 719 00c6 FFF7FEFF 		bl	ST7789V_WriteCommand
 720              	.LVL83:
 185:Drivers/ST7789V/st7789v.c **** 
 721              		.loc 1 185 2 view .LVU157
 722 00ca 1F20     		movs	r0, #31
 723 00cc FFF7FEFF 		bl	ST7789V_WriteSmallData
 724              	.LVL84:
 187:Drivers/ST7789V/st7789v.c **** 	ST7789V_WriteSmallData(0x2C);
 725              		.loc 1 187 2 view .LVU158
 726 00d0 C020     		movs	r0, #192
 727 00d2 FFF7FEFF 		bl	ST7789V_WriteCommand
 728              	.LVL85:
 188:Drivers/ST7789V/st7789v.c **** 
 729              		.loc 1 188 2 view .LVU159
 730 00d6 2C20     		movs	r0, #44
 731 00d8 FFF7FEFF 		bl	ST7789V_WriteSmallData
 732              	.LVL86:
 190:Drivers/ST7789V/st7789v.c **** 	ST7789V_WriteSmallData(0x01);
 733              		.loc 1 190 2 view .LVU160
 734 00dc C220     		movs	r0, #194
 735 00de FFF7FEFF 		bl	ST7789V_WriteCommand
 736              	.LVL87:
 191:Drivers/ST7789V/st7789v.c **** 
 737              		.loc 1 191 2 view .LVU161
 738 00e2 0120     		movs	r0, #1
 739 00e4 FFF7FEFF 		bl	ST7789V_WriteSmallData
 740              	.LVL88:
 193:Drivers/ST7789V/st7789v.c **** 	ST7789V_WriteSmallData(0x12);   
 741              		.loc 1 193 2 view .LVU162
ARM GAS  /var/folders/lp/x54gwt890xv47sdkqj1k04q40000gn/T//ccAXhYZq.s 			page 21


 742 00e8 C320     		movs	r0, #195
 743 00ea FFF7FEFF 		bl	ST7789V_WriteCommand
 744              	.LVL89:
 194:Drivers/ST7789V/st7789v.c **** 
 745              		.loc 1 194 2 view .LVU163
 746 00ee 1220     		movs	r0, #18
 747 00f0 FFF7FEFF 		bl	ST7789V_WriteSmallData
 748              	.LVL90:
 196:Drivers/ST7789V/st7789v.c **** 	ST7789V_WriteSmallData(0x20);
 749              		.loc 1 196 2 view .LVU164
 750 00f4 C420     		movs	r0, #196
 751 00f6 FFF7FEFF 		bl	ST7789V_WriteCommand
 752              	.LVL91:
 197:Drivers/ST7789V/st7789v.c **** 
 753              		.loc 1 197 2 view .LVU165
 754 00fa 2020     		movs	r0, #32
 755 00fc FFF7FEFF 		bl	ST7789V_WriteSmallData
 756              	.LVL92:
 199:Drivers/ST7789V/st7789v.c **** 	ST7789V_WriteSmallData(0x0F); 
 757              		.loc 1 199 2 view .LVU166
 758 0100 C620     		movs	r0, #198
 759 0102 FFF7FEFF 		bl	ST7789V_WriteCommand
 760              	.LVL93:
 200:Drivers/ST7789V/st7789v.c **** 
 761              		.loc 1 200 2 view .LVU167
 762 0106 0F20     		movs	r0, #15
 763 0108 FFF7FEFF 		bl	ST7789V_WriteSmallData
 764              	.LVL94:
 202:Drivers/ST7789V/st7789v.c **** 	ST7789V_WriteSmallData(0xA4);
 765              		.loc 1 202 2 view .LVU168
 766 010c D020     		movs	r0, #208
 767 010e FFF7FEFF 		bl	ST7789V_WriteCommand
 768              	.LVL95:
 203:Drivers/ST7789V/st7789v.c **** 	ST7789V_WriteSmallData(0xA1);
 769              		.loc 1 203 2 view .LVU169
 770 0112 A420     		movs	r0, #164
 771 0114 FFF7FEFF 		bl	ST7789V_WriteSmallData
 772              	.LVL96:
 204:Drivers/ST7789V/st7789v.c **** 
 773              		.loc 1 204 2 view .LVU170
 774 0118 A120     		movs	r0, #161
 775 011a FFF7FEFF 		bl	ST7789V_WriteSmallData
 776              	.LVL97:
 206:Drivers/ST7789V/st7789v.c **** 	ST7789V_WriteSmallData(0xD0);
 777              		.loc 1 206 2 view .LVU171
 778 011e E020     		movs	r0, #224
 779 0120 FFF7FEFF 		bl	ST7789V_WriteCommand
 780              	.LVL98:
 207:Drivers/ST7789V/st7789v.c **** 	ST7789V_WriteSmallData(0x08);
 781              		.loc 1 207 2 view .LVU172
 782 0124 D020     		movs	r0, #208
 783 0126 FFF7FEFF 		bl	ST7789V_WriteSmallData
 784              	.LVL99:
 208:Drivers/ST7789V/st7789v.c **** 	ST7789V_WriteSmallData(0x11);
 785              		.loc 1 208 2 view .LVU173
 786 012a 0820     		movs	r0, #8
 787 012c FFF7FEFF 		bl	ST7789V_WriteSmallData
ARM GAS  /var/folders/lp/x54gwt890xv47sdkqj1k04q40000gn/T//ccAXhYZq.s 			page 22


 788              	.LVL100:
 209:Drivers/ST7789V/st7789v.c **** 	ST7789V_WriteSmallData(0x08);
 789              		.loc 1 209 2 view .LVU174
 790 0130 1120     		movs	r0, #17
 791 0132 FFF7FEFF 		bl	ST7789V_WriteSmallData
 792              	.LVL101:
 210:Drivers/ST7789V/st7789v.c **** 	ST7789V_WriteSmallData(0x0C);
 793              		.loc 1 210 2 view .LVU175
 794 0136 0820     		movs	r0, #8
 795 0138 FFF7FEFF 		bl	ST7789V_WriteSmallData
 796              	.LVL102:
 211:Drivers/ST7789V/st7789v.c **** 	ST7789V_WriteSmallData(0x15);
 797              		.loc 1 211 2 view .LVU176
 798 013c 0C20     		movs	r0, #12
 799 013e FFF7FEFF 		bl	ST7789V_WriteSmallData
 800              	.LVL103:
 212:Drivers/ST7789V/st7789v.c **** 	ST7789V_WriteSmallData(0x39);
 801              		.loc 1 212 2 view .LVU177
 802 0142 1520     		movs	r0, #21
 803 0144 FFF7FEFF 		bl	ST7789V_WriteSmallData
 804              	.LVL104:
 213:Drivers/ST7789V/st7789v.c **** 	ST7789V_WriteSmallData(0x33);
 805              		.loc 1 213 2 view .LVU178
 806 0148 3920     		movs	r0, #57
 807 014a FFF7FEFF 		bl	ST7789V_WriteSmallData
 808              	.LVL105:
 214:Drivers/ST7789V/st7789v.c **** 	ST7789V_WriteSmallData(0x50);
 809              		.loc 1 214 2 view .LVU179
 810 014e 3320     		movs	r0, #51
 811 0150 FFF7FEFF 		bl	ST7789V_WriteSmallData
 812              	.LVL106:
 215:Drivers/ST7789V/st7789v.c **** 	ST7789V_WriteSmallData(0x36);
 813              		.loc 1 215 2 view .LVU180
 814 0154 5020     		movs	r0, #80
 815 0156 FFF7FEFF 		bl	ST7789V_WriteSmallData
 816              	.LVL107:
 216:Drivers/ST7789V/st7789v.c **** 	ST7789V_WriteSmallData(0x13);
 817              		.loc 1 216 2 view .LVU181
 818 015a 3620     		movs	r0, #54
 819 015c FFF7FEFF 		bl	ST7789V_WriteSmallData
 820              	.LVL108:
 217:Drivers/ST7789V/st7789v.c **** 	ST7789V_WriteSmallData(0x14);
 821              		.loc 1 217 2 view .LVU182
 822 0160 1320     		movs	r0, #19
 823 0162 FFF7FEFF 		bl	ST7789V_WriteSmallData
 824              	.LVL109:
 218:Drivers/ST7789V/st7789v.c **** 	ST7789V_WriteSmallData(0x29);
 825              		.loc 1 218 2 view .LVU183
 826 0166 1420     		movs	r0, #20
 827 0168 FFF7FEFF 		bl	ST7789V_WriteSmallData
 828              	.LVL110:
 219:Drivers/ST7789V/st7789v.c **** 	ST7789V_WriteSmallData(0x2D);
 829              		.loc 1 219 2 view .LVU184
 830 016c 2920     		movs	r0, #41
 831 016e FFF7FEFF 		bl	ST7789V_WriteSmallData
 832              	.LVL111:
 220:Drivers/ST7789V/st7789v.c **** 
ARM GAS  /var/folders/lp/x54gwt890xv47sdkqj1k04q40000gn/T//ccAXhYZq.s 			page 23


 833              		.loc 1 220 2 view .LVU185
 834 0172 2D20     		movs	r0, #45
 835 0174 FFF7FEFF 		bl	ST7789V_WriteSmallData
 836              	.LVL112:
 222:Drivers/ST7789V/st7789v.c **** 	ST7789V_WriteSmallData(0xD0);
 837              		.loc 1 222 2 view .LVU186
 838 0178 E120     		movs	r0, #225
 839 017a FFF7FEFF 		bl	ST7789V_WriteCommand
 840              	.LVL113:
 223:Drivers/ST7789V/st7789v.c **** 	ST7789V_WriteSmallData(0x08);
 841              		.loc 1 223 2 view .LVU187
 842 017e D020     		movs	r0, #208
 843 0180 FFF7FEFF 		bl	ST7789V_WriteSmallData
 844              	.LVL114:
 224:Drivers/ST7789V/st7789v.c **** 	ST7789V_WriteSmallData(0x10);
 845              		.loc 1 224 2 view .LVU188
 846 0184 0820     		movs	r0, #8
 847 0186 FFF7FEFF 		bl	ST7789V_WriteSmallData
 848              	.LVL115:
 225:Drivers/ST7789V/st7789v.c **** 	ST7789V_WriteSmallData(0x08);
 849              		.loc 1 225 2 view .LVU189
 850 018a 1020     		movs	r0, #16
 851 018c FFF7FEFF 		bl	ST7789V_WriteSmallData
 852              	.LVL116:
 226:Drivers/ST7789V/st7789v.c **** 	ST7789V_WriteSmallData(0x06);
 853              		.loc 1 226 2 view .LVU190
 854 0190 0820     		movs	r0, #8
 855 0192 FFF7FEFF 		bl	ST7789V_WriteSmallData
 856              	.LVL117:
 227:Drivers/ST7789V/st7789v.c **** 	ST7789V_WriteSmallData(0x06);
 857              		.loc 1 227 2 view .LVU191
 858 0196 0620     		movs	r0, #6
 859 0198 FFF7FEFF 		bl	ST7789V_WriteSmallData
 860              	.LVL118:
 228:Drivers/ST7789V/st7789v.c **** 	ST7789V_WriteSmallData(0x39);
 861              		.loc 1 228 2 view .LVU192
 862 019c 0620     		movs	r0, #6
 863 019e FFF7FEFF 		bl	ST7789V_WriteSmallData
 864              	.LVL119:
 229:Drivers/ST7789V/st7789v.c **** 	ST7789V_WriteSmallData(0x44);
 865              		.loc 1 229 2 view .LVU193
 866 01a2 3920     		movs	r0, #57
 867 01a4 FFF7FEFF 		bl	ST7789V_WriteSmallData
 868              	.LVL120:
 230:Drivers/ST7789V/st7789v.c **** 	ST7789V_WriteSmallData(0x51);
 869              		.loc 1 230 2 view .LVU194
 870 01a8 4420     		movs	r0, #68
 871 01aa FFF7FEFF 		bl	ST7789V_WriteSmallData
 872              	.LVL121:
 231:Drivers/ST7789V/st7789v.c **** 	ST7789V_WriteSmallData(0x0B);
 873              		.loc 1 231 2 view .LVU195
 874 01ae 5120     		movs	r0, #81
 875 01b0 FFF7FEFF 		bl	ST7789V_WriteSmallData
 876              	.LVL122:
 232:Drivers/ST7789V/st7789v.c **** 	ST7789V_WriteSmallData(0x16);
 877              		.loc 1 232 2 view .LVU196
 878 01b4 0B20     		movs	r0, #11
ARM GAS  /var/folders/lp/x54gwt890xv47sdkqj1k04q40000gn/T//ccAXhYZq.s 			page 24


 879 01b6 FFF7FEFF 		bl	ST7789V_WriteSmallData
 880              	.LVL123:
 233:Drivers/ST7789V/st7789v.c **** 	ST7789V_WriteSmallData(0x14);
 881              		.loc 1 233 2 view .LVU197
 882 01ba 1620     		movs	r0, #22
 883 01bc FFF7FEFF 		bl	ST7789V_WriteSmallData
 884              	.LVL124:
 234:Drivers/ST7789V/st7789v.c **** 	ST7789V_WriteSmallData(0x2F);
 885              		.loc 1 234 2 view .LVU198
 886 01c0 1420     		movs	r0, #20
 887 01c2 FFF7FEFF 		bl	ST7789V_WriteSmallData
 888              	.LVL125:
 235:Drivers/ST7789V/st7789v.c **** 	ST7789V_WriteSmallData(0x31);
 889              		.loc 1 235 2 view .LVU199
 890 01c6 2F20     		movs	r0, #47
 891 01c8 FFF7FEFF 		bl	ST7789V_WriteSmallData
 892              	.LVL126:
 236:Drivers/ST7789V/st7789v.c **** 
 893              		.loc 1 236 2 view .LVU200
 894 01cc 3120     		movs	r0, #49
 895 01ce FFF7FEFF 		bl	ST7789V_WriteSmallData
 896              	.LVL127:
 238:Drivers/ST7789V/st7789v.c **** 	ST7789V_WriteCommand (ST7789V_SLPOUT);	//	Out of sleep mode
 897              		.loc 1 238 5 view .LVU201
 898 01d2 2120     		movs	r0, #33
 899 01d4 FFF7FEFF 		bl	ST7789V_WriteCommand
 900              	.LVL128:
 239:Drivers/ST7789V/st7789v.c ****   	ST7789V_WriteCommand (ST7789V_NORON);		//	Normal Display on
 901              		.loc 1 239 2 view .LVU202
 902 01d8 1120     		movs	r0, #17
 903 01da FFF7FEFF 		bl	ST7789V_WriteCommand
 904              	.LVL129:
 240:Drivers/ST7789V/st7789v.c ****   	ST7789V_WriteCommand (ST7789V_DISPON);	//	Main screen turned on	
 905              		.loc 1 240 4 view .LVU203
 906 01de 1320     		movs	r0, #19
 907 01e0 FFF7FEFF 		bl	ST7789V_WriteCommand
 908              	.LVL130:
 241:Drivers/ST7789V/st7789v.c **** 
 909              		.loc 1 241 4 view .LVU204
 910 01e4 2920     		movs	r0, #41
 911 01e6 FFF7FEFF 		bl	ST7789V_WriteCommand
 912              	.LVL131:
 243:Drivers/ST7789V/st7789v.c **** 	ST7789V_SetRotation(3);
 913              		.loc 1 243 2 view .LVU205
 914 01ea 3220     		movs	r0, #50
 915 01ec FFF7FEFF 		bl	HAL_Delay
 916              	.LVL132:
 244:Drivers/ST7789V/st7789v.c **** 	// ST7789V_Fill_Color(BLACK);				//	Fill with Black.
 917              		.loc 1 244 2 view .LVU206
 918              	.LBB22:
 919              	.LBI22:
  83:Drivers/ST7789V/st7789v.c **** {
 920              		.loc 1 83 6 view .LVU207
 921              	.LBB23:
  85:Drivers/ST7789V/st7789v.c **** 	switch (m) {
 922              		.loc 1 85 2 view .LVU208
 923 01f0 3620     		movs	r0, #54
ARM GAS  /var/folders/lp/x54gwt890xv47sdkqj1k04q40000gn/T//ccAXhYZq.s 			page 25


 924 01f2 FFF7FEFF 		bl	ST7789V_WriteCommand
 925              	.LVL133:
  86:Drivers/ST7789V/st7789v.c **** 	case 0:
 926              		.loc 1 86 2 view .LVU209
  97:Drivers/ST7789V/st7789v.c **** 		break;
 927              		.loc 1 97 3 view .LVU210
 928              	.LBE23:
 929              	.LBE22:
 246:Drivers/ST7789V/st7789v.c **** 
 930              		.loc 1 246 1 is_stmt 0 view .LVU211
 931 01f6 BDE81040 		pop	{r4, lr}
 932              		.cfi_restore 14
 933              		.cfi_restore 4
 934              		.cfi_def_cfa_offset 0
 935              	.LBB25:
 936              	.LBB24:
  97:Drivers/ST7789V/st7789v.c **** 		break;
 937              		.loc 1 97 3 view .LVU212
 938 01fa 6020     		movs	r0, #96
 939 01fc FFF7FEBF 		b	ST7789V_WriteSmallData
 940              	.LVL134:
 941              	.L37:
 942              		.align	2
 943              	.L36:
 944 0200 00000240 		.word	1073872896
 945              	.LBE24:
 946              	.LBE25:
 947              		.cfi_endproc
 948              	.LFE247:
 950              		.section	.text.MemsetBuffer,"ax",%progbits
 951              		.align	1
 952              		.p2align 2,,3
 953              		.global	MemsetBuffer
 954              		.syntax unified
 955              		.thumb
 956              		.thumb_func
 958              	MemsetBuffer:
 959              	.LVL135:
 960              	.LFB248:
 253:Drivers/ST7789V/st7789v.c **** 	for (uint32_t contador = 0; contador < size; contador++)
 961              		.loc 1 253 1 is_stmt 1 view -0
 962              		.cfi_startproc
 963              		@ args = 0, pretend = 0, frame = 0
 964              		@ frame_needed = 0, uses_anonymous_args = 0
 965              		@ link register save eliminated.
 254:Drivers/ST7789V/st7789v.c **** 	{			
 966              		.loc 1 254 2 view .LVU214
 967              	.LBB26:
 254:Drivers/ST7789V/st7789v.c **** 	{			
 968              		.loc 1 254 7 view .LVU215
 254:Drivers/ST7789V/st7789v.c **** 	{			
 969              		.loc 1 254 39 discriminator 1 view .LVU216
 970 0000 32B1     		cbz	r2, .L38
 971 0002 0238     		subs	r0, r0, #2
 972              	.LVL136:
 254:Drivers/ST7789V/st7789v.c **** 	{			
 973              		.loc 1 254 39 is_stmt 0 discriminator 1 view .LVU217
ARM GAS  /var/folders/lp/x54gwt890xv47sdkqj1k04q40000gn/T//ccAXhYZq.s 			page 26


 974 0004 00EB4202 		add	r2, r0, r2, lsl #1
 975              	.LVL137:
 976              	.L40:
 256:Drivers/ST7789V/st7789v.c **** 	}
 977              		.loc 1 256 3 is_stmt 1 view .LVU218
 256:Drivers/ST7789V/st7789v.c **** 	}
 978              		.loc 1 256 17 is_stmt 0 view .LVU219
 979 0008 20F8021F 		strh	r1, [r0, #2]!	@ movhi
 254:Drivers/ST7789V/st7789v.c **** 	{			
 980              		.loc 1 254 55 is_stmt 1 discriminator 3 view .LVU220
 254:Drivers/ST7789V/st7789v.c **** 	{			
 981              		.loc 1 254 39 discriminator 1 view .LVU221
 982 000c 9042     		cmp	r0, r2
 983 000e FBD1     		bne	.L40
 984              	.L38:
 254:Drivers/ST7789V/st7789v.c **** 	{			
 985              		.loc 1 254 39 is_stmt 0 discriminator 1 view .LVU222
 986              	.LBE26:
 258:Drivers/ST7789V/st7789v.c **** 
 987              		.loc 1 258 1 view .LVU223
 988 0010 7047     		bx	lr
 989              		.cfi_endproc
 990              	.LFE248:
 992 0012 00BF     		.section	.text.ST7789V_Fill_Color,"ax",%progbits
 993              		.align	1
 994              		.p2align 2,,3
 995              		.global	ST7789V_Fill_Color
 996              		.syntax unified
 997              		.thumb
 998              		.thumb_func
 1000              	ST7789V_Fill_Color:
 1001              	.LVL138:
 1002              	.LFB249:
 268:Drivers/ST7789V/st7789v.c **** 	uint16_t i, convert_color;
 1003              		.loc 1 268 1 is_stmt 1 view -0
 1004              		.cfi_startproc
 1005              		@ args = 0, pretend = 0, frame = 8
 1006              		@ frame_needed = 0, uses_anonymous_args = 0
 269:Drivers/ST7789V/st7789v.c **** 	ST7789V_SetAddressWindow(0, 0, ST7789V_WIDTH - 1, ST7789V_HEIGHT - 1);
 1007              		.loc 1 269 2 view .LVU225
 270:Drivers/ST7789V/st7789v.c **** 	ST7789V_Select();
 1008              		.loc 1 270 2 view .LVU226
 268:Drivers/ST7789V/st7789v.c **** 	uint16_t i, convert_color;
 1009              		.loc 1 268 1 is_stmt 0 view .LVU227
 1010 0000 70B5     		push	{r4, r5, r6, lr}
 1011              		.cfi_def_cfa_offset 16
 1012              		.cfi_offset 4, -16
 1013              		.cfi_offset 5, -12
 1014              		.cfi_offset 6, -8
 1015              		.cfi_offset 14, -4
 270:Drivers/ST7789V/st7789v.c **** 	ST7789V_Select();
 1016              		.loc 1 270 2 view .LVU228
 1017 0002 0021     		movs	r1, #0
 268:Drivers/ST7789V/st7789v.c **** 	uint16_t i, convert_color;
 1018              		.loc 1 268 1 view .LVU229
 1019 0004 82B0     		sub	sp, sp, #8
 1020              		.cfi_def_cfa_offset 24
ARM GAS  /var/folders/lp/x54gwt890xv47sdkqj1k04q40000gn/T//ccAXhYZq.s 			page 27


 268:Drivers/ST7789V/st7789v.c **** 	uint16_t i, convert_color;
 1021              		.loc 1 268 1 view .LVU230
 1022 0006 0546     		mov	r5, r0
 270:Drivers/ST7789V/st7789v.c **** 	ST7789V_Select();
 1023              		.loc 1 270 2 view .LVU231
 1024 0008 EF23     		movs	r3, #239
 1025 000a 0846     		mov	r0, r1
 1026              	.LVL139:
 270:Drivers/ST7789V/st7789v.c **** 	ST7789V_Select();
 1027              		.loc 1 270 2 view .LVU232
 1028 000c 40F23F12 		movw	r2, #319
 1029 0010 FFF7FEFF 		bl	ST7789V_SetAddressWindow
 1030              	.LVL140:
 271:Drivers/ST7789V/st7789v.c **** 
 1031              		.loc 1 271 2 is_stmt 1 view .LVU233
 1032 0014 0F48     		ldr	r0, .L51
 1033 0016 0022     		movs	r2, #0
 1034 0018 0421     		movs	r1, #4
 1035 001a FFF7FEFF 		bl	HAL_GPIO_WritePin
 1036              	.LVL141:
 273:Drivers/ST7789V/st7789v.c **** 
 1037              		.loc 1 273 2 view .LVU234
 282:Drivers/ST7789V/st7789v.c **** 		for (i = 0; i < ST7789V_WIDTH; i++)
 1038              		.loc 1 282 3 view .LVU235
 283:Drivers/ST7789V/st7789v.c **** 				for (j = 0; j < ST7789V_HEIGHT; j++) {
 1039              		.loc 1 283 3 view .LVU236
 283:Drivers/ST7789V/st7789v.c **** 				for (j = 0; j < ST7789V_HEIGHT; j++) {
 1040              		.loc 1 283 17 discriminator 1 view .LVU237
 271:Drivers/ST7789V/st7789v.c **** 
 1041              		.loc 1 271 2 is_stmt 0 view .LVU238
 1042 001e 4FF4A076 		mov	r6, #320
 1043 0022 6DBA     		rev16	r5, r5
 1044              	.LVL142:
 1045              	.L46:
 284:Drivers/ST7789V/st7789v.c **** 					uint8_t data[] = {color >> 8, color & 0xFF};
 1046              		.loc 1 284 19 is_stmt 1 discriminator 1 view .LVU239
 268:Drivers/ST7789V/st7789v.c **** 	uint16_t i, convert_color;
 1047              		.loc 1 268 1 is_stmt 0 view .LVU240
 1048 0024 F024     		movs	r4, #240
 1049              	.LVL143:
 1050              	.L47:
 1051              	.LBB27:
 285:Drivers/ST7789V/st7789v.c **** 					ST7789V_WriteData(data, sizeof(data));
 1052              		.loc 1 285 6 is_stmt 1 view .LVU241
 1053              	.LBE27:
 284:Drivers/ST7789V/st7789v.c **** 					uint8_t data[] = {color >> 8, color & 0xFF};
 1054              		.loc 1 284 19 is_stmt 0 discriminator 1 view .LVU242
 1055 0026 013C     		subs	r4, r4, #1
 1056              	.LBB28:
 286:Drivers/ST7789V/st7789v.c **** 				}
 1057              		.loc 1 286 6 view .LVU243
 1058 0028 0221     		movs	r1, #2
 1059 002a 01A8     		add	r0, sp, #4
 1060              	.LBE28:
 284:Drivers/ST7789V/st7789v.c **** 					uint8_t data[] = {color >> 8, color & 0xFF};
 1061              		.loc 1 284 19 discriminator 1 view .LVU244
 1062 002c A4B2     		uxth	r4, r4
ARM GAS  /var/folders/lp/x54gwt890xv47sdkqj1k04q40000gn/T//ccAXhYZq.s 			page 28


 1063              	.LBB29:
 285:Drivers/ST7789V/st7789v.c **** 					ST7789V_WriteData(data, sizeof(data));
 1064              		.loc 1 285 14 view .LVU245
 1065 002e ADF80450 		strh	r5, [sp, #4]	@ movhi
 286:Drivers/ST7789V/st7789v.c **** 				}
 1066              		.loc 1 286 6 is_stmt 1 view .LVU246
 1067 0032 FFF7FEFF 		bl	ST7789V_WriteData
 1068              	.LVL144:
 1069              	.LBE29:
 284:Drivers/ST7789V/st7789v.c **** 					uint8_t data[] = {color >> 8, color & 0xFF};
 1070              		.loc 1 284 38 discriminator 3 view .LVU247
 284:Drivers/ST7789V/st7789v.c **** 					uint8_t data[] = {color >> 8, color & 0xFF};
 1071              		.loc 1 284 19 discriminator 1 view .LVU248
 1072 0036 002C     		cmp	r4, #0
 1073 0038 F5D1     		bne	.L47
 283:Drivers/ST7789V/st7789v.c **** 				for (j = 0; j < ST7789V_HEIGHT; j++) {
 1074              		.loc 1 283 35 discriminator 2 view .LVU249
 283:Drivers/ST7789V/st7789v.c **** 				for (j = 0; j < ST7789V_HEIGHT; j++) {
 1075              		.loc 1 283 17 discriminator 1 view .LVU250
 1076 003a 013E     		subs	r6, r6, #1
 1077 003c B6B2     		uxth	r6, r6
 1078 003e 002E     		cmp	r6, #0
 1079 0040 F0D1     		bne	.L46
 289:Drivers/ST7789V/st7789v.c **** }
 1080              		.loc 1 289 2 view .LVU251
 1081 0042 0448     		ldr	r0, .L51
 1082 0044 0122     		movs	r2, #1
 1083 0046 0421     		movs	r1, #4
 290:Drivers/ST7789V/st7789v.c **** 
 1084              		.loc 1 290 1 is_stmt 0 view .LVU252
 1085 0048 02B0     		add	sp, sp, #8
 1086              		.cfi_def_cfa_offset 16
 1087              		@ sp needed
 1088 004a BDE87040 		pop	{r4, r5, r6, lr}
 1089              		.cfi_restore 14
 1090              		.cfi_restore 6
 1091              		.cfi_restore 5
 1092              		.cfi_restore 4
 1093              		.cfi_def_cfa_offset 0
 289:Drivers/ST7789V/st7789v.c **** }
 1094              		.loc 1 289 2 view .LVU253
 1095 004e FFF7FEBF 		b	HAL_GPIO_WritePin
 1096              	.LVL145:
 1097              	.L52:
 1098 0052 00BF     		.align	2
 1099              	.L51:
 1100 0054 00000240 		.word	1073872896
 1101              		.cfi_endproc
 1102              	.LFE249:
 1104              		.section	.text.ST7789V_DrawPixel,"ax",%progbits
 1105              		.align	1
 1106              		.p2align 2,,3
 1107              		.global	ST7789V_DrawPixel
 1108              		.syntax unified
 1109              		.thumb
 1110              		.thumb_func
 1112              	ST7789V_DrawPixel:
ARM GAS  /var/folders/lp/x54gwt890xv47sdkqj1k04q40000gn/T//ccAXhYZq.s 			page 29


 1113              	.LVL146:
 1114              	.LFB250:
 299:Drivers/ST7789V/st7789v.c **** 	if ((x < 0) || (x >= ST7789V_WIDTH) ||
 1115              		.loc 1 299 1 is_stmt 1 view -0
 1116              		.cfi_startproc
 1117              		@ args = 0, pretend = 0, frame = 0
 1118              		@ frame_needed = 0, uses_anonymous_args = 0
 1119              		@ link register save eliminated.
 300:Drivers/ST7789V/st7789v.c **** 		 (y < 0) || (y >= ST7789V_HEIGHT))	return;
 1120              		.loc 1 300 2 view .LVU255
 300:Drivers/ST7789V/st7789v.c **** 		 (y < 0) || (y >= ST7789V_HEIGHT))	return;
 1121              		.loc 1 300 5 is_stmt 0 view .LVU256
 1122 0000 B0F5A07F 		cmp	r0, #320
 1123 0004 01D2     		bcs	.L53
 301:Drivers/ST7789V/st7789v.c **** 	
 1124              		.loc 1 301 12 view .LVU257
 1125 0006 EF29     		cmp	r1, #239
 1126 0008 00D9     		bls	.L55
 1127              	.L53:
 1128              		.loc 1 308 1 view .LVU258
 1129 000a 7047     		bx	lr
 1130              	.L55:
 1131 000c FFF7FEBF 		b	ST7789V_DrawPixel.part.0
 1132              	.LVL147:
 1133              		.loc 1 308 1 view .LVU259
 1134              		.cfi_endproc
 1135              	.LFE250:
 1137              		.section	.text.ST7789V_Fill,"ax",%progbits
 1138              		.align	1
 1139              		.p2align 2,,3
 1140              		.global	ST7789V_Fill
 1141              		.syntax unified
 1142              		.thumb
 1143              		.thumb_func
 1145              	ST7789V_Fill:
 1146              	.LVL148:
 1147              	.LFB251:
 309:Drivers/ST7789V/st7789v.c **** 
 310:Drivers/ST7789V/st7789v.c **** /**
 311:Drivers/ST7789V/st7789v.c ****  * @brief Fill an Area with single color
 312:Drivers/ST7789V/st7789v.c ****  * @param xSta&ySta -> coordinate of the start point
 313:Drivers/ST7789V/st7789v.c ****  * @param xEnd&yEnd -> coordinate of the end point
 314:Drivers/ST7789V/st7789v.c ****  * @param color -> color to Fill with
 315:Drivers/ST7789V/st7789v.c ****  * @return none
 316:Drivers/ST7789V/st7789v.c ****  */
 317:Drivers/ST7789V/st7789v.c **** void ST7789V_Fill(uint16_t xSta, uint16_t ySta, uint16_t xEnd, uint16_t yEnd, uint16_t color)
 318:Drivers/ST7789V/st7789v.c **** {
 1148              		.loc 1 318 1 is_stmt 1 view -0
 1149              		.cfi_startproc
 1150              		@ args = 4, pretend = 0, frame = 8
 1151              		@ frame_needed = 0, uses_anonymous_args = 0
 319:Drivers/ST7789V/st7789v.c **** 	if ((xEnd < 0) || (xEnd >= ST7789V_WIDTH) ||
 1152              		.loc 1 319 2 view .LVU261
 318:Drivers/ST7789V/st7789v.c **** 	if ((xEnd < 0) || (xEnd >= ST7789V_WIDTH) ||
 1153              		.loc 1 318 1 is_stmt 0 view .LVU262
 1154 0000 2DE9F043 		push	{r4, r5, r6, r7, r8, r9, lr}
 1155              		.cfi_def_cfa_offset 28
ARM GAS  /var/folders/lp/x54gwt890xv47sdkqj1k04q40000gn/T//ccAXhYZq.s 			page 30


 1156              		.cfi_offset 4, -28
 1157              		.cfi_offset 5, -24
 1158              		.cfi_offset 6, -20
 1159              		.cfi_offset 7, -16
 1160              		.cfi_offset 8, -12
 1161              		.cfi_offset 9, -8
 1162              		.cfi_offset 14, -4
 1163 0004 83B0     		sub	sp, sp, #12
 1164              		.cfi_def_cfa_offset 40
 1165              		.loc 1 319 5 view .LVU263
 1166 0006 B2F5A07F 		cmp	r2, #320
 318:Drivers/ST7789V/st7789v.c **** 	if ((xEnd < 0) || (xEnd >= ST7789V_WIDTH) ||
 1167              		.loc 1 318 1 view .LVU264
 1168 000a BDF82860 		ldrh	r6, [sp, #40]
 1169              		.loc 1 319 5 view .LVU265
 1170 000e 02D2     		bcs	.L56
 320:Drivers/ST7789V/st7789v.c **** 		 (yEnd < 0) || (yEnd >= ST7789V_HEIGHT))	return;
 1171              		.loc 1 320 15 view .LVU266
 1172 0010 EF2B     		cmp	r3, #239
 1173 0012 9946     		mov	r9, r3
 1174 0014 02D9     		bls	.L65
 1175              	.LVL149:
 1176              	.L56:
 321:Drivers/ST7789V/st7789v.c **** 	//ST7789V_Select();
 322:Drivers/ST7789V/st7789v.c **** 	uint16_t i, j;
 323:Drivers/ST7789V/st7789v.c **** 	ST7789V_SetAddressWindow(xSta, ySta, xEnd, yEnd);
 324:Drivers/ST7789V/st7789v.c **** 	for (i = ySta; i <= yEnd; i++)
 325:Drivers/ST7789V/st7789v.c **** 		for (j = xSta; j <= xEnd; j++) {
 326:Drivers/ST7789V/st7789v.c **** 			uint8_t data[] = {color >> 8, color & 0xFF};
 327:Drivers/ST7789V/st7789v.c **** 			ST7789V_WriteData(data, sizeof(data));
 328:Drivers/ST7789V/st7789v.c **** 		}
 329:Drivers/ST7789V/st7789v.c **** 	//ST7789V_UnSelect();
 330:Drivers/ST7789V/st7789v.c **** }
 1177              		.loc 1 330 1 view .LVU267
 1178 0016 03B0     		add	sp, sp, #12
 1179              		.cfi_remember_state
 1180              		.cfi_def_cfa_offset 28
 1181              		@ sp needed
 1182 0018 BDE8F083 		pop	{r4, r5, r6, r7, r8, r9, pc}
 1183              	.LVL150:
 1184              	.L65:
 1185              		.cfi_restore_state
 1186              		.loc 1 330 1 view .LVU268
 1187 001c 0F46     		mov	r7, r1
 1188 001e 8046     		mov	r8, r0
 1189              	.LVL151:
 1190              		.loc 1 330 1 view .LVU269
 1191 0020 1546     		mov	r5, r2
 1192              	.LVL152:
 1193              	.LBB33:
 1194              	.LBI33:
 317:Drivers/ST7789V/st7789v.c **** {
 1195              		.loc 1 317 6 is_stmt 1 view .LVU270
 1196              	.LBB34:
 322:Drivers/ST7789V/st7789v.c **** 	ST7789V_SetAddressWindow(xSta, ySta, xEnd, yEnd);
 1197              		.loc 1 322 2 view .LVU271
 323:Drivers/ST7789V/st7789v.c **** 	for (i = ySta; i <= yEnd; i++)
ARM GAS  /var/folders/lp/x54gwt890xv47sdkqj1k04q40000gn/T//ccAXhYZq.s 			page 31


 1198              		.loc 1 323 2 view .LVU272
 1199 0022 FFF7FEFF 		bl	ST7789V_SetAddressWindow
 1200              	.LVL153:
 324:Drivers/ST7789V/st7789v.c **** 		for (j = xSta; j <= xEnd; j++) {
 1201              		.loc 1 324 2 view .LVU273
 324:Drivers/ST7789V/st7789v.c **** 		for (j = xSta; j <= xEnd; j++) {
 1202              		.loc 1 324 19 discriminator 1 view .LVU274
 1203 0026 B945     		cmp	r9, r7
 1204 0028 F5D3     		bcc	.L56
 1205 002a 76BA     		rev16	r6, r6
 1206              	.LVL154:
 1207              	.L58:
 325:Drivers/ST7789V/st7789v.c **** 			uint8_t data[] = {color >> 8, color & 0xFF};
 1208              		.loc 1 325 20 discriminator 1 view .LVU275
 1209 002c 4545     		cmp	r5, r8
 325:Drivers/ST7789V/st7789v.c **** 			uint8_t data[] = {color >> 8, color & 0xFF};
 1210              		.loc 1 325 10 is_stmt 0 view .LVU276
 1211 002e 28BF     		it	cs
 1212 0030 4446     		movcs	r4, r8
 325:Drivers/ST7789V/st7789v.c **** 			uint8_t data[] = {color >> 8, color & 0xFF};
 1213              		.loc 1 325 20 discriminator 1 view .LVU277
 1214 0032 0BD3     		bcc	.L60
 1215              	.LVL155:
 1216              	.L59:
 1217              	.LBB35:
 326:Drivers/ST7789V/st7789v.c **** 			ST7789V_WriteData(data, sizeof(data));
 1218              		.loc 1 326 4 is_stmt 1 view .LVU278
 327:Drivers/ST7789V/st7789v.c **** 		}
 1219              		.loc 1 327 4 is_stmt 0 view .LVU279
 1220 0034 0221     		movs	r1, #2
 1221 0036 01A8     		add	r0, sp, #4
 326:Drivers/ST7789V/st7789v.c **** 			ST7789V_WriteData(data, sizeof(data));
 1222              		.loc 1 326 12 view .LVU280
 1223 0038 ADF80460 		strh	r6, [sp, #4]	@ movhi
 327:Drivers/ST7789V/st7789v.c **** 		}
 1224              		.loc 1 327 4 is_stmt 1 view .LVU281
 1225 003c FFF7FEFF 		bl	ST7789V_WriteData
 1226              	.LVL156:
 1227              	.LBE35:
 325:Drivers/ST7789V/st7789v.c **** 			uint8_t data[] = {color >> 8, color & 0xFF};
 1228              		.loc 1 325 30 discriminator 3 view .LVU282
 1229 0040 A446     		mov	ip, r4
 325:Drivers/ST7789V/st7789v.c **** 			uint8_t data[] = {color >> 8, color & 0xFF};
 1230              		.loc 1 325 20 is_stmt 0 discriminator 1 view .LVU283
 1231 0042 6545     		cmp	r5, ip
 325:Drivers/ST7789V/st7789v.c **** 			uint8_t data[] = {color >> 8, color & 0xFF};
 1232              		.loc 1 325 30 discriminator 3 view .LVU284
 1233 0044 04F10104 		add	r4, r4, #1
 1234              	.LVL157:
 325:Drivers/ST7789V/st7789v.c **** 			uint8_t data[] = {color >> 8, color & 0xFF};
 1235              		.loc 1 325 30 discriminator 3 view .LVU285
 1236 0048 A4B2     		uxth	r4, r4
 1237              	.LVL158:
 325:Drivers/ST7789V/st7789v.c **** 			uint8_t data[] = {color >> 8, color & 0xFF};
 1238              		.loc 1 325 20 is_stmt 1 discriminator 1 view .LVU286
 1239 004a F3D1     		bne	.L59
 1240              	.LVL159:
ARM GAS  /var/folders/lp/x54gwt890xv47sdkqj1k04q40000gn/T//ccAXhYZq.s 			page 32


 1241              	.L60:
 324:Drivers/ST7789V/st7789v.c **** 		for (j = xSta; j <= xEnd; j++) {
 1242              		.loc 1 324 29 discriminator 2 view .LVU287
 1243 004c 7B1C     		adds	r3, r7, #1
 324:Drivers/ST7789V/st7789v.c **** 		for (j = xSta; j <= xEnd; j++) {
 1244              		.loc 1 324 19 is_stmt 0 discriminator 1 view .LVU288
 1245 004e B945     		cmp	r9, r7
 324:Drivers/ST7789V/st7789v.c **** 		for (j = xSta; j <= xEnd; j++) {
 1246              		.loc 1 324 29 discriminator 2 view .LVU289
 1247 0050 9BB2     		uxth	r3, r3
 1248              	.LVL160:
 324:Drivers/ST7789V/st7789v.c **** 		for (j = xSta; j <= xEnd; j++) {
 1249              		.loc 1 324 19 is_stmt 1 discriminator 1 view .LVU290
 1250 0052 E0D0     		beq	.L56
 1251 0054 1F46     		mov	r7, r3
 1252 0056 E9E7     		b	.L58
 1253              	.LBE34:
 1254              	.LBE33:
 1255              		.cfi_endproc
 1256              	.LFE251:
 1258              		.section	.text.ST7789V_DrawPixel_4px,"ax",%progbits
 1259              		.align	1
 1260              		.p2align 2,,3
 1261              		.global	ST7789V_DrawPixel_4px
 1262              		.syntax unified
 1263              		.thumb
 1264              		.thumb_func
 1266              	ST7789V_DrawPixel_4px:
 1267              	.LVL161:
 1268              	.LFB252:
 331:Drivers/ST7789V/st7789v.c **** 
 332:Drivers/ST7789V/st7789v.c **** /**
 333:Drivers/ST7789V/st7789v.c ****  * @brief Draw a big Pixel at a point
 334:Drivers/ST7789V/st7789v.c ****  * @param x&y -> coordinate of the point
 335:Drivers/ST7789V/st7789v.c ****  * @param color -> color of the Pixel
 336:Drivers/ST7789V/st7789v.c ****  * @return none
 337:Drivers/ST7789V/st7789v.c ****  */
 338:Drivers/ST7789V/st7789v.c **** void ST7789V_DrawPixel_4px(uint16_t x, uint16_t y, uint16_t color)
 339:Drivers/ST7789V/st7789v.c **** {
 1269              		.loc 1 339 1 view -0
 1270              		.cfi_startproc
 1271              		@ args = 0, pretend = 0, frame = 0
 1272              		@ frame_needed = 0, uses_anonymous_args = 0
 340:Drivers/ST7789V/st7789v.c **** 	if ((x <= 0) || (x > ST7789V_WIDTH) ||
 1273              		.loc 1 340 2 view .LVU292
 339:Drivers/ST7789V/st7789v.c **** 	if ((x <= 0) || (x > ST7789V_WIDTH) ||
 1274              		.loc 1 339 1 is_stmt 0 view .LVU293
 1275 0000 2DE9F041 		push	{r4, r5, r6, r7, r8, lr}
 1276              		.cfi_def_cfa_offset 24
 1277              		.cfi_offset 4, -24
 1278              		.cfi_offset 5, -20
 1279              		.cfi_offset 6, -16
 1280              		.cfi_offset 7, -12
 1281              		.cfi_offset 8, -8
 1282              		.cfi_offset 14, -4
 1283              		.loc 1 340 15 view .LVU294
 1284 0004 461E     		subs	r6, r0, #1
ARM GAS  /var/folders/lp/x54gwt890xv47sdkqj1k04q40000gn/T//ccAXhYZq.s 			page 33


 1285 0006 B6B2     		uxth	r6, r6
 1286              		.loc 1 340 5 view .LVU295
 1287 0008 B6F5A07F 		cmp	r6, #320
 339:Drivers/ST7789V/st7789v.c **** 	if ((x <= 0) || (x > ST7789V_WIDTH) ||
 1288              		.loc 1 339 1 view .LVU296
 1289 000c 82B0     		sub	sp, sp, #8
 1290              		.cfi_def_cfa_offset 32
 1291              		.loc 1 340 5 view .LVU297
 1292 000e 1FD2     		bcs	.L66
 1293              		.loc 1 340 38 discriminator 1 view .LVU298
 1294 0010 01F1FF38 		add	r8, r1, #-1
 1295 0014 1FFA88F8 		uxth	r8, r8
 1296 0018 B8F1EF0F 		cmp	r8, #239
 1297 001c 0D46     		mov	r5, r1
 1298 001e 17D8     		bhi	.L66
 341:Drivers/ST7789V/st7789v.c **** 		 (y <= 0) || (y > ST7789V_HEIGHT))	return;
 342:Drivers/ST7789V/st7789v.c **** 	ST7789V_Select();
 1299              		.loc 1 342 2 is_stmt 1 view .LVU299
 1300 0020 0446     		mov	r4, r0
 1301 0022 1746     		mov	r7, r2
 1302 0024 0C48     		ldr	r0, .L69
 1303              	.LVL162:
 1304              		.loc 1 342 2 is_stmt 0 view .LVU300
 1305 0026 0022     		movs	r2, #0
 1306              	.LVL163:
 1307              		.loc 1 342 2 view .LVU301
 1308 0028 0421     		movs	r1, #4
 1309              	.LVL164:
 1310              		.loc 1 342 2 view .LVU302
 1311 002a FFF7FEFF 		bl	HAL_GPIO_WritePin
 1312              	.LVL165:
 343:Drivers/ST7789V/st7789v.c **** 	ST7789V_Fill(x - 1, y - 1, x + 1, y + 1, color);
 1313              		.loc 1 343 2 is_stmt 1 view .LVU303
 1314 002e 6B1C     		adds	r3, r5, #1
 1315 0030 621C     		adds	r2, r4, #1
 1316 0032 4146     		mov	r1, r8
 1317 0034 3046     		mov	r0, r6
 1318 0036 0097     		str	r7, [sp]
 1319 0038 9BB2     		uxth	r3, r3
 1320 003a 92B2     		uxth	r2, r2
 1321 003c FFF7FEFF 		bl	ST7789V_Fill
 1322              	.LVL166:
 344:Drivers/ST7789V/st7789v.c **** 	ST7789V_UnSelect();
 1323              		.loc 1 344 2 view .LVU304
 1324 0040 0548     		ldr	r0, .L69
 1325 0042 0122     		movs	r2, #1
 1326 0044 0421     		movs	r1, #4
 345:Drivers/ST7789V/st7789v.c **** }
 1327              		.loc 1 345 1 is_stmt 0 view .LVU305
 1328 0046 02B0     		add	sp, sp, #8
 1329              		.cfi_remember_state
 1330              		.cfi_def_cfa_offset 24
 1331              		@ sp needed
 1332 0048 BDE8F041 		pop	{r4, r5, r6, r7, r8, lr}
 1333              		.cfi_restore 14
 1334              		.cfi_restore 8
 1335              		.cfi_restore 7
ARM GAS  /var/folders/lp/x54gwt890xv47sdkqj1k04q40000gn/T//ccAXhYZq.s 			page 34


 1336              		.cfi_restore 6
 1337              		.cfi_restore 5
 1338              		.cfi_restore 4
 1339              		.cfi_def_cfa_offset 0
 1340              	.LVL167:
 344:Drivers/ST7789V/st7789v.c **** 	ST7789V_UnSelect();
 1341              		.loc 1 344 2 view .LVU306
 1342 004c FFF7FEBF 		b	HAL_GPIO_WritePin
 1343              	.LVL168:
 1344              	.L66:
 1345              		.cfi_restore_state
 1346              		.loc 1 345 1 view .LVU307
 1347 0050 02B0     		add	sp, sp, #8
 1348              		.cfi_def_cfa_offset 24
 1349              		@ sp needed
 1350 0052 BDE8F081 		pop	{r4, r5, r6, r7, r8, pc}
 1351              	.L70:
 1352 0056 00BF     		.align	2
 1353              	.L69:
 1354 0058 00000240 		.word	1073872896
 1355              		.cfi_endproc
 1356              	.LFE252:
 1358              		.section	.text.ST7789V_DrawLine,"ax",%progbits
 1359              		.align	1
 1360              		.p2align 2,,3
 1361              		.global	ST7789V_DrawLine
 1362              		.syntax unified
 1363              		.thumb
 1364              		.thumb_func
 1366              	ST7789V_DrawLine:
 1367              	.LVL169:
 1368              	.LFB253:
 346:Drivers/ST7789V/st7789v.c **** 
 347:Drivers/ST7789V/st7789v.c **** /**
 348:Drivers/ST7789V/st7789v.c ****  * @brief Draw a line with single color
 349:Drivers/ST7789V/st7789v.c ****  * @param x1&y1 -> coordinate of the start point
 350:Drivers/ST7789V/st7789v.c ****  * @param x2&y2 -> coordinate of the end point
 351:Drivers/ST7789V/st7789v.c ****  * @param color -> color of the line to Draw
 352:Drivers/ST7789V/st7789v.c ****  * @return none
 353:Drivers/ST7789V/st7789v.c ****  */
 354:Drivers/ST7789V/st7789v.c **** void ST7789V_DrawLine(uint16_t x0, uint16_t y0, uint16_t x1, uint16_t y1,
 355:Drivers/ST7789V/st7789v.c ****         uint16_t color) {
 1369              		.loc 1 355 25 is_stmt 1 view -0
 1370              		.cfi_startproc
 1371              		@ args = 4, pretend = 0, frame = 8
 1372              		@ frame_needed = 0, uses_anonymous_args = 0
 356:Drivers/ST7789V/st7789v.c **** 	uint16_t swap;
 1373              		.loc 1 356 2 view .LVU309
 357:Drivers/ST7789V/st7789v.c ****     uint16_t steep = ABS(y1 - y0) > ABS(x1 - x0);
 1374              		.loc 1 357 5 view .LVU310
 355:Drivers/ST7789V/st7789v.c **** 	uint16_t swap;
 1375              		.loc 1 355 25 is_stmt 0 view .LVU311
 1376 0000 2DE9F04F 		push	{r4, r5, r6, r7, r8, r9, r10, fp, lr}
 1377              		.cfi_def_cfa_offset 36
 1378              		.cfi_offset 4, -36
 1379              		.cfi_offset 5, -32
 1380              		.cfi_offset 6, -28
ARM GAS  /var/folders/lp/x54gwt890xv47sdkqj1k04q40000gn/T//ccAXhYZq.s 			page 35


 1381              		.cfi_offset 7, -24
 1382              		.cfi_offset 8, -20
 1383              		.cfi_offset 9, -16
 1384              		.cfi_offset 10, -12
 1385              		.cfi_offset 11, -8
 1386              		.cfi_offset 14, -4
 1387              		.loc 1 357 22 view .LVU312
 1388 0004 A3EB0108 		sub	r8, r3, r1
 1389              		.loc 1 357 37 view .LVU313
 1390 0008 A2EB0009 		sub	r9, r2, r0
 1391              		.loc 1 357 22 view .LVU314
 1392 000c B8F1000F 		cmp	r8, #0
 1393 0010 B8BF     		it	lt
 1394 0012 C8F10008 		rsblt	r8, r8, #0
 1395              		.loc 1 357 37 view .LVU315
 1396 0016 B9F1000F 		cmp	r9, #0
 355:Drivers/ST7789V/st7789v.c **** 	uint16_t swap;
 1397              		.loc 1 355 25 view .LVU316
 1398 001a 83B0     		sub	sp, sp, #12
 1399              		.cfi_def_cfa_offset 48
 1400              		.loc 1 357 37 view .LVU317
 1401 001c B8BF     		it	lt
 1402 001e C9F10009 		rsblt	r9, r9, #0
 1403              	.LVL170:
 358:Drivers/ST7789V/st7789v.c ****     if (steep) {
 1404              		.loc 1 358 5 is_stmt 1 view .LVU318
 1405              		.loc 1 358 8 is_stmt 0 view .LVU319
 1406 0022 C845     		cmp	r8, r9
 355:Drivers/ST7789V/st7789v.c **** 	uint16_t swap;
 1407              		.loc 1 355 25 view .LVU320
 1408 0024 BDF830A0 		ldrh	r10, [sp, #48]
 1409 0028 8B46     		mov	fp, r1
 1410 002a 1646     		mov	r6, r2
 1411 002c 1D46     		mov	r5, r3
 1412              		.loc 1 358 8 view .LVU321
 1413 002e 1ADC     		bgt	.L86
 1414 0030 3546     		mov	r5, r6
 1415 0032 8346     		mov	fp, r0
 1416 0034 1C46     		mov	r4, r3
 359:Drivers/ST7789V/st7789v.c **** 		swap = x0;
 360:Drivers/ST7789V/st7789v.c **** 		x0 = y0;
 361:Drivers/ST7789V/st7789v.c **** 		y0 = swap;
 362:Drivers/ST7789V/st7789v.c **** 
 363:Drivers/ST7789V/st7789v.c **** 		swap = x1;
 364:Drivers/ST7789V/st7789v.c **** 		x1 = y1;
 365:Drivers/ST7789V/st7789v.c **** 		y1 = swap;
 366:Drivers/ST7789V/st7789v.c ****         //_swap_int16_t(x0, y0);
 367:Drivers/ST7789V/st7789v.c ****         //_swap_int16_t(x1, y1);
 368:Drivers/ST7789V/st7789v.c ****     }
 369:Drivers/ST7789V/st7789v.c **** 
 370:Drivers/ST7789V/st7789v.c ****     if (x0 > x1) {
 1417              		.loc 1 370 8 view .LVU322
 1418 0036 AB45     		cmp	fp, r5
 358:Drivers/ST7789V/st7789v.c ****     if (steep) {
 1419              		.loc 1 358 8 view .LVU323
 1420 0038 1A46     		mov	r2, r3
 1421              	.LVL171:
ARM GAS  /var/folders/lp/x54gwt890xv47sdkqj1k04q40000gn/T//ccAXhYZq.s 			page 36


 358:Drivers/ST7789V/st7789v.c ****     if (steep) {
 1422              		.loc 1 358 8 view .LVU324
 1423 003a 2646     		mov	r6, r4
 1424 003c 0B46     		mov	r3, r1
 1425              	.LVL172:
 358:Drivers/ST7789V/st7789v.c ****     if (steep) {
 1426              		.loc 1 358 8 view .LVU325
 1427 003e 0846     		mov	r0, r1
 1428              	.LVL173:
 1429              		.loc 1 370 5 is_stmt 1 view .LVU326
 1430              		.loc 1 370 8 is_stmt 0 view .LVU327
 1431 0040 14D9     		bls	.L88
 1432              	.L73:
 1433              	.LVL174:
 371:Drivers/ST7789V/st7789v.c **** 		swap = x0;
 372:Drivers/ST7789V/st7789v.c **** 		x0 = x1;
 373:Drivers/ST7789V/st7789v.c **** 		x1 = swap;
 374:Drivers/ST7789V/st7789v.c **** 
 375:Drivers/ST7789V/st7789v.c **** 		swap = y0;
 376:Drivers/ST7789V/st7789v.c **** 		y0 = y1;
 377:Drivers/ST7789V/st7789v.c **** 		y1 = swap;
 378:Drivers/ST7789V/st7789v.c ****         //_swap_int16_t(x0, x1);
 379:Drivers/ST7789V/st7789v.c ****         //_swap_int16_t(y0, y1);
 380:Drivers/ST7789V/st7789v.c ****     }
 381:Drivers/ST7789V/st7789v.c **** 
 382:Drivers/ST7789V/st7789v.c ****     int16_t dx, dy;
 1434              		.loc 1 382 5 is_stmt 1 view .LVU328
 383:Drivers/ST7789V/st7789v.c ****     dx = x1 - x0;
 1435              		.loc 1 383 5 view .LVU329
 384:Drivers/ST7789V/st7789v.c ****     dy = ABS(y1 - y0);
 1436              		.loc 1 384 10 is_stmt 0 view .LVU330
 1437 0042 9F1A     		subs	r7, r3, r2
 383:Drivers/ST7789V/st7789v.c ****     dx = x1 - x0;
 1438              		.loc 1 383 13 view .LVU331
 1439 0044 ABEB0502 		sub	r2, fp, r5
 1440              		.loc 1 384 10 view .LVU332
 1441 0048 002F     		cmp	r7, #0
 385:Drivers/ST7789V/st7789v.c **** 
 386:Drivers/ST7789V/st7789v.c ****     int16_t err = dx / 2;
 1442              		.loc 1 386 13 view .LVU333
 1443 004a C2F3C034 		ubfx	r4, r2, #15, #1
 1444 004e 04FA82F4 		sxtah	r4, r4, r2
 384:Drivers/ST7789V/st7789v.c ****     dy = ABS(y1 - y0);
 1445              		.loc 1 384 10 view .LVU334
 1446 0052 B8BF     		it	lt
 1447 0054 7F42     		rsblt	r7, r7, #0
 387:Drivers/ST7789V/st7789v.c ****     int16_t ystep;
 388:Drivers/ST7789V/st7789v.c **** 
 389:Drivers/ST7789V/st7789v.c ****     if (y0 < y1) {
 1448              		.loc 1 389 8 view .LVU335
 1449 0056 B042     		cmp	r0, r6
 383:Drivers/ST7789V/st7789v.c ****     dy = ABS(y1 - y0);
 1450              		.loc 1 383 13 view .LVU336
 1451 0058 92B2     		uxth	r2, r2
 1452              	.LVL175:
 384:Drivers/ST7789V/st7789v.c **** 
 1453              		.loc 1 384 5 is_stmt 1 view .LVU337
ARM GAS  /var/folders/lp/x54gwt890xv47sdkqj1k04q40000gn/T//ccAXhYZq.s 			page 37


 386:Drivers/ST7789V/st7789v.c ****     int16_t ystep;
 1454              		.loc 1 386 5 view .LVU338
 386:Drivers/ST7789V/st7789v.c ****     int16_t ystep;
 1455              		.loc 1 386 13 is_stmt 0 view .LVU339
 1456 005a 4FEA6404 		asr	r4, r4, #1
 1457              	.LVL176:
 387:Drivers/ST7789V/st7789v.c **** 
 1458              		.loc 1 387 5 is_stmt 1 view .LVU340
 1459              		.loc 1 389 5 view .LVU341
 1460              		.loc 1 389 8 is_stmt 0 view .LVU342
 1461 005e 49D8     		bhi	.L83
 390:Drivers/ST7789V/st7789v.c ****         ystep = 1;
 391:Drivers/ST7789V/st7789v.c ****     } else {
 392:Drivers/ST7789V/st7789v.c ****         ystep = -1;
 1462              		.loc 1 392 15 view .LVU343
 1463 0060 4FF0FF31 		mov	r1, #-1
 1464 0064 1CE0     		b	.L79
 1465              	.LVL177:
 1466              	.L86:
 370:Drivers/ST7789V/st7789v.c **** 		swap = x0;
 1467              		.loc 1 370 8 view .LVU344
 1468 0066 AB45     		cmp	fp, r5
 1469 0068 0346     		mov	r3, r0
 1470              	.LVL178:
 370:Drivers/ST7789V/st7789v.c **** 		swap = x0;
 1471              		.loc 1 370 5 is_stmt 1 view .LVU345
 370:Drivers/ST7789V/st7789v.c **** 		swap = x0;
 1472              		.loc 1 370 8 is_stmt 0 view .LVU346
 1473 006a EAD8     		bhi	.L73
 1474              	.L88:
 382:Drivers/ST7789V/st7789v.c ****     dx = x1 - x0;
 1475              		.loc 1 382 5 is_stmt 1 view .LVU347
 383:Drivers/ST7789V/st7789v.c ****     dy = ABS(y1 - y0);
 1476              		.loc 1 383 5 view .LVU348
 384:Drivers/ST7789V/st7789v.c **** 
 1477              		.loc 1 384 10 is_stmt 0 view .LVU349
 1478 006c D21A     		subs	r2, r2, r3
 1479 006e 82EAE277 		eor	r7, r2, r2, asr #31
 1480 0072 A7EBE277 		sub	r7, r7, r2, asr #31
 383:Drivers/ST7789V/st7789v.c ****     dy = ABS(y1 - y0);
 1481              		.loc 1 383 13 view .LVU350
 1482 0076 A5EB0B02 		sub	r2, r5, fp
 386:Drivers/ST7789V/st7789v.c ****     int16_t ystep;
 1483              		.loc 1 386 13 view .LVU351
 1484 007a C2F3C034 		ubfx	r4, r2, #15, #1
 1485 007e 04FA82F4 		sxtah	r4, r4, r2
 389:Drivers/ST7789V/st7789v.c ****         ystep = 1;
 1486              		.loc 1 389 8 view .LVU352
 1487 0082 2B46     		mov	r3, r5
 1488 0084 B042     		cmp	r0, r6
 1489 0086 5D46     		mov	r5, fp
 1490              	.LVL179:
 383:Drivers/ST7789V/st7789v.c ****     dy = ABS(y1 - y0);
 1491              		.loc 1 383 13 view .LVU353
 1492 0088 92B2     		uxth	r2, r2
 1493              	.LVL180:
 384:Drivers/ST7789V/st7789v.c **** 
ARM GAS  /var/folders/lp/x54gwt890xv47sdkqj1k04q40000gn/T//ccAXhYZq.s 			page 38


 1494              		.loc 1 384 5 is_stmt 1 view .LVU354
 386:Drivers/ST7789V/st7789v.c ****     int16_t ystep;
 1495              		.loc 1 386 5 view .LVU355
 386:Drivers/ST7789V/st7789v.c ****     int16_t ystep;
 1496              		.loc 1 386 13 is_stmt 0 view .LVU356
 1497 008a 4FEA6404 		asr	r4, r4, #1
 1498              	.LVL181:
 387:Drivers/ST7789V/st7789v.c **** 
 1499              		.loc 1 387 5 is_stmt 1 view .LVU357
 389:Drivers/ST7789V/st7789v.c ****         ystep = 1;
 1500              		.loc 1 389 5 view .LVU358
 389:Drivers/ST7789V/st7789v.c ****         ystep = 1;
 1501              		.loc 1 389 8 is_stmt 0 view .LVU359
 1502 008e 0646     		mov	r6, r0
 1503              	.LVL182:
 389:Drivers/ST7789V/st7789v.c ****         ystep = 1;
 1504              		.loc 1 389 8 view .LVU360
 1505 0090 9B46     		mov	fp, r3
 1506              	.LVL183:
 389:Drivers/ST7789V/st7789v.c ****         ystep = 1;
 1507              		.loc 1 389 8 view .LVU361
 1508 0092 01D2     		bcs	.L89
 390:Drivers/ST7789V/st7789v.c ****     } else {
 1509              		.loc 1 390 15 view .LVU362
 1510 0094 0121     		movs	r1, #1
 1511 0096 03E0     		b	.L79
 1512              	.L89:
 393:Drivers/ST7789V/st7789v.c ****     }
 394:Drivers/ST7789V/st7789v.c **** 
 395:Drivers/ST7789V/st7789v.c ****     for (; x0<=x1; x0++) {
 1513              		.loc 1 395 14 discriminator 1 view .LVU363
 1514 0098 5D45     		cmp	r5, fp
 392:Drivers/ST7789V/st7789v.c ****     }
 1515              		.loc 1 392 15 view .LVU364
 1516 009a 4FF0FF31 		mov	r1, #-1
 1517              	.LVL184:
 1518              		.loc 1 395 14 is_stmt 1 discriminator 1 view .LVU365
 1519 009e 2DD8     		bhi	.L71
 1520              	.LVL185:
 1521              	.L79:
 396:Drivers/ST7789V/st7789v.c ****         if (steep) {
 397:Drivers/ST7789V/st7789v.c ****             ST7789V_DrawPixel(y0, x0, color);
 398:Drivers/ST7789V/st7789v.c ****         } else {
 399:Drivers/ST7789V/st7789v.c ****             ST7789V_DrawPixel(x0, y0, color);
 400:Drivers/ST7789V/st7789v.c ****         }
 401:Drivers/ST7789V/st7789v.c ****         err -= dy;
 1522              		.loc 1 401 13 is_stmt 0 view .LVU366
 1523 00a0 CDE90012 		strd	r1, r2, [sp]
 1524 00a4 BFB2     		uxth	r7, r7
 1525              		.loc 1 401 13 view .LVU367
 1526 00a6 18E0     		b	.L78
 1527              	.LVL186:
 1528              	.L90:
 1529              	.LBB40:
 1530              	.LBB41:
 300:Drivers/ST7789V/st7789v.c **** 		 (y < 0) || (y >= ST7789V_HEIGHT))	return;
 1531              		.loc 1 300 5 view .LVU368
ARM GAS  /var/folders/lp/x54gwt890xv47sdkqj1k04q40000gn/T//ccAXhYZq.s 			page 39


 1532 00a8 B6F5A07F 		cmp	r6, #320
 1533 00ac 06D2     		bcs	.L76
 301:Drivers/ST7789V/st7789v.c **** 	
 1534              		.loc 1 301 12 view .LVU369
 1535 00ae EF2D     		cmp	r5, #239
 1536 00b0 5246     		mov	r2, r10
 1537 00b2 2946     		mov	r1, r5
 1538 00b4 02D8     		bhi	.L76
 1539 00b6 3046     		mov	r0, r6
 1540 00b8 FFF7FEFF 		bl	ST7789V_DrawPixel.part.0
 1541              	.LVL187:
 1542              	.L76:
 301:Drivers/ST7789V/st7789v.c **** 	
 1543              		.loc 1 301 12 view .LVU370
 1544              	.LBE41:
 1545              	.LBE40:
 1546              		.loc 1 401 9 is_stmt 1 view .LVU371
 402:Drivers/ST7789V/st7789v.c ****         if (err < 0) {
 403:Drivers/ST7789V/st7789v.c ****             y0 += ystep;
 1547              		.loc 1 403 13 view .LVU372
 401:Drivers/ST7789V/st7789v.c ****         if (err < 0) {
 1548              		.loc 1 401 13 is_stmt 0 view .LVU373
 1549 00bc E21B     		subs	r2, r4, r7
 1550 00be 14B2     		sxth	r4, r2
 1551              	.LVL188:
 402:Drivers/ST7789V/st7789v.c ****         if (err < 0) {
 1552              		.loc 1 402 9 is_stmt 1 view .LVU374
 395:Drivers/ST7789V/st7789v.c ****         if (steep) {
 1553              		.loc 1 395 22 is_stmt 0 view .LVU375
 1554 00c0 0135     		adds	r5, r5, #1
 1555              	.LVL189:
 402:Drivers/ST7789V/st7789v.c ****         if (err < 0) {
 1556              		.loc 1 402 12 view .LVU376
 1557 00c2 002C     		cmp	r4, #0
 395:Drivers/ST7789V/st7789v.c ****         if (steep) {
 1558              		.loc 1 395 22 view .LVU377
 1559 00c4 ADB2     		uxth	r5, r5
 401:Drivers/ST7789V/st7789v.c ****         if (err < 0) {
 1560              		.loc 1 401 13 view .LVU378
 1561 00c6 92B2     		uxth	r2, r2
 402:Drivers/ST7789V/st7789v.c ****         if (err < 0) {
 1562              		.loc 1 402 12 view .LVU379
 1563 00c8 05DA     		bge	.L77
 404:Drivers/ST7789V/st7789v.c ****             err += dx;
 1564              		.loc 1 404 17 view .LVU380
 1565 00ca 019B     		ldr	r3, [sp, #4]
 1566 00cc 1A44     		add	r2, r2, r3
 403:Drivers/ST7789V/st7789v.c ****             err += dx;
 1567              		.loc 1 403 16 view .LVU381
 1568 00ce 009B     		ldr	r3, [sp]
 1569 00d0 1E44     		add	r6, r6, r3
 1570              	.LVL190:
 1571              		.loc 1 404 17 view .LVU382
 1572 00d2 14B2     		sxth	r4, r2
 1573              	.LVL191:
 403:Drivers/ST7789V/st7789v.c ****             err += dx;
 1574              		.loc 1 403 16 view .LVU383
ARM GAS  /var/folders/lp/x54gwt890xv47sdkqj1k04q40000gn/T//ccAXhYZq.s 			page 40


 1575 00d4 B6B2     		uxth	r6, r6
 1576              	.LVL192:
 1577              		.loc 1 404 13 is_stmt 1 view .LVU384
 1578              	.L77:
 395:Drivers/ST7789V/st7789v.c ****         if (steep) {
 1579              		.loc 1 395 22 view .LVU385
 395:Drivers/ST7789V/st7789v.c ****         if (steep) {
 1580              		.loc 1 395 14 discriminator 1 view .LVU386
 1581 00d6 5D45     		cmp	r5, fp
 1582 00d8 10D8     		bhi	.L71
 1583              	.L78:
 396:Drivers/ST7789V/st7789v.c ****             ST7789V_DrawPixel(y0, x0, color);
 1584              		.loc 1 396 9 view .LVU387
 397:Drivers/ST7789V/st7789v.c ****         } else {
 1585              		.loc 1 397 13 view .LVU388
 1586              	.LVL193:
 1587              	.LBB43:
 1588              	.LBI40:
 298:Drivers/ST7789V/st7789v.c **** {
 1589              		.loc 1 298 6 view .LVU389
 1590              	.LBB42:
 300:Drivers/ST7789V/st7789v.c **** 		 (y < 0) || (y >= ST7789V_HEIGHT))	return;
 1591              		.loc 1 300 2 view .LVU390
 1592              	.LBE42:
 1593              	.LBE43:
 399:Drivers/ST7789V/st7789v.c ****         }
 1594              		.loc 1 399 13 view .LVU391
 1595              	.LBB44:
 1596              	.LBI44:
 298:Drivers/ST7789V/st7789v.c **** {
 1597              		.loc 1 298 6 view .LVU392
 1598              	.LBB45:
 300:Drivers/ST7789V/st7789v.c **** 		 (y < 0) || (y >= ST7789V_HEIGHT))	return;
 1599              		.loc 1 300 2 view .LVU393
 1600              	.LBE45:
 1601              	.LBE44:
 396:Drivers/ST7789V/st7789v.c ****             ST7789V_DrawPixel(y0, x0, color);
 1602              		.loc 1 396 12 is_stmt 0 view .LVU394
 1603 00da C845     		cmp	r8, r9
 1604 00dc E4DC     		bgt	.L90
 1605              	.LBB47:
 1606              	.LBB46:
 300:Drivers/ST7789V/st7789v.c **** 		 (y < 0) || (y >= ST7789V_HEIGHT))	return;
 1607              		.loc 1 300 5 view .LVU395
 1608 00de B5F5A07F 		cmp	r5, #320
 1609 00e2 EBD2     		bcs	.L76
 301:Drivers/ST7789V/st7789v.c **** 	
 1610              		.loc 1 301 12 view .LVU396
 1611 00e4 EF2E     		cmp	r6, #239
 1612 00e6 5246     		mov	r2, r10
 1613 00e8 3146     		mov	r1, r6
 1614 00ea E7D8     		bhi	.L76
 1615 00ec 2846     		mov	r0, r5
 1616 00ee FFF7FEFF 		bl	ST7789V_DrawPixel.part.0
 1617              	.LVL194:
 1618 00f2 E3E7     		b	.L76
 1619              	.LVL195:
ARM GAS  /var/folders/lp/x54gwt890xv47sdkqj1k04q40000gn/T//ccAXhYZq.s 			page 41


 1620              	.L83:
 301:Drivers/ST7789V/st7789v.c **** 	
 1621              		.loc 1 301 12 view .LVU397
 1622              	.LBE46:
 1623              	.LBE47:
 395:Drivers/ST7789V/st7789v.c ****         if (steep) {
 1624              		.loc 1 395 14 discriminator 1 view .LVU398
 1625 00f4 5D45     		cmp	r5, fp
 390:Drivers/ST7789V/st7789v.c ****     } else {
 1626              		.loc 1 390 15 view .LVU399
 1627 00f6 4FF00101 		mov	r1, #1
 1628              	.LVL196:
 395:Drivers/ST7789V/st7789v.c ****         if (steep) {
 1629              		.loc 1 395 14 is_stmt 1 discriminator 1 view .LVU400
 1630 00fa D1D9     		bls	.L79
 1631              	.LVL197:
 1632              	.L71:
 405:Drivers/ST7789V/st7789v.c ****         }
 406:Drivers/ST7789V/st7789v.c ****     }
 407:Drivers/ST7789V/st7789v.c **** }
 1633              		.loc 1 407 1 is_stmt 0 view .LVU401
 1634 00fc 03B0     		add	sp, sp, #12
 1635              		.cfi_def_cfa_offset 36
 1636              		@ sp needed
 1637 00fe BDE8F08F 		pop	{r4, r5, r6, r7, r8, r9, r10, fp, pc}
 1638              		.loc 1 407 1 view .LVU402
 1639              		.cfi_endproc
 1640              	.LFE253:
 1642 0102 00BF     		.section	.text.ST7789V_DrawRectangle,"ax",%progbits
 1643              		.align	1
 1644              		.p2align 2,,3
 1645              		.global	ST7789V_DrawRectangle
 1646              		.syntax unified
 1647              		.thumb
 1648              		.thumb_func
 1650              	ST7789V_DrawRectangle:
 1651              	.LVL198:
 1652              	.LFB254:
 408:Drivers/ST7789V/st7789v.c **** 
 409:Drivers/ST7789V/st7789v.c **** /**
 410:Drivers/ST7789V/st7789v.c ****  * @brief Draw a Rectangle with single color
 411:Drivers/ST7789V/st7789v.c ****  * @param xi&yi -> 2 coordinates of 2 top points.
 412:Drivers/ST7789V/st7789v.c ****  * @param color -> color of the Rectangle line
 413:Drivers/ST7789V/st7789v.c ****  * @return none
 414:Drivers/ST7789V/st7789v.c ****  */
 415:Drivers/ST7789V/st7789v.c **** void ST7789V_DrawRectangle(uint16_t x1, uint16_t y1, uint16_t x2, uint16_t y2, uint16_t color)
 416:Drivers/ST7789V/st7789v.c **** {
 1653              		.loc 1 416 1 is_stmt 1 view -0
 1654              		.cfi_startproc
 1655              		@ args = 4, pretend = 0, frame = 0
 1656              		@ frame_needed = 0, uses_anonymous_args = 0
 417:Drivers/ST7789V/st7789v.c **** 	ST7789V_Select();
 1657              		.loc 1 417 2 view .LVU404
 416:Drivers/ST7789V/st7789v.c **** 	ST7789V_Select();
 1658              		.loc 1 416 1 is_stmt 0 view .LVU405
 1659 0000 2DE9F043 		push	{r4, r5, r6, r7, r8, r9, lr}
 1660              		.cfi_def_cfa_offset 28
ARM GAS  /var/folders/lp/x54gwt890xv47sdkqj1k04q40000gn/T//ccAXhYZq.s 			page 42


 1661              		.cfi_offset 4, -28
 1662              		.cfi_offset 5, -24
 1663              		.cfi_offset 6, -20
 1664              		.cfi_offset 7, -16
 1665              		.cfi_offset 8, -12
 1666              		.cfi_offset 9, -8
 1667              		.cfi_offset 14, -4
 1668              		.loc 1 417 2 view .LVU406
 1669 0004 DFF86890 		ldr	r9, .L93
 416:Drivers/ST7789V/st7789v.c **** 	ST7789V_Select();
 1670              		.loc 1 416 1 view .LVU407
 1671 0008 83B0     		sub	sp, sp, #12
 1672              		.cfi_def_cfa_offset 40
 416:Drivers/ST7789V/st7789v.c **** 	ST7789V_Select();
 1673              		.loc 1 416 1 view .LVU408
 1674 000a 0646     		mov	r6, r0
 1675 000c BDF82880 		ldrh	r8, [sp, #40]
 1676 0010 0C46     		mov	r4, r1
 1677 0012 1746     		mov	r7, r2
 1678              		.loc 1 417 2 view .LVU409
 1679 0014 4846     		mov	r0, r9
 1680              	.LVL199:
 1681              		.loc 1 417 2 view .LVU410
 1682 0016 0022     		movs	r2, #0
 1683              	.LVL200:
 1684              		.loc 1 417 2 view .LVU411
 1685 0018 0421     		movs	r1, #4
 1686              	.LVL201:
 416:Drivers/ST7789V/st7789v.c **** 	ST7789V_Select();
 1687              		.loc 1 416 1 view .LVU412
 1688 001a 1D46     		mov	r5, r3
 1689              		.loc 1 417 2 view .LVU413
 1690 001c FFF7FEFF 		bl	HAL_GPIO_WritePin
 1691              	.LVL202:
 418:Drivers/ST7789V/st7789v.c **** 	ST7789V_DrawLine(x1, y1, x2, y1, color);
 1692              		.loc 1 418 2 is_stmt 1 view .LVU414
 1693 0020 2346     		mov	r3, r4
 1694 0022 3A46     		mov	r2, r7
 1695 0024 2146     		mov	r1, r4
 1696 0026 3046     		mov	r0, r6
 1697 0028 CDF80080 		str	r8, [sp]
 1698 002c FFF7FEFF 		bl	ST7789V_DrawLine
 1699              	.LVL203:
 419:Drivers/ST7789V/st7789v.c **** 	ST7789V_DrawLine(x1, y1, x1, y2, color);
 1700              		.loc 1 419 2 view .LVU415
 1701 0030 2B46     		mov	r3, r5
 1702 0032 3246     		mov	r2, r6
 1703 0034 2146     		mov	r1, r4
 1704 0036 3046     		mov	r0, r6
 1705 0038 CDF80080 		str	r8, [sp]
 1706 003c FFF7FEFF 		bl	ST7789V_DrawLine
 1707              	.LVL204:
 420:Drivers/ST7789V/st7789v.c **** 	ST7789V_DrawLine(x1, y2, x2, y2, color);
 1708              		.loc 1 420 2 view .LVU416
 1709 0040 3046     		mov	r0, r6
 1710 0042 2B46     		mov	r3, r5
 1711 0044 3A46     		mov	r2, r7
ARM GAS  /var/folders/lp/x54gwt890xv47sdkqj1k04q40000gn/T//ccAXhYZq.s 			page 43


 1712 0046 2946     		mov	r1, r5
 1713 0048 CDF80080 		str	r8, [sp]
 1714 004c FFF7FEFF 		bl	ST7789V_DrawLine
 1715              	.LVL205:
 421:Drivers/ST7789V/st7789v.c **** 	ST7789V_DrawLine(x2, y1, x2, y2, color);
 1716              		.loc 1 421 2 view .LVU417
 1717 0050 3A46     		mov	r2, r7
 1718 0052 2146     		mov	r1, r4
 1719 0054 3846     		mov	r0, r7
 1720 0056 CDF80080 		str	r8, [sp]
 1721 005a 2B46     		mov	r3, r5
 1722 005c FFF7FEFF 		bl	ST7789V_DrawLine
 1723              	.LVL206:
 422:Drivers/ST7789V/st7789v.c **** 	ST7789V_UnSelect();
 1724              		.loc 1 422 2 view .LVU418
 1725 0060 0122     		movs	r2, #1
 1726 0062 0421     		movs	r1, #4
 1727 0064 4846     		mov	r0, r9
 423:Drivers/ST7789V/st7789v.c **** }
 1728              		.loc 1 423 1 is_stmt 0 view .LVU419
 1729 0066 03B0     		add	sp, sp, #12
 1730              		.cfi_def_cfa_offset 28
 1731              		@ sp needed
 1732 0068 BDE8F043 		pop	{r4, r5, r6, r7, r8, r9, lr}
 1733              		.cfi_restore 14
 1734              		.cfi_restore 9
 1735              		.cfi_restore 8
 1736              		.cfi_restore 7
 1737              		.cfi_restore 6
 1738              		.cfi_restore 5
 1739              		.cfi_restore 4
 1740              		.cfi_def_cfa_offset 0
 1741              	.LVL207:
 422:Drivers/ST7789V/st7789v.c **** 	ST7789V_UnSelect();
 1742              		.loc 1 422 2 view .LVU420
 1743 006c FFF7FEBF 		b	HAL_GPIO_WritePin
 1744              	.LVL208:
 1745              	.L94:
 1746              		.align	2
 1747              	.L93:
 1748 0070 00000240 		.word	1073872896
 1749              		.cfi_endproc
 1750              	.LFE254:
 1752              		.section	.text.ST7789V_DrawCircle,"ax",%progbits
 1753              		.align	1
 1754              		.p2align 2,,3
 1755              		.global	ST7789V_DrawCircle
 1756              		.syntax unified
 1757              		.thumb
 1758              		.thumb_func
 1760              	ST7789V_DrawCircle:
 1761              	.LVL209:
 1762              	.LFB255:
 424:Drivers/ST7789V/st7789v.c **** 
 425:Drivers/ST7789V/st7789v.c **** /** 
 426:Drivers/ST7789V/st7789v.c ****  * @brief Draw a circle with single color
 427:Drivers/ST7789V/st7789v.c ****  * @param x0&y0 -> coordinate of circle center
ARM GAS  /var/folders/lp/x54gwt890xv47sdkqj1k04q40000gn/T//ccAXhYZq.s 			page 44


 428:Drivers/ST7789V/st7789v.c ****  * @param r -> radius of circle
 429:Drivers/ST7789V/st7789v.c ****  * @param color -> color of circle line
 430:Drivers/ST7789V/st7789v.c ****  * @return  none
 431:Drivers/ST7789V/st7789v.c ****  */
 432:Drivers/ST7789V/st7789v.c **** void ST7789V_DrawCircle(uint16_t x0, uint16_t y0, uint8_t r, uint16_t color)
 433:Drivers/ST7789V/st7789v.c **** {
 1763              		.loc 1 433 1 is_stmt 1 view -0
 1764              		.cfi_startproc
 1765              		@ args = 0, pretend = 0, frame = 24
 1766              		@ frame_needed = 0, uses_anonymous_args = 0
 434:Drivers/ST7789V/st7789v.c **** 	int16_t f = 1 - r;
 1767              		.loc 1 434 2 view .LVU422
 433:Drivers/ST7789V/st7789v.c **** 	int16_t f = 1 - r;
 1768              		.loc 1 433 1 is_stmt 0 view .LVU423
 1769 0000 2DE9F04F 		push	{r4, r5, r6, r7, r8, r9, r10, fp, lr}
 1770              		.cfi_def_cfa_offset 36
 1771              		.cfi_offset 4, -36
 1772              		.cfi_offset 5, -32
 1773              		.cfi_offset 6, -28
 1774              		.cfi_offset 7, -24
 1775              		.cfi_offset 8, -20
 1776              		.cfi_offset 9, -16
 1777              		.cfi_offset 10, -12
 1778              		.cfi_offset 11, -8
 1779              		.cfi_offset 14, -4
 1780 0004 87B0     		sub	sp, sp, #28
 1781              		.cfi_def_cfa_offset 64
 433:Drivers/ST7789V/st7789v.c **** 	int16_t f = 1 - r;
 1782              		.loc 1 433 1 view .LVU424
 1783 0006 1E46     		mov	r6, r3
 1784 0008 0193     		str	r3, [sp, #4]
 435:Drivers/ST7789V/st7789v.c **** 	int16_t ddF_x = 1;
 436:Drivers/ST7789V/st7789v.c **** 	int16_t ddF_y = -2 * r;
 1785              		.loc 1 436 10 view .LVU425
 1786 000a C2EBC233 		rsb	r3, r2, r2, lsl #15
 1787              	.LVL210:
 1788              		.loc 1 436 10 view .LVU426
 1789 000e 5B00     		lsls	r3, r3, #1
 433:Drivers/ST7789V/st7789v.c **** 	int16_t f = 1 - r;
 1790              		.loc 1 433 1 view .LVU427
 1791 0010 8B46     		mov	fp, r1
 434:Drivers/ST7789V/st7789v.c **** 	int16_t ddF_x = 1;
 1792              		.loc 1 434 10 view .LVU428
 1793 0012 C2F10101 		rsb	r1, r2, #1
 1794              	.LVL211:
 433:Drivers/ST7789V/st7789v.c **** 	int16_t f = 1 - r;
 1795              		.loc 1 433 1 view .LVU429
 1796 0016 1446     		mov	r4, r2
 434:Drivers/ST7789V/st7789v.c **** 	int16_t ddF_x = 1;
 1797              		.loc 1 434 10 view .LVU430
 1798 0018 0291     		str	r1, [sp, #8]
 1799              	.LVL212:
 435:Drivers/ST7789V/st7789v.c **** 	int16_t ddF_x = 1;
 1800              		.loc 1 435 2 is_stmt 1 view .LVU431
 1801              		.loc 1 436 2 view .LVU432
 1802              		.loc 1 436 10 is_stmt 0 view .LVU433
 1803 001a 19B2     		sxth	r1, r3
ARM GAS  /var/folders/lp/x54gwt890xv47sdkqj1k04q40000gn/T//ccAXhYZq.s 			page 45


 433:Drivers/ST7789V/st7789v.c **** 	int16_t f = 1 - r;
 1804              		.loc 1 433 1 view .LVU434
 1805 001c 8246     		mov	r10, r0
 1806              		.loc 1 436 10 view .LVU435
 1807 001e 0391     		str	r1, [sp, #12]
 1808              	.LVL213:
 437:Drivers/ST7789V/st7789v.c **** 	int16_t x = 0;
 1809              		.loc 1 437 2 is_stmt 1 view .LVU436
 438:Drivers/ST7789V/st7789v.c **** 	int16_t y = r;
 1810              		.loc 1 438 2 view .LVU437
 439:Drivers/ST7789V/st7789v.c **** 
 440:Drivers/ST7789V/st7789v.c **** 	ST7789V_Select();
 1811              		.loc 1 440 2 is_stmt 0 view .LVU438
 1812 0020 8948     		ldr	r0, .L153
 1813              	.LVL214:
 1814              		.loc 1 440 2 view .LVU439
 1815 0022 0022     		movs	r2, #0
 1816              	.LVL215:
 1817              		.loc 1 440 2 view .LVU440
 1818 0024 0421     		movs	r1, #4
 438:Drivers/ST7789V/st7789v.c **** 	int16_t y = r;
 1819              		.loc 1 438 10 view .LVU441
 1820 0026 25B2     		sxth	r5, r4
 1821 0028 0095     		str	r5, [sp]
 1822              	.LVL216:
 1823              		.loc 1 440 2 is_stmt 1 view .LVU442
 1824 002a FFF7FEFF 		bl	HAL_GPIO_WritePin
 1825              	.LVL217:
 441:Drivers/ST7789V/st7789v.c **** 	ST7789V_DrawPixel(x0, y0 + r, color);
 1826              		.loc 1 441 2 view .LVU443
 1827              	.LBB72:
 1828              	.LBI72:
 298:Drivers/ST7789V/st7789v.c **** {
 1829              		.loc 1 298 6 view .LVU444
 1830              	.LBB73:
 300:Drivers/ST7789V/st7789v.c **** 		 (y < 0) || (y >= ST7789V_HEIGHT))	return;
 1831              		.loc 1 300 2 view .LVU445
 300:Drivers/ST7789V/st7789v.c **** 		 (y < 0) || (y >= ST7789V_HEIGHT))	return;
 1832              		.loc 1 300 5 is_stmt 0 view .LVU446
 1833 002e BAF5A07F 		cmp	r10, #320
 1834 0032 0BD2     		bcs	.L97
 1835              	.LBE73:
 1836              	.LBE72:
 1837              		.loc 1 441 2 view .LVU447
 1838 0034 04EB0B01 		add	r1, r4, fp
 1839 0038 89B2     		uxth	r1, r1
 442:Drivers/ST7789V/st7789v.c **** 	ST7789V_DrawPixel(x0, y0 - r, color);
 1840              		.loc 1 442 2 view .LVU448
 1841 003a ABEB0405 		sub	r5, fp, r4
 1842              	.LBB77:
 1843              	.LBB74:
 301:Drivers/ST7789V/st7789v.c **** 	
 1844              		.loc 1 301 12 view .LVU449
 1845 003e EF29     		cmp	r1, #239
 1846              	.LBE74:
 1847              	.LBE77:
 1848              		.loc 1 442 2 view .LVU450
ARM GAS  /var/folders/lp/x54gwt890xv47sdkqj1k04q40000gn/T//ccAXhYZq.s 			page 46


 1849 0040 ADB2     		uxth	r5, r5
 1850              	.LBB78:
 1851              	.LBB75:
 301:Drivers/ST7789V/st7789v.c **** 	
 1852              		.loc 1 301 12 view .LVU451
 1853 0042 40F2EB80 		bls	.L146
 1854              	.LVL218:
 301:Drivers/ST7789V/st7789v.c **** 	
 1855              		.loc 1 301 12 view .LVU452
 1856              	.LBE75:
 1857              	.LBE78:
 1858              	.LBB79:
 1859              	.LBB80:
 1860 0046 EF2D     		cmp	r5, #239
 1861 0048 40F2D080 		bls	.L147
 1862              	.L97:
 1863              	.LBE80:
 1864              	.LBE79:
 443:Drivers/ST7789V/st7789v.c **** 	ST7789V_DrawPixel(x0 + r, y0, color);
 1865              		.loc 1 443 2 is_stmt 1 view .LVU453
 1866 004c 04EB0A00 		add	r0, r4, r10
 1867 0050 80B2     		uxth	r0, r0
 1868              	.LVL219:
 1869              	.LBB83:
 1870              	.LBI83:
 298:Drivers/ST7789V/st7789v.c **** {
 1871              		.loc 1 298 6 view .LVU454
 1872              	.LBB84:
 300:Drivers/ST7789V/st7789v.c **** 		 (y < 0) || (y >= ST7789V_HEIGHT))	return;
 1873              		.loc 1 300 2 view .LVU455
 300:Drivers/ST7789V/st7789v.c **** 		 (y < 0) || (y >= ST7789V_HEIGHT))	return;
 1874              		.loc 1 300 5 is_stmt 0 view .LVU456
 1875 0052 B0F5A07F 		cmp	r0, #320
 1876 0056 80F0D580 		bcs	.L100
 1877              	.L152:
 301:Drivers/ST7789V/st7789v.c **** 	
 1878              		.loc 1 301 12 view .LVU457
 1879 005a BBF1EF0F 		cmp	fp, #239
 1880 005e 40F2B580 		bls	.L148
 1881              	.LVL220:
 1882              	.L102:
 301:Drivers/ST7789V/st7789v.c **** 	
 1883              		.loc 1 301 12 view .LVU458
 1884              	.LBE84:
 1885              	.LBE83:
 444:Drivers/ST7789V/st7789v.c **** 	ST7789V_DrawPixel(x0 - r, y0, color);
 445:Drivers/ST7789V/st7789v.c **** 
 446:Drivers/ST7789V/st7789v.c **** 	while (x < y) {
 1886              		.loc 1 446 11 is_stmt 1 view .LVU459
 1887 0062 009B     		ldr	r3, [sp]
 1888 0064 0027     		movs	r7, #0
 1889 0066 BBB9     		cbnz	r3, .L105
 1890 0068 6CE0     		b	.L129
 1891              	.LVL221:
 1892              	.L149:
 447:Drivers/ST7789V/st7789v.c **** 		if (f >= 0) {
 448:Drivers/ST7789V/st7789v.c **** 			y--;
ARM GAS  /var/folders/lp/x54gwt890xv47sdkqj1k04q40000gn/T//ccAXhYZq.s 			page 47


 449:Drivers/ST7789V/st7789v.c **** 			ddF_y += 2;
 450:Drivers/ST7789V/st7789v.c **** 			f += ddF_y;
 451:Drivers/ST7789V/st7789v.c **** 		}
 452:Drivers/ST7789V/st7789v.c **** 		x++;
 453:Drivers/ST7789V/st7789v.c **** 		ddF_x += 2;
 454:Drivers/ST7789V/st7789v.c **** 		f += ddF_x;
 455:Drivers/ST7789V/st7789v.c **** 
 456:Drivers/ST7789V/st7789v.c **** 		ST7789V_DrawPixel(x0 + x, y0 + y, color);
 457:Drivers/ST7789V/st7789v.c **** 		ST7789V_DrawPixel(x0 - x, y0 + y, color);
 458:Drivers/ST7789V/st7789v.c **** 		ST7789V_DrawPixel(x0 + x, y0 - y, color);
 459:Drivers/ST7789V/st7789v.c **** 		ST7789V_DrawPixel(x0 - x, y0 - y, color);
 460:Drivers/ST7789V/st7789v.c **** 
 461:Drivers/ST7789V/st7789v.c **** 		ST7789V_DrawPixel(x0 + y, y0 + x, color);
 462:Drivers/ST7789V/st7789v.c **** 		ST7789V_DrawPixel(x0 - y, y0 + x, color);
 463:Drivers/ST7789V/st7789v.c **** 		ST7789V_DrawPixel(x0 + y, y0 - x, color);
 1893              		.loc 1 463 3 is_stmt 0 view .LVU460
 1894 006a 751B     		subs	r5, r6, r5
 1895              	.LBB88:
 1896              	.LBB89:
 301:Drivers/ST7789V/st7789v.c **** 	
 1897              		.loc 1 301 12 view .LVU461
 1898 006c EF2E     		cmp	r6, #239
 1899              	.LBE89:
 1900              	.LBE88:
 1901              		.loc 1 463 3 view .LVU462
 1902 006e ADB2     		uxth	r5, r5
 1903              	.LBB95:
 1904              	.LBB90:
 301:Drivers/ST7789V/st7789v.c **** 	
 1905              		.loc 1 301 12 view .LVU463
 1906 0070 7BD9     		bls	.L119
 1907              	.LVL222:
 301:Drivers/ST7789V/st7789v.c **** 	
 1908              		.loc 1 301 12 view .LVU464
 1909              	.LBE90:
 1910              	.LBE95:
 462:Drivers/ST7789V/st7789v.c **** 		ST7789V_DrawPixel(x0 + y, y0 - x, color);
 1911              		.loc 1 462 3 is_stmt 1 view .LVU465
 1912              	.LBB96:
 1913              	.LBI96:
 298:Drivers/ST7789V/st7789v.c **** {
 1914              		.loc 1 298 6 view .LVU466
 1915              	.LBB97:
 300:Drivers/ST7789V/st7789v.c **** 		 (y < 0) || (y >= ST7789V_HEIGHT))	return;
 1916              		.loc 1 300 2 view .LVU467
 300:Drivers/ST7789V/st7789v.c **** 		 (y < 0) || (y >= ST7789V_HEIGHT))	return;
 1917              		.loc 1 300 5 is_stmt 0 view .LVU468
 1918 0072 B4F5A07F 		cmp	r4, #320
 1919 0076 80F0A080 		bcs	.L120
 1920              	.LVL223:
 1921              	.L121:
 300:Drivers/ST7789V/st7789v.c **** 		 (y < 0) || (y >= ST7789V_HEIGHT))	return;
 1922              		.loc 1 300 5 view .LVU469
 1923              	.LBE97:
 1924              	.LBE96:
 1925              	.LBB103:
 1926              	.LBB104:
ARM GAS  /var/folders/lp/x54gwt890xv47sdkqj1k04q40000gn/T//ccAXhYZq.s 			page 48


 301:Drivers/ST7789V/st7789v.c **** 	
 1927              		.loc 1 301 12 view .LVU470
 1928 007a EF2D     		cmp	r5, #239
 1929 007c 09D8     		bhi	.L125
 1930 007e 019A     		ldr	r2, [sp, #4]
 1931 0080 4046     		mov	r0, r8
 1932 0082 2946     		mov	r1, r5
 1933 0084 FFF7FEFF 		bl	ST7789V_DrawPixel.part.0
 1934              	.LVL224:
 1935              	.LBE104:
 1936              	.LBE103:
 464:Drivers/ST7789V/st7789v.c **** 		ST7789V_DrawPixel(x0 - y, y0 - x, color);
 1937              		.loc 1 464 3 is_stmt 1 view .LVU471
 1938              	.LBB108:
 1939              	.LBI108:
 298:Drivers/ST7789V/st7789v.c **** {
 1940              		.loc 1 298 6 view .LVU472
 1941              	.LBB109:
 300:Drivers/ST7789V/st7789v.c **** 		 (y < 0) || (y >= ST7789V_HEIGHT))	return;
 1942              		.loc 1 300 2 view .LVU473
 1943              	.L130:
 300:Drivers/ST7789V/st7789v.c **** 		 (y < 0) || (y >= ST7789V_HEIGHT))	return;
 1944              		.loc 1 300 2 is_stmt 0 view .LVU474
 1945 0088 019A     		ldr	r2, [sp, #4]
 1946 008a 2946     		mov	r1, r5
 1947 008c 2046     		mov	r0, r4
 1948 008e FFF7FEFF 		bl	ST7789V_DrawPixel.part.0
 1949              	.LVL225:
 1950              	.L125:
 300:Drivers/ST7789V/st7789v.c **** 		 (y < 0) || (y >= ST7789V_HEIGHT))	return;
 1951              		.loc 1 300 2 view .LVU475
 1952              	.LBE109:
 1953              	.LBE108:
 446:Drivers/ST7789V/st7789v.c **** 		if (f >= 0) {
 1954              		.loc 1 446 11 is_stmt 1 view .LVU476
 1955 0092 009B     		ldr	r3, [sp]
 1956 0094 BB42     		cmp	r3, r7
 1957 0096 55DD     		ble	.L129
 1958              	.LVL226:
 1959              	.L105:
 447:Drivers/ST7789V/st7789v.c **** 			y--;
 1960              		.loc 1 447 3 view .LVU477
 450:Drivers/ST7789V/st7789v.c **** 		}
 1961              		.loc 1 450 6 is_stmt 0 view .LVU478
 1962 0098 029A     		ldr	r2, [sp, #8]
 448:Drivers/ST7789V/st7789v.c **** 			ddF_y += 2;
 1963              		.loc 1 448 5 view .LVU479
 1964 009a BDF80040 		ldrh	r4, [sp]
 447:Drivers/ST7789V/st7789v.c **** 			y--;
 1965              		.loc 1 447 6 view .LVU480
 1966 009e 002A     		cmp	r2, #0
 450:Drivers/ST7789V/st7789v.c **** 		}
 1967              		.loc 1 450 6 view .LVU481
 1968 00a0 93B2     		uxth	r3, r2
 447:Drivers/ST7789V/st7789v.c **** 			y--;
 1969              		.loc 1 447 6 view .LVU482
 1970 00a2 0ADB     		blt	.L106
ARM GAS  /var/folders/lp/x54gwt890xv47sdkqj1k04q40000gn/T//ccAXhYZq.s 			page 49


 448:Drivers/ST7789V/st7789v.c **** 			ddF_y += 2;
 1971              		.loc 1 448 4 is_stmt 1 view .LVU483
 449:Drivers/ST7789V/st7789v.c **** 			f += ddF_y;
 1972              		.loc 1 449 10 is_stmt 0 view .LVU484
 1973 00a4 039A     		ldr	r2, [sp, #12]
 448:Drivers/ST7789V/st7789v.c **** 			ddF_y += 2;
 1974              		.loc 1 448 5 view .LVU485
 1975 00a6 611E     		subs	r1, r4, #1
 449:Drivers/ST7789V/st7789v.c **** 			f += ddF_y;
 1976              		.loc 1 449 10 view .LVU486
 1977 00a8 0232     		adds	r2, r2, #2
 450:Drivers/ST7789V/st7789v.c **** 		}
 1978              		.loc 1 450 6 view .LVU487
 1979 00aa 13FA82F3 		uxtah	r3, r3, r2
 448:Drivers/ST7789V/st7789v.c **** 			ddF_y += 2;
 1980              		.loc 1 448 5 view .LVU488
 1981 00ae 8CB2     		uxth	r4, r1
 449:Drivers/ST7789V/st7789v.c **** 			f += ddF_y;
 1982              		.loc 1 449 10 view .LVU489
 1983 00b0 12B2     		sxth	r2, r2
 448:Drivers/ST7789V/st7789v.c **** 			ddF_y += 2;
 1984              		.loc 1 448 5 view .LVU490
 1985 00b2 09B2     		sxth	r1, r1
 1986 00b4 0091     		str	r1, [sp]
 1987              	.LVL227:
 449:Drivers/ST7789V/st7789v.c **** 			f += ddF_y;
 1988              		.loc 1 449 4 is_stmt 1 view .LVU491
 449:Drivers/ST7789V/st7789v.c **** 			f += ddF_y;
 1989              		.loc 1 449 10 is_stmt 0 view .LVU492
 1990 00b6 0392     		str	r2, [sp, #12]
 1991              	.LVL228:
 450:Drivers/ST7789V/st7789v.c **** 		}
 1992              		.loc 1 450 4 is_stmt 1 view .LVU493
 450:Drivers/ST7789V/st7789v.c **** 		}
 1993              		.loc 1 450 6 is_stmt 0 view .LVU494
 1994 00b8 9BB2     		uxth	r3, r3
 1995              	.LVL229:
 1996              	.L106:
 452:Drivers/ST7789V/st7789v.c **** 		ddF_x += 2;
 1997              		.loc 1 452 3 is_stmt 1 view .LVU495
 1998 00ba 0137     		adds	r7, r7, #1
 1999              	.LVL230:
 452:Drivers/ST7789V/st7789v.c **** 		ddF_x += 2;
 2000              		.loc 1 452 3 is_stmt 0 view .LVU496
 2001 00bc BEB2     		uxth	r6, r7
 2002 00be 7500     		lsls	r5, r6, #1
 2003 00c0 ADB2     		uxth	r5, r5
 456:Drivers/ST7789V/st7789v.c **** 		ST7789V_DrawPixel(x0 - x, y0 + y, color);
 2004              		.loc 1 456 3 view .LVU497
 2005 00c2 0AEB0608 		add	r8, r10, r6
 453:Drivers/ST7789V/st7789v.c **** 		f += ddF_x;
 2006              		.loc 1 453 9 view .LVU498
 2007 00c6 6A1C     		adds	r2, r5, #1
 456:Drivers/ST7789V/st7789v.c **** 		ST7789V_DrawPixel(x0 - x, y0 + y, color);
 2008              		.loc 1 456 3 view .LVU499
 2009 00c8 1FFA88F8 		uxth	r8, r8
 454:Drivers/ST7789V/st7789v.c **** 
ARM GAS  /var/folders/lp/x54gwt890xv47sdkqj1k04q40000gn/T//ccAXhYZq.s 			page 50


 2010              		.loc 1 454 5 view .LVU500
 2011 00cc 1344     		add	r3, r3, r2
 456:Drivers/ST7789V/st7789v.c **** 		ST7789V_DrawPixel(x0 - x, y0 + y, color);
 2012              		.loc 1 456 3 view .LVU501
 2013 00ce 04EB0B01 		add	r1, r4, fp
 457:Drivers/ST7789V/st7789v.c **** 		ST7789V_DrawPixel(x0 + x, y0 - y, color);
 2014              		.loc 1 457 3 view .LVU502
 2015 00d2 A8EB0509 		sub	r9, r8, r5
 454:Drivers/ST7789V/st7789v.c **** 
 2016              		.loc 1 454 5 view .LVU503
 2017 00d6 1BB2     		sxth	r3, r3
 2018              	.LBB112:
 2019              	.LBB113:
 300:Drivers/ST7789V/st7789v.c **** 		 (y < 0) || (y >= ST7789V_HEIGHT))	return;
 2020              		.loc 1 300 5 view .LVU504
 2021 00d8 B8F5A07F 		cmp	r8, #320
 2022              	.LBE113:
 2023              	.LBE112:
 452:Drivers/ST7789V/st7789v.c **** 		ddF_x += 2;
 2024              		.loc 1 452 4 view .LVU505
 2025 00dc 3FB2     		sxth	r7, r7
 2026              	.LVL231:
 453:Drivers/ST7789V/st7789v.c **** 		f += ddF_x;
 2027              		.loc 1 453 3 is_stmt 1 view .LVU506
 454:Drivers/ST7789V/st7789v.c **** 
 2028              		.loc 1 454 3 view .LVU507
 454:Drivers/ST7789V/st7789v.c **** 
 2029              		.loc 1 454 5 is_stmt 0 view .LVU508
 2030 00de 0293     		str	r3, [sp, #8]
 2031              	.LVL232:
 456:Drivers/ST7789V/st7789v.c **** 		ST7789V_DrawPixel(x0 - x, y0 + y, color);
 2032              		.loc 1 456 3 is_stmt 1 view .LVU509
 2033 00e0 89B2     		uxth	r1, r1
 2034              	.LVL233:
 2035              	.LBB119:
 2036              	.LBI112:
 298:Drivers/ST7789V/st7789v.c **** {
 2037              		.loc 1 298 6 view .LVU510
 2038              	.LBB114:
 300:Drivers/ST7789V/st7789v.c **** 		 (y < 0) || (y >= ST7789V_HEIGHT))	return;
 2039              		.loc 1 300 2 view .LVU511
 2040              	.LBE114:
 2041              	.LBE119:
 457:Drivers/ST7789V/st7789v.c **** 		ST7789V_DrawPixel(x0 + x, y0 - y, color);
 2042              		.loc 1 457 3 is_stmt 0 view .LVU512
 2043 00e2 1FFA89F9 		uxth	r9, r9
 2044              	.LBB120:
 2045              	.LBB115:
 300:Drivers/ST7789V/st7789v.c **** 		 (y < 0) || (y >= ST7789V_HEIGHT))	return;
 2046              		.loc 1 300 5 view .LVU513
 2047 00e6 35D2     		bcs	.L107
 2048              	.LBE115:
 2049              	.LBE120:
 458:Drivers/ST7789V/st7789v.c **** 		ST7789V_DrawPixel(x0 - x, y0 - y, color);
 2050              		.loc 1 458 3 view .LVU514
 2051 00e8 ABEB0403 		sub	r3, fp, r4
 2052              	.LBB121:
ARM GAS  /var/folders/lp/x54gwt890xv47sdkqj1k04q40000gn/T//ccAXhYZq.s 			page 51


 2053              	.LBB116:
 301:Drivers/ST7789V/st7789v.c **** 	
 2054              		.loc 1 301 12 view .LVU515
 2055 00ec EF29     		cmp	r1, #239
 2056              	.LBE116:
 2057              	.LBE121:
 458:Drivers/ST7789V/st7789v.c **** 		ST7789V_DrawPixel(x0 - x, y0 - y, color);
 2058              		.loc 1 458 3 view .LVU516
 2059 00ee 9BB2     		uxth	r3, r3
 2060              	.LBB122:
 2061              	.LBB117:
 301:Drivers/ST7789V/st7789v.c **** 	
 2062              		.loc 1 301 12 view .LVU517
 2063 00f0 49D9     		bls	.L108
 2064              	.LVL234:
 301:Drivers/ST7789V/st7789v.c **** 	
 2065              		.loc 1 301 12 view .LVU518
 2066              	.LBE117:
 2067              	.LBE122:
 457:Drivers/ST7789V/st7789v.c **** 		ST7789V_DrawPixel(x0 + x, y0 - y, color);
 2068              		.loc 1 457 3 is_stmt 1 view .LVU519
 2069              	.LBB123:
 2070              	.LBI123:
 298:Drivers/ST7789V/st7789v.c **** {
 2071              		.loc 1 298 6 view .LVU520
 2072              	.LBB124:
 300:Drivers/ST7789V/st7789v.c **** 		 (y < 0) || (y >= ST7789V_HEIGHT))	return;
 2073              		.loc 1 300 2 view .LVU521
 300:Drivers/ST7789V/st7789v.c **** 		 (y < 0) || (y >= ST7789V_HEIGHT))	return;
 2074              		.loc 1 300 5 is_stmt 0 view .LVU522
 2075 00f2 B9F5A07F 		cmp	r9, #320
 2076 00f6 58D2     		bcs	.L111
 2077              	.LVL235:
 2078              	.L110:
 300:Drivers/ST7789V/st7789v.c **** 		 (y < 0) || (y >= ST7789V_HEIGHT))	return;
 2079              		.loc 1 300 5 view .LVU523
 2080              	.LBE124:
 2081              	.LBE123:
 2082              	.LBB130:
 2083              	.LBB131:
 301:Drivers/ST7789V/st7789v.c **** 	
 2084              		.loc 1 301 12 view .LVU524
 2085 00f8 EF2B     		cmp	r3, #239
 2086 00fa 0BD8     		bhi	.L114
 2087 00fc 1946     		mov	r1, r3
 2088 00fe 019A     		ldr	r2, [sp, #4]
 2089 0100 0493     		str	r3, [sp, #16]
 2090 0102 4046     		mov	r0, r8
 2091 0104 FFF7FEFF 		bl	ST7789V_DrawPixel.part.0
 2092              	.LVL236:
 2093              	.LBE131:
 2094              	.LBE130:
 459:Drivers/ST7789V/st7789v.c **** 
 2095              		.loc 1 459 3 is_stmt 1 view .LVU525
 2096              	.LBB134:
 2097              	.LBI134:
 298:Drivers/ST7789V/st7789v.c **** {
ARM GAS  /var/folders/lp/x54gwt890xv47sdkqj1k04q40000gn/T//ccAXhYZq.s 			page 52


 2098              		.loc 1 298 6 view .LVU526
 2099              	.LBB135:
 300:Drivers/ST7789V/st7789v.c **** 		 (y < 0) || (y >= ST7789V_HEIGHT))	return;
 2100              		.loc 1 300 2 view .LVU527
 2101 0108 049B     		ldr	r3, [sp, #16]
 2102              	.LVL237:
 2103              	.L132:
 300:Drivers/ST7789V/st7789v.c **** 		 (y < 0) || (y >= ST7789V_HEIGHT))	return;
 2104              		.loc 1 300 2 is_stmt 0 view .LVU528
 2105 010a 019A     		ldr	r2, [sp, #4]
 2106 010c 1946     		mov	r1, r3
 2107 010e 4846     		mov	r0, r9
 2108 0110 FFF7FEFF 		bl	ST7789V_DrawPixel.part.0
 2109              	.LVL238:
 2110              	.L114:
 2111              	.LBE135:
 2112              	.LBE134:
 461:Drivers/ST7789V/st7789v.c **** 		ST7789V_DrawPixel(x0 - y, y0 + x, color);
 2113              		.loc 1 461 3 is_stmt 1 view .LVU529
 2114 0114 04EB0A08 		add	r8, r4, r10
 2115 0118 1FFA88F8 		uxth	r8, r8
 2116 011c 5E44     		add	r6, r6, fp
 462:Drivers/ST7789V/st7789v.c **** 		ST7789V_DrawPixel(x0 + y, y0 - x, color);
 2117              		.loc 1 462 3 is_stmt 0 view .LVU530
 2118 011e AAEB0404 		sub	r4, r10, r4
 2119              	.LBB138:
 2120              	.LBB91:
 300:Drivers/ST7789V/st7789v.c **** 		 (y < 0) || (y >= ST7789V_HEIGHT))	return;
 2121              		.loc 1 300 5 view .LVU531
 2122 0122 B8F5A07F 		cmp	r8, #320
 2123              	.LBE91:
 2124              	.LBE138:
 461:Drivers/ST7789V/st7789v.c **** 		ST7789V_DrawPixel(x0 - y, y0 + x, color);
 2125              		.loc 1 461 3 view .LVU532
 2126 0126 B6B2     		uxth	r6, r6
 2127              	.LVL239:
 2128              	.LBB139:
 2129              	.LBI88:
 298:Drivers/ST7789V/st7789v.c **** {
 2130              		.loc 1 298 6 is_stmt 1 view .LVU533
 2131              	.LBB92:
 300:Drivers/ST7789V/st7789v.c **** 		 (y < 0) || (y >= ST7789V_HEIGHT))	return;
 2132              		.loc 1 300 2 view .LVU534
 2133              	.LBE92:
 2134              	.LBE139:
 462:Drivers/ST7789V/st7789v.c **** 		ST7789V_DrawPixel(x0 + y, y0 - x, color);
 2135              		.loc 1 462 3 is_stmt 0 view .LVU535
 2136 0128 A4B2     		uxth	r4, r4
 2137              	.LBB140:
 2138              	.LBB93:
 300:Drivers/ST7789V/st7789v.c **** 		 (y < 0) || (y >= ST7789V_HEIGHT))	return;
 2139              		.loc 1 300 5 view .LVU536
 2140 012a 9ED3     		bcc	.L149
 2141              	.LVL240:
 300:Drivers/ST7789V/st7789v.c **** 		 (y < 0) || (y >= ST7789V_HEIGHT))	return;
 2142              		.loc 1 300 5 view .LVU537
 2143              	.LBE93:
ARM GAS  /var/folders/lp/x54gwt890xv47sdkqj1k04q40000gn/T//ccAXhYZq.s 			page 53


 2144              	.LBE140:
 462:Drivers/ST7789V/st7789v.c **** 		ST7789V_DrawPixel(x0 + y, y0 - x, color);
 2145              		.loc 1 462 3 is_stmt 1 view .LVU538
 2146              	.LBB141:
 298:Drivers/ST7789V/st7789v.c **** {
 2147              		.loc 1 298 6 view .LVU539
 2148              	.LBB98:
 300:Drivers/ST7789V/st7789v.c **** 		 (y < 0) || (y >= ST7789V_HEIGHT))	return;
 2149              		.loc 1 300 2 view .LVU540
 300:Drivers/ST7789V/st7789v.c **** 		 (y < 0) || (y >= ST7789V_HEIGHT))	return;
 2150              		.loc 1 300 5 is_stmt 0 view .LVU541
 2151 012c B4F5A07F 		cmp	r4, #320
 2152 0130 AFD2     		bcs	.L125
 2153              	.LBE98:
 2154              	.LBE141:
 463:Drivers/ST7789V/st7789v.c **** 		ST7789V_DrawPixel(x0 - y, y0 - x, color);
 2155              		.loc 1 463 3 view .LVU542
 2156 0132 751B     		subs	r5, r6, r5
 2157              	.LBB142:
 2158              	.LBB99:
 301:Drivers/ST7789V/st7789v.c **** 	
 2159              		.loc 1 301 12 view .LVU543
 2160 0134 EF2E     		cmp	r6, #239
 2161              	.LBE99:
 2162              	.LBE142:
 463:Drivers/ST7789V/st7789v.c **** 		ST7789V_DrawPixel(x0 - y, y0 - x, color);
 2163              		.loc 1 463 3 view .LVU544
 2164 0136 ADB2     		uxth	r5, r5
 2165              	.LBB143:
 2166              	.LBB100:
 301:Drivers/ST7789V/st7789v.c **** 	
 2167              		.loc 1 301 12 view .LVU545
 2168 0138 7FD9     		bls	.L150
 2169              	.LVL241:
 2170              	.L126:
 301:Drivers/ST7789V/st7789v.c **** 	
 2171              		.loc 1 301 12 view .LVU546
 2172              	.LBE100:
 2173              	.LBE143:
 2174              	.LBB144:
 2175              	.LBB110:
 2176 013a EF2D     		cmp	r5, #239
 2177 013c A4D9     		bls	.L130
 301:Drivers/ST7789V/st7789v.c **** 	
 2178              		.loc 1 301 12 view .LVU547
 2179              	.LBE110:
 2180              	.LBE144:
 446:Drivers/ST7789V/st7789v.c **** 		if (f >= 0) {
 2181              		.loc 1 446 11 is_stmt 1 view .LVU548
 2182 013e 009B     		ldr	r3, [sp]
 2183 0140 BB42     		cmp	r3, r7
 2184 0142 A9DC     		bgt	.L105
 2185              	.LVL242:
 2186              	.L129:
 465:Drivers/ST7789V/st7789v.c **** 	}
 466:Drivers/ST7789V/st7789v.c **** 	ST7789V_UnSelect();
 2187              		.loc 1 466 2 view .LVU549
ARM GAS  /var/folders/lp/x54gwt890xv47sdkqj1k04q40000gn/T//ccAXhYZq.s 			page 54


 2188 0144 4048     		ldr	r0, .L153
 2189 0146 0122     		movs	r2, #1
 2190 0148 0421     		movs	r1, #4
 467:Drivers/ST7789V/st7789v.c **** }
 2191              		.loc 1 467 1 is_stmt 0 view .LVU550
 2192 014a 07B0     		add	sp, sp, #28
 2193              		.cfi_remember_state
 2194              		.cfi_def_cfa_offset 36
 2195              	.LVL243:
 2196              		.loc 1 467 1 view .LVU551
 2197              		@ sp needed
 2198 014c BDE8F04F 		pop	{r4, r5, r6, r7, r8, r9, r10, fp, lr}
 2199              		.cfi_restore 14
 2200              		.cfi_restore 11
 2201              		.cfi_restore 10
 2202              		.cfi_restore 9
 2203              		.cfi_restore 8
 2204              		.cfi_restore 7
 2205              		.cfi_restore 6
 2206              		.cfi_restore 5
 2207              		.cfi_restore 4
 2208              		.cfi_def_cfa_offset 0
 2209              	.LVL244:
 466:Drivers/ST7789V/st7789v.c **** }
 2210              		.loc 1 466 2 view .LVU552
 2211 0150 FFF7FEBF 		b	HAL_GPIO_WritePin
 2212              	.LVL245:
 2213              	.L107:
 2214              		.cfi_restore_state
 457:Drivers/ST7789V/st7789v.c **** 		ST7789V_DrawPixel(x0 + x, y0 - y, color);
 2215              		.loc 1 457 3 is_stmt 1 view .LVU553
 2216              	.LBB145:
 298:Drivers/ST7789V/st7789v.c **** {
 2217              		.loc 1 298 6 view .LVU554
 2218              	.LBB125:
 300:Drivers/ST7789V/st7789v.c **** 		 (y < 0) || (y >= ST7789V_HEIGHT))	return;
 2219              		.loc 1 300 2 view .LVU555
 300:Drivers/ST7789V/st7789v.c **** 		 (y < 0) || (y >= ST7789V_HEIGHT))	return;
 2220              		.loc 1 300 5 is_stmt 0 view .LVU556
 2221 0154 B9F5A07F 		cmp	r9, #320
 2222 0158 DCD2     		bcs	.L114
 2223              	.LBE125:
 2224              	.LBE145:
 458:Drivers/ST7789V/st7789v.c **** 		ST7789V_DrawPixel(x0 - x, y0 - y, color);
 2225              		.loc 1 458 3 view .LVU557
 2226 015a ABEB0403 		sub	r3, fp, r4
 2227              	.LBB146:
 2228              	.LBB126:
 301:Drivers/ST7789V/st7789v.c **** 	
 2229              		.loc 1 301 12 view .LVU558
 2230 015e EF29     		cmp	r1, #239
 2231              	.LBE126:
 2232              	.LBE146:
 458:Drivers/ST7789V/st7789v.c **** 		ST7789V_DrawPixel(x0 - x, y0 - y, color);
 2233              		.loc 1 458 3 view .LVU559
 2234 0160 9BB2     		uxth	r3, r3
 2235              	.LBB147:
ARM GAS  /var/folders/lp/x54gwt890xv47sdkqj1k04q40000gn/T//ccAXhYZq.s 			page 55


 2236              	.LBB127:
 301:Drivers/ST7789V/st7789v.c **** 	
 2237              		.loc 1 301 12 view .LVU560
 2238 0162 63D9     		bls	.L151
 2239              	.LVL246:
 2240              	.L115:
 301:Drivers/ST7789V/st7789v.c **** 	
 2241              		.loc 1 301 12 view .LVU561
 2242              	.LBE127:
 2243              	.LBE147:
 2244              	.LBB148:
 2245              	.LBB136:
 2246 0164 EF2B     		cmp	r3, #239
 2247 0166 D5D8     		bhi	.L114
 2248 0168 CFE7     		b	.L132
 2249              	.LVL247:
 2250              	.L119:
 301:Drivers/ST7789V/st7789v.c **** 	
 2251              		.loc 1 301 12 view .LVU562
 2252              	.LBE136:
 2253              	.LBE148:
 2254              	.LBB149:
 2255              	.LBB94:
 2256 016a 019A     		ldr	r2, [sp, #4]
 2257 016c 3146     		mov	r1, r6
 2258 016e 4046     		mov	r0, r8
 2259 0170 FFF7FEFF 		bl	ST7789V_DrawPixel.part.0
 2260              	.LVL248:
 301:Drivers/ST7789V/st7789v.c **** 	
 2261              		.loc 1 301 12 view .LVU563
 2262              	.LBE94:
 2263              	.LBE149:
 462:Drivers/ST7789V/st7789v.c **** 		ST7789V_DrawPixel(x0 + y, y0 - x, color);
 2264              		.loc 1 462 3 is_stmt 1 view .LVU564
 2265              	.LBB150:
 298:Drivers/ST7789V/st7789v.c **** {
 2266              		.loc 1 298 6 view .LVU565
 2267              	.LBB101:
 300:Drivers/ST7789V/st7789v.c **** 		 (y < 0) || (y >= ST7789V_HEIGHT))	return;
 2268              		.loc 1 300 2 view .LVU566
 300:Drivers/ST7789V/st7789v.c **** 		 (y < 0) || (y >= ST7789V_HEIGHT))	return;
 2269              		.loc 1 300 5 is_stmt 0 view .LVU567
 2270 0174 B4F5A07F 		cmp	r4, #320
 2271 0178 1FD2     		bcs	.L120
 2272 017a 019A     		ldr	r2, [sp, #4]
 2273 017c 3146     		mov	r1, r6
 2274 017e 2046     		mov	r0, r4
 2275 0180 FFF7FEFF 		bl	ST7789V_DrawPixel.part.0
 2276              	.LVL249:
 300:Drivers/ST7789V/st7789v.c **** 		 (y < 0) || (y >= ST7789V_HEIGHT))	return;
 2277              		.loc 1 300 5 view .LVU568
 2278              	.LBE101:
 2279              	.LBE150:
 463:Drivers/ST7789V/st7789v.c **** 		ST7789V_DrawPixel(x0 - y, y0 - x, color);
 2280              		.loc 1 463 3 is_stmt 1 view .LVU569
 2281              	.LBB151:
 2282              	.LBI103:
ARM GAS  /var/folders/lp/x54gwt890xv47sdkqj1k04q40000gn/T//ccAXhYZq.s 			page 56


 298:Drivers/ST7789V/st7789v.c **** {
 2283              		.loc 1 298 6 view .LVU570
 2284              	.LBB105:
 300:Drivers/ST7789V/st7789v.c **** 		 (y < 0) || (y >= ST7789V_HEIGHT))	return;
 2285              		.loc 1 300 2 view .LVU571
 2286 0184 79E7     		b	.L121
 2287              	.LVL250:
 2288              	.L108:
 300:Drivers/ST7789V/st7789v.c **** 		 (y < 0) || (y >= ST7789V_HEIGHT))	return;
 2289              		.loc 1 300 2 is_stmt 0 view .LVU572
 2290              	.LBE105:
 2291              	.LBE151:
 2292              	.LBB152:
 2293              	.LBB118:
 2294 0186 019A     		ldr	r2, [sp, #4]
 2295 0188 0593     		str	r3, [sp, #20]
 2296 018a 4046     		mov	r0, r8
 2297 018c 0491     		str	r1, [sp, #16]
 2298 018e FFF7FEFF 		bl	ST7789V_DrawPixel.part.0
 2299              	.LVL251:
 300:Drivers/ST7789V/st7789v.c **** 		 (y < 0) || (y >= ST7789V_HEIGHT))	return;
 2300              		.loc 1 300 2 view .LVU573
 2301              	.LBE118:
 2302              	.LBE152:
 457:Drivers/ST7789V/st7789v.c **** 		ST7789V_DrawPixel(x0 + x, y0 - y, color);
 2303              		.loc 1 457 3 is_stmt 1 view .LVU574
 2304              	.LBB153:
 298:Drivers/ST7789V/st7789v.c **** {
 2305              		.loc 1 298 6 view .LVU575
 2306              	.LBB128:
 300:Drivers/ST7789V/st7789v.c **** 		 (y < 0) || (y >= ST7789V_HEIGHT))	return;
 2307              		.loc 1 300 2 view .LVU576
 300:Drivers/ST7789V/st7789v.c **** 		 (y < 0) || (y >= ST7789V_HEIGHT))	return;
 2308              		.loc 1 300 5 is_stmt 0 view .LVU577
 2309 0192 B9F5A07F 		cmp	r9, #320
 2310 0196 DDE90413 		ldrd	r1, r3, [sp, #16]
 2311 019a 06D2     		bcs	.L111
 2312 019c 019A     		ldr	r2, [sp, #4]
 2313 019e 0493     		str	r3, [sp, #16]
 2314 01a0 4846     		mov	r0, r9
 2315 01a2 FFF7FEFF 		bl	ST7789V_DrawPixel.part.0
 2316              	.LVL252:
 300:Drivers/ST7789V/st7789v.c **** 		 (y < 0) || (y >= ST7789V_HEIGHT))	return;
 2317              		.loc 1 300 5 view .LVU578
 2318              	.LBE128:
 2319              	.LBE153:
 458:Drivers/ST7789V/st7789v.c **** 		ST7789V_DrawPixel(x0 - x, y0 - y, color);
 2320              		.loc 1 458 3 is_stmt 1 view .LVU579
 2321              	.LBB154:
 2322              	.LBI130:
 298:Drivers/ST7789V/st7789v.c **** {
 2323              		.loc 1 298 6 view .LVU580
 2324              	.LBB132:
 300:Drivers/ST7789V/st7789v.c **** 		 (y < 0) || (y >= ST7789V_HEIGHT))	return;
 2325              		.loc 1 300 2 view .LVU581
 2326 01a6 049B     		ldr	r3, [sp, #16]
 2327 01a8 A6E7     		b	.L110
ARM GAS  /var/folders/lp/x54gwt890xv47sdkqj1k04q40000gn/T//ccAXhYZq.s 			page 57


 2328              	.LVL253:
 2329              	.L111:
 301:Drivers/ST7789V/st7789v.c **** 	
 2330              		.loc 1 301 12 is_stmt 0 view .LVU582
 2331 01aa EF2B     		cmp	r3, #239
 2332 01ac B2D8     		bhi	.L114
 2333 01ae 019A     		ldr	r2, [sp, #4]
 2334 01b0 1946     		mov	r1, r3
 2335 01b2 4046     		mov	r0, r8
 2336 01b4 FFF7FEFF 		bl	ST7789V_DrawPixel.part.0
 2337              	.LVL254:
 2338              	.LBE132:
 2339              	.LBE154:
 459:Drivers/ST7789V/st7789v.c **** 
 2340              		.loc 1 459 3 is_stmt 1 view .LVU583
 2341              	.LBB155:
 298:Drivers/ST7789V/st7789v.c **** {
 2342              		.loc 1 298 6 view .LVU584
 2343              	.LBB137:
 300:Drivers/ST7789V/st7789v.c **** 		 (y < 0) || (y >= ST7789V_HEIGHT))	return;
 2344              		.loc 1 300 2 view .LVU585
 2345 01b8 ACE7     		b	.L114
 2346              	.LVL255:
 2347              	.L120:
 300:Drivers/ST7789V/st7789v.c **** 		 (y < 0) || (y >= ST7789V_HEIGHT))	return;
 2348              		.loc 1 300 2 is_stmt 0 view .LVU586
 2349              	.LBE137:
 2350              	.LBE155:
 2351              	.LBB156:
 2352              	.LBB106:
 301:Drivers/ST7789V/st7789v.c **** 	
 2353              		.loc 1 301 12 view .LVU587
 2354 01ba EF2D     		cmp	r5, #239
 2355 01bc 3FF669AF 		bhi	.L125
 2356 01c0 019A     		ldr	r2, [sp, #4]
 2357 01c2 2946     		mov	r1, r5
 2358 01c4 4046     		mov	r0, r8
 2359 01c6 FFF7FEFF 		bl	ST7789V_DrawPixel.part.0
 2360              	.LVL256:
 2361              	.LBE106:
 2362              	.LBE156:
 464:Drivers/ST7789V/st7789v.c **** 	}
 2363              		.loc 1 464 3 is_stmt 1 view .LVU588
 2364              	.LBB157:
 298:Drivers/ST7789V/st7789v.c **** {
 2365              		.loc 1 298 6 view .LVU589
 2366              	.LBB111:
 300:Drivers/ST7789V/st7789v.c **** 		 (y < 0) || (y >= ST7789V_HEIGHT))	return;
 2367              		.loc 1 300 2 view .LVU590
 2368 01ca 62E7     		b	.L125
 2369              	.LVL257:
 2370              	.L148:
 300:Drivers/ST7789V/st7789v.c **** 		 (y < 0) || (y >= ST7789V_HEIGHT))	return;
 2371              		.loc 1 300 2 is_stmt 0 view .LVU591
 2372              	.LBE111:
 2373              	.LBE157:
 2374              	.LBB158:
ARM GAS  /var/folders/lp/x54gwt890xv47sdkqj1k04q40000gn/T//ccAXhYZq.s 			page 58


 2375              	.LBB85:
 2376 01cc 019A     		ldr	r2, [sp, #4]
 2377 01ce 5946     		mov	r1, fp
 2378              	.LBE85:
 2379              	.LBE158:
 444:Drivers/ST7789V/st7789v.c **** 
 2380              		.loc 1 444 2 view .LVU592
 2381 01d0 AAEB0404 		sub	r4, r10, r4
 2382              	.LBB159:
 2383              	.LBB86:
 2384 01d4 FFF7FEFF 		bl	ST7789V_DrawPixel.part.0
 2385              	.LVL258:
 444:Drivers/ST7789V/st7789v.c **** 
 2386              		.loc 1 444 2 view .LVU593
 2387              	.LBE86:
 2388              	.LBE159:
 444:Drivers/ST7789V/st7789v.c **** 
 2389              		.loc 1 444 2 is_stmt 1 view .LVU594
 2390 01d8 A0B2     		uxth	r0, r4
 2391              	.LVL259:
 2392              	.LBB160:
 2393              	.LBI160:
 298:Drivers/ST7789V/st7789v.c **** {
 2394              		.loc 1 298 6 view .LVU595
 2395              	.LBB161:
 300:Drivers/ST7789V/st7789v.c **** 		 (y < 0) || (y >= ST7789V_HEIGHT))	return;
 2396              		.loc 1 300 2 view .LVU596
 300:Drivers/ST7789V/st7789v.c **** 		 (y < 0) || (y >= ST7789V_HEIGHT))	return;
 2397              		.loc 1 300 5 is_stmt 0 view .LVU597
 2398 01da B0F5A07F 		cmp	r0, #320
 2399 01de BFF440AF 		bcs	.L102
 2400              	.L104:
 300:Drivers/ST7789V/st7789v.c **** 		 (y < 0) || (y >= ST7789V_HEIGHT))	return;
 2401              		.loc 1 300 5 view .LVU598
 2402 01e2 019A     		ldr	r2, [sp, #4]
 2403 01e4 5946     		mov	r1, fp
 2404 01e6 FFF7FEFF 		bl	ST7789V_DrawPixel.part.0
 2405              	.LVL260:
 300:Drivers/ST7789V/st7789v.c **** 		 (y < 0) || (y >= ST7789V_HEIGHT))	return;
 2406              		.loc 1 300 5 view .LVU599
 2407 01ea 3AE7     		b	.L102
 2408              	.LVL261:
 2409              	.L147:
 300:Drivers/ST7789V/st7789v.c **** 		 (y < 0) || (y >= ST7789V_HEIGHT))	return;
 2410              		.loc 1 300 5 view .LVU600
 2411              	.LBE161:
 2412              	.LBE160:
 2413              	.LBB163:
 2414              	.LBB81:
 2415 01ec 5046     		mov	r0, r10
 2416 01ee 019A     		ldr	r2, [sp, #4]
 2417 01f0 2946     		mov	r1, r5
 2418 01f2 FFF7FEFF 		bl	ST7789V_DrawPixel.part.0
 2419              	.LVL262:
 2420              	.LBE81:
 2421              	.LBE163:
 443:Drivers/ST7789V/st7789v.c **** 	ST7789V_DrawPixel(x0 - r, y0, color);
ARM GAS  /var/folders/lp/x54gwt890xv47sdkqj1k04q40000gn/T//ccAXhYZq.s 			page 59


 2422              		.loc 1 443 2 is_stmt 1 view .LVU601
 2423 01f6 04EB0A00 		add	r0, r4, r10
 2424 01fa 80B2     		uxth	r0, r0
 2425              	.LVL263:
 2426              	.LBB164:
 298:Drivers/ST7789V/st7789v.c **** {
 2427              		.loc 1 298 6 view .LVU602
 2428              	.LBB87:
 300:Drivers/ST7789V/st7789v.c **** 		 (y < 0) || (y >= ST7789V_HEIGHT))	return;
 2429              		.loc 1 300 2 view .LVU603
 300:Drivers/ST7789V/st7789v.c **** 		 (y < 0) || (y >= ST7789V_HEIGHT))	return;
 2430              		.loc 1 300 5 is_stmt 0 view .LVU604
 2431 01fc B0F5A07F 		cmp	r0, #320
 2432 0200 FFF42BAF 		bcc	.L152
 2433              	.L100:
 2434              	.LVL264:
 300:Drivers/ST7789V/st7789v.c **** 		 (y < 0) || (y >= ST7789V_HEIGHT))	return;
 2435              		.loc 1 300 5 view .LVU605
 2436              	.LBE87:
 2437              	.LBE164:
 444:Drivers/ST7789V/st7789v.c **** 
 2438              		.loc 1 444 2 is_stmt 1 view .LVU606
 2439 0204 AAEB0404 		sub	r4, r10, r4
 2440 0208 A0B2     		uxth	r0, r4
 2441              	.LVL265:
 2442              	.LBB165:
 298:Drivers/ST7789V/st7789v.c **** {
 2443              		.loc 1 298 6 view .LVU607
 2444              	.LBB162:
 300:Drivers/ST7789V/st7789v.c **** 		 (y < 0) || (y >= ST7789V_HEIGHT))	return;
 2445              		.loc 1 300 2 view .LVU608
 300:Drivers/ST7789V/st7789v.c **** 		 (y < 0) || (y >= ST7789V_HEIGHT))	return;
 2446              		.loc 1 300 5 is_stmt 0 view .LVU609
 2447 020a B0F5A07F 		cmp	r0, #320
 2448 020e BFF428AF 		bcs	.L102
 301:Drivers/ST7789V/st7789v.c **** 	
 2449              		.loc 1 301 12 view .LVU610
 2450 0212 BBF1EF0F 		cmp	fp, #239
 2451 0216 3FF624AF 		bhi	.L102
 2452 021a E2E7     		b	.L104
 2453              	.LVL266:
 2454              	.L146:
 301:Drivers/ST7789V/st7789v.c **** 	
 2455              		.loc 1 301 12 view .LVU611
 2456              	.LBE162:
 2457              	.LBE165:
 2458              	.LBB166:
 2459              	.LBB76:
 2460 021c 3246     		mov	r2, r6
 2461 021e 5046     		mov	r0, r10
 2462 0220 FFF7FEFF 		bl	ST7789V_DrawPixel.part.0
 2463              	.LVL267:
 301:Drivers/ST7789V/st7789v.c **** 	
 2464              		.loc 1 301 12 view .LVU612
 2465              	.LBE76:
 2466              	.LBE166:
 442:Drivers/ST7789V/st7789v.c **** 	ST7789V_DrawPixel(x0 + r, y0, color);
ARM GAS  /var/folders/lp/x54gwt890xv47sdkqj1k04q40000gn/T//ccAXhYZq.s 			page 60


 2467              		.loc 1 442 2 is_stmt 1 view .LVU613
 2468              	.LBB167:
 2469              	.LBI79:
 298:Drivers/ST7789V/st7789v.c **** {
 2470              		.loc 1 298 6 view .LVU614
 2471              	.LBB82:
 300:Drivers/ST7789V/st7789v.c **** 		 (y < 0) || (y >= ST7789V_HEIGHT))	return;
 2472              		.loc 1 300 2 view .LVU615
 301:Drivers/ST7789V/st7789v.c **** 	
 2473              		.loc 1 301 12 is_stmt 0 view .LVU616
 2474 0224 EF2D     		cmp	r5, #239
 2475 0226 3FF611AF 		bhi	.L97
 2476 022a DFE7     		b	.L147
 2477              	.LVL268:
 2478              	.L151:
 301:Drivers/ST7789V/st7789v.c **** 	
 2479              		.loc 1 301 12 view .LVU617
 2480              	.LBE82:
 2481              	.LBE167:
 2482              	.LBB168:
 2483              	.LBB129:
 2484 022c 019A     		ldr	r2, [sp, #4]
 2485 022e 0493     		str	r3, [sp, #16]
 2486 0230 4846     		mov	r0, r9
 2487 0232 FFF7FEFF 		bl	ST7789V_DrawPixel.part.0
 2488              	.LVL269:
 301:Drivers/ST7789V/st7789v.c **** 	
 2489              		.loc 1 301 12 view .LVU618
 2490              	.LBE129:
 2491              	.LBE168:
 458:Drivers/ST7789V/st7789v.c **** 		ST7789V_DrawPixel(x0 - x, y0 - y, color);
 2492              		.loc 1 458 3 is_stmt 1 view .LVU619
 2493              	.LBB169:
 298:Drivers/ST7789V/st7789v.c **** {
 2494              		.loc 1 298 6 view .LVU620
 2495              	.LBB133:
 300:Drivers/ST7789V/st7789v.c **** 		 (y < 0) || (y >= ST7789V_HEIGHT))	return;
 2496              		.loc 1 300 2 view .LVU621
 2497 0236 049B     		ldr	r3, [sp, #16]
 2498 0238 94E7     		b	.L115
 2499              	.LVL270:
 2500              	.L150:
 300:Drivers/ST7789V/st7789v.c **** 		 (y < 0) || (y >= ST7789V_HEIGHT))	return;
 2501              		.loc 1 300 2 is_stmt 0 view .LVU622
 2502              	.LBE133:
 2503              	.LBE169:
 2504              	.LBB170:
 2505              	.LBB102:
 2506 023a 019A     		ldr	r2, [sp, #4]
 2507 023c 3146     		mov	r1, r6
 2508 023e 2046     		mov	r0, r4
 2509 0240 FFF7FEFF 		bl	ST7789V_DrawPixel.part.0
 2510              	.LVL271:
 300:Drivers/ST7789V/st7789v.c **** 		 (y < 0) || (y >= ST7789V_HEIGHT))	return;
 2511              		.loc 1 300 2 view .LVU623
 2512              	.LBE102:
 2513              	.LBE170:
ARM GAS  /var/folders/lp/x54gwt890xv47sdkqj1k04q40000gn/T//ccAXhYZq.s 			page 61


 463:Drivers/ST7789V/st7789v.c **** 		ST7789V_DrawPixel(x0 - y, y0 - x, color);
 2514              		.loc 1 463 3 is_stmt 1 view .LVU624
 2515              	.LBB171:
 298:Drivers/ST7789V/st7789v.c **** {
 2516              		.loc 1 298 6 view .LVU625
 2517              	.LBB107:
 300:Drivers/ST7789V/st7789v.c **** 		 (y < 0) || (y >= ST7789V_HEIGHT))	return;
 2518              		.loc 1 300 2 view .LVU626
 2519 0244 79E7     		b	.L126
 2520              	.L154:
 2521 0246 00BF     		.align	2
 2522              	.L153:
 2523 0248 00000240 		.word	1073872896
 2524              	.LBE107:
 2525              	.LBE171:
 2526              		.cfi_endproc
 2527              	.LFE255:
 2529              		.section	.text.ST7789V_DrawImage,"ax",%progbits
 2530              		.align	1
 2531              		.p2align 2,,3
 2532              		.global	ST7789V_DrawImage
 2533              		.syntax unified
 2534              		.thumb
 2535              		.thumb_func
 2537              	ST7789V_DrawImage:
 2538              	.LVL272:
 2539              	.LFB256:
 468:Drivers/ST7789V/st7789v.c **** 
 469:Drivers/ST7789V/st7789v.c **** /**
 470:Drivers/ST7789V/st7789v.c ****  * @brief Draw an Image on the screen
 471:Drivers/ST7789V/st7789v.c ****  * @param x&y -> start point of the Image
 472:Drivers/ST7789V/st7789v.c ****  * @param w&h -> width & height of the Image to Draw
 473:Drivers/ST7789V/st7789v.c ****  * @param data -> pointer of the Image array
 474:Drivers/ST7789V/st7789v.c ****  * @return none
 475:Drivers/ST7789V/st7789v.c ****  */
 476:Drivers/ST7789V/st7789v.c **** void ST7789V_DrawImage(uint16_t x, uint16_t y, uint16_t w, uint16_t h, const uint16_t *data)
 477:Drivers/ST7789V/st7789v.c **** {
 2540              		.loc 1 477 1 view -0
 2541              		.cfi_startproc
 2542              		@ args = 4, pretend = 0, frame = 0
 2543              		@ frame_needed = 0, uses_anonymous_args = 0
 478:Drivers/ST7789V/st7789v.c **** 	if ((x >= ST7789V_WIDTH) || (y >= ST7789V_HEIGHT))
 2544              		.loc 1 478 2 view .LVU628
 477:Drivers/ST7789V/st7789v.c **** 	if ((x >= ST7789V_WIDTH) || (y >= ST7789V_HEIGHT))
 2545              		.loc 1 477 1 is_stmt 0 view .LVU629
 2546 0000 2DE9F041 		push	{r4, r5, r6, r7, r8, lr}
 2547              		.cfi_def_cfa_offset 24
 2548              		.cfi_offset 4, -24
 2549              		.cfi_offset 5, -20
 2550              		.cfi_offset 6, -16
 2551              		.cfi_offset 7, -12
 2552              		.cfi_offset 8, -8
 2553              		.cfi_offset 14, -4
 2554              		.loc 1 478 5 view .LVU630
 2555 0004 B0F5A07F 		cmp	r0, #320
 477:Drivers/ST7789V/st7789v.c **** 	if ((x >= ST7789V_WIDTH) || (y >= ST7789V_HEIGHT))
 2556              		.loc 1 477 1 view .LVU631
ARM GAS  /var/folders/lp/x54gwt890xv47sdkqj1k04q40000gn/T//ccAXhYZq.s 			page 62


 2557 0008 DDF81880 		ldr	r8, [sp, #24]
 2558              		.loc 1 478 5 view .LVU632
 2559 000c 0CD2     		bcs	.L155
 2560              		.loc 1 478 27 discriminator 1 view .LVU633
 2561 000e EF29     		cmp	r1, #239
 2562 0010 0D46     		mov	r5, r1
 2563 0012 09D8     		bhi	.L155
 2564 0014 1E46     		mov	r6, r3
 479:Drivers/ST7789V/st7789v.c **** 		return;
 480:Drivers/ST7789V/st7789v.c **** 	if ((x + w - 1) >= ST7789V_WIDTH)
 2565              		.loc 1 480 2 is_stmt 1 view .LVU634
 2566              		.loc 1 480 9 is_stmt 0 view .LVU635
 2567 0016 8318     		adds	r3, r0, r2
 2568              	.LVL273:
 2569              		.loc 1 480 5 view .LVU636
 2570 0018 B3F5A07F 		cmp	r3, #320
 2571 001c 0446     		mov	r4, r0
 2572 001e 1746     		mov	r7, r2
 2573 0020 02DC     		bgt	.L155
 481:Drivers/ST7789V/st7789v.c **** 		return;
 482:Drivers/ST7789V/st7789v.c **** 	if ((y + h - 1) >= ST7789V_HEIGHT)
 2574              		.loc 1 482 2 is_stmt 1 view .LVU637
 2575              		.loc 1 482 9 is_stmt 0 view .LVU638
 2576 0022 8B19     		adds	r3, r1, r6
 2577              		.loc 1 482 5 view .LVU639
 2578 0024 F02B     		cmp	r3, #240
 2579 0026 01DD     		ble	.L158
 2580              	.LVL274:
 2581              	.L155:
 483:Drivers/ST7789V/st7789v.c **** 		return;
 484:Drivers/ST7789V/st7789v.c **** 
 485:Drivers/ST7789V/st7789v.c **** 	ST7789V_Select();
 486:Drivers/ST7789V/st7789v.c **** 	ST7789V_SetAddressWindow(x, y, x + w - 1, y + h - 1);
 487:Drivers/ST7789V/st7789v.c **** 	ST7789V_WriteData((uint8_t *)data, sizeof(uint16_t) * w * h);
 488:Drivers/ST7789V/st7789v.c **** 	ST7789V_UnSelect();
 489:Drivers/ST7789V/st7789v.c **** }
 2582              		.loc 1 489 1 view .LVU640
 2583 0028 BDE8F081 		pop	{r4, r5, r6, r7, r8, pc}
 2584              	.LVL275:
 2585              	.L158:
 2586              	.LBB174:
 2587              	.LBI174:
 476:Drivers/ST7789V/st7789v.c **** {
 2588              		.loc 1 476 6 is_stmt 1 view .LVU641
 2589              	.LBB175:
 485:Drivers/ST7789V/st7789v.c **** 	ST7789V_SetAddressWindow(x, y, x + w - 1, y + h - 1);
 2590              		.loc 1 485 2 view .LVU642
 2591 002c 0D48     		ldr	r0, .L159
 2592              	.LVL276:
 485:Drivers/ST7789V/st7789v.c **** 	ST7789V_SetAddressWindow(x, y, x + w - 1, y + h - 1);
 2593              		.loc 1 485 2 is_stmt 0 view .LVU643
 2594 002e 0022     		movs	r2, #0
 2595              	.LVL277:
 485:Drivers/ST7789V/st7789v.c **** 	ST7789V_SetAddressWindow(x, y, x + w - 1, y + h - 1);
 2596              		.loc 1 485 2 view .LVU644
 2597 0030 0421     		movs	r1, #4
 2598              	.LVL278:
ARM GAS  /var/folders/lp/x54gwt890xv47sdkqj1k04q40000gn/T//ccAXhYZq.s 			page 63


 485:Drivers/ST7789V/st7789v.c **** 	ST7789V_SetAddressWindow(x, y, x + w - 1, y + h - 1);
 2599              		.loc 1 485 2 view .LVU645
 2600 0032 FFF7FEFF 		bl	HAL_GPIO_WritePin
 2601              	.LVL279:
 486:Drivers/ST7789V/st7789v.c **** 	ST7789V_WriteData((uint8_t *)data, sizeof(uint16_t) * w * h);
 2602              		.loc 1 486 2 is_stmt 1 view .LVU646
 2603 0036 731E     		subs	r3, r6, #1
 2604 0038 7A1E     		subs	r2, r7, #1
 2605 003a 2B44     		add	r3, r3, r5
 2606 003c 2244     		add	r2, r2, r4
 2607 003e 2946     		mov	r1, r5
 2608 0040 92B2     		uxth	r2, r2
 2609 0042 2046     		mov	r0, r4
 2610 0044 9BB2     		uxth	r3, r3
 2611 0046 FFF7FEFF 		bl	ST7789V_SetAddressWindow
 2612              	.LVL280:
 487:Drivers/ST7789V/st7789v.c **** 	ST7789V_UnSelect();
 2613              		.loc 1 487 2 view .LVU647
 2614 004a 06FB07F1 		mul	r1, r6, r7
 2615 004e 4046     		mov	r0, r8
 2616 0050 4900     		lsls	r1, r1, #1
 2617 0052 FFF7FEFF 		bl	ST7789V_WriteData
 2618              	.LVL281:
 488:Drivers/ST7789V/st7789v.c **** }
 2619              		.loc 1 488 2 view .LVU648
 2620              	.LBE175:
 2621              	.LBE174:
 2622              		.loc 1 489 1 is_stmt 0 view .LVU649
 2623 0056 BDE8F041 		pop	{r4, r5, r6, r7, r8, lr}
 2624              		.cfi_restore 14
 2625              		.cfi_restore 8
 2626              		.cfi_restore 7
 2627              		.cfi_restore 6
 2628              		.cfi_restore 5
 2629              		.cfi_restore 4
 2630              		.cfi_def_cfa_offset 0
 2631              	.LVL282:
 2632              	.LBB177:
 2633              	.LBB176:
 488:Drivers/ST7789V/st7789v.c **** }
 2634              		.loc 1 488 2 view .LVU650
 2635 005a 0248     		ldr	r0, .L159
 2636 005c 0122     		movs	r2, #1
 2637 005e 0421     		movs	r1, #4
 2638 0060 FFF7FEBF 		b	HAL_GPIO_WritePin
 2639              	.LVL283:
 2640              	.L160:
 2641              		.align	2
 2642              	.L159:
 2643 0064 00000240 		.word	1073872896
 2644              	.LBE176:
 2645              	.LBE177:
 2646              		.cfi_endproc
 2647              	.LFE256:
 2649              		.section	.text.ST7789V_InvertColors,"ax",%progbits
 2650              		.align	1
 2651              		.p2align 2,,3
ARM GAS  /var/folders/lp/x54gwt890xv47sdkqj1k04q40000gn/T//ccAXhYZq.s 			page 64


 2652              		.global	ST7789V_InvertColors
 2653              		.syntax unified
 2654              		.thumb
 2655              		.thumb_func
 2657              	ST7789V_InvertColors:
 2658              	.LVL284:
 2659              	.LFB257:
 490:Drivers/ST7789V/st7789v.c **** 
 491:Drivers/ST7789V/st7789v.c **** /**
 492:Drivers/ST7789V/st7789v.c ****  * @brief Invert Fullscreen color
 493:Drivers/ST7789V/st7789v.c ****  * @param invert -> Whether to invert
 494:Drivers/ST7789V/st7789v.c ****  * @return none
 495:Drivers/ST7789V/st7789v.c ****  */
 496:Drivers/ST7789V/st7789v.c **** void ST7789V_InvertColors(uint8_t invert)
 497:Drivers/ST7789V/st7789v.c **** {
 2660              		.loc 1 497 1 is_stmt 1 view -0
 2661              		.cfi_startproc
 2662              		@ args = 0, pretend = 0, frame = 0
 2663              		@ frame_needed = 0, uses_anonymous_args = 0
 498:Drivers/ST7789V/st7789v.c **** 	ST7789V_Select();
 2664              		.loc 1 498 2 view .LVU652
 497:Drivers/ST7789V/st7789v.c **** 	ST7789V_Select();
 2665              		.loc 1 497 1 is_stmt 0 view .LVU653
 2666 0000 10B5     		push	{r4, lr}
 2667              		.cfi_def_cfa_offset 8
 2668              		.cfi_offset 4, -8
 2669              		.cfi_offset 14, -4
 2670              		.loc 1 498 2 view .LVU654
 2671 0002 0022     		movs	r2, #0
 497:Drivers/ST7789V/st7789v.c **** 	ST7789V_Select();
 2672              		.loc 1 497 1 view .LVU655
 2673 0004 0446     		mov	r4, r0
 2674              		.loc 1 498 2 view .LVU656
 2675 0006 0421     		movs	r1, #4
 2676 0008 0748     		ldr	r0, .L165
 2677              	.LVL285:
 2678              		.loc 1 498 2 view .LVU657
 2679 000a FFF7FEFF 		bl	HAL_GPIO_WritePin
 2680              	.LVL286:
 499:Drivers/ST7789V/st7789v.c **** 	ST7789V_WriteCommand(invert ? 0x21 /* INVON */ : 0x20 /* INVOFF */);
 2681              		.loc 1 499 2 is_stmt 1 view .LVU658
 2682              		.loc 1 499 2 is_stmt 0 discriminator 1 view .LVU659
 2683 000e 002C     		cmp	r4, #0
 2684              		.loc 1 499 2 discriminator 4 view .LVU660
 2685 0010 0CBF     		ite	eq
 2686 0012 2020     		moveq	r0, #32
 2687 0014 2120     		movne	r0, #33
 2688 0016 FFF7FEFF 		bl	ST7789V_WriteCommand
 2689              	.LVL287:
 500:Drivers/ST7789V/st7789v.c **** 	ST7789V_UnSelect();
 2690              		.loc 1 500 2 is_stmt 1 view .LVU661
 501:Drivers/ST7789V/st7789v.c **** }
 2691              		.loc 1 501 1 is_stmt 0 view .LVU662
 2692 001a BDE81040 		pop	{r4, lr}
 2693              		.cfi_restore 14
 2694              		.cfi_restore 4
 2695              		.cfi_def_cfa_offset 0
ARM GAS  /var/folders/lp/x54gwt890xv47sdkqj1k04q40000gn/T//ccAXhYZq.s 			page 65


 2696              	.LVL288:
 500:Drivers/ST7789V/st7789v.c **** 	ST7789V_UnSelect();
 2697              		.loc 1 500 2 view .LVU663
 2698 001e 0248     		ldr	r0, .L165
 2699 0020 0122     		movs	r2, #1
 2700 0022 0421     		movs	r1, #4
 2701 0024 FFF7FEBF 		b	HAL_GPIO_WritePin
 2702              	.LVL289:
 2703              	.L166:
 2704              		.align	2
 2705              	.L165:
 2706 0028 00000240 		.word	1073872896
 2707              		.cfi_endproc
 2708              	.LFE257:
 2710              		.section	.text.ST7789V_WriteChar,"ax",%progbits
 2711              		.align	1
 2712              		.p2align 2,,3
 2713              		.global	ST7789V_WriteChar
 2714              		.syntax unified
 2715              		.thumb
 2716              		.thumb_func
 2718              	ST7789V_WriteChar:
 2719              	.LVL290:
 2720              	.LFB258:
 502:Drivers/ST7789V/st7789v.c **** 
 503:Drivers/ST7789V/st7789v.c **** /** 
 504:Drivers/ST7789V/st7789v.c ****  * @brief Write a char
 505:Drivers/ST7789V/st7789v.c ****  * @param  x&y -> cursor of the start point.
 506:Drivers/ST7789V/st7789v.c ****  * @param ch -> char to write
 507:Drivers/ST7789V/st7789v.c ****  * @param font -> fontstyle of the string
 508:Drivers/ST7789V/st7789v.c ****  * @param color -> color of the char
 509:Drivers/ST7789V/st7789v.c ****  * @param bgcolor -> background color of the char
 510:Drivers/ST7789V/st7789v.c ****  * @return  none
 511:Drivers/ST7789V/st7789v.c ****  */
 512:Drivers/ST7789V/st7789v.c **** void ST7789V_WriteChar(uint16_t x, uint16_t y, char ch, FontDef font, uint16_t color, uint16_t bgco
 513:Drivers/ST7789V/st7789v.c **** {
 2721              		.loc 1 513 1 is_stmt 1 view -0
 2722              		.cfi_startproc
 2723              		@ args = 20, pretend = 8, frame = 16
 2724              		@ frame_needed = 0, uses_anonymous_args = 0
 2725              		.loc 1 513 1 is_stmt 0 view .LVU665
 2726 0000 82B0     		sub	sp, sp, #8
 2727              		.cfi_def_cfa_offset 8
 2728 0002 2DE9F04F 		push	{r4, r5, r6, r7, r8, r9, r10, fp, lr}
 2729              		.cfi_def_cfa_offset 44
 2730              		.cfi_offset 4, -44
 2731              		.cfi_offset 5, -40
 2732              		.cfi_offset 6, -36
 2733              		.cfi_offset 7, -32
 2734              		.cfi_offset 8, -28
 2735              		.cfi_offset 9, -24
 2736              		.cfi_offset 10, -20
 2737              		.cfi_offset 11, -16
 2738              		.cfi_offset 14, -12
 2739 0006 85B0     		sub	sp, sp, #20
 2740              		.cfi_def_cfa_offset 64
 2741              		.loc 1 513 1 view .LVU666
ARM GAS  /var/folders/lp/x54gwt890xv47sdkqj1k04q40000gn/T//ccAXhYZq.s 			page 66


 2742 0008 0646     		mov	r6, r0
 2743 000a 8846     		mov	r8, r1
 2744 000c C3F3072A 		ubfx	r10, r3, #8, #8
 514:Drivers/ST7789V/st7789v.c **** 	uint32_t i, b, j;
 515:Drivers/ST7789V/st7789v.c **** 	ST7789V_Select();
 2745              		.loc 1 515 2 view .LVU667
 2746 0010 2948     		ldr	r0, .L177
 2747              	.LVL291:
 513:Drivers/ST7789V/st7789v.c **** 	uint32_t i, b, j;
 2748              		.loc 1 513 1 view .LVU668
 2749 0012 0F93     		str	r3, [sp, #60]
 2750 0014 DDB2     		uxtb	r5, r3
 2751              	.LVL292:
 514:Drivers/ST7789V/st7789v.c **** 	uint32_t i, b, j;
 2752              		.loc 1 514 2 is_stmt 1 view .LVU669
 2753              		.loc 1 515 2 view .LVU670
 2754 0016 0421     		movs	r1, #4
 2755              	.LVL293:
 513:Drivers/ST7789V/st7789v.c **** 	uint32_t i, b, j;
 2756              		.loc 1 513 1 is_stmt 0 view .LVU671
 2757 0018 BDF84430 		ldrh	r3, [sp, #68]
 2758 001c 0193     		str	r3, [sp, #4]
 2759 001e 1446     		mov	r4, r2
 2760              		.loc 1 515 2 view .LVU672
 2761 0020 0022     		movs	r2, #0
 2762              	.LVL294:
 513:Drivers/ST7789V/st7789v.c **** 	uint32_t i, b, j;
 2763              		.loc 1 513 1 view .LVU673
 2764 0022 BDF84870 		ldrh	r7, [sp, #72]
 2765              		.loc 1 515 2 view .LVU674
 2766 0026 FFF7FEFF 		bl	HAL_GPIO_WritePin
 2767              	.LVL295:
 516:Drivers/ST7789V/st7789v.c **** 	ST7789V_SetAddressWindow(x, y, x + font.width - 1, y + font.height - 1);
 2768              		.loc 1 516 2 is_stmt 1 view .LVU675
 2769 002a 0AF1FF33 		add	r3, r10, #-1
 2770 002e 6A1E     		subs	r2, r5, #1
 2771 0030 4344     		add	r3, r3, r8
 2772 0032 3244     		add	r2, r2, r6
 2773 0034 9BB2     		uxth	r3, r3
 2774 0036 4146     		mov	r1, r8
 2775 0038 92B2     		uxth	r2, r2
 2776 003a 3046     		mov	r0, r6
 2777 003c FFF7FEFF 		bl	ST7789V_SetAddressWindow
 2778              	.LVL296:
 517:Drivers/ST7789V/st7789v.c **** 
 518:Drivers/ST7789V/st7789v.c **** 	for (i = 0; i < font.height; i++) {
 2779              		.loc 1 518 2 view .LVU676
 2780              		.loc 1 518 16 discriminator 1 view .LVU677
 2781 0040 BAF1000F 		cmp	r10, #0
 2782 0044 2ED0     		beq	.L170
 519:Drivers/ST7789V/st7789v.c **** 		b = font.data[(ch - 32) * font.height + i];
 2783              		.loc 1 519 21 is_stmt 0 view .LVU678
 2784 0046 203C     		subs	r4, r4, #32
 2785              	.LVL297:
 2786              		.loc 1 519 21 view .LVU679
 2787 0048 109B     		ldr	r3, [sp, #64]
 2788 004a 6FF00042 		mvn	r2, #-2147483648
ARM GAS  /var/folders/lp/x54gwt890xv47sdkqj1k04q40000gn/T//ccAXhYZq.s 			page 67


 2789 004e 0AFB0422 		mla	r2, r10, r4, r2
 2790 0052 03EB4203 		add	r3, r3, r2, lsl #1
 2791              		.loc 1 519 3 is_stmt 1 view .LVU680
 2792              		.loc 1 519 16 is_stmt 0 view .LVU681
 2793 0056 03F10209 		add	r9, r3, #2
 2794              		.loc 1 519 5 view .LVU682
 2795 005a 5C88     		ldrh	r4, [r3, #2]
 2796              	.LVL298:
 520:Drivers/ST7789V/st7789v.c **** 		for (j = 0; j < font.width; j++) {
 2797              		.loc 1 520 3 is_stmt 1 view .LVU683
 2798              		.loc 1 520 17 discriminator 1 view .LVU684
 2799 005c 15B3     		cbz	r5, .L170
 2800              	.LBB178:
 521:Drivers/ST7789V/st7789v.c **** 			if ((b << j) & 0x8000) {
 522:Drivers/ST7789V/st7789v.c **** 				uint8_t data[] = {color >> 8, color & 0xFF};
 523:Drivers/ST7789V/st7789v.c **** 				ST7789V_WriteData(data, sizeof(data));
 524:Drivers/ST7789V/st7789v.c **** 			}
 525:Drivers/ST7789V/st7789v.c **** 			else {
 526:Drivers/ST7789V/st7789v.c **** 				uint8_t data[] = {bgcolor >> 8, bgcolor & 0xFF};
 2801              		.loc 1 526 13 is_stmt 0 view .LVU685
 2802 005e 7FBA     		rev16	r7, r7
 2803              	.LBE178:
 520:Drivers/ST7789V/st7789v.c **** 		for (j = 0; j < font.width; j++) {
 2804              		.loc 1 520 17 discriminator 1 view .LVU686
 2805 0060 4FF00008 		mov	r8, #0
 2806              	.LVL299:
 2807              	.L169:
 2808              	.LBB179:
 522:Drivers/ST7789V/st7789v.c **** 				ST7789V_WriteData(data, sizeof(data));
 2809              		.loc 1 522 13 view .LVU687
 2810 0064 019B     		ldr	r3, [sp, #4]
 2811              	.LBE179:
 520:Drivers/ST7789V/st7789v.c **** 		for (j = 0; j < font.width; j++) {
 2812              		.loc 1 520 10 view .LVU688
 2813 0066 4FF0000B 		mov	fp, #0
 2814              	.LBB180:
 522:Drivers/ST7789V/st7789v.c **** 				ST7789V_WriteData(data, sizeof(data));
 2815              		.loc 1 522 13 view .LVU689
 2816 006a 5EBA     		rev16	r6, r3
 2817              	.LVL300:
 2818              	.L173:
 522:Drivers/ST7789V/st7789v.c **** 				ST7789V_WriteData(data, sizeof(data));
 2819              		.loc 1 522 13 view .LVU690
 2820              	.LBE180:
 521:Drivers/ST7789V/st7789v.c **** 			if ((b << j) & 0x8000) {
 2821              		.loc 1 521 4 is_stmt 1 view .LVU691
 2822              	.LBB181:
 522:Drivers/ST7789V/st7789v.c **** 				ST7789V_WriteData(data, sizeof(data));
 2823              		.loc 1 522 5 view .LVU692
 2824              	.LBE181:
 2825              	.LBB182:
 2826              		.loc 1 526 5 view .LVU693
 2827              	.LBE182:
 521:Drivers/ST7789V/st7789v.c **** 			if ((b << j) & 0x8000) {
 2828              		.loc 1 521 11 is_stmt 0 view .LVU694
 2829 006c 04FA0BF2 		lsl	r2, r4, fp
 521:Drivers/ST7789V/st7789v.c **** 			if ((b << j) & 0x8000) {
ARM GAS  /var/folders/lp/x54gwt890xv47sdkqj1k04q40000gn/T//ccAXhYZq.s 			page 68


 2830              		.loc 1 521 7 view .LVU695
 2831 0070 12F4004F 		tst	r2, #32768
 2832              	.LBB183:
 523:Drivers/ST7789V/st7789v.c **** 			}
 2833              		.loc 1 523 5 view .LVU696
 2834 0074 4FF00201 		mov	r1, #2
 2835 0078 03A8     		add	r0, sp, #12
 2836              	.LBE183:
 2837              	.LBB184:
 527:Drivers/ST7789V/st7789v.c **** 				ST7789V_WriteData(data, sizeof(data));
 2838              		.loc 1 527 5 view .LVU697
 2839 007a 04BF     		itt	eq
 2840 007c 0221     		moveq	r1, #2
 2841 007e 03A8     		addeq	r0, sp, #12
 2842              	.LBE184:
 520:Drivers/ST7789V/st7789v.c **** 			if ((b << j) & 0x8000) {
 2843              		.loc 1 520 32 discriminator 2 view .LVU698
 2844 0080 0BF1010B 		add	fp, fp, #1
 2845              	.LVL301:
 2846              	.LBB185:
 522:Drivers/ST7789V/st7789v.c **** 				ST7789V_WriteData(data, sizeof(data));
 2847              		.loc 1 522 13 view .LVU699
 2848 0084 14BF     		ite	ne
 2849 0086 ADF80C60 		strhne	r6, [sp, #12]	@ movhi
 2850              	.LBE185:
 2851              	.LBB186:
 526:Drivers/ST7789V/st7789v.c **** 				ST7789V_WriteData(data, sizeof(data));
 2852              		.loc 1 526 13 view .LVU700
 2853 008a ADF80C70 		strheq	r7, [sp, #12]	@ movhi
 2854              		.loc 1 527 5 is_stmt 1 view .LVU701
 2855 008e FFF7FEFF 		bl	ST7789V_WriteData
 2856              	.LVL302:
 2857              	.LBE186:
 520:Drivers/ST7789V/st7789v.c **** 			if ((b << j) & 0x8000) {
 2858              		.loc 1 520 32 discriminator 2 view .LVU702
 520:Drivers/ST7789V/st7789v.c **** 			if ((b << j) & 0x8000) {
 2859              		.loc 1 520 17 discriminator 1 view .LVU703
 2860 0092 AB45     		cmp	fp, r5
 2861 0094 EAD1     		bne	.L173
 518:Drivers/ST7789V/st7789v.c **** 		b = font.data[(ch - 32) * font.height + i];
 2862              		.loc 1 518 32 discriminator 2 view .LVU704
 2863 0096 08F10108 		add	r8, r8, #1
 2864              	.LVL303:
 518:Drivers/ST7789V/st7789v.c **** 		b = font.data[(ch - 32) * font.height + i];
 2865              		.loc 1 518 16 discriminator 1 view .LVU705
 2866 009a C245     		cmp	r10, r8
 2867 009c 02D0     		beq	.L170
 519:Drivers/ST7789V/st7789v.c **** 		for (j = 0; j < font.width; j++) {
 2868              		.loc 1 519 3 view .LVU706
 519:Drivers/ST7789V/st7789v.c **** 		for (j = 0; j < font.width; j++) {
 2869              		.loc 1 519 5 is_stmt 0 view .LVU707
 2870 009e 39F8024F 		ldrh	r4, [r9, #2]!
 2871              	.LVL304:
 520:Drivers/ST7789V/st7789v.c **** 			if ((b << j) & 0x8000) {
 2872              		.loc 1 520 3 is_stmt 1 view .LVU708
 520:Drivers/ST7789V/st7789v.c **** 			if ((b << j) & 0x8000) {
 2873              		.loc 1 520 17 discriminator 1 view .LVU709
ARM GAS  /var/folders/lp/x54gwt890xv47sdkqj1k04q40000gn/T//ccAXhYZq.s 			page 69


 2874 00a2 DFE7     		b	.L169
 2875              	.LVL305:
 2876              	.L170:
 528:Drivers/ST7789V/st7789v.c **** 			}
 529:Drivers/ST7789V/st7789v.c **** 		}
 530:Drivers/ST7789V/st7789v.c **** 	}
 531:Drivers/ST7789V/st7789v.c **** 	ST7789V_UnSelect();
 2877              		.loc 1 531 2 view .LVU710
 2878 00a4 0448     		ldr	r0, .L177
 2879 00a6 0122     		movs	r2, #1
 2880 00a8 0421     		movs	r1, #4
 532:Drivers/ST7789V/st7789v.c **** }
 2881              		.loc 1 532 1 is_stmt 0 view .LVU711
 2882 00aa 05B0     		add	sp, sp, #20
 2883              		.cfi_def_cfa_offset 44
 2884              		@ sp needed
 2885 00ac BDE8F04F 		pop	{r4, r5, r6, r7, r8, r9, r10, fp, lr}
 2886              		.cfi_restore 14
 2887              		.cfi_restore 11
 2888              		.cfi_restore 10
 2889              		.cfi_restore 9
 2890              		.cfi_restore 8
 2891              		.cfi_restore 7
 2892              		.cfi_restore 6
 2893              		.cfi_restore 5
 2894              		.cfi_restore 4
 2895              		.cfi_def_cfa_offset 8
 2896              	.LVL306:
 2897              		.loc 1 532 1 view .LVU712
 2898 00b0 02B0     		add	sp, sp, #8
 2899              		.cfi_def_cfa_offset 0
 531:Drivers/ST7789V/st7789v.c **** }
 2900              		.loc 1 531 2 view .LVU713
 2901 00b2 FFF7FEBF 		b	HAL_GPIO_WritePin
 2902              	.LVL307:
 2903              	.L178:
 2904 00b6 00BF     		.align	2
 2905              	.L177:
 2906 00b8 00000240 		.word	1073872896
 2907              		.cfi_endproc
 2908              	.LFE258:
 2910              		.section	.text.ST7789V_WriteString,"ax",%progbits
 2911              		.align	1
 2912              		.p2align 2,,3
 2913              		.global	ST7789V_WriteString
 2914              		.syntax unified
 2915              		.thumb
 2916              		.thumb_func
 2918              	ST7789V_WriteString:
 2919              	.LVL308:
 2920              	.LFB259:
 533:Drivers/ST7789V/st7789v.c **** 
 534:Drivers/ST7789V/st7789v.c **** /** 
 535:Drivers/ST7789V/st7789v.c ****  * @brief Write a string 
 536:Drivers/ST7789V/st7789v.c ****  * @param  x&y -> cursor of the start point.
 537:Drivers/ST7789V/st7789v.c ****  * @param str -> string to write
 538:Drivers/ST7789V/st7789v.c ****  * @param font -> fontstyle of the string
ARM GAS  /var/folders/lp/x54gwt890xv47sdkqj1k04q40000gn/T//ccAXhYZq.s 			page 70


 539:Drivers/ST7789V/st7789v.c ****  * @param color -> color of the string
 540:Drivers/ST7789V/st7789v.c ****  * @param bgcolor -> background color of the string
 541:Drivers/ST7789V/st7789v.c ****  * @return  none
 542:Drivers/ST7789V/st7789v.c ****  */
 543:Drivers/ST7789V/st7789v.c **** void ST7789V_WriteString(uint16_t x, uint16_t y, const char *str, FontDef font, uint16_t color, uin
 544:Drivers/ST7789V/st7789v.c **** {
 2921              		.loc 1 544 1 is_stmt 1 view -0
 2922              		.cfi_startproc
 2923              		@ args = 20, pretend = 8, frame = 0
 2924              		@ frame_needed = 0, uses_anonymous_args = 0
 2925              		.loc 1 544 1 is_stmt 0 view .LVU715
 2926 0000 82B0     		sub	sp, sp, #8
 2927              		.cfi_def_cfa_offset 8
 2928 0002 2DE9F04F 		push	{r4, r5, r6, r7, r8, r9, r10, fp, lr}
 2929              		.cfi_def_cfa_offset 44
 2930              		.cfi_offset 4, -44
 2931              		.cfi_offset 5, -40
 2932              		.cfi_offset 6, -36
 2933              		.cfi_offset 7, -32
 2934              		.cfi_offset 8, -28
 2935              		.cfi_offset 9, -24
 2936              		.cfi_offset 10, -20
 2937              		.cfi_offset 11, -16
 2938              		.cfi_offset 14, -12
 2939 0006 9146     		mov	r9, r2
 2940 0008 85B0     		sub	sp, sp, #20
 2941              		.cfi_def_cfa_offset 64
 2942              		.loc 1 544 1 view .LVU716
 2943 000a 0446     		mov	r4, r0
 2944 000c 0D46     		mov	r5, r1
 545:Drivers/ST7789V/st7789v.c **** 	ST7789V_Select();
 2945              		.loc 1 545 2 view .LVU717
 2946 000e 1F48     		ldr	r0, .L188
 2947              	.LVL309:
 544:Drivers/ST7789V/st7789v.c **** 	ST7789V_Select();
 2948              		.loc 1 544 1 view .LVU718
 2949 0010 0F93     		str	r3, [sp, #60]
 2950              		.loc 1 545 2 view .LVU719
 2951 0012 0022     		movs	r2, #0
 2952              	.LVL310:
 2953              		.loc 1 545 2 view .LVU720
 2954 0014 0421     		movs	r1, #4
 2955              	.LVL311:
 2956              		.loc 1 545 2 view .LVU721
 2957 0016 5FFA83F8 		uxtb	r8, r3
 2958              	.LVL312:
 2959              		.loc 1 545 2 view .LVU722
 2960 001a C3F30727 		ubfx	r7, r3, #8, #8
 2961              	.LVL313:
 2962              		.loc 1 545 2 is_stmt 1 view .LVU723
 544:Drivers/ST7789V/st7789v.c **** 	ST7789V_Select();
 2963              		.loc 1 544 1 is_stmt 0 view .LVU724
 2964 001e BDF844A0 		ldrh	r10, [sp, #68]
 2965 0022 BDF848B0 		ldrh	fp, [sp, #72]
 2966              		.loc 1 545 2 view .LVU725
 2967 0026 FFF7FEFF 		bl	HAL_GPIO_WritePin
 2968              	.LVL314:
ARM GAS  /var/folders/lp/x54gwt890xv47sdkqj1k04q40000gn/T//ccAXhYZq.s 			page 71


 546:Drivers/ST7789V/st7789v.c **** 	while (*str) {
 2969              		.loc 1 546 2 is_stmt 1 view .LVU726
 2970              		.loc 1 546 9 view .LVU727
 2971 002a 99F80030 		ldrb	r3, [r9]	@ zero_extendqisi2
 2972 002e 09F10109 		add	r9, r9, #1
 2973              	.LVL315:
 2974              		.loc 1 546 9 is_stmt 0 view .LVU728
 2975 0032 13B3     		cbz	r3, .L182
 2976              	.LVL316:
 2977              	.L184:
 547:Drivers/ST7789V/st7789v.c **** 		if (x + font.width >= ST7789V_WIDTH) {
 2978              		.loc 1 547 3 is_stmt 1 view .LVU729
 548:Drivers/ST7789V/st7789v.c **** 			x = 0;
 2979              		.loc 1 548 4 view .LVU730
 549:Drivers/ST7789V/st7789v.c **** 			y += font.height;
 2980              		.loc 1 549 4 view .LVU731
 550:Drivers/ST7789V/st7789v.c **** 			if (y + font.height >= ST7789V_HEIGHT) {
 551:Drivers/ST7789V/st7789v.c **** 				break;
 552:Drivers/ST7789V/st7789v.c **** 			}
 553:Drivers/ST7789V/st7789v.c **** 
 554:Drivers/ST7789V/st7789v.c **** 			if (*str == ' ') {
 2981              		.loc 1 554 4 view .LVU732
 547:Drivers/ST7789V/st7789v.c **** 			x = 0;
 2982              		.loc 1 547 9 is_stmt 0 view .LVU733
 2983 0034 04EB0806 		add	r6, r4, r8
 547:Drivers/ST7789V/st7789v.c **** 			x = 0;
 2984              		.loc 1 547 6 view .LVU734
 2985 0038 B6F5A07F 		cmp	r6, #320
 549:Drivers/ST7789V/st7789v.c **** 			y += font.height;
 2986              		.loc 1 549 6 view .LVU735
 2987 003c 07EB0501 		add	r1, r7, r5
 555:Drivers/ST7789V/st7789v.c **** 				// skip spaces in the beginning of the new line
 556:Drivers/ST7789V/st7789v.c **** 				str++;
 557:Drivers/ST7789V/st7789v.c **** 				continue;
 558:Drivers/ST7789V/st7789v.c **** 			}
 559:Drivers/ST7789V/st7789v.c **** 		}
 560:Drivers/ST7789V/st7789v.c **** 		ST7789V_WriteChar(x, y, *str, font, color, bgcolor);
 2988              		.loc 1 560 3 view .LVU736
 2989 0040 1A46     		mov	r2, r3
 547:Drivers/ST7789V/st7789v.c **** 			x = 0;
 2990              		.loc 1 547 6 view .LVU737
 2991 0042 08DB     		blt	.L181
 549:Drivers/ST7789V/st7789v.c **** 			if (y + font.height >= ST7789V_HEIGHT) {
 2992              		.loc 1 549 6 view .LVU738
 2993 0044 8DB2     		uxth	r5, r1
 2994              	.LVL317:
 550:Drivers/ST7789V/st7789v.c **** 				break;
 2995              		.loc 1 550 4 is_stmt 1 view .LVU739
 550:Drivers/ST7789V/st7789v.c **** 				break;
 2996              		.loc 1 550 10 is_stmt 0 view .LVU740
 2997 0046 E919     		adds	r1, r5, r7
 550:Drivers/ST7789V/st7789v.c **** 				break;
 2998              		.loc 1 550 7 view .LVU741
 2999 0048 EF29     		cmp	r1, #239
 3000 004a 16DC     		bgt	.L182
 554:Drivers/ST7789V/st7789v.c **** 				// skip spaces in the beginning of the new line
 3001              		.loc 1 554 7 view .LVU742
ARM GAS  /var/folders/lp/x54gwt890xv47sdkqj1k04q40000gn/T//ccAXhYZq.s 			page 72


 3002 004c 202B     		cmp	r3, #32
 548:Drivers/ST7789V/st7789v.c **** 			y += font.height;
 3003              		.loc 1 548 6 view .LVU743
 3004 004e 4FF00004 		mov	r4, #0
 554:Drivers/ST7789V/st7789v.c **** 				// skip spaces in the beginning of the new line
 3005              		.loc 1 554 7 view .LVU744
 3006 0052 0ED0     		beq	.L183
 3007 0054 4646     		mov	r6, r8
 3008              	.L181:
 3009              	.LVL318:
 3010              		.loc 1 560 3 is_stmt 1 view .LVU745
 3011              		.loc 1 560 3 is_stmt 0 view .LVU746
 3012 0056 1099     		ldr	r1, [sp, #64]
 3013 0058 8DF83C80 		strb	r8, [sp, #60]
 3014 005c 8DF83D70 		strb	r7, [sp, #61]
 3015 0060 0091     		str	r1, [sp]
 3016 0062 2046     		mov	r0, r4
 3017 0064 CDE901AB 		strd	r10, fp, [sp, #4]
 3018 0068 0F9B     		ldr	r3, [sp, #60]
 3019 006a 2946     		mov	r1, r5
 3020 006c FFF7FEFF 		bl	ST7789V_WriteChar
 3021              	.LVL319:
 561:Drivers/ST7789V/st7789v.c **** 		x += font.width;
 3022              		.loc 1 561 3 is_stmt 1 view .LVU747
 3023              		.loc 1 561 5 is_stmt 0 view .LVU748
 3024 0070 B4B2     		uxth	r4, r6
 3025              	.LVL320:
 562:Drivers/ST7789V/st7789v.c **** 		str++;
 3026              		.loc 1 562 3 is_stmt 1 view .LVU749
 3027              	.L183:
 546:Drivers/ST7789V/st7789v.c **** 		if (x + font.width >= ST7789V_WIDTH) {
 3028              		.loc 1 546 9 view .LVU750
 3029 0072 19F8013B 		ldrb	r3, [r9], #1	@ zero_extendqisi2
 3030              	.LVL321:
 546:Drivers/ST7789V/st7789v.c **** 		if (x + font.width >= ST7789V_WIDTH) {
 3031              		.loc 1 546 9 is_stmt 0 view .LVU751
 3032 0076 002B     		cmp	r3, #0
 3033 0078 DCD1     		bne	.L184
 3034              	.LVL322:
 3035              	.L182:
 563:Drivers/ST7789V/st7789v.c **** 	}
 564:Drivers/ST7789V/st7789v.c **** 	ST7789V_UnSelect();
 3036              		.loc 1 564 2 is_stmt 1 view .LVU752
 3037 007a 0448     		ldr	r0, .L188
 3038 007c 0122     		movs	r2, #1
 3039 007e 0421     		movs	r1, #4
 565:Drivers/ST7789V/st7789v.c **** }
 3040              		.loc 1 565 1 is_stmt 0 view .LVU753
 3041 0080 05B0     		add	sp, sp, #20
 3042              		.cfi_def_cfa_offset 44
 3043              		@ sp needed
 3044 0082 BDE8F04F 		pop	{r4, r5, r6, r7, r8, r9, r10, fp, lr}
 3045              		.cfi_restore 14
 3046              		.cfi_restore 11
 3047              		.cfi_restore 10
 3048              		.cfi_restore 9
 3049              		.cfi_restore 8
ARM GAS  /var/folders/lp/x54gwt890xv47sdkqj1k04q40000gn/T//ccAXhYZq.s 			page 73


 3050              		.cfi_restore 7
 3051              		.cfi_restore 6
 3052              		.cfi_restore 5
 3053              		.cfi_restore 4
 3054              		.cfi_def_cfa_offset 8
 3055              	.LVL323:
 3056              		.loc 1 565 1 view .LVU754
 3057 0086 02B0     		add	sp, sp, #8
 3058              		.cfi_def_cfa_offset 0
 564:Drivers/ST7789V/st7789v.c **** }
 3059              		.loc 1 564 2 view .LVU755
 3060 0088 FFF7FEBF 		b	HAL_GPIO_WritePin
 3061              	.LVL324:
 3062              	.L189:
 3063              		.align	2
 3064              	.L188:
 3065 008c 00000240 		.word	1073872896
 3066              		.cfi_endproc
 3067              	.LFE259:
 3069              		.section	.text.ST7789V_DrawFilledRectangle,"ax",%progbits
 3070              		.align	1
 3071              		.p2align 2,,3
 3072              		.global	ST7789V_DrawFilledRectangle
 3073              		.syntax unified
 3074              		.thumb
 3075              		.thumb_func
 3077              	ST7789V_DrawFilledRectangle:
 3078              	.LVL325:
 3079              	.LFB260:
 566:Drivers/ST7789V/st7789v.c **** 
 567:Drivers/ST7789V/st7789v.c **** /** 
 568:Drivers/ST7789V/st7789v.c ****  * @brief Draw a filled Rectangle with single color
 569:Drivers/ST7789V/st7789v.c ****  * @param  x&y -> coordinates of the starting point
 570:Drivers/ST7789V/st7789v.c ****  * @param w&h -> width & height of the Rectangle
 571:Drivers/ST7789V/st7789v.c ****  * @param color -> color of the Rectangle
 572:Drivers/ST7789V/st7789v.c ****  * @return  none
 573:Drivers/ST7789V/st7789v.c ****  */
 574:Drivers/ST7789V/st7789v.c **** void ST7789V_DrawFilledRectangle(uint16_t x, uint16_t y, uint16_t w, uint16_t h, uint16_t color)
 575:Drivers/ST7789V/st7789v.c **** {
 3080              		.loc 1 575 1 is_stmt 1 view -0
 3081              		.cfi_startproc
 3082              		@ args = 4, pretend = 0, frame = 0
 3083              		@ frame_needed = 0, uses_anonymous_args = 0
 576:Drivers/ST7789V/st7789v.c **** 	ST7789V_Select();
 3084              		.loc 1 576 2 view .LVU757
 575:Drivers/ST7789V/st7789v.c **** 	ST7789V_Select();
 3085              		.loc 1 575 1 is_stmt 0 view .LVU758
 3086 0000 2DE9F043 		push	{r4, r5, r6, r7, r8, r9, lr}
 3087              		.cfi_def_cfa_offset 28
 3088              		.cfi_offset 4, -28
 3089              		.cfi_offset 5, -24
 3090              		.cfi_offset 6, -20
 3091              		.cfi_offset 7, -16
 3092              		.cfi_offset 8, -12
 3093              		.cfi_offset 9, -8
 3094              		.cfi_offset 14, -4
 3095 0004 83B0     		sub	sp, sp, #12
ARM GAS  /var/folders/lp/x54gwt890xv47sdkqj1k04q40000gn/T//ccAXhYZq.s 			page 74


 3096              		.cfi_def_cfa_offset 40
 575:Drivers/ST7789V/st7789v.c **** 	ST7789V_Select();
 3097              		.loc 1 575 1 view .LVU759
 3098 0006 0646     		mov	r6, r0
 3099 0008 0C46     		mov	r4, r1
 3100              		.loc 1 576 2 view .LVU760
 3101 000a 1C48     		ldr	r0, .L200
 3102              	.LVL326:
 575:Drivers/ST7789V/st7789v.c **** 	ST7789V_Select();
 3103              		.loc 1 575 1 view .LVU761
 3104 000c BDF82870 		ldrh	r7, [sp, #40]
 3105 0010 9046     		mov	r8, r2
 3106              		.loc 1 576 2 view .LVU762
 3107 0012 0421     		movs	r1, #4
 3108              	.LVL327:
 3109              		.loc 1 576 2 view .LVU763
 3110 0014 0022     		movs	r2, #0
 3111              	.LVL328:
 575:Drivers/ST7789V/st7789v.c **** 	ST7789V_Select();
 3112              		.loc 1 575 1 view .LVU764
 3113 0016 1D46     		mov	r5, r3
 3114              		.loc 1 576 2 view .LVU765
 3115 0018 FFF7FEFF 		bl	HAL_GPIO_WritePin
 3116              	.LVL329:
 577:Drivers/ST7789V/st7789v.c **** 	uint8_t i;
 3117              		.loc 1 577 2 is_stmt 1 view .LVU766
 578:Drivers/ST7789V/st7789v.c **** 
 579:Drivers/ST7789V/st7789v.c **** 	/* Check input parameters */
 580:Drivers/ST7789V/st7789v.c **** 	if (x >= ST7789V_WIDTH ||
 3118              		.loc 1 580 2 view .LVU767
 3119              		.loc 1 580 5 is_stmt 0 view .LVU768
 3120 001c B6F5A07F 		cmp	r6, #320
 3121 0020 29D2     		bcs	.L190
 3122              		.loc 1 580 25 discriminator 1 view .LVU769
 3123 0022 EF2C     		cmp	r4, #239
 3124 0024 27D8     		bhi	.L190
 3125              	.LVL330:
 3126              	.LBB189:
 3127              	.LBI189:
 574:Drivers/ST7789V/st7789v.c **** {
 3128              		.loc 1 574 6 is_stmt 1 view .LVU770
 3129              	.LBB190:
 581:Drivers/ST7789V/st7789v.c **** 		y >= ST7789V_HEIGHT) {
 582:Drivers/ST7789V/st7789v.c **** 		/* Return error */
 583:Drivers/ST7789V/st7789v.c **** 		return;
 584:Drivers/ST7789V/st7789v.c **** 	}
 585:Drivers/ST7789V/st7789v.c **** 
 586:Drivers/ST7789V/st7789v.c **** 	/* Check width and height */
 587:Drivers/ST7789V/st7789v.c **** 	if ((x + w) >= ST7789V_WIDTH) {
 3130              		.loc 1 587 2 view .LVU771
 3131              		.loc 1 587 9 is_stmt 0 view .LVU772
 3132 0026 B044     		add	r8, r8, r6
 3133              	.LVL331:
 588:Drivers/ST7789V/st7789v.c **** 		w = ST7789V_WIDTH - x;
 589:Drivers/ST7789V/st7789v.c **** 	}
 590:Drivers/ST7789V/st7789v.c **** 	if ((y + h) >= ST7789V_HEIGHT) {
 3134              		.loc 1 590 9 view .LVU773
ARM GAS  /var/folders/lp/x54gwt890xv47sdkqj1k04q40000gn/T//ccAXhYZq.s 			page 75


 3135 0028 6319     		adds	r3, r4, r5
 587:Drivers/ST7789V/st7789v.c **** 		w = ST7789V_WIDTH - x;
 3136              		.loc 1 587 5 view .LVU774
 3137 002a B8F5A07F 		cmp	r8, #320
 591:Drivers/ST7789V/st7789v.c **** 		h = ST7789V_HEIGHT - y;
 592:Drivers/ST7789V/st7789v.c **** 	}
 593:Drivers/ST7789V/st7789v.c **** 
 594:Drivers/ST7789V/st7789v.c **** 	/* Draw lines */
 595:Drivers/ST7789V/st7789v.c **** 	for (i = 0; i <= h; i++) {
 596:Drivers/ST7789V/st7789v.c **** 		/* Draw lines */
 597:Drivers/ST7789V/st7789v.c **** 		ST7789V_DrawLine(x, y + i, x + w, y + i, color);
 3138              		.loc 1 597 3 view .LVU775
 3139 002e B4BF     		ite	lt
 3140 0030 1FFA88F8 		uxthlt	r8, r8
 3141 0034 4FF4A078 		movge	r8, #320
 3142              	.LVL332:
 590:Drivers/ST7789V/st7789v.c **** 		h = ST7789V_HEIGHT - y;
 3143              		.loc 1 590 2 is_stmt 1 view .LVU776
 590:Drivers/ST7789V/st7789v.c **** 		h = ST7789V_HEIGHT - y;
 3144              		.loc 1 590 5 is_stmt 0 view .LVU777
 3145 0038 EF2B     		cmp	r3, #239
 591:Drivers/ST7789V/st7789v.c **** 		h = ST7789V_HEIGHT - y;
 3146              		.loc 1 591 3 is_stmt 1 view .LVU778
 591:Drivers/ST7789V/st7789v.c **** 		h = ST7789V_HEIGHT - y;
 3147              		.loc 1 591 5 is_stmt 0 view .LVU779
 3148 003a C4BF     		itt	gt
 3149 003c C4F1F005 		rsbgt	r5, r4, #240
 3150              	.LVL333:
 591:Drivers/ST7789V/st7789v.c **** 		h = ST7789V_HEIGHT - y;
 3151              		.loc 1 591 5 view .LVU780
 3152 0040 ADB2     		uxthgt	r5, r5
 3153              	.LVL334:
 595:Drivers/ST7789V/st7789v.c **** 		/* Draw lines */
 3154              		.loc 1 595 2 is_stmt 1 view .LVU781
 595:Drivers/ST7789V/st7789v.c **** 		/* Draw lines */
 3155              		.loc 1 595 16 discriminator 1 view .LVU782
 3156 0042 04F10109 		add	r9, r4, #1
 3157 0046 4D44     		add	r5, r5, r9
 3158              	.LVL335:
 595:Drivers/ST7789V/st7789v.c **** 		/* Draw lines */
 3159              		.loc 1 595 16 is_stmt 0 discriminator 1 view .LVU783
 3160 0048 ADB2     		uxth	r5, r5
 3161 004a 01E0     		b	.L194
 3162              	.LVL336:
 3163              	.L199:
 595:Drivers/ST7789V/st7789v.c **** 		/* Draw lines */
 3164              		.loc 1 595 16 discriminator 1 view .LVU784
 3165 004c 04F10109 		add	r9, r4, #1
 3166              	.LVL337:
 3167              	.L194:
 3168              		.loc 1 597 3 is_stmt 1 view .LVU785
 3169 0050 2346     		mov	r3, r4
 3170 0052 2146     		mov	r1, r4
 3171 0054 0097     		str	r7, [sp]
 3172 0056 4246     		mov	r2, r8
 3173 0058 3046     		mov	r0, r6
 595:Drivers/ST7789V/st7789v.c **** 		/* Draw lines */
ARM GAS  /var/folders/lp/x54gwt890xv47sdkqj1k04q40000gn/T//ccAXhYZq.s 			page 76


 3174              		.loc 1 595 16 is_stmt 0 discriminator 1 view .LVU786
 3175 005a 1FFA89F4 		uxth	r4, r9
 3176              		.loc 1 597 3 view .LVU787
 3177 005e FFF7FEFF 		bl	ST7789V_DrawLine
 3178              	.LVL338:
 595:Drivers/ST7789V/st7789v.c **** 		/* Draw lines */
 3179              		.loc 1 595 23 is_stmt 1 discriminator 3 view .LVU788
 595:Drivers/ST7789V/st7789v.c **** 		/* Draw lines */
 3180              		.loc 1 595 16 discriminator 1 view .LVU789
 3181 0062 A542     		cmp	r5, r4
 3182 0064 F2D1     		bne	.L199
 598:Drivers/ST7789V/st7789v.c **** 	}
 599:Drivers/ST7789V/st7789v.c **** 	ST7789V_UnSelect();
 3183              		.loc 1 599 2 view .LVU790
 3184 0066 0548     		ldr	r0, .L200
 3185 0068 0122     		movs	r2, #1
 3186 006a 0421     		movs	r1, #4
 3187              	.LBE190:
 3188              	.LBE189:
 600:Drivers/ST7789V/st7789v.c **** }
 3189              		.loc 1 600 1 is_stmt 0 view .LVU791
 3190 006c 03B0     		add	sp, sp, #12
 3191              		.cfi_remember_state
 3192              		.cfi_def_cfa_offset 28
 3193              		@ sp needed
 3194 006e BDE8F043 		pop	{r4, r5, r6, r7, r8, r9, lr}
 3195              		.cfi_restore 14
 3196              		.cfi_restore 9
 3197              		.cfi_restore 8
 3198              		.cfi_restore 7
 3199              		.cfi_restore 6
 3200              		.cfi_restore 5
 3201              		.cfi_restore 4
 3202              		.cfi_def_cfa_offset 0
 3203              	.LVL339:
 3204              	.LBB192:
 3205              	.LBB191:
 599:Drivers/ST7789V/st7789v.c **** }
 3206              		.loc 1 599 2 view .LVU792
 3207 0072 FFF7FEBF 		b	HAL_GPIO_WritePin
 3208              	.LVL340:
 3209              	.L190:
 3210              		.cfi_restore_state
 599:Drivers/ST7789V/st7789v.c **** }
 3211              		.loc 1 599 2 view .LVU793
 3212              	.LBE191:
 3213              	.LBE192:
 3214              		.loc 1 600 1 view .LVU794
 3215 0076 03B0     		add	sp, sp, #12
 3216              		.cfi_def_cfa_offset 28
 3217              		@ sp needed
 3218 0078 BDE8F083 		pop	{r4, r5, r6, r7, r8, r9, pc}
 3219              	.LVL341:
 3220              	.L201:
 3221              		.loc 1 600 1 view .LVU795
 3222              		.align	2
 3223              	.L200:
ARM GAS  /var/folders/lp/x54gwt890xv47sdkqj1k04q40000gn/T//ccAXhYZq.s 			page 77


 3224 007c 00000240 		.word	1073872896
 3225              		.cfi_endproc
 3226              	.LFE260:
 3228              		.section	.text.ST7789V_DrawTriangle,"ax",%progbits
 3229              		.align	1
 3230              		.p2align 2,,3
 3231              		.global	ST7789V_DrawTriangle
 3232              		.syntax unified
 3233              		.thumb
 3234              		.thumb_func
 3236              	ST7789V_DrawTriangle:
 3237              	.LVL342:
 3238              	.LFB261:
 601:Drivers/ST7789V/st7789v.c **** 
 602:Drivers/ST7789V/st7789v.c **** /** 
 603:Drivers/ST7789V/st7789v.c ****  * @brief Draw a Triangle with single color
 604:Drivers/ST7789V/st7789v.c ****  * @param  xi&yi -> 3 coordinates of 3 top points.
 605:Drivers/ST7789V/st7789v.c ****  * @param color ->color of the lines
 606:Drivers/ST7789V/st7789v.c ****  * @return  none
 607:Drivers/ST7789V/st7789v.c ****  */
 608:Drivers/ST7789V/st7789v.c **** void ST7789V_DrawTriangle(uint16_t x1, uint16_t y1, uint16_t x2, uint16_t y2, uint16_t x3, uint16_t
 609:Drivers/ST7789V/st7789v.c **** {
 3239              		.loc 1 609 1 is_stmt 1 view -0
 3240              		.cfi_startproc
 3241              		@ args = 12, pretend = 0, frame = 0
 3242              		@ frame_needed = 0, uses_anonymous_args = 0
 610:Drivers/ST7789V/st7789v.c **** 	ST7789V_Select();
 3243              		.loc 1 610 2 view .LVU797
 609:Drivers/ST7789V/st7789v.c **** 	ST7789V_Select();
 3244              		.loc 1 609 1 is_stmt 0 view .LVU798
 3245 0000 2DE9F04F 		push	{r4, r5, r6, r7, r8, r9, r10, fp, lr}
 3246              		.cfi_def_cfa_offset 36
 3247              		.cfi_offset 4, -36
 3248              		.cfi_offset 5, -32
 3249              		.cfi_offset 6, -28
 3250              		.cfi_offset 7, -24
 3251              		.cfi_offset 8, -20
 3252              		.cfi_offset 9, -16
 3253              		.cfi_offset 10, -12
 3254              		.cfi_offset 11, -8
 3255              		.cfi_offset 14, -4
 3256              		.loc 1 610 2 view .LVU799
 3257 0004 DFF86090 		ldr	r9, .L204
 609:Drivers/ST7789V/st7789v.c **** 	ST7789V_Select();
 3258              		.loc 1 609 1 view .LVU800
 3259 0008 83B0     		sub	sp, sp, #12
 3260              		.cfi_def_cfa_offset 48
 609:Drivers/ST7789V/st7789v.c **** 	ST7789V_Select();
 3261              		.loc 1 609 1 view .LVU801
 3262 000a 0446     		mov	r4, r0
 3263 000c BDF83880 		ldrh	r8, [sp, #56]
 3264 0010 BDF830A0 		ldrh	r10, [sp, #48]
 3265 0014 BDF834B0 		ldrh	fp, [sp, #52]
 3266 0018 0D46     		mov	r5, r1
 3267 001a 1646     		mov	r6, r2
 3268 001c 1F46     		mov	r7, r3
 3269              		.loc 1 610 2 view .LVU802
ARM GAS  /var/folders/lp/x54gwt890xv47sdkqj1k04q40000gn/T//ccAXhYZq.s 			page 78


 3270 001e 4846     		mov	r0, r9
 3271              	.LVL343:
 3272              		.loc 1 610 2 view .LVU803
 3273 0020 0022     		movs	r2, #0
 3274              	.LVL344:
 3275              		.loc 1 610 2 view .LVU804
 3276 0022 0421     		movs	r1, #4
 3277              	.LVL345:
 3278              		.loc 1 610 2 view .LVU805
 3279 0024 FFF7FEFF 		bl	HAL_GPIO_WritePin
 3280              	.LVL346:
 611:Drivers/ST7789V/st7789v.c **** 	/* Draw lines */
 612:Drivers/ST7789V/st7789v.c **** 	ST7789V_DrawLine(x1, y1, x2, y2, color);
 3281              		.loc 1 612 2 is_stmt 1 view .LVU806
 3282 0028 3B46     		mov	r3, r7
 3283 002a 3246     		mov	r2, r6
 3284 002c 2946     		mov	r1, r5
 3285 002e 2046     		mov	r0, r4
 3286 0030 CDF80080 		str	r8, [sp]
 3287 0034 FFF7FEFF 		bl	ST7789V_DrawLine
 3288              	.LVL347:
 613:Drivers/ST7789V/st7789v.c **** 	ST7789V_DrawLine(x2, y2, x3, y3, color);
 3289              		.loc 1 613 2 view .LVU807
 3290 0038 3946     		mov	r1, r7
 3291 003a 3046     		mov	r0, r6
 3292 003c 5B46     		mov	r3, fp
 3293 003e 5246     		mov	r2, r10
 3294 0040 CDF80080 		str	r8, [sp]
 3295 0044 FFF7FEFF 		bl	ST7789V_DrawLine
 3296              	.LVL348:
 614:Drivers/ST7789V/st7789v.c **** 	ST7789V_DrawLine(x3, y3, x1, y1, color);
 3297              		.loc 1 614 2 view .LVU808
 3298 0048 2246     		mov	r2, r4
 3299 004a 5946     		mov	r1, fp
 3300 004c 5046     		mov	r0, r10
 3301 004e CDF80080 		str	r8, [sp]
 3302 0052 2B46     		mov	r3, r5
 3303 0054 FFF7FEFF 		bl	ST7789V_DrawLine
 3304              	.LVL349:
 615:Drivers/ST7789V/st7789v.c **** 	ST7789V_UnSelect();
 3305              		.loc 1 615 2 view .LVU809
 3306 0058 0122     		movs	r2, #1
 3307 005a 0421     		movs	r1, #4
 3308 005c 4846     		mov	r0, r9
 616:Drivers/ST7789V/st7789v.c **** }
 3309              		.loc 1 616 1 is_stmt 0 view .LVU810
 3310 005e 03B0     		add	sp, sp, #12
 3311              		.cfi_def_cfa_offset 36
 3312              		@ sp needed
 3313 0060 BDE8F04F 		pop	{r4, r5, r6, r7, r8, r9, r10, fp, lr}
 3314              		.cfi_restore 14
 3315              		.cfi_restore 11
 3316              		.cfi_restore 10
 3317              		.cfi_restore 9
 3318              		.cfi_restore 8
 3319              		.cfi_restore 7
 3320              		.cfi_restore 6
ARM GAS  /var/folders/lp/x54gwt890xv47sdkqj1k04q40000gn/T//ccAXhYZq.s 			page 79


 3321              		.cfi_restore 5
 3322              		.cfi_restore 4
 3323              		.cfi_def_cfa_offset 0
 3324              	.LVL350:
 615:Drivers/ST7789V/st7789v.c **** 	ST7789V_UnSelect();
 3325              		.loc 1 615 2 view .LVU811
 3326 0064 FFF7FEBF 		b	HAL_GPIO_WritePin
 3327              	.LVL351:
 3328              	.L205:
 3329              		.align	2
 3330              	.L204:
 3331 0068 00000240 		.word	1073872896
 3332              		.cfi_endproc
 3333              	.LFE261:
 3335              		.section	.text.ST7789V_DrawFilledTriangle,"ax",%progbits
 3336              		.align	1
 3337              		.p2align 2,,3
 3338              		.global	ST7789V_DrawFilledTriangle
 3339              		.syntax unified
 3340              		.thumb
 3341              		.thumb_func
 3343              	ST7789V_DrawFilledTriangle:
 3344              	.LVL352:
 3345              	.LFB262:
 617:Drivers/ST7789V/st7789v.c **** 
 618:Drivers/ST7789V/st7789v.c **** /** 
 619:Drivers/ST7789V/st7789v.c ****  * @brief Draw a filled Triangle with single color
 620:Drivers/ST7789V/st7789v.c ****  * @param  xi&yi -> 3 coordinates of 3 top points.
 621:Drivers/ST7789V/st7789v.c ****  * @param color ->color of the triangle
 622:Drivers/ST7789V/st7789v.c ****  * @return  none
 623:Drivers/ST7789V/st7789v.c ****  */
 624:Drivers/ST7789V/st7789v.c **** void ST7789V_DrawFilledTriangle(uint16_t x1, uint16_t y1, uint16_t x2, uint16_t y2, uint16_t x3, ui
 625:Drivers/ST7789V/st7789v.c **** {
 3346              		.loc 1 625 1 is_stmt 1 view -0
 3347              		.cfi_startproc
 3348              		@ args = 12, pretend = 0, frame = 24
 3349              		@ frame_needed = 0, uses_anonymous_args = 0
 626:Drivers/ST7789V/st7789v.c **** 	ST7789V_Select();
 3350              		.loc 1 626 2 view .LVU813
 625:Drivers/ST7789V/st7789v.c **** 	ST7789V_Select();
 3351              		.loc 1 625 1 is_stmt 0 view .LVU814
 3352 0000 2DE9F04F 		push	{r4, r5, r6, r7, r8, r9, r10, fp, lr}
 3353              		.cfi_def_cfa_offset 36
 3354              		.cfi_offset 4, -36
 3355              		.cfi_offset 5, -32
 3356              		.cfi_offset 6, -28
 3357              		.cfi_offset 7, -24
 3358              		.cfi_offset 8, -20
 3359              		.cfi_offset 9, -16
 3360              		.cfi_offset 10, -12
 3361              		.cfi_offset 11, -8
 3362              		.cfi_offset 14, -4
 3363 0004 89B0     		sub	sp, sp, #36
 3364              		.cfi_def_cfa_offset 72
 625:Drivers/ST7789V/st7789v.c **** 	ST7789V_Select();
 3365              		.loc 1 625 1 view .LVU815
 3366 0006 0746     		mov	r7, r0
ARM GAS  /var/folders/lp/x54gwt890xv47sdkqj1k04q40000gn/T//ccAXhYZq.s 			page 80


 3367 0008 BDF84840 		ldrh	r4, [sp, #72]
 3368              		.loc 1 626 2 view .LVU816
 3369 000c 3948     		ldr	r0, .L219
 3370              	.LVL353:
 625:Drivers/ST7789V/st7789v.c **** 	ST7789V_Select();
 3371              		.loc 1 625 1 view .LVU817
 3372 000e 0394     		str	r4, [sp, #12]
 3373 0010 9046     		mov	r8, r2
 3374 0012 1E46     		mov	r6, r3
 3375 0014 BDF84C30 		ldrh	r3, [sp, #76]
 3376              	.LVL354:
 625:Drivers/ST7789V/st7789v.c **** 	ST7789V_Select();
 3377              		.loc 1 625 1 view .LVU818
 3378 0018 0493     		str	r3, [sp, #16]
 3379 001a 0C46     		mov	r4, r1
 627:Drivers/ST7789V/st7789v.c **** 	int16_t deltax = 0, deltay = 0, x = 0, y = 0, xinc1 = 0, xinc2 = 0,
 628:Drivers/ST7789V/st7789v.c **** 			yinc1 = 0, yinc2 = 0, den = 0, num = 0, numadd = 0, numpixels = 0,
 629:Drivers/ST7789V/st7789v.c **** 			curpixel = 0;
 630:Drivers/ST7789V/st7789v.c **** 
 631:Drivers/ST7789V/st7789v.c **** 	deltax = ABS(x2 - x1);
 3380              		.loc 1 631 11 view .LVU819
 3381 001c A8EB0705 		sub	r5, r8, r7
 625:Drivers/ST7789V/st7789v.c **** 	ST7789V_Select();
 3382              		.loc 1 625 1 view .LVU820
 3383 0020 BDF85030 		ldrh	r3, [sp, #80]
 3384 0024 0593     		str	r3, [sp, #20]
 626:Drivers/ST7789V/st7789v.c **** 	int16_t deltax = 0, deltay = 0, x = 0, y = 0, xinc1 = 0, xinc2 = 0,
 3385              		.loc 1 626 2 view .LVU821
 3386 0026 0421     		movs	r1, #4
 3387              	.LVL355:
 626:Drivers/ST7789V/st7789v.c **** 	int16_t deltax = 0, deltay = 0, x = 0, y = 0, xinc1 = 0, xinc2 = 0,
 3388              		.loc 1 626 2 view .LVU822
 3389 0028 0022     		movs	r2, #0
 3390              	.LVL356:
 626:Drivers/ST7789V/st7789v.c **** 	int16_t deltax = 0, deltay = 0, x = 0, y = 0, xinc1 = 0, xinc2 = 0,
 3391              		.loc 1 626 2 view .LVU823
 3392 002a FFF7FEFF 		bl	HAL_GPIO_WritePin
 3393              	.LVL357:
 627:Drivers/ST7789V/st7789v.c **** 	int16_t deltax = 0, deltay = 0, x = 0, y = 0, xinc1 = 0, xinc2 = 0,
 3394              		.loc 1 627 2 is_stmt 1 view .LVU824
 3395              		.loc 1 631 2 view .LVU825
 3396              		.loc 1 631 11 is_stmt 0 view .LVU826
 3397 002e 002D     		cmp	r5, #0
 3398 0030 B8BF     		it	lt
 3399 0032 6D42     		rsblt	r5, r5, #0
 632:Drivers/ST7789V/st7789v.c **** 	deltay = ABS(y2 - y1);
 633:Drivers/ST7789V/st7789v.c **** 	x = x1;
 3400              		.loc 1 633 4 view .LVU827
 3401 0034 38B2     		sxth	r0, r7
 634:Drivers/ST7789V/st7789v.c **** 	y = y1;
 635:Drivers/ST7789V/st7789v.c **** 
 636:Drivers/ST7789V/st7789v.c **** 	if (x2 >= x1) {
 637:Drivers/ST7789V/st7789v.c **** 		xinc1 = 1;
 3402              		.loc 1 637 9 view .LVU828
 3403 0036 B845     		cmp	r8, r7
 3404 0038 34BF     		ite	cc
 3405 003a 4FF0FF3E 		movcc	lr, #-1
ARM GAS  /var/folders/lp/x54gwt890xv47sdkqj1k04q40000gn/T//ccAXhYZq.s 			page 81


 3406 003e 4FF0010E 		movcs	lr, #1
 632:Drivers/ST7789V/st7789v.c **** 	deltay = ABS(y2 - y1);
 3407              		.loc 1 632 11 view .LVU829
 3408 0042 371B     		subs	r7, r6, r4
 3409              	.LVL358:
 632:Drivers/ST7789V/st7789v.c **** 	deltay = ABS(y2 - y1);
 3410              		.loc 1 632 11 view .LVU830
 3411 0044 002F     		cmp	r7, #0
 3412 0046 B8BF     		it	lt
 3413 0048 7F42     		rsblt	r7, r7, #0
 631:Drivers/ST7789V/st7789v.c **** 	deltay = ABS(y2 - y1);
 3414              		.loc 1 631 9 view .LVU831
 3415 004a 2DB2     		sxth	r5, r5
 3416              	.LVL359:
 632:Drivers/ST7789V/st7789v.c **** 	deltay = ABS(y2 - y1);
 3417              		.loc 1 632 2 is_stmt 1 view .LVU832
 632:Drivers/ST7789V/st7789v.c **** 	deltay = ABS(y2 - y1);
 3418              		.loc 1 632 9 is_stmt 0 view .LVU833
 3419 004c 3FB2     		sxth	r7, r7
 3420              	.LVL360:
 633:Drivers/ST7789V/st7789v.c **** 	y = y1;
 3421              		.loc 1 633 2 is_stmt 1 view .LVU834
 634:Drivers/ST7789V/st7789v.c **** 	y = y1;
 3422              		.loc 1 634 2 view .LVU835
 638:Drivers/ST7789V/st7789v.c **** 		xinc2 = 1;
 639:Drivers/ST7789V/st7789v.c **** 	}
 640:Drivers/ST7789V/st7789v.c **** 	else {
 641:Drivers/ST7789V/st7789v.c **** 		xinc1 = -1;
 642:Drivers/ST7789V/st7789v.c **** 		xinc2 = -1;
 643:Drivers/ST7789V/st7789v.c **** 	}
 644:Drivers/ST7789V/st7789v.c **** 
 645:Drivers/ST7789V/st7789v.c **** 	if (y2 >= y1) {
 646:Drivers/ST7789V/st7789v.c **** 		yinc1 = 1;
 3423              		.loc 1 646 9 is_stmt 0 view .LVU836
 3424 004e A642     		cmp	r6, r4
 3425 0050 34BF     		ite	cc
 3426 0052 4FF0FF33 		movcc	r3, #-1
 3427 0056 0123     		movcs	r3, #1
 647:Drivers/ST7789V/st7789v.c **** 		yinc2 = 1;
 648:Drivers/ST7789V/st7789v.c **** 	}
 649:Drivers/ST7789V/st7789v.c **** 	else {
 650:Drivers/ST7789V/st7789v.c **** 		yinc1 = -1;
 651:Drivers/ST7789V/st7789v.c **** 		yinc2 = -1;
 652:Drivers/ST7789V/st7789v.c **** 	}
 653:Drivers/ST7789V/st7789v.c **** 
 654:Drivers/ST7789V/st7789v.c **** 	if (deltax >= deltay) {
 3428              		.loc 1 654 5 view .LVU837
 3429 0058 BD42     		cmp	r5, r7
 634:Drivers/ST7789V/st7789v.c **** 
 3430              		.loc 1 634 4 view .LVU838
 3431 005a 21B2     		sxth	r1, r4
 3432              	.LVL361:
 636:Drivers/ST7789V/st7789v.c **** 		xinc1 = 1;
 3433              		.loc 1 636 2 is_stmt 1 view .LVU839
 645:Drivers/ST7789V/st7789v.c **** 		yinc1 = 1;
 3434              		.loc 1 645 2 view .LVU840
 3435              		.loc 1 654 2 view .LVU841
ARM GAS  /var/folders/lp/x54gwt890xv47sdkqj1k04q40000gn/T//ccAXhYZq.s 			page 82


 3436              		.loc 1 654 5 is_stmt 0 view .LVU842
 3437 005c 3EDB     		blt	.L209
 655:Drivers/ST7789V/st7789v.c **** 		xinc1 = 0;
 3438              		.loc 1 655 3 is_stmt 1 view .LVU843
 3439              	.LVL362:
 656:Drivers/ST7789V/st7789v.c **** 		yinc2 = 0;
 3440              		.loc 1 656 3 view .LVU844
 657:Drivers/ST7789V/st7789v.c **** 		den = deltax;
 3441              		.loc 1 657 3 view .LVU845
 658:Drivers/ST7789V/st7789v.c **** 		num = deltax / 2;
 3442              		.loc 1 658 3 view .LVU846
 3443 005e F146     		mov	r9, lr
 3444              		.loc 1 658 7 is_stmt 0 view .LVU847
 3445 0060 05EBD574 		add	r4, r5, r5, lsr #31
 3446              	.LVL363:
 656:Drivers/ST7789V/st7789v.c **** 		yinc2 = 0;
 3447              		.loc 1 656 9 view .LVU848
 3448 0064 4FF0000E 		mov	lr, #0
 3449              	.LVL364:
 3450              		.loc 1 658 7 view .LVU849
 3451 0068 6410     		asrs	r4, r4, #1
 3452              	.LVL365:
 659:Drivers/ST7789V/st7789v.c **** 		numadd = deltay;
 3453              		.loc 1 659 3 is_stmt 1 view .LVU850
 660:Drivers/ST7789V/st7789v.c **** 		numpixels = deltax;
 3454              		.loc 1 660 3 view .LVU851
 655:Drivers/ST7789V/st7789v.c **** 		yinc2 = 0;
 3455              		.loc 1 655 9 is_stmt 0 view .LVU852
 3456 006a F046     		mov	r8, lr
 3457              	.LVL366:
 3458              	.L210:
 661:Drivers/ST7789V/st7789v.c **** 	}
 662:Drivers/ST7789V/st7789v.c **** 	else {
 663:Drivers/ST7789V/st7789v.c **** 		xinc2 = 0;
 664:Drivers/ST7789V/st7789v.c **** 		yinc1 = 0;
 665:Drivers/ST7789V/st7789v.c **** 		den = deltay;
 666:Drivers/ST7789V/st7789v.c **** 		num = deltay / 2;
 667:Drivers/ST7789V/st7789v.c **** 		numadd = deltax;
 668:Drivers/ST7789V/st7789v.c **** 		numpixels = deltay;
 669:Drivers/ST7789V/st7789v.c **** 	}
 670:Drivers/ST7789V/st7789v.c **** 
 671:Drivers/ST7789V/st7789v.c **** 	for (curpixel = 0; curpixel <= numpixels; curpixel++) {
 3459              		.loc 1 671 2 is_stmt 1 view .LVU853
 3460              		.loc 1 671 30 discriminator 1 view .LVU854
 3461 006c 002D     		cmp	r5, #0
 3462 006e 2DDB     		blt	.L214
 672:Drivers/ST7789V/st7789v.c **** 		ST7789V_DrawLine(x, y, x3, y3, color);
 673:Drivers/ST7789V/st7789v.c **** 
 674:Drivers/ST7789V/st7789v.c **** 		num += numadd;
 675:Drivers/ST7789V/st7789v.c **** 		if (num >= den) {
 676:Drivers/ST7789V/st7789v.c **** 			num -= den;
 677:Drivers/ST7789V/st7789v.c **** 			x += xinc1;
 678:Drivers/ST7789V/st7789v.c **** 			y += yinc1;
 679:Drivers/ST7789V/st7789v.c **** 		}
 680:Drivers/ST7789V/st7789v.c **** 		x += xinc2;
 681:Drivers/ST7789V/st7789v.c **** 		y += yinc2;
 3463              		.loc 1 681 5 is_stmt 0 view .LVU855
ARM GAS  /var/folders/lp/x54gwt890xv47sdkqj1k04q40000gn/T//ccAXhYZq.s 			page 83


 3464 0070 CDE906E3 		strd	lr, r3, [sp, #24]
 674:Drivers/ST7789V/st7789v.c **** 		if (num >= den) {
 3465              		.loc 1 674 7 view .LVU856
 3466 0074 BFB2     		uxth	r7, r7
 680:Drivers/ST7789V/st7789v.c **** 		y += yinc2;
 3467              		.loc 1 680 5 view .LVU857
 3468 0076 1FFA89F9 		uxth	r9, r9
 3469              		.loc 1 681 5 view .LVU858
 3470 007a 1FFA88F8 		uxth	r8, r8
 3471              		.loc 1 681 5 view .LVU859
 3472 007e 0026     		movs	r6, #0
 3473              	.LVL367:
 3474              	.L213:
 672:Drivers/ST7789V/st7789v.c **** 		ST7789V_DrawLine(x, y, x3, y3, color);
 3475              		.loc 1 672 3 is_stmt 1 view .LVU860
 3476 0080 059B     		ldr	r3, [sp, #20]
 3477 0082 0093     		str	r3, [sp]
 3478 0084 1FFA80FB 		uxth	fp, r0
 3479 0088 1FFA81FA 		uxth	r10, r1
 3480 008c DDE90323 		ldrd	r2, r3, [sp, #12]
 674:Drivers/ST7789V/st7789v.c **** 		if (num >= den) {
 3481              		.loc 1 674 7 is_stmt 0 view .LVU861
 3482 0090 3C44     		add	r4, r4, r7
 3483              	.LVL368:
 672:Drivers/ST7789V/st7789v.c **** 		ST7789V_DrawLine(x, y, x3, y3, color);
 3484              		.loc 1 672 3 view .LVU862
 3485 0092 5146     		mov	r1, r10
 672:Drivers/ST7789V/st7789v.c **** 		ST7789V_DrawLine(x, y, x3, y3, color);
 3486              		.loc 1 672 3 view .LVU863
 3487 0094 5846     		mov	r0, fp
 672:Drivers/ST7789V/st7789v.c **** 		ST7789V_DrawLine(x, y, x3, y3, color);
 3488              		.loc 1 672 3 view .LVU864
 3489 0096 FFF7FEFF 		bl	ST7789V_DrawLine
 3490              	.LVL369:
 674:Drivers/ST7789V/st7789v.c **** 		if (num >= den) {
 3491              		.loc 1 674 3 is_stmt 1 view .LVU865
 676:Drivers/ST7789V/st7789v.c **** 			x += xinc1;
 3492              		.loc 1 676 4 view .LVU866
 674:Drivers/ST7789V/st7789v.c **** 		if (num >= den) {
 3493              		.loc 1 674 7 is_stmt 0 view .LVU867
 3494 009a A2B2     		uxth	r2, r4
 3495 009c 24B2     		sxth	r4, r4
 3496              	.LVL370:
 675:Drivers/ST7789V/st7789v.c **** 			num -= den;
 3497              		.loc 1 675 3 is_stmt 1 view .LVU868
 671:Drivers/ST7789V/st7789v.c **** 		ST7789V_DrawLine(x, y, x3, y3, color);
 3498              		.loc 1 671 30 is_stmt 0 discriminator 1 view .LVU869
 3499 009e 0136     		adds	r6, r6, #1
 3500              	.LVL371:
 675:Drivers/ST7789V/st7789v.c **** 			num -= den;
 3501              		.loc 1 675 6 view .LVU870
 3502 00a0 A542     		cmp	r5, r4
 671:Drivers/ST7789V/st7789v.c **** 		ST7789V_DrawLine(x, y, x3, y3, color);
 3503              		.loc 1 671 30 discriminator 1 view .LVU871
 3504 00a2 33B2     		sxth	r3, r6
 675:Drivers/ST7789V/st7789v.c **** 			num -= den;
 3505              		.loc 1 675 6 view .LVU872
ARM GAS  /var/folders/lp/x54gwt890xv47sdkqj1k04q40000gn/T//ccAXhYZq.s 			page 84


 3506 00a4 0ADC     		bgt	.L212
 677:Drivers/ST7789V/st7789v.c **** 			y += yinc1;
 3507              		.loc 1 677 6 view .LVU873
 3508 00a6 0699     		ldr	r1, [sp, #24]
 3509 00a8 0BEB0100 		add	r0, fp, r1
 678:Drivers/ST7789V/st7789v.c **** 		}
 3510              		.loc 1 678 6 view .LVU874
 3511 00ac 0799     		ldr	r1, [sp, #28]
 676:Drivers/ST7789V/st7789v.c **** 			x += xinc1;
 3512              		.loc 1 676 8 view .LVU875
 3513 00ae 521B     		subs	r2, r2, r5
 678:Drivers/ST7789V/st7789v.c **** 		}
 3514              		.loc 1 678 6 view .LVU876
 3515 00b0 5144     		add	r1, r10, r1
 677:Drivers/ST7789V/st7789v.c **** 			y += yinc1;
 3516              		.loc 1 677 6 view .LVU877
 3517 00b2 1FFA80FB 		uxth	fp, r0
 3518              	.LVL372:
 678:Drivers/ST7789V/st7789v.c **** 		}
 3519              		.loc 1 678 6 view .LVU878
 3520 00b6 1FFA81FA 		uxth	r10, r1
 3521              	.LVL373:
 676:Drivers/ST7789V/st7789v.c **** 			x += xinc1;
 3522              		.loc 1 676 8 view .LVU879
 3523 00ba 14B2     		sxth	r4, r2
 3524              	.LVL374:
 677:Drivers/ST7789V/st7789v.c **** 			y += yinc1;
 3525              		.loc 1 677 4 is_stmt 1 view .LVU880
 678:Drivers/ST7789V/st7789v.c **** 		}
 3526              		.loc 1 678 4 view .LVU881
 3527              	.L212:
 680:Drivers/ST7789V/st7789v.c **** 		y += yinc2;
 3528              		.loc 1 680 3 view .LVU882
 680:Drivers/ST7789V/st7789v.c **** 		y += yinc2;
 3529              		.loc 1 680 5 is_stmt 0 view .LVU883
 3530 00bc 09EB0B00 		add	r0, r9, fp
 3531              		.loc 1 681 5 view .LVU884
 3532 00c0 08EB0A01 		add	r1, r8, r10
 671:Drivers/ST7789V/st7789v.c **** 		ST7789V_DrawLine(x, y, x3, y3, color);
 3533              		.loc 1 671 30 discriminator 1 view .LVU885
 3534 00c4 AB42     		cmp	r3, r5
 680:Drivers/ST7789V/st7789v.c **** 		y += yinc2;
 3535              		.loc 1 680 5 view .LVU886
 3536 00c6 00B2     		sxth	r0, r0
 3537              	.LVL375:
 3538              		.loc 1 681 3 is_stmt 1 view .LVU887
 3539              		.loc 1 681 5 is_stmt 0 view .LVU888
 3540 00c8 09B2     		sxth	r1, r1
 3541              	.LVL376:
 671:Drivers/ST7789V/st7789v.c **** 		ST7789V_DrawLine(x, y, x3, y3, color);
 3542              		.loc 1 671 52 is_stmt 1 discriminator 2 view .LVU889
 671:Drivers/ST7789V/st7789v.c **** 		ST7789V_DrawLine(x, y, x3, y3, color);
 3543              		.loc 1 671 30 discriminator 1 view .LVU890
 3544 00ca D9DD     		ble	.L213
 3545              	.LVL377:
 3546              	.L214:
 682:Drivers/ST7789V/st7789v.c **** 	}
ARM GAS  /var/folders/lp/x54gwt890xv47sdkqj1k04q40000gn/T//ccAXhYZq.s 			page 85


 683:Drivers/ST7789V/st7789v.c **** 	ST7789V_UnSelect();
 3547              		.loc 1 683 2 view .LVU891
 3548 00cc 0948     		ldr	r0, .L219
 3549              	.LVL378:
 3550              		.loc 1 683 2 is_stmt 0 view .LVU892
 3551 00ce 0122     		movs	r2, #1
 3552 00d0 0421     		movs	r1, #4
 3553              	.LVL379:
 684:Drivers/ST7789V/st7789v.c **** }
 3554              		.loc 1 684 1 view .LVU893
 3555 00d2 09B0     		add	sp, sp, #36
 3556              		.cfi_remember_state
 3557              		.cfi_def_cfa_offset 36
 3558              		@ sp needed
 3559 00d4 BDE8F04F 		pop	{r4, r5, r6, r7, r8, r9, r10, fp, lr}
 3560              		.cfi_restore 14
 3561              		.cfi_restore 11
 3562              		.cfi_restore 10
 3563              		.cfi_restore 9
 3564              		.cfi_restore 8
 3565              		.cfi_restore 7
 3566              		.cfi_restore 6
 3567              		.cfi_restore 5
 3568              		.cfi_restore 4
 3569              		.cfi_def_cfa_offset 0
 3570              	.LVL380:
 683:Drivers/ST7789V/st7789v.c **** }
 3571              		.loc 1 683 2 view .LVU894
 3572 00d8 FFF7FEBF 		b	HAL_GPIO_WritePin
 3573              	.LVL381:
 3574              	.L209:
 3575              		.cfi_restore_state
 663:Drivers/ST7789V/st7789v.c **** 		yinc1 = 0;
 3576              		.loc 1 663 3 is_stmt 1 view .LVU895
 664:Drivers/ST7789V/st7789v.c **** 		den = deltay;
 3577              		.loc 1 664 3 view .LVU896
 665:Drivers/ST7789V/st7789v.c **** 		num = deltay / 2;
 3578              		.loc 1 665 3 view .LVU897
 666:Drivers/ST7789V/st7789v.c **** 		numadd = deltax;
 3579              		.loc 1 666 3 view .LVU898
 666:Drivers/ST7789V/st7789v.c **** 		numadd = deltax;
 3580              		.loc 1 666 7 is_stmt 0 view .LVU899
 3581 00dc 2A46     		mov	r2, r5
 3582 00de 07EBD774 		add	r4, r7, r7, lsr #31
 3583 00e2 9846     		mov	r8, r3
 664:Drivers/ST7789V/st7789v.c **** 		den = deltay;
 3584              		.loc 1 664 9 view .LVU900
 3585 00e4 0023     		movs	r3, #0
 3586              	.LVL382:
 665:Drivers/ST7789V/st7789v.c **** 		num = deltay / 2;
 3587              		.loc 1 665 7 view .LVU901
 3588 00e6 3D46     		mov	r5, r7
 3589              	.LVL383:
 666:Drivers/ST7789V/st7789v.c **** 		numadd = deltax;
 3590              		.loc 1 666 7 view .LVU902
 3591 00e8 44F34F04 		sbfx	r4, r4, #1, #16
 3592              	.LVL384:
ARM GAS  /var/folders/lp/x54gwt890xv47sdkqj1k04q40000gn/T//ccAXhYZq.s 			page 86


 667:Drivers/ST7789V/st7789v.c **** 		numpixels = deltay;
 3593              		.loc 1 667 3 is_stmt 1 view .LVU903
 668:Drivers/ST7789V/st7789v.c **** 	}
 3594              		.loc 1 668 3 view .LVU904
 667:Drivers/ST7789V/st7789v.c **** 		numpixels = deltay;
 3595              		.loc 1 667 10 is_stmt 0 view .LVU905
 3596 00ec 1746     		mov	r7, r2
 3597              	.LVL385:
 663:Drivers/ST7789V/st7789v.c **** 		yinc1 = 0;
 3598              		.loc 1 663 9 view .LVU906
 3599 00ee 9946     		mov	r9, r3
 3600 00f0 BCE7     		b	.L210
 3601              	.L220:
 3602 00f2 00BF     		.align	2
 3603              	.L219:
 3604 00f4 00000240 		.word	1073872896
 3605              		.cfi_endproc
 3606              	.LFE262:
 3608              		.section	.text.ST7789V_DrawFilledCircle,"ax",%progbits
 3609              		.align	1
 3610              		.p2align 2,,3
 3611              		.global	ST7789V_DrawFilledCircle
 3612              		.syntax unified
 3613              		.thumb
 3614              		.thumb_func
 3616              	ST7789V_DrawFilledCircle:
 3617              	.LVL386:
 3618              	.LFB263:
 685:Drivers/ST7789V/st7789v.c **** 
 686:Drivers/ST7789V/st7789v.c **** /** 
 687:Drivers/ST7789V/st7789v.c ****  * @brief Draw a Filled circle with single color
 688:Drivers/ST7789V/st7789v.c ****  * @param x0&y0 -> coordinate of circle center
 689:Drivers/ST7789V/st7789v.c ****  * @param r -> radius of circle
 690:Drivers/ST7789V/st7789v.c ****  * @param color -> color of circle
 691:Drivers/ST7789V/st7789v.c ****  * @return  none
 692:Drivers/ST7789V/st7789v.c ****  */
 693:Drivers/ST7789V/st7789v.c **** void ST7789V_DrawFilledCircle(int16_t x0, int16_t y0, int16_t r, uint16_t color)
 694:Drivers/ST7789V/st7789v.c **** {
 3619              		.loc 1 694 1 is_stmt 1 view -0
 3620              		.cfi_startproc
 3621              		@ args = 0, pretend = 0, frame = 16
 3622              		@ frame_needed = 0, uses_anonymous_args = 0
 695:Drivers/ST7789V/st7789v.c **** 	ST7789V_Select();
 3623              		.loc 1 695 2 view .LVU908
 694:Drivers/ST7789V/st7789v.c **** 	ST7789V_Select();
 3624              		.loc 1 694 1 is_stmt 0 view .LVU909
 3625 0000 2DE9F04F 		push	{r4, r5, r6, r7, r8, r9, r10, fp, lr}
 3626              		.cfi_def_cfa_offset 36
 3627              		.cfi_offset 4, -36
 3628              		.cfi_offset 5, -32
 3629              		.cfi_offset 6, -28
 3630              		.cfi_offset 7, -24
 3631              		.cfi_offset 8, -20
 3632              		.cfi_offset 9, -16
 3633              		.cfi_offset 10, -12
 3634              		.cfi_offset 11, -8
 3635              		.cfi_offset 14, -4
ARM GAS  /var/folders/lp/x54gwt890xv47sdkqj1k04q40000gn/T//ccAXhYZq.s 			page 87


 3636 0004 87B0     		sub	sp, sp, #28
 3637              		.cfi_def_cfa_offset 64
 694:Drivers/ST7789V/st7789v.c **** 	ST7789V_Select();
 3638              		.loc 1 694 1 view .LVU910
 3639 0006 1446     		mov	r4, r2
 3640 0008 8046     		mov	r8, r0
 3641 000a 8B46     		mov	fp, r1
 3642 000c 0494     		str	r4, [sp, #16]
 3643              		.loc 1 695 2 view .LVU911
 3644 000e 0421     		movs	r1, #4
 3645              	.LVL387:
 696:Drivers/ST7789V/st7789v.c **** 	int16_t f = 1 - r;
 3646              		.loc 1 696 16 view .LVU912
 3647 0010 A4B2     		uxth	r4, r4
 695:Drivers/ST7789V/st7789v.c **** 	ST7789V_Select();
 3648              		.loc 1 695 2 view .LVU913
 3649 0012 5F48     		ldr	r0, .L241
 3650              	.LVL388:
 694:Drivers/ST7789V/st7789v.c **** 	ST7789V_Select();
 3651              		.loc 1 694 1 view .LVU914
 3652 0014 0393     		str	r3, [sp, #12]
 695:Drivers/ST7789V/st7789v.c **** 	ST7789V_Select();
 3653              		.loc 1 695 2 view .LVU915
 3654 0016 0022     		movs	r2, #0
 3655              	.LVL389:
 694:Drivers/ST7789V/st7789v.c **** 	ST7789V_Select();
 3656              		.loc 1 694 1 view .LVU916
 3657 0018 1F46     		mov	r7, r3
 695:Drivers/ST7789V/st7789v.c **** 	ST7789V_Select();
 3658              		.loc 1 695 2 view .LVU917
 3659 001a FFF7FEFF 		bl	HAL_GPIO_WritePin
 3660              	.LVL390:
 3661              		.loc 1 696 2 is_stmt 1 view .LVU918
 697:Drivers/ST7789V/st7789v.c **** 	int16_t ddF_x = 1;
 698:Drivers/ST7789V/st7789v.c **** 	int16_t ddF_y = -2 * r;
 3662              		.loc 1 698 21 is_stmt 0 view .LVU919
 3663 001e C4EBC433 		rsb	r3, r4, r4, lsl #15
 699:Drivers/ST7789V/st7789v.c **** 	int16_t x = 0;
 700:Drivers/ST7789V/st7789v.c **** 	int16_t y = r;
 701:Drivers/ST7789V/st7789v.c **** 
 702:Drivers/ST7789V/st7789v.c **** 	ST7789V_DrawPixel(x0, y0 + r, color);
 3664              		.loc 1 702 2 view .LVU920
 3665 0022 1FFA88F8 		uxth	r8, r8
 3666              	.LVL391:
 698:Drivers/ST7789V/st7789v.c **** 	int16_t x = 0;
 3667              		.loc 1 698 21 view .LVU921
 3668 0026 5B00     		lsls	r3, r3, #1
 698:Drivers/ST7789V/st7789v.c **** 	int16_t x = 0;
 3669              		.loc 1 698 10 view .LVU922
 3670 0028 19B2     		sxth	r1, r3
 696:Drivers/ST7789V/st7789v.c **** 	int16_t ddF_x = 1;
 3671              		.loc 1 696 16 view .LVU923
 3672 002a C4F10105 		rsb	r5, r4, #1
 3673              	.LBB201:
 3674              	.LBB202:
 300:Drivers/ST7789V/st7789v.c **** 		 (y < 0) || (y >= ST7789V_HEIGHT))	return;
 3675              		.loc 1 300 5 view .LVU924
ARM GAS  /var/folders/lp/x54gwt890xv47sdkqj1k04q40000gn/T//ccAXhYZq.s 			page 88


 3676 002e B8F5A07F 		cmp	r8, #320
 3677              	.LBE202:
 3678              	.LBE201:
 3679              		.loc 1 702 2 view .LVU925
 3680 0032 1FFA8BFB 		uxth	fp, fp
 3681              	.LVL392:
 698:Drivers/ST7789V/st7789v.c **** 	int16_t x = 0;
 3682              		.loc 1 698 10 view .LVU926
 3683 0036 0591     		str	r1, [sp, #20]
 696:Drivers/ST7789V/st7789v.c **** 	int16_t ddF_x = 1;
 3684              		.loc 1 696 10 view .LVU927
 3685 0038 2DB2     		sxth	r5, r5
 3686              	.LVL393:
 697:Drivers/ST7789V/st7789v.c **** 	int16_t ddF_y = -2 * r;
 3687              		.loc 1 697 2 is_stmt 1 view .LVU928
 698:Drivers/ST7789V/st7789v.c **** 	int16_t x = 0;
 3688              		.loc 1 698 2 view .LVU929
 699:Drivers/ST7789V/st7789v.c **** 	int16_t y = r;
 3689              		.loc 1 699 2 view .LVU930
 700:Drivers/ST7789V/st7789v.c **** 
 3690              		.loc 1 700 2 view .LVU931
 3691              		.loc 1 702 2 view .LVU932
 3692              	.LBB207:
 3693              	.LBI201:
 298:Drivers/ST7789V/st7789v.c **** {
 3694              		.loc 1 298 6 view .LVU933
 3695              	.LBB203:
 300:Drivers/ST7789V/st7789v.c **** 		 (y < 0) || (y >= ST7789V_HEIGHT))	return;
 3696              		.loc 1 300 2 view .LVU934
 300:Drivers/ST7789V/st7789v.c **** 		 (y < 0) || (y >= ST7789V_HEIGHT))	return;
 3697              		.loc 1 300 5 is_stmt 0 view .LVU935
 3698 003a 0BD2     		bcs	.L223
 3699              	.LBE203:
 3700              	.LBE207:
 3701              		.loc 1 702 2 view .LVU936
 3702 003c 04EB0B01 		add	r1, r4, fp
 3703 0040 89B2     		uxth	r1, r1
 703:Drivers/ST7789V/st7789v.c **** 	ST7789V_DrawPixel(x0, y0 - r, color);
 3704              		.loc 1 703 2 view .LVU937
 3705 0042 ABEB0406 		sub	r6, fp, r4
 3706              	.LBB208:
 3707              	.LBB204:
 301:Drivers/ST7789V/st7789v.c **** 	
 3708              		.loc 1 301 12 view .LVU938
 3709 0046 EF29     		cmp	r1, #239
 3710              	.LBE204:
 3711              	.LBE208:
 3712              		.loc 1 703 2 view .LVU939
 3713 0048 B6B2     		uxth	r6, r6
 3714              	.LBB209:
 3715              	.LBB205:
 301:Drivers/ST7789V/st7789v.c **** 	
 3716              		.loc 1 301 12 view .LVU940
 3717 004a 40F29080 		bls	.L237
 3718              	.LVL394:
 301:Drivers/ST7789V/st7789v.c **** 	
 3719              		.loc 1 301 12 view .LVU941
ARM GAS  /var/folders/lp/x54gwt890xv47sdkqj1k04q40000gn/T//ccAXhYZq.s 			page 89


 3720              	.LBE205:
 3721              	.LBE209:
 3722              	.LBB210:
 3723              	.LBB211:
 3724 004e EF2E     		cmp	r6, #239
 3725 0050 40F28780 		bls	.L238
 3726              	.L223:
 3727              	.LBE211:
 3728              	.LBE210:
 704:Drivers/ST7789V/st7789v.c **** 	ST7789V_DrawPixel(x0 + r, y0, color);
 3729              		.loc 1 704 2 is_stmt 1 view .LVU942
 3730 0054 04EB0806 		add	r6, r4, r8
 3731 0058 B6B2     		uxth	r6, r6
 3732              	.LVL395:
 3733              	.LBB214:
 3734              	.LBI214:
 298:Drivers/ST7789V/st7789v.c **** {
 3735              		.loc 1 298 6 view .LVU943
 3736              	.LBB215:
 300:Drivers/ST7789V/st7789v.c **** 		 (y < 0) || (y >= ST7789V_HEIGHT))	return;
 3737              		.loc 1 300 2 view .LVU944
 3738              	.LBE215:
 3739              	.LBE214:
 705:Drivers/ST7789V/st7789v.c **** 	ST7789V_DrawPixel(x0 - r, y0, color);
 3740              		.loc 1 705 2 is_stmt 0 view .LVU945
 3741 005a A8EB0407 		sub	r7, r8, r4
 3742              	.LVL396:
 3743              	.LBB219:
 3744              	.LBB216:
 300:Drivers/ST7789V/st7789v.c **** 		 (y < 0) || (y >= ST7789V_HEIGHT))	return;
 3745              		.loc 1 300 5 view .LVU946
 3746 005e B6F5A07F 		cmp	r6, #320
 3747              	.LBE216:
 3748              	.LBE219:
 3749              		.loc 1 705 2 view .LVU947
 3750 0062 BFB2     		uxth	r7, r7
 3751              	.LBB220:
 3752              	.LBB217:
 300:Drivers/ST7789V/st7789v.c **** 		 (y < 0) || (y >= ST7789V_HEIGHT))	return;
 3753              		.loc 1 300 5 view .LVU948
 3754 0064 80F08B80 		bcs	.L226
 301:Drivers/ST7789V/st7789v.c **** 	
 3755              		.loc 1 301 12 view .LVU949
 3756 0068 BBF1EF0F 		cmp	fp, #239
 3757 006c 6BD9     		bls	.L239
 3758              	.LVL397:
 3759              	.L228:
 301:Drivers/ST7789V/st7789v.c **** 	
 3760              		.loc 1 301 12 view .LVU950
 3761              	.LBE217:
 3762              	.LBE220:
 706:Drivers/ST7789V/st7789v.c **** 	ST7789V_DrawLine(x0 - r, y0, x0 + r, y0, color);
 3763              		.loc 1 706 2 is_stmt 1 view .LVU951
 3764 006e 039B     		ldr	r3, [sp, #12]
 3765 0070 0093     		str	r3, [sp]
 3766 0072 3246     		mov	r2, r6
 3767 0074 5B46     		mov	r3, fp
ARM GAS  /var/folders/lp/x54gwt890xv47sdkqj1k04q40000gn/T//ccAXhYZq.s 			page 90


 3768 0076 3846     		mov	r0, r7
 3769 0078 5946     		mov	r1, fp
 3770 007a FFF7FEFF 		bl	ST7789V_DrawLine
 3771              	.LVL398:
 707:Drivers/ST7789V/st7789v.c **** 
 708:Drivers/ST7789V/st7789v.c **** 	while (x < y) {
 3772              		.loc 1 708 2 view .LVU952
 3773              		.loc 1 708 11 view .LVU953
 3774 007e 049B     		ldr	r3, [sp, #16]
 3775 0080 002B     		cmp	r3, #0
 3776 0082 58DD     		ble	.L233
 699:Drivers/ST7789V/st7789v.c **** 	int16_t y = r;
 3777              		.loc 1 699 10 is_stmt 0 view .LVU954
 3778 0084 0027     		movs	r7, #0
 3779 0086 AA46     		mov	r10, r5
 3780 0088 B946     		mov	r9, r7
 3781 008a 039D     		ldr	r5, [sp, #12]
 3782              	.LVL399:
 699:Drivers/ST7789V/st7789v.c **** 	int16_t y = r;
 3783              		.loc 1 699 10 view .LVU955
 3784 008c 00E0     		b	.L231
 3785              	.LVL400:
 3786              	.L240:
 699:Drivers/ST7789V/st7789v.c **** 	int16_t y = r;
 3787              		.loc 1 699 10 view .LVU956
 3788 008e 9CB2     		uxth	r4, r3
 3789              	.LVL401:
 3790              	.L231:
 709:Drivers/ST7789V/st7789v.c **** 		if (f >= 0) {
 3791              		.loc 1 709 3 is_stmt 1 view .LVU957
 710:Drivers/ST7789V/st7789v.c **** 			y--;
 3792              		.loc 1 710 4 view .LVU958
 3793 0090 09F10103 		add	r3, r9, #1
 3794 0094 9EB2     		uxth	r6, r3
 711:Drivers/ST7789V/st7789v.c **** 			ddF_y += 2;
 712:Drivers/ST7789V/st7789v.c **** 			f += ddF_y;
 713:Drivers/ST7789V/st7789v.c **** 		}
 714:Drivers/ST7789V/st7789v.c **** 		x++;
 715:Drivers/ST7789V/st7789v.c **** 		ddF_x += 2;
 716:Drivers/ST7789V/st7789v.c **** 		f += ddF_x;
 717:Drivers/ST7789V/st7789v.c **** 
 718:Drivers/ST7789V/st7789v.c **** 		ST7789V_DrawLine(x0 - x, y0 + y, x0 + x, y0 + y, color);
 3795              		.loc 1 718 3 is_stmt 0 view .LVU959
 3796 0096 A8EB0609 		sub	r9, r8, r6
 3797              	.LVL402:
 3798              		.loc 1 718 3 view .LVU960
 3799 009a 08EB0607 		add	r7, r8, r6
 3800 009e 1FFA89F0 		uxth	r0, r9
 3801 00a2 BFB2     		uxth	r7, r7
 709:Drivers/ST7789V/st7789v.c **** 			y--;
 3802              		.loc 1 709 6 view .LVU961
 3803 00a4 BAF1000F 		cmp	r10, #0
 3804              		.loc 1 718 3 view .LVU962
 3805 00a8 0390     		str	r0, [sp, #12]
 3806 00aa 3A46     		mov	r2, r7
 714:Drivers/ST7789V/st7789v.c **** 		ddF_x += 2;
 3807              		.loc 1 714 4 view .LVU963
ARM GAS  /var/folders/lp/x54gwt890xv47sdkqj1k04q40000gn/T//ccAXhYZq.s 			page 91


 3808 00ac 0FFA83F9 		sxth	r9, r3
 712:Drivers/ST7789V/st7789v.c **** 		}
 3809              		.loc 1 712 6 view .LVU964
 3810 00b0 1FFA8AF1 		uxth	r1, r10
 709:Drivers/ST7789V/st7789v.c **** 			y--;
 3811              		.loc 1 709 6 view .LVU965
 3812 00b4 0FDB     		blt	.L232
 711:Drivers/ST7789V/st7789v.c **** 			f += ddF_y;
 3813              		.loc 1 711 10 view .LVU966
 3814 00b6 059B     		ldr	r3, [sp, #20]
 3815              	.LVL403:
 710:Drivers/ST7789V/st7789v.c **** 			ddF_y += 2;
 3816              		.loc 1 710 5 view .LVU967
 3817 00b8 04F1FF3C 		add	ip, r4, #-1
 711:Drivers/ST7789V/st7789v.c **** 			f += ddF_y;
 3818              		.loc 1 711 10 view .LVU968
 3819 00bc 0233     		adds	r3, r3, #2
 3820 00be 9E46     		mov	lr, r3
 712:Drivers/ST7789V/st7789v.c **** 		}
 3821              		.loc 1 712 6 view .LVU969
 3822 00c0 11FA83F1 		uxtah	r1, r1, r3
 710:Drivers/ST7789V/st7789v.c **** 			ddF_y += 2;
 3823              		.loc 1 710 5 view .LVU970
 3824 00c4 0FFA8CF3 		sxth	r3, ip
 3825 00c8 0493     		str	r3, [sp, #16]
 3826              	.LVL404:
 711:Drivers/ST7789V/st7789v.c **** 			f += ddF_y;
 3827              		.loc 1 711 4 is_stmt 1 view .LVU971
 711:Drivers/ST7789V/st7789v.c **** 			f += ddF_y;
 3828              		.loc 1 711 10 is_stmt 0 view .LVU972
 3829 00ca 0FFA8EF3 		sxth	r3, lr
 710:Drivers/ST7789V/st7789v.c **** 			ddF_y += 2;
 3830              		.loc 1 710 5 view .LVU973
 3831 00ce 1FFA8CF4 		uxth	r4, ip
 712:Drivers/ST7789V/st7789v.c **** 		}
 3832              		.loc 1 712 6 view .LVU974
 3833 00d2 89B2     		uxth	r1, r1
 711:Drivers/ST7789V/st7789v.c **** 			f += ddF_y;
 3834              		.loc 1 711 10 view .LVU975
 3835 00d4 0593     		str	r3, [sp, #20]
 3836              	.LVL405:
 712:Drivers/ST7789V/st7789v.c **** 		}
 3837              		.loc 1 712 4 is_stmt 1 view .LVU976
 3838              	.L232:
 714:Drivers/ST7789V/st7789v.c **** 		ddF_x += 2;
 3839              		.loc 1 714 3 view .LVU977
 715:Drivers/ST7789V/st7789v.c **** 		f += ddF_x;
 3840              		.loc 1 715 3 view .LVU978
 716:Drivers/ST7789V/st7789v.c **** 
 3841              		.loc 1 716 3 view .LVU979
 3842              		.loc 1 718 3 is_stmt 0 view .LVU980
 3843 00d6 0BEB0403 		add	r3, fp, r4
 715:Drivers/ST7789V/st7789v.c **** 		f += ddF_x;
 3844              		.loc 1 715 9 view .LVU981
 3845 00da 01EB4601 		add	r1, r1, r6, lsl #1
 3846              		.loc 1 718 3 view .LVU982
 3847 00de 9BB2     		uxth	r3, r3
ARM GAS  /var/folders/lp/x54gwt890xv47sdkqj1k04q40000gn/T//ccAXhYZq.s 			page 92


 716:Drivers/ST7789V/st7789v.c **** 
 3848              		.loc 1 716 5 view .LVU983
 3849 00e0 0131     		adds	r1, r1, #1
 3850              		.loc 1 718 3 view .LVU984
 3851 00e2 0095     		str	r5, [sp]
 716:Drivers/ST7789V/st7789v.c **** 
 3852              		.loc 1 716 5 view .LVU985
 3853 00e4 0FFA81FA 		sxth	r10, r1
 3854              	.LVL406:
 3855              		.loc 1 718 3 is_stmt 1 view .LVU986
 3856 00e8 1946     		mov	r1, r3
 3857 00ea FFF7FEFF 		bl	ST7789V_DrawLine
 3858              	.LVL407:
 719:Drivers/ST7789V/st7789v.c **** 		ST7789V_DrawLine(x0 + x, y0 - y, x0 - x, y0 - y, color);
 3859              		.loc 1 719 3 view .LVU987
 3860 00ee ABEB0403 		sub	r3, fp, r4
 3861 00f2 9BB2     		uxth	r3, r3
 3862 00f4 1946     		mov	r1, r3
 3863 00f6 3846     		mov	r0, r7
 3864 00f8 039A     		ldr	r2, [sp, #12]
 3865 00fa 0095     		str	r5, [sp]
 3866 00fc FFF7FEFF 		bl	ST7789V_DrawLine
 3867              	.LVL408:
 720:Drivers/ST7789V/st7789v.c **** 
 721:Drivers/ST7789V/st7789v.c **** 		ST7789V_DrawLine(x0 + y, y0 + x, x0 - y, y0 + x, color);
 3868              		.loc 1 721 3 view .LVU988
 3869 0100 08EB0407 		add	r7, r8, r4
 3870 0104 0BEB0603 		add	r3, fp, r6
 3871 0108 A8EB0404 		sub	r4, r8, r4
 3872 010c 9BB2     		uxth	r3, r3
 3873 010e BFB2     		uxth	r7, r7
 3874 0110 A4B2     		uxth	r4, r4
 3875 0112 1946     		mov	r1, r3
 3876 0114 2246     		mov	r2, r4
 3877 0116 3846     		mov	r0, r7
 3878 0118 0095     		str	r5, [sp]
 3879 011a FFF7FEFF 		bl	ST7789V_DrawLine
 3880              	.LVL409:
 722:Drivers/ST7789V/st7789v.c **** 		ST7789V_DrawLine(x0 + y, y0 - x, x0 - y, y0 - x, color);
 3881              		.loc 1 722 3 view .LVU989
 3882 011e ABEB0603 		sub	r3, fp, r6
 3883 0122 9BB2     		uxth	r3, r3
 3884 0124 1946     		mov	r1, r3
 3885 0126 0095     		str	r5, [sp]
 3886 0128 2246     		mov	r2, r4
 3887 012a 3846     		mov	r0, r7
 3888 012c FFF7FEFF 		bl	ST7789V_DrawLine
 3889              	.LVL410:
 708:Drivers/ST7789V/st7789v.c **** 		if (f >= 0) {
 3890              		.loc 1 708 11 view .LVU990
 3891 0130 049B     		ldr	r3, [sp, #16]
 3892 0132 4B45     		cmp	r3, r9
 3893 0134 ABDC     		bgt	.L240
 3894              	.LVL411:
 3895              	.L233:
 723:Drivers/ST7789V/st7789v.c **** 	}
 724:Drivers/ST7789V/st7789v.c **** 	ST7789V_UnSelect();
ARM GAS  /var/folders/lp/x54gwt890xv47sdkqj1k04q40000gn/T//ccAXhYZq.s 			page 93


 3896              		.loc 1 724 2 view .LVU991
 3897 0136 1648     		ldr	r0, .L241
 3898 0138 0122     		movs	r2, #1
 3899 013a 0421     		movs	r1, #4
 725:Drivers/ST7789V/st7789v.c **** }
 3900              		.loc 1 725 1 is_stmt 0 view .LVU992
 3901 013c 07B0     		add	sp, sp, #28
 3902              		.cfi_remember_state
 3903              		.cfi_def_cfa_offset 36
 3904              		@ sp needed
 3905 013e BDE8F04F 		pop	{r4, r5, r6, r7, r8, r9, r10, fp, lr}
 3906              		.cfi_restore 14
 3907              		.cfi_restore 11
 3908              		.cfi_restore 10
 3909              		.cfi_restore 9
 3910              		.cfi_restore 8
 3911              		.cfi_restore 7
 3912              		.cfi_restore 6
 3913              		.cfi_restore 5
 3914              		.cfi_restore 4
 3915              		.cfi_def_cfa_offset 0
 3916              	.LVL412:
 724:Drivers/ST7789V/st7789v.c **** }
 3917              		.loc 1 724 2 view .LVU993
 3918 0142 FFF7FEBF 		b	HAL_GPIO_WritePin
 3919              	.LVL413:
 3920              	.L239:
 3921              		.cfi_restore_state
 3922              	.LBB221:
 3923              	.LBB218:
 724:Drivers/ST7789V/st7789v.c **** }
 3924              		.loc 1 724 2 view .LVU994
 3925 0146 039A     		ldr	r2, [sp, #12]
 3926 0148 5946     		mov	r1, fp
 3927 014a 3046     		mov	r0, r6
 3928 014c FFF7FEFF 		bl	ST7789V_DrawPixel.part.0
 3929              	.LVL414:
 724:Drivers/ST7789V/st7789v.c **** }
 3930              		.loc 1 724 2 view .LVU995
 3931              	.LBE218:
 3932              	.LBE221:
 705:Drivers/ST7789V/st7789v.c **** 	ST7789V_DrawLine(x0 - r, y0, x0 + r, y0, color);
 3933              		.loc 1 705 2 is_stmt 1 view .LVU996
 3934              	.LBB222:
 3935              	.LBI222:
 298:Drivers/ST7789V/st7789v.c **** {
 3936              		.loc 1 298 6 view .LVU997
 3937              	.LBB223:
 300:Drivers/ST7789V/st7789v.c **** 		 (y < 0) || (y >= ST7789V_HEIGHT))	return;
 3938              		.loc 1 300 2 view .LVU998
 300:Drivers/ST7789V/st7789v.c **** 		 (y < 0) || (y >= ST7789V_HEIGHT))	return;
 3939              		.loc 1 300 5 is_stmt 0 view .LVU999
 3940 0150 B7F5A07F 		cmp	r7, #320
 3941 0154 8BD2     		bcs	.L228
 3942              	.LVL415:
 3943              	.L230:
 300:Drivers/ST7789V/st7789v.c **** 		 (y < 0) || (y >= ST7789V_HEIGHT))	return;
ARM GAS  /var/folders/lp/x54gwt890xv47sdkqj1k04q40000gn/T//ccAXhYZq.s 			page 94


 3944              		.loc 1 300 5 view .LVU1000
 3945 0156 039A     		ldr	r2, [sp, #12]
 3946 0158 5946     		mov	r1, fp
 3947 015a 3846     		mov	r0, r7
 3948 015c FFF7FEFF 		bl	ST7789V_DrawPixel.part.0
 3949              	.LVL416:
 3950 0160 85E7     		b	.L228
 3951              	.LVL417:
 3952              	.L238:
 300:Drivers/ST7789V/st7789v.c **** 		 (y < 0) || (y >= ST7789V_HEIGHT))	return;
 3953              		.loc 1 300 5 view .LVU1001
 3954              	.LBE223:
 3955              	.LBE222:
 3956              	.LBB225:
 3957              	.LBB212:
 3958 0162 039A     		ldr	r2, [sp, #12]
 3959 0164 3146     		mov	r1, r6
 3960 0166 4046     		mov	r0, r8
 3961 0168 FFF7FEFF 		bl	ST7789V_DrawPixel.part.0
 3962              	.LVL418:
 3963 016c 72E7     		b	.L223
 3964              	.LVL419:
 3965              	.L237:
 300:Drivers/ST7789V/st7789v.c **** 		 (y < 0) || (y >= ST7789V_HEIGHT))	return;
 3966              		.loc 1 300 5 view .LVU1002
 3967              	.LBE212:
 3968              	.LBE225:
 3969              	.LBB226:
 3970              	.LBB206:
 3971 016e 3A46     		mov	r2, r7
 3972 0170 4046     		mov	r0, r8
 3973 0172 FFF7FEFF 		bl	ST7789V_DrawPixel.part.0
 3974              	.LVL420:
 300:Drivers/ST7789V/st7789v.c **** 		 (y < 0) || (y >= ST7789V_HEIGHT))	return;
 3975              		.loc 1 300 5 view .LVU1003
 3976              	.LBE206:
 3977              	.LBE226:
 703:Drivers/ST7789V/st7789v.c **** 	ST7789V_DrawPixel(x0 + r, y0, color);
 3978              		.loc 1 703 2 is_stmt 1 view .LVU1004
 3979              	.LBB227:
 3980              	.LBI210:
 298:Drivers/ST7789V/st7789v.c **** {
 3981              		.loc 1 298 6 view .LVU1005
 3982              	.LBB213:
 300:Drivers/ST7789V/st7789v.c **** 		 (y < 0) || (y >= ST7789V_HEIGHT))	return;
 3983              		.loc 1 300 2 view .LVU1006
 301:Drivers/ST7789V/st7789v.c **** 	
 3984              		.loc 1 301 12 is_stmt 0 view .LVU1007
 3985 0176 EF2E     		cmp	r6, #239
 3986 0178 3FF66CAF 		bhi	.L223
 3987 017c F1E7     		b	.L238
 3988              	.LVL421:
 3989              	.L226:
 301:Drivers/ST7789V/st7789v.c **** 	
 3990              		.loc 1 301 12 view .LVU1008
 3991              	.LBE213:
 3992              	.LBE227:
ARM GAS  /var/folders/lp/x54gwt890xv47sdkqj1k04q40000gn/T//ccAXhYZq.s 			page 95


 705:Drivers/ST7789V/st7789v.c **** 	ST7789V_DrawLine(x0 - r, y0, x0 + r, y0, color);
 3993              		.loc 1 705 2 is_stmt 1 view .LVU1009
 3994              	.LBB228:
 298:Drivers/ST7789V/st7789v.c **** {
 3995              		.loc 1 298 6 view .LVU1010
 3996              	.LBB224:
 300:Drivers/ST7789V/st7789v.c **** 		 (y < 0) || (y >= ST7789V_HEIGHT))	return;
 3997              		.loc 1 300 2 view .LVU1011
 300:Drivers/ST7789V/st7789v.c **** 		 (y < 0) || (y >= ST7789V_HEIGHT))	return;
 3998              		.loc 1 300 5 is_stmt 0 view .LVU1012
 3999 017e B7F5A07F 		cmp	r7, #320
 4000 0182 BFF474AF 		bcs	.L228
 301:Drivers/ST7789V/st7789v.c **** 	
 4001              		.loc 1 301 12 view .LVU1013
 4002 0186 BBF1EF0F 		cmp	fp, #239
 4003 018a 3FF670AF 		bhi	.L228
 4004 018e E2E7     		b	.L230
 4005              	.L242:
 4006              		.align	2
 4007              	.L241:
 4008 0190 00000240 		.word	1073872896
 4009              	.LBE224:
 4010              	.LBE228:
 4011              		.cfi_endproc
 4012              	.LFE263:
 4014              		.section	.text.ST7789V_TearEffect,"ax",%progbits
 4015              		.align	1
 4016              		.p2align 2,,3
 4017              		.global	ST7789V_TearEffect
 4018              		.syntax unified
 4019              		.thumb
 4020              		.thumb_func
 4022              	ST7789V_TearEffect:
 4023              	.LVL422:
 4024              	.LFB264:
 726:Drivers/ST7789V/st7789v.c **** 
 727:Drivers/ST7789V/st7789v.c **** 
 728:Drivers/ST7789V/st7789v.c **** /**
 729:Drivers/ST7789V/st7789v.c ****  * @brief Open/Close tearing effect line
 730:Drivers/ST7789V/st7789v.c ****  * @param tear -> Whether to tear
 731:Drivers/ST7789V/st7789v.c ****  * @return none
 732:Drivers/ST7789V/st7789v.c ****  */
 733:Drivers/ST7789V/st7789v.c **** void ST7789V_TearEffect(uint8_t tear)
 734:Drivers/ST7789V/st7789v.c **** {
 4025              		.loc 1 734 1 is_stmt 1 view -0
 4026              		.cfi_startproc
 4027              		@ args = 0, pretend = 0, frame = 0
 4028              		@ frame_needed = 0, uses_anonymous_args = 0
 735:Drivers/ST7789V/st7789v.c **** 	ST7789V_Select();
 4029              		.loc 1 735 2 view .LVU1015
 734:Drivers/ST7789V/st7789v.c **** 	ST7789V_Select();
 4030              		.loc 1 734 1 is_stmt 0 view .LVU1016
 4031 0000 10B5     		push	{r4, lr}
 4032              		.cfi_def_cfa_offset 8
 4033              		.cfi_offset 4, -8
 4034              		.cfi_offset 14, -4
 4035              		.loc 1 735 2 view .LVU1017
ARM GAS  /var/folders/lp/x54gwt890xv47sdkqj1k04q40000gn/T//ccAXhYZq.s 			page 96


 4036 0002 0022     		movs	r2, #0
 734:Drivers/ST7789V/st7789v.c **** 	ST7789V_Select();
 4037              		.loc 1 734 1 view .LVU1018
 4038 0004 0446     		mov	r4, r0
 4039              		.loc 1 735 2 view .LVU1019
 4040 0006 0421     		movs	r1, #4
 4041 0008 0748     		ldr	r0, .L247
 4042              	.LVL423:
 4043              		.loc 1 735 2 view .LVU1020
 4044 000a FFF7FEFF 		bl	HAL_GPIO_WritePin
 4045              	.LVL424:
 736:Drivers/ST7789V/st7789v.c **** 	ST7789V_WriteCommand(tear ? 0x35 /* TEON */ : 0x34 /* TEOFF */);
 4046              		.loc 1 736 2 is_stmt 1 view .LVU1021
 4047              		.loc 1 736 2 is_stmt 0 discriminator 1 view .LVU1022
 4048 000e 002C     		cmp	r4, #0
 4049              		.loc 1 736 2 discriminator 4 view .LVU1023
 4050 0010 0CBF     		ite	eq
 4051 0012 3420     		moveq	r0, #52
 4052 0014 3520     		movne	r0, #53
 4053 0016 FFF7FEFF 		bl	ST7789V_WriteCommand
 4054              	.LVL425:
 737:Drivers/ST7789V/st7789v.c **** 	ST7789V_UnSelect();
 4055              		.loc 1 737 2 is_stmt 1 view .LVU1024
 738:Drivers/ST7789V/st7789v.c **** }
 4056              		.loc 1 738 1 is_stmt 0 view .LVU1025
 4057 001a BDE81040 		pop	{r4, lr}
 4058              		.cfi_restore 14
 4059              		.cfi_restore 4
 4060              		.cfi_def_cfa_offset 0
 4061              	.LVL426:
 737:Drivers/ST7789V/st7789v.c **** 	ST7789V_UnSelect();
 4062              		.loc 1 737 2 view .LVU1026
 4063 001e 0248     		ldr	r0, .L247
 4064 0020 0122     		movs	r2, #1
 4065 0022 0421     		movs	r1, #4
 4066 0024 FFF7FEBF 		b	HAL_GPIO_WritePin
 4067              	.LVL427:
 4068              	.L248:
 4069              		.align	2
 4070              	.L247:
