ARM GAS  /var/folders/0z/tsy30v1j4xl4_7kw94k978ww0000gn/T//ccvYDrVp.s 			page 1


   1              		.cpu cortex-m4
   2              		.arch armv7e-m
   3              		.fpu fpv4-sp-d16
   4              		.eabi_attribute 27, 1
   5              		.eabi_attribute 28, 1
   6              		.eabi_attribute 20, 1
   7              		.eabi_attribute 21, 1
   8              		.eabi_attribute 23, 3
   9              		.eabi_attribute 24, 1
  10              		.eabi_attribute 25, 1
  11              		.eabi_attribute 26, 1
  12              		.eabi_attribute 30, 2
  13              		.eabi_attribute 34, 1
  14              		.eabi_attribute 18, 4
  15              		.file	"stm32f4_discovery.c"
  16              		.text
  17              	.Ltext0:
  18              		.cfi_sections	.debug_frame
  19              		.section	.text.SPIx_Init.part.0,"ax",%progbits
  20              		.align	1
  21              		.p2align 2,,3
  22              		.syntax unified
  23              		.thumb
  24              		.thumb_func
  26              	SPIx_Init.part.0:
  27              	.LFB259:
  28              		.file 1 "Drivers/BSP/STM32F4-Discovery/stm32f4_discovery.c"
   1:Drivers/BSP/STM32F4-Discovery/stm32f4_discovery.c **** /**
   2:Drivers/BSP/STM32F4-Discovery/stm32f4_discovery.c ****   ******************************************************************************
   3:Drivers/BSP/STM32F4-Discovery/stm32f4_discovery.c ****   * @file    stm32f4_discovery.c
   4:Drivers/BSP/STM32F4-Discovery/stm32f4_discovery.c ****   * @author  MCD Application Team
   5:Drivers/BSP/STM32F4-Discovery/stm32f4_discovery.c ****   * @brief   This file provides set of firmware functions to manage Leds and
   6:Drivers/BSP/STM32F4-Discovery/stm32f4_discovery.c ****   *          push-button available on STM32F4-Discovery Kit from STMicroelectronics.
   7:Drivers/BSP/STM32F4-Discovery/stm32f4_discovery.c ****   ******************************************************************************
   8:Drivers/BSP/STM32F4-Discovery/stm32f4_discovery.c ****   * @attention
   9:Drivers/BSP/STM32F4-Discovery/stm32f4_discovery.c ****   *
  10:Drivers/BSP/STM32F4-Discovery/stm32f4_discovery.c ****   * Copyright (c) 2017 STMicroelectronics.
  11:Drivers/BSP/STM32F4-Discovery/stm32f4_discovery.c ****   * All rights reserved.
  12:Drivers/BSP/STM32F4-Discovery/stm32f4_discovery.c ****   *
  13:Drivers/BSP/STM32F4-Discovery/stm32f4_discovery.c ****   * This software is licensed under terms that can be found in the LICENSE file
  14:Drivers/BSP/STM32F4-Discovery/stm32f4_discovery.c ****   * in the root directory of this software component.
  15:Drivers/BSP/STM32F4-Discovery/stm32f4_discovery.c ****   * If no LICENSE file comes with this software, it is provided AS-IS.
  16:Drivers/BSP/STM32F4-Discovery/stm32f4_discovery.c ****   *
  17:Drivers/BSP/STM32F4-Discovery/stm32f4_discovery.c ****   ******************************************************************************
  18:Drivers/BSP/STM32F4-Discovery/stm32f4_discovery.c ****   */
  19:Drivers/BSP/STM32F4-Discovery/stm32f4_discovery.c **** /* Includes ------------------------------------------------------------------*/
  20:Drivers/BSP/STM32F4-Discovery/stm32f4_discovery.c **** #include "stm32f4_discovery.h"
  21:Drivers/BSP/STM32F4-Discovery/stm32f4_discovery.c **** 
  22:Drivers/BSP/STM32F4-Discovery/stm32f4_discovery.c **** /** @defgroup BSP BSP
  23:Drivers/BSP/STM32F4-Discovery/stm32f4_discovery.c ****   * @{
  24:Drivers/BSP/STM32F4-Discovery/stm32f4_discovery.c ****   */ 
  25:Drivers/BSP/STM32F4-Discovery/stm32f4_discovery.c **** 
  26:Drivers/BSP/STM32F4-Discovery/stm32f4_discovery.c **** /** @defgroup STM32F4_DISCOVERY STM32F4 DISCOVERY
  27:Drivers/BSP/STM32F4-Discovery/stm32f4_discovery.c ****   * @{
  28:Drivers/BSP/STM32F4-Discovery/stm32f4_discovery.c ****   */   
  29:Drivers/BSP/STM32F4-Discovery/stm32f4_discovery.c ****     
  30:Drivers/BSP/STM32F4-Discovery/stm32f4_discovery.c **** /** @defgroup STM32F4_DISCOVERY_LOW_LEVEL STM32F4 DISCOVERY LOW LEVEL
ARM GAS  /var/folders/0z/tsy30v1j4xl4_7kw94k978ww0000gn/T//ccvYDrVp.s 			page 2


  31:Drivers/BSP/STM32F4-Discovery/stm32f4_discovery.c ****   * @brief This file provides set of firmware functions to manage Leds and push-button
  32:Drivers/BSP/STM32F4-Discovery/stm32f4_discovery.c ****   *        available on STM32F4-Discovery Kit from STMicroelectronics.
  33:Drivers/BSP/STM32F4-Discovery/stm32f4_discovery.c ****   * @{
  34:Drivers/BSP/STM32F4-Discovery/stm32f4_discovery.c ****   */ 
  35:Drivers/BSP/STM32F4-Discovery/stm32f4_discovery.c **** 
  36:Drivers/BSP/STM32F4-Discovery/stm32f4_discovery.c **** /** @defgroup STM32F4_DISCOVERY_LOW_LEVEL_Private_TypesDefinitions STM32F4 DISCOVERY LOW LEVEL Priv
  37:Drivers/BSP/STM32F4-Discovery/stm32f4_discovery.c ****   * @{
  38:Drivers/BSP/STM32F4-Discovery/stm32f4_discovery.c ****   */ 
  39:Drivers/BSP/STM32F4-Discovery/stm32f4_discovery.c **** /**
  40:Drivers/BSP/STM32F4-Discovery/stm32f4_discovery.c ****   * @}
  41:Drivers/BSP/STM32F4-Discovery/stm32f4_discovery.c ****   */ 
  42:Drivers/BSP/STM32F4-Discovery/stm32f4_discovery.c **** 
  43:Drivers/BSP/STM32F4-Discovery/stm32f4_discovery.c **** /** @defgroup STM32F4_DISCOVERY_LOW_LEVEL_Private_Defines STM32F4 DISCOVERY LOW LEVEL Private Defin
  44:Drivers/BSP/STM32F4-Discovery/stm32f4_discovery.c ****   * @{
  45:Drivers/BSP/STM32F4-Discovery/stm32f4_discovery.c ****   */
  46:Drivers/BSP/STM32F4-Discovery/stm32f4_discovery.c ****   
  47:Drivers/BSP/STM32F4-Discovery/stm32f4_discovery.c ****   /**
  48:Drivers/BSP/STM32F4-Discovery/stm32f4_discovery.c ****   * @brief STM32F4 DISCO BSP Driver version number V2.1.4
  49:Drivers/BSP/STM32F4-Discovery/stm32f4_discovery.c ****   */
  50:Drivers/BSP/STM32F4-Discovery/stm32f4_discovery.c **** #define __STM32F4_DISCO_BSP_VERSION_MAIN   (0x02) /*!< [31:24] main version */
  51:Drivers/BSP/STM32F4-Discovery/stm32f4_discovery.c **** #define __STM32F4_DISCO_BSP_VERSION_SUB1   (0x01) /*!< [23:16] sub1 version */
  52:Drivers/BSP/STM32F4-Discovery/stm32f4_discovery.c **** #define __STM32F4_DISCO_BSP_VERSION_SUB2   (0x04) /*!< [15:8]  sub2 version */
  53:Drivers/BSP/STM32F4-Discovery/stm32f4_discovery.c **** #define __STM32F4_DISCO_BSP_VERSION_RC     (0x00) /*!< [7:0]  release candidate */ 
  54:Drivers/BSP/STM32F4-Discovery/stm32f4_discovery.c **** #define __STM32F4_DISCO_BSP_VERSION         ((__STM32F4_DISCO_BSP_VERSION_MAIN << 24)\
  55:Drivers/BSP/STM32F4-Discovery/stm32f4_discovery.c ****                                              |(__STM32F4_DISCO_BSP_VERSION_SUB1 << 16)\
  56:Drivers/BSP/STM32F4-Discovery/stm32f4_discovery.c ****                                              |(__STM32F4_DISCO_BSP_VERSION_SUB2 << 8 )\
  57:Drivers/BSP/STM32F4-Discovery/stm32f4_discovery.c ****                                              |(__STM32F4_DISCO_BSP_VERSION_RC)) 
  58:Drivers/BSP/STM32F4-Discovery/stm32f4_discovery.c **** /**
  59:Drivers/BSP/STM32F4-Discovery/stm32f4_discovery.c ****   * @}
  60:Drivers/BSP/STM32F4-Discovery/stm32f4_discovery.c ****   */ 
  61:Drivers/BSP/STM32F4-Discovery/stm32f4_discovery.c **** 
  62:Drivers/BSP/STM32F4-Discovery/stm32f4_discovery.c **** 
  63:Drivers/BSP/STM32F4-Discovery/stm32f4_discovery.c **** /** @defgroup STM32F4_DISCOVERY_LOW_LEVEL_Private_Macros STM32F4 DISCOVERY LOW LEVEL Private Macros
  64:Drivers/BSP/STM32F4-Discovery/stm32f4_discovery.c ****   * @{
  65:Drivers/BSP/STM32F4-Discovery/stm32f4_discovery.c ****   */ 
  66:Drivers/BSP/STM32F4-Discovery/stm32f4_discovery.c **** /**
  67:Drivers/BSP/STM32F4-Discovery/stm32f4_discovery.c ****   * @}
  68:Drivers/BSP/STM32F4-Discovery/stm32f4_discovery.c ****   */ 
  69:Drivers/BSP/STM32F4-Discovery/stm32f4_discovery.c **** 
  70:Drivers/BSP/STM32F4-Discovery/stm32f4_discovery.c **** /** @defgroup STM32F4_DISCOVERY_LOW_LEVEL_Private_Variables STM32F4 DISCOVERY LOW LEVEL Private Var
  71:Drivers/BSP/STM32F4-Discovery/stm32f4_discovery.c ****   * @{
  72:Drivers/BSP/STM32F4-Discovery/stm32f4_discovery.c ****   */ 
  73:Drivers/BSP/STM32F4-Discovery/stm32f4_discovery.c **** GPIO_TypeDef* GPIO_PORT[LEDn] = {LED4_GPIO_PORT, 
  74:Drivers/BSP/STM32F4-Discovery/stm32f4_discovery.c ****                                  LED3_GPIO_PORT, 
  75:Drivers/BSP/STM32F4-Discovery/stm32f4_discovery.c ****                                  LED5_GPIO_PORT,
  76:Drivers/BSP/STM32F4-Discovery/stm32f4_discovery.c ****                                  LED6_GPIO_PORT};
  77:Drivers/BSP/STM32F4-Discovery/stm32f4_discovery.c **** const uint16_t GPIO_PIN[LEDn] = {LED4_PIN, 
  78:Drivers/BSP/STM32F4-Discovery/stm32f4_discovery.c ****                                  LED3_PIN, 
  79:Drivers/BSP/STM32F4-Discovery/stm32f4_discovery.c ****                                  LED5_PIN,
  80:Drivers/BSP/STM32F4-Discovery/stm32f4_discovery.c ****                                  LED6_PIN};
  81:Drivers/BSP/STM32F4-Discovery/stm32f4_discovery.c **** 
  82:Drivers/BSP/STM32F4-Discovery/stm32f4_discovery.c **** GPIO_TypeDef* BUTTON_PORT[BUTTONn] = {KEY_BUTTON_GPIO_PORT}; 
  83:Drivers/BSP/STM32F4-Discovery/stm32f4_discovery.c **** const uint16_t BUTTON_PIN[BUTTONn] = {KEY_BUTTON_PIN}; 
  84:Drivers/BSP/STM32F4-Discovery/stm32f4_discovery.c **** const uint8_t BUTTON_IRQn[BUTTONn] = {KEY_BUTTON_EXTI_IRQn};
  85:Drivers/BSP/STM32F4-Discovery/stm32f4_discovery.c **** 
  86:Drivers/BSP/STM32F4-Discovery/stm32f4_discovery.c **** uint32_t I2cxTimeout = I2Cx_TIMEOUT_MAX;    /*<! Value of Timeout when I2C communication fails */ 
  87:Drivers/BSP/STM32F4-Discovery/stm32f4_discovery.c **** uint32_t SpixTimeout = SPIx_TIMEOUT_MAX;    /*<! Value of Timeout when SPI communication fails */
ARM GAS  /var/folders/0z/tsy30v1j4xl4_7kw94k978ww0000gn/T//ccvYDrVp.s 			page 3


  88:Drivers/BSP/STM32F4-Discovery/stm32f4_discovery.c **** 
  89:Drivers/BSP/STM32F4-Discovery/stm32f4_discovery.c **** static SPI_HandleTypeDef    SpiHandle;
  90:Drivers/BSP/STM32F4-Discovery/stm32f4_discovery.c **** static I2C_HandleTypeDef    I2cHandle;
  91:Drivers/BSP/STM32F4-Discovery/stm32f4_discovery.c **** /**
  92:Drivers/BSP/STM32F4-Discovery/stm32f4_discovery.c ****   * @}
  93:Drivers/BSP/STM32F4-Discovery/stm32f4_discovery.c ****   */ 
  94:Drivers/BSP/STM32F4-Discovery/stm32f4_discovery.c **** 
  95:Drivers/BSP/STM32F4-Discovery/stm32f4_discovery.c **** /** @defgroup STM32F4_DISCOVERY_LOW_LEVEL_Private_FunctionPrototypes STM32F4 DISCOVERY LOW LEVEL Pr
  96:Drivers/BSP/STM32F4-Discovery/stm32f4_discovery.c ****   * @{
  97:Drivers/BSP/STM32F4-Discovery/stm32f4_discovery.c ****   */ 
  98:Drivers/BSP/STM32F4-Discovery/stm32f4_discovery.c **** /**
  99:Drivers/BSP/STM32F4-Discovery/stm32f4_discovery.c ****   * @}
 100:Drivers/BSP/STM32F4-Discovery/stm32f4_discovery.c ****   */ 
 101:Drivers/BSP/STM32F4-Discovery/stm32f4_discovery.c **** 
 102:Drivers/BSP/STM32F4-Discovery/stm32f4_discovery.c **** /** @defgroup STM32F4_DISCOVERY_LOW_LEVEL_Private_Functions STM32F4 DISCOVERY LOW LEVEL Private Fun
 103:Drivers/BSP/STM32F4-Discovery/stm32f4_discovery.c ****   * @{
 104:Drivers/BSP/STM32F4-Discovery/stm32f4_discovery.c ****   */ 
 105:Drivers/BSP/STM32F4-Discovery/stm32f4_discovery.c **** static void     I2Cx_Init(void);
 106:Drivers/BSP/STM32F4-Discovery/stm32f4_discovery.c **** static void     I2Cx_WriteData(uint8_t Addr, uint8_t Reg, uint8_t Value);
 107:Drivers/BSP/STM32F4-Discovery/stm32f4_discovery.c **** static uint8_t  I2Cx_ReadData(uint8_t Addr, uint8_t Reg);
 108:Drivers/BSP/STM32F4-Discovery/stm32f4_discovery.c **** static void     I2Cx_MspInit(void);
 109:Drivers/BSP/STM32F4-Discovery/stm32f4_discovery.c **** static void     I2Cx_Error(uint8_t Addr);
 110:Drivers/BSP/STM32F4-Discovery/stm32f4_discovery.c **** 
 111:Drivers/BSP/STM32F4-Discovery/stm32f4_discovery.c **** static void     SPIx_Init(void);
 112:Drivers/BSP/STM32F4-Discovery/stm32f4_discovery.c **** static void     SPIx_MspInit(void);
 113:Drivers/BSP/STM32F4-Discovery/stm32f4_discovery.c **** static uint8_t  SPIx_WriteRead(uint8_t Byte);
 114:Drivers/BSP/STM32F4-Discovery/stm32f4_discovery.c **** static  void    SPIx_Error(void);
 115:Drivers/BSP/STM32F4-Discovery/stm32f4_discovery.c **** 
 116:Drivers/BSP/STM32F4-Discovery/stm32f4_discovery.c **** /* Link functions for Accelerometer peripheral */
 117:Drivers/BSP/STM32F4-Discovery/stm32f4_discovery.c **** void            ACCELERO_IO_Init(void);
 118:Drivers/BSP/STM32F4-Discovery/stm32f4_discovery.c **** void            ACCELERO_IO_ITConfig(void);
 119:Drivers/BSP/STM32F4-Discovery/stm32f4_discovery.c **** void            ACCELERO_IO_Write(uint8_t *pBuffer, uint8_t WriteAddr, uint16_t NumByteToWrite);
 120:Drivers/BSP/STM32F4-Discovery/stm32f4_discovery.c **** void            ACCELERO_IO_Read(uint8_t *pBuffer, uint8_t ReadAddr, uint16_t NumByteToRead);
 121:Drivers/BSP/STM32F4-Discovery/stm32f4_discovery.c **** 
 122:Drivers/BSP/STM32F4-Discovery/stm32f4_discovery.c **** /* Link functions for Audio peripheral */
 123:Drivers/BSP/STM32F4-Discovery/stm32f4_discovery.c **** void            AUDIO_IO_Init(void);
 124:Drivers/BSP/STM32F4-Discovery/stm32f4_discovery.c **** void            AUDIO_IO_DeInit(void);
 125:Drivers/BSP/STM32F4-Discovery/stm32f4_discovery.c **** void            AUDIO_IO_Write(uint8_t Addr, uint8_t Reg, uint8_t Value);
 126:Drivers/BSP/STM32F4-Discovery/stm32f4_discovery.c **** uint8_t         AUDIO_IO_Read(uint8_t Addr, uint8_t Reg);
 127:Drivers/BSP/STM32F4-Discovery/stm32f4_discovery.c **** /**
 128:Drivers/BSP/STM32F4-Discovery/stm32f4_discovery.c ****   * @}
 129:Drivers/BSP/STM32F4-Discovery/stm32f4_discovery.c ****   */
 130:Drivers/BSP/STM32F4-Discovery/stm32f4_discovery.c **** 
 131:Drivers/BSP/STM32F4-Discovery/stm32f4_discovery.c **** /** @defgroup STM32F4_DISCOVERY_LOW_LEVEL_LED_Functions STM32F4 DISCOVERY LOW LEVEL LED Functions
 132:Drivers/BSP/STM32F4-Discovery/stm32f4_discovery.c ****   * @{
 133:Drivers/BSP/STM32F4-Discovery/stm32f4_discovery.c ****   */ 
 134:Drivers/BSP/STM32F4-Discovery/stm32f4_discovery.c **** 
 135:Drivers/BSP/STM32F4-Discovery/stm32f4_discovery.c **** /**
 136:Drivers/BSP/STM32F4-Discovery/stm32f4_discovery.c ****   * @brief  This method returns the STM32F4 DISCO BSP Driver revision
 137:Drivers/BSP/STM32F4-Discovery/stm32f4_discovery.c ****   * @retval version : 0xXYZR (8bits for each decimal, R for RC)
 138:Drivers/BSP/STM32F4-Discovery/stm32f4_discovery.c ****   */
 139:Drivers/BSP/STM32F4-Discovery/stm32f4_discovery.c **** uint32_t BSP_GetVersion(void)
 140:Drivers/BSP/STM32F4-Discovery/stm32f4_discovery.c **** {
 141:Drivers/BSP/STM32F4-Discovery/stm32f4_discovery.c ****   return __STM32F4_DISCO_BSP_VERSION;
 142:Drivers/BSP/STM32F4-Discovery/stm32f4_discovery.c **** }
 143:Drivers/BSP/STM32F4-Discovery/stm32f4_discovery.c **** 
 144:Drivers/BSP/STM32F4-Discovery/stm32f4_discovery.c **** /**
ARM GAS  /var/folders/0z/tsy30v1j4xl4_7kw94k978ww0000gn/T//ccvYDrVp.s 			page 4


 145:Drivers/BSP/STM32F4-Discovery/stm32f4_discovery.c ****   * @brief  Configures LED GPIO.
 146:Drivers/BSP/STM32F4-Discovery/stm32f4_discovery.c ****   * @param  Led: Specifies the Led to be configured. 
 147:Drivers/BSP/STM32F4-Discovery/stm32f4_discovery.c ****   *   This parameter can be one of following parameters:
 148:Drivers/BSP/STM32F4-Discovery/stm32f4_discovery.c ****   *     @arg LED4
 149:Drivers/BSP/STM32F4-Discovery/stm32f4_discovery.c ****   *     @arg LED3
 150:Drivers/BSP/STM32F4-Discovery/stm32f4_discovery.c ****   *     @arg LED5
 151:Drivers/BSP/STM32F4-Discovery/stm32f4_discovery.c ****   *     @arg LED6
 152:Drivers/BSP/STM32F4-Discovery/stm32f4_discovery.c ****   */
 153:Drivers/BSP/STM32F4-Discovery/stm32f4_discovery.c **** void BSP_LED_Init(Led_TypeDef Led)
 154:Drivers/BSP/STM32F4-Discovery/stm32f4_discovery.c **** {
 155:Drivers/BSP/STM32F4-Discovery/stm32f4_discovery.c ****   GPIO_InitTypeDef  GPIO_InitStruct;
 156:Drivers/BSP/STM32F4-Discovery/stm32f4_discovery.c ****   
 157:Drivers/BSP/STM32F4-Discovery/stm32f4_discovery.c ****   /* Enable the GPIO_LED Clock */
 158:Drivers/BSP/STM32F4-Discovery/stm32f4_discovery.c ****   LEDx_GPIO_CLK_ENABLE(Led);
 159:Drivers/BSP/STM32F4-Discovery/stm32f4_discovery.c **** 
 160:Drivers/BSP/STM32F4-Discovery/stm32f4_discovery.c ****   /* Configure the GPIO_LED pin */
 161:Drivers/BSP/STM32F4-Discovery/stm32f4_discovery.c ****   GPIO_InitStruct.Pin = GPIO_PIN[Led];
 162:Drivers/BSP/STM32F4-Discovery/stm32f4_discovery.c ****   GPIO_InitStruct.Mode = GPIO_MODE_OUTPUT_PP;
 163:Drivers/BSP/STM32F4-Discovery/stm32f4_discovery.c ****   GPIO_InitStruct.Pull = GPIO_PULLUP;
 164:Drivers/BSP/STM32F4-Discovery/stm32f4_discovery.c ****   GPIO_InitStruct.Speed = GPIO_SPEED_FAST;
 165:Drivers/BSP/STM32F4-Discovery/stm32f4_discovery.c ****   
 166:Drivers/BSP/STM32F4-Discovery/stm32f4_discovery.c ****   HAL_GPIO_Init(GPIO_PORT[Led], &GPIO_InitStruct);
 167:Drivers/BSP/STM32F4-Discovery/stm32f4_discovery.c ****   
 168:Drivers/BSP/STM32F4-Discovery/stm32f4_discovery.c ****   HAL_GPIO_WritePin(GPIO_PORT[Led], GPIO_PIN[Led], GPIO_PIN_RESET); 
 169:Drivers/BSP/STM32F4-Discovery/stm32f4_discovery.c **** }
 170:Drivers/BSP/STM32F4-Discovery/stm32f4_discovery.c **** 
 171:Drivers/BSP/STM32F4-Discovery/stm32f4_discovery.c **** /**
 172:Drivers/BSP/STM32F4-Discovery/stm32f4_discovery.c ****   * @brief  Turns selected LED On.
 173:Drivers/BSP/STM32F4-Discovery/stm32f4_discovery.c ****   * @param  Led: Specifies the Led to be set on. 
 174:Drivers/BSP/STM32F4-Discovery/stm32f4_discovery.c ****   *   This parameter can be one of following parameters:
 175:Drivers/BSP/STM32F4-Discovery/stm32f4_discovery.c ****   *     @arg LED4
 176:Drivers/BSP/STM32F4-Discovery/stm32f4_discovery.c ****   *     @arg LED3
 177:Drivers/BSP/STM32F4-Discovery/stm32f4_discovery.c ****   *     @arg LED5
 178:Drivers/BSP/STM32F4-Discovery/stm32f4_discovery.c ****   *     @arg LED6  
 179:Drivers/BSP/STM32F4-Discovery/stm32f4_discovery.c ****   */
 180:Drivers/BSP/STM32F4-Discovery/stm32f4_discovery.c **** void BSP_LED_On(Led_TypeDef Led)
 181:Drivers/BSP/STM32F4-Discovery/stm32f4_discovery.c **** {
 182:Drivers/BSP/STM32F4-Discovery/stm32f4_discovery.c ****   HAL_GPIO_WritePin(GPIO_PORT[Led], GPIO_PIN[Led], GPIO_PIN_SET); 
 183:Drivers/BSP/STM32F4-Discovery/stm32f4_discovery.c **** }
 184:Drivers/BSP/STM32F4-Discovery/stm32f4_discovery.c **** 
 185:Drivers/BSP/STM32F4-Discovery/stm32f4_discovery.c **** /**
 186:Drivers/BSP/STM32F4-Discovery/stm32f4_discovery.c ****   * @brief  Turns selected LED Off.
 187:Drivers/BSP/STM32F4-Discovery/stm32f4_discovery.c ****   * @param  Led: Specifies the Led to be set off. 
 188:Drivers/BSP/STM32F4-Discovery/stm32f4_discovery.c ****   *   This parameter can be one of following parameters:
 189:Drivers/BSP/STM32F4-Discovery/stm32f4_discovery.c ****   *     @arg LED4
 190:Drivers/BSP/STM32F4-Discovery/stm32f4_discovery.c ****   *     @arg LED3
 191:Drivers/BSP/STM32F4-Discovery/stm32f4_discovery.c ****   *     @arg LED5
 192:Drivers/BSP/STM32F4-Discovery/stm32f4_discovery.c ****   *     @arg LED6 
 193:Drivers/BSP/STM32F4-Discovery/stm32f4_discovery.c ****   */
 194:Drivers/BSP/STM32F4-Discovery/stm32f4_discovery.c **** void BSP_LED_Off(Led_TypeDef Led)
 195:Drivers/BSP/STM32F4-Discovery/stm32f4_discovery.c **** {
 196:Drivers/BSP/STM32F4-Discovery/stm32f4_discovery.c ****   HAL_GPIO_WritePin(GPIO_PORT[Led], GPIO_PIN[Led], GPIO_PIN_RESET); 
 197:Drivers/BSP/STM32F4-Discovery/stm32f4_discovery.c **** }
 198:Drivers/BSP/STM32F4-Discovery/stm32f4_discovery.c **** 
 199:Drivers/BSP/STM32F4-Discovery/stm32f4_discovery.c **** /**
 200:Drivers/BSP/STM32F4-Discovery/stm32f4_discovery.c ****   * @brief  Toggles the selected LED.
 201:Drivers/BSP/STM32F4-Discovery/stm32f4_discovery.c ****   * @param  Led: Specifies the Led to be toggled. 
ARM GAS  /var/folders/0z/tsy30v1j4xl4_7kw94k978ww0000gn/T//ccvYDrVp.s 			page 5


 202:Drivers/BSP/STM32F4-Discovery/stm32f4_discovery.c ****   *   This parameter can be one of following parameters:
 203:Drivers/BSP/STM32F4-Discovery/stm32f4_discovery.c ****   *     @arg LED4
 204:Drivers/BSP/STM32F4-Discovery/stm32f4_discovery.c ****   *     @arg LED3
 205:Drivers/BSP/STM32F4-Discovery/stm32f4_discovery.c ****   *     @arg LED5
 206:Drivers/BSP/STM32F4-Discovery/stm32f4_discovery.c ****   *     @arg LED6  
 207:Drivers/BSP/STM32F4-Discovery/stm32f4_discovery.c ****   */
 208:Drivers/BSP/STM32F4-Discovery/stm32f4_discovery.c **** void BSP_LED_Toggle(Led_TypeDef Led)
 209:Drivers/BSP/STM32F4-Discovery/stm32f4_discovery.c **** {
 210:Drivers/BSP/STM32F4-Discovery/stm32f4_discovery.c ****   HAL_GPIO_TogglePin(GPIO_PORT[Led], GPIO_PIN[Led]);
 211:Drivers/BSP/STM32F4-Discovery/stm32f4_discovery.c **** }
 212:Drivers/BSP/STM32F4-Discovery/stm32f4_discovery.c **** 
 213:Drivers/BSP/STM32F4-Discovery/stm32f4_discovery.c **** /**
 214:Drivers/BSP/STM32F4-Discovery/stm32f4_discovery.c ****   * @}
 215:Drivers/BSP/STM32F4-Discovery/stm32f4_discovery.c ****   */ 
 216:Drivers/BSP/STM32F4-Discovery/stm32f4_discovery.c **** 
 217:Drivers/BSP/STM32F4-Discovery/stm32f4_discovery.c **** /** @defgroup STM32F4_DISCOVERY_LOW_LEVEL_BUTTON_Functions STM32F4 DISCOVERY LOW LEVEL BUTTON Funct
 218:Drivers/BSP/STM32F4-Discovery/stm32f4_discovery.c ****   * @{
 219:Drivers/BSP/STM32F4-Discovery/stm32f4_discovery.c ****   */ 
 220:Drivers/BSP/STM32F4-Discovery/stm32f4_discovery.c **** 
 221:Drivers/BSP/STM32F4-Discovery/stm32f4_discovery.c **** /**
 222:Drivers/BSP/STM32F4-Discovery/stm32f4_discovery.c ****   * @brief  Configures Button GPIO and EXTI Line.
 223:Drivers/BSP/STM32F4-Discovery/stm32f4_discovery.c ****   * @param  Button: Specifies the Button to be configured.
 224:Drivers/BSP/STM32F4-Discovery/stm32f4_discovery.c ****   *   This parameter should be: BUTTON_KEY
 225:Drivers/BSP/STM32F4-Discovery/stm32f4_discovery.c ****   * @param  Mode: Specifies Button mode.
 226:Drivers/BSP/STM32F4-Discovery/stm32f4_discovery.c ****   *   This parameter can be one of following parameters:   
 227:Drivers/BSP/STM32F4-Discovery/stm32f4_discovery.c ****   *     @arg BUTTON_MODE_GPIO: Button will be used as simple IO 
 228:Drivers/BSP/STM32F4-Discovery/stm32f4_discovery.c ****   *     @arg BUTTON_MODE_EXTI: Button will be connected to EXTI line with interrupt
 229:Drivers/BSP/STM32F4-Discovery/stm32f4_discovery.c ****   *                            generation capability  
 230:Drivers/BSP/STM32F4-Discovery/stm32f4_discovery.c ****   */
 231:Drivers/BSP/STM32F4-Discovery/stm32f4_discovery.c **** void BSP_PB_Init(Button_TypeDef Button, ButtonMode_TypeDef Mode)
 232:Drivers/BSP/STM32F4-Discovery/stm32f4_discovery.c **** {
 233:Drivers/BSP/STM32F4-Discovery/stm32f4_discovery.c ****   GPIO_InitTypeDef GPIO_InitStruct;
 234:Drivers/BSP/STM32F4-Discovery/stm32f4_discovery.c ****   
 235:Drivers/BSP/STM32F4-Discovery/stm32f4_discovery.c ****   /* Enable the BUTTON Clock */
 236:Drivers/BSP/STM32F4-Discovery/stm32f4_discovery.c ****   BUTTONx_GPIO_CLK_ENABLE(Button);
 237:Drivers/BSP/STM32F4-Discovery/stm32f4_discovery.c ****   
 238:Drivers/BSP/STM32F4-Discovery/stm32f4_discovery.c ****   if (Mode == BUTTON_MODE_GPIO)
 239:Drivers/BSP/STM32F4-Discovery/stm32f4_discovery.c ****   {
 240:Drivers/BSP/STM32F4-Discovery/stm32f4_discovery.c ****     /* Configure Button pin as input */
 241:Drivers/BSP/STM32F4-Discovery/stm32f4_discovery.c ****     GPIO_InitStruct.Pin = BUTTON_PIN[Button];
 242:Drivers/BSP/STM32F4-Discovery/stm32f4_discovery.c ****     GPIO_InitStruct.Mode = GPIO_MODE_INPUT;
 243:Drivers/BSP/STM32F4-Discovery/stm32f4_discovery.c ****     GPIO_InitStruct.Pull = GPIO_NOPULL;
 244:Drivers/BSP/STM32F4-Discovery/stm32f4_discovery.c ****     GPIO_InitStruct.Speed = GPIO_SPEED_FAST;
 245:Drivers/BSP/STM32F4-Discovery/stm32f4_discovery.c ****     
 246:Drivers/BSP/STM32F4-Discovery/stm32f4_discovery.c ****     HAL_GPIO_Init(BUTTON_PORT[Button], &GPIO_InitStruct);
 247:Drivers/BSP/STM32F4-Discovery/stm32f4_discovery.c ****   }
 248:Drivers/BSP/STM32F4-Discovery/stm32f4_discovery.c ****   
 249:Drivers/BSP/STM32F4-Discovery/stm32f4_discovery.c ****   if (Mode == BUTTON_MODE_EXTI)
 250:Drivers/BSP/STM32F4-Discovery/stm32f4_discovery.c ****   {
 251:Drivers/BSP/STM32F4-Discovery/stm32f4_discovery.c ****     /* Configure Button pin as input with External interrupt */
 252:Drivers/BSP/STM32F4-Discovery/stm32f4_discovery.c ****     GPIO_InitStruct.Pin = BUTTON_PIN[Button];
 253:Drivers/BSP/STM32F4-Discovery/stm32f4_discovery.c ****     GPIO_InitStruct.Pull = GPIO_NOPULL;
 254:Drivers/BSP/STM32F4-Discovery/stm32f4_discovery.c ****     GPIO_InitStruct.Speed = GPIO_SPEED_FAST;
 255:Drivers/BSP/STM32F4-Discovery/stm32f4_discovery.c ****     GPIO_InitStruct.Mode = GPIO_MODE_IT_RISING; 
 256:Drivers/BSP/STM32F4-Discovery/stm32f4_discovery.c ****     HAL_GPIO_Init(BUTTON_PORT[Button], &GPIO_InitStruct);
 257:Drivers/BSP/STM32F4-Discovery/stm32f4_discovery.c ****     
 258:Drivers/BSP/STM32F4-Discovery/stm32f4_discovery.c ****     /* Enable and set Button EXTI Interrupt to the lowest priority */
ARM GAS  /var/folders/0z/tsy30v1j4xl4_7kw94k978ww0000gn/T//ccvYDrVp.s 			page 6


 259:Drivers/BSP/STM32F4-Discovery/stm32f4_discovery.c ****     HAL_NVIC_SetPriority((IRQn_Type)(BUTTON_IRQn[Button]), 0x0F, 0);
 260:Drivers/BSP/STM32F4-Discovery/stm32f4_discovery.c ****     HAL_NVIC_EnableIRQ((IRQn_Type)(BUTTON_IRQn[Button]));
 261:Drivers/BSP/STM32F4-Discovery/stm32f4_discovery.c ****   }
 262:Drivers/BSP/STM32F4-Discovery/stm32f4_discovery.c **** }
 263:Drivers/BSP/STM32F4-Discovery/stm32f4_discovery.c **** 
 264:Drivers/BSP/STM32F4-Discovery/stm32f4_discovery.c **** /**
 265:Drivers/BSP/STM32F4-Discovery/stm32f4_discovery.c ****   * @brief  Returns the selected Button state.
 266:Drivers/BSP/STM32F4-Discovery/stm32f4_discovery.c ****   * @param  Button: Specifies the Button to be checked.
 267:Drivers/BSP/STM32F4-Discovery/stm32f4_discovery.c ****   *   This parameter should be: BUTTON_KEY  
 268:Drivers/BSP/STM32F4-Discovery/stm32f4_discovery.c ****   * @retval The Button GPIO pin value.
 269:Drivers/BSP/STM32F4-Discovery/stm32f4_discovery.c ****   */
 270:Drivers/BSP/STM32F4-Discovery/stm32f4_discovery.c **** uint32_t BSP_PB_GetState(Button_TypeDef Button)
 271:Drivers/BSP/STM32F4-Discovery/stm32f4_discovery.c **** {
 272:Drivers/BSP/STM32F4-Discovery/stm32f4_discovery.c ****   return HAL_GPIO_ReadPin(BUTTON_PORT[Button], BUTTON_PIN[Button]);
 273:Drivers/BSP/STM32F4-Discovery/stm32f4_discovery.c **** }
 274:Drivers/BSP/STM32F4-Discovery/stm32f4_discovery.c **** 
 275:Drivers/BSP/STM32F4-Discovery/stm32f4_discovery.c **** /**
 276:Drivers/BSP/STM32F4-Discovery/stm32f4_discovery.c ****   * @}
 277:Drivers/BSP/STM32F4-Discovery/stm32f4_discovery.c ****   */ 
 278:Drivers/BSP/STM32F4-Discovery/stm32f4_discovery.c **** 
 279:Drivers/BSP/STM32F4-Discovery/stm32f4_discovery.c **** /** @defgroup STM32F4_DISCOVERY_LOW_LEVEL_BUS_Functions STM32F4 DISCOVERY LOW LEVEL BUS Functions
 280:Drivers/BSP/STM32F4-Discovery/stm32f4_discovery.c ****   * @{
 281:Drivers/BSP/STM32F4-Discovery/stm32f4_discovery.c ****   */ 
 282:Drivers/BSP/STM32F4-Discovery/stm32f4_discovery.c **** 
 283:Drivers/BSP/STM32F4-Discovery/stm32f4_discovery.c **** /*******************************************************************************
 284:Drivers/BSP/STM32F4-Discovery/stm32f4_discovery.c ****                             BUS OPERATIONS
 285:Drivers/BSP/STM32F4-Discovery/stm32f4_discovery.c **** *******************************************************************************/
 286:Drivers/BSP/STM32F4-Discovery/stm32f4_discovery.c **** 
 287:Drivers/BSP/STM32F4-Discovery/stm32f4_discovery.c **** /******************************* SPI Routines *********************************/
 288:Drivers/BSP/STM32F4-Discovery/stm32f4_discovery.c **** 
 289:Drivers/BSP/STM32F4-Discovery/stm32f4_discovery.c **** /**
 290:Drivers/BSP/STM32F4-Discovery/stm32f4_discovery.c ****   * @brief  SPIx Bus initialization
 291:Drivers/BSP/STM32F4-Discovery/stm32f4_discovery.c ****   */
 292:Drivers/BSP/STM32F4-Discovery/stm32f4_discovery.c **** static void SPIx_Init(void)
  29              		.loc 1 292 13 view -0
  30              		.cfi_startproc
  31              		@ args = 0, pretend = 0, frame = 32
  32              		@ frame_needed = 0, uses_anonymous_args = 0
 293:Drivers/BSP/STM32F4-Discovery/stm32f4_discovery.c **** {
 294:Drivers/BSP/STM32F4-Discovery/stm32f4_discovery.c ****   if(HAL_SPI_GetState(&SpiHandle) == HAL_SPI_STATE_RESET)
 295:Drivers/BSP/STM32F4-Discovery/stm32f4_discovery.c ****   {
 296:Drivers/BSP/STM32F4-Discovery/stm32f4_discovery.c ****     /* SPI configuration -----------------------------------------------------*/
 297:Drivers/BSP/STM32F4-Discovery/stm32f4_discovery.c ****     SpiHandle.Instance = DISCOVERY_SPIx;
  33              		.loc 1 297 5 view .LVU1
 292:Drivers/BSP/STM32F4-Discovery/stm32f4_discovery.c **** {
  34              		.loc 1 292 13 is_stmt 0 view .LVU2
  35 0000 30B5     		push	{r4, r5, lr}
  36              		.cfi_def_cfa_offset 12
  37              		.cfi_offset 4, -12
  38              		.cfi_offset 5, -8
  39              		.cfi_offset 14, -4
  40 0002 89B0     		sub	sp, sp, #36
  41              		.cfi_def_cfa_offset 48
  42              		.loc 1 297 24 view .LVU3
  43 0004 1E4C     		ldr	r4, .L4
  44              	.LBB14:
  45              	.LBB15:
ARM GAS  /var/folders/0z/tsy30v1j4xl4_7kw94k978ww0000gn/T//ccvYDrVp.s 			page 7


  46              	.LBB16:
 298:Drivers/BSP/STM32F4-Discovery/stm32f4_discovery.c ****     SpiHandle.Init.BaudRatePrescaler = SPI_BAUDRATEPRESCALER_16;
 299:Drivers/BSP/STM32F4-Discovery/stm32f4_discovery.c ****     SpiHandle.Init.Direction = SPI_DIRECTION_2LINES;
 300:Drivers/BSP/STM32F4-Discovery/stm32f4_discovery.c ****     SpiHandle.Init.CLKPhase = SPI_PHASE_1EDGE;
 301:Drivers/BSP/STM32F4-Discovery/stm32f4_discovery.c ****     SpiHandle.Init.CLKPolarity = SPI_POLARITY_LOW;
 302:Drivers/BSP/STM32F4-Discovery/stm32f4_discovery.c ****     SpiHandle.Init.CRCCalculation = SPI_CRCCALCULATION_DISABLED;
 303:Drivers/BSP/STM32F4-Discovery/stm32f4_discovery.c ****     SpiHandle.Init.CRCPolynomial = 7;
 304:Drivers/BSP/STM32F4-Discovery/stm32f4_discovery.c ****     SpiHandle.Init.DataSize = SPI_DATASIZE_8BIT;
 305:Drivers/BSP/STM32F4-Discovery/stm32f4_discovery.c ****     SpiHandle.Init.FirstBit = SPI_FIRSTBIT_MSB;
 306:Drivers/BSP/STM32F4-Discovery/stm32f4_discovery.c ****     SpiHandle.Init.NSS = SPI_NSS_SOFT;
 307:Drivers/BSP/STM32F4-Discovery/stm32f4_discovery.c ****     SpiHandle.Init.TIMode = SPI_TIMODE_DISABLED;
 308:Drivers/BSP/STM32F4-Discovery/stm32f4_discovery.c ****     SpiHandle.Init.Mode = SPI_MODE_MASTER;
 309:Drivers/BSP/STM32F4-Discovery/stm32f4_discovery.c **** 
 310:Drivers/BSP/STM32F4-Discovery/stm32f4_discovery.c ****     SPIx_MspInit();
 311:Drivers/BSP/STM32F4-Discovery/stm32f4_discovery.c ****     HAL_SPI_Init(&SpiHandle);
 312:Drivers/BSP/STM32F4-Discovery/stm32f4_discovery.c ****   }
 313:Drivers/BSP/STM32F4-Discovery/stm32f4_discovery.c **** }
 314:Drivers/BSP/STM32F4-Discovery/stm32f4_discovery.c **** 
 315:Drivers/BSP/STM32F4-Discovery/stm32f4_discovery.c **** /**
 316:Drivers/BSP/STM32F4-Discovery/stm32f4_discovery.c ****   * @brief  Sends a Byte through the SPI interface and return the Byte received 
 317:Drivers/BSP/STM32F4-Discovery/stm32f4_discovery.c ****   *         from the SPI bus.
 318:Drivers/BSP/STM32F4-Discovery/stm32f4_discovery.c ****   * @param  Byte: Byte send.
 319:Drivers/BSP/STM32F4-Discovery/stm32f4_discovery.c ****   * @retval The received byte value
 320:Drivers/BSP/STM32F4-Discovery/stm32f4_discovery.c ****   */
 321:Drivers/BSP/STM32F4-Discovery/stm32f4_discovery.c **** static uint8_t SPIx_WriteRead(uint8_t Byte)
 322:Drivers/BSP/STM32F4-Discovery/stm32f4_discovery.c **** {
 323:Drivers/BSP/STM32F4-Discovery/stm32f4_discovery.c ****   uint8_t receivedbyte = 0;
 324:Drivers/BSP/STM32F4-Discovery/stm32f4_discovery.c ****   
 325:Drivers/BSP/STM32F4-Discovery/stm32f4_discovery.c ****   /* Send a Byte through the SPI peripheral */
 326:Drivers/BSP/STM32F4-Discovery/stm32f4_discovery.c ****   /* Read byte from the SPI bus */
 327:Drivers/BSP/STM32F4-Discovery/stm32f4_discovery.c ****   if(HAL_SPI_TransmitReceive(&SpiHandle, (uint8_t*) &Byte, (uint8_t*) &receivedbyte, 1, SpixTimeout
 328:Drivers/BSP/STM32F4-Discovery/stm32f4_discovery.c ****   {
 329:Drivers/BSP/STM32F4-Discovery/stm32f4_discovery.c ****     SPIx_Error();
 330:Drivers/BSP/STM32F4-Discovery/stm32f4_discovery.c ****   }
 331:Drivers/BSP/STM32F4-Discovery/stm32f4_discovery.c ****   
 332:Drivers/BSP/STM32F4-Discovery/stm32f4_discovery.c ****   return receivedbyte;
 333:Drivers/BSP/STM32F4-Discovery/stm32f4_discovery.c **** }
 334:Drivers/BSP/STM32F4-Discovery/stm32f4_discovery.c **** 
 335:Drivers/BSP/STM32F4-Discovery/stm32f4_discovery.c **** /**
 336:Drivers/BSP/STM32F4-Discovery/stm32f4_discovery.c ****   * @brief  SPIx error treatment function.
 337:Drivers/BSP/STM32F4-Discovery/stm32f4_discovery.c ****   */
 338:Drivers/BSP/STM32F4-Discovery/stm32f4_discovery.c **** static void SPIx_Error(void)
 339:Drivers/BSP/STM32F4-Discovery/stm32f4_discovery.c **** {
 340:Drivers/BSP/STM32F4-Discovery/stm32f4_discovery.c ****   /* De-initialize the SPI communication bus */
 341:Drivers/BSP/STM32F4-Discovery/stm32f4_discovery.c ****   HAL_SPI_DeInit(&SpiHandle);
 342:Drivers/BSP/STM32F4-Discovery/stm32f4_discovery.c ****   
 343:Drivers/BSP/STM32F4-Discovery/stm32f4_discovery.c ****   /* Re-Initialize the SPI communication bus */
 344:Drivers/BSP/STM32F4-Discovery/stm32f4_discovery.c ****   SPIx_Init();
 345:Drivers/BSP/STM32F4-Discovery/stm32f4_discovery.c **** }
 346:Drivers/BSP/STM32F4-Discovery/stm32f4_discovery.c **** 
 347:Drivers/BSP/STM32F4-Discovery/stm32f4_discovery.c **** /**
 348:Drivers/BSP/STM32F4-Discovery/stm32f4_discovery.c ****   * @brief  SPI MSP Init.
 349:Drivers/BSP/STM32F4-Discovery/stm32f4_discovery.c ****   */
 350:Drivers/BSP/STM32F4-Discovery/stm32f4_discovery.c **** static void SPIx_MspInit(void)
 351:Drivers/BSP/STM32F4-Discovery/stm32f4_discovery.c **** {
 352:Drivers/BSP/STM32F4-Discovery/stm32f4_discovery.c ****   GPIO_InitTypeDef   GPIO_InitStructure;
 353:Drivers/BSP/STM32F4-Discovery/stm32f4_discovery.c **** 
ARM GAS  /var/folders/0z/tsy30v1j4xl4_7kw94k978ww0000gn/T//ccvYDrVp.s 			page 8


 354:Drivers/BSP/STM32F4-Discovery/stm32f4_discovery.c ****   /* Enable the SPI peripheral */
 355:Drivers/BSP/STM32F4-Discovery/stm32f4_discovery.c ****   DISCOVERY_SPIx_CLK_ENABLE();
  47              		.loc 1 355 3 view .LVU4
  48 0006 1F4A     		ldr	r2, .L4+4
  49              	.LBE16:
  50              	.LBE15:
  51              	.LBE14:
 297:Drivers/BSP/STM32F4-Discovery/stm32f4_discovery.c ****     SpiHandle.Init.BaudRatePrescaler = SPI_BAUDRATEPRESCALER_16;
  52              		.loc 1 297 24 view .LVU5
  53 0008 1F49     		ldr	r1, .L4+8
  54 000a 2160     		str	r1, [r4]
 298:Drivers/BSP/STM32F4-Discovery/stm32f4_discovery.c ****     SpiHandle.Init.BaudRatePrescaler = SPI_BAUDRATEPRESCALER_16;
  55              		.loc 1 298 5 is_stmt 1 view .LVU6
 299:Drivers/BSP/STM32F4-Discovery/stm32f4_discovery.c ****     SpiHandle.Init.CLKPhase = SPI_PHASE_1EDGE;
  56              		.loc 1 299 30 is_stmt 0 view .LVU7
  57 000c 0023     		movs	r3, #0
  58              	.LBB35:
  59              	.LBB25:
  60              	.LBB17:
  61              		.loc 1 355 3 view .LVU8
  62 000e 0193     		str	r3, [sp, #4]
  63 0010 516C     		ldr	r1, [r2, #68]
  64 0012 41F48051 		orr	r1, r1, #4096
  65 0016 5164     		str	r1, [r2, #68]
  66 0018 516C     		ldr	r1, [r2, #68]
  67 001a 01F48051 		and	r1, r1, #4096
  68 001e 0191     		str	r1, [sp, #4]
  69              	.LBE17:
  70              	.LBE25:
  71              	.LBE35:
 298:Drivers/BSP/STM32F4-Discovery/stm32f4_discovery.c ****     SpiHandle.Init.BaudRatePrescaler = SPI_BAUDRATEPRESCALER_16;
  72              		.loc 1 298 38 view .LVU9
  73 0020 1820     		movs	r0, #24
  74              	.LBB36:
  75              	.LBB26:
  76              	.LBB18:
  77              		.loc 1 355 3 view .LVU10
  78 0022 0199     		ldr	r1, [sp, #4]
  79              	.LBE18:
  80              	.LBE26:
  81              	.LBE36:
 298:Drivers/BSP/STM32F4-Discovery/stm32f4_discovery.c ****     SpiHandle.Init.BaudRatePrescaler = SPI_BAUDRATEPRESCALER_16;
  82              		.loc 1 298 38 view .LVU11
  83 0024 E061     		str	r0, [r4, #28]
 299:Drivers/BSP/STM32F4-Discovery/stm32f4_discovery.c ****     SpiHandle.Init.CLKPhase = SPI_PHASE_1EDGE;
  84              		.loc 1 299 5 is_stmt 1 view .LVU12
  85              	.LBB37:
  86              	.LBB27:
  87              	.LBB19:
 356:Drivers/BSP/STM32F4-Discovery/stm32f4_discovery.c ****   
 357:Drivers/BSP/STM32F4-Discovery/stm32f4_discovery.c ****   /* Enable SCK, MOSI and MISO GPIO clocks */
 358:Drivers/BSP/STM32F4-Discovery/stm32f4_discovery.c ****   DISCOVERY_SPIx_GPIO_CLK_ENABLE();
  88              		.loc 1 358 3 is_stmt 0 view .LVU13
  89 0026 0293     		str	r3, [sp, #8]
  90 0028 116B     		ldr	r1, [r2, #48]
  91              	.LBE19:
  92              	.LBE27:
ARM GAS  /var/folders/0z/tsy30v1j4xl4_7kw94k978ww0000gn/T//ccvYDrVp.s 			page 9


  93              	.LBE37:
 299:Drivers/BSP/STM32F4-Discovery/stm32f4_discovery.c ****     SpiHandle.Init.CLKPhase = SPI_PHASE_1EDGE;
  94              		.loc 1 299 30 view .LVU14
  95 002a A360     		str	r3, [r4, #8]
 300:Drivers/BSP/STM32F4-Discovery/stm32f4_discovery.c ****     SpiHandle.Init.CLKPolarity = SPI_POLARITY_LOW;
  96              		.loc 1 300 5 is_stmt 1 view .LVU15
  97              	.LBB38:
  98              	.LBB28:
  99              	.LBB20:
 100              		.loc 1 358 3 is_stmt 0 view .LVU16
 101 002c 41F00101 		orr	r1, r1, #1
 102 0030 1163     		str	r1, [r2, #48]
 103 0032 126B     		ldr	r2, [r2, #48]
 104              	.LBE20:
 105              	.LBE28:
 106              	.LBE38:
 300:Drivers/BSP/STM32F4-Discovery/stm32f4_discovery.c ****     SpiHandle.Init.CLKPolarity = SPI_POLARITY_LOW;
 107              		.loc 1 300 29 view .LVU17
 108 0034 6361     		str	r3, [r4, #20]
 301:Drivers/BSP/STM32F4-Discovery/stm32f4_discovery.c ****     SpiHandle.Init.CRCCalculation = SPI_CRCCALCULATION_DISABLED;
 109              		.loc 1 301 5 is_stmt 1 view .LVU18
 110              	.LBB39:
 111              	.LBB29:
 112              	.LBB21:
 113              		.loc 1 358 3 is_stmt 0 view .LVU19
 114 0036 02F00102 		and	r2, r2, #1
 115 003a 0292     		str	r2, [sp, #8]
 116              	.LBE21:
 117              	.LBE29:
 118              	.LBE39:
 307:Drivers/BSP/STM32F4-Discovery/stm32f4_discovery.c ****     SpiHandle.Init.Mode = SPI_MODE_MASTER;
 119              		.loc 1 307 27 view .LVU20
 120 003c C4E90833 		strd	r3, r3, [r4, #32]
 301:Drivers/BSP/STM32F4-Discovery/stm32f4_discovery.c ****     SpiHandle.Init.CRCCalculation = SPI_CRCCALCULATION_DISABLED;
 121              		.loc 1 301 32 view .LVU21
 122 0040 2361     		str	r3, [r4, #16]
 302:Drivers/BSP/STM32F4-Discovery/stm32f4_discovery.c ****     SpiHandle.Init.CRCPolynomial = 7;
 123              		.loc 1 302 5 is_stmt 1 view .LVU22
 302:Drivers/BSP/STM32F4-Discovery/stm32f4_discovery.c ****     SpiHandle.Init.CRCPolynomial = 7;
 124              		.loc 1 302 35 is_stmt 0 view .LVU23
 125 0042 A362     		str	r3, [r4, #40]
 303:Drivers/BSP/STM32F4-Discovery/stm32f4_discovery.c ****     SpiHandle.Init.DataSize = SPI_DATASIZE_8BIT;
 126              		.loc 1 303 5 is_stmt 1 view .LVU24
 304:Drivers/BSP/STM32F4-Discovery/stm32f4_discovery.c ****     SpiHandle.Init.FirstBit = SPI_FIRSTBIT_MSB;
 127              		.loc 1 304 29 is_stmt 0 view .LVU25
 128 0044 E360     		str	r3, [r4, #12]
 129              	.LBB40:
 130              	.LBB30:
 359:Drivers/BSP/STM32F4-Discovery/stm32f4_discovery.c ****   
 360:Drivers/BSP/STM32F4-Discovery/stm32f4_discovery.c ****   /* SPI SCK, MOSI, MISO pin configuration */
 361:Drivers/BSP/STM32F4-Discovery/stm32f4_discovery.c ****   GPIO_InitStructure.Pin = (DISCOVERY_SPIx_SCK_PIN | DISCOVERY_SPIx_MISO_PIN | DISCOVERY_SPIx_MOSI_
 131              		.loc 1 361 26 view .LVU26
 132 0046 E022     		movs	r2, #224
 133              	.LBE30:
 134              	.LBE40:
 308:Drivers/BSP/STM32F4-Discovery/stm32f4_discovery.c **** 
 135              		.loc 1 308 25 view .LVU27
ARM GAS  /var/folders/0z/tsy30v1j4xl4_7kw94k978ww0000gn/T//ccvYDrVp.s 			page 10


 136 0048 4FF48273 		mov	r3, #260
 137 004c 6360     		str	r3, [r4, #4]
 138              	.LBB41:
 139              	.LBB31:
 140              		.loc 1 361 26 view .LVU28
 141 004e 0392     		str	r2, [sp, #12]
 362:Drivers/BSP/STM32F4-Discovery/stm32f4_discovery.c ****   GPIO_InitStructure.Mode = GPIO_MODE_AF_PP;
 363:Drivers/BSP/STM32F4-Discovery/stm32f4_discovery.c ****   GPIO_InitStructure.Pull  = GPIO_PULLDOWN;
 364:Drivers/BSP/STM32F4-Discovery/stm32f4_discovery.c ****   GPIO_InitStructure.Speed = GPIO_SPEED_MEDIUM;
 365:Drivers/BSP/STM32F4-Discovery/stm32f4_discovery.c ****   GPIO_InitStructure.Alternate = DISCOVERY_SPIx_AF;
 142              		.loc 1 365 32 view .LVU29
 143 0050 0523     		movs	r3, #5
 364:Drivers/BSP/STM32F4-Discovery/stm32f4_discovery.c ****   GPIO_InitStructure.Alternate = DISCOVERY_SPIx_AF;
 144              		.loc 1 364 28 view .LVU30
 145 0052 0122     		movs	r2, #1
 146              	.LBB22:
 358:Drivers/BSP/STM32F4-Discovery/stm32f4_discovery.c ****   
 147              		.loc 1 358 3 view .LVU31
 148 0054 0299     		ldr	r1, [sp, #8]
 149              	.LBE22:
 364:Drivers/BSP/STM32F4-Discovery/stm32f4_discovery.c ****   GPIO_InitStructure.Alternate = DISCOVERY_SPIx_AF;
 150              		.loc 1 364 28 view .LVU32
 151 0056 0692     		str	r2, [sp, #24]
 152              		.loc 1 365 32 view .LVU33
 153 0058 0793     		str	r3, [sp, #28]
 154              	.LBE31:
 155              	.LBE41:
 303:Drivers/BSP/STM32F4-Discovery/stm32f4_discovery.c ****     SpiHandle.Init.DataSize = SPI_DATASIZE_8BIT;
 156              		.loc 1 303 34 view .LVU34
 157 005a 0722     		movs	r2, #7
 306:Drivers/BSP/STM32F4-Discovery/stm32f4_discovery.c ****     SpiHandle.Init.TIMode = SPI_TIMODE_DISABLED;
 158              		.loc 1 306 24 view .LVU35
 159 005c 4FF40073 		mov	r3, #512
 160              	.LBB42:
 161              	.LBB32:
 366:Drivers/BSP/STM32F4-Discovery/stm32f4_discovery.c ****   HAL_GPIO_Init(DISCOVERY_SPIx_GPIO_PORT, &GPIO_InitStructure);
 162              		.loc 1 366 3 view .LVU36
 163 0060 0A48     		ldr	r0, .L4+12
 164              	.LBE32:
 165              	.LBE42:
 303:Drivers/BSP/STM32F4-Discovery/stm32f4_discovery.c ****     SpiHandle.Init.DataSize = SPI_DATASIZE_8BIT;
 166              		.loc 1 303 34 view .LVU37
 167 0062 E262     		str	r2, [r4, #44]
 304:Drivers/BSP/STM32F4-Discovery/stm32f4_discovery.c ****     SpiHandle.Init.FirstBit = SPI_FIRSTBIT_MSB;
 168              		.loc 1 304 5 is_stmt 1 view .LVU38
 305:Drivers/BSP/STM32F4-Discovery/stm32f4_discovery.c ****     SpiHandle.Init.NSS = SPI_NSS_SOFT;
 169              		.loc 1 305 5 view .LVU39
 306:Drivers/BSP/STM32F4-Discovery/stm32f4_discovery.c ****     SpiHandle.Init.TIMode = SPI_TIMODE_DISABLED;
 170              		.loc 1 306 5 view .LVU40
 171              	.LBB43:
 172              	.LBB33:
 362:Drivers/BSP/STM32F4-Discovery/stm32f4_discovery.c ****   GPIO_InitStructure.Pull  = GPIO_PULLDOWN;
 173              		.loc 1 362 27 is_stmt 0 view .LVU41
 174 0064 0225     		movs	r5, #2
 175              		.loc 1 366 3 view .LVU42
 176 0066 03A9     		add	r1, sp, #12
 363:Drivers/BSP/STM32F4-Discovery/stm32f4_discovery.c ****   GPIO_InitStructure.Speed = GPIO_SPEED_MEDIUM;
ARM GAS  /var/folders/0z/tsy30v1j4xl4_7kw94k978ww0000gn/T//ccvYDrVp.s 			page 11


 177              		.loc 1 363 28 view .LVU43
 178 0068 CDE90455 		strd	r5, r5, [sp, #16]
 179              	.LBE33:
 180              	.LBE43:
 306:Drivers/BSP/STM32F4-Discovery/stm32f4_discovery.c ****     SpiHandle.Init.TIMode = SPI_TIMODE_DISABLED;
 181              		.loc 1 306 24 view .LVU44
 182 006c A361     		str	r3, [r4, #24]
 307:Drivers/BSP/STM32F4-Discovery/stm32f4_discovery.c ****     SpiHandle.Init.Mode = SPI_MODE_MASTER;
 183              		.loc 1 307 5 is_stmt 1 view .LVU45
 308:Drivers/BSP/STM32F4-Discovery/stm32f4_discovery.c **** 
 184              		.loc 1 308 5 view .LVU46
 310:Drivers/BSP/STM32F4-Discovery/stm32f4_discovery.c ****     HAL_SPI_Init(&SpiHandle);
 185              		.loc 1 310 5 view .LVU47
 186              	.LBB44:
 187              	.LBI14:
 350:Drivers/BSP/STM32F4-Discovery/stm32f4_discovery.c **** {
 188              		.loc 1 350 13 view .LVU48
 189              	.LBB34:
 352:Drivers/BSP/STM32F4-Discovery/stm32f4_discovery.c **** 
 190              		.loc 1 352 3 view .LVU49
 355:Drivers/BSP/STM32F4-Discovery/stm32f4_discovery.c ****   
 191              		.loc 1 355 3 view .LVU50
 192              	.LBB23:
 355:Drivers/BSP/STM32F4-Discovery/stm32f4_discovery.c ****   
 193              		.loc 1 355 3 view .LVU51
 355:Drivers/BSP/STM32F4-Discovery/stm32f4_discovery.c ****   
 194              		.loc 1 355 3 view .LVU52
 355:Drivers/BSP/STM32F4-Discovery/stm32f4_discovery.c ****   
 195              		.loc 1 355 3 view .LVU53
 355:Drivers/BSP/STM32F4-Discovery/stm32f4_discovery.c ****   
 196              		.loc 1 355 3 view .LVU54
 197              	.LBE23:
 355:Drivers/BSP/STM32F4-Discovery/stm32f4_discovery.c ****   
 198              		.loc 1 355 3 view .LVU55
 358:Drivers/BSP/STM32F4-Discovery/stm32f4_discovery.c ****   
 199              		.loc 1 358 3 view .LVU56
 200              	.LBB24:
 358:Drivers/BSP/STM32F4-Discovery/stm32f4_discovery.c ****   
 201              		.loc 1 358 3 view .LVU57
 358:Drivers/BSP/STM32F4-Discovery/stm32f4_discovery.c ****   
 202              		.loc 1 358 3 view .LVU58
 358:Drivers/BSP/STM32F4-Discovery/stm32f4_discovery.c ****   
 203              		.loc 1 358 3 view .LVU59
 358:Drivers/BSP/STM32F4-Discovery/stm32f4_discovery.c ****   
 204              		.loc 1 358 3 view .LVU60
 205              	.LBE24:
 358:Drivers/BSP/STM32F4-Discovery/stm32f4_discovery.c ****   
 206              		.loc 1 358 3 view .LVU61
 361:Drivers/BSP/STM32F4-Discovery/stm32f4_discovery.c ****   GPIO_InitStructure.Mode = GPIO_MODE_AF_PP;
 207              		.loc 1 361 3 view .LVU62
 362:Drivers/BSP/STM32F4-Discovery/stm32f4_discovery.c ****   GPIO_InitStructure.Pull  = GPIO_PULLDOWN;
 208              		.loc 1 362 3 view .LVU63
 363:Drivers/BSP/STM32F4-Discovery/stm32f4_discovery.c ****   GPIO_InitStructure.Speed = GPIO_SPEED_MEDIUM;
 209              		.loc 1 363 3 view .LVU64
 364:Drivers/BSP/STM32F4-Discovery/stm32f4_discovery.c ****   GPIO_InitStructure.Alternate = DISCOVERY_SPIx_AF;
 210              		.loc 1 364 3 view .LVU65
 365:Drivers/BSP/STM32F4-Discovery/stm32f4_discovery.c ****   HAL_GPIO_Init(DISCOVERY_SPIx_GPIO_PORT, &GPIO_InitStructure);
ARM GAS  /var/folders/0z/tsy30v1j4xl4_7kw94k978ww0000gn/T//ccvYDrVp.s 			page 12


 211              		.loc 1 365 3 view .LVU66
 212              		.loc 1 366 3 view .LVU67
 213 006e FFF7FEFF 		bl	HAL_GPIO_Init
 214              	.LVL0:
 215              	.LBE34:
 216              	.LBE44:
 311:Drivers/BSP/STM32F4-Discovery/stm32f4_discovery.c ****   }
 217              		.loc 1 311 5 view .LVU68
 218 0072 2046     		mov	r0, r4
 313:Drivers/BSP/STM32F4-Discovery/stm32f4_discovery.c **** 
 219              		.loc 1 313 1 is_stmt 0 view .LVU69
 220 0074 09B0     		add	sp, sp, #36
 221              		.cfi_def_cfa_offset 12
 222              		@ sp needed
 223 0076 BDE83040 		pop	{r4, r5, lr}
 224              		.cfi_restore 14
 225              		.cfi_restore 5
 226              		.cfi_restore 4
 227              		.cfi_def_cfa_offset 0
 311:Drivers/BSP/STM32F4-Discovery/stm32f4_discovery.c ****   }
 228              		.loc 1 311 5 view .LVU70
 229 007a FFF7FEBF 		b	HAL_SPI_Init
 230              	.LVL1:
 231              	.L5:
 232 007e 00BF     		.align	2
 233              	.L4:
 234 0080 00000000 		.word	.LANCHOR0
 235 0084 00380240 		.word	1073887232
 236 0088 00300140 		.word	1073819648
 237 008c 00000240 		.word	1073872896
 238              		.cfi_endproc
 239              	.LFE259:
 241              		.section	.text.SPIx_WriteRead,"ax",%progbits
 242              		.align	1
 243              		.p2align 2,,3
 244              		.syntax unified
 245              		.thumb
 246              		.thumb_func
 248              	SPIx_WriteRead:
 249              	.LVL2:
 250              	.LFB243:
 322:Drivers/BSP/STM32F4-Discovery/stm32f4_discovery.c ****   uint8_t receivedbyte = 0;
 251              		.loc 1 322 1 is_stmt 1 view -0
 252              		.cfi_startproc
 253              		@ args = 0, pretend = 0, frame = 16
 254              		@ frame_needed = 0, uses_anonymous_args = 0
 323:Drivers/BSP/STM32F4-Discovery/stm32f4_discovery.c ****   
 255              		.loc 1 323 3 view .LVU72
 322:Drivers/BSP/STM32F4-Discovery/stm32f4_discovery.c ****   uint8_t receivedbyte = 0;
 256              		.loc 1 322 1 is_stmt 0 view .LVU73
 257 0000 00B5     		push	{lr}
 258              		.cfi_def_cfa_offset 4
 259              		.cfi_offset 14, -4
 327:Drivers/BSP/STM32F4-Discovery/stm32f4_discovery.c ****   {
 260              		.loc 1 327 6 view .LVU74
 261 0002 134B     		ldr	r3, .L12
 322:Drivers/BSP/STM32F4-Discovery/stm32f4_discovery.c ****   uint8_t receivedbyte = 0;
ARM GAS  /var/folders/0z/tsy30v1j4xl4_7kw94k978ww0000gn/T//ccvYDrVp.s 			page 13


 262              		.loc 1 322 1 view .LVU75
 263 0004 87B0     		sub	sp, sp, #28
 264              		.cfi_def_cfa_offset 32
 327:Drivers/BSP/STM32F4-Discovery/stm32f4_discovery.c ****   {
 265              		.loc 1 327 6 view .LVU76
 266 0006 1B68     		ldr	r3, [r3]
 267 0008 0093     		str	r3, [sp]
 323:Drivers/BSP/STM32F4-Discovery/stm32f4_discovery.c ****   
 268              		.loc 1 323 11 view .LVU77
 269 000a 0021     		movs	r1, #0
 322:Drivers/BSP/STM32F4-Discovery/stm32f4_discovery.c ****   uint8_t receivedbyte = 0;
 270              		.loc 1 322 1 view .LVU78
 271 000c 8446     		mov	ip, r0
 323:Drivers/BSP/STM32F4-Discovery/stm32f4_discovery.c ****   
 272              		.loc 1 323 11 view .LVU79
 273 000e 8DF81710 		strb	r1, [sp, #23]
 327:Drivers/BSP/STM32F4-Discovery/stm32f4_discovery.c ****   {
 274              		.loc 1 327 3 is_stmt 1 view .LVU80
 327:Drivers/BSP/STM32F4-Discovery/stm32f4_discovery.c ****   {
 275              		.loc 1 327 6 is_stmt 0 view .LVU81
 276 0012 1048     		ldr	r0, .L12+4
 277              	.LVL3:
 322:Drivers/BSP/STM32F4-Discovery/stm32f4_discovery.c ****   uint8_t receivedbyte = 0;
 278              		.loc 1 322 1 view .LVU82
 279 0014 8DF80FC0 		strb	ip, [sp, #15]
 327:Drivers/BSP/STM32F4-Discovery/stm32f4_discovery.c ****   {
 280              		.loc 1 327 6 view .LVU83
 281 0018 0123     		movs	r3, #1
 282 001a 0DF11702 		add	r2, sp, #23
 283 001e 0DF10F01 		add	r1, sp, #15
 284 0022 FFF7FEFF 		bl	HAL_SPI_TransmitReceive
 285              	.LVL4:
 327:Drivers/BSP/STM32F4-Discovery/stm32f4_discovery.c ****   {
 286              		.loc 1 327 5 view .LVU84
 287 0026 20B9     		cbnz	r0, .L11
 288              	.L8:
 332:Drivers/BSP/STM32F4-Discovery/stm32f4_discovery.c **** }
 289              		.loc 1 332 3 is_stmt 1 view .LVU85
 333:Drivers/BSP/STM32F4-Discovery/stm32f4_discovery.c **** 
 290              		.loc 1 333 1 is_stmt 0 view .LVU86
 291 0028 9DF81700 		ldrb	r0, [sp, #23]	@ zero_extendqisi2
 292 002c 07B0     		add	sp, sp, #28
 293              		.cfi_remember_state
 294              		.cfi_def_cfa_offset 4
 295              		@ sp needed
 296 002e 5DF804FB 		ldr	pc, [sp], #4
 297              	.L11:
 298              		.cfi_restore_state
 299              	.LBB51:
 300              	.LBI51:
 321:Drivers/BSP/STM32F4-Discovery/stm32f4_discovery.c **** {
 301              		.loc 1 321 16 is_stmt 1 view .LVU87
 302              	.LBB52:
 329:Drivers/BSP/STM32F4-Discovery/stm32f4_discovery.c ****   }
 303              		.loc 1 329 5 view .LVU88
 304              	.LBB53:
 305              	.LBI53:
ARM GAS  /var/folders/0z/tsy30v1j4xl4_7kw94k978ww0000gn/T//ccvYDrVp.s 			page 14


 338:Drivers/BSP/STM32F4-Discovery/stm32f4_discovery.c **** {
 306              		.loc 1 338 13 view .LVU89
 307              	.LBB54:
 341:Drivers/BSP/STM32F4-Discovery/stm32f4_discovery.c ****   
 308              		.loc 1 341 3 view .LVU90
 309 0032 0848     		ldr	r0, .L12+4
 310 0034 FFF7FEFF 		bl	HAL_SPI_DeInit
 311              	.LVL5:
 344:Drivers/BSP/STM32F4-Discovery/stm32f4_discovery.c **** }
 312              		.loc 1 344 3 view .LVU91
 313              	.LBB55:
 314              	.LBI55:
 292:Drivers/BSP/STM32F4-Discovery/stm32f4_discovery.c **** {
 315              		.loc 1 292 13 view .LVU92
 316              	.LBB56:
 294:Drivers/BSP/STM32F4-Discovery/stm32f4_discovery.c ****   {
 317              		.loc 1 294 3 view .LVU93
 294:Drivers/BSP/STM32F4-Discovery/stm32f4_discovery.c ****   {
 318              		.loc 1 294 6 is_stmt 0 view .LVU94
 319 0038 0648     		ldr	r0, .L12+4
 320 003a FFF7FEFF 		bl	HAL_SPI_GetState
 321              	.LVL6:
 294:Drivers/BSP/STM32F4-Discovery/stm32f4_discovery.c ****   {
 322              		.loc 1 294 5 view .LVU95
 323 003e 0028     		cmp	r0, #0
 324 0040 F2D1     		bne	.L8
 325 0042 FFF7FEFF 		bl	SPIx_Init.part.0
 326              	.LVL7:
 327              	.LBE56:
 328              	.LBE55:
 329              	.LBE54:
 330              	.LBE53:
 331              	.LBE52:
 332              	.LBE51:
 332:Drivers/BSP/STM32F4-Discovery/stm32f4_discovery.c **** }
 333              		.loc 1 332 3 is_stmt 1 view .LVU96
 333:Drivers/BSP/STM32F4-Discovery/stm32f4_discovery.c **** 
 334              		.loc 1 333 1 is_stmt 0 view .LVU97
 335 0046 9DF81700 		ldrb	r0, [sp, #23]	@ zero_extendqisi2
 336 004a 07B0     		add	sp, sp, #28
 337              		.cfi_def_cfa_offset 4
 338              		@ sp needed
 339 004c 5DF804FB 		ldr	pc, [sp], #4
 340              	.L13:
 341              		.align	2
 342              	.L12:
 343 0050 00000000 		.word	.LANCHOR1
 344 0054 00000000 		.word	.LANCHOR0
 345              		.cfi_endproc
 346              	.LFE243:
 348              		.section	.text.I2Cx_Init.part.0,"ax",%progbits
 349              		.align	1
 350              		.p2align 2,,3
 351              		.syntax unified
 352              		.thumb
 353              		.thumb_func
 355              	I2Cx_Init.part.0:
ARM GAS  /var/folders/0z/tsy30v1j4xl4_7kw94k978ww0000gn/T//ccvYDrVp.s 			page 15


 356              	.LFB261:
 367:Drivers/BSP/STM32F4-Discovery/stm32f4_discovery.c **** }
 368:Drivers/BSP/STM32F4-Discovery/stm32f4_discovery.c **** 
 369:Drivers/BSP/STM32F4-Discovery/stm32f4_discovery.c **** /******************************* I2C Routines**********************************/
 370:Drivers/BSP/STM32F4-Discovery/stm32f4_discovery.c **** /**
 371:Drivers/BSP/STM32F4-Discovery/stm32f4_discovery.c ****   * @brief  Configures I2C interface.
 372:Drivers/BSP/STM32F4-Discovery/stm32f4_discovery.c ****   */
 373:Drivers/BSP/STM32F4-Discovery/stm32f4_discovery.c **** static void I2Cx_Init(void)
 357              		.loc 1 373 13 is_stmt 1 view -0
 358              		.cfi_startproc
 359              		@ args = 0, pretend = 0, frame = 32
 360              		@ frame_needed = 0, uses_anonymous_args = 0
 374:Drivers/BSP/STM32F4-Discovery/stm32f4_discovery.c **** {
 375:Drivers/BSP/STM32F4-Discovery/stm32f4_discovery.c ****   if(HAL_I2C_GetState(&I2cHandle) == HAL_I2C_STATE_RESET)
 376:Drivers/BSP/STM32F4-Discovery/stm32f4_discovery.c ****   {
 377:Drivers/BSP/STM32F4-Discovery/stm32f4_discovery.c ****     /* DISCOVERY_I2Cx peripheral configuration */
 378:Drivers/BSP/STM32F4-Discovery/stm32f4_discovery.c ****     I2cHandle.Init.ClockSpeed = BSP_I2C_SPEED;
 361              		.loc 1 378 5 view .LVU99
 373:Drivers/BSP/STM32F4-Discovery/stm32f4_discovery.c **** {
 362              		.loc 1 373 13 is_stmt 0 view .LVU100
 363 0000 70B5     		push	{r4, r5, r6, lr}
 364              		.cfi_def_cfa_offset 16
 365              		.cfi_offset 4, -16
 366              		.cfi_offset 5, -12
 367              		.cfi_offset 6, -8
 368              		.cfi_offset 14, -4
 369 0002 88B0     		sub	sp, sp, #32
 370              		.cfi_def_cfa_offset 48
 371              	.LBB61:
 372              	.LBB62:
 373              	.LBB63:
 379:Drivers/BSP/STM32F4-Discovery/stm32f4_discovery.c ****     I2cHandle.Init.DutyCycle = I2C_DUTYCYCLE_2;
 380:Drivers/BSP/STM32F4-Discovery/stm32f4_discovery.c ****     I2cHandle.Init.OwnAddress1 = 0x33;
 381:Drivers/BSP/STM32F4-Discovery/stm32f4_discovery.c ****     I2cHandle.Init.AddressingMode = I2C_ADDRESSINGMODE_7BIT;
 382:Drivers/BSP/STM32F4-Discovery/stm32f4_discovery.c ****     I2cHandle.Instance = DISCOVERY_I2Cx;
 383:Drivers/BSP/STM32F4-Discovery/stm32f4_discovery.c ****       
 384:Drivers/BSP/STM32F4-Discovery/stm32f4_discovery.c ****     /* Init the I2C */
 385:Drivers/BSP/STM32F4-Discovery/stm32f4_discovery.c ****     I2Cx_MspInit();
 386:Drivers/BSP/STM32F4-Discovery/stm32f4_discovery.c ****     HAL_I2C_Init(&I2cHandle);
 387:Drivers/BSP/STM32F4-Discovery/stm32f4_discovery.c ****   }
 388:Drivers/BSP/STM32F4-Discovery/stm32f4_discovery.c **** }
 389:Drivers/BSP/STM32F4-Discovery/stm32f4_discovery.c **** 
 390:Drivers/BSP/STM32F4-Discovery/stm32f4_discovery.c **** /**
 391:Drivers/BSP/STM32F4-Discovery/stm32f4_discovery.c ****   * @brief  Write a value in a register of the device through BUS.
 392:Drivers/BSP/STM32F4-Discovery/stm32f4_discovery.c ****   * @param  Addr: Device address on BUS Bus.  
 393:Drivers/BSP/STM32F4-Discovery/stm32f4_discovery.c ****   * @param  Reg: The target register address to write
 394:Drivers/BSP/STM32F4-Discovery/stm32f4_discovery.c ****   * @param  Value: The target register value to be written 
 395:Drivers/BSP/STM32F4-Discovery/stm32f4_discovery.c ****   * @retval HAL status
 396:Drivers/BSP/STM32F4-Discovery/stm32f4_discovery.c ****   */
 397:Drivers/BSP/STM32F4-Discovery/stm32f4_discovery.c **** static void I2Cx_WriteData(uint8_t Addr, uint8_t Reg, uint8_t Value)
 398:Drivers/BSP/STM32F4-Discovery/stm32f4_discovery.c **** {
 399:Drivers/BSP/STM32F4-Discovery/stm32f4_discovery.c ****   HAL_StatusTypeDef status = HAL_OK;
 400:Drivers/BSP/STM32F4-Discovery/stm32f4_discovery.c ****   
 401:Drivers/BSP/STM32F4-Discovery/stm32f4_discovery.c ****   status = HAL_I2C_Mem_Write(&I2cHandle, Addr, (uint16_t)Reg, I2C_MEMADD_SIZE_8BIT, &Value, 1, I2cx
 402:Drivers/BSP/STM32F4-Discovery/stm32f4_discovery.c **** 
 403:Drivers/BSP/STM32F4-Discovery/stm32f4_discovery.c ****   /* Check the communication status */
 404:Drivers/BSP/STM32F4-Discovery/stm32f4_discovery.c ****   if(status != HAL_OK)
ARM GAS  /var/folders/0z/tsy30v1j4xl4_7kw94k978ww0000gn/T//ccvYDrVp.s 			page 16


 405:Drivers/BSP/STM32F4-Discovery/stm32f4_discovery.c ****   {
 406:Drivers/BSP/STM32F4-Discovery/stm32f4_discovery.c ****     /* Execute user timeout callback */
 407:Drivers/BSP/STM32F4-Discovery/stm32f4_discovery.c ****     I2Cx_Error(Addr);
 408:Drivers/BSP/STM32F4-Discovery/stm32f4_discovery.c ****   }
 409:Drivers/BSP/STM32F4-Discovery/stm32f4_discovery.c **** }
 410:Drivers/BSP/STM32F4-Discovery/stm32f4_discovery.c **** 
 411:Drivers/BSP/STM32F4-Discovery/stm32f4_discovery.c **** /**
 412:Drivers/BSP/STM32F4-Discovery/stm32f4_discovery.c ****   * @brief  Read a register of the device through BUS
 413:Drivers/BSP/STM32F4-Discovery/stm32f4_discovery.c ****   * @param  Addr: Device address on BUS  
 414:Drivers/BSP/STM32F4-Discovery/stm32f4_discovery.c ****   * @param  Reg: The target register address to read
 415:Drivers/BSP/STM32F4-Discovery/stm32f4_discovery.c ****   * @retval HAL status
 416:Drivers/BSP/STM32F4-Discovery/stm32f4_discovery.c ****   */
 417:Drivers/BSP/STM32F4-Discovery/stm32f4_discovery.c **** static uint8_t  I2Cx_ReadData(uint8_t Addr, uint8_t Reg)
 418:Drivers/BSP/STM32F4-Discovery/stm32f4_discovery.c **** {
 419:Drivers/BSP/STM32F4-Discovery/stm32f4_discovery.c ****   HAL_StatusTypeDef status = HAL_OK;
 420:Drivers/BSP/STM32F4-Discovery/stm32f4_discovery.c ****   uint8_t value = 0;
 421:Drivers/BSP/STM32F4-Discovery/stm32f4_discovery.c ****   
 422:Drivers/BSP/STM32F4-Discovery/stm32f4_discovery.c ****   status = HAL_I2C_Mem_Read(&I2cHandle, Addr, (uint16_t)Reg, I2C_MEMADD_SIZE_8BIT, &value, 1,I2cxTi
 423:Drivers/BSP/STM32F4-Discovery/stm32f4_discovery.c ****   
 424:Drivers/BSP/STM32F4-Discovery/stm32f4_discovery.c ****   /* Check the communication status */
 425:Drivers/BSP/STM32F4-Discovery/stm32f4_discovery.c ****   if(status != HAL_OK)
 426:Drivers/BSP/STM32F4-Discovery/stm32f4_discovery.c ****   {
 427:Drivers/BSP/STM32F4-Discovery/stm32f4_discovery.c ****     /* Execute user timeout callback */
 428:Drivers/BSP/STM32F4-Discovery/stm32f4_discovery.c ****     I2Cx_Error(Addr);
 429:Drivers/BSP/STM32F4-Discovery/stm32f4_discovery.c ****   }
 430:Drivers/BSP/STM32F4-Discovery/stm32f4_discovery.c ****   return value;
 431:Drivers/BSP/STM32F4-Discovery/stm32f4_discovery.c **** }
 432:Drivers/BSP/STM32F4-Discovery/stm32f4_discovery.c **** 
 433:Drivers/BSP/STM32F4-Discovery/stm32f4_discovery.c **** /**
 434:Drivers/BSP/STM32F4-Discovery/stm32f4_discovery.c ****   * @brief  Manages error callback by re-initializing I2C.
 435:Drivers/BSP/STM32F4-Discovery/stm32f4_discovery.c ****   * @param  Addr: I2C Address 
 436:Drivers/BSP/STM32F4-Discovery/stm32f4_discovery.c ****   */
 437:Drivers/BSP/STM32F4-Discovery/stm32f4_discovery.c **** static void I2Cx_Error(uint8_t Addr)
 438:Drivers/BSP/STM32F4-Discovery/stm32f4_discovery.c **** {
 439:Drivers/BSP/STM32F4-Discovery/stm32f4_discovery.c ****   /* De-initialize the I2C communication bus */
 440:Drivers/BSP/STM32F4-Discovery/stm32f4_discovery.c ****   HAL_I2C_DeInit(&I2cHandle);
 441:Drivers/BSP/STM32F4-Discovery/stm32f4_discovery.c ****   
 442:Drivers/BSP/STM32F4-Discovery/stm32f4_discovery.c ****   /* Re-Initialize the I2C communication bus */
 443:Drivers/BSP/STM32F4-Discovery/stm32f4_discovery.c ****   I2Cx_Init();
 444:Drivers/BSP/STM32F4-Discovery/stm32f4_discovery.c **** }
 445:Drivers/BSP/STM32F4-Discovery/stm32f4_discovery.c **** 
 446:Drivers/BSP/STM32F4-Discovery/stm32f4_discovery.c **** /**
 447:Drivers/BSP/STM32F4-Discovery/stm32f4_discovery.c ****   * @brief I2C MSP Initialization
 448:Drivers/BSP/STM32F4-Discovery/stm32f4_discovery.c ****   */
 449:Drivers/BSP/STM32F4-Discovery/stm32f4_discovery.c **** static void I2Cx_MspInit(void)
 450:Drivers/BSP/STM32F4-Discovery/stm32f4_discovery.c **** {
 451:Drivers/BSP/STM32F4-Discovery/stm32f4_discovery.c ****   GPIO_InitTypeDef  GPIO_InitStruct;
 452:Drivers/BSP/STM32F4-Discovery/stm32f4_discovery.c **** 
 453:Drivers/BSP/STM32F4-Discovery/stm32f4_discovery.c ****   /* Enable I2C GPIO clocks */
 454:Drivers/BSP/STM32F4-Discovery/stm32f4_discovery.c ****   DISCOVERY_I2Cx_SCL_SDA_GPIO_CLK_ENABLE();
 374              		.loc 1 454 3 view .LVU101
 375 0004 264C     		ldr	r4, .L16
 376              	.LBE63:
 377              	.LBE62:
 378              	.LBE61:
 378:Drivers/BSP/STM32F4-Discovery/stm32f4_discovery.c ****     I2cHandle.Init.DutyCycle = I2C_DUTYCYCLE_2;
 379              		.loc 1 378 31 view .LVU102
ARM GAS  /var/folders/0z/tsy30v1j4xl4_7kw94k978ww0000gn/T//ccvYDrVp.s 			page 17


 380 0006 274E     		ldr	r6, .L16+4
 382:Drivers/BSP/STM32F4-Discovery/stm32f4_discovery.c ****       
 381              		.loc 1 382 24 view .LVU103
 382 0008 274B     		ldr	r3, .L16+8
 383 000a 3360     		str	r3, [r6]
 379:Drivers/BSP/STM32F4-Discovery/stm32f4_discovery.c ****     I2cHandle.Init.DutyCycle = I2C_DUTYCYCLE_2;
 384              		.loc 1 379 30 view .LVU104
 385 000c 0025     		movs	r5, #0
 386              	.LBB76:
 387              	.LBB70:
 388              	.LBB64:
 389              		.loc 1 454 3 view .LVU105
 390 000e 0195     		str	r5, [sp, #4]
 391 0010 236B     		ldr	r3, [r4, #48]
 392              	.LBE64:
 455:Drivers/BSP/STM32F4-Discovery/stm32f4_discovery.c **** 
 456:Drivers/BSP/STM32F4-Discovery/stm32f4_discovery.c ****   /* DISCOVERY_I2Cx SCL and SDA pins configuration ---------------------------*/
 457:Drivers/BSP/STM32F4-Discovery/stm32f4_discovery.c ****   GPIO_InitStruct.Pin = DISCOVERY_I2Cx_SCL_PIN | DISCOVERY_I2Cx_SDA_PIN; 
 458:Drivers/BSP/STM32F4-Discovery/stm32f4_discovery.c ****   GPIO_InitStruct.Mode = GPIO_MODE_AF_OD;
 459:Drivers/BSP/STM32F4-Discovery/stm32f4_discovery.c ****   GPIO_InitStruct.Speed = GPIO_SPEED_FAST;
 460:Drivers/BSP/STM32F4-Discovery/stm32f4_discovery.c ****   GPIO_InitStruct.Pull  = GPIO_NOPULL;
 461:Drivers/BSP/STM32F4-Discovery/stm32f4_discovery.c ****   GPIO_InitStruct.Alternate  = DISCOVERY_I2Cx_SCL_SDA_AF;
 462:Drivers/BSP/STM32F4-Discovery/stm32f4_discovery.c ****   HAL_GPIO_Init(DISCOVERY_I2Cx_SCL_SDA_GPIO_PORT, &GPIO_InitStruct);     
 393              		.loc 1 462 3 view .LVU106
 394 0012 2648     		ldr	r0, .L16+12
 395              	.LBE70:
 396              	.LBE76:
 378:Drivers/BSP/STM32F4-Discovery/stm32f4_discovery.c ****     I2cHandle.Init.DutyCycle = I2C_DUTYCYCLE_2;
 397              		.loc 1 378 31 view .LVU107
 398 0014 264A     		ldr	r2, .L16+16
 399              	.LBB77:
 400              	.LBB71:
 401              	.LBB65:
 454:Drivers/BSP/STM32F4-Discovery/stm32f4_discovery.c **** 
 402              		.loc 1 454 3 view .LVU108
 403 0016 43F00203 		orr	r3, r3, #2
 404 001a 2363     		str	r3, [r4, #48]
 405 001c 236B     		ldr	r3, [r4, #48]
 406              	.LBE65:
 407              	.LBE71:
 408              	.LBE77:
 378:Drivers/BSP/STM32F4-Discovery/stm32f4_discovery.c ****     I2cHandle.Init.DutyCycle = I2C_DUTYCYCLE_2;
 409              		.loc 1 378 31 view .LVU109
 410 001e 7260     		str	r2, [r6, #4]
 379:Drivers/BSP/STM32F4-Discovery/stm32f4_discovery.c ****     I2cHandle.Init.OwnAddress1 = 0x33;
 411              		.loc 1 379 5 is_stmt 1 view .LVU110
 412              	.LBB78:
 413              	.LBB72:
 414              	.LBB66:
 454:Drivers/BSP/STM32F4-Discovery/stm32f4_discovery.c **** 
 415              		.loc 1 454 3 is_stmt 0 view .LVU111
 416 0020 03F00203 		and	r3, r3, #2
 417 0024 0193     		str	r3, [sp, #4]
 418              	.LBE66:
 457:Drivers/BSP/STM32F4-Discovery/stm32f4_discovery.c ****   GPIO_InitStruct.Mode = GPIO_MODE_AF_OD;
 419              		.loc 1 457 23 view .LVU112
 420 0026 4FF41073 		mov	r3, #576
ARM GAS  /var/folders/0z/tsy30v1j4xl4_7kw94k978ww0000gn/T//ccvYDrVp.s 			page 18


 421 002a 0393     		str	r3, [sp, #12]
 458:Drivers/BSP/STM32F4-Discovery/stm32f4_discovery.c ****   GPIO_InitStruct.Speed = GPIO_SPEED_FAST;
 422              		.loc 1 458 24 view .LVU113
 423 002c 1223     		movs	r3, #18
 424 002e 0493     		str	r3, [sp, #16]
 459:Drivers/BSP/STM32F4-Discovery/stm32f4_discovery.c ****   GPIO_InitStruct.Pull  = GPIO_NOPULL;
 425              		.loc 1 459 25 view .LVU114
 426 0030 0223     		movs	r3, #2
 427 0032 0693     		str	r3, [sp, #24]
 461:Drivers/BSP/STM32F4-Discovery/stm32f4_discovery.c ****   HAL_GPIO_Init(DISCOVERY_I2Cx_SCL_SDA_GPIO_PORT, &GPIO_InitStruct);     
 428              		.loc 1 461 30 view .LVU115
 429 0034 0423     		movs	r3, #4
 430              	.LBE72:
 431              	.LBE78:
 381:Drivers/BSP/STM32F4-Discovery/stm32f4_discovery.c ****     I2cHandle.Instance = DISCOVERY_I2Cx;
 432              		.loc 1 381 35 view .LVU116
 433 0036 4FF0330C 		mov	ip, #51
 434              	.LBB79:
 435              	.LBB73:
 461:Drivers/BSP/STM32F4-Discovery/stm32f4_discovery.c ****   HAL_GPIO_Init(DISCOVERY_I2Cx_SCL_SDA_GPIO_PORT, &GPIO_InitStruct);     
 436              		.loc 1 461 30 view .LVU117
 437 003a 0793     		str	r3, [sp, #28]
 438              		.loc 1 462 3 view .LVU118
 439 003c 03A9     		add	r1, sp, #12
 440              	.LBE73:
 441              	.LBE79:
 381:Drivers/BSP/STM32F4-Discovery/stm32f4_discovery.c ****     I2cHandle.Instance = DISCOVERY_I2Cx;
 442              		.loc 1 381 35 view .LVU119
 443 003e 4FF48043 		mov	r3, #16384
 444 0042 C6E903C3 		strd	ip, r3, [r6, #12]
 445              	.LBB80:
 446              	.LBB74:
 447              	.LBB67:
 454:Drivers/BSP/STM32F4-Discovery/stm32f4_discovery.c **** 
 448              		.loc 1 454 3 view .LVU120
 449 0046 019A     		ldr	r2, [sp, #4]
 450              	.LBE67:
 451              	.LBE74:
 452              	.LBE80:
 379:Drivers/BSP/STM32F4-Discovery/stm32f4_discovery.c ****     I2cHandle.Init.OwnAddress1 = 0x33;
 453              		.loc 1 379 30 view .LVU121
 454 0048 B560     		str	r5, [r6, #8]
 380:Drivers/BSP/STM32F4-Discovery/stm32f4_discovery.c ****     I2cHandle.Init.AddressingMode = I2C_ADDRESSINGMODE_7BIT;
 455              		.loc 1 380 5 is_stmt 1 view .LVU122
 382:Drivers/BSP/STM32F4-Discovery/stm32f4_discovery.c ****       
 456              		.loc 1 382 5 view .LVU123
 385:Drivers/BSP/STM32F4-Discovery/stm32f4_discovery.c ****     HAL_I2C_Init(&I2cHandle);
 457              		.loc 1 385 5 view .LVU124
 458              	.LBB81:
 459              	.LBI61:
 449:Drivers/BSP/STM32F4-Discovery/stm32f4_discovery.c **** {
 460              		.loc 1 449 13 view .LVU125
 461              	.LBB75:
 451:Drivers/BSP/STM32F4-Discovery/stm32f4_discovery.c **** 
 462              		.loc 1 451 3 view .LVU126
 454:Drivers/BSP/STM32F4-Discovery/stm32f4_discovery.c **** 
 463              		.loc 1 454 3 view .LVU127
ARM GAS  /var/folders/0z/tsy30v1j4xl4_7kw94k978ww0000gn/T//ccvYDrVp.s 			page 19


 464              	.LBB68:
 454:Drivers/BSP/STM32F4-Discovery/stm32f4_discovery.c **** 
 465              		.loc 1 454 3 view .LVU128
 454:Drivers/BSP/STM32F4-Discovery/stm32f4_discovery.c **** 
 466              		.loc 1 454 3 view .LVU129
 454:Drivers/BSP/STM32F4-Discovery/stm32f4_discovery.c **** 
 467              		.loc 1 454 3 view .LVU130
 454:Drivers/BSP/STM32F4-Discovery/stm32f4_discovery.c **** 
 468              		.loc 1 454 3 view .LVU131
 469              	.LBE68:
 454:Drivers/BSP/STM32F4-Discovery/stm32f4_discovery.c **** 
 470              		.loc 1 454 3 view .LVU132
 457:Drivers/BSP/STM32F4-Discovery/stm32f4_discovery.c ****   GPIO_InitStruct.Mode = GPIO_MODE_AF_OD;
 471              		.loc 1 457 3 view .LVU133
 458:Drivers/BSP/STM32F4-Discovery/stm32f4_discovery.c ****   GPIO_InitStruct.Speed = GPIO_SPEED_FAST;
 472              		.loc 1 458 3 view .LVU134
 459:Drivers/BSP/STM32F4-Discovery/stm32f4_discovery.c ****   GPIO_InitStruct.Pull  = GPIO_NOPULL;
 473              		.loc 1 459 3 view .LVU135
 460:Drivers/BSP/STM32F4-Discovery/stm32f4_discovery.c ****   GPIO_InitStruct.Alternate  = DISCOVERY_I2Cx_SCL_SDA_AF;
 474              		.loc 1 460 3 view .LVU136
 461:Drivers/BSP/STM32F4-Discovery/stm32f4_discovery.c ****   HAL_GPIO_Init(DISCOVERY_I2Cx_SCL_SDA_GPIO_PORT, &GPIO_InitStruct);     
 475              		.loc 1 461 3 view .LVU137
 476              		.loc 1 462 3 view .LVU138
 460:Drivers/BSP/STM32F4-Discovery/stm32f4_discovery.c ****   GPIO_InitStruct.Alternate  = DISCOVERY_I2Cx_SCL_SDA_AF;
 477              		.loc 1 460 25 is_stmt 0 view .LVU139
 478 004a 0595     		str	r5, [sp, #20]
 479              		.loc 1 462 3 view .LVU140
 480 004c FFF7FEFF 		bl	HAL_GPIO_Init
 481              	.LVL8:
 463:Drivers/BSP/STM32F4-Discovery/stm32f4_discovery.c **** 
 464:Drivers/BSP/STM32F4-Discovery/stm32f4_discovery.c ****   /* Enable the DISCOVERY_I2Cx peripheral clock */
 465:Drivers/BSP/STM32F4-Discovery/stm32f4_discovery.c ****   DISCOVERY_I2Cx_CLK_ENABLE();
 482              		.loc 1 465 3 is_stmt 1 view .LVU141
 483              	.LBB69:
 484              		.loc 1 465 3 view .LVU142
 485 0050 0295     		str	r5, [sp, #8]
 486              		.loc 1 465 3 view .LVU143
 487 0052 236C     		ldr	r3, [r4, #64]
 488 0054 43F40013 		orr	r3, r3, #2097152
 489 0058 2364     		str	r3, [r4, #64]
 490              		.loc 1 465 3 view .LVU144
 491 005a 236C     		ldr	r3, [r4, #64]
 492 005c 03F40013 		and	r3, r3, #2097152
 493 0060 0293     		str	r3, [sp, #8]
 494              		.loc 1 465 3 view .LVU145
 495 0062 029B     		ldr	r3, [sp, #8]
 496              	.LBE69:
 497              		.loc 1 465 3 view .LVU146
 466:Drivers/BSP/STM32F4-Discovery/stm32f4_discovery.c **** 
 467:Drivers/BSP/STM32F4-Discovery/stm32f4_discovery.c ****   /* Force the I2C peripheral clock reset */
 468:Drivers/BSP/STM32F4-Discovery/stm32f4_discovery.c ****   DISCOVERY_I2Cx_FORCE_RESET();
 498              		.loc 1 468 3 view .LVU147
 499 0064 236A     		ldr	r3, [r4, #32]
 500 0066 43F40013 		orr	r3, r3, #2097152
 501 006a 2362     		str	r3, [r4, #32]
 469:Drivers/BSP/STM32F4-Discovery/stm32f4_discovery.c **** 
 470:Drivers/BSP/STM32F4-Discovery/stm32f4_discovery.c ****   /* Release the I2C peripheral clock reset */
ARM GAS  /var/folders/0z/tsy30v1j4xl4_7kw94k978ww0000gn/T//ccvYDrVp.s 			page 20


 471:Drivers/BSP/STM32F4-Discovery/stm32f4_discovery.c ****   DISCOVERY_I2Cx_RELEASE_RESET();
 502              		.loc 1 471 3 view .LVU148
 503 006c 236A     		ldr	r3, [r4, #32]
 504 006e 23F40013 		bic	r3, r3, #2097152
 505 0072 2362     		str	r3, [r4, #32]
 472:Drivers/BSP/STM32F4-Discovery/stm32f4_discovery.c **** 
 473:Drivers/BSP/STM32F4-Discovery/stm32f4_discovery.c ****   /* Enable and set I2Cx Interrupt to the highest priority */
 474:Drivers/BSP/STM32F4-Discovery/stm32f4_discovery.c ****   HAL_NVIC_SetPriority(DISCOVERY_I2Cx_EV_IRQn, 0, 0);
 506              		.loc 1 474 3 view .LVU149
 507 0074 2A46     		mov	r2, r5
 508 0076 2946     		mov	r1, r5
 509 0078 1F20     		movs	r0, #31
 510 007a FFF7FEFF 		bl	HAL_NVIC_SetPriority
 511              	.LVL9:
 475:Drivers/BSP/STM32F4-Discovery/stm32f4_discovery.c ****   HAL_NVIC_EnableIRQ(DISCOVERY_I2Cx_EV_IRQn);
 512              		.loc 1 475 3 view .LVU150
 513 007e 1F20     		movs	r0, #31
 514 0080 FFF7FEFF 		bl	HAL_NVIC_EnableIRQ
 515              	.LVL10:
 476:Drivers/BSP/STM32F4-Discovery/stm32f4_discovery.c **** 
 477:Drivers/BSP/STM32F4-Discovery/stm32f4_discovery.c ****   /* Enable and set I2Cx Interrupt to the highest priority */
 478:Drivers/BSP/STM32F4-Discovery/stm32f4_discovery.c ****   HAL_NVIC_SetPriority(DISCOVERY_I2Cx_ER_IRQn, 0, 0);
 516              		.loc 1 478 3 view .LVU151
 517 0084 2A46     		mov	r2, r5
 518 0086 2946     		mov	r1, r5
 519 0088 2020     		movs	r0, #32
 520 008a FFF7FEFF 		bl	HAL_NVIC_SetPriority
 521              	.LVL11:
 479:Drivers/BSP/STM32F4-Discovery/stm32f4_discovery.c ****   HAL_NVIC_EnableIRQ(DISCOVERY_I2Cx_ER_IRQn); 
 522              		.loc 1 479 3 view .LVU152
 523 008e 2020     		movs	r0, #32
 524 0090 FFF7FEFF 		bl	HAL_NVIC_EnableIRQ
 525              	.LVL12:
 526              	.LBE75:
 527              	.LBE81:
 386:Drivers/BSP/STM32F4-Discovery/stm32f4_discovery.c ****   }
 528              		.loc 1 386 5 view .LVU153
 529 0094 3046     		mov	r0, r6
 388:Drivers/BSP/STM32F4-Discovery/stm32f4_discovery.c **** 
 530              		.loc 1 388 1 is_stmt 0 view .LVU154
 531 0096 08B0     		add	sp, sp, #32
 532              		.cfi_def_cfa_offset 16
 533              		@ sp needed
 534 0098 BDE87040 		pop	{r4, r5, r6, lr}
 535              		.cfi_restore 14
 536              		.cfi_restore 6
 537              		.cfi_restore 5
 538              		.cfi_restore 4
 539              		.cfi_def_cfa_offset 0
 386:Drivers/BSP/STM32F4-Discovery/stm32f4_discovery.c ****   }
 540              		.loc 1 386 5 view .LVU155
 541 009c FFF7FEBF 		b	HAL_I2C_Init
 542              	.LVL13:
 543              	.L17:
 544              		.align	2
 545              	.L16:
 546 00a0 00380240 		.word	1073887232
ARM GAS  /var/folders/0z/tsy30v1j4xl4_7kw94k978ww0000gn/T//ccvYDrVp.s 			page 21


 547 00a4 00000000 		.word	.LANCHOR2
 548 00a8 00540040 		.word	1073763328
 549 00ac 00040240 		.word	1073873920
 550 00b0 A0860100 		.word	100000
 551              		.cfi_endproc
 552              	.LFE261:
 554              		.section	.text.BSP_GetVersion,"ax",%progbits
 555              		.align	1
 556              		.p2align 2,,3
 557              		.global	BSP_GetVersion
 558              		.syntax unified
 559              		.thumb
 560              		.thumb_func
 562              	BSP_GetVersion:
 563              	.LFB235:
 140:Drivers/BSP/STM32F4-Discovery/stm32f4_discovery.c ****   return __STM32F4_DISCO_BSP_VERSION;
 564              		.loc 1 140 1 is_stmt 1 view -0
 565              		.cfi_startproc
 566              		@ args = 0, pretend = 0, frame = 0
 567              		@ frame_needed = 0, uses_anonymous_args = 0
 568              		@ link register save eliminated.
 141:Drivers/BSP/STM32F4-Discovery/stm32f4_discovery.c **** }
 569              		.loc 1 141 3 view .LVU157
 142:Drivers/BSP/STM32F4-Discovery/stm32f4_discovery.c **** 
 570              		.loc 1 142 1 is_stmt 0 view .LVU158
 571 0000 0048     		ldr	r0, .L19
 572 0002 7047     		bx	lr
 573              	.L20:
 574              		.align	2
 575              	.L19:
 576 0004 00040102 		.word	33620992
 577              		.cfi_endproc
 578              	.LFE235:
 580              		.section	.text.BSP_LED_Init,"ax",%progbits
 581              		.align	1
 582              		.p2align 2,,3
 583              		.global	BSP_LED_Init
 584              		.syntax unified
 585              		.thumb
 586              		.thumb_func
 588              	BSP_LED_Init:
 589              	.LVL14:
 590              	.LFB236:
 154:Drivers/BSP/STM32F4-Discovery/stm32f4_discovery.c ****   GPIO_InitTypeDef  GPIO_InitStruct;
 591              		.loc 1 154 1 is_stmt 1 view -0
 592              		.cfi_startproc
 593              		@ args = 0, pretend = 0, frame = 40
 594              		@ frame_needed = 0, uses_anonymous_args = 0
 155:Drivers/BSP/STM32F4-Discovery/stm32f4_discovery.c ****   
 595              		.loc 1 155 3 view .LVU160
 158:Drivers/BSP/STM32F4-Discovery/stm32f4_discovery.c **** 
 596              		.loc 1 158 3 view .LVU161
 158:Drivers/BSP/STM32F4-Discovery/stm32f4_discovery.c **** 
 597              		.loc 1 158 3 view .LVU162
 154:Drivers/BSP/STM32F4-Discovery/stm32f4_discovery.c ****   GPIO_InitTypeDef  GPIO_InitStruct;
 598              		.loc 1 154 1 is_stmt 0 view .LVU163
 599 0000 70B5     		push	{r4, r5, r6, lr}
ARM GAS  /var/folders/0z/tsy30v1j4xl4_7kw94k978ww0000gn/T//ccvYDrVp.s 			page 22


 600              		.cfi_def_cfa_offset 16
 601              		.cfi_offset 4, -16
 602              		.cfi_offset 5, -12
 603              		.cfi_offset 6, -8
 604              		.cfi_offset 14, -4
 605 0002 0446     		mov	r4, r0
 606 0004 8AB0     		sub	sp, sp, #40
 607              		.cfi_def_cfa_offset 56
 608 0006 0328     		cmp	r0, #3
 609 0008 0FD8     		bhi	.L22
 610 000a DFE800F0 		tbb	[pc, r0]
 611              	.L24:
 612 000e 02       		.byte	(.L27-.L24)/2
 613 000f 3F       		.byte	(.L26-.L24)/2
 614 0010 32       		.byte	(.L25-.L24)/2
 615 0011 25       		.byte	(.L23-.L24)/2
 616              		.p2align 1
 617              	.L27:
 158:Drivers/BSP/STM32F4-Discovery/stm32f4_discovery.c **** 
 618              		.loc 1 158 3 is_stmt 1 discriminator 1 view .LVU164
 619              	.LBB82:
 158:Drivers/BSP/STM32F4-Discovery/stm32f4_discovery.c **** 
 620              		.loc 1 158 3 discriminator 1 view .LVU165
 621 0012 254B     		ldr	r3, .L30
 622 0014 0022     		movs	r2, #0
 623 0016 0192     		str	r2, [sp, #4]
 158:Drivers/BSP/STM32F4-Discovery/stm32f4_discovery.c **** 
 624              		.loc 1 158 3 discriminator 1 view .LVU166
 625 0018 1A6B     		ldr	r2, [r3, #48]
 626 001a 42F00802 		orr	r2, r2, #8
 627 001e 1A63     		str	r2, [r3, #48]
 158:Drivers/BSP/STM32F4-Discovery/stm32f4_discovery.c **** 
 628              		.loc 1 158 3 discriminator 1 view .LVU167
 629 0020 1B6B     		ldr	r3, [r3, #48]
 630 0022 03F00803 		and	r3, r3, #8
 631 0026 0193     		str	r3, [sp, #4]
 158:Drivers/BSP/STM32F4-Discovery/stm32f4_discovery.c **** 
 632              		.loc 1 158 3 discriminator 1 view .LVU168
 633 0028 019B     		ldr	r3, [sp, #4]
 634              	.LBE82:
 158:Drivers/BSP/STM32F4-Discovery/stm32f4_discovery.c **** 
 635              		.loc 1 158 3 discriminator 1 view .LVU169
 636              	.L22:
 158:Drivers/BSP/STM32F4-Discovery/stm32f4_discovery.c **** 
 637              		.loc 1 158 3 discriminator 12 view .LVU170
 158:Drivers/BSP/STM32F4-Discovery/stm32f4_discovery.c **** 
 638              		.loc 1 158 3 discriminator 12 view .LVU171
 161:Drivers/BSP/STM32F4-Discovery/stm32f4_discovery.c ****   GPIO_InitStruct.Mode = GPIO_MODE_OUTPUT_PP;
 639              		.loc 1 161 3 discriminator 12 view .LVU172
 161:Drivers/BSP/STM32F4-Discovery/stm32f4_discovery.c ****   GPIO_InitStruct.Mode = GPIO_MODE_OUTPUT_PP;
 640              		.loc 1 161 33 is_stmt 0 discriminator 12 view .LVU173
 641 002a 204B     		ldr	r3, .L30+4
 166:Drivers/BSP/STM32F4-Discovery/stm32f4_discovery.c ****   
 642              		.loc 1 166 3 discriminator 12 view .LVU174
 643 002c 204E     		ldr	r6, .L30+8
 161:Drivers/BSP/STM32F4-Discovery/stm32f4_discovery.c ****   GPIO_InitStruct.Mode = GPIO_MODE_OUTPUT_PP;
 644              		.loc 1 161 33 discriminator 12 view .LVU175
ARM GAS  /var/folders/0z/tsy30v1j4xl4_7kw94k978ww0000gn/T//ccvYDrVp.s 			page 23


 645 002e 33F81450 		ldrh	r5, [r3, r4, lsl #1]
 166:Drivers/BSP/STM32F4-Discovery/stm32f4_discovery.c ****   
 646              		.loc 1 166 3 discriminator 12 view .LVU176
 647 0032 56F82400 		ldr	r0, [r6, r4, lsl #2]
 648              	.LVL15:
 162:Drivers/BSP/STM32F4-Discovery/stm32f4_discovery.c ****   GPIO_InitStruct.Pull = GPIO_PULLUP;
 649              		.loc 1 162 24 discriminator 12 view .LVU177
 650 0036 0123     		movs	r3, #1
 651 0038 CDE90553 		strd	r5, r3, [sp, #20]
 163:Drivers/BSP/STM32F4-Discovery/stm32f4_discovery.c ****   GPIO_InitStruct.Speed = GPIO_SPEED_FAST;
 652              		.loc 1 163 3 is_stmt 1 discriminator 12 view .LVU178
 163:Drivers/BSP/STM32F4-Discovery/stm32f4_discovery.c ****   GPIO_InitStruct.Speed = GPIO_SPEED_FAST;
 653              		.loc 1 163 24 is_stmt 0 discriminator 12 view .LVU179
 654 003c 0793     		str	r3, [sp, #28]
 164:Drivers/BSP/STM32F4-Discovery/stm32f4_discovery.c ****   
 655              		.loc 1 164 3 is_stmt 1 discriminator 12 view .LVU180
 166:Drivers/BSP/STM32F4-Discovery/stm32f4_discovery.c ****   
 656              		.loc 1 166 3 is_stmt 0 discriminator 12 view .LVU181
 657 003e 05A9     		add	r1, sp, #20
 164:Drivers/BSP/STM32F4-Discovery/stm32f4_discovery.c ****   
 658              		.loc 1 164 25 discriminator 12 view .LVU182
 659 0040 0223     		movs	r3, #2
 660 0042 0893     		str	r3, [sp, #32]
 166:Drivers/BSP/STM32F4-Discovery/stm32f4_discovery.c ****   
 661              		.loc 1 166 3 is_stmt 1 discriminator 12 view .LVU183
 662 0044 FFF7FEFF 		bl	HAL_GPIO_Init
 663              	.LVL16:
 168:Drivers/BSP/STM32F4-Discovery/stm32f4_discovery.c **** }
 664              		.loc 1 168 3 discriminator 12 view .LVU184
 665 0048 56F82400 		ldr	r0, [r6, r4, lsl #2]
 666 004c 0022     		movs	r2, #0
 667 004e 2946     		mov	r1, r5
 668 0050 FFF7FEFF 		bl	HAL_GPIO_WritePin
 669              	.LVL17:
 169:Drivers/BSP/STM32F4-Discovery/stm32f4_discovery.c **** 
 670              		.loc 1 169 1 is_stmt 0 discriminator 12 view .LVU185
 671 0054 0AB0     		add	sp, sp, #40
 672              		.cfi_remember_state
 673              		.cfi_def_cfa_offset 16
 674              		@ sp needed
 675 0056 70BD     		pop	{r4, r5, r6, pc}
 676              	.LVL18:
 677              	.L23:
 678              		.cfi_restore_state
 158:Drivers/BSP/STM32F4-Discovery/stm32f4_discovery.c **** 
 679              		.loc 1 158 3 is_stmt 1 discriminator 10 view .LVU186
 680              	.LBB83:
 158:Drivers/BSP/STM32F4-Discovery/stm32f4_discovery.c **** 
 681              		.loc 1 158 3 discriminator 10 view .LVU187
 682 0058 134B     		ldr	r3, .L30
 683 005a 0022     		movs	r2, #0
 684 005c 0492     		str	r2, [sp, #16]
 158:Drivers/BSP/STM32F4-Discovery/stm32f4_discovery.c **** 
 685              		.loc 1 158 3 discriminator 10 view .LVU188
 686 005e 1A6B     		ldr	r2, [r3, #48]
 687 0060 42F00802 		orr	r2, r2, #8
 688 0064 1A63     		str	r2, [r3, #48]
ARM GAS  /var/folders/0z/tsy30v1j4xl4_7kw94k978ww0000gn/T//ccvYDrVp.s 			page 24


 158:Drivers/BSP/STM32F4-Discovery/stm32f4_discovery.c **** 
 689              		.loc 1 158 3 discriminator 10 view .LVU189
 690 0066 1B6B     		ldr	r3, [r3, #48]
 691 0068 03F00803 		and	r3, r3, #8
 692 006c 0493     		str	r3, [sp, #16]
 158:Drivers/BSP/STM32F4-Discovery/stm32f4_discovery.c **** 
 693              		.loc 1 158 3 discriminator 10 view .LVU190
 694 006e 049B     		ldr	r3, [sp, #16]
 695 0070 DBE7     		b	.L22
 696              	.L25:
 697              	.LBE83:
 158:Drivers/BSP/STM32F4-Discovery/stm32f4_discovery.c **** 
 698              		.loc 1 158 3 discriminator 7 view .LVU191
 699              	.LBB84:
 158:Drivers/BSP/STM32F4-Discovery/stm32f4_discovery.c **** 
 700              		.loc 1 158 3 discriminator 7 view .LVU192
 701 0072 0D4B     		ldr	r3, .L30
 702 0074 0022     		movs	r2, #0
 703 0076 0392     		str	r2, [sp, #12]
 158:Drivers/BSP/STM32F4-Discovery/stm32f4_discovery.c **** 
 704              		.loc 1 158 3 discriminator 7 view .LVU193
 705 0078 1A6B     		ldr	r2, [r3, #48]
 706 007a 42F00802 		orr	r2, r2, #8
 707 007e 1A63     		str	r2, [r3, #48]
 158:Drivers/BSP/STM32F4-Discovery/stm32f4_discovery.c **** 
 708              		.loc 1 158 3 discriminator 7 view .LVU194
 709 0080 1B6B     		ldr	r3, [r3, #48]
 710 0082 03F00803 		and	r3, r3, #8
 711 0086 0393     		str	r3, [sp, #12]
 158:Drivers/BSP/STM32F4-Discovery/stm32f4_discovery.c **** 
 712              		.loc 1 158 3 discriminator 7 view .LVU195
 713 0088 039B     		ldr	r3, [sp, #12]
 714              	.LBE84:
 158:Drivers/BSP/STM32F4-Discovery/stm32f4_discovery.c **** 
 715              		.loc 1 158 3 discriminator 7 view .LVU196
 716 008a CEE7     		b	.L22
 717              	.L26:
 158:Drivers/BSP/STM32F4-Discovery/stm32f4_discovery.c **** 
 718              		.loc 1 158 3 discriminator 4 view .LVU197
 719              	.LBB85:
 158:Drivers/BSP/STM32F4-Discovery/stm32f4_discovery.c **** 
 720              		.loc 1 158 3 discriminator 4 view .LVU198
 721 008c 064B     		ldr	r3, .L30
 722 008e 0022     		movs	r2, #0
 723 0090 0292     		str	r2, [sp, #8]
 158:Drivers/BSP/STM32F4-Discovery/stm32f4_discovery.c **** 
 724              		.loc 1 158 3 discriminator 4 view .LVU199
 725 0092 1A6B     		ldr	r2, [r3, #48]
 726 0094 42F00802 		orr	r2, r2, #8
 727 0098 1A63     		str	r2, [r3, #48]
 158:Drivers/BSP/STM32F4-Discovery/stm32f4_discovery.c **** 
 728              		.loc 1 158 3 discriminator 4 view .LVU200
 729 009a 1B6B     		ldr	r3, [r3, #48]
 730 009c 03F00803 		and	r3, r3, #8
 731 00a0 0293     		str	r3, [sp, #8]
 158:Drivers/BSP/STM32F4-Discovery/stm32f4_discovery.c **** 
 732              		.loc 1 158 3 discriminator 4 view .LVU201
ARM GAS  /var/folders/0z/tsy30v1j4xl4_7kw94k978ww0000gn/T//ccvYDrVp.s 			page 25


 733 00a2 029B     		ldr	r3, [sp, #8]
 734              	.LBE85:
 158:Drivers/BSP/STM32F4-Discovery/stm32f4_discovery.c **** 
 735              		.loc 1 158 3 discriminator 4 view .LVU202
 736 00a4 C1E7     		b	.L22
 737              	.L31:
 738 00a6 00BF     		.align	2
 739              	.L30:
 740 00a8 00380240 		.word	1073887232
 741 00ac 00000000 		.word	.LANCHOR3
 742 00b0 00000000 		.word	.LANCHOR4
 743              		.cfi_endproc
 744              	.LFE236:
 746              		.section	.text.BSP_LED_On,"ax",%progbits
 747              		.align	1
 748              		.p2align 2,,3
 749              		.global	BSP_LED_On
 750              		.syntax unified
 751              		.thumb
 752              		.thumb_func
 754              	BSP_LED_On:
 755              	.LVL19:
 756              	.LFB237:
 181:Drivers/BSP/STM32F4-Discovery/stm32f4_discovery.c ****   HAL_GPIO_WritePin(GPIO_PORT[Led], GPIO_PIN[Led], GPIO_PIN_SET); 
 757              		.loc 1 181 1 view -0
 758              		.cfi_startproc
 759              		@ args = 0, pretend = 0, frame = 0
 760              		@ frame_needed = 0, uses_anonymous_args = 0
 761              		@ link register save eliminated.
 182:Drivers/BSP/STM32F4-Discovery/stm32f4_discovery.c **** }
 762              		.loc 1 182 3 view .LVU204
 182:Drivers/BSP/STM32F4-Discovery/stm32f4_discovery.c **** }
 763              		.loc 1 182 45 is_stmt 0 view .LVU205
 764 0000 044A     		ldr	r2, .L33
 182:Drivers/BSP/STM32F4-Discovery/stm32f4_discovery.c **** }
 765              		.loc 1 182 3 view .LVU206
 766 0002 054B     		ldr	r3, .L33+4
 767 0004 32F81010 		ldrh	r1, [r2, r0, lsl #1]
 768 0008 53F82000 		ldr	r0, [r3, r0, lsl #2]
 769              	.LVL20:
 182:Drivers/BSP/STM32F4-Discovery/stm32f4_discovery.c **** }
 770              		.loc 1 182 3 view .LVU207
 771 000c 0122     		movs	r2, #1
 772 000e FFF7FEBF 		b	HAL_GPIO_WritePin
 773              	.LVL21:
 774              	.L34:
 775 0012 00BF     		.align	2
 776              	.L33:
 777 0014 00000000 		.word	.LANCHOR3
 778 0018 00000000 		.word	.LANCHOR4
 779              		.cfi_endproc
 780              	.LFE237:
 782              		.section	.text.BSP_LED_Off,"ax",%progbits
 783              		.align	1
 784              		.p2align 2,,3
 785              		.global	BSP_LED_Off
 786              		.syntax unified
ARM GAS  /var/folders/0z/tsy30v1j4xl4_7kw94k978ww0000gn/T//ccvYDrVp.s 			page 26


 787              		.thumb
 788              		.thumb_func
 790              	BSP_LED_Off:
 791              	.LVL22:
 792              	.LFB238:
 195:Drivers/BSP/STM32F4-Discovery/stm32f4_discovery.c ****   HAL_GPIO_WritePin(GPIO_PORT[Led], GPIO_PIN[Led], GPIO_PIN_RESET); 
 793              		.loc 1 195 1 is_stmt 1 view -0
 794              		.cfi_startproc
 795              		@ args = 0, pretend = 0, frame = 0
 796              		@ frame_needed = 0, uses_anonymous_args = 0
 797              		@ link register save eliminated.
 196:Drivers/BSP/STM32F4-Discovery/stm32f4_discovery.c **** }
 798              		.loc 1 196 3 view .LVU209
 196:Drivers/BSP/STM32F4-Discovery/stm32f4_discovery.c **** }
 799              		.loc 1 196 45 is_stmt 0 view .LVU210
 800 0000 044A     		ldr	r2, .L36
 196:Drivers/BSP/STM32F4-Discovery/stm32f4_discovery.c **** }
 801              		.loc 1 196 3 view .LVU211
 802 0002 054B     		ldr	r3, .L36+4
 803 0004 32F81010 		ldrh	r1, [r2, r0, lsl #1]
 804 0008 53F82000 		ldr	r0, [r3, r0, lsl #2]
 805              	.LVL23:
 196:Drivers/BSP/STM32F4-Discovery/stm32f4_discovery.c **** }
 806              		.loc 1 196 3 view .LVU212
 807 000c 0022     		movs	r2, #0
 808 000e FFF7FEBF 		b	HAL_GPIO_WritePin
 809              	.LVL24:
 810              	.L37:
 811 0012 00BF     		.align	2
 812              	.L36:
 813 0014 00000000 		.word	.LANCHOR3
 814 0018 00000000 		.word	.LANCHOR4
 815              		.cfi_endproc
 816              	.LFE238:
 818              		.section	.text.BSP_LED_Toggle,"ax",%progbits
 819              		.align	1
 820              		.p2align 2,,3
 821              		.global	BSP_LED_Toggle
 822              		.syntax unified
 823              		.thumb
 824              		.thumb_func
 826              	BSP_LED_Toggle:
 827              	.LVL25:
 828              	.LFB239:
 209:Drivers/BSP/STM32F4-Discovery/stm32f4_discovery.c ****   HAL_GPIO_TogglePin(GPIO_PORT[Led], GPIO_PIN[Led]);
 829              		.loc 1 209 1 is_stmt 1 view -0
 830              		.cfi_startproc
 831              		@ args = 0, pretend = 0, frame = 0
 832              		@ frame_needed = 0, uses_anonymous_args = 0
 833              		@ link register save eliminated.
 210:Drivers/BSP/STM32F4-Discovery/stm32f4_discovery.c **** }
 834              		.loc 1 210 3 view .LVU214
 210:Drivers/BSP/STM32F4-Discovery/stm32f4_discovery.c **** }
 835              		.loc 1 210 46 is_stmt 0 view .LVU215
 836 0000 034A     		ldr	r2, .L39
 210:Drivers/BSP/STM32F4-Discovery/stm32f4_discovery.c **** }
 837              		.loc 1 210 3 view .LVU216
ARM GAS  /var/folders/0z/tsy30v1j4xl4_7kw94k978ww0000gn/T//ccvYDrVp.s 			page 27


 838 0002 044B     		ldr	r3, .L39+4
 839 0004 32F81010 		ldrh	r1, [r2, r0, lsl #1]
 840 0008 53F82000 		ldr	r0, [r3, r0, lsl #2]
 841              	.LVL26:
 210:Drivers/BSP/STM32F4-Discovery/stm32f4_discovery.c **** }
 842              		.loc 1 210 3 view .LVU217
 843 000c FFF7FEBF 		b	HAL_GPIO_TogglePin
 844              	.LVL27:
 845              	.L40:
 846              		.align	2
 847              	.L39:
 848 0010 00000000 		.word	.LANCHOR3
 849 0014 00000000 		.word	.LANCHOR4
 850              		.cfi_endproc
 851              	.LFE239:
 853              		.section	.text.BSP_PB_Init,"ax",%progbits
 854              		.align	1
 855              		.p2align 2,,3
 856              		.global	BSP_PB_Init
 857              		.syntax unified
 858              		.thumb
 859              		.thumb_func
 861              	BSP_PB_Init:
 862              	.LVL28:
 863              	.LFB240:
 232:Drivers/BSP/STM32F4-Discovery/stm32f4_discovery.c ****   GPIO_InitTypeDef GPIO_InitStruct;
 864              		.loc 1 232 1 is_stmt 1 view -0
 865              		.cfi_startproc
 866              		@ args = 0, pretend = 0, frame = 24
 867              		@ frame_needed = 0, uses_anonymous_args = 0
 233:Drivers/BSP/STM32F4-Discovery/stm32f4_discovery.c ****   
 868              		.loc 1 233 3 view .LVU219
 236:Drivers/BSP/STM32F4-Discovery/stm32f4_discovery.c ****   
 869              		.loc 1 236 3 view .LVU220
 236:Drivers/BSP/STM32F4-Discovery/stm32f4_discovery.c ****   
 870              		.loc 1 236 3 view .LVU221
 232:Drivers/BSP/STM32F4-Discovery/stm32f4_discovery.c ****   GPIO_InitTypeDef GPIO_InitStruct;
 871              		.loc 1 232 1 is_stmt 0 view .LVU222
 872 0000 30B5     		push	{r4, r5, lr}
 873              		.cfi_def_cfa_offset 12
 874              		.cfi_offset 4, -12
 875              		.cfi_offset 5, -8
 876              		.cfi_offset 14, -4
 877 0002 0B46     		mov	r3, r1
 878 0004 87B0     		sub	sp, sp, #28
 879              		.cfi_def_cfa_offset 40
 236:Drivers/BSP/STM32F4-Discovery/stm32f4_discovery.c ****   
 880              		.loc 1 236 3 view .LVU223
 881 0006 50B9     		cbnz	r0, .L42
 236:Drivers/BSP/STM32F4-Discovery/stm32f4_discovery.c ****   
 882              		.loc 1 236 3 is_stmt 1 discriminator 1 view .LVU224
 883              	.LBB86:
 236:Drivers/BSP/STM32F4-Discovery/stm32f4_discovery.c ****   
 884              		.loc 1 236 3 discriminator 1 view .LVU225
 885 0008 1A4A     		ldr	r2, .L48
 886 000a 0090     		str	r0, [sp]
 236:Drivers/BSP/STM32F4-Discovery/stm32f4_discovery.c ****   
ARM GAS  /var/folders/0z/tsy30v1j4xl4_7kw94k978ww0000gn/T//ccvYDrVp.s 			page 28


 887              		.loc 1 236 3 discriminator 1 view .LVU226
 888 000c 116B     		ldr	r1, [r2, #48]
 889              	.LVL29:
 236:Drivers/BSP/STM32F4-Discovery/stm32f4_discovery.c ****   
 890              		.loc 1 236 3 is_stmt 0 discriminator 1 view .LVU227
 891 000e 41F00101 		orr	r1, r1, #1
 892 0012 1163     		str	r1, [r2, #48]
 236:Drivers/BSP/STM32F4-Discovery/stm32f4_discovery.c ****   
 893              		.loc 1 236 3 is_stmt 1 discriminator 1 view .LVU228
 894 0014 126B     		ldr	r2, [r2, #48]
 895 0016 02F00102 		and	r2, r2, #1
 896 001a 0092     		str	r2, [sp]
 236:Drivers/BSP/STM32F4-Discovery/stm32f4_discovery.c ****   
 897              		.loc 1 236 3 discriminator 1 view .LVU229
 898 001c 009A     		ldr	r2, [sp]
 899              	.L42:
 900              	.LBE86:
 236:Drivers/BSP/STM32F4-Discovery/stm32f4_discovery.c ****   
 901              		.loc 1 236 3 discriminator 3 view .LVU230
 236:Drivers/BSP/STM32F4-Discovery/stm32f4_discovery.c ****   
 902              		.loc 1 236 3 discriminator 3 view .LVU231
 238:Drivers/BSP/STM32F4-Discovery/stm32f4_discovery.c ****   {
 903              		.loc 1 238 3 discriminator 3 view .LVU232
 238:Drivers/BSP/STM32F4-Discovery/stm32f4_discovery.c ****   {
 904              		.loc 1 238 6 is_stmt 0 discriminator 3 view .LVU233
 905 001e DBB1     		cbz	r3, .L46
 249:Drivers/BSP/STM32F4-Discovery/stm32f4_discovery.c ****   {
 906              		.loc 1 249 3 is_stmt 1 view .LVU234
 249:Drivers/BSP/STM32F4-Discovery/stm32f4_discovery.c ****   {
 907              		.loc 1 249 6 is_stmt 0 view .LVU235
 908 0020 012B     		cmp	r3, #1
 909 0022 01D0     		beq	.L47
 262:Drivers/BSP/STM32F4-Discovery/stm32f4_discovery.c **** 
 910              		.loc 1 262 1 view .LVU236
 911 0024 07B0     		add	sp, sp, #28
 912              		.cfi_remember_state
 913              		.cfi_def_cfa_offset 12
 914              		@ sp needed
 915 0026 30BD     		pop	{r4, r5, pc}
 916              	.L47:
 917              		.cfi_restore_state
 252:Drivers/BSP/STM32F4-Discovery/stm32f4_discovery.c ****     GPIO_InitStruct.Pull = GPIO_NOPULL;
 918              		.loc 1 252 5 is_stmt 1 view .LVU237
 256:Drivers/BSP/STM32F4-Discovery/stm32f4_discovery.c ****     
 919              		.loc 1 256 5 is_stmt 0 view .LVU238
 920 0028 134A     		ldr	r2, .L48+4
 253:Drivers/BSP/STM32F4-Discovery/stm32f4_discovery.c ****     GPIO_InitStruct.Speed = GPIO_SPEED_FAST;
 921              		.loc 1 253 26 view .LVU239
 922 002a 0024     		movs	r4, #0
 256:Drivers/BSP/STM32F4-Discovery/stm32f4_discovery.c ****     
 923              		.loc 1 256 5 view .LVU240
 924 002c 52F82000 		ldr	r0, [r2, r0, lsl #2]
 925              	.LVL30:
 256:Drivers/BSP/STM32F4-Discovery/stm32f4_discovery.c ****     
 926              		.loc 1 256 5 view .LVU241
 927 0030 01A9     		add	r1, sp, #4
 254:Drivers/BSP/STM32F4-Discovery/stm32f4_discovery.c ****     GPIO_InitStruct.Mode = GPIO_MODE_IT_RISING; 
ARM GAS  /var/folders/0z/tsy30v1j4xl4_7kw94k978ww0000gn/T//ccvYDrVp.s 			page 29


 928              		.loc 1 254 27 view .LVU242
 929 0032 0222     		movs	r2, #2
 255:Drivers/BSP/STM32F4-Discovery/stm32f4_discovery.c ****     HAL_GPIO_Init(BUTTON_PORT[Button], &GPIO_InitStruct);
 930              		.loc 1 255 26 view .LVU243
 931 0034 4FF48815 		mov	r5, #1114112
 252:Drivers/BSP/STM32F4-Discovery/stm32f4_discovery.c ****     GPIO_InitStruct.Pull = GPIO_NOPULL;
 932              		.loc 1 252 25 view .LVU244
 933 0038 CDE90135 		strd	r3, r5, [sp, #4]
 253:Drivers/BSP/STM32F4-Discovery/stm32f4_discovery.c ****     GPIO_InitStruct.Speed = GPIO_SPEED_FAST;
 934              		.loc 1 253 5 is_stmt 1 view .LVU245
 254:Drivers/BSP/STM32F4-Discovery/stm32f4_discovery.c ****     GPIO_InitStruct.Mode = GPIO_MODE_IT_RISING; 
 935              		.loc 1 254 27 is_stmt 0 view .LVU246
 936 003c CDE90342 		strd	r4, r2, [sp, #12]
 255:Drivers/BSP/STM32F4-Discovery/stm32f4_discovery.c ****     HAL_GPIO_Init(BUTTON_PORT[Button], &GPIO_InitStruct);
 937              		.loc 1 255 5 is_stmt 1 view .LVU247
 256:Drivers/BSP/STM32F4-Discovery/stm32f4_discovery.c ****     
 938              		.loc 1 256 5 view .LVU248
 939 0040 FFF7FEFF 		bl	HAL_GPIO_Init
 940              	.LVL31:
 259:Drivers/BSP/STM32F4-Discovery/stm32f4_discovery.c ****     HAL_NVIC_EnableIRQ((IRQn_Type)(BUTTON_IRQn[Button]));
 941              		.loc 1 259 5 view .LVU249
 942 0044 2246     		mov	r2, r4
 943 0046 0F21     		movs	r1, #15
 944 0048 0620     		movs	r0, #6
 945 004a FFF7FEFF 		bl	HAL_NVIC_SetPriority
 946              	.LVL32:
 260:Drivers/BSP/STM32F4-Discovery/stm32f4_discovery.c ****   }
 947              		.loc 1 260 5 view .LVU250
 948 004e 0620     		movs	r0, #6
 949 0050 FFF7FEFF 		bl	HAL_NVIC_EnableIRQ
 950              	.LVL33:
 262:Drivers/BSP/STM32F4-Discovery/stm32f4_discovery.c **** 
 951              		.loc 1 262 1 is_stmt 0 view .LVU251
 952 0054 07B0     		add	sp, sp, #28
 953              		.cfi_remember_state
 954              		.cfi_def_cfa_offset 12
 955              		@ sp needed
 956 0056 30BD     		pop	{r4, r5, pc}
 957              	.LVL34:
 958              	.L46:
 959              		.cfi_restore_state
 241:Drivers/BSP/STM32F4-Discovery/stm32f4_discovery.c ****     GPIO_InitStruct.Mode = GPIO_MODE_INPUT;
 960              		.loc 1 241 5 is_stmt 1 view .LVU252
 246:Drivers/BSP/STM32F4-Discovery/stm32f4_discovery.c ****   }
 961              		.loc 1 246 5 is_stmt 0 view .LVU253
 962 0058 074C     		ldr	r4, .L48+4
 241:Drivers/BSP/STM32F4-Discovery/stm32f4_discovery.c ****     GPIO_InitStruct.Mode = GPIO_MODE_INPUT;
 963              		.loc 1 241 25 view .LVU254
 964 005a 0121     		movs	r1, #1
 244:Drivers/BSP/STM32F4-Discovery/stm32f4_discovery.c ****     
 965              		.loc 1 244 27 view .LVU255
 966 005c 0222     		movs	r2, #2
 241:Drivers/BSP/STM32F4-Discovery/stm32f4_discovery.c ****     GPIO_InitStruct.Mode = GPIO_MODE_INPUT;
 967              		.loc 1 241 25 view .LVU256
 968 005e 0191     		str	r1, [sp, #4]
 242:Drivers/BSP/STM32F4-Discovery/stm32f4_discovery.c ****     GPIO_InitStruct.Pull = GPIO_NOPULL;
 969              		.loc 1 242 5 is_stmt 1 view .LVU257
ARM GAS  /var/folders/0z/tsy30v1j4xl4_7kw94k978ww0000gn/T//ccvYDrVp.s 			page 30


 246:Drivers/BSP/STM32F4-Discovery/stm32f4_discovery.c ****   }
 970              		.loc 1 246 5 is_stmt 0 view .LVU258
 971 0060 54F82000 		ldr	r0, [r4, r0, lsl #2]
 972              	.LVL35:
 244:Drivers/BSP/STM32F4-Discovery/stm32f4_discovery.c ****     
 973              		.loc 1 244 27 view .LVU259
 974 0064 0492     		str	r2, [sp, #16]
 246:Drivers/BSP/STM32F4-Discovery/stm32f4_discovery.c ****   }
 975              		.loc 1 246 5 view .LVU260
 976 0066 01A9     		add	r1, sp, #4
 243:Drivers/BSP/STM32F4-Discovery/stm32f4_discovery.c ****     GPIO_InitStruct.Speed = GPIO_SPEED_FAST;
 977              		.loc 1 243 26 view .LVU261
 978 0068 CDE90233 		strd	r3, r3, [sp, #8]
 244:Drivers/BSP/STM32F4-Discovery/stm32f4_discovery.c ****     
 979              		.loc 1 244 5 is_stmt 1 view .LVU262
 246:Drivers/BSP/STM32F4-Discovery/stm32f4_discovery.c ****   }
 980              		.loc 1 246 5 view .LVU263
 981 006c FFF7FEFF 		bl	HAL_GPIO_Init
 982              	.LVL36:
 249:Drivers/BSP/STM32F4-Discovery/stm32f4_discovery.c ****   {
 983              		.loc 1 249 3 view .LVU264
 262:Drivers/BSP/STM32F4-Discovery/stm32f4_discovery.c **** 
 984              		.loc 1 262 1 is_stmt 0 view .LVU265
 985 0070 07B0     		add	sp, sp, #28
 986              		.cfi_def_cfa_offset 12
 987              		@ sp needed
 988 0072 30BD     		pop	{r4, r5, pc}
 989              	.L49:
 990              		.align	2
 991              	.L48:
 992 0074 00380240 		.word	1073887232
 993 0078 00000000 		.word	.LANCHOR5
 994              		.cfi_endproc
 995              	.LFE240:
 997              		.section	.text.BSP_PB_GetState,"ax",%progbits
 998              		.align	1
 999              		.p2align 2,,3
 1000              		.global	BSP_PB_GetState
 1001              		.syntax unified
 1002              		.thumb
 1003              		.thumb_func
 1005              	BSP_PB_GetState:
 1006              	.LVL37:
 1007              	.LFB241:
 271:Drivers/BSP/STM32F4-Discovery/stm32f4_discovery.c ****   return HAL_GPIO_ReadPin(BUTTON_PORT[Button], BUTTON_PIN[Button]);
 1008              		.loc 1 271 1 is_stmt 1 view -0
 1009              		.cfi_startproc
 1010              		@ args = 0, pretend = 0, frame = 0
 1011              		@ frame_needed = 0, uses_anonymous_args = 0
 272:Drivers/BSP/STM32F4-Discovery/stm32f4_discovery.c **** }
 1012              		.loc 1 272 3 view .LVU267
 271:Drivers/BSP/STM32F4-Discovery/stm32f4_discovery.c ****   return HAL_GPIO_ReadPin(BUTTON_PORT[Button], BUTTON_PIN[Button]);
 1013              		.loc 1 271 1 is_stmt 0 view .LVU268
 1014 0000 08B5     		push	{r3, lr}
 1015              		.cfi_def_cfa_offset 8
 1016              		.cfi_offset 3, -8
 1017              		.cfi_offset 14, -4
ARM GAS  /var/folders/0z/tsy30v1j4xl4_7kw94k978ww0000gn/T//ccvYDrVp.s 			page 31


 272:Drivers/BSP/STM32F4-Discovery/stm32f4_discovery.c **** }
 1018              		.loc 1 272 10 view .LVU269
 1019 0002 034B     		ldr	r3, .L52
 1020 0004 0121     		movs	r1, #1
 1021 0006 53F82000 		ldr	r0, [r3, r0, lsl #2]
 1022              	.LVL38:
 272:Drivers/BSP/STM32F4-Discovery/stm32f4_discovery.c **** }
 1023              		.loc 1 272 10 view .LVU270
 1024 000a FFF7FEFF 		bl	HAL_GPIO_ReadPin
 1025              	.LVL39:
 273:Drivers/BSP/STM32F4-Discovery/stm32f4_discovery.c **** 
 1026              		.loc 1 273 1 view .LVU271
 1027 000e 08BD     		pop	{r3, pc}
 1028              	.L53:
 1029              		.align	2
 1030              	.L52:
 1031 0010 00000000 		.word	.LANCHOR5
 1032              		.cfi_endproc
 1033              	.LFE241:
 1035              		.section	.text.ACCELERO_IO_Init,"ax",%progbits
 1036              		.align	1
 1037              		.p2align 2,,3
 1038              		.global	ACCELERO_IO_Init
 1039              		.syntax unified
 1040              		.thumb
 1041              		.thumb_func
 1043              	ACCELERO_IO_Init:
 1044              	.LFB251:
 480:Drivers/BSP/STM32F4-Discovery/stm32f4_discovery.c **** }
 481:Drivers/BSP/STM32F4-Discovery/stm32f4_discovery.c **** 
 482:Drivers/BSP/STM32F4-Discovery/stm32f4_discovery.c **** /*******************************************************************************
 483:Drivers/BSP/STM32F4-Discovery/stm32f4_discovery.c ****                             LINK OPERATIONS
 484:Drivers/BSP/STM32F4-Discovery/stm32f4_discovery.c **** *******************************************************************************/
 485:Drivers/BSP/STM32F4-Discovery/stm32f4_discovery.c **** 
 486:Drivers/BSP/STM32F4-Discovery/stm32f4_discovery.c **** /***************************** LINK ACCELEROMETER *****************************/
 487:Drivers/BSP/STM32F4-Discovery/stm32f4_discovery.c **** 
 488:Drivers/BSP/STM32F4-Discovery/stm32f4_discovery.c **** /**
 489:Drivers/BSP/STM32F4-Discovery/stm32f4_discovery.c ****   * @brief  Configures the Accelerometer SPI interface.
 490:Drivers/BSP/STM32F4-Discovery/stm32f4_discovery.c ****   */
 491:Drivers/BSP/STM32F4-Discovery/stm32f4_discovery.c **** void ACCELERO_IO_Init(void)
 492:Drivers/BSP/STM32F4-Discovery/stm32f4_discovery.c **** {
 1045              		.loc 1 492 1 is_stmt 1 view -0
 1046              		.cfi_startproc
 1047              		@ args = 0, pretend = 0, frame = 24
 1048              		@ frame_needed = 0, uses_anonymous_args = 0
 493:Drivers/BSP/STM32F4-Discovery/stm32f4_discovery.c ****   GPIO_InitTypeDef GPIO_InitStructure;
 1049              		.loc 1 493 3 view .LVU273
 494:Drivers/BSP/STM32F4-Discovery/stm32f4_discovery.c ****   
 495:Drivers/BSP/STM32F4-Discovery/stm32f4_discovery.c ****   /* Configure the Accelerometer Control pins --------------------------------*/
 496:Drivers/BSP/STM32F4-Discovery/stm32f4_discovery.c ****   /* Enable CS GPIO clock and configure GPIO pin for Accelerometer Chip select */  
 497:Drivers/BSP/STM32F4-Discovery/stm32f4_discovery.c ****   ACCELERO_CS_GPIO_CLK_ENABLE();
 1050              		.loc 1 497 3 view .LVU274
 1051              	.LBB90:
 1052              		.loc 1 497 3 view .LVU275
 1053              	.LBE90:
 492:Drivers/BSP/STM32F4-Discovery/stm32f4_discovery.c ****   GPIO_InitTypeDef GPIO_InitStructure;
 1054              		.loc 1 492 1 is_stmt 0 view .LVU276
ARM GAS  /var/folders/0z/tsy30v1j4xl4_7kw94k978ww0000gn/T//ccvYDrVp.s 			page 32


 1055 0000 70B5     		push	{r4, r5, r6, lr}
 1056              		.cfi_def_cfa_offset 16
 1057              		.cfi_offset 4, -16
 1058              		.cfi_offset 5, -12
 1059              		.cfi_offset 6, -8
 1060              		.cfi_offset 14, -4
 1061 0002 86B0     		sub	sp, sp, #24
 1062              		.cfi_def_cfa_offset 40
 1063              	.LBB91:
 1064              		.loc 1 497 3 view .LVU277
 1065 0004 124B     		ldr	r3, .L58
 1066              	.LBE91:
 498:Drivers/BSP/STM32F4-Discovery/stm32f4_discovery.c ****   
 499:Drivers/BSP/STM32F4-Discovery/stm32f4_discovery.c ****   /* Configure GPIO PIN for LIS Chip select */
 500:Drivers/BSP/STM32F4-Discovery/stm32f4_discovery.c ****   GPIO_InitStructure.Pin = ACCELERO_CS_PIN;
 501:Drivers/BSP/STM32F4-Discovery/stm32f4_discovery.c ****   GPIO_InitStructure.Mode = GPIO_MODE_OUTPUT_PP;
 502:Drivers/BSP/STM32F4-Discovery/stm32f4_discovery.c ****   GPIO_InitStructure.Pull  = GPIO_NOPULL;
 503:Drivers/BSP/STM32F4-Discovery/stm32f4_discovery.c ****   GPIO_InitStructure.Speed = GPIO_SPEED_MEDIUM;
 504:Drivers/BSP/STM32F4-Discovery/stm32f4_discovery.c ****   HAL_GPIO_Init(ACCELERO_CS_GPIO_PORT, &GPIO_InitStructure);
 1067              		.loc 1 504 3 view .LVU278
 1068 0006 1348     		ldr	r0, .L58+4
 1069              	.LBB92:
 497:Drivers/BSP/STM32F4-Discovery/stm32f4_discovery.c ****   
 1070              		.loc 1 497 3 view .LVU279
 1071 0008 0026     		movs	r6, #0
 1072 000a 0096     		str	r6, [sp]
 497:Drivers/BSP/STM32F4-Discovery/stm32f4_discovery.c ****   
 1073              		.loc 1 497 3 is_stmt 1 view .LVU280
 1074 000c 1A6B     		ldr	r2, [r3, #48]
 1075 000e 42F01002 		orr	r2, r2, #16
 1076 0012 1A63     		str	r2, [r3, #48]
 497:Drivers/BSP/STM32F4-Discovery/stm32f4_discovery.c ****   
 1077              		.loc 1 497 3 view .LVU281
 1078 0014 1B6B     		ldr	r3, [r3, #48]
 1079 0016 03F01003 		and	r3, r3, #16
 1080              	.LBE92:
 501:Drivers/BSP/STM32F4-Discovery/stm32f4_discovery.c ****   GPIO_InitStructure.Pull  = GPIO_NOPULL;
 1081              		.loc 1 501 27 is_stmt 0 view .LVU282
 1082 001a 0124     		movs	r4, #1
 500:Drivers/BSP/STM32F4-Discovery/stm32f4_discovery.c ****   GPIO_InitStructure.Mode = GPIO_MODE_OUTPUT_PP;
 1083              		.loc 1 500 26 view .LVU283
 1084 001c 0825     		movs	r5, #8
 1085              	.LBB93:
 497:Drivers/BSP/STM32F4-Discovery/stm32f4_discovery.c ****   
 1086              		.loc 1 497 3 view .LVU284
 1087 001e 0093     		str	r3, [sp]
 497:Drivers/BSP/STM32F4-Discovery/stm32f4_discovery.c ****   
 1088              		.loc 1 497 3 is_stmt 1 view .LVU285
 1089              	.LBE93:
 1090              		.loc 1 504 3 is_stmt 0 view .LVU286
 1091 0020 01A9     		add	r1, sp, #4
 1092              	.LBB94:
 497:Drivers/BSP/STM32F4-Discovery/stm32f4_discovery.c ****   
 1093              		.loc 1 497 3 view .LVU287
 1094 0022 009B     		ldr	r3, [sp]
 1095              	.LBE94:
 497:Drivers/BSP/STM32F4-Discovery/stm32f4_discovery.c ****   
ARM GAS  /var/folders/0z/tsy30v1j4xl4_7kw94k978ww0000gn/T//ccvYDrVp.s 			page 33


 1096              		.loc 1 497 3 is_stmt 1 view .LVU288
 500:Drivers/BSP/STM32F4-Discovery/stm32f4_discovery.c ****   GPIO_InitStructure.Mode = GPIO_MODE_OUTPUT_PP;
 1097              		.loc 1 500 3 view .LVU289
 501:Drivers/BSP/STM32F4-Discovery/stm32f4_discovery.c ****   GPIO_InitStructure.Pull  = GPIO_NOPULL;
 1098              		.loc 1 501 27 is_stmt 0 view .LVU290
 1099 0024 CDE90154 		strd	r5, r4, [sp, #4]
 502:Drivers/BSP/STM32F4-Discovery/stm32f4_discovery.c ****   GPIO_InitStructure.Speed = GPIO_SPEED_MEDIUM;
 1100              		.loc 1 502 3 is_stmt 1 view .LVU291
 503:Drivers/BSP/STM32F4-Discovery/stm32f4_discovery.c ****   HAL_GPIO_Init(ACCELERO_CS_GPIO_PORT, &GPIO_InitStructure);
 1101              		.loc 1 503 28 is_stmt 0 view .LVU292
 1102 0028 CDE90364 		strd	r6, r4, [sp, #12]
 1103              		.loc 1 504 3 is_stmt 1 view .LVU293
 1104 002c FFF7FEFF 		bl	HAL_GPIO_Init
 1105              	.LVL40:
 505:Drivers/BSP/STM32F4-Discovery/stm32f4_discovery.c ****   
 506:Drivers/BSP/STM32F4-Discovery/stm32f4_discovery.c ****   /* Deselect: Chip Select high */
 507:Drivers/BSP/STM32F4-Discovery/stm32f4_discovery.c ****   ACCELERO_CS_HIGH();
 1106              		.loc 1 507 3 view .LVU294
 1107 0030 0848     		ldr	r0, .L58+4
 1108 0032 2246     		mov	r2, r4
 1109 0034 2946     		mov	r1, r5
 1110 0036 FFF7FEFF 		bl	HAL_GPIO_WritePin
 1111              	.LVL41:
 508:Drivers/BSP/STM32F4-Discovery/stm32f4_discovery.c ****   
 509:Drivers/BSP/STM32F4-Discovery/stm32f4_discovery.c ****   SPIx_Init();
 1112              		.loc 1 509 3 view .LVU295
 1113              	.LBB95:
 1114              	.LBI95:
 292:Drivers/BSP/STM32F4-Discovery/stm32f4_discovery.c **** {
 1115              		.loc 1 292 13 view .LVU296
 1116              	.LBB96:
 294:Drivers/BSP/STM32F4-Discovery/stm32f4_discovery.c ****   {
 1117              		.loc 1 294 3 view .LVU297
 294:Drivers/BSP/STM32F4-Discovery/stm32f4_discovery.c ****   {
 1118              		.loc 1 294 6 is_stmt 0 view .LVU298
 1119 003a 0748     		ldr	r0, .L58+8
 1120 003c FFF7FEFF 		bl	HAL_SPI_GetState
 1121              	.LVL42:
 294:Drivers/BSP/STM32F4-Discovery/stm32f4_discovery.c ****   {
 1122              		.loc 1 294 5 view .LVU299
 1123 0040 08B1     		cbz	r0, .L57
 1124              	.LBE96:
 1125              	.LBE95:
 510:Drivers/BSP/STM32F4-Discovery/stm32f4_discovery.c **** }
 1126              		.loc 1 510 1 view .LVU300
 1127 0042 06B0     		add	sp, sp, #24
 1128              		.cfi_remember_state
 1129              		.cfi_def_cfa_offset 16
 1130              		@ sp needed
 1131 0044 70BD     		pop	{r4, r5, r6, pc}
 1132              	.L57:
 1133              		.cfi_restore_state
 1134              	.LBB98:
 1135              	.LBB97:
 1136 0046 FFF7FEFF 		bl	SPIx_Init.part.0
 1137              	.LVL43:
 1138              	.LBE97:
ARM GAS  /var/folders/0z/tsy30v1j4xl4_7kw94k978ww0000gn/T//ccvYDrVp.s 			page 34


 1139              	.LBE98:
 1140 004a 06B0     		add	sp, sp, #24
 1141              		.cfi_def_cfa_offset 16
 1142              		@ sp needed
 1143 004c 70BD     		pop	{r4, r5, r6, pc}
 1144              	.L59:
 1145 004e 00BF     		.align	2
 1146              	.L58:
 1147 0050 00380240 		.word	1073887232
 1148 0054 00100240 		.word	1073876992
 1149 0058 00000000 		.word	.LANCHOR0
 1150              		.cfi_endproc
 1151              	.LFE251:
 1153              		.section	.text.ACCELERO_IO_ITConfig,"ax",%progbits
 1154              		.align	1
 1155              		.p2align 2,,3
 1156              		.global	ACCELERO_IO_ITConfig
 1157              		.syntax unified
 1158              		.thumb
 1159              		.thumb_func
 1161              	ACCELERO_IO_ITConfig:
 1162              	.LFB252:
 511:Drivers/BSP/STM32F4-Discovery/stm32f4_discovery.c **** 
 512:Drivers/BSP/STM32F4-Discovery/stm32f4_discovery.c **** /**
 513:Drivers/BSP/STM32F4-Discovery/stm32f4_discovery.c ****   * @brief  Configures the Accelerometer INT2.
 514:Drivers/BSP/STM32F4-Discovery/stm32f4_discovery.c ****   *         EXTI0 is already used by user button so INT1 is not configured here.
 515:Drivers/BSP/STM32F4-Discovery/stm32f4_discovery.c ****   */
 516:Drivers/BSP/STM32F4-Discovery/stm32f4_discovery.c **** void ACCELERO_IO_ITConfig(void)
 517:Drivers/BSP/STM32F4-Discovery/stm32f4_discovery.c **** {
 1163              		.loc 1 517 1 is_stmt 1 view -0
 1164              		.cfi_startproc
 1165              		@ args = 0, pretend = 0, frame = 24
 1166              		@ frame_needed = 0, uses_anonymous_args = 0
 518:Drivers/BSP/STM32F4-Discovery/stm32f4_discovery.c ****   GPIO_InitTypeDef GPIO_InitStructure;
 1167              		.loc 1 518 3 view .LVU302
 519:Drivers/BSP/STM32F4-Discovery/stm32f4_discovery.c ****   
 520:Drivers/BSP/STM32F4-Discovery/stm32f4_discovery.c ****   /* Enable INT2 GPIO clock and configure GPIO PINs to detect Interrupts */
 521:Drivers/BSP/STM32F4-Discovery/stm32f4_discovery.c ****   ACCELERO_INT_GPIO_CLK_ENABLE();
 1168              		.loc 1 521 3 view .LVU303
 1169              	.LBB99:
 1170              		.loc 1 521 3 view .LVU304
 1171              	.LBE99:
 517:Drivers/BSP/STM32F4-Discovery/stm32f4_discovery.c ****   GPIO_InitTypeDef GPIO_InitStructure;
 1172              		.loc 1 517 1 is_stmt 0 view .LVU305
 1173 0000 30B5     		push	{r4, r5, lr}
 1174              		.cfi_def_cfa_offset 12
 1175              		.cfi_offset 4, -12
 1176              		.cfi_offset 5, -8
 1177              		.cfi_offset 14, -4
 1178 0002 87B0     		sub	sp, sp, #28
 1179              		.cfi_def_cfa_offset 40
 1180              	.LBB100:
 1181              		.loc 1 521 3 view .LVU306
 1182 0004 0024     		movs	r4, #0
 1183 0006 104B     		ldr	r3, .L62
 1184 0008 0094     		str	r4, [sp]
 1185              		.loc 1 521 3 is_stmt 1 view .LVU307
ARM GAS  /var/folders/0z/tsy30v1j4xl4_7kw94k978ww0000gn/T//ccvYDrVp.s 			page 35


 1186 000a 1A6B     		ldr	r2, [r3, #48]
 1187              	.LBE100:
 522:Drivers/BSP/STM32F4-Discovery/stm32f4_discovery.c ****   
 523:Drivers/BSP/STM32F4-Discovery/stm32f4_discovery.c ****   /* Configure GPIO PINs to detect Interrupts */
 524:Drivers/BSP/STM32F4-Discovery/stm32f4_discovery.c ****   GPIO_InitStructure.Pin = ACCELERO_INT2_PIN;
 525:Drivers/BSP/STM32F4-Discovery/stm32f4_discovery.c ****   GPIO_InitStructure.Mode = GPIO_MODE_IT_RISING;
 526:Drivers/BSP/STM32F4-Discovery/stm32f4_discovery.c ****   GPIO_InitStructure.Speed = GPIO_SPEED_FAST;
 527:Drivers/BSP/STM32F4-Discovery/stm32f4_discovery.c ****   GPIO_InitStructure.Pull = GPIO_NOPULL;
 528:Drivers/BSP/STM32F4-Discovery/stm32f4_discovery.c ****   HAL_GPIO_Init(ACCELERO_INT_GPIO_PORT, &GPIO_InitStructure);
 1188              		.loc 1 528 3 is_stmt 0 view .LVU308
 1189 000c 0F48     		ldr	r0, .L62+4
 1190              	.LBB101:
 521:Drivers/BSP/STM32F4-Discovery/stm32f4_discovery.c ****   
 1191              		.loc 1 521 3 view .LVU309
 1192 000e 42F01002 		orr	r2, r2, #16
 1193 0012 1A63     		str	r2, [r3, #48]
 521:Drivers/BSP/STM32F4-Discovery/stm32f4_discovery.c ****   
 1194              		.loc 1 521 3 is_stmt 1 view .LVU310
 1195 0014 1B6B     		ldr	r3, [r3, #48]
 1196 0016 03F01003 		and	r3, r3, #16
 1197              	.LBE101:
 524:Drivers/BSP/STM32F4-Discovery/stm32f4_discovery.c ****   GPIO_InitStructure.Mode = GPIO_MODE_IT_RISING;
 1198              		.loc 1 524 26 is_stmt 0 view .LVU311
 1199 001a 0222     		movs	r2, #2
 1200              	.LBB102:
 521:Drivers/BSP/STM32F4-Discovery/stm32f4_discovery.c ****   
 1201              		.loc 1 521 3 view .LVU312
 1202 001c 0093     		str	r3, [sp]
 521:Drivers/BSP/STM32F4-Discovery/stm32f4_discovery.c ****   
 1203              		.loc 1 521 3 is_stmt 1 view .LVU313
 1204              	.LBE102:
 1205              		.loc 1 528 3 is_stmt 0 view .LVU314
 1206 001e 01A9     		add	r1, sp, #4
 525:Drivers/BSP/STM32F4-Discovery/stm32f4_discovery.c ****   GPIO_InitStructure.Speed = GPIO_SPEED_FAST;
 1207              		.loc 1 525 27 view .LVU315
 1208 0020 4FF48813 		mov	r3, #1114112
 1209 0024 CDE90123 		strd	r2, r3, [sp, #4]
 527:Drivers/BSP/STM32F4-Discovery/stm32f4_discovery.c ****   HAL_GPIO_Init(ACCELERO_INT_GPIO_PORT, &GPIO_InitStructure);
 1210              		.loc 1 527 27 view .LVU316
 1211 0028 CDE90342 		strd	r4, r2, [sp, #12]
 1212              	.LBB103:
 521:Drivers/BSP/STM32F4-Discovery/stm32f4_discovery.c ****   
 1213              		.loc 1 521 3 view .LVU317
 1214 002c 009D     		ldr	r5, [sp]
 1215              	.LBE103:
 521:Drivers/BSP/STM32F4-Discovery/stm32f4_discovery.c ****   
 1216              		.loc 1 521 3 is_stmt 1 view .LVU318
 524:Drivers/BSP/STM32F4-Discovery/stm32f4_discovery.c ****   GPIO_InitStructure.Mode = GPIO_MODE_IT_RISING;
 1217              		.loc 1 524 3 view .LVU319
 526:Drivers/BSP/STM32F4-Discovery/stm32f4_discovery.c ****   GPIO_InitStructure.Pull = GPIO_NOPULL;
 1218              		.loc 1 526 3 view .LVU320
 1219              		.loc 1 528 3 view .LVU321
 1220 002e FFF7FEFF 		bl	HAL_GPIO_Init
 1221              	.LVL44:
 529:Drivers/BSP/STM32F4-Discovery/stm32f4_discovery.c ****   
 530:Drivers/BSP/STM32F4-Discovery/stm32f4_discovery.c ****   /* Enable and set Accelerometer INT2 to the lowest priority */
 531:Drivers/BSP/STM32F4-Discovery/stm32f4_discovery.c ****   HAL_NVIC_SetPriority((IRQn_Type)ACCELERO_INT2_EXTI_IRQn, 0x0F, 0);
ARM GAS  /var/folders/0z/tsy30v1j4xl4_7kw94k978ww0000gn/T//ccvYDrVp.s 			page 36


 1222              		.loc 1 531 3 view .LVU322
 1223 0032 2246     		mov	r2, r4
 1224 0034 0F21     		movs	r1, #15
 1225 0036 0720     		movs	r0, #7
 1226 0038 FFF7FEFF 		bl	HAL_NVIC_SetPriority
 1227              	.LVL45:
 532:Drivers/BSP/STM32F4-Discovery/stm32f4_discovery.c ****   HAL_NVIC_EnableIRQ((IRQn_Type)ACCELERO_INT2_EXTI_IRQn);
 1228              		.loc 1 532 3 view .LVU323
 1229 003c 0720     		movs	r0, #7
 1230 003e FFF7FEFF 		bl	HAL_NVIC_EnableIRQ
 1231              	.LVL46:
 533:Drivers/BSP/STM32F4-Discovery/stm32f4_discovery.c **** }
 1232              		.loc 1 533 1 is_stmt 0 view .LVU324
 1233 0042 07B0     		add	sp, sp, #28
 1234              		.cfi_def_cfa_offset 12
 1235              		@ sp needed
 1236 0044 30BD     		pop	{r4, r5, pc}
 1237              	.L63:
 1238 0046 00BF     		.align	2
 1239              	.L62:
 1240 0048 00380240 		.word	1073887232
 1241 004c 00100240 		.word	1073876992
 1242              		.cfi_endproc
 1243              	.LFE252:
 1245              		.section	.text.ACCELERO_IO_Write,"ax",%progbits
 1246              		.align	1
 1247              		.p2align 2,,3
 1248              		.global	ACCELERO_IO_Write
 1249              		.syntax unified
 1250              		.thumb
 1251              		.thumb_func
 1253              	ACCELERO_IO_Write:
 1254              	.LVL47:
 1255              	.LFB253:
 534:Drivers/BSP/STM32F4-Discovery/stm32f4_discovery.c **** 
 535:Drivers/BSP/STM32F4-Discovery/stm32f4_discovery.c **** /**
 536:Drivers/BSP/STM32F4-Discovery/stm32f4_discovery.c ****   * @brief  Writes one byte to the Accelerometer.
 537:Drivers/BSP/STM32F4-Discovery/stm32f4_discovery.c ****   * @param  pBuffer: pointer to the buffer containing the data to be written to the Accelerometer.
 538:Drivers/BSP/STM32F4-Discovery/stm32f4_discovery.c ****   * @param  WriteAddr: Accelerometer's internal address to write to.
 539:Drivers/BSP/STM32F4-Discovery/stm32f4_discovery.c ****   * @param  NumByteToWrite: Number of bytes to write.
 540:Drivers/BSP/STM32F4-Discovery/stm32f4_discovery.c ****   */
 541:Drivers/BSP/STM32F4-Discovery/stm32f4_discovery.c **** void ACCELERO_IO_Write(uint8_t *pBuffer, uint8_t WriteAddr, uint16_t NumByteToWrite)
 542:Drivers/BSP/STM32F4-Discovery/stm32f4_discovery.c **** {
 1256              		.loc 1 542 1 is_stmt 1 view -0
 1257              		.cfi_startproc
 1258              		@ args = 0, pretend = 0, frame = 0
 1259              		@ frame_needed = 0, uses_anonymous_args = 0
 543:Drivers/BSP/STM32F4-Discovery/stm32f4_discovery.c ****   /* Configure the MS bit: 
 544:Drivers/BSP/STM32F4-Discovery/stm32f4_discovery.c ****      - When 0, the address will remain unchanged in multiple read/write commands.
 545:Drivers/BSP/STM32F4-Discovery/stm32f4_discovery.c ****      - When 1, the address will be auto incremented in multiple read/write commands.
 546:Drivers/BSP/STM32F4-Discovery/stm32f4_discovery.c ****   */
 547:Drivers/BSP/STM32F4-Discovery/stm32f4_discovery.c ****   if(NumByteToWrite > 0x01)
 1260              		.loc 1 547 5 is_stmt 0 view .LVU326
 1261 0000 012A     		cmp	r2, #1
 542:Drivers/BSP/STM32F4-Discovery/stm32f4_discovery.c ****   /* Configure the MS bit: 
 1262              		.loc 1 542 1 view .LVU327
 1263 0002 70B5     		push	{r4, r5, r6, lr}
ARM GAS  /var/folders/0z/tsy30v1j4xl4_7kw94k978ww0000gn/T//ccvYDrVp.s 			page 37


 1264              		.cfi_def_cfa_offset 16
 1265              		.cfi_offset 4, -16
 1266              		.cfi_offset 5, -12
 1267              		.cfi_offset 6, -8
 1268              		.cfi_offset 14, -4
 542:Drivers/BSP/STM32F4-Discovery/stm32f4_discovery.c ****   /* Configure the MS bit: 
 1269              		.loc 1 542 1 view .LVU328
 1270 0004 1546     		mov	r5, r2
 1271 0006 0446     		mov	r4, r0
 1272 0008 0E46     		mov	r6, r1
 1273              		.loc 1 547 3 is_stmt 1 view .LVU329
 548:Drivers/BSP/STM32F4-Discovery/stm32f4_discovery.c ****   {
 549:Drivers/BSP/STM32F4-Discovery/stm32f4_discovery.c ****     WriteAddr |= (uint8_t)MULTIPLEBYTE_CMD;
 550:Drivers/BSP/STM32F4-Discovery/stm32f4_discovery.c ****   }
 551:Drivers/BSP/STM32F4-Discovery/stm32f4_discovery.c ****   /* Set chip select Low at the start of the transmission */
 552:Drivers/BSP/STM32F4-Discovery/stm32f4_discovery.c ****   ACCELERO_CS_LOW();
 1274              		.loc 1 552 3 is_stmt 0 view .LVU330
 1275 000a 1248     		ldr	r0, .L74
 1276              	.LVL48:
 1277              		.loc 1 552 3 view .LVU331
 1278 000c 4FF00002 		mov	r2, #0
 1279              	.LVL49:
 1280              		.loc 1 552 3 view .LVU332
 1281 0010 4FF00801 		mov	r1, #8
 1282              	.LVL50:
 547:Drivers/BSP/STM32F4-Discovery/stm32f4_discovery.c ****   {
 1283              		.loc 1 547 5 view .LVU333
 1284 0014 16D9     		bls	.L65
 549:Drivers/BSP/STM32F4-Discovery/stm32f4_discovery.c ****   }
 1285              		.loc 1 549 5 is_stmt 1 view .LVU334
 1286              	.LVL51:
 1287              		.loc 1 552 3 view .LVU335
 1288 0016 FFF7FEFF 		bl	HAL_GPIO_WritePin
 1289              	.LVL52:
 553:Drivers/BSP/STM32F4-Discovery/stm32f4_discovery.c ****   
 554:Drivers/BSP/STM32F4-Discovery/stm32f4_discovery.c ****   /* Send the Address of the indexed register */
 555:Drivers/BSP/STM32F4-Discovery/stm32f4_discovery.c ****   SPIx_WriteRead(WriteAddr);
 1290              		.loc 1 555 3 view .LVU336
 1291 001a 46F04000 		orr	r0, r6, #64
 1292 001e FFF7FEFF 		bl	SPIx_WriteRead
 1293              	.LVL53:
 556:Drivers/BSP/STM32F4-Discovery/stm32f4_discovery.c ****   
 557:Drivers/BSP/STM32F4-Discovery/stm32f4_discovery.c ****   /* Send the data that will be written into the device (MSB First) */
 558:Drivers/BSP/STM32F4-Discovery/stm32f4_discovery.c ****   while(NumByteToWrite >= 0x01)
 1294              		.loc 1 558 3 view .LVU337
 1295              		.loc 1 558 24 view .LVU338
 1296              	.L66:
 1297              		.loc 1 558 24 is_stmt 0 view .LVU339
 1298 0022 013D     		subs	r5, r5, #1
 1299 0024 ADB2     		uxth	r5, r5
 1300 0026 0135     		adds	r5, r5, #1
 1301 0028 2544     		add	r5, r5, r4
 1302              	.L68:
 559:Drivers/BSP/STM32F4-Discovery/stm32f4_discovery.c ****   {
 560:Drivers/BSP/STM32F4-Discovery/stm32f4_discovery.c ****     SPIx_WriteRead(*pBuffer);
 1303              		.loc 1 560 5 is_stmt 1 view .LVU340
 1304 002a 14F8010B 		ldrb	r0, [r4], #1	@ zero_extendqisi2
ARM GAS  /var/folders/0z/tsy30v1j4xl4_7kw94k978ww0000gn/T//ccvYDrVp.s 			page 38


 1305              	.LVL54:
 1306              		.loc 1 560 5 is_stmt 0 view .LVU341
 1307 002e FFF7FEFF 		bl	SPIx_WriteRead
 1308              	.LVL55:
 561:Drivers/BSP/STM32F4-Discovery/stm32f4_discovery.c ****     NumByteToWrite--;
 1309              		.loc 1 561 5 is_stmt 1 view .LVU342
 562:Drivers/BSP/STM32F4-Discovery/stm32f4_discovery.c ****     pBuffer++;
 1310              		.loc 1 562 5 view .LVU343
 558:Drivers/BSP/STM32F4-Discovery/stm32f4_discovery.c ****   {
 1311              		.loc 1 558 24 view .LVU344
 1312 0032 A542     		cmp	r5, r4
 1313 0034 F9D1     		bne	.L68
 1314              	.L67:
 563:Drivers/BSP/STM32F4-Discovery/stm32f4_discovery.c ****   }
 564:Drivers/BSP/STM32F4-Discovery/stm32f4_discovery.c ****   
 565:Drivers/BSP/STM32F4-Discovery/stm32f4_discovery.c ****   /* Set chip select High at the end of the transmission */ 
 566:Drivers/BSP/STM32F4-Discovery/stm32f4_discovery.c ****   ACCELERO_CS_HIGH();
 1315              		.loc 1 566 3 view .LVU345
 567:Drivers/BSP/STM32F4-Discovery/stm32f4_discovery.c **** }
 1316              		.loc 1 567 1 is_stmt 0 view .LVU346
 1317 0036 BDE87040 		pop	{r4, r5, r6, lr}
 1318              		.cfi_remember_state
 1319              		.cfi_restore 14
 1320              		.cfi_restore 6
 1321              		.cfi_restore 5
 1322              		.cfi_restore 4
 1323              		.cfi_def_cfa_offset 0
 1324              	.LVL56:
 566:Drivers/BSP/STM32F4-Discovery/stm32f4_discovery.c **** }
 1325              		.loc 1 566 3 view .LVU347
 1326 003a 0648     		ldr	r0, .L74
 1327 003c 0122     		movs	r2, #1
 1328 003e 0821     		movs	r1, #8
 1329 0040 FFF7FEBF 		b	HAL_GPIO_WritePin
 1330              	.LVL57:
 1331              	.L65:
 1332              		.cfi_restore_state
 552:Drivers/BSP/STM32F4-Discovery/stm32f4_discovery.c ****   
 1333              		.loc 1 552 3 is_stmt 1 view .LVU348
 1334 0044 FFF7FEFF 		bl	HAL_GPIO_WritePin
 1335              	.LVL58:
 555:Drivers/BSP/STM32F4-Discovery/stm32f4_discovery.c ****   
 1336              		.loc 1 555 3 view .LVU349
 1337 0048 3046     		mov	r0, r6
 1338 004a FFF7FEFF 		bl	SPIx_WriteRead
 1339              	.LVL59:
 558:Drivers/BSP/STM32F4-Discovery/stm32f4_discovery.c ****   {
 1340              		.loc 1 558 3 view .LVU350
 558:Drivers/BSP/STM32F4-Discovery/stm32f4_discovery.c ****   {
 1341              		.loc 1 558 24 view .LVU351
 1342 004e 002D     		cmp	r5, #0
 1343 0050 E7D1     		bne	.L66
 1344 0052 F0E7     		b	.L67
 1345              	.L75:
 1346              		.align	2
 1347              	.L74:
 1348 0054 00100240 		.word	1073876992
ARM GAS  /var/folders/0z/tsy30v1j4xl4_7kw94k978ww0000gn/T//ccvYDrVp.s 			page 39


 1349              		.cfi_endproc
 1350              	.LFE253:
 1352              		.section	.text.ACCELERO_IO_Read,"ax",%progbits
 1353              		.align	1
 1354              		.p2align 2,,3
 1355              		.global	ACCELERO_IO_Read
 1356              		.syntax unified
 1357              		.thumb
 1358              		.thumb_func
 1360              	ACCELERO_IO_Read:
 1361              	.LVL60:
 1362              	.LFB254:
 568:Drivers/BSP/STM32F4-Discovery/stm32f4_discovery.c **** 
 569:Drivers/BSP/STM32F4-Discovery/stm32f4_discovery.c **** /**
 570:Drivers/BSP/STM32F4-Discovery/stm32f4_discovery.c ****   * @brief  Reads a block of data from the Accelerometer.
 571:Drivers/BSP/STM32F4-Discovery/stm32f4_discovery.c ****   * @param  pBuffer: pointer to the buffer that receives the data read from the Accelerometer.
 572:Drivers/BSP/STM32F4-Discovery/stm32f4_discovery.c ****   * @param  ReadAddr: Accelerometer's internal address to read from.
 573:Drivers/BSP/STM32F4-Discovery/stm32f4_discovery.c ****   * @param  NumByteToRead: number of bytes to read from the Accelerometer.
 574:Drivers/BSP/STM32F4-Discovery/stm32f4_discovery.c ****   */
 575:Drivers/BSP/STM32F4-Discovery/stm32f4_discovery.c **** void ACCELERO_IO_Read(uint8_t *pBuffer, uint8_t ReadAddr, uint16_t NumByteToRead)
 576:Drivers/BSP/STM32F4-Discovery/stm32f4_discovery.c **** {  
 1363              		.loc 1 576 1 view -0
 1364              		.cfi_startproc
 1365              		@ args = 0, pretend = 0, frame = 0
 1366              		@ frame_needed = 0, uses_anonymous_args = 0
 577:Drivers/BSP/STM32F4-Discovery/stm32f4_discovery.c ****   if(NumByteToRead > 0x01)
 1367              		.loc 1 577 5 is_stmt 0 view .LVU353
 1368 0000 012A     		cmp	r2, #1
 576:Drivers/BSP/STM32F4-Discovery/stm32f4_discovery.c ****   if(NumByteToRead > 0x01)
 1369              		.loc 1 576 1 view .LVU354
 1370 0002 70B5     		push	{r4, r5, r6, lr}
 1371              		.cfi_def_cfa_offset 16
 1372              		.cfi_offset 4, -16
 1373              		.cfi_offset 5, -12
 1374              		.cfi_offset 6, -8
 1375              		.cfi_offset 14, -4
 576:Drivers/BSP/STM32F4-Discovery/stm32f4_discovery.c ****   if(NumByteToRead > 0x01)
 1376              		.loc 1 576 1 view .LVU355
 1377 0004 1546     		mov	r5, r2
 1378 0006 0446     		mov	r4, r0
 1379 0008 0E46     		mov	r6, r1
 1380              		.loc 1 577 3 is_stmt 1 view .LVU356
 578:Drivers/BSP/STM32F4-Discovery/stm32f4_discovery.c ****   {
 579:Drivers/BSP/STM32F4-Discovery/stm32f4_discovery.c ****     ReadAddr |= (uint8_t)(READWRITE_CMD | MULTIPLEBYTE_CMD);
 580:Drivers/BSP/STM32F4-Discovery/stm32f4_discovery.c ****   }
 581:Drivers/BSP/STM32F4-Discovery/stm32f4_discovery.c ****   else
 582:Drivers/BSP/STM32F4-Discovery/stm32f4_discovery.c ****   {
 583:Drivers/BSP/STM32F4-Discovery/stm32f4_discovery.c ****     ReadAddr |= (uint8_t)READWRITE_CMD;
 584:Drivers/BSP/STM32F4-Discovery/stm32f4_discovery.c ****   }
 585:Drivers/BSP/STM32F4-Discovery/stm32f4_discovery.c ****   /* Set chip select Low at the start of the transmission */
 586:Drivers/BSP/STM32F4-Discovery/stm32f4_discovery.c ****   ACCELERO_CS_LOW();
 1381              		.loc 1 586 3 is_stmt 0 view .LVU357
 1382 000a 1348     		ldr	r0, .L86
 1383              	.LVL61:
 1384              		.loc 1 586 3 view .LVU358
 1385 000c 4FF00002 		mov	r2, #0
 1386              	.LVL62:
ARM GAS  /var/folders/0z/tsy30v1j4xl4_7kw94k978ww0000gn/T//ccvYDrVp.s 			page 40


 1387              		.loc 1 586 3 view .LVU359
 1388 0010 4FF00801 		mov	r1, #8
 1389              	.LVL63:
 577:Drivers/BSP/STM32F4-Discovery/stm32f4_discovery.c ****   {
 1390              		.loc 1 577 5 view .LVU360
 1391 0014 17D9     		bls	.L77
 579:Drivers/BSP/STM32F4-Discovery/stm32f4_discovery.c ****   }
 1392              		.loc 1 579 5 is_stmt 1 view .LVU361
 1393              	.LVL64:
 1394              		.loc 1 586 3 view .LVU362
 1395 0016 FFF7FEFF 		bl	HAL_GPIO_WritePin
 1396              	.LVL65:
 587:Drivers/BSP/STM32F4-Discovery/stm32f4_discovery.c ****   
 588:Drivers/BSP/STM32F4-Discovery/stm32f4_discovery.c ****   /* Send the Address of the indexed register */
 589:Drivers/BSP/STM32F4-Discovery/stm32f4_discovery.c ****   SPIx_WriteRead(ReadAddr);
 1397              		.loc 1 589 3 view .LVU363
 1398 001a 46F0C000 		orr	r0, r6, #192
 1399 001e FFF7FEFF 		bl	SPIx_WriteRead
 1400              	.LVL66:
 590:Drivers/BSP/STM32F4-Discovery/stm32f4_discovery.c ****   
 591:Drivers/BSP/STM32F4-Discovery/stm32f4_discovery.c ****   /* Receive the data that will be read from the device (MSB First) */
 592:Drivers/BSP/STM32F4-Discovery/stm32f4_discovery.c ****   while(NumByteToRead > 0x00)
 1401              		.loc 1 592 3 view .LVU364
 1402              		.loc 1 592 23 view .LVU365
 1403              	.L78:
 1404              		.loc 1 592 23 is_stmt 0 view .LVU366
 1405 0022 013D     		subs	r5, r5, #1
 1406 0024 ADB2     		uxth	r5, r5
 1407 0026 0135     		adds	r5, r5, #1
 1408 0028 2544     		add	r5, r5, r4
 1409              	.L80:
 593:Drivers/BSP/STM32F4-Discovery/stm32f4_discovery.c ****   {
 594:Drivers/BSP/STM32F4-Discovery/stm32f4_discovery.c ****     /* Send dummy byte (0x00) to generate the SPI clock to ACCELEROMETER (Slave device) */
 595:Drivers/BSP/STM32F4-Discovery/stm32f4_discovery.c ****     *pBuffer = SPIx_WriteRead(DUMMY_BYTE);
 1410              		.loc 1 595 5 is_stmt 1 view .LVU367
 1411              		.loc 1 595 16 is_stmt 0 view .LVU368
 1412 002a 0020     		movs	r0, #0
 1413 002c FFF7FEFF 		bl	SPIx_WriteRead
 1414              	.LVL67:
 1415              		.loc 1 595 14 view .LVU369
 1416 0030 04F8010B 		strb	r0, [r4], #1
 1417              	.LVL68:
 596:Drivers/BSP/STM32F4-Discovery/stm32f4_discovery.c ****     NumByteToRead--;
 1418              		.loc 1 596 5 is_stmt 1 view .LVU370
 597:Drivers/BSP/STM32F4-Discovery/stm32f4_discovery.c ****     pBuffer++;
 1419              		.loc 1 597 5 view .LVU371
 592:Drivers/BSP/STM32F4-Discovery/stm32f4_discovery.c ****   {
 1420              		.loc 1 592 23 view .LVU372
 1421 0034 A542     		cmp	r5, r4
 1422 0036 F8D1     		bne	.L80
 1423              	.L79:
 598:Drivers/BSP/STM32F4-Discovery/stm32f4_discovery.c ****   }
 599:Drivers/BSP/STM32F4-Discovery/stm32f4_discovery.c ****   
 600:Drivers/BSP/STM32F4-Discovery/stm32f4_discovery.c ****   /* Set chip select High at the end of the transmission */ 
 601:Drivers/BSP/STM32F4-Discovery/stm32f4_discovery.c ****   ACCELERO_CS_HIGH();
 1424              		.loc 1 601 3 view .LVU373
 602:Drivers/BSP/STM32F4-Discovery/stm32f4_discovery.c **** }
ARM GAS  /var/folders/0z/tsy30v1j4xl4_7kw94k978ww0000gn/T//ccvYDrVp.s 			page 41


 1425              		.loc 1 602 1 is_stmt 0 view .LVU374
 1426 0038 BDE87040 		pop	{r4, r5, r6, lr}
 1427              		.cfi_remember_state
 1428              		.cfi_restore 14
 1429              		.cfi_restore 6
 1430              		.cfi_restore 5
 1431              		.cfi_restore 4
 1432              		.cfi_def_cfa_offset 0
 1433              	.LVL69:
 601:Drivers/BSP/STM32F4-Discovery/stm32f4_discovery.c **** }
 1434              		.loc 1 601 3 view .LVU375
 1435 003c 0648     		ldr	r0, .L86
 1436 003e 0122     		movs	r2, #1
 1437 0040 0821     		movs	r1, #8
 1438 0042 FFF7FEBF 		b	HAL_GPIO_WritePin
 1439              	.LVL70:
 1440              	.L77:
 1441              		.cfi_restore_state
 583:Drivers/BSP/STM32F4-Discovery/stm32f4_discovery.c ****   }
 1442              		.loc 1 583 5 is_stmt 1 view .LVU376
 586:Drivers/BSP/STM32F4-Discovery/stm32f4_discovery.c ****   
 1443              		.loc 1 586 3 view .LVU377
 1444 0046 FFF7FEFF 		bl	HAL_GPIO_WritePin
 1445              	.LVL71:
 589:Drivers/BSP/STM32F4-Discovery/stm32f4_discovery.c ****   
 1446              		.loc 1 589 3 view .LVU378
 1447 004a 46F08000 		orr	r0, r6, #128
 1448 004e FFF7FEFF 		bl	SPIx_WriteRead
 1449              	.LVL72:
 592:Drivers/BSP/STM32F4-Discovery/stm32f4_discovery.c ****   {
 1450              		.loc 1 592 3 view .LVU379
 592:Drivers/BSP/STM32F4-Discovery/stm32f4_discovery.c ****   {
 1451              		.loc 1 592 23 view .LVU380
 1452 0052 002D     		cmp	r5, #0
 1453 0054 E5D1     		bne	.L78
 1454 0056 EFE7     		b	.L79
 1455              	.L87:
 1456              		.align	2
 1457              	.L86:
 1458 0058 00100240 		.word	1073876992
 1459              		.cfi_endproc
 1460              	.LFE254:
 1462              		.section	.text.AUDIO_IO_Init,"ax",%progbits
 1463              		.align	1
 1464              		.p2align 2,,3
 1465              		.global	AUDIO_IO_Init
 1466              		.syntax unified
 1467              		.thumb
 1468              		.thumb_func
 1470              	AUDIO_IO_Init:
 1471              	.LFB255:
 603:Drivers/BSP/STM32F4-Discovery/stm32f4_discovery.c **** 
 604:Drivers/BSP/STM32F4-Discovery/stm32f4_discovery.c **** /********************************* LINK AUDIO *********************************/
 605:Drivers/BSP/STM32F4-Discovery/stm32f4_discovery.c **** 
 606:Drivers/BSP/STM32F4-Discovery/stm32f4_discovery.c **** /**
 607:Drivers/BSP/STM32F4-Discovery/stm32f4_discovery.c ****   * @brief  Initializes Audio low level.
 608:Drivers/BSP/STM32F4-Discovery/stm32f4_discovery.c ****   */
ARM GAS  /var/folders/0z/tsy30v1j4xl4_7kw94k978ww0000gn/T//ccvYDrVp.s 			page 42


 609:Drivers/BSP/STM32F4-Discovery/stm32f4_discovery.c **** void AUDIO_IO_Init(void) 
 610:Drivers/BSP/STM32F4-Discovery/stm32f4_discovery.c **** {
 1472              		.loc 1 610 1 view -0
 1473              		.cfi_startproc
 1474              		@ args = 0, pretend = 0, frame = 24
 1475              		@ frame_needed = 0, uses_anonymous_args = 0
 611:Drivers/BSP/STM32F4-Discovery/stm32f4_discovery.c ****   GPIO_InitTypeDef  GPIO_InitStruct;
 1476              		.loc 1 611 3 view .LVU382
 612:Drivers/BSP/STM32F4-Discovery/stm32f4_discovery.c ****   
 613:Drivers/BSP/STM32F4-Discovery/stm32f4_discovery.c ****   /* Enable Reset GPIO Clock */
 614:Drivers/BSP/STM32F4-Discovery/stm32f4_discovery.c ****   AUDIO_RESET_GPIO_CLK_ENABLE();
 1477              		.loc 1 614 3 view .LVU383
 1478              	.LBB107:
 1479              		.loc 1 614 3 view .LVU384
 1480              	.LBE107:
 610:Drivers/BSP/STM32F4-Discovery/stm32f4_discovery.c ****   GPIO_InitTypeDef  GPIO_InitStruct;
 1481              		.loc 1 610 1 is_stmt 0 view .LVU385
 1482 0000 30B5     		push	{r4, r5, lr}
 1483              		.cfi_def_cfa_offset 12
 1484              		.cfi_offset 4, -12
 1485              		.cfi_offset 5, -8
 1486              		.cfi_offset 14, -4
 1487 0002 87B0     		sub	sp, sp, #28
 1488              		.cfi_def_cfa_offset 40
 1489              	.LBB108:
 1490              		.loc 1 614 3 view .LVU386
 1491 0004 174B     		ldr	r3, .L92
 1492              	.LBE108:
 615:Drivers/BSP/STM32F4-Discovery/stm32f4_discovery.c ****   
 616:Drivers/BSP/STM32F4-Discovery/stm32f4_discovery.c ****   /* Audio reset pin configuration */
 617:Drivers/BSP/STM32F4-Discovery/stm32f4_discovery.c ****   GPIO_InitStruct.Pin = AUDIO_RESET_PIN; 
 618:Drivers/BSP/STM32F4-Discovery/stm32f4_discovery.c ****   GPIO_InitStruct.Mode = GPIO_MODE_OUTPUT_PP;
 619:Drivers/BSP/STM32F4-Discovery/stm32f4_discovery.c ****   GPIO_InitStruct.Speed = GPIO_SPEED_FAST;
 620:Drivers/BSP/STM32F4-Discovery/stm32f4_discovery.c ****   GPIO_InitStruct.Pull  = GPIO_NOPULL;
 621:Drivers/BSP/STM32F4-Discovery/stm32f4_discovery.c ****   HAL_GPIO_Init(AUDIO_RESET_GPIO, &GPIO_InitStruct);    
 1493              		.loc 1 621 3 view .LVU387
 1494 0006 1848     		ldr	r0, .L92+4
 1495              	.LBB109:
 614:Drivers/BSP/STM32F4-Discovery/stm32f4_discovery.c ****   
 1496              		.loc 1 614 3 view .LVU388
 1497 0008 0024     		movs	r4, #0
 1498 000a 0094     		str	r4, [sp]
 614:Drivers/BSP/STM32F4-Discovery/stm32f4_discovery.c ****   
 1499              		.loc 1 614 3 is_stmt 1 view .LVU389
 1500 000c 1A6B     		ldr	r2, [r3, #48]
 1501 000e 42F00802 		orr	r2, r2, #8
 1502 0012 1A63     		str	r2, [r3, #48]
 614:Drivers/BSP/STM32F4-Discovery/stm32f4_discovery.c ****   
 1503              		.loc 1 614 3 view .LVU390
 1504 0014 1B6B     		ldr	r3, [r3, #48]
 1505 0016 03F00803 		and	r3, r3, #8
 1506 001a 0093     		str	r3, [sp]
 614:Drivers/BSP/STM32F4-Discovery/stm32f4_discovery.c ****   
 1507              		.loc 1 614 3 view .LVU391
 1508              	.LBE109:
 617:Drivers/BSP/STM32F4-Discovery/stm32f4_discovery.c ****   GPIO_InitStruct.Mode = GPIO_MODE_OUTPUT_PP;
 1509              		.loc 1 617 23 is_stmt 0 view .LVU392
ARM GAS  /var/folders/0z/tsy30v1j4xl4_7kw94k978ww0000gn/T//ccvYDrVp.s 			page 43


 1510 001c 1022     		movs	r2, #16
 618:Drivers/BSP/STM32F4-Discovery/stm32f4_discovery.c ****   GPIO_InitStruct.Speed = GPIO_SPEED_FAST;
 1511              		.loc 1 618 24 view .LVU393
 1512 001e 0123     		movs	r3, #1
 1513 0020 CDE90123 		strd	r2, r3, [sp, #4]
 1514              		.loc 1 621 3 view .LVU394
 1515 0024 01A9     		add	r1, sp, #4
 619:Drivers/BSP/STM32F4-Discovery/stm32f4_discovery.c ****   GPIO_InitStruct.Pull  = GPIO_NOPULL;
 1516              		.loc 1 619 25 view .LVU395
 1517 0026 0223     		movs	r3, #2
 620:Drivers/BSP/STM32F4-Discovery/stm32f4_discovery.c ****   HAL_GPIO_Init(AUDIO_RESET_GPIO, &GPIO_InitStruct);    
 1518              		.loc 1 620 25 view .LVU396
 1519 0028 CDE90343 		strd	r4, r3, [sp, #12]
 1520              	.LBB110:
 614:Drivers/BSP/STM32F4-Discovery/stm32f4_discovery.c ****   
 1521              		.loc 1 614 3 view .LVU397
 1522 002c 009D     		ldr	r5, [sp]
 1523              	.LBE110:
 614:Drivers/BSP/STM32F4-Discovery/stm32f4_discovery.c ****   
 1524              		.loc 1 614 3 is_stmt 1 view .LVU398
 617:Drivers/BSP/STM32F4-Discovery/stm32f4_discovery.c ****   GPIO_InitStruct.Mode = GPIO_MODE_OUTPUT_PP;
 1525              		.loc 1 617 3 view .LVU399
 619:Drivers/BSP/STM32F4-Discovery/stm32f4_discovery.c ****   GPIO_InitStruct.Pull  = GPIO_NOPULL;
 1526              		.loc 1 619 3 view .LVU400
 1527              		.loc 1 621 3 view .LVU401
 1528 002e FFF7FEFF 		bl	HAL_GPIO_Init
 1529              	.LVL73:
 622:Drivers/BSP/STM32F4-Discovery/stm32f4_discovery.c ****   
 623:Drivers/BSP/STM32F4-Discovery/stm32f4_discovery.c ****   I2Cx_Init();
 1530              		.loc 1 623 3 view .LVU402
 1531              	.LBB111:
 1532              	.LBI111:
 373:Drivers/BSP/STM32F4-Discovery/stm32f4_discovery.c **** {
 1533              		.loc 1 373 13 view .LVU403
 1534              	.LBB112:
 375:Drivers/BSP/STM32F4-Discovery/stm32f4_discovery.c ****   {
 1535              		.loc 1 375 3 view .LVU404
 375:Drivers/BSP/STM32F4-Discovery/stm32f4_discovery.c ****   {
 1536              		.loc 1 375 6 is_stmt 0 view .LVU405
 1537 0032 0E48     		ldr	r0, .L92+8
 1538 0034 FFF7FEFF 		bl	HAL_I2C_GetState
 1539              	.LVL74:
 375:Drivers/BSP/STM32F4-Discovery/stm32f4_discovery.c ****   {
 1540              		.loc 1 375 5 view .LVU406
 1541 0038 88B1     		cbz	r0, .L91
 1542              	.L89:
 1543              	.LBE112:
 1544              	.LBE111:
 624:Drivers/BSP/STM32F4-Discovery/stm32f4_discovery.c ****   
 625:Drivers/BSP/STM32F4-Discovery/stm32f4_discovery.c ****   /* Power Down the codec */
 626:Drivers/BSP/STM32F4-Discovery/stm32f4_discovery.c ****   HAL_GPIO_WritePin(AUDIO_RESET_GPIO, AUDIO_RESET_PIN, GPIO_PIN_RESET);
 1545              		.loc 1 626 3 is_stmt 1 view .LVU407
 1546 003a 0022     		movs	r2, #0
 1547 003c 1021     		movs	r1, #16
 1548 003e 0A48     		ldr	r0, .L92+4
 1549 0040 FFF7FEFF 		bl	HAL_GPIO_WritePin
 1550              	.LVL75:
ARM GAS  /var/folders/0z/tsy30v1j4xl4_7kw94k978ww0000gn/T//ccvYDrVp.s 			page 44


 627:Drivers/BSP/STM32F4-Discovery/stm32f4_discovery.c ****   
 628:Drivers/BSP/STM32F4-Discovery/stm32f4_discovery.c ****   /* Wait for a delay to insure registers erasing */
 629:Drivers/BSP/STM32F4-Discovery/stm32f4_discovery.c ****   HAL_Delay(5); 
 1551              		.loc 1 629 3 view .LVU408
 1552 0044 0520     		movs	r0, #5
 1553 0046 FFF7FEFF 		bl	HAL_Delay
 1554              	.LVL76:
 630:Drivers/BSP/STM32F4-Discovery/stm32f4_discovery.c ****   
 631:Drivers/BSP/STM32F4-Discovery/stm32f4_discovery.c ****   /* Power on the codec */
 632:Drivers/BSP/STM32F4-Discovery/stm32f4_discovery.c ****   HAL_GPIO_WritePin(AUDIO_RESET_GPIO, AUDIO_RESET_PIN, GPIO_PIN_SET);
 1555              		.loc 1 632 3 view .LVU409
 1556 004a 0122     		movs	r2, #1
 1557 004c 1021     		movs	r1, #16
 1558 004e 0648     		ldr	r0, .L92+4
 1559 0050 FFF7FEFF 		bl	HAL_GPIO_WritePin
 1560              	.LVL77:
 633:Drivers/BSP/STM32F4-Discovery/stm32f4_discovery.c ****   
 634:Drivers/BSP/STM32F4-Discovery/stm32f4_discovery.c ****   /* Wait for a delay to insure registers erasing */
 635:Drivers/BSP/STM32F4-Discovery/stm32f4_discovery.c ****   HAL_Delay(5); 
 1561              		.loc 1 635 3 view .LVU410
 1562 0054 0520     		movs	r0, #5
 1563 0056 FFF7FEFF 		bl	HAL_Delay
 1564              	.LVL78:
 636:Drivers/BSP/STM32F4-Discovery/stm32f4_discovery.c **** }
 1565              		.loc 1 636 1 is_stmt 0 view .LVU411
 1566 005a 07B0     		add	sp, sp, #28
 1567              		.cfi_remember_state
 1568              		.cfi_def_cfa_offset 12
 1569              		@ sp needed
 1570 005c 30BD     		pop	{r4, r5, pc}
 1571              	.L91:
 1572              		.cfi_restore_state
 1573              	.LBB114:
 1574              	.LBB113:
 1575 005e FFF7FEFF 		bl	I2Cx_Init.part.0
 1576              	.LVL79:
 1577 0062 EAE7     		b	.L89
 1578              	.L93:
 1579              		.align	2
 1580              	.L92:
 1581 0064 00380240 		.word	1073887232
 1582 0068 000C0240 		.word	1073875968
 1583 006c 00000000 		.word	.LANCHOR2
 1584              	.LBE113:
 1585              	.LBE114:
 1586              		.cfi_endproc
 1587              	.LFE255:
 1589              		.section	.text.AUDIO_IO_DeInit,"ax",%progbits
 1590              		.align	1
 1591              		.p2align 2,,3
 1592              		.global	AUDIO_IO_DeInit
 1593              		.syntax unified
 1594              		.thumb
 1595              		.thumb_func
 1597              	AUDIO_IO_DeInit:
 1598              	.LFB256:
 637:Drivers/BSP/STM32F4-Discovery/stm32f4_discovery.c **** 
ARM GAS  /var/folders/0z/tsy30v1j4xl4_7kw94k978ww0000gn/T//ccvYDrVp.s 			page 45


 638:Drivers/BSP/STM32F4-Discovery/stm32f4_discovery.c **** /**
 639:Drivers/BSP/STM32F4-Discovery/stm32f4_discovery.c ****   * @brief  DeInitializes Audio low level.
 640:Drivers/BSP/STM32F4-Discovery/stm32f4_discovery.c ****   */
 641:Drivers/BSP/STM32F4-Discovery/stm32f4_discovery.c **** void AUDIO_IO_DeInit(void)
 642:Drivers/BSP/STM32F4-Discovery/stm32f4_discovery.c **** {
 1599              		.loc 1 642 1 is_stmt 1 view -0
 1600              		.cfi_startproc
 1601              		@ args = 0, pretend = 0, frame = 0
 1602              		@ frame_needed = 0, uses_anonymous_args = 0
 1603              		@ link register save eliminated.
 643:Drivers/BSP/STM32F4-Discovery/stm32f4_discovery.c ****   
 644:Drivers/BSP/STM32F4-Discovery/stm32f4_discovery.c **** }
 1604              		.loc 1 644 1 view .LVU413
 1605 0000 7047     		bx	lr
 1606              		.cfi_endproc
 1607              	.LFE256:
 1609 0002 00BF     		.section	.text.AUDIO_IO_Write,"ax",%progbits
 1610              		.align	1
 1611              		.p2align 2,,3
 1612              		.global	AUDIO_IO_Write
 1613              		.syntax unified
 1614              		.thumb
 1615              		.thumb_func
 1617              	AUDIO_IO_Write:
 1618              	.LVL80:
 1619              	.LFB257:
 645:Drivers/BSP/STM32F4-Discovery/stm32f4_discovery.c **** 
 646:Drivers/BSP/STM32F4-Discovery/stm32f4_discovery.c **** /**
 647:Drivers/BSP/STM32F4-Discovery/stm32f4_discovery.c ****   * @brief  Writes a single data.
 648:Drivers/BSP/STM32F4-Discovery/stm32f4_discovery.c ****   * @param  Addr: I2C address
 649:Drivers/BSP/STM32F4-Discovery/stm32f4_discovery.c ****   * @param  Reg: Reg address 
 650:Drivers/BSP/STM32F4-Discovery/stm32f4_discovery.c ****   * @param  Value: Data to be written
 651:Drivers/BSP/STM32F4-Discovery/stm32f4_discovery.c ****   */
 652:Drivers/BSP/STM32F4-Discovery/stm32f4_discovery.c **** void AUDIO_IO_Write (uint8_t Addr, uint8_t Reg, uint8_t Value)
 653:Drivers/BSP/STM32F4-Discovery/stm32f4_discovery.c **** {
 1620              		.loc 1 653 1 view -0
 1621              		.cfi_startproc
 1622              		@ args = 0, pretend = 0, frame = 8
 1623              		@ frame_needed = 0, uses_anonymous_args = 0
 654:Drivers/BSP/STM32F4-Discovery/stm32f4_discovery.c ****   I2Cx_WriteData(Addr, Reg, Value);
 1624              		.loc 1 654 3 view .LVU415
 653:Drivers/BSP/STM32F4-Discovery/stm32f4_discovery.c ****   I2Cx_WriteData(Addr, Reg, Value);
 1625              		.loc 1 653 1 is_stmt 0 view .LVU416
 1626 0000 10B5     		push	{r4, lr}
 1627              		.cfi_def_cfa_offset 8
 1628              		.cfi_offset 4, -8
 1629              		.cfi_offset 14, -4
 1630              	.LBB121:
 1631              	.LBB122:
 401:Drivers/BSP/STM32F4-Discovery/stm32f4_discovery.c **** 
 1632              		.loc 1 401 12 view .LVU417
 1633 0002 104B     		ldr	r3, .L101
 1634              	.LBE122:
 1635              	.LBE121:
 653:Drivers/BSP/STM32F4-Discovery/stm32f4_discovery.c ****   I2Cx_WriteData(Addr, Reg, Value);
 1636              		.loc 1 653 1 view .LVU418
 1637 0004 86B0     		sub	sp, sp, #24
ARM GAS  /var/folders/0z/tsy30v1j4xl4_7kw94k978ww0000gn/T//ccvYDrVp.s 			page 46


 1638              		.cfi_def_cfa_offset 32
 1639              	.LBB131:
 1640              	.LBB127:
 401:Drivers/BSP/STM32F4-Discovery/stm32f4_discovery.c **** 
 1641              		.loc 1 401 12 view .LVU419
 1642 0006 1B68     		ldr	r3, [r3]
 1643 0008 0293     		str	r3, [sp, #8]
 1644              	.LVL81:
 401:Drivers/BSP/STM32F4-Discovery/stm32f4_discovery.c **** 
 1645              		.loc 1 401 12 view .LVU420
 1646              	.LBE127:
 1647              	.LBE131:
 653:Drivers/BSP/STM32F4-Discovery/stm32f4_discovery.c ****   I2Cx_WriteData(Addr, Reg, Value);
 1648              		.loc 1 653 1 view .LVU421
 1649 000a 1446     		mov	r4, r2
 1650              	.LBB132:
 1651              	.LBB128:
 401:Drivers/BSP/STM32F4-Discovery/stm32f4_discovery.c **** 
 1652              		.loc 1 401 12 view .LVU422
 1653 000c 0123     		movs	r3, #1
 1654 000e 8DF81740 		strb	r4, [sp, #23]
 1655              	.LVL82:
 401:Drivers/BSP/STM32F4-Discovery/stm32f4_discovery.c **** 
 1656              		.loc 1 401 12 view .LVU423
 1657              	.LBE128:
 1658              	.LBI121:
 397:Drivers/BSP/STM32F4-Discovery/stm32f4_discovery.c **** {
 1659              		.loc 1 397 13 is_stmt 1 view .LVU424
 1660              	.LBB129:
 399:Drivers/BSP/STM32F4-Discovery/stm32f4_discovery.c ****   
 1661              		.loc 1 399 3 view .LVU425
 401:Drivers/BSP/STM32F4-Discovery/stm32f4_discovery.c **** 
 1662              		.loc 1 401 3 view .LVU426
 401:Drivers/BSP/STM32F4-Discovery/stm32f4_discovery.c **** 
 1663              		.loc 1 401 12 is_stmt 0 view .LVU427
 1664 0012 0DF11704 		add	r4, sp, #23
 1665              	.LVL83:
 401:Drivers/BSP/STM32F4-Discovery/stm32f4_discovery.c **** 
 1666              		.loc 1 401 12 view .LVU428
 1667 0016 0A46     		mov	r2, r1
 1668              	.LVL84:
 401:Drivers/BSP/STM32F4-Discovery/stm32f4_discovery.c **** 
 1669              		.loc 1 401 12 view .LVU429
 1670 0018 0193     		str	r3, [sp, #4]
 1671 001a 0146     		mov	r1, r0
 1672              	.LVL85:
 401:Drivers/BSP/STM32F4-Discovery/stm32f4_discovery.c **** 
 1673              		.loc 1 401 12 view .LVU430
 1674 001c 0094     		str	r4, [sp]
 1675 001e 0A48     		ldr	r0, .L101+4
 1676              	.LVL86:
 401:Drivers/BSP/STM32F4-Discovery/stm32f4_discovery.c **** 
 1677              		.loc 1 401 12 view .LVU431
 1678 0020 FFF7FEFF 		bl	HAL_I2C_Mem_Write
 1679              	.LVL87:
 404:Drivers/BSP/STM32F4-Discovery/stm32f4_discovery.c ****   {
 1680              		.loc 1 404 3 is_stmt 1 view .LVU432
ARM GAS  /var/folders/0z/tsy30v1j4xl4_7kw94k978ww0000gn/T//ccvYDrVp.s 			page 47


 404:Drivers/BSP/STM32F4-Discovery/stm32f4_discovery.c ****   {
 1681              		.loc 1 404 5 is_stmt 0 view .LVU433
 1682 0024 08B9     		cbnz	r0, .L100
 1683              	.LVL88:
 1684              	.L95:
 404:Drivers/BSP/STM32F4-Discovery/stm32f4_discovery.c ****   {
 1685              		.loc 1 404 5 view .LVU434
 1686              	.LBE129:
 1687              	.LBE132:
 655:Drivers/BSP/STM32F4-Discovery/stm32f4_discovery.c **** }
 1688              		.loc 1 655 1 view .LVU435
 1689 0026 06B0     		add	sp, sp, #24
 1690              		.cfi_remember_state
 1691              		.cfi_def_cfa_offset 8
 1692              		@ sp needed
 1693 0028 10BD     		pop	{r4, pc}
 1694              	.LVL89:
 1695              	.L100:
 1696              		.cfi_restore_state
 1697              	.LBB133:
 1698              	.LBB130:
 407:Drivers/BSP/STM32F4-Discovery/stm32f4_discovery.c ****   }
 1699              		.loc 1 407 5 is_stmt 1 view .LVU436
 1700              	.LBB123:
 1701              	.LBI123:
 437:Drivers/BSP/STM32F4-Discovery/stm32f4_discovery.c **** {
 1702              		.loc 1 437 13 view .LVU437
 1703              	.LBB124:
 440:Drivers/BSP/STM32F4-Discovery/stm32f4_discovery.c ****   
 1704              		.loc 1 440 3 view .LVU438
 1705 002a 0748     		ldr	r0, .L101+4
 1706              	.LVL90:
 440:Drivers/BSP/STM32F4-Discovery/stm32f4_discovery.c ****   
 1707              		.loc 1 440 3 is_stmt 0 view .LVU439
 1708 002c FFF7FEFF 		bl	HAL_I2C_DeInit
 1709              	.LVL91:
 443:Drivers/BSP/STM32F4-Discovery/stm32f4_discovery.c **** }
 1710              		.loc 1 443 3 is_stmt 1 view .LVU440
 1711              	.LBB125:
 1712              	.LBI125:
 373:Drivers/BSP/STM32F4-Discovery/stm32f4_discovery.c **** {
 1713              		.loc 1 373 13 view .LVU441
 1714              	.LBB126:
 375:Drivers/BSP/STM32F4-Discovery/stm32f4_discovery.c ****   {
 1715              		.loc 1 375 3 view .LVU442
 375:Drivers/BSP/STM32F4-Discovery/stm32f4_discovery.c ****   {
 1716              		.loc 1 375 6 is_stmt 0 view .LVU443
 1717 0030 0548     		ldr	r0, .L101+4
 1718 0032 FFF7FEFF 		bl	HAL_I2C_GetState
 1719              	.LVL92:
 375:Drivers/BSP/STM32F4-Discovery/stm32f4_discovery.c ****   {
 1720              		.loc 1 375 5 view .LVU444
 1721 0036 0028     		cmp	r0, #0
 1722 0038 F5D1     		bne	.L95
 1723 003a FFF7FEFF 		bl	I2Cx_Init.part.0
 1724              	.LVL93:
 375:Drivers/BSP/STM32F4-Discovery/stm32f4_discovery.c ****   {
ARM GAS  /var/folders/0z/tsy30v1j4xl4_7kw94k978ww0000gn/T//ccvYDrVp.s 			page 48


 1725              		.loc 1 375 5 view .LVU445
 1726              	.LBE126:
 1727              	.LBE125:
 1728              	.LBE124:
 1729              	.LBE123:
 1730              	.LBE130:
 1731              	.LBE133:
 1732              		.loc 1 655 1 view .LVU446
 1733 003e 06B0     		add	sp, sp, #24
 1734              		.cfi_def_cfa_offset 8
 1735              		@ sp needed
 1736 0040 10BD     		pop	{r4, pc}
 1737              	.L102:
 1738 0042 00BF     		.align	2
 1739              	.L101:
 1740 0044 00000000 		.word	.LANCHOR6
 1741 0048 00000000 		.word	.LANCHOR2
 1742              		.cfi_endproc
 1743              	.LFE257:
 1745              		.section	.text.AUDIO_IO_Read,"ax",%progbits
 1746              		.align	1
 1747              		.p2align 2,,3
 1748              		.global	AUDIO_IO_Read
 1749              		.syntax unified
 1750              		.thumb
 1751              		.thumb_func
 1753              	AUDIO_IO_Read:
 1754              	.LVL94:
 1755              	.LFB258:
 656:Drivers/BSP/STM32F4-Discovery/stm32f4_discovery.c **** 
 657:Drivers/BSP/STM32F4-Discovery/stm32f4_discovery.c **** /**
 658:Drivers/BSP/STM32F4-Discovery/stm32f4_discovery.c ****   * @brief  Reads a single data.
 659:Drivers/BSP/STM32F4-Discovery/stm32f4_discovery.c ****   * @param  Addr: I2C address
 660:Drivers/BSP/STM32F4-Discovery/stm32f4_discovery.c ****   * @param  Reg: Reg address 
 661:Drivers/BSP/STM32F4-Discovery/stm32f4_discovery.c ****   * @retval Data to be read
 662:Drivers/BSP/STM32F4-Discovery/stm32f4_discovery.c ****   */
 663:Drivers/BSP/STM32F4-Discovery/stm32f4_discovery.c **** uint8_t AUDIO_IO_Read(uint8_t Addr, uint8_t Reg)
 664:Drivers/BSP/STM32F4-Discovery/stm32f4_discovery.c **** {
 1756              		.loc 1 664 1 is_stmt 1 view -0
 1757              		.cfi_startproc
 1758              		@ args = 0, pretend = 0, frame = 8
 1759              		@ frame_needed = 0, uses_anonymous_args = 0
 665:Drivers/BSP/STM32F4-Discovery/stm32f4_discovery.c ****   return I2Cx_ReadData(Addr, Reg);
 1760              		.loc 1 665 3 view .LVU448
 664:Drivers/BSP/STM32F4-Discovery/stm32f4_discovery.c ****   return I2Cx_ReadData(Addr, Reg);
 1761              		.loc 1 664 1 is_stmt 0 view .LVU449
 1762 0000 00B5     		push	{lr}
 1763              		.cfi_def_cfa_offset 4
 1764              		.cfi_offset 14, -4
 1765              	.LBB140:
 1766              	.LBB141:
 422:Drivers/BSP/STM32F4-Discovery/stm32f4_discovery.c ****   
 1767              		.loc 1 422 12 view .LVU450
 1768 0002 134B     		ldr	r3, .L109
 1769              	.LBE141:
 1770              	.LBE140:
 664:Drivers/BSP/STM32F4-Discovery/stm32f4_discovery.c ****   return I2Cx_ReadData(Addr, Reg);
ARM GAS  /var/folders/0z/tsy30v1j4xl4_7kw94k978ww0000gn/T//ccvYDrVp.s 			page 49


 1771              		.loc 1 664 1 view .LVU451
 1772 0004 87B0     		sub	sp, sp, #28
 1773              		.cfi_def_cfa_offset 32
 1774              	.LBB149:
 1775              	.LBB146:
 422:Drivers/BSP/STM32F4-Discovery/stm32f4_discovery.c ****   
 1776              		.loc 1 422 12 view .LVU452
 1777 0006 1B68     		ldr	r3, [r3]
 1778 0008 0293     		str	r3, [sp, #8]
 1779              	.LBE146:
 1780              	.LBE149:
 664:Drivers/BSP/STM32F4-Discovery/stm32f4_discovery.c ****   return I2Cx_ReadData(Addr, Reg);
 1781              		.loc 1 664 1 view .LVU453
 1782 000a 8446     		mov	ip, r0
 1783 000c 0A46     		mov	r2, r1
 1784              	.LVL95:
 1785              	.LBB150:
 1786              	.LBI140:
 417:Drivers/BSP/STM32F4-Discovery/stm32f4_discovery.c **** {
 1787              		.loc 1 417 17 is_stmt 1 view .LVU454
 1788              	.LBB147:
 419:Drivers/BSP/STM32F4-Discovery/stm32f4_discovery.c ****   uint8_t value = 0;
 1789              		.loc 1 419 3 view .LVU455
 420:Drivers/BSP/STM32F4-Discovery/stm32f4_discovery.c ****   
 1790              		.loc 1 420 3 view .LVU456
 420:Drivers/BSP/STM32F4-Discovery/stm32f4_discovery.c ****   
 1791              		.loc 1 420 11 is_stmt 0 view .LVU457
 1792 000e 0020     		movs	r0, #0
 1793              	.LVL96:
 422:Drivers/BSP/STM32F4-Discovery/stm32f4_discovery.c ****   
 1794              		.loc 1 422 12 view .LVU458
 1795 0010 0DF11701 		add	r1, sp, #23
 1796              	.LVL97:
 422:Drivers/BSP/STM32F4-Discovery/stm32f4_discovery.c ****   
 1797              		.loc 1 422 12 view .LVU459
 1798 0014 0123     		movs	r3, #1
 1799 0016 CDE90013 		strd	r1, r3, [sp]
 420:Drivers/BSP/STM32F4-Discovery/stm32f4_discovery.c ****   
 1800              		.loc 1 420 11 view .LVU460
 1801 001a 8DF81700 		strb	r0, [sp, #23]
 422:Drivers/BSP/STM32F4-Discovery/stm32f4_discovery.c ****   
 1802              		.loc 1 422 3 is_stmt 1 view .LVU461
 422:Drivers/BSP/STM32F4-Discovery/stm32f4_discovery.c ****   
 1803              		.loc 1 422 12 is_stmt 0 view .LVU462
 1804 001e 6146     		mov	r1, ip
 1805 0020 0C48     		ldr	r0, .L109+4
 1806 0022 FFF7FEFF 		bl	HAL_I2C_Mem_Read
 1807              	.LVL98:
 425:Drivers/BSP/STM32F4-Discovery/stm32f4_discovery.c ****   {
 1808              		.loc 1 425 3 is_stmt 1 view .LVU463
 425:Drivers/BSP/STM32F4-Discovery/stm32f4_discovery.c ****   {
 1809              		.loc 1 425 5 is_stmt 0 view .LVU464
 1810 0026 20B9     		cbnz	r0, .L108
 1811              	.LVL99:
 1812              	.L105:
 430:Drivers/BSP/STM32F4-Discovery/stm32f4_discovery.c **** }
 1813              		.loc 1 430 3 is_stmt 1 view .LVU465
ARM GAS  /var/folders/0z/tsy30v1j4xl4_7kw94k978ww0000gn/T//ccvYDrVp.s 			page 50


 430:Drivers/BSP/STM32F4-Discovery/stm32f4_discovery.c **** }
 1814              		.loc 1 430 3 is_stmt 0 view .LVU466
 1815              	.LBE147:
 1816              	.LBE150:
 666:Drivers/BSP/STM32F4-Discovery/stm32f4_discovery.c **** }
 1817              		.loc 1 666 1 view .LVU467
 1818 0028 9DF81700 		ldrb	r0, [sp, #23]	@ zero_extendqisi2
 1819 002c 07B0     		add	sp, sp, #28
 1820              		.cfi_remember_state
 1821              		.cfi_def_cfa_offset 4
 1822              		@ sp needed
 1823 002e 5DF804FB 		ldr	pc, [sp], #4
 1824              	.LVL100:
 1825              	.L108:
 1826              		.cfi_restore_state
 1827              	.LBB151:
 1828              	.LBB148:
 428:Drivers/BSP/STM32F4-Discovery/stm32f4_discovery.c ****   }
 1829              		.loc 1 428 5 is_stmt 1 view .LVU468
 1830              	.LBB142:
 1831              	.LBI142:
 437:Drivers/BSP/STM32F4-Discovery/stm32f4_discovery.c **** {
 1832              		.loc 1 437 13 view .LVU469
 1833              	.LBB143:
 440:Drivers/BSP/STM32F4-Discovery/stm32f4_discovery.c ****   
 1834              		.loc 1 440 3 view .LVU470
 1835 0032 0848     		ldr	r0, .L109+4
 1836              	.LVL101:
 440:Drivers/BSP/STM32F4-Discovery/stm32f4_discovery.c ****   
 1837              		.loc 1 440 3 is_stmt 0 view .LVU471
 1838 0034 FFF7FEFF 		bl	HAL_I2C_DeInit
 1839              	.LVL102:
 443:Drivers/BSP/STM32F4-Discovery/stm32f4_discovery.c **** }
 1840              		.loc 1 443 3 is_stmt 1 view .LVU472
 1841              	.LBB144:
 1842              	.LBI144:
 373:Drivers/BSP/STM32F4-Discovery/stm32f4_discovery.c **** {
 1843              		.loc 1 373 13 view .LVU473
 1844              	.LBB145:
 375:Drivers/BSP/STM32F4-Discovery/stm32f4_discovery.c ****   {
 1845              		.loc 1 375 3 view .LVU474
 375:Drivers/BSP/STM32F4-Discovery/stm32f4_discovery.c ****   {
 1846              		.loc 1 375 6 is_stmt 0 view .LVU475
 1847 0038 0648     		ldr	r0, .L109+4
 1848 003a FFF7FEFF 		bl	HAL_I2C_GetState
 1849              	.LVL103:
 375:Drivers/BSP/STM32F4-Discovery/stm32f4_discovery.c ****   {
 1850              		.loc 1 375 5 view .LVU476
 1851 003e 0028     		cmp	r0, #0
 1852 0040 F2D1     		bne	.L105
 1853 0042 FFF7FEFF 		bl	I2Cx_Init.part.0
 1854              	.LVL104:
 375:Drivers/BSP/STM32F4-Discovery/stm32f4_discovery.c ****   {
 1855              		.loc 1 375 5 view .LVU477
 1856              	.LBE145:
 1857              	.LBE144:
 1858              	.LBE143:
ARM GAS  /var/folders/0z/tsy30v1j4xl4_7kw94k978ww0000gn/T//ccvYDrVp.s 			page 51


 1859              	.LBE142:
 430:Drivers/BSP/STM32F4-Discovery/stm32f4_discovery.c **** }
 1860              		.loc 1 430 3 is_stmt 1 view .LVU478
 430:Drivers/BSP/STM32F4-Discovery/stm32f4_discovery.c **** }
 1861              		.loc 1 430 3 is_stmt 0 view .LVU479
 1862              	.LBE148:
 1863              	.LBE151:
 1864              		.loc 1 666 1 view .LVU480
 1865 0046 9DF81700 		ldrb	r0, [sp, #23]	@ zero_extendqisi2
 1866 004a 07B0     		add	sp, sp, #28
 1867              		.cfi_def_cfa_offset 4
 1868              		@ sp needed
 1869 004c 5DF804FB 		ldr	pc, [sp], #4
 1870              	.L110:
 1871              		.align	2
 1872              	.L109:
 1873 0050 00000000 		.word	.LANCHOR6
 1874 0054 00000000 		.word	.LANCHOR2
 1875              		.cfi_endproc
 1876              	.LFE258:
 1878              		.global	SpixTimeout
 1879              		.global	I2cxTimeout
 1880              		.global	BUTTON_IRQn
 1881              		.global	BUTTON_PIN
 1882              		.global	BUTTON_PORT
 1883              		.global	GPIO_PIN
 1884              		.global	GPIO_PORT
 1885              		.section	.bss.I2cHandle,"aw",%nobits
 1886              		.align	2
 1887              		.set	.LANCHOR2,. + 0
 1890              	I2cHandle:
 1891 0000 00000000 		.space	84
 1891      00000000 
 1891      00000000 
 1891      00000000 
 1891      00000000 
 1892              		.section	.bss.SpiHandle,"aw",%nobits
 1893              		.align	2
 1894              		.set	.LANCHOR0,. + 0
 1897              	SpiHandle:
 1898 0000 00000000 		.space	88
 1898      00000000 
 1898      00000000 
 1898      00000000 
 1898      00000000 
 1899              		.section	.data.BUTTON_PORT,"aw"
 1900              		.align	2
 1901              		.set	.LANCHOR5,. + 0
 1904              	BUTTON_PORT:
 1905 0000 00000240 		.word	1073872896
 1906              		.section	.data.GPIO_PORT,"aw"
 1907              		.align	2
 1908              		.set	.LANCHOR4,. + 0
 1911              	GPIO_PORT:
 1912 0000 000C0240 		.word	1073875968
 1913 0004 000C0240 		.word	1073875968
 1914 0008 000C0240 		.word	1073875968
ARM GAS  /var/folders/0z/tsy30v1j4xl4_7kw94k978ww0000gn/T//ccvYDrVp.s 			page 52


 1915 000c 000C0240 		.word	1073875968
 1916              		.section	.data.I2cxTimeout,"aw"
 1917              		.align	2
 1918              		.set	.LANCHOR6,. + 0
 1921              	I2cxTimeout:
 1922 0000 00100000 		.word	4096
 1923              		.section	.data.SpixTimeout,"aw"
 1924              		.align	2
 1925              		.set	.LANCHOR1,. + 0
 1928              	SpixTimeout:
 1929 0000 00100000 		.word	4096
 1930              		.section	.rodata.BUTTON_IRQn,"a"
 1931              		.align	2
 1934              	BUTTON_IRQn:
 1935 0000 06       		.ascii	"\006"
 1936              		.section	.rodata.BUTTON_PIN,"a"
 1937              		.align	2
 1940              	BUTTON_PIN:
 1941 0000 0100     		.short	1
 1942              		.section	.rodata.GPIO_PIN,"a"
 1943              		.align	2
 1944              		.set	.LANCHOR3,. + 0
 1947              	GPIO_PIN:
 1948 0000 0010     		.short	4096
 1949 0002 0020     		.short	8192
 1950 0004 0040     		.short	16384
 1951 0006 0080     		.short	-32768
 1952              		.text
 1953              	.Letext0:
 1954              		.file 2 "Drivers/CMSIS/Device/ST/STM32F4xx/Include/stm32f407xx.h"
 1955              		.file 3 "/Users/johannes/Library/Application Support/Code/User/globalStorage/bmd.stm32-for-vscode/
 1956              		.file 4 "/Users/johannes/Library/Application Support/Code/User/globalStorage/bmd.stm32-for-vscode/
 1957              		.file 5 "Drivers/STM32F4xx_HAL_Driver/Inc/stm32f4xx_hal_def.h"
 1958              		.file 6 "Drivers/STM32F4xx_HAL_Driver/Inc/stm32f4xx_hal_gpio.h"
 1959              		.file 7 "Drivers/STM32F4xx_HAL_Driver/Inc/stm32f4xx_hal_dma.h"
 1960              		.file 8 "Drivers/STM32F4xx_HAL_Driver/Inc/stm32f4xx_hal_i2c.h"
 1961              		.file 9 "Drivers/STM32F4xx_HAL_Driver/Inc/stm32f4xx_hal_spi.h"
 1962              		.file 10 "Drivers/BSP/STM32F4-Discovery/stm32f4_discovery.h"
 1963              		.file 11 "Drivers/STM32F4xx_HAL_Driver/Inc/stm32f4xx_hal.h"
 1964              		.file 12 "Drivers/STM32F4xx_HAL_Driver/Inc/stm32f4xx_hal_cortex.h"
ARM GAS  /var/folders/0z/tsy30v1j4xl4_7kw94k978ww0000gn/T//ccvYDrVp.s 			page 53

