ARM GAS  /var/folders/0z/tsy30v1j4xl4_7kw94k978ww0000gn/T//ccgroddb.s 			page 1


   1              		.cpu cortex-m4
   2              		.arch armv7e-m
   3              		.fpu fpv4-sp-d16
   4              		.eabi_attribute 27, 1
   5              		.eabi_attribute 28, 1
   6              		.eabi_attribute 20, 1
   7              		.eabi_attribute 21, 1
   8              		.eabi_attribute 23, 3
   9              		.eabi_attribute 24, 1
  10              		.eabi_attribute 25, 1
  11              		.eabi_attribute 26, 1
  12              		.eabi_attribute 30, 2
  13              		.eabi_attribute 34, 1
  14              		.eabi_attribute 18, 4
  15              		.file	"stm32f4xx_hal_rng.c"
  16              		.text
  17              	.Ltext0:
  18              		.cfi_sections	.debug_frame
  19              		.section	.text.HAL_RNG_MspInit,"ax",%progbits
  20              		.align	1
  21              		.p2align 2,,3
  22              		.weak	HAL_RNG_MspInit
  23              		.syntax unified
  24              		.thumb
  25              		.thumb_func
  27              	HAL_RNG_MspInit:
  28              	.LVL0:
  29              	.LFB237:
  30              		.file 1 "Drivers/STM32F4xx_HAL_Driver/Src/stm32f4xx_hal_rng.c"
   1:Drivers/STM32F4xx_HAL_Driver/Src/stm32f4xx_hal_rng.c **** /**
   2:Drivers/STM32F4xx_HAL_Driver/Src/stm32f4xx_hal_rng.c ****   ******************************************************************************
   3:Drivers/STM32F4xx_HAL_Driver/Src/stm32f4xx_hal_rng.c ****   * @file    stm32f4xx_hal_rng.c
   4:Drivers/STM32F4xx_HAL_Driver/Src/stm32f4xx_hal_rng.c ****   * @author  MCD Application Team
   5:Drivers/STM32F4xx_HAL_Driver/Src/stm32f4xx_hal_rng.c ****   * @brief   RNG HAL module driver.
   6:Drivers/STM32F4xx_HAL_Driver/Src/stm32f4xx_hal_rng.c ****   *          This file provides firmware functions to manage the following
   7:Drivers/STM32F4xx_HAL_Driver/Src/stm32f4xx_hal_rng.c ****   *          functionalities of the Random Number Generator (RNG) peripheral:
   8:Drivers/STM32F4xx_HAL_Driver/Src/stm32f4xx_hal_rng.c ****   *           + Initialization and configuration functions
   9:Drivers/STM32F4xx_HAL_Driver/Src/stm32f4xx_hal_rng.c ****   *           + Peripheral Control functions
  10:Drivers/STM32F4xx_HAL_Driver/Src/stm32f4xx_hal_rng.c ****   *           + Peripheral State functions
  11:Drivers/STM32F4xx_HAL_Driver/Src/stm32f4xx_hal_rng.c ****   *
  12:Drivers/STM32F4xx_HAL_Driver/Src/stm32f4xx_hal_rng.c ****   ******************************************************************************
  13:Drivers/STM32F4xx_HAL_Driver/Src/stm32f4xx_hal_rng.c ****   * @attention
  14:Drivers/STM32F4xx_HAL_Driver/Src/stm32f4xx_hal_rng.c ****   *
  15:Drivers/STM32F4xx_HAL_Driver/Src/stm32f4xx_hal_rng.c ****   * Copyright (c) 2016 STMicroelectronics.
  16:Drivers/STM32F4xx_HAL_Driver/Src/stm32f4xx_hal_rng.c ****   * All rights reserved.
  17:Drivers/STM32F4xx_HAL_Driver/Src/stm32f4xx_hal_rng.c ****   *
  18:Drivers/STM32F4xx_HAL_Driver/Src/stm32f4xx_hal_rng.c ****   * This software is licensed under terms that can be found in the LICENSE file
  19:Drivers/STM32F4xx_HAL_Driver/Src/stm32f4xx_hal_rng.c ****   * in the root directory of this software component.
  20:Drivers/STM32F4xx_HAL_Driver/Src/stm32f4xx_hal_rng.c ****   * If no LICENSE file comes with this software, it is provided AS-IS.
  21:Drivers/STM32F4xx_HAL_Driver/Src/stm32f4xx_hal_rng.c ****   *
  22:Drivers/STM32F4xx_HAL_Driver/Src/stm32f4xx_hal_rng.c ****   ******************************************************************************
  23:Drivers/STM32F4xx_HAL_Driver/Src/stm32f4xx_hal_rng.c ****   @verbatim
  24:Drivers/STM32F4xx_HAL_Driver/Src/stm32f4xx_hal_rng.c ****   ==============================================================================
  25:Drivers/STM32F4xx_HAL_Driver/Src/stm32f4xx_hal_rng.c ****                      ##### How to use this driver #####
  26:Drivers/STM32F4xx_HAL_Driver/Src/stm32f4xx_hal_rng.c ****   ==============================================================================
  27:Drivers/STM32F4xx_HAL_Driver/Src/stm32f4xx_hal_rng.c ****   [..]
  28:Drivers/STM32F4xx_HAL_Driver/Src/stm32f4xx_hal_rng.c ****       The RNG HAL driver can be used as follows:
ARM GAS  /var/folders/0z/tsy30v1j4xl4_7kw94k978ww0000gn/T//ccgroddb.s 			page 2


  29:Drivers/STM32F4xx_HAL_Driver/Src/stm32f4xx_hal_rng.c **** 
  30:Drivers/STM32F4xx_HAL_Driver/Src/stm32f4xx_hal_rng.c ****       (#) Enable the RNG controller clock using __HAL_RCC_RNG_CLK_ENABLE() macro
  31:Drivers/STM32F4xx_HAL_Driver/Src/stm32f4xx_hal_rng.c ****           in HAL_RNG_MspInit().
  32:Drivers/STM32F4xx_HAL_Driver/Src/stm32f4xx_hal_rng.c ****       (#) Activate the RNG peripheral using HAL_RNG_Init() function.
  33:Drivers/STM32F4xx_HAL_Driver/Src/stm32f4xx_hal_rng.c ****       (#) Wait until the 32 bit Random Number Generator contains a valid
  34:Drivers/STM32F4xx_HAL_Driver/Src/stm32f4xx_hal_rng.c ****           random data using (polling/interrupt) mode.
  35:Drivers/STM32F4xx_HAL_Driver/Src/stm32f4xx_hal_rng.c ****       (#) Get the 32 bit random number using HAL_RNG_GenerateRandomNumber() function.
  36:Drivers/STM32F4xx_HAL_Driver/Src/stm32f4xx_hal_rng.c **** 
  37:Drivers/STM32F4xx_HAL_Driver/Src/stm32f4xx_hal_rng.c ****     ##### Callback registration #####
  38:Drivers/STM32F4xx_HAL_Driver/Src/stm32f4xx_hal_rng.c ****     ==================================
  39:Drivers/STM32F4xx_HAL_Driver/Src/stm32f4xx_hal_rng.c **** 
  40:Drivers/STM32F4xx_HAL_Driver/Src/stm32f4xx_hal_rng.c ****     [..]
  41:Drivers/STM32F4xx_HAL_Driver/Src/stm32f4xx_hal_rng.c ****     The compilation define USE_HAL_RNG_REGISTER_CALLBACKS when set to 1
  42:Drivers/STM32F4xx_HAL_Driver/Src/stm32f4xx_hal_rng.c ****     allows the user to configure dynamically the driver callbacks.
  43:Drivers/STM32F4xx_HAL_Driver/Src/stm32f4xx_hal_rng.c **** 
  44:Drivers/STM32F4xx_HAL_Driver/Src/stm32f4xx_hal_rng.c ****     [..]
  45:Drivers/STM32F4xx_HAL_Driver/Src/stm32f4xx_hal_rng.c ****     Use Function HAL_RNG_RegisterCallback() to register a user callback.
  46:Drivers/STM32F4xx_HAL_Driver/Src/stm32f4xx_hal_rng.c ****     Function HAL_RNG_RegisterCallback() allows to register following callbacks:
  47:Drivers/STM32F4xx_HAL_Driver/Src/stm32f4xx_hal_rng.c ****     (+) ErrorCallback             : RNG Error Callback.
  48:Drivers/STM32F4xx_HAL_Driver/Src/stm32f4xx_hal_rng.c ****     (+) MspInitCallback           : RNG MspInit.
  49:Drivers/STM32F4xx_HAL_Driver/Src/stm32f4xx_hal_rng.c ****     (+) MspDeInitCallback         : RNG MspDeInit.
  50:Drivers/STM32F4xx_HAL_Driver/Src/stm32f4xx_hal_rng.c ****     This function takes as parameters the HAL peripheral handle, the Callback ID
  51:Drivers/STM32F4xx_HAL_Driver/Src/stm32f4xx_hal_rng.c ****     and a pointer to the user callback function.
  52:Drivers/STM32F4xx_HAL_Driver/Src/stm32f4xx_hal_rng.c **** 
  53:Drivers/STM32F4xx_HAL_Driver/Src/stm32f4xx_hal_rng.c ****     [..]
  54:Drivers/STM32F4xx_HAL_Driver/Src/stm32f4xx_hal_rng.c ****     Use function HAL_RNG_UnRegisterCallback() to reset a callback to the default
  55:Drivers/STM32F4xx_HAL_Driver/Src/stm32f4xx_hal_rng.c ****     weak (surcharged) function.
  56:Drivers/STM32F4xx_HAL_Driver/Src/stm32f4xx_hal_rng.c ****     HAL_RNG_UnRegisterCallback() takes as parameters the HAL peripheral handle,
  57:Drivers/STM32F4xx_HAL_Driver/Src/stm32f4xx_hal_rng.c ****     and the Callback ID.
  58:Drivers/STM32F4xx_HAL_Driver/Src/stm32f4xx_hal_rng.c ****     This function allows to reset following callbacks:
  59:Drivers/STM32F4xx_HAL_Driver/Src/stm32f4xx_hal_rng.c ****     (+) ErrorCallback             : RNG Error Callback.
  60:Drivers/STM32F4xx_HAL_Driver/Src/stm32f4xx_hal_rng.c ****     (+) MspInitCallback           : RNG MspInit.
  61:Drivers/STM32F4xx_HAL_Driver/Src/stm32f4xx_hal_rng.c ****     (+) MspDeInitCallback         : RNG MspDeInit.
  62:Drivers/STM32F4xx_HAL_Driver/Src/stm32f4xx_hal_rng.c **** 
  63:Drivers/STM32F4xx_HAL_Driver/Src/stm32f4xx_hal_rng.c ****     [..]
  64:Drivers/STM32F4xx_HAL_Driver/Src/stm32f4xx_hal_rng.c ****     For specific callback ReadyDataCallback, use dedicated register callbacks:
  65:Drivers/STM32F4xx_HAL_Driver/Src/stm32f4xx_hal_rng.c ****     respectively HAL_RNG_RegisterReadyDataCallback() , HAL_RNG_UnRegisterReadyDataCallback().
  66:Drivers/STM32F4xx_HAL_Driver/Src/stm32f4xx_hal_rng.c **** 
  67:Drivers/STM32F4xx_HAL_Driver/Src/stm32f4xx_hal_rng.c ****     [..]
  68:Drivers/STM32F4xx_HAL_Driver/Src/stm32f4xx_hal_rng.c ****     By default, after the HAL_RNG_Init() and when the state is HAL_RNG_STATE_RESET
  69:Drivers/STM32F4xx_HAL_Driver/Src/stm32f4xx_hal_rng.c ****     all callbacks are set to the corresponding weak (surcharged) functions:
  70:Drivers/STM32F4xx_HAL_Driver/Src/stm32f4xx_hal_rng.c ****     example HAL_RNG_ErrorCallback().
  71:Drivers/STM32F4xx_HAL_Driver/Src/stm32f4xx_hal_rng.c ****     Exception done for MspInit and MspDeInit functions that are respectively
  72:Drivers/STM32F4xx_HAL_Driver/Src/stm32f4xx_hal_rng.c ****     reset to the legacy weak (surcharged) functions in the HAL_RNG_Init()
  73:Drivers/STM32F4xx_HAL_Driver/Src/stm32f4xx_hal_rng.c ****     and HAL_RNG_DeInit() only when these callbacks are null (not registered beforehand).
  74:Drivers/STM32F4xx_HAL_Driver/Src/stm32f4xx_hal_rng.c ****     If not, MspInit or MspDeInit are not null, the HAL_RNG_Init() and HAL_RNG_DeInit()
  75:Drivers/STM32F4xx_HAL_Driver/Src/stm32f4xx_hal_rng.c ****     keep and use the user MspInit/MspDeInit callbacks (registered beforehand).
  76:Drivers/STM32F4xx_HAL_Driver/Src/stm32f4xx_hal_rng.c **** 
  77:Drivers/STM32F4xx_HAL_Driver/Src/stm32f4xx_hal_rng.c ****     [..]
  78:Drivers/STM32F4xx_HAL_Driver/Src/stm32f4xx_hal_rng.c ****     Callbacks can be registered/unregistered in HAL_RNG_STATE_READY state only.
  79:Drivers/STM32F4xx_HAL_Driver/Src/stm32f4xx_hal_rng.c ****     Exception done MspInit/MspDeInit that can be registered/unregistered
  80:Drivers/STM32F4xx_HAL_Driver/Src/stm32f4xx_hal_rng.c ****     in HAL_RNG_STATE_READY or HAL_RNG_STATE_RESET state, thus registered (user)
  81:Drivers/STM32F4xx_HAL_Driver/Src/stm32f4xx_hal_rng.c ****     MspInit/DeInit callbacks can be used during the Init/DeInit.
  82:Drivers/STM32F4xx_HAL_Driver/Src/stm32f4xx_hal_rng.c ****     In that case first register the MspInit/MspDeInit user callbacks
  83:Drivers/STM32F4xx_HAL_Driver/Src/stm32f4xx_hal_rng.c ****     using HAL_RNG_RegisterCallback() before calling HAL_RNG_DeInit()
  84:Drivers/STM32F4xx_HAL_Driver/Src/stm32f4xx_hal_rng.c ****     or HAL_RNG_Init() function.
  85:Drivers/STM32F4xx_HAL_Driver/Src/stm32f4xx_hal_rng.c **** 
ARM GAS  /var/folders/0z/tsy30v1j4xl4_7kw94k978ww0000gn/T//ccgroddb.s 			page 3


  86:Drivers/STM32F4xx_HAL_Driver/Src/stm32f4xx_hal_rng.c ****     [..]
  87:Drivers/STM32F4xx_HAL_Driver/Src/stm32f4xx_hal_rng.c ****     When The compilation define USE_HAL_RNG_REGISTER_CALLBACKS is set to 0 or
  88:Drivers/STM32F4xx_HAL_Driver/Src/stm32f4xx_hal_rng.c ****     not defined, the callback registration feature is not available
  89:Drivers/STM32F4xx_HAL_Driver/Src/stm32f4xx_hal_rng.c ****     and weak (surcharged) callbacks are used.
  90:Drivers/STM32F4xx_HAL_Driver/Src/stm32f4xx_hal_rng.c **** 
  91:Drivers/STM32F4xx_HAL_Driver/Src/stm32f4xx_hal_rng.c ****   @endverbatim
  92:Drivers/STM32F4xx_HAL_Driver/Src/stm32f4xx_hal_rng.c ****   ******************************************************************************
  93:Drivers/STM32F4xx_HAL_Driver/Src/stm32f4xx_hal_rng.c ****   */
  94:Drivers/STM32F4xx_HAL_Driver/Src/stm32f4xx_hal_rng.c **** 
  95:Drivers/STM32F4xx_HAL_Driver/Src/stm32f4xx_hal_rng.c **** /* Includes ------------------------------------------------------------------*/
  96:Drivers/STM32F4xx_HAL_Driver/Src/stm32f4xx_hal_rng.c **** #include "stm32f4xx_hal.h"
  97:Drivers/STM32F4xx_HAL_Driver/Src/stm32f4xx_hal_rng.c **** 
  98:Drivers/STM32F4xx_HAL_Driver/Src/stm32f4xx_hal_rng.c **** /** @addtogroup STM32F4xx_HAL_Driver
  99:Drivers/STM32F4xx_HAL_Driver/Src/stm32f4xx_hal_rng.c ****   * @{
 100:Drivers/STM32F4xx_HAL_Driver/Src/stm32f4xx_hal_rng.c ****   */
 101:Drivers/STM32F4xx_HAL_Driver/Src/stm32f4xx_hal_rng.c **** 
 102:Drivers/STM32F4xx_HAL_Driver/Src/stm32f4xx_hal_rng.c **** #if defined (RNG)
 103:Drivers/STM32F4xx_HAL_Driver/Src/stm32f4xx_hal_rng.c **** 
 104:Drivers/STM32F4xx_HAL_Driver/Src/stm32f4xx_hal_rng.c **** /** @addtogroup RNG
 105:Drivers/STM32F4xx_HAL_Driver/Src/stm32f4xx_hal_rng.c ****   * @brief RNG HAL module driver.
 106:Drivers/STM32F4xx_HAL_Driver/Src/stm32f4xx_hal_rng.c ****   * @{
 107:Drivers/STM32F4xx_HAL_Driver/Src/stm32f4xx_hal_rng.c ****   */
 108:Drivers/STM32F4xx_HAL_Driver/Src/stm32f4xx_hal_rng.c **** 
 109:Drivers/STM32F4xx_HAL_Driver/Src/stm32f4xx_hal_rng.c **** #ifdef HAL_RNG_MODULE_ENABLED
 110:Drivers/STM32F4xx_HAL_Driver/Src/stm32f4xx_hal_rng.c **** 
 111:Drivers/STM32F4xx_HAL_Driver/Src/stm32f4xx_hal_rng.c **** /* Private types -------------------------------------------------------------*/
 112:Drivers/STM32F4xx_HAL_Driver/Src/stm32f4xx_hal_rng.c **** /* Private defines -----------------------------------------------------------*/
 113:Drivers/STM32F4xx_HAL_Driver/Src/stm32f4xx_hal_rng.c **** /* Private variables ---------------------------------------------------------*/
 114:Drivers/STM32F4xx_HAL_Driver/Src/stm32f4xx_hal_rng.c **** /* Private constants ---------------------------------------------------------*/
 115:Drivers/STM32F4xx_HAL_Driver/Src/stm32f4xx_hal_rng.c **** /** @defgroup RNG_Private_Constants RNG Private Constants
 116:Drivers/STM32F4xx_HAL_Driver/Src/stm32f4xx_hal_rng.c ****   * @{
 117:Drivers/STM32F4xx_HAL_Driver/Src/stm32f4xx_hal_rng.c ****   */
 118:Drivers/STM32F4xx_HAL_Driver/Src/stm32f4xx_hal_rng.c **** #define RNG_TIMEOUT_VALUE     2U
 119:Drivers/STM32F4xx_HAL_Driver/Src/stm32f4xx_hal_rng.c **** /**
 120:Drivers/STM32F4xx_HAL_Driver/Src/stm32f4xx_hal_rng.c ****   * @}
 121:Drivers/STM32F4xx_HAL_Driver/Src/stm32f4xx_hal_rng.c ****   */
 122:Drivers/STM32F4xx_HAL_Driver/Src/stm32f4xx_hal_rng.c **** /* Private macros ------------------------------------------------------------*/
 123:Drivers/STM32F4xx_HAL_Driver/Src/stm32f4xx_hal_rng.c **** /* Private functions prototypes ----------------------------------------------*/
 124:Drivers/STM32F4xx_HAL_Driver/Src/stm32f4xx_hal_rng.c **** /* Private functions ---------------------------------------------------------*/
 125:Drivers/STM32F4xx_HAL_Driver/Src/stm32f4xx_hal_rng.c **** /* Exported functions --------------------------------------------------------*/
 126:Drivers/STM32F4xx_HAL_Driver/Src/stm32f4xx_hal_rng.c **** 
 127:Drivers/STM32F4xx_HAL_Driver/Src/stm32f4xx_hal_rng.c **** /** @addtogroup RNG_Exported_Functions
 128:Drivers/STM32F4xx_HAL_Driver/Src/stm32f4xx_hal_rng.c ****   * @{
 129:Drivers/STM32F4xx_HAL_Driver/Src/stm32f4xx_hal_rng.c ****   */
 130:Drivers/STM32F4xx_HAL_Driver/Src/stm32f4xx_hal_rng.c **** 
 131:Drivers/STM32F4xx_HAL_Driver/Src/stm32f4xx_hal_rng.c **** /** @addtogroup RNG_Exported_Functions_Group1
 132:Drivers/STM32F4xx_HAL_Driver/Src/stm32f4xx_hal_rng.c ****   *  @brief   Initialization and configuration functions
 133:Drivers/STM32F4xx_HAL_Driver/Src/stm32f4xx_hal_rng.c ****   *
 134:Drivers/STM32F4xx_HAL_Driver/Src/stm32f4xx_hal_rng.c **** @verbatim
 135:Drivers/STM32F4xx_HAL_Driver/Src/stm32f4xx_hal_rng.c ****  ===============================================================================
 136:Drivers/STM32F4xx_HAL_Driver/Src/stm32f4xx_hal_rng.c ****           ##### Initialization and configuration functions #####
 137:Drivers/STM32F4xx_HAL_Driver/Src/stm32f4xx_hal_rng.c ****  ===============================================================================
 138:Drivers/STM32F4xx_HAL_Driver/Src/stm32f4xx_hal_rng.c ****     [..]  This section provides functions allowing to:
 139:Drivers/STM32F4xx_HAL_Driver/Src/stm32f4xx_hal_rng.c ****       (+) Initialize the RNG according to the specified parameters
 140:Drivers/STM32F4xx_HAL_Driver/Src/stm32f4xx_hal_rng.c ****           in the RNG_InitTypeDef and create the associated handle
 141:Drivers/STM32F4xx_HAL_Driver/Src/stm32f4xx_hal_rng.c ****       (+) DeInitialize the RNG peripheral
 142:Drivers/STM32F4xx_HAL_Driver/Src/stm32f4xx_hal_rng.c ****       (+) Initialize the RNG MSP
ARM GAS  /var/folders/0z/tsy30v1j4xl4_7kw94k978ww0000gn/T//ccgroddb.s 			page 4


 143:Drivers/STM32F4xx_HAL_Driver/Src/stm32f4xx_hal_rng.c ****       (+) DeInitialize RNG MSP
 144:Drivers/STM32F4xx_HAL_Driver/Src/stm32f4xx_hal_rng.c **** 
 145:Drivers/STM32F4xx_HAL_Driver/Src/stm32f4xx_hal_rng.c **** @endverbatim
 146:Drivers/STM32F4xx_HAL_Driver/Src/stm32f4xx_hal_rng.c ****   * @{
 147:Drivers/STM32F4xx_HAL_Driver/Src/stm32f4xx_hal_rng.c ****   */
 148:Drivers/STM32F4xx_HAL_Driver/Src/stm32f4xx_hal_rng.c **** 
 149:Drivers/STM32F4xx_HAL_Driver/Src/stm32f4xx_hal_rng.c **** /**
 150:Drivers/STM32F4xx_HAL_Driver/Src/stm32f4xx_hal_rng.c ****   * @brief  Initializes the RNG peripheral and creates the associated handle.
 151:Drivers/STM32F4xx_HAL_Driver/Src/stm32f4xx_hal_rng.c ****   * @param  hrng pointer to a RNG_HandleTypeDef structure that contains
 152:Drivers/STM32F4xx_HAL_Driver/Src/stm32f4xx_hal_rng.c ****   *                the configuration information for RNG.
 153:Drivers/STM32F4xx_HAL_Driver/Src/stm32f4xx_hal_rng.c ****   * @retval HAL status
 154:Drivers/STM32F4xx_HAL_Driver/Src/stm32f4xx_hal_rng.c ****   */
 155:Drivers/STM32F4xx_HAL_Driver/Src/stm32f4xx_hal_rng.c **** HAL_StatusTypeDef HAL_RNG_Init(RNG_HandleTypeDef *hrng)
 156:Drivers/STM32F4xx_HAL_Driver/Src/stm32f4xx_hal_rng.c **** {
 157:Drivers/STM32F4xx_HAL_Driver/Src/stm32f4xx_hal_rng.c ****   /* Check the RNG handle allocation */
 158:Drivers/STM32F4xx_HAL_Driver/Src/stm32f4xx_hal_rng.c ****   if (hrng == NULL)
 159:Drivers/STM32F4xx_HAL_Driver/Src/stm32f4xx_hal_rng.c ****   {
 160:Drivers/STM32F4xx_HAL_Driver/Src/stm32f4xx_hal_rng.c ****     return HAL_ERROR;
 161:Drivers/STM32F4xx_HAL_Driver/Src/stm32f4xx_hal_rng.c ****   }
 162:Drivers/STM32F4xx_HAL_Driver/Src/stm32f4xx_hal_rng.c ****   /* Check the parameters */
 163:Drivers/STM32F4xx_HAL_Driver/Src/stm32f4xx_hal_rng.c ****   assert_param(IS_RNG_ALL_INSTANCE(hrng->Instance));
 164:Drivers/STM32F4xx_HAL_Driver/Src/stm32f4xx_hal_rng.c **** 
 165:Drivers/STM32F4xx_HAL_Driver/Src/stm32f4xx_hal_rng.c **** #if (USE_HAL_RNG_REGISTER_CALLBACKS == 1)
 166:Drivers/STM32F4xx_HAL_Driver/Src/stm32f4xx_hal_rng.c ****   if (hrng->State == HAL_RNG_STATE_RESET)
 167:Drivers/STM32F4xx_HAL_Driver/Src/stm32f4xx_hal_rng.c ****   {
 168:Drivers/STM32F4xx_HAL_Driver/Src/stm32f4xx_hal_rng.c ****     /* Allocate lock resource and initialize it */
 169:Drivers/STM32F4xx_HAL_Driver/Src/stm32f4xx_hal_rng.c ****     hrng->Lock = HAL_UNLOCKED;
 170:Drivers/STM32F4xx_HAL_Driver/Src/stm32f4xx_hal_rng.c **** 
 171:Drivers/STM32F4xx_HAL_Driver/Src/stm32f4xx_hal_rng.c ****     hrng->ReadyDataCallback  = HAL_RNG_ReadyDataCallback;  /* Legacy weak ReadyDataCallback  */
 172:Drivers/STM32F4xx_HAL_Driver/Src/stm32f4xx_hal_rng.c ****     hrng->ErrorCallback      = HAL_RNG_ErrorCallback;      /* Legacy weak ErrorCallback      */
 173:Drivers/STM32F4xx_HAL_Driver/Src/stm32f4xx_hal_rng.c **** 
 174:Drivers/STM32F4xx_HAL_Driver/Src/stm32f4xx_hal_rng.c ****     if (hrng->MspInitCallback == NULL)
 175:Drivers/STM32F4xx_HAL_Driver/Src/stm32f4xx_hal_rng.c ****     {
 176:Drivers/STM32F4xx_HAL_Driver/Src/stm32f4xx_hal_rng.c ****       hrng->MspInitCallback = HAL_RNG_MspInit; /* Legacy weak MspInit  */
 177:Drivers/STM32F4xx_HAL_Driver/Src/stm32f4xx_hal_rng.c ****     }
 178:Drivers/STM32F4xx_HAL_Driver/Src/stm32f4xx_hal_rng.c **** 
 179:Drivers/STM32F4xx_HAL_Driver/Src/stm32f4xx_hal_rng.c ****     /* Init the low level hardware */
 180:Drivers/STM32F4xx_HAL_Driver/Src/stm32f4xx_hal_rng.c ****     hrng->MspInitCallback(hrng);
 181:Drivers/STM32F4xx_HAL_Driver/Src/stm32f4xx_hal_rng.c ****   }
 182:Drivers/STM32F4xx_HAL_Driver/Src/stm32f4xx_hal_rng.c **** #else
 183:Drivers/STM32F4xx_HAL_Driver/Src/stm32f4xx_hal_rng.c ****   if (hrng->State == HAL_RNG_STATE_RESET)
 184:Drivers/STM32F4xx_HAL_Driver/Src/stm32f4xx_hal_rng.c ****   {
 185:Drivers/STM32F4xx_HAL_Driver/Src/stm32f4xx_hal_rng.c ****     /* Allocate lock resource and initialize it */
 186:Drivers/STM32F4xx_HAL_Driver/Src/stm32f4xx_hal_rng.c ****     hrng->Lock = HAL_UNLOCKED;
 187:Drivers/STM32F4xx_HAL_Driver/Src/stm32f4xx_hal_rng.c **** 
 188:Drivers/STM32F4xx_HAL_Driver/Src/stm32f4xx_hal_rng.c ****     /* Init the low level hardware */
 189:Drivers/STM32F4xx_HAL_Driver/Src/stm32f4xx_hal_rng.c ****     HAL_RNG_MspInit(hrng);
 190:Drivers/STM32F4xx_HAL_Driver/Src/stm32f4xx_hal_rng.c ****   }
 191:Drivers/STM32F4xx_HAL_Driver/Src/stm32f4xx_hal_rng.c **** #endif /* USE_HAL_RNG_REGISTER_CALLBACKS */
 192:Drivers/STM32F4xx_HAL_Driver/Src/stm32f4xx_hal_rng.c **** 
 193:Drivers/STM32F4xx_HAL_Driver/Src/stm32f4xx_hal_rng.c ****   /* Change RNG peripheral state */
 194:Drivers/STM32F4xx_HAL_Driver/Src/stm32f4xx_hal_rng.c ****   hrng->State = HAL_RNG_STATE_BUSY;
 195:Drivers/STM32F4xx_HAL_Driver/Src/stm32f4xx_hal_rng.c **** 
 196:Drivers/STM32F4xx_HAL_Driver/Src/stm32f4xx_hal_rng.c **** 
 197:Drivers/STM32F4xx_HAL_Driver/Src/stm32f4xx_hal_rng.c ****   /* Enable the RNG Peripheral */
 198:Drivers/STM32F4xx_HAL_Driver/Src/stm32f4xx_hal_rng.c ****   __HAL_RNG_ENABLE(hrng);
 199:Drivers/STM32F4xx_HAL_Driver/Src/stm32f4xx_hal_rng.c **** 
ARM GAS  /var/folders/0z/tsy30v1j4xl4_7kw94k978ww0000gn/T//ccgroddb.s 			page 5


 200:Drivers/STM32F4xx_HAL_Driver/Src/stm32f4xx_hal_rng.c ****   /* Initialize the RNG state */
 201:Drivers/STM32F4xx_HAL_Driver/Src/stm32f4xx_hal_rng.c ****   hrng->State = HAL_RNG_STATE_READY;
 202:Drivers/STM32F4xx_HAL_Driver/Src/stm32f4xx_hal_rng.c **** 
 203:Drivers/STM32F4xx_HAL_Driver/Src/stm32f4xx_hal_rng.c ****   /* Initialise the error code */
 204:Drivers/STM32F4xx_HAL_Driver/Src/stm32f4xx_hal_rng.c ****   hrng->ErrorCode = HAL_RNG_ERROR_NONE;
 205:Drivers/STM32F4xx_HAL_Driver/Src/stm32f4xx_hal_rng.c **** 
 206:Drivers/STM32F4xx_HAL_Driver/Src/stm32f4xx_hal_rng.c ****   /* Return function status */
 207:Drivers/STM32F4xx_HAL_Driver/Src/stm32f4xx_hal_rng.c ****   return HAL_OK;
 208:Drivers/STM32F4xx_HAL_Driver/Src/stm32f4xx_hal_rng.c **** }
 209:Drivers/STM32F4xx_HAL_Driver/Src/stm32f4xx_hal_rng.c **** 
 210:Drivers/STM32F4xx_HAL_Driver/Src/stm32f4xx_hal_rng.c **** /**
 211:Drivers/STM32F4xx_HAL_Driver/Src/stm32f4xx_hal_rng.c ****   * @brief  DeInitializes the RNG peripheral.
 212:Drivers/STM32F4xx_HAL_Driver/Src/stm32f4xx_hal_rng.c ****   * @param  hrng pointer to a RNG_HandleTypeDef structure that contains
 213:Drivers/STM32F4xx_HAL_Driver/Src/stm32f4xx_hal_rng.c ****   *                the configuration information for RNG.
 214:Drivers/STM32F4xx_HAL_Driver/Src/stm32f4xx_hal_rng.c ****   * @retval HAL status
 215:Drivers/STM32F4xx_HAL_Driver/Src/stm32f4xx_hal_rng.c ****   */
 216:Drivers/STM32F4xx_HAL_Driver/Src/stm32f4xx_hal_rng.c **** HAL_StatusTypeDef HAL_RNG_DeInit(RNG_HandleTypeDef *hrng)
 217:Drivers/STM32F4xx_HAL_Driver/Src/stm32f4xx_hal_rng.c **** {
 218:Drivers/STM32F4xx_HAL_Driver/Src/stm32f4xx_hal_rng.c ****   /* Check the RNG handle allocation */
 219:Drivers/STM32F4xx_HAL_Driver/Src/stm32f4xx_hal_rng.c ****   if (hrng == NULL)
 220:Drivers/STM32F4xx_HAL_Driver/Src/stm32f4xx_hal_rng.c ****   {
 221:Drivers/STM32F4xx_HAL_Driver/Src/stm32f4xx_hal_rng.c ****     return HAL_ERROR;
 222:Drivers/STM32F4xx_HAL_Driver/Src/stm32f4xx_hal_rng.c ****   }
 223:Drivers/STM32F4xx_HAL_Driver/Src/stm32f4xx_hal_rng.c **** 
 224:Drivers/STM32F4xx_HAL_Driver/Src/stm32f4xx_hal_rng.c ****   /* Disable the RNG Peripheral */
 225:Drivers/STM32F4xx_HAL_Driver/Src/stm32f4xx_hal_rng.c ****   CLEAR_BIT(hrng->Instance->CR, RNG_CR_IE | RNG_CR_RNGEN);
 226:Drivers/STM32F4xx_HAL_Driver/Src/stm32f4xx_hal_rng.c **** 
 227:Drivers/STM32F4xx_HAL_Driver/Src/stm32f4xx_hal_rng.c ****   /* Clear RNG interrupt status flags */
 228:Drivers/STM32F4xx_HAL_Driver/Src/stm32f4xx_hal_rng.c ****   CLEAR_BIT(hrng->Instance->SR, RNG_SR_CEIS | RNG_SR_SEIS);
 229:Drivers/STM32F4xx_HAL_Driver/Src/stm32f4xx_hal_rng.c **** 
 230:Drivers/STM32F4xx_HAL_Driver/Src/stm32f4xx_hal_rng.c **** #if (USE_HAL_RNG_REGISTER_CALLBACKS == 1)
 231:Drivers/STM32F4xx_HAL_Driver/Src/stm32f4xx_hal_rng.c ****   if (hrng->MspDeInitCallback == NULL)
 232:Drivers/STM32F4xx_HAL_Driver/Src/stm32f4xx_hal_rng.c ****   {
 233:Drivers/STM32F4xx_HAL_Driver/Src/stm32f4xx_hal_rng.c ****     hrng->MspDeInitCallback = HAL_RNG_MspDeInit; /* Legacy weak MspDeInit  */
 234:Drivers/STM32F4xx_HAL_Driver/Src/stm32f4xx_hal_rng.c ****   }
 235:Drivers/STM32F4xx_HAL_Driver/Src/stm32f4xx_hal_rng.c **** 
 236:Drivers/STM32F4xx_HAL_Driver/Src/stm32f4xx_hal_rng.c ****   /* DeInit the low level hardware */
 237:Drivers/STM32F4xx_HAL_Driver/Src/stm32f4xx_hal_rng.c ****   hrng->MspDeInitCallback(hrng);
 238:Drivers/STM32F4xx_HAL_Driver/Src/stm32f4xx_hal_rng.c **** #else
 239:Drivers/STM32F4xx_HAL_Driver/Src/stm32f4xx_hal_rng.c ****   /* DeInit the low level hardware */
 240:Drivers/STM32F4xx_HAL_Driver/Src/stm32f4xx_hal_rng.c ****   HAL_RNG_MspDeInit(hrng);
 241:Drivers/STM32F4xx_HAL_Driver/Src/stm32f4xx_hal_rng.c **** #endif /* USE_HAL_RNG_REGISTER_CALLBACKS */
 242:Drivers/STM32F4xx_HAL_Driver/Src/stm32f4xx_hal_rng.c **** 
 243:Drivers/STM32F4xx_HAL_Driver/Src/stm32f4xx_hal_rng.c ****   /* Update the RNG state */
 244:Drivers/STM32F4xx_HAL_Driver/Src/stm32f4xx_hal_rng.c ****   hrng->State = HAL_RNG_STATE_RESET;
 245:Drivers/STM32F4xx_HAL_Driver/Src/stm32f4xx_hal_rng.c **** 
 246:Drivers/STM32F4xx_HAL_Driver/Src/stm32f4xx_hal_rng.c ****   /* Initialise the error code */
 247:Drivers/STM32F4xx_HAL_Driver/Src/stm32f4xx_hal_rng.c ****   hrng->ErrorCode = HAL_RNG_ERROR_NONE;
 248:Drivers/STM32F4xx_HAL_Driver/Src/stm32f4xx_hal_rng.c **** 
 249:Drivers/STM32F4xx_HAL_Driver/Src/stm32f4xx_hal_rng.c ****   /* Release Lock */
 250:Drivers/STM32F4xx_HAL_Driver/Src/stm32f4xx_hal_rng.c ****   __HAL_UNLOCK(hrng);
 251:Drivers/STM32F4xx_HAL_Driver/Src/stm32f4xx_hal_rng.c **** 
 252:Drivers/STM32F4xx_HAL_Driver/Src/stm32f4xx_hal_rng.c ****   /* Return the function status */
 253:Drivers/STM32F4xx_HAL_Driver/Src/stm32f4xx_hal_rng.c ****   return HAL_OK;
 254:Drivers/STM32F4xx_HAL_Driver/Src/stm32f4xx_hal_rng.c **** }
 255:Drivers/STM32F4xx_HAL_Driver/Src/stm32f4xx_hal_rng.c **** 
 256:Drivers/STM32F4xx_HAL_Driver/Src/stm32f4xx_hal_rng.c **** /**
ARM GAS  /var/folders/0z/tsy30v1j4xl4_7kw94k978ww0000gn/T//ccgroddb.s 			page 6


 257:Drivers/STM32F4xx_HAL_Driver/Src/stm32f4xx_hal_rng.c ****   * @brief  Initializes the RNG MSP.
 258:Drivers/STM32F4xx_HAL_Driver/Src/stm32f4xx_hal_rng.c ****   * @param  hrng pointer to a RNG_HandleTypeDef structure that contains
 259:Drivers/STM32F4xx_HAL_Driver/Src/stm32f4xx_hal_rng.c ****   *                the configuration information for RNG.
 260:Drivers/STM32F4xx_HAL_Driver/Src/stm32f4xx_hal_rng.c ****   * @retval None
 261:Drivers/STM32F4xx_HAL_Driver/Src/stm32f4xx_hal_rng.c ****   */
 262:Drivers/STM32F4xx_HAL_Driver/Src/stm32f4xx_hal_rng.c **** __weak void HAL_RNG_MspInit(RNG_HandleTypeDef *hrng)
 263:Drivers/STM32F4xx_HAL_Driver/Src/stm32f4xx_hal_rng.c **** {
  31              		.loc 1 263 1 view -0
  32              		.cfi_startproc
  33              		@ args = 0, pretend = 0, frame = 0
  34              		@ frame_needed = 0, uses_anonymous_args = 0
  35              		@ link register save eliminated.
 264:Drivers/STM32F4xx_HAL_Driver/Src/stm32f4xx_hal_rng.c ****   /* Prevent unused argument(s) compilation warning */
 265:Drivers/STM32F4xx_HAL_Driver/Src/stm32f4xx_hal_rng.c ****   UNUSED(hrng);
  36              		.loc 1 265 3 view .LVU1
 266:Drivers/STM32F4xx_HAL_Driver/Src/stm32f4xx_hal_rng.c ****   /* NOTE : This function should not be modified. When the callback is needed,
 267:Drivers/STM32F4xx_HAL_Driver/Src/stm32f4xx_hal_rng.c ****             function HAL_RNG_MspInit must be implemented in the user file.
 268:Drivers/STM32F4xx_HAL_Driver/Src/stm32f4xx_hal_rng.c ****    */
 269:Drivers/STM32F4xx_HAL_Driver/Src/stm32f4xx_hal_rng.c **** }
  37              		.loc 1 269 1 is_stmt 0 view .LVU2
  38 0000 7047     		bx	lr
  39              		.cfi_endproc
  40              	.LFE237:
  42 0002 00BF     		.section	.text.HAL_RNG_Init,"ax",%progbits
  43              		.align	1
  44              		.p2align 2,,3
  45              		.global	HAL_RNG_Init
  46              		.syntax unified
  47              		.thumb
  48              		.thumb_func
  50              	HAL_RNG_Init:
  51              	.LVL1:
  52              	.LFB235:
 156:Drivers/STM32F4xx_HAL_Driver/Src/stm32f4xx_hal_rng.c ****   /* Check the RNG handle allocation */
  53              		.loc 1 156 1 is_stmt 1 view -0
  54              		.cfi_startproc
  55              		@ args = 0, pretend = 0, frame = 0
  56              		@ frame_needed = 0, uses_anonymous_args = 0
 158:Drivers/STM32F4xx_HAL_Driver/Src/stm32f4xx_hal_rng.c ****   {
  57              		.loc 1 158 3 view .LVU4
 158:Drivers/STM32F4xx_HAL_Driver/Src/stm32f4xx_hal_rng.c ****   {
  58              		.loc 1 158 6 is_stmt 0 view .LVU5
  59 0000 B0B1     		cbz	r0, .L6
 163:Drivers/STM32F4xx_HAL_Driver/Src/stm32f4xx_hal_rng.c **** 
  60              		.loc 1 163 3 is_stmt 1 view .LVU6
 183:Drivers/STM32F4xx_HAL_Driver/Src/stm32f4xx_hal_rng.c ****   {
  61              		.loc 1 183 3 view .LVU7
 156:Drivers/STM32F4xx_HAL_Driver/Src/stm32f4xx_hal_rng.c ****   /* Check the RNG handle allocation */
  62              		.loc 1 156 1 is_stmt 0 view .LVU8
  63 0002 10B5     		push	{r4, lr}
  64              		.cfi_def_cfa_offset 8
  65              		.cfi_offset 4, -8
  66              		.cfi_offset 14, -4
 183:Drivers/STM32F4xx_HAL_Driver/Src/stm32f4xx_hal_rng.c ****   {
  67              		.loc 1 183 11 view .LVU9
  68 0004 4379     		ldrb	r3, [r0, #5]	@ zero_extendqisi2
  69 0006 0446     		mov	r4, r0
ARM GAS  /var/folders/0z/tsy30v1j4xl4_7kw94k978ww0000gn/T//ccgroddb.s 			page 7


 183:Drivers/STM32F4xx_HAL_Driver/Src/stm32f4xx_hal_rng.c ****   {
  70              		.loc 1 183 6 view .LVU10
  71 0008 03F0FF02 		and	r2, r3, #255
  72 000c 63B1     		cbz	r3, .L11
  73              	.LVL2:
  74              	.L5:
 194:Drivers/STM32F4xx_HAL_Driver/Src/stm32f4xx_hal_rng.c **** 
  75              		.loc 1 194 3 is_stmt 1 view .LVU11
 198:Drivers/STM32F4xx_HAL_Driver/Src/stm32f4xx_hal_rng.c **** 
  76              		.loc 1 198 3 is_stmt 0 view .LVU12
  77 000e 2168     		ldr	r1, [r4]
 194:Drivers/STM32F4xx_HAL_Driver/Src/stm32f4xx_hal_rng.c **** 
  78              		.loc 1 194 15 view .LVU13
  79 0010 0223     		movs	r3, #2
  80 0012 6371     		strb	r3, [r4, #5]
 198:Drivers/STM32F4xx_HAL_Driver/Src/stm32f4xx_hal_rng.c **** 
  81              		.loc 1 198 3 is_stmt 1 view .LVU14
  82 0014 0B68     		ldr	r3, [r1]
 201:Drivers/STM32F4xx_HAL_Driver/Src/stm32f4xx_hal_rng.c **** 
  83              		.loc 1 201 15 is_stmt 0 view .LVU15
  84 0016 0120     		movs	r0, #1
 198:Drivers/STM32F4xx_HAL_Driver/Src/stm32f4xx_hal_rng.c **** 
  85              		.loc 1 198 3 view .LVU16
  86 0018 43F00403 		orr	r3, r3, #4
 204:Drivers/STM32F4xx_HAL_Driver/Src/stm32f4xx_hal_rng.c **** 
  87              		.loc 1 204 19 view .LVU17
  88 001c 0022     		movs	r2, #0
 198:Drivers/STM32F4xx_HAL_Driver/Src/stm32f4xx_hal_rng.c **** 
  89              		.loc 1 198 3 view .LVU18
  90 001e 0B60     		str	r3, [r1]
 201:Drivers/STM32F4xx_HAL_Driver/Src/stm32f4xx_hal_rng.c **** 
  91              		.loc 1 201 3 is_stmt 1 view .LVU19
 201:Drivers/STM32F4xx_HAL_Driver/Src/stm32f4xx_hal_rng.c **** 
  92              		.loc 1 201 15 is_stmt 0 view .LVU20
  93 0020 6071     		strb	r0, [r4, #5]
 204:Drivers/STM32F4xx_HAL_Driver/Src/stm32f4xx_hal_rng.c **** 
  94              		.loc 1 204 3 is_stmt 1 view .LVU21
 207:Drivers/STM32F4xx_HAL_Driver/Src/stm32f4xx_hal_rng.c **** }
  95              		.loc 1 207 10 is_stmt 0 view .LVU22
  96 0022 1046     		mov	r0, r2
 204:Drivers/STM32F4xx_HAL_Driver/Src/stm32f4xx_hal_rng.c **** 
  97              		.loc 1 204 19 view .LVU23
  98 0024 A260     		str	r2, [r4, #8]
 207:Drivers/STM32F4xx_HAL_Driver/Src/stm32f4xx_hal_rng.c **** }
  99              		.loc 1 207 3 is_stmt 1 view .LVU24
 208:Drivers/STM32F4xx_HAL_Driver/Src/stm32f4xx_hal_rng.c **** 
 100              		.loc 1 208 1 is_stmt 0 view .LVU25
 101 0026 10BD     		pop	{r4, pc}
 102              	.LVL3:
 103              	.L11:
 186:Drivers/STM32F4xx_HAL_Driver/Src/stm32f4xx_hal_rng.c **** 
 104              		.loc 1 186 5 is_stmt 1 view .LVU26
 186:Drivers/STM32F4xx_HAL_Driver/Src/stm32f4xx_hal_rng.c **** 
 105              		.loc 1 186 16 is_stmt 0 view .LVU27
 106 0028 0271     		strb	r2, [r0, #4]
 189:Drivers/STM32F4xx_HAL_Driver/Src/stm32f4xx_hal_rng.c ****   }
 107              		.loc 1 189 5 is_stmt 1 view .LVU28
ARM GAS  /var/folders/0z/tsy30v1j4xl4_7kw94k978ww0000gn/T//ccgroddb.s 			page 8


 108 002a FFF7FEFF 		bl	HAL_RNG_MspInit
 109              	.LVL4:
 189:Drivers/STM32F4xx_HAL_Driver/Src/stm32f4xx_hal_rng.c ****   }
 110              		.loc 1 189 5 is_stmt 0 view .LVU29
 111 002e EEE7     		b	.L5
 112              	.LVL5:
 113              	.L6:
 114              		.cfi_def_cfa_offset 0
 115              		.cfi_restore 4
 116              		.cfi_restore 14
 160:Drivers/STM32F4xx_HAL_Driver/Src/stm32f4xx_hal_rng.c ****   }
 117              		.loc 1 160 12 view .LVU30
 118 0030 0120     		movs	r0, #1
 119              	.LVL6:
 208:Drivers/STM32F4xx_HAL_Driver/Src/stm32f4xx_hal_rng.c **** 
 120              		.loc 1 208 1 view .LVU31
 121 0032 7047     		bx	lr
 122              		.cfi_endproc
 123              	.LFE235:
 125              		.section	.text.HAL_RNG_MspDeInit,"ax",%progbits
 126              		.align	1
 127              		.p2align 2,,3
 128              		.weak	HAL_RNG_MspDeInit
 129              		.syntax unified
 130              		.thumb
 131              		.thumb_func
 133              	HAL_RNG_MspDeInit:
 134              	.LFB250:
 135              		.cfi_startproc
 136              		@ args = 0, pretend = 0, frame = 0
 137              		@ frame_needed = 0, uses_anonymous_args = 0
 138              		@ link register save eliminated.
 139 0000 7047     		bx	lr
 140              		.cfi_endproc
 141              	.LFE250:
 143 0002 00BF     		.section	.text.HAL_RNG_DeInit,"ax",%progbits
 144              		.align	1
 145              		.p2align 2,,3
 146              		.global	HAL_RNG_DeInit
 147              		.syntax unified
 148              		.thumb
 149              		.thumb_func
 151              	HAL_RNG_DeInit:
 152              	.LVL7:
 153              	.LFB236:
 217:Drivers/STM32F4xx_HAL_Driver/Src/stm32f4xx_hal_rng.c ****   /* Check the RNG handle allocation */
 154              		.loc 1 217 1 is_stmt 1 view -0
 155              		.cfi_startproc
 156              		@ args = 0, pretend = 0, frame = 0
 157              		@ frame_needed = 0, uses_anonymous_args = 0
 219:Drivers/STM32F4xx_HAL_Driver/Src/stm32f4xx_hal_rng.c ****   {
 158              		.loc 1 219 3 view .LVU33
 219:Drivers/STM32F4xx_HAL_Driver/Src/stm32f4xx_hal_rng.c ****   {
 159              		.loc 1 219 6 is_stmt 0 view .LVU34
 160 0000 88B1     		cbz	r0, .L15
 225:Drivers/STM32F4xx_HAL_Driver/Src/stm32f4xx_hal_rng.c **** 
 161              		.loc 1 225 3 view .LVU35
ARM GAS  /var/folders/0z/tsy30v1j4xl4_7kw94k978ww0000gn/T//ccgroddb.s 			page 9


 162 0002 0368     		ldr	r3, [r0]
 163 0004 1A68     		ldr	r2, [r3]
 164 0006 22F00C02 		bic	r2, r2, #12
 217:Drivers/STM32F4xx_HAL_Driver/Src/stm32f4xx_hal_rng.c ****   /* Check the RNG handle allocation */
 165              		.loc 1 217 1 view .LVU36
 166 000a 10B5     		push	{r4, lr}
 167              		.cfi_def_cfa_offset 8
 168              		.cfi_offset 4, -8
 169              		.cfi_offset 14, -4
 225:Drivers/STM32F4xx_HAL_Driver/Src/stm32f4xx_hal_rng.c **** 
 170              		.loc 1 225 3 view .LVU37
 171 000c 1A60     		str	r2, [r3]
 228:Drivers/STM32F4xx_HAL_Driver/Src/stm32f4xx_hal_rng.c **** 
 172              		.loc 1 228 3 view .LVU38
 173 000e 5A68     		ldr	r2, [r3, #4]
 174 0010 22F06002 		bic	r2, r2, #96
 175 0014 0446     		mov	r4, r0
 225:Drivers/STM32F4xx_HAL_Driver/Src/stm32f4xx_hal_rng.c **** 
 176              		.loc 1 225 3 is_stmt 1 view .LVU39
 228:Drivers/STM32F4xx_HAL_Driver/Src/stm32f4xx_hal_rng.c **** 
 177              		.loc 1 228 3 view .LVU40
 178 0016 5A60     		str	r2, [r3, #4]
 240:Drivers/STM32F4xx_HAL_Driver/Src/stm32f4xx_hal_rng.c **** #endif /* USE_HAL_RNG_REGISTER_CALLBACKS */
 179              		.loc 1 240 3 view .LVU41
 180 0018 FFF7FEFF 		bl	HAL_RNG_MspDeInit
 181              	.LVL8:
 244:Drivers/STM32F4xx_HAL_Driver/Src/stm32f4xx_hal_rng.c **** 
 182              		.loc 1 244 3 view .LVU42
 244:Drivers/STM32F4xx_HAL_Driver/Src/stm32f4xx_hal_rng.c **** 
 183              		.loc 1 244 15 is_stmt 0 view .LVU43
 184 001c 0020     		movs	r0, #0
 185 001e 6071     		strb	r0, [r4, #5]
 247:Drivers/STM32F4xx_HAL_Driver/Src/stm32f4xx_hal_rng.c **** 
 186              		.loc 1 247 3 is_stmt 1 view .LVU44
 250:Drivers/STM32F4xx_HAL_Driver/Src/stm32f4xx_hal_rng.c **** 
 187              		.loc 1 250 3 is_stmt 0 view .LVU45
 188 0020 2071     		strb	r0, [r4, #4]
 247:Drivers/STM32F4xx_HAL_Driver/Src/stm32f4xx_hal_rng.c **** 
 189              		.loc 1 247 19 view .LVU46
 190 0022 A060     		str	r0, [r4, #8]
 250:Drivers/STM32F4xx_HAL_Driver/Src/stm32f4xx_hal_rng.c **** 
 191              		.loc 1 250 3 is_stmt 1 view .LVU47
 250:Drivers/STM32F4xx_HAL_Driver/Src/stm32f4xx_hal_rng.c **** 
 192              		.loc 1 250 3 view .LVU48
 250:Drivers/STM32F4xx_HAL_Driver/Src/stm32f4xx_hal_rng.c **** 
 193              		.loc 1 250 3 view .LVU49
 253:Drivers/STM32F4xx_HAL_Driver/Src/stm32f4xx_hal_rng.c **** }
 194              		.loc 1 253 3 view .LVU50
 254:Drivers/STM32F4xx_HAL_Driver/Src/stm32f4xx_hal_rng.c **** 
 195              		.loc 1 254 1 is_stmt 0 view .LVU51
 196 0024 10BD     		pop	{r4, pc}
 197              	.LVL9:
 198              	.L15:
 199              		.cfi_def_cfa_offset 0
 200              		.cfi_restore 4
 201              		.cfi_restore 14
 221:Drivers/STM32F4xx_HAL_Driver/Src/stm32f4xx_hal_rng.c ****   }
ARM GAS  /var/folders/0z/tsy30v1j4xl4_7kw94k978ww0000gn/T//ccgroddb.s 			page 10


 202              		.loc 1 221 12 view .LVU52
 203 0026 0120     		movs	r0, #1
 204              	.LVL10:
 254:Drivers/STM32F4xx_HAL_Driver/Src/stm32f4xx_hal_rng.c **** 
 205              		.loc 1 254 1 view .LVU53
 206 0028 7047     		bx	lr
 207              		.cfi_endproc
 208              	.LFE236:
 210 002a 00BF     		.section	.text.HAL_RNG_GenerateRandomNumber,"ax",%progbits
 211              		.align	1
 212              		.p2align 2,,3
 213              		.global	HAL_RNG_GenerateRandomNumber
 214              		.syntax unified
 215              		.thumb
 216              		.thumb_func
 218              	HAL_RNG_GenerateRandomNumber:
 219              	.LVL11:
 220              	.LFB239:
 270:Drivers/STM32F4xx_HAL_Driver/Src/stm32f4xx_hal_rng.c **** 
 271:Drivers/STM32F4xx_HAL_Driver/Src/stm32f4xx_hal_rng.c **** /**
 272:Drivers/STM32F4xx_HAL_Driver/Src/stm32f4xx_hal_rng.c ****   * @brief  DeInitializes the RNG MSP.
 273:Drivers/STM32F4xx_HAL_Driver/Src/stm32f4xx_hal_rng.c ****   * @param  hrng pointer to a RNG_HandleTypeDef structure that contains
 274:Drivers/STM32F4xx_HAL_Driver/Src/stm32f4xx_hal_rng.c ****   *                the configuration information for RNG.
 275:Drivers/STM32F4xx_HAL_Driver/Src/stm32f4xx_hal_rng.c ****   * @retval None
 276:Drivers/STM32F4xx_HAL_Driver/Src/stm32f4xx_hal_rng.c ****   */
 277:Drivers/STM32F4xx_HAL_Driver/Src/stm32f4xx_hal_rng.c **** __weak void HAL_RNG_MspDeInit(RNG_HandleTypeDef *hrng)
 278:Drivers/STM32F4xx_HAL_Driver/Src/stm32f4xx_hal_rng.c **** {
 279:Drivers/STM32F4xx_HAL_Driver/Src/stm32f4xx_hal_rng.c ****   /* Prevent unused argument(s) compilation warning */
 280:Drivers/STM32F4xx_HAL_Driver/Src/stm32f4xx_hal_rng.c ****   UNUSED(hrng);
 281:Drivers/STM32F4xx_HAL_Driver/Src/stm32f4xx_hal_rng.c ****   /* NOTE : This function should not be modified. When the callback is needed,
 282:Drivers/STM32F4xx_HAL_Driver/Src/stm32f4xx_hal_rng.c ****             function HAL_RNG_MspDeInit must be implemented in the user file.
 283:Drivers/STM32F4xx_HAL_Driver/Src/stm32f4xx_hal_rng.c ****    */
 284:Drivers/STM32F4xx_HAL_Driver/Src/stm32f4xx_hal_rng.c **** }
 285:Drivers/STM32F4xx_HAL_Driver/Src/stm32f4xx_hal_rng.c **** 
 286:Drivers/STM32F4xx_HAL_Driver/Src/stm32f4xx_hal_rng.c **** #if (USE_HAL_RNG_REGISTER_CALLBACKS == 1)
 287:Drivers/STM32F4xx_HAL_Driver/Src/stm32f4xx_hal_rng.c **** /**
 288:Drivers/STM32F4xx_HAL_Driver/Src/stm32f4xx_hal_rng.c ****   * @brief  Register a User RNG Callback
 289:Drivers/STM32F4xx_HAL_Driver/Src/stm32f4xx_hal_rng.c ****   *         To be used instead of the weak predefined callback
 290:Drivers/STM32F4xx_HAL_Driver/Src/stm32f4xx_hal_rng.c ****   * @param  hrng RNG handle
 291:Drivers/STM32F4xx_HAL_Driver/Src/stm32f4xx_hal_rng.c ****   * @param  CallbackID ID of the callback to be registered
 292:Drivers/STM32F4xx_HAL_Driver/Src/stm32f4xx_hal_rng.c ****   *         This parameter can be one of the following values:
 293:Drivers/STM32F4xx_HAL_Driver/Src/stm32f4xx_hal_rng.c ****   *          @arg @ref HAL_RNG_ERROR_CB_ID Error callback ID
 294:Drivers/STM32F4xx_HAL_Driver/Src/stm32f4xx_hal_rng.c ****   *          @arg @ref HAL_RNG_MSPINIT_CB_ID MspInit callback ID
 295:Drivers/STM32F4xx_HAL_Driver/Src/stm32f4xx_hal_rng.c ****   *          @arg @ref HAL_RNG_MSPDEINIT_CB_ID MspDeInit callback ID
 296:Drivers/STM32F4xx_HAL_Driver/Src/stm32f4xx_hal_rng.c ****   * @param  pCallback pointer to the Callback function
 297:Drivers/STM32F4xx_HAL_Driver/Src/stm32f4xx_hal_rng.c ****   * @retval HAL status
 298:Drivers/STM32F4xx_HAL_Driver/Src/stm32f4xx_hal_rng.c ****   */
 299:Drivers/STM32F4xx_HAL_Driver/Src/stm32f4xx_hal_rng.c **** HAL_StatusTypeDef HAL_RNG_RegisterCallback(RNG_HandleTypeDef *hrng, HAL_RNG_CallbackIDTypeDef Callb
 300:Drivers/STM32F4xx_HAL_Driver/Src/stm32f4xx_hal_rng.c ****                                            pRNG_CallbackTypeDef pCallback)
 301:Drivers/STM32F4xx_HAL_Driver/Src/stm32f4xx_hal_rng.c **** {
 302:Drivers/STM32F4xx_HAL_Driver/Src/stm32f4xx_hal_rng.c ****   HAL_StatusTypeDef status = HAL_OK;
 303:Drivers/STM32F4xx_HAL_Driver/Src/stm32f4xx_hal_rng.c **** 
 304:Drivers/STM32F4xx_HAL_Driver/Src/stm32f4xx_hal_rng.c ****   if (pCallback == NULL)
 305:Drivers/STM32F4xx_HAL_Driver/Src/stm32f4xx_hal_rng.c ****   {
 306:Drivers/STM32F4xx_HAL_Driver/Src/stm32f4xx_hal_rng.c ****     /* Update the error code */
 307:Drivers/STM32F4xx_HAL_Driver/Src/stm32f4xx_hal_rng.c ****     hrng->ErrorCode = HAL_RNG_ERROR_INVALID_CALLBACK;
 308:Drivers/STM32F4xx_HAL_Driver/Src/stm32f4xx_hal_rng.c ****     return HAL_ERROR;
ARM GAS  /var/folders/0z/tsy30v1j4xl4_7kw94k978ww0000gn/T//ccgroddb.s 			page 11


 309:Drivers/STM32F4xx_HAL_Driver/Src/stm32f4xx_hal_rng.c ****   }
 310:Drivers/STM32F4xx_HAL_Driver/Src/stm32f4xx_hal_rng.c ****   /* Process locked */
 311:Drivers/STM32F4xx_HAL_Driver/Src/stm32f4xx_hal_rng.c ****   __HAL_LOCK(hrng);
 312:Drivers/STM32F4xx_HAL_Driver/Src/stm32f4xx_hal_rng.c **** 
 313:Drivers/STM32F4xx_HAL_Driver/Src/stm32f4xx_hal_rng.c ****   if (HAL_RNG_STATE_READY == hrng->State)
 314:Drivers/STM32F4xx_HAL_Driver/Src/stm32f4xx_hal_rng.c ****   {
 315:Drivers/STM32F4xx_HAL_Driver/Src/stm32f4xx_hal_rng.c ****     switch (CallbackID)
 316:Drivers/STM32F4xx_HAL_Driver/Src/stm32f4xx_hal_rng.c ****     {
 317:Drivers/STM32F4xx_HAL_Driver/Src/stm32f4xx_hal_rng.c ****       case HAL_RNG_ERROR_CB_ID :
 318:Drivers/STM32F4xx_HAL_Driver/Src/stm32f4xx_hal_rng.c ****         hrng->ErrorCallback = pCallback;
 319:Drivers/STM32F4xx_HAL_Driver/Src/stm32f4xx_hal_rng.c ****         break;
 320:Drivers/STM32F4xx_HAL_Driver/Src/stm32f4xx_hal_rng.c **** 
 321:Drivers/STM32F4xx_HAL_Driver/Src/stm32f4xx_hal_rng.c ****       case HAL_RNG_MSPINIT_CB_ID :
 322:Drivers/STM32F4xx_HAL_Driver/Src/stm32f4xx_hal_rng.c ****         hrng->MspInitCallback = pCallback;
 323:Drivers/STM32F4xx_HAL_Driver/Src/stm32f4xx_hal_rng.c ****         break;
 324:Drivers/STM32F4xx_HAL_Driver/Src/stm32f4xx_hal_rng.c **** 
 325:Drivers/STM32F4xx_HAL_Driver/Src/stm32f4xx_hal_rng.c ****       case HAL_RNG_MSPDEINIT_CB_ID :
 326:Drivers/STM32F4xx_HAL_Driver/Src/stm32f4xx_hal_rng.c ****         hrng->MspDeInitCallback = pCallback;
 327:Drivers/STM32F4xx_HAL_Driver/Src/stm32f4xx_hal_rng.c ****         break;
 328:Drivers/STM32F4xx_HAL_Driver/Src/stm32f4xx_hal_rng.c **** 
 329:Drivers/STM32F4xx_HAL_Driver/Src/stm32f4xx_hal_rng.c ****       default :
 330:Drivers/STM32F4xx_HAL_Driver/Src/stm32f4xx_hal_rng.c ****         /* Update the error code */
 331:Drivers/STM32F4xx_HAL_Driver/Src/stm32f4xx_hal_rng.c ****         hrng->ErrorCode = HAL_RNG_ERROR_INVALID_CALLBACK;
 332:Drivers/STM32F4xx_HAL_Driver/Src/stm32f4xx_hal_rng.c ****         /* Return error status */
 333:Drivers/STM32F4xx_HAL_Driver/Src/stm32f4xx_hal_rng.c ****         status =  HAL_ERROR;
 334:Drivers/STM32F4xx_HAL_Driver/Src/stm32f4xx_hal_rng.c ****         break;
 335:Drivers/STM32F4xx_HAL_Driver/Src/stm32f4xx_hal_rng.c ****     }
 336:Drivers/STM32F4xx_HAL_Driver/Src/stm32f4xx_hal_rng.c ****   }
 337:Drivers/STM32F4xx_HAL_Driver/Src/stm32f4xx_hal_rng.c ****   else if (HAL_RNG_STATE_RESET == hrng->State)
 338:Drivers/STM32F4xx_HAL_Driver/Src/stm32f4xx_hal_rng.c ****   {
 339:Drivers/STM32F4xx_HAL_Driver/Src/stm32f4xx_hal_rng.c ****     switch (CallbackID)
 340:Drivers/STM32F4xx_HAL_Driver/Src/stm32f4xx_hal_rng.c ****     {
 341:Drivers/STM32F4xx_HAL_Driver/Src/stm32f4xx_hal_rng.c ****       case HAL_RNG_MSPINIT_CB_ID :
 342:Drivers/STM32F4xx_HAL_Driver/Src/stm32f4xx_hal_rng.c ****         hrng->MspInitCallback = pCallback;
 343:Drivers/STM32F4xx_HAL_Driver/Src/stm32f4xx_hal_rng.c ****         break;
 344:Drivers/STM32F4xx_HAL_Driver/Src/stm32f4xx_hal_rng.c **** 
 345:Drivers/STM32F4xx_HAL_Driver/Src/stm32f4xx_hal_rng.c ****       case HAL_RNG_MSPDEINIT_CB_ID :
 346:Drivers/STM32F4xx_HAL_Driver/Src/stm32f4xx_hal_rng.c ****         hrng->MspDeInitCallback = pCallback;
 347:Drivers/STM32F4xx_HAL_Driver/Src/stm32f4xx_hal_rng.c ****         break;
 348:Drivers/STM32F4xx_HAL_Driver/Src/stm32f4xx_hal_rng.c **** 
 349:Drivers/STM32F4xx_HAL_Driver/Src/stm32f4xx_hal_rng.c ****       default :
 350:Drivers/STM32F4xx_HAL_Driver/Src/stm32f4xx_hal_rng.c ****         /* Update the error code */
 351:Drivers/STM32F4xx_HAL_Driver/Src/stm32f4xx_hal_rng.c ****         hrng->ErrorCode = HAL_RNG_ERROR_INVALID_CALLBACK;
 352:Drivers/STM32F4xx_HAL_Driver/Src/stm32f4xx_hal_rng.c ****         /* Return error status */
 353:Drivers/STM32F4xx_HAL_Driver/Src/stm32f4xx_hal_rng.c ****         status =  HAL_ERROR;
 354:Drivers/STM32F4xx_HAL_Driver/Src/stm32f4xx_hal_rng.c ****         break;
 355:Drivers/STM32F4xx_HAL_Driver/Src/stm32f4xx_hal_rng.c ****     }
 356:Drivers/STM32F4xx_HAL_Driver/Src/stm32f4xx_hal_rng.c ****   }
 357:Drivers/STM32F4xx_HAL_Driver/Src/stm32f4xx_hal_rng.c ****   else
 358:Drivers/STM32F4xx_HAL_Driver/Src/stm32f4xx_hal_rng.c ****   {
 359:Drivers/STM32F4xx_HAL_Driver/Src/stm32f4xx_hal_rng.c ****     /* Update the error code */
 360:Drivers/STM32F4xx_HAL_Driver/Src/stm32f4xx_hal_rng.c ****     hrng->ErrorCode = HAL_RNG_ERROR_INVALID_CALLBACK;
 361:Drivers/STM32F4xx_HAL_Driver/Src/stm32f4xx_hal_rng.c ****     /* Return error status */
 362:Drivers/STM32F4xx_HAL_Driver/Src/stm32f4xx_hal_rng.c ****     status =  HAL_ERROR;
 363:Drivers/STM32F4xx_HAL_Driver/Src/stm32f4xx_hal_rng.c ****   }
 364:Drivers/STM32F4xx_HAL_Driver/Src/stm32f4xx_hal_rng.c **** 
 365:Drivers/STM32F4xx_HAL_Driver/Src/stm32f4xx_hal_rng.c ****   /* Release Lock */
ARM GAS  /var/folders/0z/tsy30v1j4xl4_7kw94k978ww0000gn/T//ccgroddb.s 			page 12


 366:Drivers/STM32F4xx_HAL_Driver/Src/stm32f4xx_hal_rng.c ****   __HAL_UNLOCK(hrng);
 367:Drivers/STM32F4xx_HAL_Driver/Src/stm32f4xx_hal_rng.c ****   return status;
 368:Drivers/STM32F4xx_HAL_Driver/Src/stm32f4xx_hal_rng.c **** }
 369:Drivers/STM32F4xx_HAL_Driver/Src/stm32f4xx_hal_rng.c **** 
 370:Drivers/STM32F4xx_HAL_Driver/Src/stm32f4xx_hal_rng.c **** /**
 371:Drivers/STM32F4xx_HAL_Driver/Src/stm32f4xx_hal_rng.c ****   * @brief  Unregister an RNG Callback
 372:Drivers/STM32F4xx_HAL_Driver/Src/stm32f4xx_hal_rng.c ****   *         RNG callback is redirected to the weak predefined callback
 373:Drivers/STM32F4xx_HAL_Driver/Src/stm32f4xx_hal_rng.c ****   * @param  hrng RNG handle
 374:Drivers/STM32F4xx_HAL_Driver/Src/stm32f4xx_hal_rng.c ****   * @param  CallbackID ID of the callback to be unregistered
 375:Drivers/STM32F4xx_HAL_Driver/Src/stm32f4xx_hal_rng.c ****   *         This parameter can be one of the following values:
 376:Drivers/STM32F4xx_HAL_Driver/Src/stm32f4xx_hal_rng.c ****   *          @arg @ref HAL_RNG_ERROR_CB_ID Error callback ID
 377:Drivers/STM32F4xx_HAL_Driver/Src/stm32f4xx_hal_rng.c ****   *          @arg @ref HAL_RNG_MSPINIT_CB_ID MspInit callback ID
 378:Drivers/STM32F4xx_HAL_Driver/Src/stm32f4xx_hal_rng.c ****   *          @arg @ref HAL_RNG_MSPDEINIT_CB_ID MspDeInit callback ID
 379:Drivers/STM32F4xx_HAL_Driver/Src/stm32f4xx_hal_rng.c ****   * @retval HAL status
 380:Drivers/STM32F4xx_HAL_Driver/Src/stm32f4xx_hal_rng.c ****   */
 381:Drivers/STM32F4xx_HAL_Driver/Src/stm32f4xx_hal_rng.c **** HAL_StatusTypeDef HAL_RNG_UnRegisterCallback(RNG_HandleTypeDef *hrng, HAL_RNG_CallbackIDTypeDef Cal
 382:Drivers/STM32F4xx_HAL_Driver/Src/stm32f4xx_hal_rng.c **** {
 383:Drivers/STM32F4xx_HAL_Driver/Src/stm32f4xx_hal_rng.c ****   HAL_StatusTypeDef status = HAL_OK;
 384:Drivers/STM32F4xx_HAL_Driver/Src/stm32f4xx_hal_rng.c **** 
 385:Drivers/STM32F4xx_HAL_Driver/Src/stm32f4xx_hal_rng.c ****   /* Process locked */
 386:Drivers/STM32F4xx_HAL_Driver/Src/stm32f4xx_hal_rng.c ****   __HAL_LOCK(hrng);
 387:Drivers/STM32F4xx_HAL_Driver/Src/stm32f4xx_hal_rng.c **** 
 388:Drivers/STM32F4xx_HAL_Driver/Src/stm32f4xx_hal_rng.c ****   if (HAL_RNG_STATE_READY == hrng->State)
 389:Drivers/STM32F4xx_HAL_Driver/Src/stm32f4xx_hal_rng.c ****   {
 390:Drivers/STM32F4xx_HAL_Driver/Src/stm32f4xx_hal_rng.c ****     switch (CallbackID)
 391:Drivers/STM32F4xx_HAL_Driver/Src/stm32f4xx_hal_rng.c ****     {
 392:Drivers/STM32F4xx_HAL_Driver/Src/stm32f4xx_hal_rng.c ****       case HAL_RNG_ERROR_CB_ID :
 393:Drivers/STM32F4xx_HAL_Driver/Src/stm32f4xx_hal_rng.c ****         hrng->ErrorCallback = HAL_RNG_ErrorCallback;          /* Legacy weak ErrorCallback  */
 394:Drivers/STM32F4xx_HAL_Driver/Src/stm32f4xx_hal_rng.c ****         break;
 395:Drivers/STM32F4xx_HAL_Driver/Src/stm32f4xx_hal_rng.c **** 
 396:Drivers/STM32F4xx_HAL_Driver/Src/stm32f4xx_hal_rng.c ****       case HAL_RNG_MSPINIT_CB_ID :
 397:Drivers/STM32F4xx_HAL_Driver/Src/stm32f4xx_hal_rng.c ****         hrng->MspInitCallback = HAL_RNG_MspInit;              /* Legacy weak MspInit  */
 398:Drivers/STM32F4xx_HAL_Driver/Src/stm32f4xx_hal_rng.c ****         break;
 399:Drivers/STM32F4xx_HAL_Driver/Src/stm32f4xx_hal_rng.c **** 
 400:Drivers/STM32F4xx_HAL_Driver/Src/stm32f4xx_hal_rng.c ****       case HAL_RNG_MSPDEINIT_CB_ID :
 401:Drivers/STM32F4xx_HAL_Driver/Src/stm32f4xx_hal_rng.c ****         hrng->MspDeInitCallback = HAL_RNG_MspDeInit;          /* Legacy weak MspDeInit  */
 402:Drivers/STM32F4xx_HAL_Driver/Src/stm32f4xx_hal_rng.c ****         break;
 403:Drivers/STM32F4xx_HAL_Driver/Src/stm32f4xx_hal_rng.c **** 
 404:Drivers/STM32F4xx_HAL_Driver/Src/stm32f4xx_hal_rng.c ****       default :
 405:Drivers/STM32F4xx_HAL_Driver/Src/stm32f4xx_hal_rng.c ****         /* Update the error code */
 406:Drivers/STM32F4xx_HAL_Driver/Src/stm32f4xx_hal_rng.c ****         hrng->ErrorCode = HAL_RNG_ERROR_INVALID_CALLBACK;
 407:Drivers/STM32F4xx_HAL_Driver/Src/stm32f4xx_hal_rng.c ****         /* Return error status */
 408:Drivers/STM32F4xx_HAL_Driver/Src/stm32f4xx_hal_rng.c ****         status =  HAL_ERROR;
 409:Drivers/STM32F4xx_HAL_Driver/Src/stm32f4xx_hal_rng.c ****         break;
 410:Drivers/STM32F4xx_HAL_Driver/Src/stm32f4xx_hal_rng.c ****     }
 411:Drivers/STM32F4xx_HAL_Driver/Src/stm32f4xx_hal_rng.c ****   }
 412:Drivers/STM32F4xx_HAL_Driver/Src/stm32f4xx_hal_rng.c ****   else if (HAL_RNG_STATE_RESET == hrng->State)
 413:Drivers/STM32F4xx_HAL_Driver/Src/stm32f4xx_hal_rng.c ****   {
 414:Drivers/STM32F4xx_HAL_Driver/Src/stm32f4xx_hal_rng.c ****     switch (CallbackID)
 415:Drivers/STM32F4xx_HAL_Driver/Src/stm32f4xx_hal_rng.c ****     {
 416:Drivers/STM32F4xx_HAL_Driver/Src/stm32f4xx_hal_rng.c ****       case HAL_RNG_MSPINIT_CB_ID :
 417:Drivers/STM32F4xx_HAL_Driver/Src/stm32f4xx_hal_rng.c ****         hrng->MspInitCallback = HAL_RNG_MspInit;              /* Legacy weak MspInit  */
 418:Drivers/STM32F4xx_HAL_Driver/Src/stm32f4xx_hal_rng.c ****         break;
 419:Drivers/STM32F4xx_HAL_Driver/Src/stm32f4xx_hal_rng.c **** 
 420:Drivers/STM32F4xx_HAL_Driver/Src/stm32f4xx_hal_rng.c ****       case HAL_RNG_MSPDEINIT_CB_ID :
 421:Drivers/STM32F4xx_HAL_Driver/Src/stm32f4xx_hal_rng.c ****         hrng->MspDeInitCallback = HAL_RNG_MspDeInit;          /* Legacy weak MspInit  */
 422:Drivers/STM32F4xx_HAL_Driver/Src/stm32f4xx_hal_rng.c ****         break;
ARM GAS  /var/folders/0z/tsy30v1j4xl4_7kw94k978ww0000gn/T//ccgroddb.s 			page 13


 423:Drivers/STM32F4xx_HAL_Driver/Src/stm32f4xx_hal_rng.c **** 
 424:Drivers/STM32F4xx_HAL_Driver/Src/stm32f4xx_hal_rng.c ****       default :
 425:Drivers/STM32F4xx_HAL_Driver/Src/stm32f4xx_hal_rng.c ****         /* Update the error code */
 426:Drivers/STM32F4xx_HAL_Driver/Src/stm32f4xx_hal_rng.c ****         hrng->ErrorCode = HAL_RNG_ERROR_INVALID_CALLBACK;
 427:Drivers/STM32F4xx_HAL_Driver/Src/stm32f4xx_hal_rng.c ****         /* Return error status */
 428:Drivers/STM32F4xx_HAL_Driver/Src/stm32f4xx_hal_rng.c ****         status =  HAL_ERROR;
 429:Drivers/STM32F4xx_HAL_Driver/Src/stm32f4xx_hal_rng.c ****         break;
 430:Drivers/STM32F4xx_HAL_Driver/Src/stm32f4xx_hal_rng.c ****     }
 431:Drivers/STM32F4xx_HAL_Driver/Src/stm32f4xx_hal_rng.c ****   }
 432:Drivers/STM32F4xx_HAL_Driver/Src/stm32f4xx_hal_rng.c ****   else
 433:Drivers/STM32F4xx_HAL_Driver/Src/stm32f4xx_hal_rng.c ****   {
 434:Drivers/STM32F4xx_HAL_Driver/Src/stm32f4xx_hal_rng.c ****     /* Update the error code */
 435:Drivers/STM32F4xx_HAL_Driver/Src/stm32f4xx_hal_rng.c ****     hrng->ErrorCode = HAL_RNG_ERROR_INVALID_CALLBACK;
 436:Drivers/STM32F4xx_HAL_Driver/Src/stm32f4xx_hal_rng.c ****     /* Return error status */
 437:Drivers/STM32F4xx_HAL_Driver/Src/stm32f4xx_hal_rng.c ****     status =  HAL_ERROR;
 438:Drivers/STM32F4xx_HAL_Driver/Src/stm32f4xx_hal_rng.c ****   }
 439:Drivers/STM32F4xx_HAL_Driver/Src/stm32f4xx_hal_rng.c **** 
 440:Drivers/STM32F4xx_HAL_Driver/Src/stm32f4xx_hal_rng.c ****   /* Release Lock */
 441:Drivers/STM32F4xx_HAL_Driver/Src/stm32f4xx_hal_rng.c ****   __HAL_UNLOCK(hrng);
 442:Drivers/STM32F4xx_HAL_Driver/Src/stm32f4xx_hal_rng.c ****   return status;
 443:Drivers/STM32F4xx_HAL_Driver/Src/stm32f4xx_hal_rng.c **** }
 444:Drivers/STM32F4xx_HAL_Driver/Src/stm32f4xx_hal_rng.c **** 
 445:Drivers/STM32F4xx_HAL_Driver/Src/stm32f4xx_hal_rng.c **** /**
 446:Drivers/STM32F4xx_HAL_Driver/Src/stm32f4xx_hal_rng.c ****   * @brief  Register Data Ready RNG Callback
 447:Drivers/STM32F4xx_HAL_Driver/Src/stm32f4xx_hal_rng.c ****   *         To be used instead of the weak HAL_RNG_ReadyDataCallback() predefined callback
 448:Drivers/STM32F4xx_HAL_Driver/Src/stm32f4xx_hal_rng.c ****   * @param  hrng RNG handle
 449:Drivers/STM32F4xx_HAL_Driver/Src/stm32f4xx_hal_rng.c ****   * @param  pCallback pointer to the Data Ready Callback function
 450:Drivers/STM32F4xx_HAL_Driver/Src/stm32f4xx_hal_rng.c ****   * @retval HAL status
 451:Drivers/STM32F4xx_HAL_Driver/Src/stm32f4xx_hal_rng.c ****   */
 452:Drivers/STM32F4xx_HAL_Driver/Src/stm32f4xx_hal_rng.c **** HAL_StatusTypeDef HAL_RNG_RegisterReadyDataCallback(RNG_HandleTypeDef *hrng, pRNG_ReadyDataCallback
 453:Drivers/STM32F4xx_HAL_Driver/Src/stm32f4xx_hal_rng.c **** {
 454:Drivers/STM32F4xx_HAL_Driver/Src/stm32f4xx_hal_rng.c ****   HAL_StatusTypeDef status = HAL_OK;
 455:Drivers/STM32F4xx_HAL_Driver/Src/stm32f4xx_hal_rng.c **** 
 456:Drivers/STM32F4xx_HAL_Driver/Src/stm32f4xx_hal_rng.c ****   if (pCallback == NULL)
 457:Drivers/STM32F4xx_HAL_Driver/Src/stm32f4xx_hal_rng.c ****   {
 458:Drivers/STM32F4xx_HAL_Driver/Src/stm32f4xx_hal_rng.c ****     /* Update the error code */
 459:Drivers/STM32F4xx_HAL_Driver/Src/stm32f4xx_hal_rng.c ****     hrng->ErrorCode = HAL_RNG_ERROR_INVALID_CALLBACK;
 460:Drivers/STM32F4xx_HAL_Driver/Src/stm32f4xx_hal_rng.c ****     return HAL_ERROR;
 461:Drivers/STM32F4xx_HAL_Driver/Src/stm32f4xx_hal_rng.c ****   }
 462:Drivers/STM32F4xx_HAL_Driver/Src/stm32f4xx_hal_rng.c ****   /* Process locked */
 463:Drivers/STM32F4xx_HAL_Driver/Src/stm32f4xx_hal_rng.c ****   __HAL_LOCK(hrng);
 464:Drivers/STM32F4xx_HAL_Driver/Src/stm32f4xx_hal_rng.c **** 
 465:Drivers/STM32F4xx_HAL_Driver/Src/stm32f4xx_hal_rng.c ****   if (HAL_RNG_STATE_READY == hrng->State)
 466:Drivers/STM32F4xx_HAL_Driver/Src/stm32f4xx_hal_rng.c ****   {
 467:Drivers/STM32F4xx_HAL_Driver/Src/stm32f4xx_hal_rng.c ****     hrng->ReadyDataCallback = pCallback;
 468:Drivers/STM32F4xx_HAL_Driver/Src/stm32f4xx_hal_rng.c ****   }
 469:Drivers/STM32F4xx_HAL_Driver/Src/stm32f4xx_hal_rng.c ****   else
 470:Drivers/STM32F4xx_HAL_Driver/Src/stm32f4xx_hal_rng.c ****   {
 471:Drivers/STM32F4xx_HAL_Driver/Src/stm32f4xx_hal_rng.c ****     /* Update the error code */
 472:Drivers/STM32F4xx_HAL_Driver/Src/stm32f4xx_hal_rng.c ****     hrng->ErrorCode = HAL_RNG_ERROR_INVALID_CALLBACK;
 473:Drivers/STM32F4xx_HAL_Driver/Src/stm32f4xx_hal_rng.c ****     /* Return error status */
 474:Drivers/STM32F4xx_HAL_Driver/Src/stm32f4xx_hal_rng.c ****     status =  HAL_ERROR;
 475:Drivers/STM32F4xx_HAL_Driver/Src/stm32f4xx_hal_rng.c ****   }
 476:Drivers/STM32F4xx_HAL_Driver/Src/stm32f4xx_hal_rng.c **** 
 477:Drivers/STM32F4xx_HAL_Driver/Src/stm32f4xx_hal_rng.c ****   /* Release Lock */
 478:Drivers/STM32F4xx_HAL_Driver/Src/stm32f4xx_hal_rng.c ****   __HAL_UNLOCK(hrng);
 479:Drivers/STM32F4xx_HAL_Driver/Src/stm32f4xx_hal_rng.c ****   return status;
ARM GAS  /var/folders/0z/tsy30v1j4xl4_7kw94k978ww0000gn/T//ccgroddb.s 			page 14


 480:Drivers/STM32F4xx_HAL_Driver/Src/stm32f4xx_hal_rng.c **** }
 481:Drivers/STM32F4xx_HAL_Driver/Src/stm32f4xx_hal_rng.c **** 
 482:Drivers/STM32F4xx_HAL_Driver/Src/stm32f4xx_hal_rng.c **** /**
 483:Drivers/STM32F4xx_HAL_Driver/Src/stm32f4xx_hal_rng.c ****   * @brief  UnRegister the Data Ready RNG Callback
 484:Drivers/STM32F4xx_HAL_Driver/Src/stm32f4xx_hal_rng.c ****   *         Data Ready RNG Callback is redirected to the weak HAL_RNG_ReadyDataCallback() predefine
 485:Drivers/STM32F4xx_HAL_Driver/Src/stm32f4xx_hal_rng.c ****   * @param  hrng RNG handle
 486:Drivers/STM32F4xx_HAL_Driver/Src/stm32f4xx_hal_rng.c ****   * @retval HAL status
 487:Drivers/STM32F4xx_HAL_Driver/Src/stm32f4xx_hal_rng.c ****   */
 488:Drivers/STM32F4xx_HAL_Driver/Src/stm32f4xx_hal_rng.c **** HAL_StatusTypeDef HAL_RNG_UnRegisterReadyDataCallback(RNG_HandleTypeDef *hrng)
 489:Drivers/STM32F4xx_HAL_Driver/Src/stm32f4xx_hal_rng.c **** {
 490:Drivers/STM32F4xx_HAL_Driver/Src/stm32f4xx_hal_rng.c ****   HAL_StatusTypeDef status = HAL_OK;
 491:Drivers/STM32F4xx_HAL_Driver/Src/stm32f4xx_hal_rng.c **** 
 492:Drivers/STM32F4xx_HAL_Driver/Src/stm32f4xx_hal_rng.c ****   /* Process locked */
 493:Drivers/STM32F4xx_HAL_Driver/Src/stm32f4xx_hal_rng.c ****   __HAL_LOCK(hrng);
 494:Drivers/STM32F4xx_HAL_Driver/Src/stm32f4xx_hal_rng.c **** 
 495:Drivers/STM32F4xx_HAL_Driver/Src/stm32f4xx_hal_rng.c ****   if (HAL_RNG_STATE_READY == hrng->State)
 496:Drivers/STM32F4xx_HAL_Driver/Src/stm32f4xx_hal_rng.c ****   {
 497:Drivers/STM32F4xx_HAL_Driver/Src/stm32f4xx_hal_rng.c ****     hrng->ReadyDataCallback = HAL_RNG_ReadyDataCallback; /* Legacy weak ReadyDataCallback  */
 498:Drivers/STM32F4xx_HAL_Driver/Src/stm32f4xx_hal_rng.c ****   }
 499:Drivers/STM32F4xx_HAL_Driver/Src/stm32f4xx_hal_rng.c ****   else
 500:Drivers/STM32F4xx_HAL_Driver/Src/stm32f4xx_hal_rng.c ****   {
 501:Drivers/STM32F4xx_HAL_Driver/Src/stm32f4xx_hal_rng.c ****     /* Update the error code */
 502:Drivers/STM32F4xx_HAL_Driver/Src/stm32f4xx_hal_rng.c ****     hrng->ErrorCode = HAL_RNG_ERROR_INVALID_CALLBACK;
 503:Drivers/STM32F4xx_HAL_Driver/Src/stm32f4xx_hal_rng.c ****     /* Return error status */
 504:Drivers/STM32F4xx_HAL_Driver/Src/stm32f4xx_hal_rng.c ****     status =  HAL_ERROR;
 505:Drivers/STM32F4xx_HAL_Driver/Src/stm32f4xx_hal_rng.c ****   }
 506:Drivers/STM32F4xx_HAL_Driver/Src/stm32f4xx_hal_rng.c **** 
 507:Drivers/STM32F4xx_HAL_Driver/Src/stm32f4xx_hal_rng.c ****   /* Release Lock */
 508:Drivers/STM32F4xx_HAL_Driver/Src/stm32f4xx_hal_rng.c ****   __HAL_UNLOCK(hrng);
 509:Drivers/STM32F4xx_HAL_Driver/Src/stm32f4xx_hal_rng.c ****   return status;
 510:Drivers/STM32F4xx_HAL_Driver/Src/stm32f4xx_hal_rng.c **** }
 511:Drivers/STM32F4xx_HAL_Driver/Src/stm32f4xx_hal_rng.c **** 
 512:Drivers/STM32F4xx_HAL_Driver/Src/stm32f4xx_hal_rng.c **** #endif /* USE_HAL_RNG_REGISTER_CALLBACKS */
 513:Drivers/STM32F4xx_HAL_Driver/Src/stm32f4xx_hal_rng.c **** 
 514:Drivers/STM32F4xx_HAL_Driver/Src/stm32f4xx_hal_rng.c **** /**
 515:Drivers/STM32F4xx_HAL_Driver/Src/stm32f4xx_hal_rng.c ****   * @}
 516:Drivers/STM32F4xx_HAL_Driver/Src/stm32f4xx_hal_rng.c ****   */
 517:Drivers/STM32F4xx_HAL_Driver/Src/stm32f4xx_hal_rng.c **** 
 518:Drivers/STM32F4xx_HAL_Driver/Src/stm32f4xx_hal_rng.c **** /** @addtogroup RNG_Exported_Functions_Group2
 519:Drivers/STM32F4xx_HAL_Driver/Src/stm32f4xx_hal_rng.c ****   *  @brief   Peripheral Control functions
 520:Drivers/STM32F4xx_HAL_Driver/Src/stm32f4xx_hal_rng.c ****   *
 521:Drivers/STM32F4xx_HAL_Driver/Src/stm32f4xx_hal_rng.c **** @verbatim
 522:Drivers/STM32F4xx_HAL_Driver/Src/stm32f4xx_hal_rng.c ****  ===============================================================================
 523:Drivers/STM32F4xx_HAL_Driver/Src/stm32f4xx_hal_rng.c ****                       ##### Peripheral Control functions #####
 524:Drivers/STM32F4xx_HAL_Driver/Src/stm32f4xx_hal_rng.c ****  ===============================================================================
 525:Drivers/STM32F4xx_HAL_Driver/Src/stm32f4xx_hal_rng.c ****     [..]  This section provides functions allowing to:
 526:Drivers/STM32F4xx_HAL_Driver/Src/stm32f4xx_hal_rng.c ****       (+) Get the 32 bit Random number
 527:Drivers/STM32F4xx_HAL_Driver/Src/stm32f4xx_hal_rng.c ****       (+) Get the 32 bit Random number with interrupt enabled
 528:Drivers/STM32F4xx_HAL_Driver/Src/stm32f4xx_hal_rng.c ****       (+) Handle RNG interrupt request
 529:Drivers/STM32F4xx_HAL_Driver/Src/stm32f4xx_hal_rng.c **** 
 530:Drivers/STM32F4xx_HAL_Driver/Src/stm32f4xx_hal_rng.c **** @endverbatim
 531:Drivers/STM32F4xx_HAL_Driver/Src/stm32f4xx_hal_rng.c ****   * @{
 532:Drivers/STM32F4xx_HAL_Driver/Src/stm32f4xx_hal_rng.c ****   */
 533:Drivers/STM32F4xx_HAL_Driver/Src/stm32f4xx_hal_rng.c **** 
 534:Drivers/STM32F4xx_HAL_Driver/Src/stm32f4xx_hal_rng.c **** /**
 535:Drivers/STM32F4xx_HAL_Driver/Src/stm32f4xx_hal_rng.c ****   * @brief  Generates a 32-bit random number.
 536:Drivers/STM32F4xx_HAL_Driver/Src/stm32f4xx_hal_rng.c ****   * @note   Each time the random number data is read the RNG_FLAG_DRDY flag
ARM GAS  /var/folders/0z/tsy30v1j4xl4_7kw94k978ww0000gn/T//ccgroddb.s 			page 15


 537:Drivers/STM32F4xx_HAL_Driver/Src/stm32f4xx_hal_rng.c ****   *         is automatically cleared.
 538:Drivers/STM32F4xx_HAL_Driver/Src/stm32f4xx_hal_rng.c ****   * @param  hrng pointer to a RNG_HandleTypeDef structure that contains
 539:Drivers/STM32F4xx_HAL_Driver/Src/stm32f4xx_hal_rng.c ****   *                the configuration information for RNG.
 540:Drivers/STM32F4xx_HAL_Driver/Src/stm32f4xx_hal_rng.c ****   * @param  random32bit pointer to generated random number variable if successful.
 541:Drivers/STM32F4xx_HAL_Driver/Src/stm32f4xx_hal_rng.c ****   * @retval HAL status
 542:Drivers/STM32F4xx_HAL_Driver/Src/stm32f4xx_hal_rng.c ****   */
 543:Drivers/STM32F4xx_HAL_Driver/Src/stm32f4xx_hal_rng.c **** 
 544:Drivers/STM32F4xx_HAL_Driver/Src/stm32f4xx_hal_rng.c **** HAL_StatusTypeDef HAL_RNG_GenerateRandomNumber(RNG_HandleTypeDef *hrng, uint32_t *random32bit)
 545:Drivers/STM32F4xx_HAL_Driver/Src/stm32f4xx_hal_rng.c **** {
 221              		.loc 1 545 1 is_stmt 1 view -0
 222              		.cfi_startproc
 223              		@ args = 0, pretend = 0, frame = 0
 224              		@ frame_needed = 0, uses_anonymous_args = 0
 546:Drivers/STM32F4xx_HAL_Driver/Src/stm32f4xx_hal_rng.c ****   uint32_t tickstart;
 225              		.loc 1 546 3 view .LVU55
 547:Drivers/STM32F4xx_HAL_Driver/Src/stm32f4xx_hal_rng.c ****   HAL_StatusTypeDef status = HAL_OK;
 226              		.loc 1 547 3 view .LVU56
 548:Drivers/STM32F4xx_HAL_Driver/Src/stm32f4xx_hal_rng.c **** 
 549:Drivers/STM32F4xx_HAL_Driver/Src/stm32f4xx_hal_rng.c ****   /* Process Locked */
 550:Drivers/STM32F4xx_HAL_Driver/Src/stm32f4xx_hal_rng.c ****   __HAL_LOCK(hrng);
 227              		.loc 1 550 3 view .LVU57
 228              		.loc 1 550 3 view .LVU58
 545:Drivers/STM32F4xx_HAL_Driver/Src/stm32f4xx_hal_rng.c ****   uint32_t tickstart;
 229              		.loc 1 545 1 is_stmt 0 view .LVU59
 230 0000 F8B5     		push	{r3, r4, r5, r6, r7, lr}
 231              		.cfi_def_cfa_offset 24
 232              		.cfi_offset 3, -24
 233              		.cfi_offset 4, -20
 234              		.cfi_offset 5, -16
 235              		.cfi_offset 6, -12
 236              		.cfi_offset 7, -8
 237              		.cfi_offset 14, -4
 238              		.loc 1 550 3 view .LVU60
 239 0002 0379     		ldrb	r3, [r0, #4]	@ zero_extendqisi2
 240 0004 012B     		cmp	r3, #1
 241 0006 27D0     		beq	.L28
 551:Drivers/STM32F4xx_HAL_Driver/Src/stm32f4xx_hal_rng.c **** 
 552:Drivers/STM32F4xx_HAL_Driver/Src/stm32f4xx_hal_rng.c ****   /* Check RNG peripheral state */
 553:Drivers/STM32F4xx_HAL_Driver/Src/stm32f4xx_hal_rng.c ****   if (hrng->State == HAL_RNG_STATE_READY)
 242              		.loc 1 553 11 discriminator 2 view .LVU61
 243 0008 4379     		ldrb	r3, [r0, #5]	@ zero_extendqisi2
 550:Drivers/STM32F4xx_HAL_Driver/Src/stm32f4xx_hal_rng.c **** 
 244              		.loc 1 550 3 discriminator 2 view .LVU62
 245 000a 0122     		movs	r2, #1
 246              		.loc 1 553 6 discriminator 2 view .LVU63
 247 000c 9342     		cmp	r3, r2
 248 000e 0446     		mov	r4, r0
 550:Drivers/STM32F4xx_HAL_Driver/Src/stm32f4xx_hal_rng.c **** 
 249              		.loc 1 550 3 is_stmt 1 discriminator 2 view .LVU64
 250 0010 0271     		strb	r2, [r0, #4]
 550:Drivers/STM32F4xx_HAL_Driver/Src/stm32f4xx_hal_rng.c **** 
 251              		.loc 1 550 3 discriminator 2 view .LVU65
 252              		.loc 1 553 3 discriminator 2 view .LVU66
 253              		.loc 1 553 11 is_stmt 0 discriminator 2 view .LVU67
 254 0012 DEB2     		uxtb	r6, r3
 255              		.loc 1 553 6 discriminator 2 view .LVU68
 256 0014 06D0     		beq	.L33
ARM GAS  /var/folders/0z/tsy30v1j4xl4_7kw94k978ww0000gn/T//ccgroddb.s 			page 16


 554:Drivers/STM32F4xx_HAL_Driver/Src/stm32f4xx_hal_rng.c ****   {
 555:Drivers/STM32F4xx_HAL_Driver/Src/stm32f4xx_hal_rng.c ****     /* Change RNG peripheral state */
 556:Drivers/STM32F4xx_HAL_Driver/Src/stm32f4xx_hal_rng.c ****     hrng->State = HAL_RNG_STATE_BUSY;
 557:Drivers/STM32F4xx_HAL_Driver/Src/stm32f4xx_hal_rng.c **** 
 558:Drivers/STM32F4xx_HAL_Driver/Src/stm32f4xx_hal_rng.c ****     /* Get tick */
 559:Drivers/STM32F4xx_HAL_Driver/Src/stm32f4xx_hal_rng.c ****     tickstart = HAL_GetTick();
 560:Drivers/STM32F4xx_HAL_Driver/Src/stm32f4xx_hal_rng.c **** 
 561:Drivers/STM32F4xx_HAL_Driver/Src/stm32f4xx_hal_rng.c ****     /* Check if data register contains valid random data */
 562:Drivers/STM32F4xx_HAL_Driver/Src/stm32f4xx_hal_rng.c ****     while (__HAL_RNG_GET_FLAG(hrng, RNG_FLAG_DRDY) == RESET)
 563:Drivers/STM32F4xx_HAL_Driver/Src/stm32f4xx_hal_rng.c ****     {
 564:Drivers/STM32F4xx_HAL_Driver/Src/stm32f4xx_hal_rng.c ****       if ((HAL_GetTick() - tickstart) > RNG_TIMEOUT_VALUE)
 565:Drivers/STM32F4xx_HAL_Driver/Src/stm32f4xx_hal_rng.c ****       {
 566:Drivers/STM32F4xx_HAL_Driver/Src/stm32f4xx_hal_rng.c ****         /* New check to avoid false timeout detection in case of preemption */
 567:Drivers/STM32F4xx_HAL_Driver/Src/stm32f4xx_hal_rng.c ****         if (__HAL_RNG_GET_FLAG(hrng, RNG_FLAG_DRDY) == RESET)
 568:Drivers/STM32F4xx_HAL_Driver/Src/stm32f4xx_hal_rng.c ****         {
 569:Drivers/STM32F4xx_HAL_Driver/Src/stm32f4xx_hal_rng.c ****           hrng->State = HAL_RNG_STATE_READY;
 570:Drivers/STM32F4xx_HAL_Driver/Src/stm32f4xx_hal_rng.c ****           hrng->ErrorCode = HAL_RNG_ERROR_TIMEOUT;
 571:Drivers/STM32F4xx_HAL_Driver/Src/stm32f4xx_hal_rng.c ****           /* Process Unlocked */
 572:Drivers/STM32F4xx_HAL_Driver/Src/stm32f4xx_hal_rng.c ****           __HAL_UNLOCK(hrng);
 573:Drivers/STM32F4xx_HAL_Driver/Src/stm32f4xx_hal_rng.c ****           return HAL_ERROR;
 574:Drivers/STM32F4xx_HAL_Driver/Src/stm32f4xx_hal_rng.c ****         }
 575:Drivers/STM32F4xx_HAL_Driver/Src/stm32f4xx_hal_rng.c ****       }
 576:Drivers/STM32F4xx_HAL_Driver/Src/stm32f4xx_hal_rng.c ****     }
 577:Drivers/STM32F4xx_HAL_Driver/Src/stm32f4xx_hal_rng.c **** 
 578:Drivers/STM32F4xx_HAL_Driver/Src/stm32f4xx_hal_rng.c ****     /* Get a 32bit Random number */
 579:Drivers/STM32F4xx_HAL_Driver/Src/stm32f4xx_hal_rng.c ****     hrng->RandomNumber = hrng->Instance->DR;
 580:Drivers/STM32F4xx_HAL_Driver/Src/stm32f4xx_hal_rng.c ****     *random32bit = hrng->RandomNumber;
 581:Drivers/STM32F4xx_HAL_Driver/Src/stm32f4xx_hal_rng.c **** 
 582:Drivers/STM32F4xx_HAL_Driver/Src/stm32f4xx_hal_rng.c ****     hrng->State = HAL_RNG_STATE_READY;
 583:Drivers/STM32F4xx_HAL_Driver/Src/stm32f4xx_hal_rng.c ****   }
 584:Drivers/STM32F4xx_HAL_Driver/Src/stm32f4xx_hal_rng.c ****   else
 585:Drivers/STM32F4xx_HAL_Driver/Src/stm32f4xx_hal_rng.c ****   {
 586:Drivers/STM32F4xx_HAL_Driver/Src/stm32f4xx_hal_rng.c ****     hrng->ErrorCode = HAL_RNG_ERROR_BUSY;
 257              		.loc 1 586 5 is_stmt 1 view .LVU69
 258              		.loc 1 586 21 is_stmt 0 view .LVU70
 259 0016 0423     		movs	r3, #4
 260 0018 8360     		str	r3, [r0, #8]
 587:Drivers/STM32F4xx_HAL_Driver/Src/stm32f4xx_hal_rng.c ****     status = HAL_ERROR;
 261              		.loc 1 587 5 is_stmt 1 view .LVU71
 262              	.LVL12:
 263              		.loc 1 587 12 is_stmt 0 view .LVU72
 264 001a 1646     		mov	r6, r2
 265              	.LVL13:
 266              	.L27:
 588:Drivers/STM32F4xx_HAL_Driver/Src/stm32f4xx_hal_rng.c ****   }
 589:Drivers/STM32F4xx_HAL_Driver/Src/stm32f4xx_hal_rng.c **** 
 590:Drivers/STM32F4xx_HAL_Driver/Src/stm32f4xx_hal_rng.c ****   /* Process Unlocked */
 591:Drivers/STM32F4xx_HAL_Driver/Src/stm32f4xx_hal_rng.c ****   __HAL_UNLOCK(hrng);
 267              		.loc 1 591 3 is_stmt 1 view .LVU73
 268              		.loc 1 591 3 view .LVU74
 269 001c 0023     		movs	r3, #0
 270 001e 2371     		strb	r3, [r4, #4]
 271              		.loc 1 591 3 view .LVU75
 592:Drivers/STM32F4xx_HAL_Driver/Src/stm32f4xx_hal_rng.c **** 
 593:Drivers/STM32F4xx_HAL_Driver/Src/stm32f4xx_hal_rng.c ****   return status;
 272              		.loc 1 593 3 view .LVU76
 273              	.LVL14:
ARM GAS  /var/folders/0z/tsy30v1j4xl4_7kw94k978ww0000gn/T//ccgroddb.s 			page 17


 274              	.L21:
 594:Drivers/STM32F4xx_HAL_Driver/Src/stm32f4xx_hal_rng.c **** }
 275              		.loc 1 594 1 is_stmt 0 view .LVU77
 276 0020 3046     		mov	r0, r6
 277 0022 F8BD     		pop	{r3, r4, r5, r6, r7, pc}
 278              	.LVL15:
 279              	.L33:
 556:Drivers/STM32F4xx_HAL_Driver/Src/stm32f4xx_hal_rng.c **** 
 280              		.loc 1 556 5 is_stmt 1 view .LVU78
 556:Drivers/STM32F4xx_HAL_Driver/Src/stm32f4xx_hal_rng.c **** 
 281              		.loc 1 556 17 is_stmt 0 view .LVU79
 282 0024 0223     		movs	r3, #2
 283 0026 4371     		strb	r3, [r0, #5]
 559:Drivers/STM32F4xx_HAL_Driver/Src/stm32f4xx_hal_rng.c **** 
 284              		.loc 1 559 5 is_stmt 1 view .LVU80
 285 0028 0D46     		mov	r5, r1
 559:Drivers/STM32F4xx_HAL_Driver/Src/stm32f4xx_hal_rng.c **** 
 286              		.loc 1 559 17 is_stmt 0 view .LVU81
 287 002a FFF7FEFF 		bl	HAL_GetTick
 288              	.LVL16:
 562:Drivers/STM32F4xx_HAL_Driver/Src/stm32f4xx_hal_rng.c ****     {
 289              		.loc 1 562 12 view .LVU82
 290 002e 2368     		ldr	r3, [r4]
 559:Drivers/STM32F4xx_HAL_Driver/Src/stm32f4xx_hal_rng.c **** 
 291              		.loc 1 559 17 view .LVU83
 292 0030 0746     		mov	r7, r0
 293              	.L32:
 294              	.LVL17:
 562:Drivers/STM32F4xx_HAL_Driver/Src/stm32f4xx_hal_rng.c ****     {
 295              		.loc 1 562 5 is_stmt 1 view .LVU84
 562:Drivers/STM32F4xx_HAL_Driver/Src/stm32f4xx_hal_rng.c ****     {
 296              		.loc 1 562 52 view .LVU85
 562:Drivers/STM32F4xx_HAL_Driver/Src/stm32f4xx_hal_rng.c ****     {
 297              		.loc 1 562 12 is_stmt 0 view .LVU86
 298 0032 5A68     		ldr	r2, [r3, #4]
 562:Drivers/STM32F4xx_HAL_Driver/Src/stm32f4xx_hal_rng.c ****     {
 299              		.loc 1 562 52 view .LVU87
 300 0034 D207     		lsls	r2, r2, #31
 301 0036 12D4     		bmi	.L23
 564:Drivers/STM32F4xx_HAL_Driver/Src/stm32f4xx_hal_rng.c ****       {
 302              		.loc 1 564 7 is_stmt 1 view .LVU88
 564:Drivers/STM32F4xx_HAL_Driver/Src/stm32f4xx_hal_rng.c ****       {
 303              		.loc 1 564 12 is_stmt 0 view .LVU89
 304 0038 FFF7FEFF 		bl	HAL_GetTick
 305              	.LVL18:
 567:Drivers/STM32F4xx_HAL_Driver/Src/stm32f4xx_hal_rng.c ****         {
 306              		.loc 1 567 9 is_stmt 1 view .LVU90
 562:Drivers/STM32F4xx_HAL_Driver/Src/stm32f4xx_hal_rng.c ****     {
 307              		.loc 1 562 52 view .LVU91
 564:Drivers/STM32F4xx_HAL_Driver/Src/stm32f4xx_hal_rng.c ****       {
 308              		.loc 1 564 26 is_stmt 0 view .LVU92
 309 003c C01B     		subs	r0, r0, r7
 564:Drivers/STM32F4xx_HAL_Driver/Src/stm32f4xx_hal_rng.c ****       {
 310              		.loc 1 564 10 view .LVU93
 311 003e 0228     		cmp	r0, #2
 567:Drivers/STM32F4xx_HAL_Driver/Src/stm32f4xx_hal_rng.c ****         {
 312              		.loc 1 567 13 view .LVU94
ARM GAS  /var/folders/0z/tsy30v1j4xl4_7kw94k978ww0000gn/T//ccgroddb.s 			page 18


 313 0040 2368     		ldr	r3, [r4]
 564:Drivers/STM32F4xx_HAL_Driver/Src/stm32f4xx_hal_rng.c ****       {
 314              		.loc 1 564 10 view .LVU95
 315 0042 F6D9     		bls	.L32
 567:Drivers/STM32F4xx_HAL_Driver/Src/stm32f4xx_hal_rng.c ****         {
 316              		.loc 1 567 13 view .LVU96
 317 0044 5A68     		ldr	r2, [r3, #4]
 567:Drivers/STM32F4xx_HAL_Driver/Src/stm32f4xx_hal_rng.c ****         {
 318              		.loc 1 567 12 view .LVU97
 319 0046 12F00102 		ands	r2, r2, #1
 320 004a F2D1     		bne	.L32
 569:Drivers/STM32F4xx_HAL_Driver/Src/stm32f4xx_hal_rng.c ****           hrng->ErrorCode = HAL_RNG_ERROR_TIMEOUT;
 321              		.loc 1 569 11 is_stmt 1 view .LVU98
 569:Drivers/STM32F4xx_HAL_Driver/Src/stm32f4xx_hal_rng.c ****           hrng->ErrorCode = HAL_RNG_ERROR_TIMEOUT;
 322              		.loc 1 569 23 is_stmt 0 view .LVU99
 323 004c 0121     		movs	r1, #1
 570:Drivers/STM32F4xx_HAL_Driver/Src/stm32f4xx_hal_rng.c ****           /* Process Unlocked */
 324              		.loc 1 570 27 view .LVU100
 325 004e 0223     		movs	r3, #2
 569:Drivers/STM32F4xx_HAL_Driver/Src/stm32f4xx_hal_rng.c ****           hrng->ErrorCode = HAL_RNG_ERROR_TIMEOUT;
 326              		.loc 1 569 23 view .LVU101
 327 0050 6171     		strb	r1, [r4, #5]
 570:Drivers/STM32F4xx_HAL_Driver/Src/stm32f4xx_hal_rng.c ****           /* Process Unlocked */
 328              		.loc 1 570 11 is_stmt 1 view .LVU102
 572:Drivers/STM32F4xx_HAL_Driver/Src/stm32f4xx_hal_rng.c ****           return HAL_ERROR;
 329              		.loc 1 572 11 is_stmt 0 view .LVU103
 330 0052 2271     		strb	r2, [r4, #4]
 570:Drivers/STM32F4xx_HAL_Driver/Src/stm32f4xx_hal_rng.c ****           /* Process Unlocked */
 331              		.loc 1 570 27 view .LVU104
 332 0054 A360     		str	r3, [r4, #8]
 572:Drivers/STM32F4xx_HAL_Driver/Src/stm32f4xx_hal_rng.c ****           return HAL_ERROR;
 333              		.loc 1 572 11 is_stmt 1 view .LVU105
 572:Drivers/STM32F4xx_HAL_Driver/Src/stm32f4xx_hal_rng.c ****           return HAL_ERROR;
 334              		.loc 1 572 11 view .LVU106
 572:Drivers/STM32F4xx_HAL_Driver/Src/stm32f4xx_hal_rng.c ****           return HAL_ERROR;
 335              		.loc 1 572 11 view .LVU107
 573:Drivers/STM32F4xx_HAL_Driver/Src/stm32f4xx_hal_rng.c ****         }
 336              		.loc 1 573 11 view .LVU108
 573:Drivers/STM32F4xx_HAL_Driver/Src/stm32f4xx_hal_rng.c ****         }
 337              		.loc 1 573 18 is_stmt 0 view .LVU109
 338 0056 E3E7     		b	.L21
 339              	.LVL19:
 340              	.L28:
 550:Drivers/STM32F4xx_HAL_Driver/Src/stm32f4xx_hal_rng.c **** 
 341              		.loc 1 550 3 view .LVU110
 342 0058 0226     		movs	r6, #2
 343              		.loc 1 594 1 view .LVU111
 344 005a 3046     		mov	r0, r6
 345              	.LVL20:
 346              		.loc 1 594 1 view .LVU112
 347 005c F8BD     		pop	{r3, r4, r5, r6, r7, pc}
 348              	.LVL21:
 349              	.L23:
 579:Drivers/STM32F4xx_HAL_Driver/Src/stm32f4xx_hal_rng.c ****     *random32bit = hrng->RandomNumber;
 350              		.loc 1 579 5 is_stmt 1 view .LVU113
 579:Drivers/STM32F4xx_HAL_Driver/Src/stm32f4xx_hal_rng.c ****     *random32bit = hrng->RandomNumber;
 351              		.loc 1 579 40 is_stmt 0 view .LVU114
ARM GAS  /var/folders/0z/tsy30v1j4xl4_7kw94k978ww0000gn/T//ccgroddb.s 			page 19


 352 005e 9B68     		ldr	r3, [r3, #8]
 579:Drivers/STM32F4xx_HAL_Driver/Src/stm32f4xx_hal_rng.c ****     *random32bit = hrng->RandomNumber;
 353              		.loc 1 579 24 view .LVU115
 354 0060 E360     		str	r3, [r4, #12]
 580:Drivers/STM32F4xx_HAL_Driver/Src/stm32f4xx_hal_rng.c **** 
 355              		.loc 1 580 5 is_stmt 1 view .LVU116
 582:Drivers/STM32F4xx_HAL_Driver/Src/stm32f4xx_hal_rng.c ****   }
 356              		.loc 1 582 17 is_stmt 0 view .LVU117
 357 0062 0122     		movs	r2, #1
 580:Drivers/STM32F4xx_HAL_Driver/Src/stm32f4xx_hal_rng.c **** 
 358              		.loc 1 580 18 view .LVU118
 359 0064 2B60     		str	r3, [r5]
 582:Drivers/STM32F4xx_HAL_Driver/Src/stm32f4xx_hal_rng.c ****   }
 360              		.loc 1 582 5 is_stmt 1 view .LVU119
 547:Drivers/STM32F4xx_HAL_Driver/Src/stm32f4xx_hal_rng.c **** 
 361              		.loc 1 547 21 is_stmt 0 view .LVU120
 362 0066 0026     		movs	r6, #0
 582:Drivers/STM32F4xx_HAL_Driver/Src/stm32f4xx_hal_rng.c ****   }
 363              		.loc 1 582 17 view .LVU121
 364 0068 6271     		strb	r2, [r4, #5]
 365 006a D7E7     		b	.L27
 366              		.cfi_endproc
 367              	.LFE239:
 369              		.section	.text.HAL_RNG_GenerateRandomNumber_IT,"ax",%progbits
 370              		.align	1
 371              		.p2align 2,,3
 372              		.global	HAL_RNG_GenerateRandomNumber_IT
 373              		.syntax unified
 374              		.thumb
 375              		.thumb_func
 377              	HAL_RNG_GenerateRandomNumber_IT:
 378              	.LVL22:
 379              	.LFB240:
 595:Drivers/STM32F4xx_HAL_Driver/Src/stm32f4xx_hal_rng.c **** 
 596:Drivers/STM32F4xx_HAL_Driver/Src/stm32f4xx_hal_rng.c **** /**
 597:Drivers/STM32F4xx_HAL_Driver/Src/stm32f4xx_hal_rng.c ****   * @brief  Generates a 32-bit random number in interrupt mode.
 598:Drivers/STM32F4xx_HAL_Driver/Src/stm32f4xx_hal_rng.c ****   * @param  hrng pointer to a RNG_HandleTypeDef structure that contains
 599:Drivers/STM32F4xx_HAL_Driver/Src/stm32f4xx_hal_rng.c ****   *                the configuration information for RNG.
 600:Drivers/STM32F4xx_HAL_Driver/Src/stm32f4xx_hal_rng.c ****   * @retval HAL status
 601:Drivers/STM32F4xx_HAL_Driver/Src/stm32f4xx_hal_rng.c ****   */
 602:Drivers/STM32F4xx_HAL_Driver/Src/stm32f4xx_hal_rng.c **** HAL_StatusTypeDef HAL_RNG_GenerateRandomNumber_IT(RNG_HandleTypeDef *hrng)
 603:Drivers/STM32F4xx_HAL_Driver/Src/stm32f4xx_hal_rng.c **** {
 380              		.loc 1 603 1 is_stmt 1 view -0
 381              		.cfi_startproc
 382              		@ args = 0, pretend = 0, frame = 0
 383              		@ frame_needed = 0, uses_anonymous_args = 0
 384              		@ link register save eliminated.
 604:Drivers/STM32F4xx_HAL_Driver/Src/stm32f4xx_hal_rng.c ****   HAL_StatusTypeDef status = HAL_OK;
 385              		.loc 1 604 3 view .LVU123
 605:Drivers/STM32F4xx_HAL_Driver/Src/stm32f4xx_hal_rng.c **** 
 606:Drivers/STM32F4xx_HAL_Driver/Src/stm32f4xx_hal_rng.c ****   /* Process Locked */
 607:Drivers/STM32F4xx_HAL_Driver/Src/stm32f4xx_hal_rng.c ****   __HAL_LOCK(hrng);
 386              		.loc 1 607 3 view .LVU124
 387              		.loc 1 607 3 view .LVU125
 388 0000 0379     		ldrb	r3, [r0, #4]	@ zero_extendqisi2
 389 0002 012B     		cmp	r3, #1
 390 0004 13D0     		beq	.L37
ARM GAS  /var/folders/0z/tsy30v1j4xl4_7kw94k978ww0000gn/T//ccgroddb.s 			page 20


 391              		.loc 1 607 3 discriminator 2 view .LVU126
 608:Drivers/STM32F4xx_HAL_Driver/Src/stm32f4xx_hal_rng.c **** 
 609:Drivers/STM32F4xx_HAL_Driver/Src/stm32f4xx_hal_rng.c ****   /* Check RNG peripheral state */
 610:Drivers/STM32F4xx_HAL_Driver/Src/stm32f4xx_hal_rng.c ****   if (hrng->State == HAL_RNG_STATE_READY)
 392              		.loc 1 610 11 is_stmt 0 discriminator 2 view .LVU127
 393 0006 4279     		ldrb	r2, [r0, #5]	@ zero_extendqisi2
 607:Drivers/STM32F4xx_HAL_Driver/Src/stm32f4xx_hal_rng.c **** 
 394              		.loc 1 607 3 discriminator 2 view .LVU128
 395 0008 0123     		movs	r3, #1
 396              		.loc 1 610 6 discriminator 2 view .LVU129
 397 000a 9A42     		cmp	r2, r3
 607:Drivers/STM32F4xx_HAL_Driver/Src/stm32f4xx_hal_rng.c **** 
 398              		.loc 1 607 3 discriminator 2 view .LVU130
 399 000c 0371     		strb	r3, [r0, #4]
 607:Drivers/STM32F4xx_HAL_Driver/Src/stm32f4xx_hal_rng.c **** 
 400              		.loc 1 607 3 is_stmt 1 discriminator 2 view .LVU131
 401              		.loc 1 610 3 discriminator 2 view .LVU132
 402              		.loc 1 610 6 is_stmt 0 discriminator 2 view .LVU133
 403 000e 05D0     		beq	.L38
 611:Drivers/STM32F4xx_HAL_Driver/Src/stm32f4xx_hal_rng.c ****   {
 612:Drivers/STM32F4xx_HAL_Driver/Src/stm32f4xx_hal_rng.c ****     /* Change RNG peripheral state */
 613:Drivers/STM32F4xx_HAL_Driver/Src/stm32f4xx_hal_rng.c ****     hrng->State = HAL_RNG_STATE_BUSY;
 614:Drivers/STM32F4xx_HAL_Driver/Src/stm32f4xx_hal_rng.c **** 
 615:Drivers/STM32F4xx_HAL_Driver/Src/stm32f4xx_hal_rng.c ****     /* Enable the RNG Interrupts: Data Ready, Clock error, Seed error */
 616:Drivers/STM32F4xx_HAL_Driver/Src/stm32f4xx_hal_rng.c ****     __HAL_RNG_ENABLE_IT(hrng);
 617:Drivers/STM32F4xx_HAL_Driver/Src/stm32f4xx_hal_rng.c ****   }
 618:Drivers/STM32F4xx_HAL_Driver/Src/stm32f4xx_hal_rng.c ****   else
 619:Drivers/STM32F4xx_HAL_Driver/Src/stm32f4xx_hal_rng.c ****   {
 620:Drivers/STM32F4xx_HAL_Driver/Src/stm32f4xx_hal_rng.c ****     /* Process Unlocked */
 621:Drivers/STM32F4xx_HAL_Driver/Src/stm32f4xx_hal_rng.c ****     __HAL_UNLOCK(hrng);
 404              		.loc 1 621 5 is_stmt 1 view .LVU134
 405              		.loc 1 621 5 view .LVU135
 406 0010 0021     		movs	r1, #0
 622:Drivers/STM32F4xx_HAL_Driver/Src/stm32f4xx_hal_rng.c **** 
 623:Drivers/STM32F4xx_HAL_Driver/Src/stm32f4xx_hal_rng.c ****     hrng->ErrorCode = HAL_RNG_ERROR_BUSY;
 407              		.loc 1 623 21 is_stmt 0 view .LVU136
 408 0012 0422     		movs	r2, #4
 621:Drivers/STM32F4xx_HAL_Driver/Src/stm32f4xx_hal_rng.c **** 
 409              		.loc 1 621 5 view .LVU137
 410 0014 0171     		strb	r1, [r0, #4]
 621:Drivers/STM32F4xx_HAL_Driver/Src/stm32f4xx_hal_rng.c **** 
 411              		.loc 1 621 5 is_stmt 1 view .LVU138
 412              		.loc 1 623 5 view .LVU139
 413              		.loc 1 623 21 is_stmt 0 view .LVU140
 414 0016 8260     		str	r2, [r0, #8]
 624:Drivers/STM32F4xx_HAL_Driver/Src/stm32f4xx_hal_rng.c ****     status = HAL_ERROR;
 415              		.loc 1 624 5 is_stmt 1 view .LVU141
 416              	.LVL23:
 417              		.loc 1 624 12 is_stmt 0 view .LVU142
 418 0018 1846     		mov	r0, r3
 419              	.LVL24:
 420              		.loc 1 624 12 view .LVU143
 421 001a 7047     		bx	lr
 422              	.LVL25:
 423              	.L38:
 613:Drivers/STM32F4xx_HAL_Driver/Src/stm32f4xx_hal_rng.c **** 
 424              		.loc 1 613 5 is_stmt 1 view .LVU144
ARM GAS  /var/folders/0z/tsy30v1j4xl4_7kw94k978ww0000gn/T//ccgroddb.s 			page 21


 616:Drivers/STM32F4xx_HAL_Driver/Src/stm32f4xx_hal_rng.c ****   }
 425              		.loc 1 616 5 is_stmt 0 view .LVU145
 426 001c 0268     		ldr	r2, [r0]
 613:Drivers/STM32F4xx_HAL_Driver/Src/stm32f4xx_hal_rng.c **** 
 427              		.loc 1 613 17 view .LVU146
 428 001e 0223     		movs	r3, #2
 429 0020 4371     		strb	r3, [r0, #5]
 616:Drivers/STM32F4xx_HAL_Driver/Src/stm32f4xx_hal_rng.c ****   }
 430              		.loc 1 616 5 is_stmt 1 view .LVU147
 431 0022 1368     		ldr	r3, [r2]
 432 0024 43F00803 		orr	r3, r3, #8
 604:Drivers/STM32F4xx_HAL_Driver/Src/stm32f4xx_hal_rng.c **** 
 433              		.loc 1 604 21 is_stmt 0 view .LVU148
 434 0028 0020     		movs	r0, #0
 435              	.LVL26:
 616:Drivers/STM32F4xx_HAL_Driver/Src/stm32f4xx_hal_rng.c ****   }
 436              		.loc 1 616 5 view .LVU149
 437 002a 1360     		str	r3, [r2]
 438 002c 7047     		bx	lr
 439              	.LVL27:
 440              	.L37:
 607:Drivers/STM32F4xx_HAL_Driver/Src/stm32f4xx_hal_rng.c **** 
 441              		.loc 1 607 3 view .LVU150
 442 002e 0220     		movs	r0, #2
 443              	.LVL28:
 625:Drivers/STM32F4xx_HAL_Driver/Src/stm32f4xx_hal_rng.c ****   }
 626:Drivers/STM32F4xx_HAL_Driver/Src/stm32f4xx_hal_rng.c **** 
 627:Drivers/STM32F4xx_HAL_Driver/Src/stm32f4xx_hal_rng.c ****   return status;
 628:Drivers/STM32F4xx_HAL_Driver/Src/stm32f4xx_hal_rng.c **** }
 444              		.loc 1 628 1 view .LVU151
 445 0030 7047     		bx	lr
 446              		.cfi_endproc
 447              	.LFE240:
 449 0032 00BF     		.section	.text.HAL_RNG_GetRandomNumber,"ax",%progbits
 450              		.align	1
 451              		.p2align 2,,3
 452              		.global	HAL_RNG_GetRandomNumber
 453              		.syntax unified
 454              		.thumb
 455              		.thumb_func
 457              	HAL_RNG_GetRandomNumber:
 458              	.LVL29:
 459              	.LFB241:
 629:Drivers/STM32F4xx_HAL_Driver/Src/stm32f4xx_hal_rng.c **** 
 630:Drivers/STM32F4xx_HAL_Driver/Src/stm32f4xx_hal_rng.c **** /**
 631:Drivers/STM32F4xx_HAL_Driver/Src/stm32f4xx_hal_rng.c ****   * @brief  Returns generated random number in polling mode (Obsolete)
 632:Drivers/STM32F4xx_HAL_Driver/Src/stm32f4xx_hal_rng.c ****   *         Use HAL_RNG_GenerateRandomNumber() API instead.
 633:Drivers/STM32F4xx_HAL_Driver/Src/stm32f4xx_hal_rng.c ****   * @param  hrng pointer to a RNG_HandleTypeDef structure that contains
 634:Drivers/STM32F4xx_HAL_Driver/Src/stm32f4xx_hal_rng.c ****   *                the configuration information for RNG.
 635:Drivers/STM32F4xx_HAL_Driver/Src/stm32f4xx_hal_rng.c ****   * @retval Random value
 636:Drivers/STM32F4xx_HAL_Driver/Src/stm32f4xx_hal_rng.c ****   */
 637:Drivers/STM32F4xx_HAL_Driver/Src/stm32f4xx_hal_rng.c **** uint32_t HAL_RNG_GetRandomNumber(RNG_HandleTypeDef *hrng)
 638:Drivers/STM32F4xx_HAL_Driver/Src/stm32f4xx_hal_rng.c **** {
 460              		.loc 1 638 1 is_stmt 1 view -0
 461              		.cfi_startproc
 462              		@ args = 0, pretend = 0, frame = 0
 463              		@ frame_needed = 0, uses_anonymous_args = 0
ARM GAS  /var/folders/0z/tsy30v1j4xl4_7kw94k978ww0000gn/T//ccgroddb.s 			page 22


 639:Drivers/STM32F4xx_HAL_Driver/Src/stm32f4xx_hal_rng.c ****   if (HAL_RNG_GenerateRandomNumber(hrng, &(hrng->RandomNumber)) == HAL_OK)
 464              		.loc 1 639 3 view .LVU153
 465              	.LBB4:
 466              	.LBI4:
 544:Drivers/STM32F4xx_HAL_Driver/Src/stm32f4xx_hal_rng.c **** {
 467              		.loc 1 544 19 view .LVU154
 468              	.LBB5:
 546:Drivers/STM32F4xx_HAL_Driver/Src/stm32f4xx_hal_rng.c ****   HAL_StatusTypeDef status = HAL_OK;
 469              		.loc 1 546 3 view .LVU155
 547:Drivers/STM32F4xx_HAL_Driver/Src/stm32f4xx_hal_rng.c **** 
 470              		.loc 1 547 3 view .LVU156
 550:Drivers/STM32F4xx_HAL_Driver/Src/stm32f4xx_hal_rng.c **** 
 471              		.loc 1 550 3 view .LVU157
 550:Drivers/STM32F4xx_HAL_Driver/Src/stm32f4xx_hal_rng.c **** 
 472              		.loc 1 550 3 view .LVU158
 473              	.LBE5:
 474              	.LBE4:
 638:Drivers/STM32F4xx_HAL_Driver/Src/stm32f4xx_hal_rng.c ****   if (HAL_RNG_GenerateRandomNumber(hrng, &(hrng->RandomNumber)) == HAL_OK)
 475              		.loc 1 638 1 is_stmt 0 view .LVU159
 476 0000 38B5     		push	{r3, r4, r5, lr}
 477              		.cfi_def_cfa_offset 16
 478              		.cfi_offset 3, -16
 479              		.cfi_offset 4, -12
 480              		.cfi_offset 5, -8
 481              		.cfi_offset 14, -4
 482              	.LBB9:
 483              	.LBB6:
 550:Drivers/STM32F4xx_HAL_Driver/Src/stm32f4xx_hal_rng.c **** 
 484              		.loc 1 550 3 view .LVU160
 485 0002 0379     		ldrb	r3, [r0, #4]	@ zero_extendqisi2
 486 0004 012B     		cmp	r3, #1
 487 0006 2AD0     		beq	.L46
 550:Drivers/STM32F4xx_HAL_Driver/Src/stm32f4xx_hal_rng.c **** 
 488              		.loc 1 550 3 is_stmt 1 view .LVU161
 553:Drivers/STM32F4xx_HAL_Driver/Src/stm32f4xx_hal_rng.c ****   {
 489              		.loc 1 553 11 is_stmt 0 view .LVU162
 490 0008 4379     		ldrb	r3, [r0, #5]	@ zero_extendqisi2
 550:Drivers/STM32F4xx_HAL_Driver/Src/stm32f4xx_hal_rng.c **** 
 491              		.loc 1 550 3 view .LVU163
 492 000a 0122     		movs	r2, #1
 553:Drivers/STM32F4xx_HAL_Driver/Src/stm32f4xx_hal_rng.c ****   {
 493              		.loc 1 553 6 view .LVU164
 494 000c 9342     		cmp	r3, r2
 495 000e 0446     		mov	r4, r0
 550:Drivers/STM32F4xx_HAL_Driver/Src/stm32f4xx_hal_rng.c **** 
 496              		.loc 1 550 3 view .LVU165
 497 0010 0271     		strb	r2, [r0, #4]
 550:Drivers/STM32F4xx_HAL_Driver/Src/stm32f4xx_hal_rng.c **** 
 498              		.loc 1 550 3 is_stmt 1 view .LVU166
 553:Drivers/STM32F4xx_HAL_Driver/Src/stm32f4xx_hal_rng.c ****   {
 499              		.loc 1 553 3 view .LVU167
 553:Drivers/STM32F4xx_HAL_Driver/Src/stm32f4xx_hal_rng.c ****   {
 500              		.loc 1 553 6 is_stmt 0 view .LVU168
 501 0012 04D0     		beq	.L51
 586:Drivers/STM32F4xx_HAL_Driver/Src/stm32f4xx_hal_rng.c ****     status = HAL_ERROR;
 502              		.loc 1 586 5 is_stmt 1 view .LVU169
 591:Drivers/STM32F4xx_HAL_Driver/Src/stm32f4xx_hal_rng.c **** 
ARM GAS  /var/folders/0z/tsy30v1j4xl4_7kw94k978ww0000gn/T//ccgroddb.s 			page 23


 503              		.loc 1 591 3 is_stmt 0 view .LVU170
 504 0014 0020     		movs	r0, #0
 505              	.LVL30:
 586:Drivers/STM32F4xx_HAL_Driver/Src/stm32f4xx_hal_rng.c ****     status = HAL_ERROR;
 506              		.loc 1 586 21 view .LVU171
 507 0016 0423     		movs	r3, #4
 591:Drivers/STM32F4xx_HAL_Driver/Src/stm32f4xx_hal_rng.c **** 
 508              		.loc 1 591 3 view .LVU172
 509 0018 2071     		strb	r0, [r4, #4]
 586:Drivers/STM32F4xx_HAL_Driver/Src/stm32f4xx_hal_rng.c ****     status = HAL_ERROR;
 510              		.loc 1 586 21 view .LVU173
 511 001a A360     		str	r3, [r4, #8]
 587:Drivers/STM32F4xx_HAL_Driver/Src/stm32f4xx_hal_rng.c ****   }
 512              		.loc 1 587 5 is_stmt 1 view .LVU174
 513              	.LVL31:
 591:Drivers/STM32F4xx_HAL_Driver/Src/stm32f4xx_hal_rng.c **** 
 514              		.loc 1 591 3 view .LVU175
 591:Drivers/STM32F4xx_HAL_Driver/Src/stm32f4xx_hal_rng.c **** 
 515              		.loc 1 591 3 view .LVU176
 591:Drivers/STM32F4xx_HAL_Driver/Src/stm32f4xx_hal_rng.c **** 
 516              		.loc 1 591 3 view .LVU177
 593:Drivers/STM32F4xx_HAL_Driver/Src/stm32f4xx_hal_rng.c **** }
 517              		.loc 1 593 3 view .LVU178
 593:Drivers/STM32F4xx_HAL_Driver/Src/stm32f4xx_hal_rng.c **** }
 518              		.loc 1 593 3 is_stmt 0 view .LVU179
 519              	.LBE6:
 520              	.LBE9:
 640:Drivers/STM32F4xx_HAL_Driver/Src/stm32f4xx_hal_rng.c ****   {
 641:Drivers/STM32F4xx_HAL_Driver/Src/stm32f4xx_hal_rng.c ****     return hrng->RandomNumber;
 642:Drivers/STM32F4xx_HAL_Driver/Src/stm32f4xx_hal_rng.c ****   }
 643:Drivers/STM32F4xx_HAL_Driver/Src/stm32f4xx_hal_rng.c ****   else
 644:Drivers/STM32F4xx_HAL_Driver/Src/stm32f4xx_hal_rng.c ****   {
 645:Drivers/STM32F4xx_HAL_Driver/Src/stm32f4xx_hal_rng.c ****     return 0U;
 646:Drivers/STM32F4xx_HAL_Driver/Src/stm32f4xx_hal_rng.c ****   }
 647:Drivers/STM32F4xx_HAL_Driver/Src/stm32f4xx_hal_rng.c **** }
 521              		.loc 1 647 1 view .LVU180
 522 001c 38BD     		pop	{r3, r4, r5, pc}
 523              	.LVL32:
 524              	.L51:
 525              	.LBB10:
 526              	.LBB7:
 556:Drivers/STM32F4xx_HAL_Driver/Src/stm32f4xx_hal_rng.c **** 
 527              		.loc 1 556 5 is_stmt 1 view .LVU181
 556:Drivers/STM32F4xx_HAL_Driver/Src/stm32f4xx_hal_rng.c **** 
 528              		.loc 1 556 17 is_stmt 0 view .LVU182
 529 001e 0223     		movs	r3, #2
 530 0020 4371     		strb	r3, [r0, #5]
 559:Drivers/STM32F4xx_HAL_Driver/Src/stm32f4xx_hal_rng.c **** 
 531              		.loc 1 559 5 is_stmt 1 view .LVU183
 559:Drivers/STM32F4xx_HAL_Driver/Src/stm32f4xx_hal_rng.c **** 
 532              		.loc 1 559 17 is_stmt 0 view .LVU184
 533 0022 FFF7FEFF 		bl	HAL_GetTick
 534              	.LVL33:
 562:Drivers/STM32F4xx_HAL_Driver/Src/stm32f4xx_hal_rng.c ****     {
 535              		.loc 1 562 12 view .LVU185
 536 0026 2268     		ldr	r2, [r4]
 559:Drivers/STM32F4xx_HAL_Driver/Src/stm32f4xx_hal_rng.c **** 
ARM GAS  /var/folders/0z/tsy30v1j4xl4_7kw94k978ww0000gn/T//ccgroddb.s 			page 24


 537              		.loc 1 559 17 view .LVU186
 538 0028 0546     		mov	r5, r0
 539              	.L50:
 540              	.LVL34:
 562:Drivers/STM32F4xx_HAL_Driver/Src/stm32f4xx_hal_rng.c ****     {
 541              		.loc 1 562 5 is_stmt 1 view .LVU187
 562:Drivers/STM32F4xx_HAL_Driver/Src/stm32f4xx_hal_rng.c ****     {
 542              		.loc 1 562 52 view .LVU188
 562:Drivers/STM32F4xx_HAL_Driver/Src/stm32f4xx_hal_rng.c ****     {
 543              		.loc 1 562 12 is_stmt 0 view .LVU189
 544 002a 5368     		ldr	r3, [r2, #4]
 562:Drivers/STM32F4xx_HAL_Driver/Src/stm32f4xx_hal_rng.c ****     {
 545              		.loc 1 562 52 view .LVU190
 546 002c DB07     		lsls	r3, r3, #31
 547 002e 0FD4     		bmi	.L42
 564:Drivers/STM32F4xx_HAL_Driver/Src/stm32f4xx_hal_rng.c ****       {
 548              		.loc 1 564 7 is_stmt 1 view .LVU191
 564:Drivers/STM32F4xx_HAL_Driver/Src/stm32f4xx_hal_rng.c ****       {
 549              		.loc 1 564 12 is_stmt 0 view .LVU192
 550 0030 FFF7FEFF 		bl	HAL_GetTick
 551              	.LVL35:
 567:Drivers/STM32F4xx_HAL_Driver/Src/stm32f4xx_hal_rng.c ****         {
 552              		.loc 1 567 9 is_stmt 1 view .LVU193
 562:Drivers/STM32F4xx_HAL_Driver/Src/stm32f4xx_hal_rng.c ****     {
 553              		.loc 1 562 52 view .LVU194
 564:Drivers/STM32F4xx_HAL_Driver/Src/stm32f4xx_hal_rng.c ****       {
 554              		.loc 1 564 26 is_stmt 0 view .LVU195
 555 0034 401B     		subs	r0, r0, r5
 564:Drivers/STM32F4xx_HAL_Driver/Src/stm32f4xx_hal_rng.c ****       {
 556              		.loc 1 564 10 view .LVU196
 557 0036 0228     		cmp	r0, #2
 567:Drivers/STM32F4xx_HAL_Driver/Src/stm32f4xx_hal_rng.c ****         {
 558              		.loc 1 567 13 view .LVU197
 559 0038 2268     		ldr	r2, [r4]
 564:Drivers/STM32F4xx_HAL_Driver/Src/stm32f4xx_hal_rng.c ****       {
 560              		.loc 1 564 10 view .LVU198
 561 003a F6D9     		bls	.L50
 567:Drivers/STM32F4xx_HAL_Driver/Src/stm32f4xx_hal_rng.c ****         {
 562              		.loc 1 567 13 view .LVU199
 563 003c 5068     		ldr	r0, [r2, #4]
 567:Drivers/STM32F4xx_HAL_Driver/Src/stm32f4xx_hal_rng.c ****         {
 564              		.loc 1 567 12 view .LVU200
 565 003e 10F00100 		ands	r0, r0, #1
 566 0042 F2D1     		bne	.L50
 569:Drivers/STM32F4xx_HAL_Driver/Src/stm32f4xx_hal_rng.c ****           hrng->ErrorCode = HAL_RNG_ERROR_TIMEOUT;
 567              		.loc 1 569 11 is_stmt 1 view .LVU201
 569:Drivers/STM32F4xx_HAL_Driver/Src/stm32f4xx_hal_rng.c ****           hrng->ErrorCode = HAL_RNG_ERROR_TIMEOUT;
 568              		.loc 1 569 23 is_stmt 0 view .LVU202
 569 0044 0122     		movs	r2, #1
 570:Drivers/STM32F4xx_HAL_Driver/Src/stm32f4xx_hal_rng.c ****           /* Process Unlocked */
 570              		.loc 1 570 27 view .LVU203
 571 0046 0223     		movs	r3, #2
 569:Drivers/STM32F4xx_HAL_Driver/Src/stm32f4xx_hal_rng.c ****           hrng->ErrorCode = HAL_RNG_ERROR_TIMEOUT;
 572              		.loc 1 569 23 view .LVU204
 573 0048 6271     		strb	r2, [r4, #5]
 570:Drivers/STM32F4xx_HAL_Driver/Src/stm32f4xx_hal_rng.c ****           /* Process Unlocked */
 574              		.loc 1 570 11 is_stmt 1 view .LVU205
ARM GAS  /var/folders/0z/tsy30v1j4xl4_7kw94k978ww0000gn/T//ccgroddb.s 			page 25


 572:Drivers/STM32F4xx_HAL_Driver/Src/stm32f4xx_hal_rng.c ****           return HAL_ERROR;
 575              		.loc 1 572 11 is_stmt 0 view .LVU206
 576 004a 2071     		strb	r0, [r4, #4]
 570:Drivers/STM32F4xx_HAL_Driver/Src/stm32f4xx_hal_rng.c ****           /* Process Unlocked */
 577              		.loc 1 570 27 view .LVU207
 578 004c A360     		str	r3, [r4, #8]
 572:Drivers/STM32F4xx_HAL_Driver/Src/stm32f4xx_hal_rng.c ****           return HAL_ERROR;
 579              		.loc 1 572 11 is_stmt 1 view .LVU208
 572:Drivers/STM32F4xx_HAL_Driver/Src/stm32f4xx_hal_rng.c ****           return HAL_ERROR;
 580              		.loc 1 572 11 view .LVU209
 572:Drivers/STM32F4xx_HAL_Driver/Src/stm32f4xx_hal_rng.c ****           return HAL_ERROR;
 581              		.loc 1 572 11 view .LVU210
 573:Drivers/STM32F4xx_HAL_Driver/Src/stm32f4xx_hal_rng.c ****         }
 582              		.loc 1 573 11 view .LVU211
 583              	.LVL36:
 573:Drivers/STM32F4xx_HAL_Driver/Src/stm32f4xx_hal_rng.c ****         }
 584              		.loc 1 573 11 is_stmt 0 view .LVU212
 585              	.LBE7:
 586              	.LBE10:
 587              		.loc 1 647 1 view .LVU213
 588 004e 38BD     		pop	{r3, r4, r5, pc}
 589              	.LVL37:
 590              	.L42:
 591              	.LBB11:
 592              	.LBB8:
 579:Drivers/STM32F4xx_HAL_Driver/Src/stm32f4xx_hal_rng.c ****     *random32bit = hrng->RandomNumber;
 593              		.loc 1 579 5 is_stmt 1 view .LVU214
 579:Drivers/STM32F4xx_HAL_Driver/Src/stm32f4xx_hal_rng.c ****     *random32bit = hrng->RandomNumber;
 594              		.loc 1 579 40 is_stmt 0 view .LVU215
 595 0050 9068     		ldr	r0, [r2, #8]
 579:Drivers/STM32F4xx_HAL_Driver/Src/stm32f4xx_hal_rng.c ****     *random32bit = hrng->RandomNumber;
 596              		.loc 1 579 24 view .LVU216
 597 0052 E060     		str	r0, [r4, #12]
 580:Drivers/STM32F4xx_HAL_Driver/Src/stm32f4xx_hal_rng.c **** 
 598              		.loc 1 580 5 is_stmt 1 view .LVU217
 582:Drivers/STM32F4xx_HAL_Driver/Src/stm32f4xx_hal_rng.c ****   }
 599              		.loc 1 582 5 view .LVU218
 582:Drivers/STM32F4xx_HAL_Driver/Src/stm32f4xx_hal_rng.c ****   }
 600              		.loc 1 582 17 is_stmt 0 view .LVU219
 601 0054 0122     		movs	r2, #1
 591:Drivers/STM32F4xx_HAL_Driver/Src/stm32f4xx_hal_rng.c **** 
 602              		.loc 1 591 3 view .LVU220
 603 0056 0023     		movs	r3, #0
 582:Drivers/STM32F4xx_HAL_Driver/Src/stm32f4xx_hal_rng.c ****   }
 604              		.loc 1 582 17 view .LVU221
 605 0058 6271     		strb	r2, [r4, #5]
 591:Drivers/STM32F4xx_HAL_Driver/Src/stm32f4xx_hal_rng.c **** 
 606              		.loc 1 591 3 is_stmt 1 view .LVU222
 591:Drivers/STM32F4xx_HAL_Driver/Src/stm32f4xx_hal_rng.c **** 
 607              		.loc 1 591 3 view .LVU223
 608 005a 2371     		strb	r3, [r4, #4]
 591:Drivers/STM32F4xx_HAL_Driver/Src/stm32f4xx_hal_rng.c **** 
 609              		.loc 1 591 3 view .LVU224
 593:Drivers/STM32F4xx_HAL_Driver/Src/stm32f4xx_hal_rng.c **** }
 610              		.loc 1 593 3 view .LVU225
 611              	.LVL38:
 593:Drivers/STM32F4xx_HAL_Driver/Src/stm32f4xx_hal_rng.c **** }
ARM GAS  /var/folders/0z/tsy30v1j4xl4_7kw94k978ww0000gn/T//ccgroddb.s 			page 26


 612              		.loc 1 593 3 is_stmt 0 view .LVU226
 613              	.LBE8:
 614              	.LBE11:
 641:Drivers/STM32F4xx_HAL_Driver/Src/stm32f4xx_hal_rng.c ****   }
 615              		.loc 1 641 5 is_stmt 1 view .LVU227
 616              		.loc 1 647 1 is_stmt 0 view .LVU228
 617 005c 38BD     		pop	{r3, r4, r5, pc}
 618              	.LVL39:
 619              	.L46:
 645:Drivers/STM32F4xx_HAL_Driver/Src/stm32f4xx_hal_rng.c ****   }
 620              		.loc 1 645 12 view .LVU229
 621 005e 0020     		movs	r0, #0
 622              	.LVL40:
 623              		.loc 1 647 1 view .LVU230
 624 0060 38BD     		pop	{r3, r4, r5, pc}
 625              		.cfi_endproc
 626              	.LFE241:
 628 0062 00BF     		.section	.text.HAL_RNG_GetRandomNumber_IT,"ax",%progbits
 629              		.align	1
 630              		.p2align 2,,3
 631              		.global	HAL_RNG_GetRandomNumber_IT
 632              		.syntax unified
 633              		.thumb
 634              		.thumb_func
 636              	HAL_RNG_GetRandomNumber_IT:
 637              	.LVL41:
 638              	.LFB242:
 648:Drivers/STM32F4xx_HAL_Driver/Src/stm32f4xx_hal_rng.c **** 
 649:Drivers/STM32F4xx_HAL_Driver/Src/stm32f4xx_hal_rng.c **** /**
 650:Drivers/STM32F4xx_HAL_Driver/Src/stm32f4xx_hal_rng.c ****   * @brief  Returns a 32-bit random number with interrupt enabled (Obsolete),
 651:Drivers/STM32F4xx_HAL_Driver/Src/stm32f4xx_hal_rng.c ****   *         Use HAL_RNG_GenerateRandomNumber_IT() API instead.
 652:Drivers/STM32F4xx_HAL_Driver/Src/stm32f4xx_hal_rng.c ****   * @param  hrng pointer to a RNG_HandleTypeDef structure that contains
 653:Drivers/STM32F4xx_HAL_Driver/Src/stm32f4xx_hal_rng.c ****   *                the configuration information for RNG.
 654:Drivers/STM32F4xx_HAL_Driver/Src/stm32f4xx_hal_rng.c ****   * @retval 32-bit random number
 655:Drivers/STM32F4xx_HAL_Driver/Src/stm32f4xx_hal_rng.c ****   */
 656:Drivers/STM32F4xx_HAL_Driver/Src/stm32f4xx_hal_rng.c **** uint32_t HAL_RNG_GetRandomNumber_IT(RNG_HandleTypeDef *hrng)
 657:Drivers/STM32F4xx_HAL_Driver/Src/stm32f4xx_hal_rng.c **** {
 639              		.loc 1 657 1 is_stmt 1 view -0
 640              		.cfi_startproc
 641              		@ args = 0, pretend = 0, frame = 0
 642              		@ frame_needed = 0, uses_anonymous_args = 0
 643              		@ link register save eliminated.
 658:Drivers/STM32F4xx_HAL_Driver/Src/stm32f4xx_hal_rng.c ****   uint32_t random32bit = 0U;
 644              		.loc 1 658 3 view .LVU232
 659:Drivers/STM32F4xx_HAL_Driver/Src/stm32f4xx_hal_rng.c **** 
 660:Drivers/STM32F4xx_HAL_Driver/Src/stm32f4xx_hal_rng.c ****   /* Process locked */
 661:Drivers/STM32F4xx_HAL_Driver/Src/stm32f4xx_hal_rng.c ****   __HAL_LOCK(hrng);
 645              		.loc 1 661 3 view .LVU233
 646              		.loc 1 661 3 view .LVU234
 647 0000 0379     		ldrb	r3, [r0, #4]	@ zero_extendqisi2
 648 0002 012B     		cmp	r3, #1
 649 0004 0AD0     		beq	.L54
 650              		.loc 1 661 3 discriminator 2 view .LVU235
 662:Drivers/STM32F4xx_HAL_Driver/Src/stm32f4xx_hal_rng.c **** 
 663:Drivers/STM32F4xx_HAL_Driver/Src/stm32f4xx_hal_rng.c ****   /* Change RNG peripheral state */
 664:Drivers/STM32F4xx_HAL_Driver/Src/stm32f4xx_hal_rng.c ****   hrng->State = HAL_RNG_STATE_BUSY;
 665:Drivers/STM32F4xx_HAL_Driver/Src/stm32f4xx_hal_rng.c **** 
ARM GAS  /var/folders/0z/tsy30v1j4xl4_7kw94k978ww0000gn/T//ccgroddb.s 			page 27


 666:Drivers/STM32F4xx_HAL_Driver/Src/stm32f4xx_hal_rng.c ****   /* Get a 32bit Random number */
 667:Drivers/STM32F4xx_HAL_Driver/Src/stm32f4xx_hal_rng.c ****   random32bit = hrng->Instance->DR;
 651              		.loc 1 667 21 is_stmt 0 discriminator 2 view .LVU236
 652 0006 0368     		ldr	r3, [r0]
 661:Drivers/STM32F4xx_HAL_Driver/Src/stm32f4xx_hal_rng.c **** 
 653              		.loc 1 661 3 discriminator 2 view .LVU237
 654 0008 0121     		movs	r1, #1
 664:Drivers/STM32F4xx_HAL_Driver/Src/stm32f4xx_hal_rng.c **** 
 655              		.loc 1 664 15 discriminator 2 view .LVU238
 656 000a 0222     		movs	r2, #2
 661:Drivers/STM32F4xx_HAL_Driver/Src/stm32f4xx_hal_rng.c **** 
 657              		.loc 1 661 3 discriminator 2 view .LVU239
 658 000c 0171     		strb	r1, [r0, #4]
 661:Drivers/STM32F4xx_HAL_Driver/Src/stm32f4xx_hal_rng.c **** 
 659              		.loc 1 661 3 is_stmt 1 discriminator 2 view .LVU240
 664:Drivers/STM32F4xx_HAL_Driver/Src/stm32f4xx_hal_rng.c **** 
 660              		.loc 1 664 3 discriminator 2 view .LVU241
 664:Drivers/STM32F4xx_HAL_Driver/Src/stm32f4xx_hal_rng.c **** 
 661              		.loc 1 664 15 is_stmt 0 discriminator 2 view .LVU242
 662 000e 4271     		strb	r2, [r0, #5]
 663              		.loc 1 667 3 is_stmt 1 discriminator 2 view .LVU243
 664              		.loc 1 667 15 is_stmt 0 discriminator 2 view .LVU244
 665 0010 9868     		ldr	r0, [r3, #8]
 666              	.LVL42:
 668:Drivers/STM32F4xx_HAL_Driver/Src/stm32f4xx_hal_rng.c **** 
 669:Drivers/STM32F4xx_HAL_Driver/Src/stm32f4xx_hal_rng.c ****   /* Enable the RNG Interrupts: Data Ready, Clock error, Seed error */
 670:Drivers/STM32F4xx_HAL_Driver/Src/stm32f4xx_hal_rng.c ****   __HAL_RNG_ENABLE_IT(hrng);
 667              		.loc 1 670 3 is_stmt 1 discriminator 2 view .LVU245
 668 0012 1A68     		ldr	r2, [r3]
 669 0014 42F00802 		orr	r2, r2, #8
 670 0018 1A60     		str	r2, [r3]
 671:Drivers/STM32F4xx_HAL_Driver/Src/stm32f4xx_hal_rng.c **** 
 672:Drivers/STM32F4xx_HAL_Driver/Src/stm32f4xx_hal_rng.c ****   /* Return the 32 bit random number */
 673:Drivers/STM32F4xx_HAL_Driver/Src/stm32f4xx_hal_rng.c ****   return random32bit;
 671              		.loc 1 673 3 discriminator 2 view .LVU246
 672              		.loc 1 673 10 is_stmt 0 discriminator 2 view .LVU247
 673 001a 7047     		bx	lr
 674              	.LVL43:
 675              	.L54:
 661:Drivers/STM32F4xx_HAL_Driver/Src/stm32f4xx_hal_rng.c **** 
 676              		.loc 1 661 3 view .LVU248
 677 001c 0220     		movs	r0, #2
 678              	.LVL44:
 674:Drivers/STM32F4xx_HAL_Driver/Src/stm32f4xx_hal_rng.c **** }
 679              		.loc 1 674 1 view .LVU249
 680 001e 7047     		bx	lr
 681              		.cfi_endproc
 682              	.LFE242:
 684              		.section	.text.HAL_RNG_ReadLastRandomNumber,"ax",%progbits
 685              		.align	1
 686              		.p2align 2,,3
 687              		.global	HAL_RNG_ReadLastRandomNumber
 688              		.syntax unified
 689              		.thumb
 690              		.thumb_func
 692              	HAL_RNG_ReadLastRandomNumber:
 693              	.LVL45:
ARM GAS  /var/folders/0z/tsy30v1j4xl4_7kw94k978ww0000gn/T//ccgroddb.s 			page 28


 694              	.LFB244:
 675:Drivers/STM32F4xx_HAL_Driver/Src/stm32f4xx_hal_rng.c **** 
 676:Drivers/STM32F4xx_HAL_Driver/Src/stm32f4xx_hal_rng.c **** /**
 677:Drivers/STM32F4xx_HAL_Driver/Src/stm32f4xx_hal_rng.c ****   * @brief  Handles RNG interrupt request.
 678:Drivers/STM32F4xx_HAL_Driver/Src/stm32f4xx_hal_rng.c ****   * @note   In the case of a clock error, the RNG is no more able to generate
 679:Drivers/STM32F4xx_HAL_Driver/Src/stm32f4xx_hal_rng.c ****   *         random numbers because the PLL48CLK clock is not correct. User has
 680:Drivers/STM32F4xx_HAL_Driver/Src/stm32f4xx_hal_rng.c ****   *         to check that the clock controller is correctly configured to provide
 681:Drivers/STM32F4xx_HAL_Driver/Src/stm32f4xx_hal_rng.c ****   *         the RNG clock and clear the CEIS bit using __HAL_RNG_CLEAR_IT().
 682:Drivers/STM32F4xx_HAL_Driver/Src/stm32f4xx_hal_rng.c ****   *         The clock error has no impact on the previously generated
 683:Drivers/STM32F4xx_HAL_Driver/Src/stm32f4xx_hal_rng.c ****   *         random numbers, and the RNG_DR register contents can be used.
 684:Drivers/STM32F4xx_HAL_Driver/Src/stm32f4xx_hal_rng.c ****   * @note   In the case of a seed error, the generation of random numbers is
 685:Drivers/STM32F4xx_HAL_Driver/Src/stm32f4xx_hal_rng.c ****   *         interrupted as long as the SECS bit is '1'. If a number is
 686:Drivers/STM32F4xx_HAL_Driver/Src/stm32f4xx_hal_rng.c ****   *         available in the RNG_DR register, it must not be used because it may
 687:Drivers/STM32F4xx_HAL_Driver/Src/stm32f4xx_hal_rng.c ****   *         not have enough entropy. In this case, it is recommended to clear the
 688:Drivers/STM32F4xx_HAL_Driver/Src/stm32f4xx_hal_rng.c ****   *         SEIS bit using __HAL_RNG_CLEAR_IT(), then disable and enable
 689:Drivers/STM32F4xx_HAL_Driver/Src/stm32f4xx_hal_rng.c ****   *         the RNG peripheral to reinitialize and restart the RNG.
 690:Drivers/STM32F4xx_HAL_Driver/Src/stm32f4xx_hal_rng.c ****   * @note   User-written HAL_RNG_ErrorCallback() API is called once whether SEIS
 691:Drivers/STM32F4xx_HAL_Driver/Src/stm32f4xx_hal_rng.c ****   *         or CEIS are set.
 692:Drivers/STM32F4xx_HAL_Driver/Src/stm32f4xx_hal_rng.c ****   * @param  hrng pointer to a RNG_HandleTypeDef structure that contains
 693:Drivers/STM32F4xx_HAL_Driver/Src/stm32f4xx_hal_rng.c ****   *                the configuration information for RNG.
 694:Drivers/STM32F4xx_HAL_Driver/Src/stm32f4xx_hal_rng.c ****   * @retval None
 695:Drivers/STM32F4xx_HAL_Driver/Src/stm32f4xx_hal_rng.c **** 
 696:Drivers/STM32F4xx_HAL_Driver/Src/stm32f4xx_hal_rng.c ****   */
 697:Drivers/STM32F4xx_HAL_Driver/Src/stm32f4xx_hal_rng.c **** void HAL_RNG_IRQHandler(RNG_HandleTypeDef *hrng)
 698:Drivers/STM32F4xx_HAL_Driver/Src/stm32f4xx_hal_rng.c **** {
 699:Drivers/STM32F4xx_HAL_Driver/Src/stm32f4xx_hal_rng.c ****   uint32_t rngclockerror = 0U;
 700:Drivers/STM32F4xx_HAL_Driver/Src/stm32f4xx_hal_rng.c **** 
 701:Drivers/STM32F4xx_HAL_Driver/Src/stm32f4xx_hal_rng.c ****   /* RNG clock error interrupt occurred */
 702:Drivers/STM32F4xx_HAL_Driver/Src/stm32f4xx_hal_rng.c ****   if (__HAL_RNG_GET_IT(hrng, RNG_IT_CEI) != RESET)
 703:Drivers/STM32F4xx_HAL_Driver/Src/stm32f4xx_hal_rng.c ****   {
 704:Drivers/STM32F4xx_HAL_Driver/Src/stm32f4xx_hal_rng.c ****     /* Update the error code */
 705:Drivers/STM32F4xx_HAL_Driver/Src/stm32f4xx_hal_rng.c ****     hrng->ErrorCode = HAL_RNG_ERROR_CLOCK;
 706:Drivers/STM32F4xx_HAL_Driver/Src/stm32f4xx_hal_rng.c ****     rngclockerror = 1U;
 707:Drivers/STM32F4xx_HAL_Driver/Src/stm32f4xx_hal_rng.c ****   }
 708:Drivers/STM32F4xx_HAL_Driver/Src/stm32f4xx_hal_rng.c ****   else if (__HAL_RNG_GET_IT(hrng, RNG_IT_SEI) != RESET)
 709:Drivers/STM32F4xx_HAL_Driver/Src/stm32f4xx_hal_rng.c ****   {
 710:Drivers/STM32F4xx_HAL_Driver/Src/stm32f4xx_hal_rng.c ****     /* Update the error code */
 711:Drivers/STM32F4xx_HAL_Driver/Src/stm32f4xx_hal_rng.c ****     hrng->ErrorCode = HAL_RNG_ERROR_SEED;
 712:Drivers/STM32F4xx_HAL_Driver/Src/stm32f4xx_hal_rng.c ****     rngclockerror = 1U;
 713:Drivers/STM32F4xx_HAL_Driver/Src/stm32f4xx_hal_rng.c ****   }
 714:Drivers/STM32F4xx_HAL_Driver/Src/stm32f4xx_hal_rng.c ****   else
 715:Drivers/STM32F4xx_HAL_Driver/Src/stm32f4xx_hal_rng.c ****   {
 716:Drivers/STM32F4xx_HAL_Driver/Src/stm32f4xx_hal_rng.c ****     /* Nothing to do */
 717:Drivers/STM32F4xx_HAL_Driver/Src/stm32f4xx_hal_rng.c ****   }
 718:Drivers/STM32F4xx_HAL_Driver/Src/stm32f4xx_hal_rng.c **** 
 719:Drivers/STM32F4xx_HAL_Driver/Src/stm32f4xx_hal_rng.c ****   if (rngclockerror == 1U)
 720:Drivers/STM32F4xx_HAL_Driver/Src/stm32f4xx_hal_rng.c ****   {
 721:Drivers/STM32F4xx_HAL_Driver/Src/stm32f4xx_hal_rng.c ****     /* Change RNG peripheral state */
 722:Drivers/STM32F4xx_HAL_Driver/Src/stm32f4xx_hal_rng.c ****     hrng->State = HAL_RNG_STATE_ERROR;
 723:Drivers/STM32F4xx_HAL_Driver/Src/stm32f4xx_hal_rng.c **** 
 724:Drivers/STM32F4xx_HAL_Driver/Src/stm32f4xx_hal_rng.c **** #if (USE_HAL_RNG_REGISTER_CALLBACKS == 1)
 725:Drivers/STM32F4xx_HAL_Driver/Src/stm32f4xx_hal_rng.c ****     /* Call registered Error callback */
 726:Drivers/STM32F4xx_HAL_Driver/Src/stm32f4xx_hal_rng.c ****     hrng->ErrorCallback(hrng);
 727:Drivers/STM32F4xx_HAL_Driver/Src/stm32f4xx_hal_rng.c **** #else
 728:Drivers/STM32F4xx_HAL_Driver/Src/stm32f4xx_hal_rng.c ****     /* Call legacy weak Error callback */
 729:Drivers/STM32F4xx_HAL_Driver/Src/stm32f4xx_hal_rng.c ****     HAL_RNG_ErrorCallback(hrng);
 730:Drivers/STM32F4xx_HAL_Driver/Src/stm32f4xx_hal_rng.c **** #endif /* USE_HAL_RNG_REGISTER_CALLBACKS */
ARM GAS  /var/folders/0z/tsy30v1j4xl4_7kw94k978ww0000gn/T//ccgroddb.s 			page 29


 731:Drivers/STM32F4xx_HAL_Driver/Src/stm32f4xx_hal_rng.c **** 
 732:Drivers/STM32F4xx_HAL_Driver/Src/stm32f4xx_hal_rng.c ****     /* Clear the clock error flag */
 733:Drivers/STM32F4xx_HAL_Driver/Src/stm32f4xx_hal_rng.c ****     __HAL_RNG_CLEAR_IT(hrng, RNG_IT_CEI | RNG_IT_SEI);
 734:Drivers/STM32F4xx_HAL_Driver/Src/stm32f4xx_hal_rng.c **** 
 735:Drivers/STM32F4xx_HAL_Driver/Src/stm32f4xx_hal_rng.c ****     return;
 736:Drivers/STM32F4xx_HAL_Driver/Src/stm32f4xx_hal_rng.c ****   }
 737:Drivers/STM32F4xx_HAL_Driver/Src/stm32f4xx_hal_rng.c **** 
 738:Drivers/STM32F4xx_HAL_Driver/Src/stm32f4xx_hal_rng.c ****   /* Check RNG data ready interrupt occurred */
 739:Drivers/STM32F4xx_HAL_Driver/Src/stm32f4xx_hal_rng.c ****   if (__HAL_RNG_GET_IT(hrng, RNG_IT_DRDY) != RESET)
 740:Drivers/STM32F4xx_HAL_Driver/Src/stm32f4xx_hal_rng.c ****   {
 741:Drivers/STM32F4xx_HAL_Driver/Src/stm32f4xx_hal_rng.c ****     /* Generate random number once, so disable the IT */
 742:Drivers/STM32F4xx_HAL_Driver/Src/stm32f4xx_hal_rng.c ****     __HAL_RNG_DISABLE_IT(hrng);
 743:Drivers/STM32F4xx_HAL_Driver/Src/stm32f4xx_hal_rng.c **** 
 744:Drivers/STM32F4xx_HAL_Driver/Src/stm32f4xx_hal_rng.c ****     /* Get the 32bit Random number (DRDY flag automatically cleared) */
 745:Drivers/STM32F4xx_HAL_Driver/Src/stm32f4xx_hal_rng.c ****     hrng->RandomNumber = hrng->Instance->DR;
 746:Drivers/STM32F4xx_HAL_Driver/Src/stm32f4xx_hal_rng.c **** 
 747:Drivers/STM32F4xx_HAL_Driver/Src/stm32f4xx_hal_rng.c ****     if (hrng->State != HAL_RNG_STATE_ERROR)
 748:Drivers/STM32F4xx_HAL_Driver/Src/stm32f4xx_hal_rng.c ****     {
 749:Drivers/STM32F4xx_HAL_Driver/Src/stm32f4xx_hal_rng.c ****       /* Change RNG peripheral state */
 750:Drivers/STM32F4xx_HAL_Driver/Src/stm32f4xx_hal_rng.c ****       hrng->State = HAL_RNG_STATE_READY;
 751:Drivers/STM32F4xx_HAL_Driver/Src/stm32f4xx_hal_rng.c ****       /* Process Unlocked */
 752:Drivers/STM32F4xx_HAL_Driver/Src/stm32f4xx_hal_rng.c ****       __HAL_UNLOCK(hrng);
 753:Drivers/STM32F4xx_HAL_Driver/Src/stm32f4xx_hal_rng.c **** 
 754:Drivers/STM32F4xx_HAL_Driver/Src/stm32f4xx_hal_rng.c **** #if (USE_HAL_RNG_REGISTER_CALLBACKS == 1)
 755:Drivers/STM32F4xx_HAL_Driver/Src/stm32f4xx_hal_rng.c ****       /* Call registered Data Ready callback */
 756:Drivers/STM32F4xx_HAL_Driver/Src/stm32f4xx_hal_rng.c ****       hrng->ReadyDataCallback(hrng, hrng->RandomNumber);
 757:Drivers/STM32F4xx_HAL_Driver/Src/stm32f4xx_hal_rng.c **** #else
 758:Drivers/STM32F4xx_HAL_Driver/Src/stm32f4xx_hal_rng.c ****       /* Call legacy weak Data Ready callback */
 759:Drivers/STM32F4xx_HAL_Driver/Src/stm32f4xx_hal_rng.c ****       HAL_RNG_ReadyDataCallback(hrng, hrng->RandomNumber);
 760:Drivers/STM32F4xx_HAL_Driver/Src/stm32f4xx_hal_rng.c **** #endif /* USE_HAL_RNG_REGISTER_CALLBACKS */
 761:Drivers/STM32F4xx_HAL_Driver/Src/stm32f4xx_hal_rng.c ****     }
 762:Drivers/STM32F4xx_HAL_Driver/Src/stm32f4xx_hal_rng.c ****   }
 763:Drivers/STM32F4xx_HAL_Driver/Src/stm32f4xx_hal_rng.c **** }
 764:Drivers/STM32F4xx_HAL_Driver/Src/stm32f4xx_hal_rng.c **** 
 765:Drivers/STM32F4xx_HAL_Driver/Src/stm32f4xx_hal_rng.c **** /**
 766:Drivers/STM32F4xx_HAL_Driver/Src/stm32f4xx_hal_rng.c ****   * @brief  Read latest generated random number.
 767:Drivers/STM32F4xx_HAL_Driver/Src/stm32f4xx_hal_rng.c ****   * @param  hrng pointer to a RNG_HandleTypeDef structure that contains
 768:Drivers/STM32F4xx_HAL_Driver/Src/stm32f4xx_hal_rng.c ****   *                the configuration information for RNG.
 769:Drivers/STM32F4xx_HAL_Driver/Src/stm32f4xx_hal_rng.c ****   * @retval random value
 770:Drivers/STM32F4xx_HAL_Driver/Src/stm32f4xx_hal_rng.c ****   */
 771:Drivers/STM32F4xx_HAL_Driver/Src/stm32f4xx_hal_rng.c **** uint32_t HAL_RNG_ReadLastRandomNumber(RNG_HandleTypeDef *hrng)
 772:Drivers/STM32F4xx_HAL_Driver/Src/stm32f4xx_hal_rng.c **** {
 695              		.loc 1 772 1 is_stmt 1 view -0
 696              		.cfi_startproc
 697              		@ args = 0, pretend = 0, frame = 0
 698              		@ frame_needed = 0, uses_anonymous_args = 0
 699              		@ link register save eliminated.
 773:Drivers/STM32F4xx_HAL_Driver/Src/stm32f4xx_hal_rng.c ****   return (hrng->RandomNumber);
 700              		.loc 1 773 3 view .LVU251
 774:Drivers/STM32F4xx_HAL_Driver/Src/stm32f4xx_hal_rng.c **** }
 701              		.loc 1 774 1 is_stmt 0 view .LVU252
 702 0000 C068     		ldr	r0, [r0, #12]
 703              	.LVL46:
 704              		.loc 1 774 1 view .LVU253
 705 0002 7047     		bx	lr
 706              		.cfi_endproc
 707              	.LFE244:
ARM GAS  /var/folders/0z/tsy30v1j4xl4_7kw94k978ww0000gn/T//ccgroddb.s 			page 30


 709              		.section	.text.HAL_RNG_ReadyDataCallback,"ax",%progbits
 710              		.align	1
 711              		.p2align 2,,3
 712              		.weak	HAL_RNG_ReadyDataCallback
 713              		.syntax unified
 714              		.thumb
 715              		.thumb_func
 717              	HAL_RNG_ReadyDataCallback:
 718              	.LVL47:
 719              	.LFB245:
 775:Drivers/STM32F4xx_HAL_Driver/Src/stm32f4xx_hal_rng.c **** 
 776:Drivers/STM32F4xx_HAL_Driver/Src/stm32f4xx_hal_rng.c **** /**
 777:Drivers/STM32F4xx_HAL_Driver/Src/stm32f4xx_hal_rng.c ****   * @brief  Data Ready callback in non-blocking mode.
 778:Drivers/STM32F4xx_HAL_Driver/Src/stm32f4xx_hal_rng.c ****   * @param  hrng pointer to a RNG_HandleTypeDef structure that contains
 779:Drivers/STM32F4xx_HAL_Driver/Src/stm32f4xx_hal_rng.c ****   *                the configuration information for RNG.
 780:Drivers/STM32F4xx_HAL_Driver/Src/stm32f4xx_hal_rng.c ****   * @param  random32bit generated random number.
 781:Drivers/STM32F4xx_HAL_Driver/Src/stm32f4xx_hal_rng.c ****   * @retval None
 782:Drivers/STM32F4xx_HAL_Driver/Src/stm32f4xx_hal_rng.c ****   */
 783:Drivers/STM32F4xx_HAL_Driver/Src/stm32f4xx_hal_rng.c **** __weak void HAL_RNG_ReadyDataCallback(RNG_HandleTypeDef *hrng, uint32_t random32bit)
 784:Drivers/STM32F4xx_HAL_Driver/Src/stm32f4xx_hal_rng.c **** {
 720              		.loc 1 784 1 is_stmt 1 view -0
 721              		.cfi_startproc
 722              		@ args = 0, pretend = 0, frame = 0
 723              		@ frame_needed = 0, uses_anonymous_args = 0
 724              		@ link register save eliminated.
 785:Drivers/STM32F4xx_HAL_Driver/Src/stm32f4xx_hal_rng.c ****   /* Prevent unused argument(s) compilation warning */
 786:Drivers/STM32F4xx_HAL_Driver/Src/stm32f4xx_hal_rng.c ****   UNUSED(hrng);
 725              		.loc 1 786 3 view .LVU255
 787:Drivers/STM32F4xx_HAL_Driver/Src/stm32f4xx_hal_rng.c ****   UNUSED(random32bit);
 726              		.loc 1 787 3 view .LVU256
 788:Drivers/STM32F4xx_HAL_Driver/Src/stm32f4xx_hal_rng.c ****   /* NOTE : This function should not be modified. When the callback is needed,
 789:Drivers/STM32F4xx_HAL_Driver/Src/stm32f4xx_hal_rng.c ****             function HAL_RNG_ReadyDataCallback must be implemented in the user file.
 790:Drivers/STM32F4xx_HAL_Driver/Src/stm32f4xx_hal_rng.c ****    */
 791:Drivers/STM32F4xx_HAL_Driver/Src/stm32f4xx_hal_rng.c **** }
 727              		.loc 1 791 1 is_stmt 0 view .LVU257
 728 0000 7047     		bx	lr
 729              		.cfi_endproc
 730              	.LFE245:
 732 0002 00BF     		.section	.text.HAL_RNG_ErrorCallback,"ax",%progbits
 733              		.align	1
 734              		.p2align 2,,3
 735              		.weak	HAL_RNG_ErrorCallback
 736              		.syntax unified
 737              		.thumb
 738              		.thumb_func
 740              	HAL_RNG_ErrorCallback:
 741              	.LFB252:
 742              		.cfi_startproc
 743              		@ args = 0, pretend = 0, frame = 0
 744              		@ frame_needed = 0, uses_anonymous_args = 0
 745              		@ link register save eliminated.
 746 0000 7047     		bx	lr
 747              		.cfi_endproc
 748              	.LFE252:
 750 0002 00BF     		.section	.text.HAL_RNG_IRQHandler,"ax",%progbits
 751              		.align	1
 752              		.p2align 2,,3
ARM GAS  /var/folders/0z/tsy30v1j4xl4_7kw94k978ww0000gn/T//ccgroddb.s 			page 31


 753              		.global	HAL_RNG_IRQHandler
 754              		.syntax unified
 755              		.thumb
 756              		.thumb_func
 758              	HAL_RNG_IRQHandler:
 759              	.LVL48:
 760              	.LFB243:
 698:Drivers/STM32F4xx_HAL_Driver/Src/stm32f4xx_hal_rng.c ****   uint32_t rngclockerror = 0U;
 761              		.loc 1 698 1 is_stmt 1 view -0
 762              		.cfi_startproc
 763              		@ args = 0, pretend = 0, frame = 0
 764              		@ frame_needed = 0, uses_anonymous_args = 0
 699:Drivers/STM32F4xx_HAL_Driver/Src/stm32f4xx_hal_rng.c **** 
 765              		.loc 1 699 3 view .LVU259
 702:Drivers/STM32F4xx_HAL_Driver/Src/stm32f4xx_hal_rng.c ****   {
 766              		.loc 1 702 3 view .LVU260
 702:Drivers/STM32F4xx_HAL_Driver/Src/stm32f4xx_hal_rng.c ****   {
 767              		.loc 1 702 7 is_stmt 0 view .LVU261
 768 0000 0368     		ldr	r3, [r0]
 769 0002 5A68     		ldr	r2, [r3, #4]
 702:Drivers/STM32F4xx_HAL_Driver/Src/stm32f4xx_hal_rng.c ****   {
 770              		.loc 1 702 6 view .LVU262
 771 0004 9206     		lsls	r2, r2, #26
 698:Drivers/STM32F4xx_HAL_Driver/Src/stm32f4xx_hal_rng.c ****   uint32_t rngclockerror = 0U;
 772              		.loc 1 698 1 view .LVU263
 773 0006 10B5     		push	{r4, lr}
 774              		.cfi_def_cfa_offset 8
 775              		.cfi_offset 4, -8
 776              		.cfi_offset 14, -4
 698:Drivers/STM32F4xx_HAL_Driver/Src/stm32f4xx_hal_rng.c ****   uint32_t rngclockerror = 0U;
 777              		.loc 1 698 1 view .LVU264
 778 0008 0446     		mov	r4, r0
 702:Drivers/STM32F4xx_HAL_Driver/Src/stm32f4xx_hal_rng.c ****   {
 779              		.loc 1 702 6 view .LVU265
 780 000a 1CD4     		bmi	.L69
 708:Drivers/STM32F4xx_HAL_Driver/Src/stm32f4xx_hal_rng.c ****   {
 781              		.loc 1 708 8 is_stmt 1 view .LVU266
 708:Drivers/STM32F4xx_HAL_Driver/Src/stm32f4xx_hal_rng.c ****   {
 782              		.loc 1 708 12 is_stmt 0 view .LVU267
 783 000c 5A68     		ldr	r2, [r3, #4]
 708:Drivers/STM32F4xx_HAL_Driver/Src/stm32f4xx_hal_rng.c ****   {
 784              		.loc 1 708 11 view .LVU268
 785 000e 12F04002 		ands	r2, r2, #64
 786 0012 0CD1     		bne	.L70
 717:Drivers/STM32F4xx_HAL_Driver/Src/stm32f4xx_hal_rng.c **** 
 787              		.loc 1 717 3 is_stmt 1 view .LVU269
 719:Drivers/STM32F4xx_HAL_Driver/Src/stm32f4xx_hal_rng.c ****   {
 788              		.loc 1 719 3 view .LVU270
 739:Drivers/STM32F4xx_HAL_Driver/Src/stm32f4xx_hal_rng.c ****   {
 789              		.loc 1 739 3 view .LVU271
 739:Drivers/STM32F4xx_HAL_Driver/Src/stm32f4xx_hal_rng.c ****   {
 790              		.loc 1 739 7 is_stmt 0 view .LVU272
 791 0014 5968     		ldr	r1, [r3, #4]
 739:Drivers/STM32F4xx_HAL_Driver/Src/stm32f4xx_hal_rng.c ****   {
 792              		.loc 1 739 6 view .LVU273
 793 0016 C907     		lsls	r1, r1, #31
 794 0018 08D5     		bpl	.L58
ARM GAS  /var/folders/0z/tsy30v1j4xl4_7kw94k978ww0000gn/T//ccgroddb.s 			page 32


 742:Drivers/STM32F4xx_HAL_Driver/Src/stm32f4xx_hal_rng.c **** 
 795              		.loc 1 742 5 is_stmt 1 view .LVU274
 796 001a 1968     		ldr	r1, [r3]
 797 001c 21F00801 		bic	r1, r1, #8
 798 0020 1960     		str	r1, [r3]
 745:Drivers/STM32F4xx_HAL_Driver/Src/stm32f4xx_hal_rng.c **** 
 799              		.loc 1 745 5 view .LVU275
 745:Drivers/STM32F4xx_HAL_Driver/Src/stm32f4xx_hal_rng.c **** 
 800              		.loc 1 745 40 is_stmt 0 view .LVU276
 801 0022 9968     		ldr	r1, [r3, #8]
 747:Drivers/STM32F4xx_HAL_Driver/Src/stm32f4xx_hal_rng.c ****     {
 802              		.loc 1 747 13 view .LVU277
 803 0024 4379     		ldrb	r3, [r0, #5]	@ zero_extendqisi2
 745:Drivers/STM32F4xx_HAL_Driver/Src/stm32f4xx_hal_rng.c **** 
 804              		.loc 1 745 24 view .LVU278
 805 0026 C160     		str	r1, [r0, #12]
 747:Drivers/STM32F4xx_HAL_Driver/Src/stm32f4xx_hal_rng.c ****     {
 806              		.loc 1 747 5 is_stmt 1 view .LVU279
 747:Drivers/STM32F4xx_HAL_Driver/Src/stm32f4xx_hal_rng.c ****     {
 807              		.loc 1 747 8 is_stmt 0 view .LVU280
 808 0028 042B     		cmp	r3, #4
 809 002a 0FD1     		bne	.L71
 810              	.L58:
 763:Drivers/STM32F4xx_HAL_Driver/Src/stm32f4xx_hal_rng.c **** 
 811              		.loc 1 763 1 view .LVU281
 812 002c 10BD     		pop	{r4, pc}
 813              	.L70:
 711:Drivers/STM32F4xx_HAL_Driver/Src/stm32f4xx_hal_rng.c ****     rngclockerror = 1U;
 814              		.loc 1 711 5 is_stmt 1 view .LVU282
 711:Drivers/STM32F4xx_HAL_Driver/Src/stm32f4xx_hal_rng.c ****     rngclockerror = 1U;
 815              		.loc 1 711 21 is_stmt 0 view .LVU283
 816 002e 0823     		movs	r3, #8
 817 0030 8360     		str	r3, [r0, #8]
 712:Drivers/STM32F4xx_HAL_Driver/Src/stm32f4xx_hal_rng.c ****   }
 818              		.loc 1 712 5 is_stmt 1 view .LVU284
 819              	.LVL49:
 717:Drivers/STM32F4xx_HAL_Driver/Src/stm32f4xx_hal_rng.c **** 
 820              		.loc 1 717 3 view .LVU285
 719:Drivers/STM32F4xx_HAL_Driver/Src/stm32f4xx_hal_rng.c ****   {
 821              		.loc 1 719 3 view .LVU286
 822              	.L60:
 722:Drivers/STM32F4xx_HAL_Driver/Src/stm32f4xx_hal_rng.c **** 
 823              		.loc 1 722 5 view .LVU287
 722:Drivers/STM32F4xx_HAL_Driver/Src/stm32f4xx_hal_rng.c **** 
 824              		.loc 1 722 17 is_stmt 0 view .LVU288
 825 0032 0423     		movs	r3, #4
 826 0034 6371     		strb	r3, [r4, #5]
 729:Drivers/STM32F4xx_HAL_Driver/Src/stm32f4xx_hal_rng.c **** #endif /* USE_HAL_RNG_REGISTER_CALLBACKS */
 827              		.loc 1 729 5 is_stmt 1 view .LVU289
 828 0036 2046     		mov	r0, r4
 829              	.LVL50:
 729:Drivers/STM32F4xx_HAL_Driver/Src/stm32f4xx_hal_rng.c **** #endif /* USE_HAL_RNG_REGISTER_CALLBACKS */
 830              		.loc 1 729 5 is_stmt 0 view .LVU290
 831 0038 FFF7FEFF 		bl	HAL_RNG_ErrorCallback
 832              	.LVL51:
 733:Drivers/STM32F4xx_HAL_Driver/Src/stm32f4xx_hal_rng.c **** 
 833              		.loc 1 733 5 is_stmt 1 view .LVU291
ARM GAS  /var/folders/0z/tsy30v1j4xl4_7kw94k978ww0000gn/T//ccgroddb.s 			page 33


 834 003c 2368     		ldr	r3, [r4]
 835 003e 6FF06002 		mvn	r2, #96
 836 0042 5A60     		str	r2, [r3, #4]
 735:Drivers/STM32F4xx_HAL_Driver/Src/stm32f4xx_hal_rng.c ****   }
 837              		.loc 1 735 5 view .LVU292
 763:Drivers/STM32F4xx_HAL_Driver/Src/stm32f4xx_hal_rng.c **** 
 838              		.loc 1 763 1 is_stmt 0 view .LVU293
 839 0044 10BD     		pop	{r4, pc}
 840              	.LVL52:
 841              	.L69:
 705:Drivers/STM32F4xx_HAL_Driver/Src/stm32f4xx_hal_rng.c ****     rngclockerror = 1U;
 842              		.loc 1 705 5 is_stmt 1 view .LVU294
 705:Drivers/STM32F4xx_HAL_Driver/Src/stm32f4xx_hal_rng.c ****     rngclockerror = 1U;
 843              		.loc 1 705 21 is_stmt 0 view .LVU295
 844 0046 1023     		movs	r3, #16
 845 0048 8360     		str	r3, [r0, #8]
 706:Drivers/STM32F4xx_HAL_Driver/Src/stm32f4xx_hal_rng.c ****   }
 846              		.loc 1 706 5 is_stmt 1 view .LVU296
 847              	.LVL53:
 717:Drivers/STM32F4xx_HAL_Driver/Src/stm32f4xx_hal_rng.c **** 
 848              		.loc 1 717 3 view .LVU297
 719:Drivers/STM32F4xx_HAL_Driver/Src/stm32f4xx_hal_rng.c ****   {
 849              		.loc 1 719 3 view .LVU298
 850 004a F2E7     		b	.L60
 851              	.LVL54:
 852              	.L71:
 750:Drivers/STM32F4xx_HAL_Driver/Src/stm32f4xx_hal_rng.c ****       /* Process Unlocked */
 853              		.loc 1 750 7 view .LVU299
 750:Drivers/STM32F4xx_HAL_Driver/Src/stm32f4xx_hal_rng.c ****       /* Process Unlocked */
 854              		.loc 1 750 19 is_stmt 0 view .LVU300
 855 004c 0123     		movs	r3, #1
 856 004e 4371     		strb	r3, [r0, #5]
 752:Drivers/STM32F4xx_HAL_Driver/Src/stm32f4xx_hal_rng.c **** 
 857              		.loc 1 752 7 is_stmt 1 view .LVU301
 752:Drivers/STM32F4xx_HAL_Driver/Src/stm32f4xx_hal_rng.c **** 
 858              		.loc 1 752 7 view .LVU302
 859 0050 0271     		strb	r2, [r0, #4]
 752:Drivers/STM32F4xx_HAL_Driver/Src/stm32f4xx_hal_rng.c **** 
 860              		.loc 1 752 7 view .LVU303
 759:Drivers/STM32F4xx_HAL_Driver/Src/stm32f4xx_hal_rng.c **** #endif /* USE_HAL_RNG_REGISTER_CALLBACKS */
 861              		.loc 1 759 7 view .LVU304
 862 0052 FFF7FEFF 		bl	HAL_RNG_ReadyDataCallback
 863              	.LVL55:
 763:Drivers/STM32F4xx_HAL_Driver/Src/stm32f4xx_hal_rng.c **** 
 864              		.loc 1 763 1 is_stmt 0 view .LVU305
 865 0056 10BD     		pop	{r4, pc}
 763:Drivers/STM32F4xx_HAL_Driver/Src/stm32f4xx_hal_rng.c **** 
 866              		.loc 1 763 1 view .LVU306
 867              		.cfi_endproc
 868              	.LFE243:
 870              		.section	.text.HAL_RNG_GetState,"ax",%progbits
 871              		.align	1
 872              		.p2align 2,,3
 873              		.global	HAL_RNG_GetState
 874              		.syntax unified
 875              		.thumb
 876              		.thumb_func
ARM GAS  /var/folders/0z/tsy30v1j4xl4_7kw94k978ww0000gn/T//ccgroddb.s 			page 34


 878              	HAL_RNG_GetState:
 879              	.LVL56:
 880              	.LFB247:
 792:Drivers/STM32F4xx_HAL_Driver/Src/stm32f4xx_hal_rng.c **** 
 793:Drivers/STM32F4xx_HAL_Driver/Src/stm32f4xx_hal_rng.c **** /**
 794:Drivers/STM32F4xx_HAL_Driver/Src/stm32f4xx_hal_rng.c ****   * @brief  RNG error callbacks.
 795:Drivers/STM32F4xx_HAL_Driver/Src/stm32f4xx_hal_rng.c ****   * @param  hrng pointer to a RNG_HandleTypeDef structure that contains
 796:Drivers/STM32F4xx_HAL_Driver/Src/stm32f4xx_hal_rng.c ****   *                the configuration information for RNG.
 797:Drivers/STM32F4xx_HAL_Driver/Src/stm32f4xx_hal_rng.c ****   * @retval None
 798:Drivers/STM32F4xx_HAL_Driver/Src/stm32f4xx_hal_rng.c ****   */
 799:Drivers/STM32F4xx_HAL_Driver/Src/stm32f4xx_hal_rng.c **** __weak void HAL_RNG_ErrorCallback(RNG_HandleTypeDef *hrng)
 800:Drivers/STM32F4xx_HAL_Driver/Src/stm32f4xx_hal_rng.c **** {
 801:Drivers/STM32F4xx_HAL_Driver/Src/stm32f4xx_hal_rng.c ****   /* Prevent unused argument(s) compilation warning */
 802:Drivers/STM32F4xx_HAL_Driver/Src/stm32f4xx_hal_rng.c ****   UNUSED(hrng);
 803:Drivers/STM32F4xx_HAL_Driver/Src/stm32f4xx_hal_rng.c ****   /* NOTE : This function should not be modified. When the callback is needed,
 804:Drivers/STM32F4xx_HAL_Driver/Src/stm32f4xx_hal_rng.c ****             function HAL_RNG_ErrorCallback must be implemented in the user file.
 805:Drivers/STM32F4xx_HAL_Driver/Src/stm32f4xx_hal_rng.c ****    */
 806:Drivers/STM32F4xx_HAL_Driver/Src/stm32f4xx_hal_rng.c **** }
 807:Drivers/STM32F4xx_HAL_Driver/Src/stm32f4xx_hal_rng.c **** /**
 808:Drivers/STM32F4xx_HAL_Driver/Src/stm32f4xx_hal_rng.c ****   * @}
 809:Drivers/STM32F4xx_HAL_Driver/Src/stm32f4xx_hal_rng.c ****   */
 810:Drivers/STM32F4xx_HAL_Driver/Src/stm32f4xx_hal_rng.c **** 
 811:Drivers/STM32F4xx_HAL_Driver/Src/stm32f4xx_hal_rng.c **** 
 812:Drivers/STM32F4xx_HAL_Driver/Src/stm32f4xx_hal_rng.c **** /** @addtogroup RNG_Exported_Functions_Group3
 813:Drivers/STM32F4xx_HAL_Driver/Src/stm32f4xx_hal_rng.c ****   *  @brief   Peripheral State functions
 814:Drivers/STM32F4xx_HAL_Driver/Src/stm32f4xx_hal_rng.c ****   *
 815:Drivers/STM32F4xx_HAL_Driver/Src/stm32f4xx_hal_rng.c **** @verbatim
 816:Drivers/STM32F4xx_HAL_Driver/Src/stm32f4xx_hal_rng.c ****  ===============================================================================
 817:Drivers/STM32F4xx_HAL_Driver/Src/stm32f4xx_hal_rng.c ****                       ##### Peripheral State functions #####
 818:Drivers/STM32F4xx_HAL_Driver/Src/stm32f4xx_hal_rng.c ****  ===============================================================================
 819:Drivers/STM32F4xx_HAL_Driver/Src/stm32f4xx_hal_rng.c ****     [..]
 820:Drivers/STM32F4xx_HAL_Driver/Src/stm32f4xx_hal_rng.c ****     This subsection permits to get in run-time the status of the peripheral
 821:Drivers/STM32F4xx_HAL_Driver/Src/stm32f4xx_hal_rng.c ****     and the data flow.
 822:Drivers/STM32F4xx_HAL_Driver/Src/stm32f4xx_hal_rng.c **** 
 823:Drivers/STM32F4xx_HAL_Driver/Src/stm32f4xx_hal_rng.c **** @endverbatim
 824:Drivers/STM32F4xx_HAL_Driver/Src/stm32f4xx_hal_rng.c ****   * @{
 825:Drivers/STM32F4xx_HAL_Driver/Src/stm32f4xx_hal_rng.c ****   */
 826:Drivers/STM32F4xx_HAL_Driver/Src/stm32f4xx_hal_rng.c **** 
 827:Drivers/STM32F4xx_HAL_Driver/Src/stm32f4xx_hal_rng.c **** /**
 828:Drivers/STM32F4xx_HAL_Driver/Src/stm32f4xx_hal_rng.c ****   * @brief  Returns the RNG state.
 829:Drivers/STM32F4xx_HAL_Driver/Src/stm32f4xx_hal_rng.c ****   * @param  hrng pointer to a RNG_HandleTypeDef structure that contains
 830:Drivers/STM32F4xx_HAL_Driver/Src/stm32f4xx_hal_rng.c ****   *                the configuration information for RNG.
 831:Drivers/STM32F4xx_HAL_Driver/Src/stm32f4xx_hal_rng.c ****   * @retval HAL state
 832:Drivers/STM32F4xx_HAL_Driver/Src/stm32f4xx_hal_rng.c ****   */
 833:Drivers/STM32F4xx_HAL_Driver/Src/stm32f4xx_hal_rng.c **** HAL_RNG_StateTypeDef HAL_RNG_GetState(RNG_HandleTypeDef *hrng)
 834:Drivers/STM32F4xx_HAL_Driver/Src/stm32f4xx_hal_rng.c **** {
 881              		.loc 1 834 1 is_stmt 1 view -0
 882              		.cfi_startproc
 883              		@ args = 0, pretend = 0, frame = 0
 884              		@ frame_needed = 0, uses_anonymous_args = 0
 885              		@ link register save eliminated.
 835:Drivers/STM32F4xx_HAL_Driver/Src/stm32f4xx_hal_rng.c ****   return hrng->State;
 886              		.loc 1 835 3 view .LVU308
 887              		.loc 1 835 14 is_stmt 0 view .LVU309
 888 0000 4079     		ldrb	r0, [r0, #5]	@ zero_extendqisi2
 889              	.LVL57:
 836:Drivers/STM32F4xx_HAL_Driver/Src/stm32f4xx_hal_rng.c **** }
ARM GAS  /var/folders/0z/tsy30v1j4xl4_7kw94k978ww0000gn/T//ccgroddb.s 			page 35


 890              		.loc 1 836 1 view .LVU310
 891 0002 7047     		bx	lr
 892              		.cfi_endproc
 893              	.LFE247:
 895              		.section	.text.HAL_RNG_GetError,"ax",%progbits
 896              		.align	1
 897              		.p2align 2,,3
 898              		.global	HAL_RNG_GetError
 899              		.syntax unified
 900              		.thumb
 901              		.thumb_func
 903              	HAL_RNG_GetError:
 904              	.LVL58:
 905              	.LFB248:
 837:Drivers/STM32F4xx_HAL_Driver/Src/stm32f4xx_hal_rng.c **** 
 838:Drivers/STM32F4xx_HAL_Driver/Src/stm32f4xx_hal_rng.c **** /**
 839:Drivers/STM32F4xx_HAL_Driver/Src/stm32f4xx_hal_rng.c ****   * @brief  Return the RNG handle error code.
 840:Drivers/STM32F4xx_HAL_Driver/Src/stm32f4xx_hal_rng.c ****   * @param  hrng: pointer to a RNG_HandleTypeDef structure.
 841:Drivers/STM32F4xx_HAL_Driver/Src/stm32f4xx_hal_rng.c ****   * @retval RNG Error Code
 842:Drivers/STM32F4xx_HAL_Driver/Src/stm32f4xx_hal_rng.c ****   */
 843:Drivers/STM32F4xx_HAL_Driver/Src/stm32f4xx_hal_rng.c **** uint32_t HAL_RNG_GetError(RNG_HandleTypeDef *hrng)
 844:Drivers/STM32F4xx_HAL_Driver/Src/stm32f4xx_hal_rng.c **** {
 906              		.loc 1 844 1 is_stmt 1 view -0
 907              		.cfi_startproc
 908              		@ args = 0, pretend = 0, frame = 0
 909              		@ frame_needed = 0, uses_anonymous_args = 0
 910              		@ link register save eliminated.
 845:Drivers/STM32F4xx_HAL_Driver/Src/stm32f4xx_hal_rng.c ****   /* Return RNG Error Code */
 846:Drivers/STM32F4xx_HAL_Driver/Src/stm32f4xx_hal_rng.c ****   return hrng->ErrorCode;
 911              		.loc 1 846 3 view .LVU312
 912              		.loc 1 846 14 is_stmt 0 view .LVU313
 913 0000 8068     		ldr	r0, [r0, #8]
 914              	.LVL59:
 847:Drivers/STM32F4xx_HAL_Driver/Src/stm32f4xx_hal_rng.c **** }
 915              		.loc 1 847 1 view .LVU314
 916 0002 7047     		bx	lr
 917              		.cfi_endproc
 918              	.LFE248:
 920              		.text
 921              	.Letext0:
 922              		.file 2 "/Users/johannes/Library/Application Support/Code/User/globalStorage/bmd.stm32-for-vscode/
 923              		.file 3 "/Users/johannes/Library/Application Support/Code/User/globalStorage/bmd.stm32-for-vscode/
 924              		.file 4 "Drivers/CMSIS/Device/ST/STM32F4xx/Include/stm32f407xx.h"
 925              		.file 5 "Drivers/CMSIS/Device/ST/STM32F4xx/Include/stm32f4xx.h"
 926              		.file 6 "Drivers/STM32F4xx_HAL_Driver/Inc/stm32f4xx_hal_def.h"
 927              		.file 7 "Drivers/STM32F4xx_HAL_Driver/Inc/stm32f4xx_hal_rng.h"
 928              		.file 8 "Drivers/STM32F4xx_HAL_Driver/Inc/stm32f4xx_hal.h"
ARM GAS  /var/folders/0z/tsy30v1j4xl4_7kw94k978ww0000gn/T//ccgroddb.s 			page 36

