ARM GAS  /var/folders/0z/tsy30v1j4xl4_7kw94k978ww0000gn/T//ccVY8DeE.s 			page 1


   1              		.cpu cortex-m4
   2              		.arch armv7e-m
   3              		.fpu fpv4-sp-d16
   4              		.eabi_attribute 27, 1
   5              		.eabi_attribute 28, 1
   6              		.eabi_attribute 20, 1
   7              		.eabi_attribute 21, 1
   8              		.eabi_attribute 23, 3
   9              		.eabi_attribute 24, 1
  10              		.eabi_attribute 25, 1
  11              		.eabi_attribute 26, 1
  12              		.eabi_attribute 30, 2
  13              		.eabi_attribute 34, 1
  14              		.eabi_attribute 18, 4
  15              		.file	"stm32f4xx_hal_msp_template.c"
  16              		.text
  17              	.Ltext0:
  18              		.cfi_sections	.debug_frame
  19              		.section	.text.HAL_MspInit,"ax",%progbits
  20              		.align	1
  21              		.p2align 2,,3
  22              		.global	HAL_MspInit
  23              		.syntax unified
  24              		.thumb
  25              		.thumb_func
  27              	HAL_MspInit:
  28              	.LFB235:
  29              		.file 1 "Drivers/STM32F4xx_HAL_Driver/Src/stm32f4xx_hal_msp_template.c"
   1:Drivers/STM32F4xx_HAL_Driver/Src/stm32f4xx_hal_msp_template.c **** /**
   2:Drivers/STM32F4xx_HAL_Driver/Src/stm32f4xx_hal_msp_template.c ****   ******************************************************************************
   3:Drivers/STM32F4xx_HAL_Driver/Src/stm32f4xx_hal_msp_template.c ****   * @file    stm32f4xx_hal_msp_template.c
   4:Drivers/STM32F4xx_HAL_Driver/Src/stm32f4xx_hal_msp_template.c ****   * @author  MCD Application Team
   5:Drivers/STM32F4xx_HAL_Driver/Src/stm32f4xx_hal_msp_template.c ****   * @brief   This file contains the HAL System and Peripheral (PPP) MSP initialization
   6:Drivers/STM32F4xx_HAL_Driver/Src/stm32f4xx_hal_msp_template.c ****   *          and de-initialization functions.
   7:Drivers/STM32F4xx_HAL_Driver/Src/stm32f4xx_hal_msp_template.c ****   *          It should be copied to the application folder and renamed into 'stm32f4xx_hal_msp.c'. 
   8:Drivers/STM32F4xx_HAL_Driver/Src/stm32f4xx_hal_msp_template.c ****   ******************************************************************************
   9:Drivers/STM32F4xx_HAL_Driver/Src/stm32f4xx_hal_msp_template.c ****   * @attention
  10:Drivers/STM32F4xx_HAL_Driver/Src/stm32f4xx_hal_msp_template.c ****   *
  11:Drivers/STM32F4xx_HAL_Driver/Src/stm32f4xx_hal_msp_template.c ****   * Copyright (c) 2017 STMicroelectronics.
  12:Drivers/STM32F4xx_HAL_Driver/Src/stm32f4xx_hal_msp_template.c ****   * All rights reserved.
  13:Drivers/STM32F4xx_HAL_Driver/Src/stm32f4xx_hal_msp_template.c ****   *
  14:Drivers/STM32F4xx_HAL_Driver/Src/stm32f4xx_hal_msp_template.c ****   * This software is licensed under terms that can be found in the LICENSE file
  15:Drivers/STM32F4xx_HAL_Driver/Src/stm32f4xx_hal_msp_template.c ****   * in the root directory of this software component.
  16:Drivers/STM32F4xx_HAL_Driver/Src/stm32f4xx_hal_msp_template.c ****   * If no LICENSE file comes with this software, it is provided AS-IS.
  17:Drivers/STM32F4xx_HAL_Driver/Src/stm32f4xx_hal_msp_template.c ****   *
  18:Drivers/STM32F4xx_HAL_Driver/Src/stm32f4xx_hal_msp_template.c ****   ******************************************************************************
  19:Drivers/STM32F4xx_HAL_Driver/Src/stm32f4xx_hal_msp_template.c ****   */ 
  20:Drivers/STM32F4xx_HAL_Driver/Src/stm32f4xx_hal_msp_template.c **** 
  21:Drivers/STM32F4xx_HAL_Driver/Src/stm32f4xx_hal_msp_template.c **** /* Includes ------------------------------------------------------------------*/
  22:Drivers/STM32F4xx_HAL_Driver/Src/stm32f4xx_hal_msp_template.c **** #include "stm32f4xx_hal.h"
  23:Drivers/STM32F4xx_HAL_Driver/Src/stm32f4xx_hal_msp_template.c **** 
  24:Drivers/STM32F4xx_HAL_Driver/Src/stm32f4xx_hal_msp_template.c **** /** @addtogroup STM32F4xx_HAL_Driver
  25:Drivers/STM32F4xx_HAL_Driver/Src/stm32f4xx_hal_msp_template.c ****   * @{
  26:Drivers/STM32F4xx_HAL_Driver/Src/stm32f4xx_hal_msp_template.c ****   */
  27:Drivers/STM32F4xx_HAL_Driver/Src/stm32f4xx_hal_msp_template.c **** 
  28:Drivers/STM32F4xx_HAL_Driver/Src/stm32f4xx_hal_msp_template.c **** /** @defgroup HAL_MSP HAL MSP
  29:Drivers/STM32F4xx_HAL_Driver/Src/stm32f4xx_hal_msp_template.c ****   * @brief HAL MSP module.
ARM GAS  /var/folders/0z/tsy30v1j4xl4_7kw94k978ww0000gn/T//ccVY8DeE.s 			page 2


  30:Drivers/STM32F4xx_HAL_Driver/Src/stm32f4xx_hal_msp_template.c ****   * @{
  31:Drivers/STM32F4xx_HAL_Driver/Src/stm32f4xx_hal_msp_template.c ****   */
  32:Drivers/STM32F4xx_HAL_Driver/Src/stm32f4xx_hal_msp_template.c **** 
  33:Drivers/STM32F4xx_HAL_Driver/Src/stm32f4xx_hal_msp_template.c **** /* Private typedef -----------------------------------------------------------*/
  34:Drivers/STM32F4xx_HAL_Driver/Src/stm32f4xx_hal_msp_template.c **** /* Private define ------------------------------------------------------------*/
  35:Drivers/STM32F4xx_HAL_Driver/Src/stm32f4xx_hal_msp_template.c **** /* Private macro -------------------------------------------------------------*/
  36:Drivers/STM32F4xx_HAL_Driver/Src/stm32f4xx_hal_msp_template.c **** /* Private variables ---------------------------------------------------------*/
  37:Drivers/STM32F4xx_HAL_Driver/Src/stm32f4xx_hal_msp_template.c **** /* Private function prototypes -----------------------------------------------*/
  38:Drivers/STM32F4xx_HAL_Driver/Src/stm32f4xx_hal_msp_template.c **** /* Private functions ---------------------------------------------------------*/
  39:Drivers/STM32F4xx_HAL_Driver/Src/stm32f4xx_hal_msp_template.c **** 
  40:Drivers/STM32F4xx_HAL_Driver/Src/stm32f4xx_hal_msp_template.c **** /** @defgroup HAL_MSP_Private_Functions HAL MSP Private Functions
  41:Drivers/STM32F4xx_HAL_Driver/Src/stm32f4xx_hal_msp_template.c ****   * @{
  42:Drivers/STM32F4xx_HAL_Driver/Src/stm32f4xx_hal_msp_template.c ****   */
  43:Drivers/STM32F4xx_HAL_Driver/Src/stm32f4xx_hal_msp_template.c **** 
  44:Drivers/STM32F4xx_HAL_Driver/Src/stm32f4xx_hal_msp_template.c **** /**
  45:Drivers/STM32F4xx_HAL_Driver/Src/stm32f4xx_hal_msp_template.c ****   * @brief  Initializes the Global MSP.
  46:Drivers/STM32F4xx_HAL_Driver/Src/stm32f4xx_hal_msp_template.c ****   * @note   This function is called from HAL_Init() function to perform system
  47:Drivers/STM32F4xx_HAL_Driver/Src/stm32f4xx_hal_msp_template.c ****   *         level initialization (GPIOs, clock, DMA, interrupt).
  48:Drivers/STM32F4xx_HAL_Driver/Src/stm32f4xx_hal_msp_template.c ****   * @retval None
  49:Drivers/STM32F4xx_HAL_Driver/Src/stm32f4xx_hal_msp_template.c ****   */
  50:Drivers/STM32F4xx_HAL_Driver/Src/stm32f4xx_hal_msp_template.c **** void HAL_MspInit(void)
  51:Drivers/STM32F4xx_HAL_Driver/Src/stm32f4xx_hal_msp_template.c **** {
  30              		.loc 1 51 1 view -0
  31              		.cfi_startproc
  32              		@ args = 0, pretend = 0, frame = 0
  33              		@ frame_needed = 0, uses_anonymous_args = 0
  34              		@ link register save eliminated.
  52:Drivers/STM32F4xx_HAL_Driver/Src/stm32f4xx_hal_msp_template.c **** 
  53:Drivers/STM32F4xx_HAL_Driver/Src/stm32f4xx_hal_msp_template.c **** }
  35              		.loc 1 53 1 view .LVU1
  36 0000 7047     		bx	lr
  37              		.cfi_endproc
  38              	.LFE235:
  40 0002 00BF     		.section	.text.HAL_MspDeInit,"ax",%progbits
  41              		.align	1
  42              		.p2align 2,,3
  43              		.global	HAL_MspDeInit
  44              		.syntax unified
  45              		.thumb
  46              		.thumb_func
  48              	HAL_MspDeInit:
  49              	.LFB240:
  50              		.cfi_startproc
  51              		@ args = 0, pretend = 0, frame = 0
  52              		@ frame_needed = 0, uses_anonymous_args = 0
  53              		@ link register save eliminated.
  54 0000 7047     		bx	lr
  55              		.cfi_endproc
  56              	.LFE240:
  58 0002 00BF     		.section	.text.HAL_PPP_MspInit,"ax",%progbits
  59              		.align	1
  60              		.p2align 2,,3
  61              		.global	HAL_PPP_MspInit
  62              		.syntax unified
  63              		.thumb
  64              		.thumb_func
  66              	HAL_PPP_MspInit:
ARM GAS  /var/folders/0z/tsy30v1j4xl4_7kw94k978ww0000gn/T//ccVY8DeE.s 			page 3


  67              	.LFB242:
  68              		.cfi_startproc
  69              		@ args = 0, pretend = 0, frame = 0
  70              		@ frame_needed = 0, uses_anonymous_args = 0
  71              		@ link register save eliminated.
  72 0000 7047     		bx	lr
  73              		.cfi_endproc
  74              	.LFE242:
  76 0002 00BF     		.section	.text.HAL_PPP_MspDeInit,"ax",%progbits
  77              		.align	1
  78              		.p2align 2,,3
  79              		.global	HAL_PPP_MspDeInit
  80              		.syntax unified
  81              		.thumb
  82              		.thumb_func
  84              	HAL_PPP_MspDeInit:
  85              	.LFB244:
  86              		.cfi_startproc
  87              		@ args = 0, pretend = 0, frame = 0
  88              		@ frame_needed = 0, uses_anonymous_args = 0
  89              		@ link register save eliminated.
  90 0000 7047     		bx	lr
  91              		.cfi_endproc
  92              	.LFE244:
  94 0002 00BF     		.text
  95              	.Letext0:
ARM GAS  /var/folders/0z/tsy30v1j4xl4_7kw94k978ww0000gn/T//ccVY8DeE.s 			page 4

