ARM GAS  /var/folders/0z/tsy30v1j4xl4_7kw94k978ww0000gn/T//cc1wg7if.s 			page 1


   1              		.cpu cortex-m4
   2              		.arch armv7e-m
   3              		.fpu fpv4-sp-d16
   4              		.eabi_attribute 27, 1
   5              		.eabi_attribute 28, 1
   6              		.eabi_attribute 23, 1
   7              		.eabi_attribute 24, 1
   8              		.eabi_attribute 25, 1
   9              		.eabi_attribute 26, 1
  10              		.eabi_attribute 30, 2
  11              		.eabi_attribute 34, 1
  12              		.eabi_attribute 18, 4
  13              		.file	"stm32f4xx_hal_hcd.c"
  14              		.text
  15              	.Ltext0:
  16              		.cfi_sections	.debug_frame
  17              		.section	.text.HAL_HCD_HC_Init,"ax",%progbits
  18              		.align	1
  19              		.p2align 2,,3
  20              		.global	HAL_HCD_HC_Init
  21              		.syntax unified
  22              		.thumb
  23              		.thumb_func
  25              	HAL_HCD_HC_Init:
  26              	.LVL0:
  27              	.LFB131:
  28              		.file 1 "Drivers/STM32F4xx_HAL_Driver/Src/stm32f4xx_hal_hcd.c"
   1:Drivers/STM32F4xx_HAL_Driver/Src/stm32f4xx_hal_hcd.c **** /**
   2:Drivers/STM32F4xx_HAL_Driver/Src/stm32f4xx_hal_hcd.c ****   ******************************************************************************
   3:Drivers/STM32F4xx_HAL_Driver/Src/stm32f4xx_hal_hcd.c ****   * @file    stm32f4xx_hal_hcd.c
   4:Drivers/STM32F4xx_HAL_Driver/Src/stm32f4xx_hal_hcd.c ****   * @author  MCD Application Team
   5:Drivers/STM32F4xx_HAL_Driver/Src/stm32f4xx_hal_hcd.c ****   * @brief   HCD HAL module driver.
   6:Drivers/STM32F4xx_HAL_Driver/Src/stm32f4xx_hal_hcd.c ****   *          This file provides firmware functions to manage the following
   7:Drivers/STM32F4xx_HAL_Driver/Src/stm32f4xx_hal_hcd.c ****   *          functionalities of the USB Peripheral Controller:
   8:Drivers/STM32F4xx_HAL_Driver/Src/stm32f4xx_hal_hcd.c ****   *           + Initialization and de-initialization functions
   9:Drivers/STM32F4xx_HAL_Driver/Src/stm32f4xx_hal_hcd.c ****   *           + IO operation functions
  10:Drivers/STM32F4xx_HAL_Driver/Src/stm32f4xx_hal_hcd.c ****   *           + Peripheral Control functions
  11:Drivers/STM32F4xx_HAL_Driver/Src/stm32f4xx_hal_hcd.c ****   *           + Peripheral State functions
  12:Drivers/STM32F4xx_HAL_Driver/Src/stm32f4xx_hal_hcd.c ****   *
  13:Drivers/STM32F4xx_HAL_Driver/Src/stm32f4xx_hal_hcd.c ****   ******************************************************************************
  14:Drivers/STM32F4xx_HAL_Driver/Src/stm32f4xx_hal_hcd.c ****   * @attention
  15:Drivers/STM32F4xx_HAL_Driver/Src/stm32f4xx_hal_hcd.c ****   *
  16:Drivers/STM32F4xx_HAL_Driver/Src/stm32f4xx_hal_hcd.c ****   * Copyright (c) 2016 STMicroelectronics.
  17:Drivers/STM32F4xx_HAL_Driver/Src/stm32f4xx_hal_hcd.c ****   * All rights reserved.
  18:Drivers/STM32F4xx_HAL_Driver/Src/stm32f4xx_hal_hcd.c ****   *
  19:Drivers/STM32F4xx_HAL_Driver/Src/stm32f4xx_hal_hcd.c ****   * This software is licensed under terms that can be found in the LICENSE file
  20:Drivers/STM32F4xx_HAL_Driver/Src/stm32f4xx_hal_hcd.c ****   * in the root directory of this software component.
  21:Drivers/STM32F4xx_HAL_Driver/Src/stm32f4xx_hal_hcd.c ****   * If no LICENSE file comes with this software, it is provided AS-IS.
  22:Drivers/STM32F4xx_HAL_Driver/Src/stm32f4xx_hal_hcd.c ****   *
  23:Drivers/STM32F4xx_HAL_Driver/Src/stm32f4xx_hal_hcd.c ****   ******************************************************************************
  24:Drivers/STM32F4xx_HAL_Driver/Src/stm32f4xx_hal_hcd.c ****   @verbatim
  25:Drivers/STM32F4xx_HAL_Driver/Src/stm32f4xx_hal_hcd.c ****   ==============================================================================
  26:Drivers/STM32F4xx_HAL_Driver/Src/stm32f4xx_hal_hcd.c ****                     ##### How to use this driver #####
  27:Drivers/STM32F4xx_HAL_Driver/Src/stm32f4xx_hal_hcd.c ****   ==============================================================================
  28:Drivers/STM32F4xx_HAL_Driver/Src/stm32f4xx_hal_hcd.c ****   [..]
  29:Drivers/STM32F4xx_HAL_Driver/Src/stm32f4xx_hal_hcd.c ****     (#)Declare a HCD_HandleTypeDef handle structure, for example:
  30:Drivers/STM32F4xx_HAL_Driver/Src/stm32f4xx_hal_hcd.c ****        HCD_HandleTypeDef  hhcd;
ARM GAS  /var/folders/0z/tsy30v1j4xl4_7kw94k978ww0000gn/T//cc1wg7if.s 			page 2


  31:Drivers/STM32F4xx_HAL_Driver/Src/stm32f4xx_hal_hcd.c **** 
  32:Drivers/STM32F4xx_HAL_Driver/Src/stm32f4xx_hal_hcd.c ****     (#)Fill parameters of Init structure in HCD handle
  33:Drivers/STM32F4xx_HAL_Driver/Src/stm32f4xx_hal_hcd.c **** 
  34:Drivers/STM32F4xx_HAL_Driver/Src/stm32f4xx_hal_hcd.c ****     (#)Call HAL_HCD_Init() API to initialize the HCD peripheral (Core, Host core, ...)
  35:Drivers/STM32F4xx_HAL_Driver/Src/stm32f4xx_hal_hcd.c **** 
  36:Drivers/STM32F4xx_HAL_Driver/Src/stm32f4xx_hal_hcd.c ****     (#)Initialize the HCD low level resources through the HAL_HCD_MspInit() API:
  37:Drivers/STM32F4xx_HAL_Driver/Src/stm32f4xx_hal_hcd.c ****         (##) Enable the HCD/USB Low Level interface clock using the following macros
  38:Drivers/STM32F4xx_HAL_Driver/Src/stm32f4xx_hal_hcd.c ****              (+++) __HAL_RCC_USB_OTG_FS_CLK_ENABLE();
  39:Drivers/STM32F4xx_HAL_Driver/Src/stm32f4xx_hal_hcd.c ****              (+++) __HAL_RCC_USB_OTG_HS_CLK_ENABLE(); (For High Speed Mode)
  40:Drivers/STM32F4xx_HAL_Driver/Src/stm32f4xx_hal_hcd.c ****              (+++) __HAL_RCC_USB_OTG_HS_ULPI_CLK_ENABLE(); (For High Speed Mode)
  41:Drivers/STM32F4xx_HAL_Driver/Src/stm32f4xx_hal_hcd.c **** 
  42:Drivers/STM32F4xx_HAL_Driver/Src/stm32f4xx_hal_hcd.c ****         (##) Initialize the related GPIO clocks
  43:Drivers/STM32F4xx_HAL_Driver/Src/stm32f4xx_hal_hcd.c ****         (##) Configure HCD pin-out
  44:Drivers/STM32F4xx_HAL_Driver/Src/stm32f4xx_hal_hcd.c ****         (##) Configure HCD NVIC interrupt
  45:Drivers/STM32F4xx_HAL_Driver/Src/stm32f4xx_hal_hcd.c **** 
  46:Drivers/STM32F4xx_HAL_Driver/Src/stm32f4xx_hal_hcd.c ****     (#)Associate the Upper USB Host stack to the HAL HCD Driver:
  47:Drivers/STM32F4xx_HAL_Driver/Src/stm32f4xx_hal_hcd.c ****         (##) hhcd.pData = phost;
  48:Drivers/STM32F4xx_HAL_Driver/Src/stm32f4xx_hal_hcd.c **** 
  49:Drivers/STM32F4xx_HAL_Driver/Src/stm32f4xx_hal_hcd.c ****     (#)Enable HCD transmission and reception:
  50:Drivers/STM32F4xx_HAL_Driver/Src/stm32f4xx_hal_hcd.c ****         (##) HAL_HCD_Start();
  51:Drivers/STM32F4xx_HAL_Driver/Src/stm32f4xx_hal_hcd.c **** 
  52:Drivers/STM32F4xx_HAL_Driver/Src/stm32f4xx_hal_hcd.c ****   @endverbatim
  53:Drivers/STM32F4xx_HAL_Driver/Src/stm32f4xx_hal_hcd.c ****   ******************************************************************************
  54:Drivers/STM32F4xx_HAL_Driver/Src/stm32f4xx_hal_hcd.c ****   */
  55:Drivers/STM32F4xx_HAL_Driver/Src/stm32f4xx_hal_hcd.c **** 
  56:Drivers/STM32F4xx_HAL_Driver/Src/stm32f4xx_hal_hcd.c **** /* Includes ------------------------------------------------------------------*/
  57:Drivers/STM32F4xx_HAL_Driver/Src/stm32f4xx_hal_hcd.c **** #include "stm32f4xx_hal.h"
  58:Drivers/STM32F4xx_HAL_Driver/Src/stm32f4xx_hal_hcd.c **** 
  59:Drivers/STM32F4xx_HAL_Driver/Src/stm32f4xx_hal_hcd.c **** /** @addtogroup STM32F4xx_HAL_Driver
  60:Drivers/STM32F4xx_HAL_Driver/Src/stm32f4xx_hal_hcd.c ****   * @{
  61:Drivers/STM32F4xx_HAL_Driver/Src/stm32f4xx_hal_hcd.c ****   */
  62:Drivers/STM32F4xx_HAL_Driver/Src/stm32f4xx_hal_hcd.c **** 
  63:Drivers/STM32F4xx_HAL_Driver/Src/stm32f4xx_hal_hcd.c **** #ifdef HAL_HCD_MODULE_ENABLED
  64:Drivers/STM32F4xx_HAL_Driver/Src/stm32f4xx_hal_hcd.c **** #if defined (USB_OTG_FS) || defined (USB_OTG_HS)
  65:Drivers/STM32F4xx_HAL_Driver/Src/stm32f4xx_hal_hcd.c **** 
  66:Drivers/STM32F4xx_HAL_Driver/Src/stm32f4xx_hal_hcd.c **** /** @defgroup HCD HCD
  67:Drivers/STM32F4xx_HAL_Driver/Src/stm32f4xx_hal_hcd.c ****   * @brief HCD HAL module driver
  68:Drivers/STM32F4xx_HAL_Driver/Src/stm32f4xx_hal_hcd.c ****   * @{
  69:Drivers/STM32F4xx_HAL_Driver/Src/stm32f4xx_hal_hcd.c ****   */
  70:Drivers/STM32F4xx_HAL_Driver/Src/stm32f4xx_hal_hcd.c **** 
  71:Drivers/STM32F4xx_HAL_Driver/Src/stm32f4xx_hal_hcd.c **** /* Private typedef -----------------------------------------------------------*/
  72:Drivers/STM32F4xx_HAL_Driver/Src/stm32f4xx_hal_hcd.c **** /* Private define ------------------------------------------------------------*/
  73:Drivers/STM32F4xx_HAL_Driver/Src/stm32f4xx_hal_hcd.c **** /* Private macro -------------------------------------------------------------*/
  74:Drivers/STM32F4xx_HAL_Driver/Src/stm32f4xx_hal_hcd.c **** /* Private variables ---------------------------------------------------------*/
  75:Drivers/STM32F4xx_HAL_Driver/Src/stm32f4xx_hal_hcd.c **** /* Private function prototypes -----------------------------------------------*/
  76:Drivers/STM32F4xx_HAL_Driver/Src/stm32f4xx_hal_hcd.c **** /** @defgroup HCD_Private_Functions HCD Private Functions
  77:Drivers/STM32F4xx_HAL_Driver/Src/stm32f4xx_hal_hcd.c ****   * @{
  78:Drivers/STM32F4xx_HAL_Driver/Src/stm32f4xx_hal_hcd.c ****   */
  79:Drivers/STM32F4xx_HAL_Driver/Src/stm32f4xx_hal_hcd.c **** static void HCD_HC_IN_IRQHandler(HCD_HandleTypeDef *hhcd, uint8_t chnum);
  80:Drivers/STM32F4xx_HAL_Driver/Src/stm32f4xx_hal_hcd.c **** static void HCD_HC_OUT_IRQHandler(HCD_HandleTypeDef *hhcd, uint8_t chnum);
  81:Drivers/STM32F4xx_HAL_Driver/Src/stm32f4xx_hal_hcd.c **** static void HCD_RXQLVL_IRQHandler(HCD_HandleTypeDef *hhcd);
  82:Drivers/STM32F4xx_HAL_Driver/Src/stm32f4xx_hal_hcd.c **** static void HCD_Port_IRQHandler(HCD_HandleTypeDef *hhcd);
  83:Drivers/STM32F4xx_HAL_Driver/Src/stm32f4xx_hal_hcd.c **** /**
  84:Drivers/STM32F4xx_HAL_Driver/Src/stm32f4xx_hal_hcd.c ****   * @}
  85:Drivers/STM32F4xx_HAL_Driver/Src/stm32f4xx_hal_hcd.c ****   */
  86:Drivers/STM32F4xx_HAL_Driver/Src/stm32f4xx_hal_hcd.c **** 
  87:Drivers/STM32F4xx_HAL_Driver/Src/stm32f4xx_hal_hcd.c **** /* Exported functions --------------------------------------------------------*/
ARM GAS  /var/folders/0z/tsy30v1j4xl4_7kw94k978ww0000gn/T//cc1wg7if.s 			page 3


  88:Drivers/STM32F4xx_HAL_Driver/Src/stm32f4xx_hal_hcd.c **** /** @defgroup HCD_Exported_Functions HCD Exported Functions
  89:Drivers/STM32F4xx_HAL_Driver/Src/stm32f4xx_hal_hcd.c ****   * @{
  90:Drivers/STM32F4xx_HAL_Driver/Src/stm32f4xx_hal_hcd.c ****   */
  91:Drivers/STM32F4xx_HAL_Driver/Src/stm32f4xx_hal_hcd.c **** 
  92:Drivers/STM32F4xx_HAL_Driver/Src/stm32f4xx_hal_hcd.c **** /** @defgroup HCD_Exported_Functions_Group1 Initialization and de-initialization functions
  93:Drivers/STM32F4xx_HAL_Driver/Src/stm32f4xx_hal_hcd.c ****   *  @brief    Initialization and Configuration functions
  94:Drivers/STM32F4xx_HAL_Driver/Src/stm32f4xx_hal_hcd.c ****   *
  95:Drivers/STM32F4xx_HAL_Driver/Src/stm32f4xx_hal_hcd.c **** @verbatim
  96:Drivers/STM32F4xx_HAL_Driver/Src/stm32f4xx_hal_hcd.c ****  ===============================================================================
  97:Drivers/STM32F4xx_HAL_Driver/Src/stm32f4xx_hal_hcd.c ****           ##### Initialization and de-initialization functions #####
  98:Drivers/STM32F4xx_HAL_Driver/Src/stm32f4xx_hal_hcd.c ****  ===============================================================================
  99:Drivers/STM32F4xx_HAL_Driver/Src/stm32f4xx_hal_hcd.c ****     [..]  This section provides functions allowing to:
 100:Drivers/STM32F4xx_HAL_Driver/Src/stm32f4xx_hal_hcd.c **** 
 101:Drivers/STM32F4xx_HAL_Driver/Src/stm32f4xx_hal_hcd.c **** @endverbatim
 102:Drivers/STM32F4xx_HAL_Driver/Src/stm32f4xx_hal_hcd.c ****   * @{
 103:Drivers/STM32F4xx_HAL_Driver/Src/stm32f4xx_hal_hcd.c ****   */
 104:Drivers/STM32F4xx_HAL_Driver/Src/stm32f4xx_hal_hcd.c **** 
 105:Drivers/STM32F4xx_HAL_Driver/Src/stm32f4xx_hal_hcd.c **** /**
 106:Drivers/STM32F4xx_HAL_Driver/Src/stm32f4xx_hal_hcd.c ****   * @brief  Initialize the host driver.
 107:Drivers/STM32F4xx_HAL_Driver/Src/stm32f4xx_hal_hcd.c ****   * @param  hhcd HCD handle
 108:Drivers/STM32F4xx_HAL_Driver/Src/stm32f4xx_hal_hcd.c ****   * @retval HAL status
 109:Drivers/STM32F4xx_HAL_Driver/Src/stm32f4xx_hal_hcd.c ****   */
 110:Drivers/STM32F4xx_HAL_Driver/Src/stm32f4xx_hal_hcd.c **** HAL_StatusTypeDef HAL_HCD_Init(HCD_HandleTypeDef *hhcd)
 111:Drivers/STM32F4xx_HAL_Driver/Src/stm32f4xx_hal_hcd.c **** {
 112:Drivers/STM32F4xx_HAL_Driver/Src/stm32f4xx_hal_hcd.c ****   USB_OTG_GlobalTypeDef *USBx;
 113:Drivers/STM32F4xx_HAL_Driver/Src/stm32f4xx_hal_hcd.c **** 
 114:Drivers/STM32F4xx_HAL_Driver/Src/stm32f4xx_hal_hcd.c ****   /* Check the HCD handle allocation */
 115:Drivers/STM32F4xx_HAL_Driver/Src/stm32f4xx_hal_hcd.c ****   if (hhcd == NULL)
 116:Drivers/STM32F4xx_HAL_Driver/Src/stm32f4xx_hal_hcd.c ****   {
 117:Drivers/STM32F4xx_HAL_Driver/Src/stm32f4xx_hal_hcd.c ****     return HAL_ERROR;
 118:Drivers/STM32F4xx_HAL_Driver/Src/stm32f4xx_hal_hcd.c ****   }
 119:Drivers/STM32F4xx_HAL_Driver/Src/stm32f4xx_hal_hcd.c **** 
 120:Drivers/STM32F4xx_HAL_Driver/Src/stm32f4xx_hal_hcd.c ****   /* Check the parameters */
 121:Drivers/STM32F4xx_HAL_Driver/Src/stm32f4xx_hal_hcd.c ****   assert_param(IS_HCD_ALL_INSTANCE(hhcd->Instance));
 122:Drivers/STM32F4xx_HAL_Driver/Src/stm32f4xx_hal_hcd.c **** 
 123:Drivers/STM32F4xx_HAL_Driver/Src/stm32f4xx_hal_hcd.c ****   USBx = hhcd->Instance;
 124:Drivers/STM32F4xx_HAL_Driver/Src/stm32f4xx_hal_hcd.c **** 
 125:Drivers/STM32F4xx_HAL_Driver/Src/stm32f4xx_hal_hcd.c ****   if (hhcd->State == HAL_HCD_STATE_RESET)
 126:Drivers/STM32F4xx_HAL_Driver/Src/stm32f4xx_hal_hcd.c ****   {
 127:Drivers/STM32F4xx_HAL_Driver/Src/stm32f4xx_hal_hcd.c ****     /* Allocate lock resource and initialize it */
 128:Drivers/STM32F4xx_HAL_Driver/Src/stm32f4xx_hal_hcd.c ****     hhcd->Lock = HAL_UNLOCKED;
 129:Drivers/STM32F4xx_HAL_Driver/Src/stm32f4xx_hal_hcd.c **** 
 130:Drivers/STM32F4xx_HAL_Driver/Src/stm32f4xx_hal_hcd.c **** #if (USE_HAL_HCD_REGISTER_CALLBACKS == 1U)
 131:Drivers/STM32F4xx_HAL_Driver/Src/stm32f4xx_hal_hcd.c ****     hhcd->SOFCallback = HAL_HCD_SOF_Callback;
 132:Drivers/STM32F4xx_HAL_Driver/Src/stm32f4xx_hal_hcd.c ****     hhcd->ConnectCallback = HAL_HCD_Connect_Callback;
 133:Drivers/STM32F4xx_HAL_Driver/Src/stm32f4xx_hal_hcd.c ****     hhcd->DisconnectCallback = HAL_HCD_Disconnect_Callback;
 134:Drivers/STM32F4xx_HAL_Driver/Src/stm32f4xx_hal_hcd.c ****     hhcd->PortEnabledCallback = HAL_HCD_PortEnabled_Callback;
 135:Drivers/STM32F4xx_HAL_Driver/Src/stm32f4xx_hal_hcd.c ****     hhcd->PortDisabledCallback = HAL_HCD_PortDisabled_Callback;
 136:Drivers/STM32F4xx_HAL_Driver/Src/stm32f4xx_hal_hcd.c ****     hhcd->HC_NotifyURBChangeCallback = HAL_HCD_HC_NotifyURBChange_Callback;
 137:Drivers/STM32F4xx_HAL_Driver/Src/stm32f4xx_hal_hcd.c **** 
 138:Drivers/STM32F4xx_HAL_Driver/Src/stm32f4xx_hal_hcd.c ****     if (hhcd->MspInitCallback == NULL)
 139:Drivers/STM32F4xx_HAL_Driver/Src/stm32f4xx_hal_hcd.c ****     {
 140:Drivers/STM32F4xx_HAL_Driver/Src/stm32f4xx_hal_hcd.c ****       hhcd->MspInitCallback = HAL_HCD_MspInit;
 141:Drivers/STM32F4xx_HAL_Driver/Src/stm32f4xx_hal_hcd.c ****     }
 142:Drivers/STM32F4xx_HAL_Driver/Src/stm32f4xx_hal_hcd.c **** 
 143:Drivers/STM32F4xx_HAL_Driver/Src/stm32f4xx_hal_hcd.c ****     /* Init the low level hardware */
 144:Drivers/STM32F4xx_HAL_Driver/Src/stm32f4xx_hal_hcd.c ****     hhcd->MspInitCallback(hhcd);
ARM GAS  /var/folders/0z/tsy30v1j4xl4_7kw94k978ww0000gn/T//cc1wg7if.s 			page 4


 145:Drivers/STM32F4xx_HAL_Driver/Src/stm32f4xx_hal_hcd.c **** #else
 146:Drivers/STM32F4xx_HAL_Driver/Src/stm32f4xx_hal_hcd.c ****     /* Init the low level hardware : GPIO, CLOCK, NVIC... */
 147:Drivers/STM32F4xx_HAL_Driver/Src/stm32f4xx_hal_hcd.c ****     HAL_HCD_MspInit(hhcd);
 148:Drivers/STM32F4xx_HAL_Driver/Src/stm32f4xx_hal_hcd.c **** #endif /* (USE_HAL_HCD_REGISTER_CALLBACKS) */
 149:Drivers/STM32F4xx_HAL_Driver/Src/stm32f4xx_hal_hcd.c ****   }
 150:Drivers/STM32F4xx_HAL_Driver/Src/stm32f4xx_hal_hcd.c **** 
 151:Drivers/STM32F4xx_HAL_Driver/Src/stm32f4xx_hal_hcd.c ****   hhcd->State = HAL_HCD_STATE_BUSY;
 152:Drivers/STM32F4xx_HAL_Driver/Src/stm32f4xx_hal_hcd.c **** 
 153:Drivers/STM32F4xx_HAL_Driver/Src/stm32f4xx_hal_hcd.c ****   /* Disable DMA mode for FS instance */
 154:Drivers/STM32F4xx_HAL_Driver/Src/stm32f4xx_hal_hcd.c ****   if ((USBx->CID & (0x1U << 8)) == 0U)
 155:Drivers/STM32F4xx_HAL_Driver/Src/stm32f4xx_hal_hcd.c ****   {
 156:Drivers/STM32F4xx_HAL_Driver/Src/stm32f4xx_hal_hcd.c ****     hhcd->Init.dma_enable = 0U;
 157:Drivers/STM32F4xx_HAL_Driver/Src/stm32f4xx_hal_hcd.c ****   }
 158:Drivers/STM32F4xx_HAL_Driver/Src/stm32f4xx_hal_hcd.c **** 
 159:Drivers/STM32F4xx_HAL_Driver/Src/stm32f4xx_hal_hcd.c ****   /* Disable the Interrupts */
 160:Drivers/STM32F4xx_HAL_Driver/Src/stm32f4xx_hal_hcd.c ****   __HAL_HCD_DISABLE(hhcd);
 161:Drivers/STM32F4xx_HAL_Driver/Src/stm32f4xx_hal_hcd.c **** 
 162:Drivers/STM32F4xx_HAL_Driver/Src/stm32f4xx_hal_hcd.c ****   /* Init the Core (common init.) */
 163:Drivers/STM32F4xx_HAL_Driver/Src/stm32f4xx_hal_hcd.c ****   (void)USB_CoreInit(hhcd->Instance, hhcd->Init);
 164:Drivers/STM32F4xx_HAL_Driver/Src/stm32f4xx_hal_hcd.c **** 
 165:Drivers/STM32F4xx_HAL_Driver/Src/stm32f4xx_hal_hcd.c ****   /* Force Host Mode*/
 166:Drivers/STM32F4xx_HAL_Driver/Src/stm32f4xx_hal_hcd.c ****   (void)USB_SetCurrentMode(hhcd->Instance, USB_HOST_MODE);
 167:Drivers/STM32F4xx_HAL_Driver/Src/stm32f4xx_hal_hcd.c **** 
 168:Drivers/STM32F4xx_HAL_Driver/Src/stm32f4xx_hal_hcd.c ****   /* Init Host */
 169:Drivers/STM32F4xx_HAL_Driver/Src/stm32f4xx_hal_hcd.c ****   (void)USB_HostInit(hhcd->Instance, hhcd->Init);
 170:Drivers/STM32F4xx_HAL_Driver/Src/stm32f4xx_hal_hcd.c **** 
 171:Drivers/STM32F4xx_HAL_Driver/Src/stm32f4xx_hal_hcd.c ****   hhcd->State = HAL_HCD_STATE_READY;
 172:Drivers/STM32F4xx_HAL_Driver/Src/stm32f4xx_hal_hcd.c **** 
 173:Drivers/STM32F4xx_HAL_Driver/Src/stm32f4xx_hal_hcd.c ****   return HAL_OK;
 174:Drivers/STM32F4xx_HAL_Driver/Src/stm32f4xx_hal_hcd.c **** }
 175:Drivers/STM32F4xx_HAL_Driver/Src/stm32f4xx_hal_hcd.c **** 
 176:Drivers/STM32F4xx_HAL_Driver/Src/stm32f4xx_hal_hcd.c **** /**
 177:Drivers/STM32F4xx_HAL_Driver/Src/stm32f4xx_hal_hcd.c ****   * @brief  Initialize a host channel.
 178:Drivers/STM32F4xx_HAL_Driver/Src/stm32f4xx_hal_hcd.c ****   * @param  hhcd HCD handle
 179:Drivers/STM32F4xx_HAL_Driver/Src/stm32f4xx_hal_hcd.c ****   * @param  ch_num Channel number.
 180:Drivers/STM32F4xx_HAL_Driver/Src/stm32f4xx_hal_hcd.c ****   *         This parameter can be a value from 1 to 15
 181:Drivers/STM32F4xx_HAL_Driver/Src/stm32f4xx_hal_hcd.c ****   * @param  epnum Endpoint number.
 182:Drivers/STM32F4xx_HAL_Driver/Src/stm32f4xx_hal_hcd.c ****   *          This parameter can be a value from 1 to 15
 183:Drivers/STM32F4xx_HAL_Driver/Src/stm32f4xx_hal_hcd.c ****   * @param  dev_address Current device address
 184:Drivers/STM32F4xx_HAL_Driver/Src/stm32f4xx_hal_hcd.c ****   *          This parameter can be a value from 0 to 255
 185:Drivers/STM32F4xx_HAL_Driver/Src/stm32f4xx_hal_hcd.c ****   * @param  speed Current device speed.
 186:Drivers/STM32F4xx_HAL_Driver/Src/stm32f4xx_hal_hcd.c ****   *          This parameter can be one of these values:
 187:Drivers/STM32F4xx_HAL_Driver/Src/stm32f4xx_hal_hcd.c ****   *            HCD_DEVICE_SPEED_HIGH: High speed mode,
 188:Drivers/STM32F4xx_HAL_Driver/Src/stm32f4xx_hal_hcd.c ****   *            HCD_DEVICE_SPEED_FULL: Full speed mode,
 189:Drivers/STM32F4xx_HAL_Driver/Src/stm32f4xx_hal_hcd.c ****   *            HCD_DEVICE_SPEED_LOW: Low speed mode
 190:Drivers/STM32F4xx_HAL_Driver/Src/stm32f4xx_hal_hcd.c ****   * @param  ep_type Endpoint Type.
 191:Drivers/STM32F4xx_HAL_Driver/Src/stm32f4xx_hal_hcd.c ****   *          This parameter can be one of these values:
 192:Drivers/STM32F4xx_HAL_Driver/Src/stm32f4xx_hal_hcd.c ****   *            EP_TYPE_CTRL: Control type,
 193:Drivers/STM32F4xx_HAL_Driver/Src/stm32f4xx_hal_hcd.c ****   *            EP_TYPE_ISOC: Isochronous type,
 194:Drivers/STM32F4xx_HAL_Driver/Src/stm32f4xx_hal_hcd.c ****   *            EP_TYPE_BULK: Bulk type,
 195:Drivers/STM32F4xx_HAL_Driver/Src/stm32f4xx_hal_hcd.c ****   *            EP_TYPE_INTR: Interrupt type
 196:Drivers/STM32F4xx_HAL_Driver/Src/stm32f4xx_hal_hcd.c ****   * @param  mps Max Packet Size.
 197:Drivers/STM32F4xx_HAL_Driver/Src/stm32f4xx_hal_hcd.c ****   *          This parameter can be a value from 0 to32K
 198:Drivers/STM32F4xx_HAL_Driver/Src/stm32f4xx_hal_hcd.c ****   * @retval HAL status
 199:Drivers/STM32F4xx_HAL_Driver/Src/stm32f4xx_hal_hcd.c ****   */
 200:Drivers/STM32F4xx_HAL_Driver/Src/stm32f4xx_hal_hcd.c **** HAL_StatusTypeDef HAL_HCD_HC_Init(HCD_HandleTypeDef *hhcd,
 201:Drivers/STM32F4xx_HAL_Driver/Src/stm32f4xx_hal_hcd.c ****                                   uint8_t ch_num,
ARM GAS  /var/folders/0z/tsy30v1j4xl4_7kw94k978ww0000gn/T//cc1wg7if.s 			page 5


 202:Drivers/STM32F4xx_HAL_Driver/Src/stm32f4xx_hal_hcd.c ****                                   uint8_t epnum,
 203:Drivers/STM32F4xx_HAL_Driver/Src/stm32f4xx_hal_hcd.c ****                                   uint8_t dev_address,
 204:Drivers/STM32F4xx_HAL_Driver/Src/stm32f4xx_hal_hcd.c ****                                   uint8_t speed,
 205:Drivers/STM32F4xx_HAL_Driver/Src/stm32f4xx_hal_hcd.c ****                                   uint8_t ep_type,
 206:Drivers/STM32F4xx_HAL_Driver/Src/stm32f4xx_hal_hcd.c ****                                   uint16_t mps)
 207:Drivers/STM32F4xx_HAL_Driver/Src/stm32f4xx_hal_hcd.c **** {
  29              		.loc 1 207 1 view -0
  30              		.cfi_startproc
  31              		@ args = 12, pretend = 0, frame = 0
  32              		@ frame_needed = 0, uses_anonymous_args = 0
 208:Drivers/STM32F4xx_HAL_Driver/Src/stm32f4xx_hal_hcd.c ****   HAL_StatusTypeDef status;
  33              		.loc 1 208 3 view .LVU1
 209:Drivers/STM32F4xx_HAL_Driver/Src/stm32f4xx_hal_hcd.c **** 
 210:Drivers/STM32F4xx_HAL_Driver/Src/stm32f4xx_hal_hcd.c ****   __HAL_LOCK(hhcd);
  34              		.loc 1 210 3 view .LVU2
  35              		.loc 1 210 3 view .LVU3
 207:Drivers/STM32F4xx_HAL_Driver/Src/stm32f4xx_hal_hcd.c ****   HAL_StatusTypeDef status;
  36              		.loc 1 207 1 is_stmt 0 view .LVU4
  37 0000 2DE9F043 		push	{r4, r5, r6, r7, r8, r9, lr}
  38              		.cfi_def_cfa_offset 28
  39              		.cfi_offset 4, -28
  40              		.cfi_offset 5, -24
  41              		.cfi_offset 6, -20
  42              		.cfi_offset 7, -16
  43              		.cfi_offset 8, -12
  44              		.cfi_offset 9, -8
  45              		.cfi_offset 14, -4
  46              		.loc 1 210 3 view .LVU5
  47 0004 90F8F852 		ldrb	r5, [r0, #760]	@ zero_extendqisi2
 207:Drivers/STM32F4xx_HAL_Driver/Src/stm32f4xx_hal_hcd.c ****   HAL_StatusTypeDef status;
  48              		.loc 1 207 1 view .LVU6
  49 0008 85B0     		sub	sp, sp, #20
  50              		.cfi_def_cfa_offset 48
  51              		.loc 1 210 3 view .LVU7
  52 000a 012D     		cmp	r5, #1
 207:Drivers/STM32F4xx_HAL_Driver/Src/stm32f4xx_hal_hcd.c ****   HAL_StatusTypeDef status;
  53              		.loc 1 207 1 view .LVU8
  54 000c 9DF83070 		ldrb	r7, [sp, #48]	@ zero_extendqisi2
  55 0010 9DF834E0 		ldrb	lr, [sp, #52]	@ zero_extendqisi2
  56 0014 BDF83880 		ldrh	r8, [sp, #56]
  57              		.loc 1 210 3 view .LVU9
  58 0018 2ED0     		beq	.L3
  59              		.loc 1 210 3 is_stmt 1 discriminator 2 view .LVU10
 211:Drivers/STM32F4xx_HAL_Driver/Src/stm32f4xx_hal_hcd.c ****   hhcd->hc[ch_num].do_ping = 0U;
  60              		.loc 1 211 28 is_stmt 0 discriminator 2 view .LVU11
  61 001a 0026     		movs	r6, #0
 212:Drivers/STM32F4xx_HAL_Driver/Src/stm32f4xx_hal_hcd.c ****   hhcd->hc[ch_num].dev_addr = dev_address;
  62              		.loc 1 212 29 discriminator 2 view .LVU12
  63 001c 3546     		mov	r5, r6
  64 001e 63F30705 		bfi	r5, r3, #0, #8
  65              	.LVL1:
 211:Drivers/STM32F4xx_HAL_Driver/Src/stm32f4xx_hal_hcd.c ****   hhcd->hc[ch_num].do_ping = 0U;
  66              		.loc 1 211 28 discriminator 2 view .LVU13
  67 0022 4FF02C09 		mov	r9, #44
  68 0026 09FB01FC 		mul	ip, r9, r1
  69              		.loc 1 212 29 discriminator 2 view .LVU14
  70 002a 61F30F25 		bfi	r5, r1, #8, #8
ARM GAS  /var/folders/0z/tsy30v1j4xl4_7kw94k978ww0000gn/T//cc1wg7if.s 			page 6


 213:Drivers/STM32F4xx_HAL_Driver/Src/stm32f4xx_hal_hcd.c ****   hhcd->hc[ch_num].max_packet = mps;
 214:Drivers/STM32F4xx_HAL_Driver/Src/stm32f4xx_hal_hcd.c ****   hhcd->hc[ch_num].ch_num = ch_num;
 215:Drivers/STM32F4xx_HAL_Driver/Src/stm32f4xx_hal_hcd.c ****   hhcd->hc[ch_num].ep_type = ep_type;
 216:Drivers/STM32F4xx_HAL_Driver/Src/stm32f4xx_hal_hcd.c ****   hhcd->hc[ch_num].ep_num = epnum & 0x7FU;
  71              		.loc 1 216 35 discriminator 2 view .LVU15
  72 002e 02F07F09 		and	r9, r2, #127
  73 0032 0446     		mov	r4, r0
 212:Drivers/STM32F4xx_HAL_Driver/Src/stm32f4xx_hal_hcd.c ****   hhcd->hc[ch_num].dev_addr = dev_address;
  74              		.loc 1 212 29 discriminator 2 view .LVU16
  75 0034 69F31745 		bfi	r5, r9, #16, #8
 217:Drivers/STM32F4xx_HAL_Driver/Src/stm32f4xx_hal_hcd.c **** 
 218:Drivers/STM32F4xx_HAL_Driver/Src/stm32f4xx_hal_hcd.c ****   if ((epnum & 0x80U) == 0x80U)
  76              		.loc 1 218 6 discriminator 2 view .LVU17
  77 0038 D009     		lsrs	r0, r2, #7
  78              	.LVL2:
 212:Drivers/STM32F4xx_HAL_Driver/Src/stm32f4xx_hal_hcd.c ****   hhcd->hc[ch_num].max_packet = mps;
  79              		.loc 1 212 29 discriminator 2 view .LVU18
  80 003a 60F31F65 		bfi	r5, r0, #24, #8
 211:Drivers/STM32F4xx_HAL_Driver/Src/stm32f4xx_hal_hcd.c ****   hhcd->hc[ch_num].dev_addr = dev_address;
  81              		.loc 1 211 28 discriminator 2 view .LVU19
  82 003e 04EB0C00 		add	r0, r4, ip
 212:Drivers/STM32F4xx_HAL_Driver/Src/stm32f4xx_hal_hcd.c ****   hhcd->hc[ch_num].max_packet = mps;
  83              		.loc 1 212 29 discriminator 2 view .LVU20
  84 0042 0CF1380C 		add	ip, ip, #56
 210:Drivers/STM32F4xx_HAL_Driver/Src/stm32f4xx_hal_hcd.c ****   hhcd->hc[ch_num].do_ping = 0U;
  85              		.loc 1 210 3 discriminator 2 view .LVU21
  86 0046 4FF00109 		mov	r9, #1
  87 004a 84F8F892 		strb	r9, [r4, #760]
 210:Drivers/STM32F4xx_HAL_Driver/Src/stm32f4xx_hal_hcd.c ****   hhcd->hc[ch_num].do_ping = 0U;
  88              		.loc 1 210 3 is_stmt 1 discriminator 2 view .LVU22
 211:Drivers/STM32F4xx_HAL_Driver/Src/stm32f4xx_hal_hcd.c ****   hhcd->hc[ch_num].dev_addr = dev_address;
  89              		.loc 1 211 3 discriminator 2 view .LVU23
 211:Drivers/STM32F4xx_HAL_Driver/Src/stm32f4xx_hal_hcd.c ****   hhcd->hc[ch_num].dev_addr = dev_address;
  90              		.loc 1 211 28 is_stmt 0 discriminator 2 view .LVU24
  91 004e 80F83D60 		strb	r6, [r0, #61]
 212:Drivers/STM32F4xx_HAL_Driver/Src/stm32f4xx_hal_hcd.c ****   hhcd->hc[ch_num].max_packet = mps;
  92              		.loc 1 212 3 is_stmt 1 discriminator 2 view .LVU25
 213:Drivers/STM32F4xx_HAL_Driver/Src/stm32f4xx_hal_hcd.c ****   hhcd->hc[ch_num].ch_num = ch_num;
  93              		.loc 1 213 3 discriminator 2 view .LVU26
 215:Drivers/STM32F4xx_HAL_Driver/Src/stm32f4xx_hal_hcd.c ****   hhcd->hc[ch_num].ep_num = epnum & 0x7FU;
  94              		.loc 1 215 28 is_stmt 0 discriminator 2 view .LVU27
  95 0052 80F83FE0 		strb	lr, [r0, #63]
 213:Drivers/STM32F4xx_HAL_Driver/Src/stm32f4xx_hal_hcd.c ****   hhcd->hc[ch_num].ch_num = ch_num;
  96              		.loc 1 213 31 discriminator 2 view .LVU28
  97 0056 A0F84080 		strh	r8, [r0, #64]	@ movhi
 214:Drivers/STM32F4xx_HAL_Driver/Src/stm32f4xx_hal_hcd.c ****   hhcd->hc[ch_num].ep_type = ep_type;
  98              		.loc 1 214 3 is_stmt 1 discriminator 2 view .LVU29
 215:Drivers/STM32F4xx_HAL_Driver/Src/stm32f4xx_hal_hcd.c ****   hhcd->hc[ch_num].ep_num = epnum & 0x7FU;
  99              		.loc 1 215 3 discriminator 2 view .LVU30
 216:Drivers/STM32F4xx_HAL_Driver/Src/stm32f4xx_hal_hcd.c **** 
 100              		.loc 1 216 3 discriminator 2 view .LVU31
 101              		.loc 1 218 3 discriminator 2 view .LVU32
 212:Drivers/STM32F4xx_HAL_Driver/Src/stm32f4xx_hal_hcd.c ****   hhcd->hc[ch_num].max_packet = mps;
 102              		.loc 1 212 29 is_stmt 0 discriminator 2 view .LVU33
 103 005a 44F80C50 		str	r5, [r4, ip]
 219:Drivers/STM32F4xx_HAL_Driver/Src/stm32f4xx_hal_hcd.c ****   {
 220:Drivers/STM32F4xx_HAL_Driver/Src/stm32f4xx_hal_hcd.c ****     hhcd->hc[ch_num].ep_is_in = 1U;
ARM GAS  /var/folders/0z/tsy30v1j4xl4_7kw94k978ww0000gn/T//cc1wg7if.s 			page 7


 221:Drivers/STM32F4xx_HAL_Driver/Src/stm32f4xx_hal_hcd.c ****   }
 222:Drivers/STM32F4xx_HAL_Driver/Src/stm32f4xx_hal_hcd.c ****   else
 223:Drivers/STM32F4xx_HAL_Driver/Src/stm32f4xx_hal_hcd.c ****   {
 224:Drivers/STM32F4xx_HAL_Driver/Src/stm32f4xx_hal_hcd.c ****     hhcd->hc[ch_num].ep_is_in = 0U;
 225:Drivers/STM32F4xx_HAL_Driver/Src/stm32f4xx_hal_hcd.c ****   }
 226:Drivers/STM32F4xx_HAL_Driver/Src/stm32f4xx_hal_hcd.c **** 
 227:Drivers/STM32F4xx_HAL_Driver/Src/stm32f4xx_hal_hcd.c ****   hhcd->hc[ch_num].speed = speed;
 104              		.loc 1 227 3 is_stmt 1 discriminator 2 view .LVU34
 105              		.loc 1 227 26 is_stmt 0 discriminator 2 view .LVU35
 106 005e 80F83C70 		strb	r7, [r0, #60]
 228:Drivers/STM32F4xx_HAL_Driver/Src/stm32f4xx_hal_hcd.c **** 
 229:Drivers/STM32F4xx_HAL_Driver/Src/stm32f4xx_hal_hcd.c ****   status =  USB_HC_Init(hhcd->Instance,
 107              		.loc 1 229 3 is_stmt 1 discriminator 2 view .LVU36
 108              		.loc 1 229 13 is_stmt 0 discriminator 2 view .LVU37
 109 0062 CDE901E8 		strd	lr, r8, [sp, #4]
 110 0066 0097     		str	r7, [sp]
 111 0068 2068     		ldr	r0, [r4]
 112 006a FFF7FEFF 		bl	USB_HC_Init
 113              	.LVL3:
 230:Drivers/STM32F4xx_HAL_Driver/Src/stm32f4xx_hal_hcd.c ****                         ch_num,
 231:Drivers/STM32F4xx_HAL_Driver/Src/stm32f4xx_hal_hcd.c ****                         epnum,
 232:Drivers/STM32F4xx_HAL_Driver/Src/stm32f4xx_hal_hcd.c ****                         dev_address,
 233:Drivers/STM32F4xx_HAL_Driver/Src/stm32f4xx_hal_hcd.c ****                         speed,
 234:Drivers/STM32F4xx_HAL_Driver/Src/stm32f4xx_hal_hcd.c ****                         ep_type,
 235:Drivers/STM32F4xx_HAL_Driver/Src/stm32f4xx_hal_hcd.c ****                         mps);
 236:Drivers/STM32F4xx_HAL_Driver/Src/stm32f4xx_hal_hcd.c ****   __HAL_UNLOCK(hhcd);
 114              		.loc 1 236 3 is_stmt 1 discriminator 2 view .LVU38
 115              		.loc 1 236 3 discriminator 2 view .LVU39
 116 006e 84F8F862 		strb	r6, [r4, #760]
 117              		.loc 1 236 3 discriminator 2 view .LVU40
 237:Drivers/STM32F4xx_HAL_Driver/Src/stm32f4xx_hal_hcd.c **** 
 238:Drivers/STM32F4xx_HAL_Driver/Src/stm32f4xx_hal_hcd.c ****   return status;
 118              		.loc 1 238 3 discriminator 2 view .LVU41
 239:Drivers/STM32F4xx_HAL_Driver/Src/stm32f4xx_hal_hcd.c **** }
 119              		.loc 1 239 1 is_stmt 0 discriminator 2 view .LVU42
 120 0072 05B0     		add	sp, sp, #20
 121              		.cfi_remember_state
 122              		.cfi_def_cfa_offset 28
 123              		@ sp needed
 124 0074 BDE8F083 		pop	{r4, r5, r6, r7, r8, r9, pc}
 125              	.LVL4:
 126              	.L3:
 127              		.cfi_restore_state
 210:Drivers/STM32F4xx_HAL_Driver/Src/stm32f4xx_hal_hcd.c ****   hhcd->hc[ch_num].do_ping = 0U;
 128              		.loc 1 210 3 view .LVU43
 129 0078 0220     		movs	r0, #2
 130              	.LVL5:
 131              		.loc 1 239 1 view .LVU44
 132 007a 05B0     		add	sp, sp, #20
 133              		.cfi_def_cfa_offset 28
 134              		@ sp needed
 135 007c BDE8F083 		pop	{r4, r5, r6, r7, r8, r9, pc}
 136              		.loc 1 239 1 view .LVU45
 137              		.cfi_endproc
 138              	.LFE131:
 140              		.section	.text.HAL_HCD_HC_Halt,"ax",%progbits
 141              		.align	1
ARM GAS  /var/folders/0z/tsy30v1j4xl4_7kw94k978ww0000gn/T//cc1wg7if.s 			page 8


 142              		.p2align 2,,3
 143              		.global	HAL_HCD_HC_Halt
 144              		.syntax unified
 145              		.thumb
 146              		.thumb_func
 148              	HAL_HCD_HC_Halt:
 149              	.LVL6:
 150              	.LFB132:
 240:Drivers/STM32F4xx_HAL_Driver/Src/stm32f4xx_hal_hcd.c **** 
 241:Drivers/STM32F4xx_HAL_Driver/Src/stm32f4xx_hal_hcd.c **** /**
 242:Drivers/STM32F4xx_HAL_Driver/Src/stm32f4xx_hal_hcd.c ****   * @brief  Halt a host channel.
 243:Drivers/STM32F4xx_HAL_Driver/Src/stm32f4xx_hal_hcd.c ****   * @param  hhcd HCD handle
 244:Drivers/STM32F4xx_HAL_Driver/Src/stm32f4xx_hal_hcd.c ****   * @param  ch_num Channel number.
 245:Drivers/STM32F4xx_HAL_Driver/Src/stm32f4xx_hal_hcd.c ****   *         This parameter can be a value from 1 to 15
 246:Drivers/STM32F4xx_HAL_Driver/Src/stm32f4xx_hal_hcd.c ****   * @retval HAL status
 247:Drivers/STM32F4xx_HAL_Driver/Src/stm32f4xx_hal_hcd.c ****   */
 248:Drivers/STM32F4xx_HAL_Driver/Src/stm32f4xx_hal_hcd.c **** HAL_StatusTypeDef HAL_HCD_HC_Halt(HCD_HandleTypeDef *hhcd, uint8_t ch_num)
 249:Drivers/STM32F4xx_HAL_Driver/Src/stm32f4xx_hal_hcd.c **** {
 151              		.loc 1 249 1 is_stmt 1 view -0
 152              		.cfi_startproc
 153              		@ args = 0, pretend = 0, frame = 0
 154              		@ frame_needed = 0, uses_anonymous_args = 0
 250:Drivers/STM32F4xx_HAL_Driver/Src/stm32f4xx_hal_hcd.c ****   HAL_StatusTypeDef status = HAL_OK;
 155              		.loc 1 250 3 view .LVU47
 251:Drivers/STM32F4xx_HAL_Driver/Src/stm32f4xx_hal_hcd.c **** 
 252:Drivers/STM32F4xx_HAL_Driver/Src/stm32f4xx_hal_hcd.c ****   __HAL_LOCK(hhcd);
 156              		.loc 1 252 3 view .LVU48
 157              		.loc 1 252 3 view .LVU49
 158 0000 90F8F832 		ldrb	r3, [r0, #760]	@ zero_extendqisi2
 159 0004 012B     		cmp	r3, #1
 160 0006 0BD0     		beq	.L8
 161              		.loc 1 252 3 discriminator 2 view .LVU50
 249:Drivers/STM32F4xx_HAL_Driver/Src/stm32f4xx_hal_hcd.c ****   HAL_StatusTypeDef status = HAL_OK;
 162              		.loc 1 249 1 is_stmt 0 discriminator 2 view .LVU51
 163 0008 10B5     		push	{r4, lr}
 164              		.cfi_def_cfa_offset 8
 165              		.cfi_offset 4, -8
 166              		.cfi_offset 14, -4
 167 000a 0446     		mov	r4, r0
 168              		.loc 1 252 3 discriminator 2 view .LVU52
 169 000c 0123     		movs	r3, #1
 253:Drivers/STM32F4xx_HAL_Driver/Src/stm32f4xx_hal_hcd.c ****   (void)USB_HC_Halt(hhcd->Instance, (uint8_t)ch_num);
 170              		.loc 1 253 9 discriminator 2 view .LVU53
 171 000e 0068     		ldr	r0, [r0]
 172              	.LVL7:
 252:Drivers/STM32F4xx_HAL_Driver/Src/stm32f4xx_hal_hcd.c ****   (void)USB_HC_Halt(hhcd->Instance, (uint8_t)ch_num);
 173              		.loc 1 252 3 discriminator 2 view .LVU54
 174 0010 84F8F832 		strb	r3, [r4, #760]
 252:Drivers/STM32F4xx_HAL_Driver/Src/stm32f4xx_hal_hcd.c ****   (void)USB_HC_Halt(hhcd->Instance, (uint8_t)ch_num);
 175              		.loc 1 252 3 is_stmt 1 discriminator 2 view .LVU55
 176              		.loc 1 253 3 discriminator 2 view .LVU56
 177              		.loc 1 253 9 is_stmt 0 discriminator 2 view .LVU57
 178 0014 FFF7FEFF 		bl	USB_HC_Halt
 179              	.LVL8:
 254:Drivers/STM32F4xx_HAL_Driver/Src/stm32f4xx_hal_hcd.c ****   __HAL_UNLOCK(hhcd);
 180              		.loc 1 254 3 is_stmt 1 discriminator 2 view .LVU58
 181              		.loc 1 254 3 discriminator 2 view .LVU59
ARM GAS  /var/folders/0z/tsy30v1j4xl4_7kw94k978ww0000gn/T//cc1wg7if.s 			page 9


 182 0018 0020     		movs	r0, #0
 183 001a 84F8F802 		strb	r0, [r4, #760]
 184              		.loc 1 254 3 discriminator 2 view .LVU60
 255:Drivers/STM32F4xx_HAL_Driver/Src/stm32f4xx_hal_hcd.c **** 
 256:Drivers/STM32F4xx_HAL_Driver/Src/stm32f4xx_hal_hcd.c ****   return status;
 185              		.loc 1 256 3 discriminator 2 view .LVU61
 257:Drivers/STM32F4xx_HAL_Driver/Src/stm32f4xx_hal_hcd.c **** }
 186              		.loc 1 257 1 is_stmt 0 discriminator 2 view .LVU62
 187 001e 10BD     		pop	{r4, pc}
 188              	.LVL9:
 189              	.L8:
 190              		.cfi_def_cfa_offset 0
 191              		.cfi_restore 4
 192              		.cfi_restore 14
 252:Drivers/STM32F4xx_HAL_Driver/Src/stm32f4xx_hal_hcd.c ****   (void)USB_HC_Halt(hhcd->Instance, (uint8_t)ch_num);
 193              		.loc 1 252 3 view .LVU63
 194 0020 0220     		movs	r0, #2
 195              	.LVL10:
 196              		.loc 1 257 1 view .LVU64
 197 0022 7047     		bx	lr
 198              		.cfi_endproc
 199              	.LFE132:
 201              		.section	.text.HAL_HCD_MspInit,"ax",%progbits
 202              		.align	1
 203              		.p2align 2,,3
 204              		.weak	HAL_HCD_MspInit
 205              		.syntax unified
 206              		.thumb
 207              		.thumb_func
 209              	HAL_HCD_MspInit:
 210              	.LVL11:
 211              	.LFB134:
 258:Drivers/STM32F4xx_HAL_Driver/Src/stm32f4xx_hal_hcd.c **** 
 259:Drivers/STM32F4xx_HAL_Driver/Src/stm32f4xx_hal_hcd.c **** /**
 260:Drivers/STM32F4xx_HAL_Driver/Src/stm32f4xx_hal_hcd.c ****   * @brief  DeInitialize the host driver.
 261:Drivers/STM32F4xx_HAL_Driver/Src/stm32f4xx_hal_hcd.c ****   * @param  hhcd HCD handle
 262:Drivers/STM32F4xx_HAL_Driver/Src/stm32f4xx_hal_hcd.c ****   * @retval HAL status
 263:Drivers/STM32F4xx_HAL_Driver/Src/stm32f4xx_hal_hcd.c ****   */
 264:Drivers/STM32F4xx_HAL_Driver/Src/stm32f4xx_hal_hcd.c **** HAL_StatusTypeDef HAL_HCD_DeInit(HCD_HandleTypeDef *hhcd)
 265:Drivers/STM32F4xx_HAL_Driver/Src/stm32f4xx_hal_hcd.c **** {
 266:Drivers/STM32F4xx_HAL_Driver/Src/stm32f4xx_hal_hcd.c ****   /* Check the HCD handle allocation */
 267:Drivers/STM32F4xx_HAL_Driver/Src/stm32f4xx_hal_hcd.c ****   if (hhcd == NULL)
 268:Drivers/STM32F4xx_HAL_Driver/Src/stm32f4xx_hal_hcd.c ****   {
 269:Drivers/STM32F4xx_HAL_Driver/Src/stm32f4xx_hal_hcd.c ****     return HAL_ERROR;
 270:Drivers/STM32F4xx_HAL_Driver/Src/stm32f4xx_hal_hcd.c ****   }
 271:Drivers/STM32F4xx_HAL_Driver/Src/stm32f4xx_hal_hcd.c **** 
 272:Drivers/STM32F4xx_HAL_Driver/Src/stm32f4xx_hal_hcd.c ****   hhcd->State = HAL_HCD_STATE_BUSY;
 273:Drivers/STM32F4xx_HAL_Driver/Src/stm32f4xx_hal_hcd.c **** 
 274:Drivers/STM32F4xx_HAL_Driver/Src/stm32f4xx_hal_hcd.c **** #if (USE_HAL_HCD_REGISTER_CALLBACKS == 1U)
 275:Drivers/STM32F4xx_HAL_Driver/Src/stm32f4xx_hal_hcd.c ****   if (hhcd->MspDeInitCallback == NULL)
 276:Drivers/STM32F4xx_HAL_Driver/Src/stm32f4xx_hal_hcd.c ****   {
 277:Drivers/STM32F4xx_HAL_Driver/Src/stm32f4xx_hal_hcd.c ****     hhcd->MspDeInitCallback = HAL_HCD_MspDeInit; /* Legacy weak MspDeInit  */
 278:Drivers/STM32F4xx_HAL_Driver/Src/stm32f4xx_hal_hcd.c ****   }
 279:Drivers/STM32F4xx_HAL_Driver/Src/stm32f4xx_hal_hcd.c **** 
 280:Drivers/STM32F4xx_HAL_Driver/Src/stm32f4xx_hal_hcd.c ****   /* DeInit the low level hardware */
 281:Drivers/STM32F4xx_HAL_Driver/Src/stm32f4xx_hal_hcd.c ****   hhcd->MspDeInitCallback(hhcd);
 282:Drivers/STM32F4xx_HAL_Driver/Src/stm32f4xx_hal_hcd.c **** #else
ARM GAS  /var/folders/0z/tsy30v1j4xl4_7kw94k978ww0000gn/T//cc1wg7if.s 			page 10


 283:Drivers/STM32F4xx_HAL_Driver/Src/stm32f4xx_hal_hcd.c ****   /* DeInit the low level hardware: CLOCK, NVIC.*/
 284:Drivers/STM32F4xx_HAL_Driver/Src/stm32f4xx_hal_hcd.c ****   HAL_HCD_MspDeInit(hhcd);
 285:Drivers/STM32F4xx_HAL_Driver/Src/stm32f4xx_hal_hcd.c **** #endif /* USE_HAL_HCD_REGISTER_CALLBACKS */
 286:Drivers/STM32F4xx_HAL_Driver/Src/stm32f4xx_hal_hcd.c **** 
 287:Drivers/STM32F4xx_HAL_Driver/Src/stm32f4xx_hal_hcd.c ****   __HAL_HCD_DISABLE(hhcd);
 288:Drivers/STM32F4xx_HAL_Driver/Src/stm32f4xx_hal_hcd.c **** 
 289:Drivers/STM32F4xx_HAL_Driver/Src/stm32f4xx_hal_hcd.c ****   hhcd->State = HAL_HCD_STATE_RESET;
 290:Drivers/STM32F4xx_HAL_Driver/Src/stm32f4xx_hal_hcd.c **** 
 291:Drivers/STM32F4xx_HAL_Driver/Src/stm32f4xx_hal_hcd.c ****   return HAL_OK;
 292:Drivers/STM32F4xx_HAL_Driver/Src/stm32f4xx_hal_hcd.c **** }
 293:Drivers/STM32F4xx_HAL_Driver/Src/stm32f4xx_hal_hcd.c **** 
 294:Drivers/STM32F4xx_HAL_Driver/Src/stm32f4xx_hal_hcd.c **** /**
 295:Drivers/STM32F4xx_HAL_Driver/Src/stm32f4xx_hal_hcd.c ****   * @brief  Initialize the HCD MSP.
 296:Drivers/STM32F4xx_HAL_Driver/Src/stm32f4xx_hal_hcd.c ****   * @param  hhcd HCD handle
 297:Drivers/STM32F4xx_HAL_Driver/Src/stm32f4xx_hal_hcd.c ****   * @retval None
 298:Drivers/STM32F4xx_HAL_Driver/Src/stm32f4xx_hal_hcd.c ****   */
 299:Drivers/STM32F4xx_HAL_Driver/Src/stm32f4xx_hal_hcd.c **** __weak void  HAL_HCD_MspInit(HCD_HandleTypeDef *hhcd)
 300:Drivers/STM32F4xx_HAL_Driver/Src/stm32f4xx_hal_hcd.c **** {
 212              		.loc 1 300 1 is_stmt 1 view -0
 213              		.cfi_startproc
 214              		@ args = 0, pretend = 0, frame = 0
 215              		@ frame_needed = 0, uses_anonymous_args = 0
 216              		@ link register save eliminated.
 301:Drivers/STM32F4xx_HAL_Driver/Src/stm32f4xx_hal_hcd.c ****   /* Prevent unused argument(s) compilation warning */
 302:Drivers/STM32F4xx_HAL_Driver/Src/stm32f4xx_hal_hcd.c ****   UNUSED(hhcd);
 217              		.loc 1 302 3 view .LVU66
 303:Drivers/STM32F4xx_HAL_Driver/Src/stm32f4xx_hal_hcd.c **** 
 304:Drivers/STM32F4xx_HAL_Driver/Src/stm32f4xx_hal_hcd.c ****   /* NOTE : This function should not be modified, when the callback is needed,
 305:Drivers/STM32F4xx_HAL_Driver/Src/stm32f4xx_hal_hcd.c ****             the HAL_HCD_MspInit could be implemented in the user file
 306:Drivers/STM32F4xx_HAL_Driver/Src/stm32f4xx_hal_hcd.c ****    */
 307:Drivers/STM32F4xx_HAL_Driver/Src/stm32f4xx_hal_hcd.c **** }
 218              		.loc 1 307 1 is_stmt 0 view .LVU67
 219 0000 7047     		bx	lr
 220              		.cfi_endproc
 221              	.LFE134:
 223 0002 00BF     		.section	.text.HAL_HCD_Init,"ax",%progbits
 224              		.align	1
 225              		.p2align 2,,3
 226              		.global	HAL_HCD_Init
 227              		.syntax unified
 228              		.thumb
 229              		.thumb_func
 231              	HAL_HCD_Init:
 232              	.LVL12:
 233              	.LFB130:
 111:Drivers/STM32F4xx_HAL_Driver/Src/stm32f4xx_hal_hcd.c ****   USB_OTG_GlobalTypeDef *USBx;
 234              		.loc 1 111 1 is_stmt 1 view -0
 235              		.cfi_startproc
 236              		@ args = 0, pretend = 0, frame = 0
 237              		@ frame_needed = 0, uses_anonymous_args = 0
 112:Drivers/STM32F4xx_HAL_Driver/Src/stm32f4xx_hal_hcd.c **** 
 238              		.loc 1 112 3 view .LVU69
 115:Drivers/STM32F4xx_HAL_Driver/Src/stm32f4xx_hal_hcd.c ****   {
 239              		.loc 1 115 3 view .LVU70
 115:Drivers/STM32F4xx_HAL_Driver/Src/stm32f4xx_hal_hcd.c ****   {
 240              		.loc 1 115 6 is_stmt 0 view .LVU71
 241 0000 0028     		cmp	r0, #0
ARM GAS  /var/folders/0z/tsy30v1j4xl4_7kw94k978ww0000gn/T//cc1wg7if.s 			page 11


 242 0002 4DD0     		beq	.L18
 121:Drivers/STM32F4xx_HAL_Driver/Src/stm32f4xx_hal_hcd.c **** 
 243              		.loc 1 121 3 is_stmt 1 view .LVU72
 123:Drivers/STM32F4xx_HAL_Driver/Src/stm32f4xx_hal_hcd.c **** 
 244              		.loc 1 123 3 view .LVU73
 111:Drivers/STM32F4xx_HAL_Driver/Src/stm32f4xx_hal_hcd.c ****   USB_OTG_GlobalTypeDef *USBx;
 245              		.loc 1 111 1 is_stmt 0 view .LVU74
 246 0004 2DE9F041 		push	{r4, r5, r6, r7, r8, lr}
 247              		.cfi_def_cfa_offset 24
 248              		.cfi_offset 4, -24
 249              		.cfi_offset 5, -20
 250              		.cfi_offset 6, -16
 251              		.cfi_offset 7, -12
 252              		.cfi_offset 8, -8
 253              		.cfi_offset 14, -4
 125:Drivers/STM32F4xx_HAL_Driver/Src/stm32f4xx_hal_hcd.c ****   {
 254              		.loc 1 125 11 view .LVU75
 255 0008 90F8F932 		ldrb	r3, [r0, #761]	@ zero_extendqisi2
 123:Drivers/STM32F4xx_HAL_Driver/Src/stm32f4xx_hal_hcd.c **** 
 256              		.loc 1 123 8 view .LVU76
 257 000c 0468     		ldr	r4, [r0]
 258              	.LVL13:
 125:Drivers/STM32F4xx_HAL_Driver/Src/stm32f4xx_hal_hcd.c ****   {
 259              		.loc 1 125 3 is_stmt 1 view .LVU77
 111:Drivers/STM32F4xx_HAL_Driver/Src/stm32f4xx_hal_hcd.c ****   USB_OTG_GlobalTypeDef *USBx;
 260              		.loc 1 111 1 is_stmt 0 view .LVU78
 261 000e 8AB0     		sub	sp, sp, #40
 262              		.cfi_def_cfa_offset 64
 263 0010 0646     		mov	r6, r0
 125:Drivers/STM32F4xx_HAL_Driver/Src/stm32f4xx_hal_hcd.c ****   {
 264              		.loc 1 125 6 view .LVU79
 265 0012 03F0FF02 		and	r2, r3, #255
 266 0016 002B     		cmp	r3, #0
 267 0018 3CD0     		beq	.L24
 268 001a 2046     		mov	r0, r4
 269              	.LVL14:
 270              	.L16:
 151:Drivers/STM32F4xx_HAL_Driver/Src/stm32f4xx_hal_hcd.c **** 
 271              		.loc 1 151 3 is_stmt 1 view .LVU80
 151:Drivers/STM32F4xx_HAL_Driver/Src/stm32f4xx_hal_hcd.c **** 
 272              		.loc 1 151 15 is_stmt 0 view .LVU81
 273 001c 0323     		movs	r3, #3
 274 001e 86F8F932 		strb	r3, [r6, #761]
 154:Drivers/STM32F4xx_HAL_Driver/Src/stm32f4xx_hal_hcd.c ****   {
 275              		.loc 1 154 3 is_stmt 1 view .LVU82
 154:Drivers/STM32F4xx_HAL_Driver/Src/stm32f4xx_hal_hcd.c ****   {
 276              		.loc 1 154 12 is_stmt 0 view .LVU83
 277 0022 E36B     		ldr	r3, [r4, #60]
 163:Drivers/STM32F4xx_HAL_Driver/Src/stm32f4xx_hal_hcd.c **** 
 278              		.loc 1 163 9 view .LVU84
 279 0024 3446     		mov	r4, r6
 280              	.LVL15:
 154:Drivers/STM32F4xx_HAL_Driver/Src/stm32f4xx_hal_hcd.c ****   {
 281              		.loc 1 154 6 view .LVU85
 282 0026 13F48073 		ands	r3, r3, #256
 156:Drivers/STM32F4xx_HAL_Driver/Src/stm32f4xx_hal_hcd.c ****   }
 283              		.loc 1 156 5 is_stmt 1 view .LVU86
ARM GAS  /var/folders/0z/tsy30v1j4xl4_7kw94k978ww0000gn/T//cc1wg7if.s 			page 12


 160:Drivers/STM32F4xx_HAL_Driver/Src/stm32f4xx_hal_hcd.c **** 
 284              		.loc 1 160 3 view .LVU87
 156:Drivers/STM32F4xx_HAL_Driver/Src/stm32f4xx_hal_hcd.c ****   }
 285              		.loc 1 156 27 is_stmt 0 view .LVU88
 286 002a 08BF     		it	eq
 287 002c 3361     		streq	r3, [r6, #16]
 160:Drivers/STM32F4xx_HAL_Driver/Src/stm32f4xx_hal_hcd.c **** 
 288              		.loc 1 160 3 view .LVU89
 289 002e FFF7FEFF 		bl	USB_DisableGlobalInt
 290              	.LVL16:
 163:Drivers/STM32F4xx_HAL_Driver/Src/stm32f4xx_hal_hcd.c **** 
 291              		.loc 1 163 3 is_stmt 1 view .LVU90
 163:Drivers/STM32F4xx_HAL_Driver/Src/stm32f4xx_hal_hcd.c **** 
 292              		.loc 1 163 9 is_stmt 0 view .LVU91
 293 0032 54F810CB 		ldr	ip, [r4], #16
 294 0036 0FCC     		ldmia	r4!, {r0, r1, r2, r3}
 295 0038 6D46     		mov	r5, sp
 296 003a 0FC5     		stmia	r5!, {r0, r1, r2, r3}
 297 003c 0FCC     		ldmia	r4!, {r0, r1, r2, r3}
 298 003e 0FC5     		stmia	r5!, {r0, r1, r2, r3}
 299 0040 94E80300 		ldm	r4, {r0, r1}
 300 0044 85E80300 		stm	r5, {r0, r1}
 301 0048 371D     		adds	r7, r6, #4
 302 004a 97E80E00 		ldm	r7, {r1, r2, r3}
 303 004e 6046     		mov	r0, ip
 304 0050 FFF7FEFF 		bl	USB_CoreInit
 305              	.LVL17:
 166:Drivers/STM32F4xx_HAL_Driver/Src/stm32f4xx_hal_hcd.c **** 
 306              		.loc 1 166 3 is_stmt 1 view .LVU92
 166:Drivers/STM32F4xx_HAL_Driver/Src/stm32f4xx_hal_hcd.c **** 
 307              		.loc 1 166 9 is_stmt 0 view .LVU93
 308 0054 3068     		ldr	r0, [r6]
 309 0056 0121     		movs	r1, #1
 310 0058 FFF7FEFF 		bl	USB_SetCurrentMode
 311              	.LVL18:
 169:Drivers/STM32F4xx_HAL_Driver/Src/stm32f4xx_hal_hcd.c **** 
 312              		.loc 1 169 3 is_stmt 1 view .LVU94
 169:Drivers/STM32F4xx_HAL_Driver/Src/stm32f4xx_hal_hcd.c **** 
 313              		.loc 1 169 9 is_stmt 0 view .LVU95
 314 005c B446     		mov	ip, r6
 315 005e EE46     		mov	lr, sp
 316 0060 5CF8108B 		ldr	r8, [ip], #16
 317 0064 BCE80F00 		ldmia	ip!, {r0, r1, r2, r3}
 318 0068 AEE80F00 		stmia	lr!, {r0, r1, r2, r3}
 319 006c BCE80F00 		ldmia	ip!, {r0, r1, r2, r3}
 320 0070 AEE80F00 		stmia	lr!, {r0, r1, r2, r3}
 321 0074 94E80300 		ldm	r4, {r0, r1}
 322 0078 85E80300 		stm	r5, {r0, r1}
 323 007c 4046     		mov	r0, r8
 324 007e 97E80E00 		ldm	r7, {r1, r2, r3}
 325 0082 FFF7FEFF 		bl	USB_HostInit
 326              	.LVL19:
 171:Drivers/STM32F4xx_HAL_Driver/Src/stm32f4xx_hal_hcd.c **** 
 327              		.loc 1 171 3 is_stmt 1 view .LVU96
 171:Drivers/STM32F4xx_HAL_Driver/Src/stm32f4xx_hal_hcd.c **** 
 328              		.loc 1 171 15 is_stmt 0 view .LVU97
 329 0086 0123     		movs	r3, #1
ARM GAS  /var/folders/0z/tsy30v1j4xl4_7kw94k978ww0000gn/T//cc1wg7if.s 			page 13


 173:Drivers/STM32F4xx_HAL_Driver/Src/stm32f4xx_hal_hcd.c **** }
 330              		.loc 1 173 10 view .LVU98
 331 0088 0020     		movs	r0, #0
 171:Drivers/STM32F4xx_HAL_Driver/Src/stm32f4xx_hal_hcd.c **** 
 332              		.loc 1 171 15 view .LVU99
 333 008a 86F8F932 		strb	r3, [r6, #761]
 173:Drivers/STM32F4xx_HAL_Driver/Src/stm32f4xx_hal_hcd.c **** }
 334              		.loc 1 173 3 is_stmt 1 view .LVU100
 174:Drivers/STM32F4xx_HAL_Driver/Src/stm32f4xx_hal_hcd.c **** 
 335              		.loc 1 174 1 is_stmt 0 view .LVU101
 336 008e 0AB0     		add	sp, sp, #40
 337              		.cfi_remember_state
 338              		.cfi_def_cfa_offset 24
 339              		@ sp needed
 340 0090 BDE8F081 		pop	{r4, r5, r6, r7, r8, pc}
 341              	.LVL20:
 342              	.L24:
 343              		.cfi_restore_state
 128:Drivers/STM32F4xx_HAL_Driver/Src/stm32f4xx_hal_hcd.c **** 
 344              		.loc 1 128 5 is_stmt 1 view .LVU102
 128:Drivers/STM32F4xx_HAL_Driver/Src/stm32f4xx_hal_hcd.c **** 
 345              		.loc 1 128 16 is_stmt 0 view .LVU103
 346 0094 80F8F822 		strb	r2, [r0, #760]
 147:Drivers/STM32F4xx_HAL_Driver/Src/stm32f4xx_hal_hcd.c **** #endif /* (USE_HAL_HCD_REGISTER_CALLBACKS) */
 347              		.loc 1 147 5 is_stmt 1 view .LVU104
 348 0098 FFF7FEFF 		bl	HAL_HCD_MspInit
 349              	.LVL21:
 160:Drivers/STM32F4xx_HAL_Driver/Src/stm32f4xx_hal_hcd.c **** 
 350              		.loc 1 160 3 is_stmt 0 view .LVU105
 351 009c 3068     		ldr	r0, [r6]
 352 009e BDE7     		b	.L16
 353              	.LVL22:
 354              	.L18:
 355              		.cfi_def_cfa_offset 0
 356              		.cfi_restore 4
 357              		.cfi_restore 5
 358              		.cfi_restore 6
 359              		.cfi_restore 7
 360              		.cfi_restore 8
 361              		.cfi_restore 14
 117:Drivers/STM32F4xx_HAL_Driver/Src/stm32f4xx_hal_hcd.c ****   }
 362              		.loc 1 117 12 view .LVU106
 363 00a0 0120     		movs	r0, #1
 364              	.LVL23:
 174:Drivers/STM32F4xx_HAL_Driver/Src/stm32f4xx_hal_hcd.c **** 
 365              		.loc 1 174 1 view .LVU107
 366 00a2 7047     		bx	lr
 367              		.cfi_endproc
 368              	.LFE130:
 370              		.section	.text.HAL_HCD_MspDeInit,"ax",%progbits
 371              		.align	1
 372              		.p2align 2,,3
 373              		.weak	HAL_HCD_MspDeInit
 374              		.syntax unified
 375              		.thumb
 376              		.thumb_func
 378              	HAL_HCD_MspDeInit:
ARM GAS  /var/folders/0z/tsy30v1j4xl4_7kw94k978ww0000gn/T//cc1wg7if.s 			page 14


 379              	.LFB159:
 380              		.cfi_startproc
 381              		@ args = 0, pretend = 0, frame = 0
 382              		@ frame_needed = 0, uses_anonymous_args = 0
 383              		@ link register save eliminated.
 384 0000 7047     		bx	lr
 385              		.cfi_endproc
 386              	.LFE159:
 388 0002 00BF     		.section	.text.HAL_HCD_DeInit,"ax",%progbits
 389              		.align	1
 390              		.p2align 2,,3
 391              		.global	HAL_HCD_DeInit
 392              		.syntax unified
 393              		.thumb
 394              		.thumb_func
 396              	HAL_HCD_DeInit:
 397              	.LVL24:
 398              	.LFB133:
 265:Drivers/STM32F4xx_HAL_Driver/Src/stm32f4xx_hal_hcd.c ****   /* Check the HCD handle allocation */
 399              		.loc 1 265 1 is_stmt 1 view -0
 400              		.cfi_startproc
 401              		@ args = 0, pretend = 0, frame = 0
 402              		@ frame_needed = 0, uses_anonymous_args = 0
 267:Drivers/STM32F4xx_HAL_Driver/Src/stm32f4xx_hal_hcd.c ****   {
 403              		.loc 1 267 3 view .LVU109
 267:Drivers/STM32F4xx_HAL_Driver/Src/stm32f4xx_hal_hcd.c ****   {
 404              		.loc 1 267 6 is_stmt 0 view .LVU110
 405 0000 68B1     		cbz	r0, .L28
 272:Drivers/STM32F4xx_HAL_Driver/Src/stm32f4xx_hal_hcd.c **** 
 406              		.loc 1 272 3 is_stmt 1 view .LVU111
 265:Drivers/STM32F4xx_HAL_Driver/Src/stm32f4xx_hal_hcd.c ****   /* Check the HCD handle allocation */
 407              		.loc 1 265 1 is_stmt 0 view .LVU112
 408 0002 10B5     		push	{r4, lr}
 409              		.cfi_def_cfa_offset 8
 410              		.cfi_offset 4, -8
 411              		.cfi_offset 14, -4
 272:Drivers/STM32F4xx_HAL_Driver/Src/stm32f4xx_hal_hcd.c **** 
 412              		.loc 1 272 15 view .LVU113
 413 0004 0323     		movs	r3, #3
 414 0006 0446     		mov	r4, r0
 415 0008 80F8F932 		strb	r3, [r0, #761]
 284:Drivers/STM32F4xx_HAL_Driver/Src/stm32f4xx_hal_hcd.c **** #endif /* USE_HAL_HCD_REGISTER_CALLBACKS */
 416              		.loc 1 284 3 is_stmt 1 view .LVU114
 417 000c FFF7FEFF 		bl	HAL_HCD_MspDeInit
 418              	.LVL25:
 287:Drivers/STM32F4xx_HAL_Driver/Src/stm32f4xx_hal_hcd.c **** 
 419              		.loc 1 287 3 view .LVU115
 420 0010 2068     		ldr	r0, [r4]
 421 0012 FFF7FEFF 		bl	USB_DisableGlobalInt
 422              	.LVL26:
 289:Drivers/STM32F4xx_HAL_Driver/Src/stm32f4xx_hal_hcd.c **** 
 423              		.loc 1 289 3 view .LVU116
 289:Drivers/STM32F4xx_HAL_Driver/Src/stm32f4xx_hal_hcd.c **** 
 424              		.loc 1 289 15 is_stmt 0 view .LVU117
 425 0016 0020     		movs	r0, #0
 426 0018 84F8F902 		strb	r0, [r4, #761]
 291:Drivers/STM32F4xx_HAL_Driver/Src/stm32f4xx_hal_hcd.c **** }
ARM GAS  /var/folders/0z/tsy30v1j4xl4_7kw94k978ww0000gn/T//cc1wg7if.s 			page 15


 427              		.loc 1 291 3 is_stmt 1 view .LVU118
 292:Drivers/STM32F4xx_HAL_Driver/Src/stm32f4xx_hal_hcd.c **** 
 428              		.loc 1 292 1 is_stmt 0 view .LVU119
 429 001c 10BD     		pop	{r4, pc}
 430              	.LVL27:
 431              	.L28:
 432              		.cfi_def_cfa_offset 0
 433              		.cfi_restore 4
 434              		.cfi_restore 14
 269:Drivers/STM32F4xx_HAL_Driver/Src/stm32f4xx_hal_hcd.c ****   }
 435              		.loc 1 269 12 view .LVU120
 436 001e 0120     		movs	r0, #1
 437              	.LVL28:
 292:Drivers/STM32F4xx_HAL_Driver/Src/stm32f4xx_hal_hcd.c **** 
 438              		.loc 1 292 1 view .LVU121
 439 0020 7047     		bx	lr
 440              		.cfi_endproc
 441              	.LFE133:
 443 0022 00BF     		.section	.text.HAL_HCD_HC_SubmitRequest,"ax",%progbits
 444              		.align	1
 445              		.p2align 2,,3
 446              		.global	HAL_HCD_HC_SubmitRequest
 447              		.syntax unified
 448              		.thumb
 449              		.thumb_func
 451              	HAL_HCD_HC_SubmitRequest:
 452              	.LVL29:
 453              	.LFB136:
 308:Drivers/STM32F4xx_HAL_Driver/Src/stm32f4xx_hal_hcd.c **** 
 309:Drivers/STM32F4xx_HAL_Driver/Src/stm32f4xx_hal_hcd.c **** /**
 310:Drivers/STM32F4xx_HAL_Driver/Src/stm32f4xx_hal_hcd.c ****   * @brief  DeInitialize the HCD MSP.
 311:Drivers/STM32F4xx_HAL_Driver/Src/stm32f4xx_hal_hcd.c ****   * @param  hhcd HCD handle
 312:Drivers/STM32F4xx_HAL_Driver/Src/stm32f4xx_hal_hcd.c ****   * @retval None
 313:Drivers/STM32F4xx_HAL_Driver/Src/stm32f4xx_hal_hcd.c ****   */
 314:Drivers/STM32F4xx_HAL_Driver/Src/stm32f4xx_hal_hcd.c **** __weak void  HAL_HCD_MspDeInit(HCD_HandleTypeDef *hhcd)
 315:Drivers/STM32F4xx_HAL_Driver/Src/stm32f4xx_hal_hcd.c **** {
 316:Drivers/STM32F4xx_HAL_Driver/Src/stm32f4xx_hal_hcd.c ****   /* Prevent unused argument(s) compilation warning */
 317:Drivers/STM32F4xx_HAL_Driver/Src/stm32f4xx_hal_hcd.c ****   UNUSED(hhcd);
 318:Drivers/STM32F4xx_HAL_Driver/Src/stm32f4xx_hal_hcd.c **** 
 319:Drivers/STM32F4xx_HAL_Driver/Src/stm32f4xx_hal_hcd.c ****   /* NOTE : This function should not be modified, when the callback is needed,
 320:Drivers/STM32F4xx_HAL_Driver/Src/stm32f4xx_hal_hcd.c ****             the HAL_HCD_MspDeInit could be implemented in the user file
 321:Drivers/STM32F4xx_HAL_Driver/Src/stm32f4xx_hal_hcd.c ****    */
 322:Drivers/STM32F4xx_HAL_Driver/Src/stm32f4xx_hal_hcd.c **** }
 323:Drivers/STM32F4xx_HAL_Driver/Src/stm32f4xx_hal_hcd.c **** 
 324:Drivers/STM32F4xx_HAL_Driver/Src/stm32f4xx_hal_hcd.c **** /**
 325:Drivers/STM32F4xx_HAL_Driver/Src/stm32f4xx_hal_hcd.c ****   * @}
 326:Drivers/STM32F4xx_HAL_Driver/Src/stm32f4xx_hal_hcd.c ****   */
 327:Drivers/STM32F4xx_HAL_Driver/Src/stm32f4xx_hal_hcd.c **** 
 328:Drivers/STM32F4xx_HAL_Driver/Src/stm32f4xx_hal_hcd.c **** /** @defgroup HCD_Exported_Functions_Group2 Input and Output operation functions
 329:Drivers/STM32F4xx_HAL_Driver/Src/stm32f4xx_hal_hcd.c ****   *  @brief   HCD IO operation functions
 330:Drivers/STM32F4xx_HAL_Driver/Src/stm32f4xx_hal_hcd.c ****   *
 331:Drivers/STM32F4xx_HAL_Driver/Src/stm32f4xx_hal_hcd.c **** @verbatim
 332:Drivers/STM32F4xx_HAL_Driver/Src/stm32f4xx_hal_hcd.c ****  ===============================================================================
 333:Drivers/STM32F4xx_HAL_Driver/Src/stm32f4xx_hal_hcd.c ****                       ##### IO operation functions #####
 334:Drivers/STM32F4xx_HAL_Driver/Src/stm32f4xx_hal_hcd.c ****  ===============================================================================
 335:Drivers/STM32F4xx_HAL_Driver/Src/stm32f4xx_hal_hcd.c ****  [..] This subsection provides a set of functions allowing to manage the USB Host Data
 336:Drivers/STM32F4xx_HAL_Driver/Src/stm32f4xx_hal_hcd.c ****     Transfer
ARM GAS  /var/folders/0z/tsy30v1j4xl4_7kw94k978ww0000gn/T//cc1wg7if.s 			page 16


 337:Drivers/STM32F4xx_HAL_Driver/Src/stm32f4xx_hal_hcd.c **** 
 338:Drivers/STM32F4xx_HAL_Driver/Src/stm32f4xx_hal_hcd.c **** @endverbatim
 339:Drivers/STM32F4xx_HAL_Driver/Src/stm32f4xx_hal_hcd.c ****   * @{
 340:Drivers/STM32F4xx_HAL_Driver/Src/stm32f4xx_hal_hcd.c ****   */
 341:Drivers/STM32F4xx_HAL_Driver/Src/stm32f4xx_hal_hcd.c **** 
 342:Drivers/STM32F4xx_HAL_Driver/Src/stm32f4xx_hal_hcd.c **** /**
 343:Drivers/STM32F4xx_HAL_Driver/Src/stm32f4xx_hal_hcd.c ****   * @brief  Submit a new URB for processing.
 344:Drivers/STM32F4xx_HAL_Driver/Src/stm32f4xx_hal_hcd.c ****   * @param  hhcd HCD handle
 345:Drivers/STM32F4xx_HAL_Driver/Src/stm32f4xx_hal_hcd.c ****   * @param  ch_num Channel number.
 346:Drivers/STM32F4xx_HAL_Driver/Src/stm32f4xx_hal_hcd.c ****   *         This parameter can be a value from 1 to 15
 347:Drivers/STM32F4xx_HAL_Driver/Src/stm32f4xx_hal_hcd.c ****   * @param  direction Channel number.
 348:Drivers/STM32F4xx_HAL_Driver/Src/stm32f4xx_hal_hcd.c ****   *          This parameter can be one of these values:
 349:Drivers/STM32F4xx_HAL_Driver/Src/stm32f4xx_hal_hcd.c ****   *           0 : Output / 1 : Input
 350:Drivers/STM32F4xx_HAL_Driver/Src/stm32f4xx_hal_hcd.c ****   * @param  ep_type Endpoint Type.
 351:Drivers/STM32F4xx_HAL_Driver/Src/stm32f4xx_hal_hcd.c ****   *          This parameter can be one of these values:
 352:Drivers/STM32F4xx_HAL_Driver/Src/stm32f4xx_hal_hcd.c ****   *            EP_TYPE_CTRL: Control type/
 353:Drivers/STM32F4xx_HAL_Driver/Src/stm32f4xx_hal_hcd.c ****   *            EP_TYPE_ISOC: Isochronous type/
 354:Drivers/STM32F4xx_HAL_Driver/Src/stm32f4xx_hal_hcd.c ****   *            EP_TYPE_BULK: Bulk type/
 355:Drivers/STM32F4xx_HAL_Driver/Src/stm32f4xx_hal_hcd.c ****   *            EP_TYPE_INTR: Interrupt type/
 356:Drivers/STM32F4xx_HAL_Driver/Src/stm32f4xx_hal_hcd.c ****   * @param  token Endpoint Type.
 357:Drivers/STM32F4xx_HAL_Driver/Src/stm32f4xx_hal_hcd.c ****   *          This parameter can be one of these values:
 358:Drivers/STM32F4xx_HAL_Driver/Src/stm32f4xx_hal_hcd.c ****   *            0: HC_PID_SETUP / 1: HC_PID_DATA1
 359:Drivers/STM32F4xx_HAL_Driver/Src/stm32f4xx_hal_hcd.c ****   * @param  pbuff pointer to URB data
 360:Drivers/STM32F4xx_HAL_Driver/Src/stm32f4xx_hal_hcd.c ****   * @param  length Length of URB data
 361:Drivers/STM32F4xx_HAL_Driver/Src/stm32f4xx_hal_hcd.c ****   * @param  do_ping activate do ping protocol (for high speed only).
 362:Drivers/STM32F4xx_HAL_Driver/Src/stm32f4xx_hal_hcd.c ****   *          This parameter can be one of these values:
 363:Drivers/STM32F4xx_HAL_Driver/Src/stm32f4xx_hal_hcd.c ****   *           0 : do ping inactive / 1 : do ping active
 364:Drivers/STM32F4xx_HAL_Driver/Src/stm32f4xx_hal_hcd.c ****   * @retval HAL status
 365:Drivers/STM32F4xx_HAL_Driver/Src/stm32f4xx_hal_hcd.c ****   */
 366:Drivers/STM32F4xx_HAL_Driver/Src/stm32f4xx_hal_hcd.c **** HAL_StatusTypeDef HAL_HCD_HC_SubmitRequest(HCD_HandleTypeDef *hhcd,
 367:Drivers/STM32F4xx_HAL_Driver/Src/stm32f4xx_hal_hcd.c ****                                            uint8_t ch_num,
 368:Drivers/STM32F4xx_HAL_Driver/Src/stm32f4xx_hal_hcd.c ****                                            uint8_t direction,
 369:Drivers/STM32F4xx_HAL_Driver/Src/stm32f4xx_hal_hcd.c ****                                            uint8_t ep_type,
 370:Drivers/STM32F4xx_HAL_Driver/Src/stm32f4xx_hal_hcd.c ****                                            uint8_t token,
 371:Drivers/STM32F4xx_HAL_Driver/Src/stm32f4xx_hal_hcd.c ****                                            uint8_t *pbuff,
 372:Drivers/STM32F4xx_HAL_Driver/Src/stm32f4xx_hal_hcd.c ****                                            uint16_t length,
 373:Drivers/STM32F4xx_HAL_Driver/Src/stm32f4xx_hal_hcd.c ****                                            uint8_t do_ping)
 374:Drivers/STM32F4xx_HAL_Driver/Src/stm32f4xx_hal_hcd.c **** {
 454              		.loc 1 374 1 is_stmt 1 view -0
 455              		.cfi_startproc
 456              		@ args = 16, pretend = 0, frame = 0
 457              		@ frame_needed = 0, uses_anonymous_args = 0
 375:Drivers/STM32F4xx_HAL_Driver/Src/stm32f4xx_hal_hcd.c ****   hhcd->hc[ch_num].ep_is_in = direction;
 458              		.loc 1 375 3 view .LVU123
 374:Drivers/STM32F4xx_HAL_Driver/Src/stm32f4xx_hal_hcd.c ****   hhcd->hc[ch_num].ep_is_in = direction;
 459              		.loc 1 374 1 is_stmt 0 view .LVU124
 460 0000 70B5     		push	{r4, r5, r6, lr}
 461              		.cfi_def_cfa_offset 16
 462              		.cfi_offset 4, -16
 463              		.cfi_offset 5, -12
 464              		.cfi_offset 6, -8
 465              		.cfi_offset 14, -4
 374:Drivers/STM32F4xx_HAL_Driver/Src/stm32f4xx_hal_hcd.c ****   hhcd->hc[ch_num].ep_is_in = direction;
 466              		.loc 1 374 1 view .LVU125
 467 0002 8C46     		mov	ip, r1
 468              		.loc 1 375 29 view .LVU126
 469 0004 2C21     		movs	r1, #44
ARM GAS  /var/folders/0z/tsy30v1j4xl4_7kw94k978ww0000gn/T//cc1wg7if.s 			page 17


 470              	.LVL30:
 471              		.loc 1 375 29 view .LVU127
 472 0006 01FB0C01 		mla	r1, r1, ip, r0
 374:Drivers/STM32F4xx_HAL_Driver/Src/stm32f4xx_hal_hcd.c ****   hhcd->hc[ch_num].ep_is_in = direction;
 473              		.loc 1 374 1 view .LVU128
 474 000a 9DF81060 		ldrb	r6, [sp, #16]	@ zero_extendqisi2
 475 000e 059D     		ldr	r5, [sp, #20]
 476 0010 BDF81840 		ldrh	r4, [sp, #24]
 477 0014 9DF81CE0 		ldrb	lr, [sp, #28]	@ zero_extendqisi2
 478              		.loc 1 375 29 view .LVU129
 479 0018 81F83B20 		strb	r2, [r1, #59]
 376:Drivers/STM32F4xx_HAL_Driver/Src/stm32f4xx_hal_hcd.c ****   hhcd->hc[ch_num].ep_type  = ep_type;
 480              		.loc 1 376 3 is_stmt 1 view .LVU130
 481              		.loc 1 376 29 is_stmt 0 view .LVU131
 482 001c 81F83F30 		strb	r3, [r1, #63]
 377:Drivers/STM32F4xx_HAL_Driver/Src/stm32f4xx_hal_hcd.c **** 
 378:Drivers/STM32F4xx_HAL_Driver/Src/stm32f4xx_hal_hcd.c ****   if (token == 0U)
 483              		.loc 1 378 3 is_stmt 1 view .LVU132
 484              		.loc 1 378 6 is_stmt 0 view .LVU133
 485 0020 4EBB     		cbnz	r6, .L49
 379:Drivers/STM32F4xx_HAL_Driver/Src/stm32f4xx_hal_hcd.c ****   {
 380:Drivers/STM32F4xx_HAL_Driver/Src/stm32f4xx_hal_hcd.c ****     hhcd->hc[ch_num].data_pid = HC_PID_SETUP;
 486              		.loc 1 380 5 is_stmt 1 view .LVU134
 381:Drivers/STM32F4xx_HAL_Driver/Src/stm32f4xx_hal_hcd.c ****     hhcd->hc[ch_num].do_ping = do_ping;
 487              		.loc 1 381 5 view .LVU135
 488              		.loc 1 381 30 is_stmt 0 view .LVU136
 489 0022 81F83DE0 		strb	lr, [r1, #61]
 380:Drivers/STM32F4xx_HAL_Driver/Src/stm32f4xx_hal_hcd.c ****     hhcd->hc[ch_num].do_ping = do_ping;
 490              		.loc 1 380 31 view .LVU137
 491 0026 4FF0030E 		mov	lr, #3
 492              	.L34:
 493 002a 2C21     		movs	r1, #44
 494 002c 01FB0C01 		mla	r1, r1, ip, r0
 495 0030 81F842E0 		strb	lr, [r1, #66]
 382:Drivers/STM32F4xx_HAL_Driver/Src/stm32f4xx_hal_hcd.c ****   }
 383:Drivers/STM32F4xx_HAL_Driver/Src/stm32f4xx_hal_hcd.c ****   else
 384:Drivers/STM32F4xx_HAL_Driver/Src/stm32f4xx_hal_hcd.c ****   {
 385:Drivers/STM32F4xx_HAL_Driver/Src/stm32f4xx_hal_hcd.c ****     hhcd->hc[ch_num].data_pid = HC_PID_DATA1;
 386:Drivers/STM32F4xx_HAL_Driver/Src/stm32f4xx_hal_hcd.c ****   }
 387:Drivers/STM32F4xx_HAL_Driver/Src/stm32f4xx_hal_hcd.c **** 
 388:Drivers/STM32F4xx_HAL_Driver/Src/stm32f4xx_hal_hcd.c ****   /* Manage Data Toggle */
 389:Drivers/STM32F4xx_HAL_Driver/Src/stm32f4xx_hal_hcd.c ****   switch (ep_type)
 496              		.loc 1 389 3 is_stmt 1 view .LVU138
 497 0034 032B     		cmp	r3, #3
 498 0036 09D8     		bhi	.L35
 499 0038 DFE803F0 		tbb	[pc, r3]
 500              	.L37:
 501 003c 2C       		.byte	(.L40-.L37)/2
 502 003d 02       		.byte	(.L39-.L37)/2
 503 003e 20       		.byte	(.L36-.L37)/2
 504 003f 20       		.byte	(.L36-.L37)/2
 505              		.p2align 1
 506              	.L39:
 390:Drivers/STM32F4xx_HAL_Driver/Src/stm32f4xx_hal_hcd.c ****   {
 391:Drivers/STM32F4xx_HAL_Driver/Src/stm32f4xx_hal_hcd.c ****     case EP_TYPE_CTRL:
 392:Drivers/STM32F4xx_HAL_Driver/Src/stm32f4xx_hal_hcd.c ****       if ((token == 1U) && (direction == 0U)) /*send data */
 393:Drivers/STM32F4xx_HAL_Driver/Src/stm32f4xx_hal_hcd.c ****       {
ARM GAS  /var/folders/0z/tsy30v1j4xl4_7kw94k978ww0000gn/T//cc1wg7if.s 			page 18


 394:Drivers/STM32F4xx_HAL_Driver/Src/stm32f4xx_hal_hcd.c ****         if (length == 0U)
 395:Drivers/STM32F4xx_HAL_Driver/Src/stm32f4xx_hal_hcd.c ****         {
 396:Drivers/STM32F4xx_HAL_Driver/Src/stm32f4xx_hal_hcd.c ****           /* For Status OUT stage, Length==0, Status Out PID = 1 */
 397:Drivers/STM32F4xx_HAL_Driver/Src/stm32f4xx_hal_hcd.c ****           hhcd->hc[ch_num].toggle_out = 1U;
 398:Drivers/STM32F4xx_HAL_Driver/Src/stm32f4xx_hal_hcd.c ****         }
 399:Drivers/STM32F4xx_HAL_Driver/Src/stm32f4xx_hal_hcd.c **** 
 400:Drivers/STM32F4xx_HAL_Driver/Src/stm32f4xx_hal_hcd.c ****         /* Set the Data Toggle bit as per the Flag */
 401:Drivers/STM32F4xx_HAL_Driver/Src/stm32f4xx_hal_hcd.c ****         if (hhcd->hc[ch_num].toggle_out == 0U)
 402:Drivers/STM32F4xx_HAL_Driver/Src/stm32f4xx_hal_hcd.c ****         {
 403:Drivers/STM32F4xx_HAL_Driver/Src/stm32f4xx_hal_hcd.c ****           /* Put the PID 0 */
 404:Drivers/STM32F4xx_HAL_Driver/Src/stm32f4xx_hal_hcd.c ****           hhcd->hc[ch_num].data_pid = HC_PID_DATA0;
 405:Drivers/STM32F4xx_HAL_Driver/Src/stm32f4xx_hal_hcd.c ****         }
 406:Drivers/STM32F4xx_HAL_Driver/Src/stm32f4xx_hal_hcd.c ****         else
 407:Drivers/STM32F4xx_HAL_Driver/Src/stm32f4xx_hal_hcd.c ****         {
 408:Drivers/STM32F4xx_HAL_Driver/Src/stm32f4xx_hal_hcd.c ****           /* Put the PID 1 */
 409:Drivers/STM32F4xx_HAL_Driver/Src/stm32f4xx_hal_hcd.c ****           hhcd->hc[ch_num].data_pid = HC_PID_DATA1;
 410:Drivers/STM32F4xx_HAL_Driver/Src/stm32f4xx_hal_hcd.c ****         }
 411:Drivers/STM32F4xx_HAL_Driver/Src/stm32f4xx_hal_hcd.c ****       }
 412:Drivers/STM32F4xx_HAL_Driver/Src/stm32f4xx_hal_hcd.c ****       break;
 413:Drivers/STM32F4xx_HAL_Driver/Src/stm32f4xx_hal_hcd.c **** 
 414:Drivers/STM32F4xx_HAL_Driver/Src/stm32f4xx_hal_hcd.c ****     case EP_TYPE_BULK:
 415:Drivers/STM32F4xx_HAL_Driver/Src/stm32f4xx_hal_hcd.c ****       if (direction == 0U)
 416:Drivers/STM32F4xx_HAL_Driver/Src/stm32f4xx_hal_hcd.c ****       {
 417:Drivers/STM32F4xx_HAL_Driver/Src/stm32f4xx_hal_hcd.c ****         /* Set the Data Toggle bit as per the Flag */
 418:Drivers/STM32F4xx_HAL_Driver/Src/stm32f4xx_hal_hcd.c ****         if (hhcd->hc[ch_num].toggle_out == 0U)
 419:Drivers/STM32F4xx_HAL_Driver/Src/stm32f4xx_hal_hcd.c ****         {
 420:Drivers/STM32F4xx_HAL_Driver/Src/stm32f4xx_hal_hcd.c ****           /* Put the PID 0 */
 421:Drivers/STM32F4xx_HAL_Driver/Src/stm32f4xx_hal_hcd.c ****           hhcd->hc[ch_num].data_pid = HC_PID_DATA0;
 422:Drivers/STM32F4xx_HAL_Driver/Src/stm32f4xx_hal_hcd.c ****         }
 423:Drivers/STM32F4xx_HAL_Driver/Src/stm32f4xx_hal_hcd.c ****         else
 424:Drivers/STM32F4xx_HAL_Driver/Src/stm32f4xx_hal_hcd.c ****         {
 425:Drivers/STM32F4xx_HAL_Driver/Src/stm32f4xx_hal_hcd.c ****           /* Put the PID 1 */
 426:Drivers/STM32F4xx_HAL_Driver/Src/stm32f4xx_hal_hcd.c ****           hhcd->hc[ch_num].data_pid = HC_PID_DATA1;
 427:Drivers/STM32F4xx_HAL_Driver/Src/stm32f4xx_hal_hcd.c ****         }
 428:Drivers/STM32F4xx_HAL_Driver/Src/stm32f4xx_hal_hcd.c ****       }
 429:Drivers/STM32F4xx_HAL_Driver/Src/stm32f4xx_hal_hcd.c ****       else
 430:Drivers/STM32F4xx_HAL_Driver/Src/stm32f4xx_hal_hcd.c ****       {
 431:Drivers/STM32F4xx_HAL_Driver/Src/stm32f4xx_hal_hcd.c ****         if (hhcd->hc[ch_num].toggle_in == 0U)
 432:Drivers/STM32F4xx_HAL_Driver/Src/stm32f4xx_hal_hcd.c ****         {
 433:Drivers/STM32F4xx_HAL_Driver/Src/stm32f4xx_hal_hcd.c ****           hhcd->hc[ch_num].data_pid = HC_PID_DATA0;
 434:Drivers/STM32F4xx_HAL_Driver/Src/stm32f4xx_hal_hcd.c ****         }
 435:Drivers/STM32F4xx_HAL_Driver/Src/stm32f4xx_hal_hcd.c ****         else
 436:Drivers/STM32F4xx_HAL_Driver/Src/stm32f4xx_hal_hcd.c ****         {
 437:Drivers/STM32F4xx_HAL_Driver/Src/stm32f4xx_hal_hcd.c ****           hhcd->hc[ch_num].data_pid = HC_PID_DATA1;
 438:Drivers/STM32F4xx_HAL_Driver/Src/stm32f4xx_hal_hcd.c ****         }
 439:Drivers/STM32F4xx_HAL_Driver/Src/stm32f4xx_hal_hcd.c ****       }
 440:Drivers/STM32F4xx_HAL_Driver/Src/stm32f4xx_hal_hcd.c **** 
 441:Drivers/STM32F4xx_HAL_Driver/Src/stm32f4xx_hal_hcd.c ****       break;
 442:Drivers/STM32F4xx_HAL_Driver/Src/stm32f4xx_hal_hcd.c ****     case EP_TYPE_INTR:
 443:Drivers/STM32F4xx_HAL_Driver/Src/stm32f4xx_hal_hcd.c ****       if (direction == 0U)
 444:Drivers/STM32F4xx_HAL_Driver/Src/stm32f4xx_hal_hcd.c ****       {
 445:Drivers/STM32F4xx_HAL_Driver/Src/stm32f4xx_hal_hcd.c ****         /* Set the Data Toggle bit as per the Flag */
 446:Drivers/STM32F4xx_HAL_Driver/Src/stm32f4xx_hal_hcd.c ****         if (hhcd->hc[ch_num].toggle_out == 0U)
 447:Drivers/STM32F4xx_HAL_Driver/Src/stm32f4xx_hal_hcd.c ****         {
 448:Drivers/STM32F4xx_HAL_Driver/Src/stm32f4xx_hal_hcd.c ****           /* Put the PID 0 */
 449:Drivers/STM32F4xx_HAL_Driver/Src/stm32f4xx_hal_hcd.c ****           hhcd->hc[ch_num].data_pid = HC_PID_DATA0;
 450:Drivers/STM32F4xx_HAL_Driver/Src/stm32f4xx_hal_hcd.c ****         }
ARM GAS  /var/folders/0z/tsy30v1j4xl4_7kw94k978ww0000gn/T//cc1wg7if.s 			page 19


 451:Drivers/STM32F4xx_HAL_Driver/Src/stm32f4xx_hal_hcd.c ****         else
 452:Drivers/STM32F4xx_HAL_Driver/Src/stm32f4xx_hal_hcd.c ****         {
 453:Drivers/STM32F4xx_HAL_Driver/Src/stm32f4xx_hal_hcd.c ****           /* Put the PID 1 */
 454:Drivers/STM32F4xx_HAL_Driver/Src/stm32f4xx_hal_hcd.c ****           hhcd->hc[ch_num].data_pid = HC_PID_DATA1;
 455:Drivers/STM32F4xx_HAL_Driver/Src/stm32f4xx_hal_hcd.c ****         }
 456:Drivers/STM32F4xx_HAL_Driver/Src/stm32f4xx_hal_hcd.c ****       }
 457:Drivers/STM32F4xx_HAL_Driver/Src/stm32f4xx_hal_hcd.c ****       else
 458:Drivers/STM32F4xx_HAL_Driver/Src/stm32f4xx_hal_hcd.c ****       {
 459:Drivers/STM32F4xx_HAL_Driver/Src/stm32f4xx_hal_hcd.c ****         if (hhcd->hc[ch_num].toggle_in == 0U)
 460:Drivers/STM32F4xx_HAL_Driver/Src/stm32f4xx_hal_hcd.c ****         {
 461:Drivers/STM32F4xx_HAL_Driver/Src/stm32f4xx_hal_hcd.c ****           hhcd->hc[ch_num].data_pid = HC_PID_DATA0;
 462:Drivers/STM32F4xx_HAL_Driver/Src/stm32f4xx_hal_hcd.c ****         }
 463:Drivers/STM32F4xx_HAL_Driver/Src/stm32f4xx_hal_hcd.c ****         else
 464:Drivers/STM32F4xx_HAL_Driver/Src/stm32f4xx_hal_hcd.c ****         {
 465:Drivers/STM32F4xx_HAL_Driver/Src/stm32f4xx_hal_hcd.c ****           hhcd->hc[ch_num].data_pid = HC_PID_DATA1;
 466:Drivers/STM32F4xx_HAL_Driver/Src/stm32f4xx_hal_hcd.c ****         }
 467:Drivers/STM32F4xx_HAL_Driver/Src/stm32f4xx_hal_hcd.c ****       }
 468:Drivers/STM32F4xx_HAL_Driver/Src/stm32f4xx_hal_hcd.c ****       break;
 469:Drivers/STM32F4xx_HAL_Driver/Src/stm32f4xx_hal_hcd.c **** 
 470:Drivers/STM32F4xx_HAL_Driver/Src/stm32f4xx_hal_hcd.c ****     case EP_TYPE_ISOC:
 471:Drivers/STM32F4xx_HAL_Driver/Src/stm32f4xx_hal_hcd.c ****       hhcd->hc[ch_num].data_pid = HC_PID_DATA0;
 507              		.loc 1 471 7 view .LVU139
 508              		.loc 1 471 33 is_stmt 0 view .LVU140
 509 0040 2C23     		movs	r3, #44
 510              	.LVL31:
 511              		.loc 1 471 33 view .LVU141
 512 0042 03FB0C03 		mla	r3, r3, ip, r0
 513 0046 0022     		movs	r2, #0
 514              	.LVL32:
 515              	.L52:
 516              		.loc 1 471 33 view .LVU142
 517 0048 83F84220 		strb	r2, [r3, #66]
 472:Drivers/STM32F4xx_HAL_Driver/Src/stm32f4xx_hal_hcd.c ****       break;
 518              		.loc 1 472 7 is_stmt 1 view .LVU143
 519              	.L35:
 473:Drivers/STM32F4xx_HAL_Driver/Src/stm32f4xx_hal_hcd.c **** 
 474:Drivers/STM32F4xx_HAL_Driver/Src/stm32f4xx_hal_hcd.c ****     default:
 475:Drivers/STM32F4xx_HAL_Driver/Src/stm32f4xx_hal_hcd.c ****       break;
 476:Drivers/STM32F4xx_HAL_Driver/Src/stm32f4xx_hal_hcd.c ****   }
 477:Drivers/STM32F4xx_HAL_Driver/Src/stm32f4xx_hal_hcd.c **** 
 478:Drivers/STM32F4xx_HAL_Driver/Src/stm32f4xx_hal_hcd.c ****   hhcd->hc[ch_num].xfer_buff = pbuff;
 520              		.loc 1 478 3 view .LVU144
 521              		.loc 1 478 30 is_stmt 0 view .LVU145
 522 004c 2C21     		movs	r1, #44
 523 004e 01FB0CF3 		mul	r3, r1, ip
 524 0052 C218     		adds	r2, r0, r3
 479:Drivers/STM32F4xx_HAL_Driver/Src/stm32f4xx_hal_hcd.c ****   hhcd->hc[ch_num].xfer_len  = length;
 480:Drivers/STM32F4xx_HAL_Driver/Src/stm32f4xx_hal_hcd.c ****   hhcd->hc[ch_num].urb_state = URB_IDLE;
 525              		.loc 1 480 30 view .LVU146
 526 0054 6033     		adds	r3, r3, #96
 479:Drivers/STM32F4xx_HAL_Driver/Src/stm32f4xx_hal_hcd.c ****   hhcd->hc[ch_num].xfer_len  = length;
 527              		.loc 1 479 30 view .LVU147
 528 0056 D464     		str	r4, [r2, #76]
 481:Drivers/STM32F4xx_HAL_Driver/Src/stm32f4xx_hal_hcd.c ****   hhcd->hc[ch_num].xfer_count = 0U;
 529              		.loc 1 481 31 view .LVU148
 530 0058 0024     		movs	r4, #0
 482:Drivers/STM32F4xx_HAL_Driver/Src/stm32f4xx_hal_hcd.c ****   hhcd->hc[ch_num].ch_num = ch_num;
ARM GAS  /var/folders/0z/tsy30v1j4xl4_7kw94k978ww0000gn/T//cc1wg7if.s 			page 20


 531              		.loc 1 482 27 view .LVU149
 532 005a 82F839C0 		strb	ip, [r2, #57]
 478:Drivers/STM32F4xx_HAL_Driver/Src/stm32f4xx_hal_hcd.c ****   hhcd->hc[ch_num].xfer_len  = length;
 533              		.loc 1 478 30 view .LVU150
 534 005e 5564     		str	r5, [r2, #68]
 479:Drivers/STM32F4xx_HAL_Driver/Src/stm32f4xx_hal_hcd.c ****   hhcd->hc[ch_num].urb_state = URB_IDLE;
 535              		.loc 1 479 3 is_stmt 1 view .LVU151
 480:Drivers/STM32F4xx_HAL_Driver/Src/stm32f4xx_hal_hcd.c ****   hhcd->hc[ch_num].xfer_count = 0U;
 536              		.loc 1 480 3 view .LVU152
 481:Drivers/STM32F4xx_HAL_Driver/Src/stm32f4xx_hal_hcd.c ****   hhcd->hc[ch_num].ch_num = ch_num;
 537              		.loc 1 481 3 view .LVU153
 481:Drivers/STM32F4xx_HAL_Driver/Src/stm32f4xx_hal_hcd.c ****   hhcd->hc[ch_num].ch_num = ch_num;
 538              		.loc 1 481 31 is_stmt 0 view .LVU154
 539 0060 1465     		str	r4, [r2, #80]
 540              		.loc 1 482 3 is_stmt 1 view .LVU155
 483:Drivers/STM32F4xx_HAL_Driver/Src/stm32f4xx_hal_hcd.c ****   hhcd->hc[ch_num].state = HC_IDLE;
 541              		.loc 1 483 3 view .LVU156
 480:Drivers/STM32F4xx_HAL_Driver/Src/stm32f4xx_hal_hcd.c ****   hhcd->hc[ch_num].xfer_count = 0U;
 542              		.loc 1 480 30 is_stmt 0 view .LVU157
 543 0062 C452     		strh	r4, [r0, r3]	@ movhi
 484:Drivers/STM32F4xx_HAL_Driver/Src/stm32f4xx_hal_hcd.c **** 
 485:Drivers/STM32F4xx_HAL_Driver/Src/stm32f4xx_hal_hcd.c ****   return USB_HC_StartXfer(hhcd->Instance, &hhcd->hc[ch_num], (uint8_t)hhcd->Init.dma_enable);
 544              		.loc 1 485 3 is_stmt 1 view .LVU158
 545              		.loc 1 485 43 is_stmt 0 view .LVU159
 546 0064 01FB0C01 		mla	r1, r1, ip, r0
 547              		.loc 1 485 10 view .LVU160
 548 0068 027C     		ldrb	r2, [r0, #16]	@ zero_extendqisi2
 549 006a 0068     		ldr	r0, [r0]
 550              	.LVL33:
 486:Drivers/STM32F4xx_HAL_Driver/Src/stm32f4xx_hal_hcd.c **** }
 551              		.loc 1 486 1 view .LVU161
 552 006c BDE87040 		pop	{r4, r5, r6, lr}
 553              		.cfi_remember_state
 554              		.cfi_restore 14
 555              		.cfi_restore 6
 556              		.cfi_restore 5
 557              		.cfi_restore 4
 558              		.cfi_def_cfa_offset 0
 559              	.LVL34:
 485:Drivers/STM32F4xx_HAL_Driver/Src/stm32f4xx_hal_hcd.c **** }
 560              		.loc 1 485 10 view .LVU162
 561 0070 3831     		adds	r1, r1, #56
 562 0072 FFF7FEBF 		b	USB_HC_StartXfer
 563              	.LVL35:
 564              	.L49:
 565              		.cfi_restore_state
 385:Drivers/STM32F4xx_HAL_Driver/Src/stm32f4xx_hal_hcd.c ****   }
 566              		.loc 1 385 31 view .LVU163
 567 0076 4FF0020E 		mov	lr, #2
 568 007a D6E7     		b	.L34
 569              	.L36:
 443:Drivers/STM32F4xx_HAL_Driver/Src/stm32f4xx_hal_hcd.c ****       {
 570              		.loc 1 443 7 is_stmt 1 view .LVU164
 446:Drivers/STM32F4xx_HAL_Driver/Src/stm32f4xx_hal_hcd.c ****         {
 571              		.loc 1 446 29 is_stmt 0 view .LVU165
 572 007c 2C23     		movs	r3, #44
 573              	.LVL36:
ARM GAS  /var/folders/0z/tsy30v1j4xl4_7kw94k978ww0000gn/T//cc1wg7if.s 			page 21


 446:Drivers/STM32F4xx_HAL_Driver/Src/stm32f4xx_hal_hcd.c ****         {
 574              		.loc 1 446 29 view .LVU166
 575 007e 03FB0C03 		mla	r3, r3, ip, r0
 443:Drivers/STM32F4xx_HAL_Driver/Src/stm32f4xx_hal_hcd.c ****       {
 576              		.loc 1 443 10 view .LVU167
 577 0082 C2B9     		cbnz	r2, .L46
 446:Drivers/STM32F4xx_HAL_Driver/Src/stm32f4xx_hal_hcd.c ****         {
 578              		.loc 1 446 9 is_stmt 1 view .LVU168
 446:Drivers/STM32F4xx_HAL_Driver/Src/stm32f4xx_hal_hcd.c ****         {
 579              		.loc 1 446 12 is_stmt 0 view .LVU169
 580 0084 93F85510 		ldrb	r1, [r3, #85]	@ zero_extendqisi2
 581 0088 0029     		cmp	r1, #0
 582 008a DDD0     		beq	.L52
 465:Drivers/STM32F4xx_HAL_Driver/Src/stm32f4xx_hal_hcd.c ****         }
 583              		.loc 1 465 11 is_stmt 1 view .LVU170
 465:Drivers/STM32F4xx_HAL_Driver/Src/stm32f4xx_hal_hcd.c ****         }
 584              		.loc 1 465 37 is_stmt 0 view .LVU171
 585 008c 0222     		movs	r2, #2
 586              	.LVL37:
 465:Drivers/STM32F4xx_HAL_Driver/Src/stm32f4xx_hal_hcd.c ****         }
 587              		.loc 1 465 37 view .LVU172
 588 008e 83F84220 		strb	r2, [r3, #66]
 589 0092 DBE7     		b	.L35
 590              	.LVL38:
 591              	.L40:
 392:Drivers/STM32F4xx_HAL_Driver/Src/stm32f4xx_hal_hcd.c ****       {
 592              		.loc 1 392 7 is_stmt 1 view .LVU173
 392:Drivers/STM32F4xx_HAL_Driver/Src/stm32f4xx_hal_hcd.c ****       {
 593              		.loc 1 392 10 is_stmt 0 view .LVU174
 594 0094 012E     		cmp	r6, #1
 595 0096 D9D1     		bne	.L35
 392:Drivers/STM32F4xx_HAL_Driver/Src/stm32f4xx_hal_hcd.c ****       {
 596              		.loc 1 392 25 discriminator 1 view .LVU175
 597 0098 002A     		cmp	r2, #0
 598 009a D7D1     		bne	.L35
 394:Drivers/STM32F4xx_HAL_Driver/Src/stm32f4xx_hal_hcd.c ****         {
 599              		.loc 1 394 9 is_stmt 1 view .LVU176
 397:Drivers/STM32F4xx_HAL_Driver/Src/stm32f4xx_hal_hcd.c ****         }
 600              		.loc 1 397 39 is_stmt 0 view .LVU177
 601 009c 2C23     		movs	r3, #44
 602              	.LVL39:
 397:Drivers/STM32F4xx_HAL_Driver/Src/stm32f4xx_hal_hcd.c ****         }
 603              		.loc 1 397 39 view .LVU178
 604 009e 03FB0C03 		mla	r3, r3, ip, r0
 394:Drivers/STM32F4xx_HAL_Driver/Src/stm32f4xx_hal_hcd.c ****         {
 605              		.loc 1 394 12 view .LVU179
 606 00a2 84B9     		cbnz	r4, .L41
 397:Drivers/STM32F4xx_HAL_Driver/Src/stm32f4xx_hal_hcd.c ****         }
 607              		.loc 1 397 11 is_stmt 1 view .LVU180
 397:Drivers/STM32F4xx_HAL_Driver/Src/stm32f4xx_hal_hcd.c ****         }
 608              		.loc 1 397 39 is_stmt 0 view .LVU181
 609 00a4 83F85560 		strb	r6, [r3, #85]
 401:Drivers/STM32F4xx_HAL_Driver/Src/stm32f4xx_hal_hcd.c ****         {
 610              		.loc 1 401 9 is_stmt 1 view .LVU182
 611              	.L42:
 409:Drivers/STM32F4xx_HAL_Driver/Src/stm32f4xx_hal_hcd.c ****         }
 612              		.loc 1 409 11 view .LVU183
ARM GAS  /var/folders/0z/tsy30v1j4xl4_7kw94k978ww0000gn/T//cc1wg7if.s 			page 22


 409:Drivers/STM32F4xx_HAL_Driver/Src/stm32f4xx_hal_hcd.c ****         }
 613              		.loc 1 409 37 is_stmt 0 view .LVU184
 614 00a8 2C23     		movs	r3, #44
 615 00aa 03FB0C03 		mla	r3, r3, ip, r0
 616 00ae 0222     		movs	r2, #2
 617              	.LVL40:
 409:Drivers/STM32F4xx_HAL_Driver/Src/stm32f4xx_hal_hcd.c ****         }
 618              		.loc 1 409 37 view .LVU185
 619 00b0 83F84220 		strb	r2, [r3, #66]
 620 00b4 CAE7     		b	.L35
 621              	.LVL41:
 622              	.L46:
 459:Drivers/STM32F4xx_HAL_Driver/Src/stm32f4xx_hal_hcd.c ****         {
 623              		.loc 1 459 9 is_stmt 1 view .LVU186
 459:Drivers/STM32F4xx_HAL_Driver/Src/stm32f4xx_hal_hcd.c ****         {
 624              		.loc 1 459 12 is_stmt 0 view .LVU187
 625 00b6 93F85420 		ldrb	r2, [r3, #84]	@ zero_extendqisi2
 626              	.LVL42:
 459:Drivers/STM32F4xx_HAL_Driver/Src/stm32f4xx_hal_hcd.c ****         {
 627              		.loc 1 459 12 view .LVU188
 628 00ba 002A     		cmp	r2, #0
 629 00bc C4D0     		beq	.L52
 465:Drivers/STM32F4xx_HAL_Driver/Src/stm32f4xx_hal_hcd.c ****         }
 630              		.loc 1 465 11 is_stmt 1 view .LVU189
 465:Drivers/STM32F4xx_HAL_Driver/Src/stm32f4xx_hal_hcd.c ****         }
 631              		.loc 1 465 37 is_stmt 0 view .LVU190
 632 00be 0222     		movs	r2, #2
 633 00c0 83F84220 		strb	r2, [r3, #66]
 634 00c4 C2E7     		b	.L35
 635              	.LVL43:
 636              	.L41:
 401:Drivers/STM32F4xx_HAL_Driver/Src/stm32f4xx_hal_hcd.c ****         {
 637              		.loc 1 401 9 is_stmt 1 view .LVU191
 401:Drivers/STM32F4xx_HAL_Driver/Src/stm32f4xx_hal_hcd.c ****         {
 638              		.loc 1 401 12 is_stmt 0 view .LVU192
 639 00c6 93F85510 		ldrb	r1, [r3, #85]	@ zero_extendqisi2
 640 00ca 0029     		cmp	r1, #0
 641 00cc BCD0     		beq	.L52
 642 00ce EBE7     		b	.L42
 643              		.cfi_endproc
 644              	.LFE136:
 646              		.section	.text.HAL_HCD_WKUP_IRQHandler,"ax",%progbits
 647              		.align	1
 648              		.p2align 2,,3
 649              		.global	HAL_HCD_WKUP_IRQHandler
 650              		.syntax unified
 651              		.thumb
 652              		.thumb_func
 654              	HAL_HCD_WKUP_IRQHandler:
 655              	.LVL44:
 656              	.LFB138:
 487:Drivers/STM32F4xx_HAL_Driver/Src/stm32f4xx_hal_hcd.c **** 
 488:Drivers/STM32F4xx_HAL_Driver/Src/stm32f4xx_hal_hcd.c **** /**
 489:Drivers/STM32F4xx_HAL_Driver/Src/stm32f4xx_hal_hcd.c ****   * @brief  Handle HCD interrupt request.
 490:Drivers/STM32F4xx_HAL_Driver/Src/stm32f4xx_hal_hcd.c ****   * @param  hhcd HCD handle
 491:Drivers/STM32F4xx_HAL_Driver/Src/stm32f4xx_hal_hcd.c ****   * @retval None
 492:Drivers/STM32F4xx_HAL_Driver/Src/stm32f4xx_hal_hcd.c ****   */
ARM GAS  /var/folders/0z/tsy30v1j4xl4_7kw94k978ww0000gn/T//cc1wg7if.s 			page 23


 493:Drivers/STM32F4xx_HAL_Driver/Src/stm32f4xx_hal_hcd.c **** void HAL_HCD_IRQHandler(HCD_HandleTypeDef *hhcd)
 494:Drivers/STM32F4xx_HAL_Driver/Src/stm32f4xx_hal_hcd.c **** {
 495:Drivers/STM32F4xx_HAL_Driver/Src/stm32f4xx_hal_hcd.c ****   USB_OTG_GlobalTypeDef *USBx = hhcd->Instance;
 496:Drivers/STM32F4xx_HAL_Driver/Src/stm32f4xx_hal_hcd.c ****   uint32_t USBx_BASE = (uint32_t)USBx;
 497:Drivers/STM32F4xx_HAL_Driver/Src/stm32f4xx_hal_hcd.c ****   uint32_t i;
 498:Drivers/STM32F4xx_HAL_Driver/Src/stm32f4xx_hal_hcd.c ****   uint32_t interrupt;
 499:Drivers/STM32F4xx_HAL_Driver/Src/stm32f4xx_hal_hcd.c **** 
 500:Drivers/STM32F4xx_HAL_Driver/Src/stm32f4xx_hal_hcd.c ****   /* Ensure that we are in device mode */
 501:Drivers/STM32F4xx_HAL_Driver/Src/stm32f4xx_hal_hcd.c ****   if (USB_GetMode(hhcd->Instance) == USB_OTG_MODE_HOST)
 502:Drivers/STM32F4xx_HAL_Driver/Src/stm32f4xx_hal_hcd.c ****   {
 503:Drivers/STM32F4xx_HAL_Driver/Src/stm32f4xx_hal_hcd.c ****     /* Avoid spurious interrupt */
 504:Drivers/STM32F4xx_HAL_Driver/Src/stm32f4xx_hal_hcd.c ****     if (__HAL_HCD_IS_INVALID_INTERRUPT(hhcd))
 505:Drivers/STM32F4xx_HAL_Driver/Src/stm32f4xx_hal_hcd.c ****     {
 506:Drivers/STM32F4xx_HAL_Driver/Src/stm32f4xx_hal_hcd.c ****       return;
 507:Drivers/STM32F4xx_HAL_Driver/Src/stm32f4xx_hal_hcd.c ****     }
 508:Drivers/STM32F4xx_HAL_Driver/Src/stm32f4xx_hal_hcd.c **** 
 509:Drivers/STM32F4xx_HAL_Driver/Src/stm32f4xx_hal_hcd.c ****     if (__HAL_HCD_GET_FLAG(hhcd, USB_OTG_GINTSTS_PXFR_INCOMPISOOUT))
 510:Drivers/STM32F4xx_HAL_Driver/Src/stm32f4xx_hal_hcd.c ****     {
 511:Drivers/STM32F4xx_HAL_Driver/Src/stm32f4xx_hal_hcd.c ****       /* Incorrect mode, acknowledge the interrupt */
 512:Drivers/STM32F4xx_HAL_Driver/Src/stm32f4xx_hal_hcd.c ****       __HAL_HCD_CLEAR_FLAG(hhcd, USB_OTG_GINTSTS_PXFR_INCOMPISOOUT);
 513:Drivers/STM32F4xx_HAL_Driver/Src/stm32f4xx_hal_hcd.c ****     }
 514:Drivers/STM32F4xx_HAL_Driver/Src/stm32f4xx_hal_hcd.c **** 
 515:Drivers/STM32F4xx_HAL_Driver/Src/stm32f4xx_hal_hcd.c ****     if (__HAL_HCD_GET_FLAG(hhcd, USB_OTG_GINTSTS_IISOIXFR))
 516:Drivers/STM32F4xx_HAL_Driver/Src/stm32f4xx_hal_hcd.c ****     {
 517:Drivers/STM32F4xx_HAL_Driver/Src/stm32f4xx_hal_hcd.c ****       /* Incorrect mode, acknowledge the interrupt */
 518:Drivers/STM32F4xx_HAL_Driver/Src/stm32f4xx_hal_hcd.c ****       __HAL_HCD_CLEAR_FLAG(hhcd, USB_OTG_GINTSTS_IISOIXFR);
 519:Drivers/STM32F4xx_HAL_Driver/Src/stm32f4xx_hal_hcd.c ****     }
 520:Drivers/STM32F4xx_HAL_Driver/Src/stm32f4xx_hal_hcd.c **** 
 521:Drivers/STM32F4xx_HAL_Driver/Src/stm32f4xx_hal_hcd.c ****     if (__HAL_HCD_GET_FLAG(hhcd, USB_OTG_GINTSTS_PTXFE))
 522:Drivers/STM32F4xx_HAL_Driver/Src/stm32f4xx_hal_hcd.c ****     {
 523:Drivers/STM32F4xx_HAL_Driver/Src/stm32f4xx_hal_hcd.c ****       /* Incorrect mode, acknowledge the interrupt */
 524:Drivers/STM32F4xx_HAL_Driver/Src/stm32f4xx_hal_hcd.c ****       __HAL_HCD_CLEAR_FLAG(hhcd, USB_OTG_GINTSTS_PTXFE);
 525:Drivers/STM32F4xx_HAL_Driver/Src/stm32f4xx_hal_hcd.c ****     }
 526:Drivers/STM32F4xx_HAL_Driver/Src/stm32f4xx_hal_hcd.c **** 
 527:Drivers/STM32F4xx_HAL_Driver/Src/stm32f4xx_hal_hcd.c ****     if (__HAL_HCD_GET_FLAG(hhcd, USB_OTG_GINTSTS_MMIS))
 528:Drivers/STM32F4xx_HAL_Driver/Src/stm32f4xx_hal_hcd.c ****     {
 529:Drivers/STM32F4xx_HAL_Driver/Src/stm32f4xx_hal_hcd.c ****       /* Incorrect mode, acknowledge the interrupt */
 530:Drivers/STM32F4xx_HAL_Driver/Src/stm32f4xx_hal_hcd.c ****       __HAL_HCD_CLEAR_FLAG(hhcd, USB_OTG_GINTSTS_MMIS);
 531:Drivers/STM32F4xx_HAL_Driver/Src/stm32f4xx_hal_hcd.c ****     }
 532:Drivers/STM32F4xx_HAL_Driver/Src/stm32f4xx_hal_hcd.c **** 
 533:Drivers/STM32F4xx_HAL_Driver/Src/stm32f4xx_hal_hcd.c ****     /* Handle Host Disconnect Interrupts */
 534:Drivers/STM32F4xx_HAL_Driver/Src/stm32f4xx_hal_hcd.c ****     if (__HAL_HCD_GET_FLAG(hhcd, USB_OTG_GINTSTS_DISCINT))
 535:Drivers/STM32F4xx_HAL_Driver/Src/stm32f4xx_hal_hcd.c ****     {
 536:Drivers/STM32F4xx_HAL_Driver/Src/stm32f4xx_hal_hcd.c ****       __HAL_HCD_CLEAR_FLAG(hhcd, USB_OTG_GINTSTS_DISCINT);
 537:Drivers/STM32F4xx_HAL_Driver/Src/stm32f4xx_hal_hcd.c **** 
 538:Drivers/STM32F4xx_HAL_Driver/Src/stm32f4xx_hal_hcd.c ****       if ((USBx_HPRT0 & USB_OTG_HPRT_PCSTS) == 0U)
 539:Drivers/STM32F4xx_HAL_Driver/Src/stm32f4xx_hal_hcd.c ****       {
 540:Drivers/STM32F4xx_HAL_Driver/Src/stm32f4xx_hal_hcd.c ****         /* Flush USB Fifo */
 541:Drivers/STM32F4xx_HAL_Driver/Src/stm32f4xx_hal_hcd.c ****         (void)USB_FlushTxFifo(USBx, 0x10U);
 542:Drivers/STM32F4xx_HAL_Driver/Src/stm32f4xx_hal_hcd.c ****         (void)USB_FlushRxFifo(USBx);
 543:Drivers/STM32F4xx_HAL_Driver/Src/stm32f4xx_hal_hcd.c **** 
 544:Drivers/STM32F4xx_HAL_Driver/Src/stm32f4xx_hal_hcd.c ****         /* Restore FS Clock */
 545:Drivers/STM32F4xx_HAL_Driver/Src/stm32f4xx_hal_hcd.c ****         (void)USB_InitFSLSPClkSel(hhcd->Instance, HCFG_48_MHZ);
 546:Drivers/STM32F4xx_HAL_Driver/Src/stm32f4xx_hal_hcd.c **** 
 547:Drivers/STM32F4xx_HAL_Driver/Src/stm32f4xx_hal_hcd.c ****         /* Handle Host Port Disconnect Interrupt */
 548:Drivers/STM32F4xx_HAL_Driver/Src/stm32f4xx_hal_hcd.c **** #if (USE_HAL_HCD_REGISTER_CALLBACKS == 1U)
 549:Drivers/STM32F4xx_HAL_Driver/Src/stm32f4xx_hal_hcd.c ****         hhcd->DisconnectCallback(hhcd);
ARM GAS  /var/folders/0z/tsy30v1j4xl4_7kw94k978ww0000gn/T//cc1wg7if.s 			page 24


 550:Drivers/STM32F4xx_HAL_Driver/Src/stm32f4xx_hal_hcd.c **** #else
 551:Drivers/STM32F4xx_HAL_Driver/Src/stm32f4xx_hal_hcd.c ****         HAL_HCD_Disconnect_Callback(hhcd);
 552:Drivers/STM32F4xx_HAL_Driver/Src/stm32f4xx_hal_hcd.c **** #endif /* USE_HAL_HCD_REGISTER_CALLBACKS */
 553:Drivers/STM32F4xx_HAL_Driver/Src/stm32f4xx_hal_hcd.c ****       }
 554:Drivers/STM32F4xx_HAL_Driver/Src/stm32f4xx_hal_hcd.c ****     }
 555:Drivers/STM32F4xx_HAL_Driver/Src/stm32f4xx_hal_hcd.c **** 
 556:Drivers/STM32F4xx_HAL_Driver/Src/stm32f4xx_hal_hcd.c ****     /* Handle Host Port Interrupts */
 557:Drivers/STM32F4xx_HAL_Driver/Src/stm32f4xx_hal_hcd.c ****     if (__HAL_HCD_GET_FLAG(hhcd, USB_OTG_GINTSTS_HPRTINT))
 558:Drivers/STM32F4xx_HAL_Driver/Src/stm32f4xx_hal_hcd.c ****     {
 559:Drivers/STM32F4xx_HAL_Driver/Src/stm32f4xx_hal_hcd.c ****       HCD_Port_IRQHandler(hhcd);
 560:Drivers/STM32F4xx_HAL_Driver/Src/stm32f4xx_hal_hcd.c ****     }
 561:Drivers/STM32F4xx_HAL_Driver/Src/stm32f4xx_hal_hcd.c **** 
 562:Drivers/STM32F4xx_HAL_Driver/Src/stm32f4xx_hal_hcd.c ****     /* Handle Host SOF Interrupt */
 563:Drivers/STM32F4xx_HAL_Driver/Src/stm32f4xx_hal_hcd.c ****     if (__HAL_HCD_GET_FLAG(hhcd, USB_OTG_GINTSTS_SOF))
 564:Drivers/STM32F4xx_HAL_Driver/Src/stm32f4xx_hal_hcd.c ****     {
 565:Drivers/STM32F4xx_HAL_Driver/Src/stm32f4xx_hal_hcd.c **** #if (USE_HAL_HCD_REGISTER_CALLBACKS == 1U)
 566:Drivers/STM32F4xx_HAL_Driver/Src/stm32f4xx_hal_hcd.c ****       hhcd->SOFCallback(hhcd);
 567:Drivers/STM32F4xx_HAL_Driver/Src/stm32f4xx_hal_hcd.c **** #else
 568:Drivers/STM32F4xx_HAL_Driver/Src/stm32f4xx_hal_hcd.c ****       HAL_HCD_SOF_Callback(hhcd);
 569:Drivers/STM32F4xx_HAL_Driver/Src/stm32f4xx_hal_hcd.c **** #endif /* USE_HAL_HCD_REGISTER_CALLBACKS */
 570:Drivers/STM32F4xx_HAL_Driver/Src/stm32f4xx_hal_hcd.c **** 
 571:Drivers/STM32F4xx_HAL_Driver/Src/stm32f4xx_hal_hcd.c ****       __HAL_HCD_CLEAR_FLAG(hhcd, USB_OTG_GINTSTS_SOF);
 572:Drivers/STM32F4xx_HAL_Driver/Src/stm32f4xx_hal_hcd.c ****     }
 573:Drivers/STM32F4xx_HAL_Driver/Src/stm32f4xx_hal_hcd.c **** 
 574:Drivers/STM32F4xx_HAL_Driver/Src/stm32f4xx_hal_hcd.c ****     /* Handle Rx Queue Level Interrupts */
 575:Drivers/STM32F4xx_HAL_Driver/Src/stm32f4xx_hal_hcd.c ****     if ((__HAL_HCD_GET_FLAG(hhcd, USB_OTG_GINTSTS_RXFLVL)) != 0U)
 576:Drivers/STM32F4xx_HAL_Driver/Src/stm32f4xx_hal_hcd.c ****     {
 577:Drivers/STM32F4xx_HAL_Driver/Src/stm32f4xx_hal_hcd.c ****       USB_MASK_INTERRUPT(hhcd->Instance, USB_OTG_GINTSTS_RXFLVL);
 578:Drivers/STM32F4xx_HAL_Driver/Src/stm32f4xx_hal_hcd.c **** 
 579:Drivers/STM32F4xx_HAL_Driver/Src/stm32f4xx_hal_hcd.c ****       HCD_RXQLVL_IRQHandler(hhcd);
 580:Drivers/STM32F4xx_HAL_Driver/Src/stm32f4xx_hal_hcd.c **** 
 581:Drivers/STM32F4xx_HAL_Driver/Src/stm32f4xx_hal_hcd.c ****       USB_UNMASK_INTERRUPT(hhcd->Instance, USB_OTG_GINTSTS_RXFLVL);
 582:Drivers/STM32F4xx_HAL_Driver/Src/stm32f4xx_hal_hcd.c ****     }
 583:Drivers/STM32F4xx_HAL_Driver/Src/stm32f4xx_hal_hcd.c **** 
 584:Drivers/STM32F4xx_HAL_Driver/Src/stm32f4xx_hal_hcd.c ****     /* Handle Host channel Interrupt */
 585:Drivers/STM32F4xx_HAL_Driver/Src/stm32f4xx_hal_hcd.c ****     if (__HAL_HCD_GET_FLAG(hhcd, USB_OTG_GINTSTS_HCINT))
 586:Drivers/STM32F4xx_HAL_Driver/Src/stm32f4xx_hal_hcd.c ****     {
 587:Drivers/STM32F4xx_HAL_Driver/Src/stm32f4xx_hal_hcd.c ****       interrupt = USB_HC_ReadInterrupt(hhcd->Instance);
 588:Drivers/STM32F4xx_HAL_Driver/Src/stm32f4xx_hal_hcd.c ****       for (i = 0U; i < hhcd->Init.Host_channels; i++)
 589:Drivers/STM32F4xx_HAL_Driver/Src/stm32f4xx_hal_hcd.c ****       {
 590:Drivers/STM32F4xx_HAL_Driver/Src/stm32f4xx_hal_hcd.c ****         if ((interrupt & (1UL << (i & 0xFU))) != 0U)
 591:Drivers/STM32F4xx_HAL_Driver/Src/stm32f4xx_hal_hcd.c ****         {
 592:Drivers/STM32F4xx_HAL_Driver/Src/stm32f4xx_hal_hcd.c ****           if ((USBx_HC(i)->HCCHAR & USB_OTG_HCCHAR_EPDIR) == USB_OTG_HCCHAR_EPDIR)
 593:Drivers/STM32F4xx_HAL_Driver/Src/stm32f4xx_hal_hcd.c ****           {
 594:Drivers/STM32F4xx_HAL_Driver/Src/stm32f4xx_hal_hcd.c ****             HCD_HC_IN_IRQHandler(hhcd, (uint8_t)i);
 595:Drivers/STM32F4xx_HAL_Driver/Src/stm32f4xx_hal_hcd.c ****           }
 596:Drivers/STM32F4xx_HAL_Driver/Src/stm32f4xx_hal_hcd.c ****           else
 597:Drivers/STM32F4xx_HAL_Driver/Src/stm32f4xx_hal_hcd.c ****           {
 598:Drivers/STM32F4xx_HAL_Driver/Src/stm32f4xx_hal_hcd.c ****             HCD_HC_OUT_IRQHandler(hhcd, (uint8_t)i);
 599:Drivers/STM32F4xx_HAL_Driver/Src/stm32f4xx_hal_hcd.c ****           }
 600:Drivers/STM32F4xx_HAL_Driver/Src/stm32f4xx_hal_hcd.c ****         }
 601:Drivers/STM32F4xx_HAL_Driver/Src/stm32f4xx_hal_hcd.c ****       }
 602:Drivers/STM32F4xx_HAL_Driver/Src/stm32f4xx_hal_hcd.c ****       __HAL_HCD_CLEAR_FLAG(hhcd, USB_OTG_GINTSTS_HCINT);
 603:Drivers/STM32F4xx_HAL_Driver/Src/stm32f4xx_hal_hcd.c ****     }
 604:Drivers/STM32F4xx_HAL_Driver/Src/stm32f4xx_hal_hcd.c ****   }
 605:Drivers/STM32F4xx_HAL_Driver/Src/stm32f4xx_hal_hcd.c **** }
 606:Drivers/STM32F4xx_HAL_Driver/Src/stm32f4xx_hal_hcd.c **** 
ARM GAS  /var/folders/0z/tsy30v1j4xl4_7kw94k978ww0000gn/T//cc1wg7if.s 			page 25


 607:Drivers/STM32F4xx_HAL_Driver/Src/stm32f4xx_hal_hcd.c **** 
 608:Drivers/STM32F4xx_HAL_Driver/Src/stm32f4xx_hal_hcd.c **** /**
 609:Drivers/STM32F4xx_HAL_Driver/Src/stm32f4xx_hal_hcd.c ****   * @brief  Handles HCD Wakeup interrupt request.
 610:Drivers/STM32F4xx_HAL_Driver/Src/stm32f4xx_hal_hcd.c ****   * @param  hhcd HCD handle
 611:Drivers/STM32F4xx_HAL_Driver/Src/stm32f4xx_hal_hcd.c ****   * @retval HAL status
 612:Drivers/STM32F4xx_HAL_Driver/Src/stm32f4xx_hal_hcd.c ****   */
 613:Drivers/STM32F4xx_HAL_Driver/Src/stm32f4xx_hal_hcd.c **** void HAL_HCD_WKUP_IRQHandler(HCD_HandleTypeDef *hhcd)
 614:Drivers/STM32F4xx_HAL_Driver/Src/stm32f4xx_hal_hcd.c **** {
 657              		.loc 1 614 1 is_stmt 1 view -0
 658              		.cfi_startproc
 659              		@ args = 0, pretend = 0, frame = 0
 660              		@ frame_needed = 0, uses_anonymous_args = 0
 661              		@ link register save eliminated.
 615:Drivers/STM32F4xx_HAL_Driver/Src/stm32f4xx_hal_hcd.c ****   UNUSED(hhcd);
 662              		.loc 1 615 3 view .LVU194
 616:Drivers/STM32F4xx_HAL_Driver/Src/stm32f4xx_hal_hcd.c **** }
 663              		.loc 1 616 1 is_stmt 0 view .LVU195
 664 0000 7047     		bx	lr
 665              		.cfi_endproc
 666              	.LFE138:
 668 0002 00BF     		.section	.text.HAL_HCD_SOF_Callback,"ax",%progbits
 669              		.align	1
 670              		.p2align 2,,3
 671              		.weak	HAL_HCD_SOF_Callback
 672              		.syntax unified
 673              		.thumb
 674              		.thumb_func
 676              	HAL_HCD_SOF_Callback:
 677              	.LFB161:
 678              		.cfi_startproc
 679              		@ args = 0, pretend = 0, frame = 0
 680              		@ frame_needed = 0, uses_anonymous_args = 0
 681              		@ link register save eliminated.
 682 0000 7047     		bx	lr
 683              		.cfi_endproc
 684              	.LFE161:
 686 0002 00BF     		.section	.text.HAL_HCD_Connect_Callback,"ax",%progbits
 687              		.align	1
 688              		.p2align 2,,3
 689              		.weak	HAL_HCD_Connect_Callback
 690              		.syntax unified
 691              		.thumb
 692              		.thumb_func
 694              	HAL_HCD_Connect_Callback:
 695              	.LFB163:
 696              		.cfi_startproc
 697              		@ args = 0, pretend = 0, frame = 0
 698              		@ frame_needed = 0, uses_anonymous_args = 0
 699              		@ link register save eliminated.
 700 0000 7047     		bx	lr
 701              		.cfi_endproc
 702              	.LFE163:
 704 0002 00BF     		.section	.text.HAL_HCD_Disconnect_Callback,"ax",%progbits
 705              		.align	1
 706              		.p2align 2,,3
 707              		.weak	HAL_HCD_Disconnect_Callback
 708              		.syntax unified
ARM GAS  /var/folders/0z/tsy30v1j4xl4_7kw94k978ww0000gn/T//cc1wg7if.s 			page 26


 709              		.thumb
 710              		.thumb_func
 712              	HAL_HCD_Disconnect_Callback:
 713              	.LFB165:
 714              		.cfi_startproc
 715              		@ args = 0, pretend = 0, frame = 0
 716              		@ frame_needed = 0, uses_anonymous_args = 0
 717              		@ link register save eliminated.
 718 0000 7047     		bx	lr
 719              		.cfi_endproc
 720              	.LFE165:
 722 0002 00BF     		.section	.text.HAL_HCD_PortEnabled_Callback,"ax",%progbits
 723              		.align	1
 724              		.p2align 2,,3
 725              		.weak	HAL_HCD_PortEnabled_Callback
 726              		.syntax unified
 727              		.thumb
 728              		.thumb_func
 730              	HAL_HCD_PortEnabled_Callback:
 731              	.LFB167:
 732              		.cfi_startproc
 733              		@ args = 0, pretend = 0, frame = 0
 734              		@ frame_needed = 0, uses_anonymous_args = 0
 735              		@ link register save eliminated.
 736 0000 7047     		bx	lr
 737              		.cfi_endproc
 738              	.LFE167:
 740 0002 00BF     		.section	.text.HAL_HCD_PortDisabled_Callback,"ax",%progbits
 741              		.align	1
 742              		.p2align 2,,3
 743              		.weak	HAL_HCD_PortDisabled_Callback
 744              		.syntax unified
 745              		.thumb
 746              		.thumb_func
 748              	HAL_HCD_PortDisabled_Callback:
 749              	.LFB169:
 750              		.cfi_startproc
 751              		@ args = 0, pretend = 0, frame = 0
 752              		@ frame_needed = 0, uses_anonymous_args = 0
 753              		@ link register save eliminated.
 754 0000 7047     		bx	lr
 755              		.cfi_endproc
 756              	.LFE169:
 758 0002 00BF     		.section	.text.HAL_HCD_HC_NotifyURBChange_Callback,"ax",%progbits
 759              		.align	1
 760              		.p2align 2,,3
 761              		.weak	HAL_HCD_HC_NotifyURBChange_Callback
 762              		.syntax unified
 763              		.thumb
 764              		.thumb_func
 766              	HAL_HCD_HC_NotifyURBChange_Callback:
 767              	.LVL45:
 768              	.LFB144:
 617:Drivers/STM32F4xx_HAL_Driver/Src/stm32f4xx_hal_hcd.c **** 
 618:Drivers/STM32F4xx_HAL_Driver/Src/stm32f4xx_hal_hcd.c **** 
 619:Drivers/STM32F4xx_HAL_Driver/Src/stm32f4xx_hal_hcd.c **** /**
 620:Drivers/STM32F4xx_HAL_Driver/Src/stm32f4xx_hal_hcd.c ****   * @brief  SOF callback.
ARM GAS  /var/folders/0z/tsy30v1j4xl4_7kw94k978ww0000gn/T//cc1wg7if.s 			page 27


 621:Drivers/STM32F4xx_HAL_Driver/Src/stm32f4xx_hal_hcd.c ****   * @param  hhcd HCD handle
 622:Drivers/STM32F4xx_HAL_Driver/Src/stm32f4xx_hal_hcd.c ****   * @retval None
 623:Drivers/STM32F4xx_HAL_Driver/Src/stm32f4xx_hal_hcd.c ****   */
 624:Drivers/STM32F4xx_HAL_Driver/Src/stm32f4xx_hal_hcd.c **** __weak void HAL_HCD_SOF_Callback(HCD_HandleTypeDef *hhcd)
 625:Drivers/STM32F4xx_HAL_Driver/Src/stm32f4xx_hal_hcd.c **** {
 626:Drivers/STM32F4xx_HAL_Driver/Src/stm32f4xx_hal_hcd.c ****   /* Prevent unused argument(s) compilation warning */
 627:Drivers/STM32F4xx_HAL_Driver/Src/stm32f4xx_hal_hcd.c ****   UNUSED(hhcd);
 628:Drivers/STM32F4xx_HAL_Driver/Src/stm32f4xx_hal_hcd.c **** 
 629:Drivers/STM32F4xx_HAL_Driver/Src/stm32f4xx_hal_hcd.c ****   /* NOTE : This function should not be modified, when the callback is needed,
 630:Drivers/STM32F4xx_HAL_Driver/Src/stm32f4xx_hal_hcd.c ****             the HAL_HCD_SOF_Callback could be implemented in the user file
 631:Drivers/STM32F4xx_HAL_Driver/Src/stm32f4xx_hal_hcd.c ****    */
 632:Drivers/STM32F4xx_HAL_Driver/Src/stm32f4xx_hal_hcd.c **** }
 633:Drivers/STM32F4xx_HAL_Driver/Src/stm32f4xx_hal_hcd.c **** 
 634:Drivers/STM32F4xx_HAL_Driver/Src/stm32f4xx_hal_hcd.c **** /**
 635:Drivers/STM32F4xx_HAL_Driver/Src/stm32f4xx_hal_hcd.c ****   * @brief Connection Event callback.
 636:Drivers/STM32F4xx_HAL_Driver/Src/stm32f4xx_hal_hcd.c ****   * @param  hhcd HCD handle
 637:Drivers/STM32F4xx_HAL_Driver/Src/stm32f4xx_hal_hcd.c ****   * @retval None
 638:Drivers/STM32F4xx_HAL_Driver/Src/stm32f4xx_hal_hcd.c ****   */
 639:Drivers/STM32F4xx_HAL_Driver/Src/stm32f4xx_hal_hcd.c **** __weak void HAL_HCD_Connect_Callback(HCD_HandleTypeDef *hhcd)
 640:Drivers/STM32F4xx_HAL_Driver/Src/stm32f4xx_hal_hcd.c **** {
 641:Drivers/STM32F4xx_HAL_Driver/Src/stm32f4xx_hal_hcd.c ****   /* Prevent unused argument(s) compilation warning */
 642:Drivers/STM32F4xx_HAL_Driver/Src/stm32f4xx_hal_hcd.c ****   UNUSED(hhcd);
 643:Drivers/STM32F4xx_HAL_Driver/Src/stm32f4xx_hal_hcd.c **** 
 644:Drivers/STM32F4xx_HAL_Driver/Src/stm32f4xx_hal_hcd.c ****   /* NOTE : This function should not be modified, when the callback is needed,
 645:Drivers/STM32F4xx_HAL_Driver/Src/stm32f4xx_hal_hcd.c ****             the HAL_HCD_Connect_Callback could be implemented in the user file
 646:Drivers/STM32F4xx_HAL_Driver/Src/stm32f4xx_hal_hcd.c ****    */
 647:Drivers/STM32F4xx_HAL_Driver/Src/stm32f4xx_hal_hcd.c **** }
 648:Drivers/STM32F4xx_HAL_Driver/Src/stm32f4xx_hal_hcd.c **** 
 649:Drivers/STM32F4xx_HAL_Driver/Src/stm32f4xx_hal_hcd.c **** /**
 650:Drivers/STM32F4xx_HAL_Driver/Src/stm32f4xx_hal_hcd.c ****   * @brief  Disconnection Event callback.
 651:Drivers/STM32F4xx_HAL_Driver/Src/stm32f4xx_hal_hcd.c ****   * @param  hhcd HCD handle
 652:Drivers/STM32F4xx_HAL_Driver/Src/stm32f4xx_hal_hcd.c ****   * @retval None
 653:Drivers/STM32F4xx_HAL_Driver/Src/stm32f4xx_hal_hcd.c ****   */
 654:Drivers/STM32F4xx_HAL_Driver/Src/stm32f4xx_hal_hcd.c **** __weak void HAL_HCD_Disconnect_Callback(HCD_HandleTypeDef *hhcd)
 655:Drivers/STM32F4xx_HAL_Driver/Src/stm32f4xx_hal_hcd.c **** {
 656:Drivers/STM32F4xx_HAL_Driver/Src/stm32f4xx_hal_hcd.c ****   /* Prevent unused argument(s) compilation warning */
 657:Drivers/STM32F4xx_HAL_Driver/Src/stm32f4xx_hal_hcd.c ****   UNUSED(hhcd);
 658:Drivers/STM32F4xx_HAL_Driver/Src/stm32f4xx_hal_hcd.c **** 
 659:Drivers/STM32F4xx_HAL_Driver/Src/stm32f4xx_hal_hcd.c ****   /* NOTE : This function should not be modified, when the callback is needed,
 660:Drivers/STM32F4xx_HAL_Driver/Src/stm32f4xx_hal_hcd.c ****             the HAL_HCD_Disconnect_Callback could be implemented in the user file
 661:Drivers/STM32F4xx_HAL_Driver/Src/stm32f4xx_hal_hcd.c ****    */
 662:Drivers/STM32F4xx_HAL_Driver/Src/stm32f4xx_hal_hcd.c **** }
 663:Drivers/STM32F4xx_HAL_Driver/Src/stm32f4xx_hal_hcd.c **** 
 664:Drivers/STM32F4xx_HAL_Driver/Src/stm32f4xx_hal_hcd.c **** /**
 665:Drivers/STM32F4xx_HAL_Driver/Src/stm32f4xx_hal_hcd.c ****   * @brief  Port Enabled  Event callback.
 666:Drivers/STM32F4xx_HAL_Driver/Src/stm32f4xx_hal_hcd.c ****   * @param  hhcd HCD handle
 667:Drivers/STM32F4xx_HAL_Driver/Src/stm32f4xx_hal_hcd.c ****   * @retval None
 668:Drivers/STM32F4xx_HAL_Driver/Src/stm32f4xx_hal_hcd.c ****   */
 669:Drivers/STM32F4xx_HAL_Driver/Src/stm32f4xx_hal_hcd.c **** __weak void HAL_HCD_PortEnabled_Callback(HCD_HandleTypeDef *hhcd)
 670:Drivers/STM32F4xx_HAL_Driver/Src/stm32f4xx_hal_hcd.c **** {
 671:Drivers/STM32F4xx_HAL_Driver/Src/stm32f4xx_hal_hcd.c ****   /* Prevent unused argument(s) compilation warning */
 672:Drivers/STM32F4xx_HAL_Driver/Src/stm32f4xx_hal_hcd.c ****   UNUSED(hhcd);
 673:Drivers/STM32F4xx_HAL_Driver/Src/stm32f4xx_hal_hcd.c **** 
 674:Drivers/STM32F4xx_HAL_Driver/Src/stm32f4xx_hal_hcd.c ****   /* NOTE : This function should not be modified, when the callback is needed,
 675:Drivers/STM32F4xx_HAL_Driver/Src/stm32f4xx_hal_hcd.c ****             the HAL_HCD_Disconnect_Callback could be implemented in the user file
 676:Drivers/STM32F4xx_HAL_Driver/Src/stm32f4xx_hal_hcd.c ****    */
 677:Drivers/STM32F4xx_HAL_Driver/Src/stm32f4xx_hal_hcd.c **** }
ARM GAS  /var/folders/0z/tsy30v1j4xl4_7kw94k978ww0000gn/T//cc1wg7if.s 			page 28


 678:Drivers/STM32F4xx_HAL_Driver/Src/stm32f4xx_hal_hcd.c **** 
 679:Drivers/STM32F4xx_HAL_Driver/Src/stm32f4xx_hal_hcd.c **** /**
 680:Drivers/STM32F4xx_HAL_Driver/Src/stm32f4xx_hal_hcd.c ****   * @brief  Port Disabled  Event callback.
 681:Drivers/STM32F4xx_HAL_Driver/Src/stm32f4xx_hal_hcd.c ****   * @param  hhcd HCD handle
 682:Drivers/STM32F4xx_HAL_Driver/Src/stm32f4xx_hal_hcd.c ****   * @retval None
 683:Drivers/STM32F4xx_HAL_Driver/Src/stm32f4xx_hal_hcd.c ****   */
 684:Drivers/STM32F4xx_HAL_Driver/Src/stm32f4xx_hal_hcd.c **** __weak void HAL_HCD_PortDisabled_Callback(HCD_HandleTypeDef *hhcd)
 685:Drivers/STM32F4xx_HAL_Driver/Src/stm32f4xx_hal_hcd.c **** {
 686:Drivers/STM32F4xx_HAL_Driver/Src/stm32f4xx_hal_hcd.c ****   /* Prevent unused argument(s) compilation warning */
 687:Drivers/STM32F4xx_HAL_Driver/Src/stm32f4xx_hal_hcd.c ****   UNUSED(hhcd);
 688:Drivers/STM32F4xx_HAL_Driver/Src/stm32f4xx_hal_hcd.c **** 
 689:Drivers/STM32F4xx_HAL_Driver/Src/stm32f4xx_hal_hcd.c ****   /* NOTE : This function should not be modified, when the callback is needed,
 690:Drivers/STM32F4xx_HAL_Driver/Src/stm32f4xx_hal_hcd.c ****             the HAL_HCD_Disconnect_Callback could be implemented in the user file
 691:Drivers/STM32F4xx_HAL_Driver/Src/stm32f4xx_hal_hcd.c ****    */
 692:Drivers/STM32F4xx_HAL_Driver/Src/stm32f4xx_hal_hcd.c **** }
 693:Drivers/STM32F4xx_HAL_Driver/Src/stm32f4xx_hal_hcd.c **** 
 694:Drivers/STM32F4xx_HAL_Driver/Src/stm32f4xx_hal_hcd.c **** /**
 695:Drivers/STM32F4xx_HAL_Driver/Src/stm32f4xx_hal_hcd.c ****   * @brief  Notify URB state change callback.
 696:Drivers/STM32F4xx_HAL_Driver/Src/stm32f4xx_hal_hcd.c ****   * @param  hhcd HCD handle
 697:Drivers/STM32F4xx_HAL_Driver/Src/stm32f4xx_hal_hcd.c ****   * @param  chnum Channel number.
 698:Drivers/STM32F4xx_HAL_Driver/Src/stm32f4xx_hal_hcd.c ****   *         This parameter can be a value from 1 to 15
 699:Drivers/STM32F4xx_HAL_Driver/Src/stm32f4xx_hal_hcd.c ****   * @param  urb_state:
 700:Drivers/STM32F4xx_HAL_Driver/Src/stm32f4xx_hal_hcd.c ****   *          This parameter can be one of these values:
 701:Drivers/STM32F4xx_HAL_Driver/Src/stm32f4xx_hal_hcd.c ****   *            URB_IDLE/
 702:Drivers/STM32F4xx_HAL_Driver/Src/stm32f4xx_hal_hcd.c ****   *            URB_DONE/
 703:Drivers/STM32F4xx_HAL_Driver/Src/stm32f4xx_hal_hcd.c ****   *            URB_NOTREADY/
 704:Drivers/STM32F4xx_HAL_Driver/Src/stm32f4xx_hal_hcd.c ****   *            URB_NYET/
 705:Drivers/STM32F4xx_HAL_Driver/Src/stm32f4xx_hal_hcd.c ****   *            URB_ERROR/
 706:Drivers/STM32F4xx_HAL_Driver/Src/stm32f4xx_hal_hcd.c ****   *            URB_STALL/
 707:Drivers/STM32F4xx_HAL_Driver/Src/stm32f4xx_hal_hcd.c ****   * @retval None
 708:Drivers/STM32F4xx_HAL_Driver/Src/stm32f4xx_hal_hcd.c ****   */
 709:Drivers/STM32F4xx_HAL_Driver/Src/stm32f4xx_hal_hcd.c **** __weak void HAL_HCD_HC_NotifyURBChange_Callback(HCD_HandleTypeDef *hhcd, uint8_t chnum, HCD_URBStat
 710:Drivers/STM32F4xx_HAL_Driver/Src/stm32f4xx_hal_hcd.c **** {
 769              		.loc 1 710 1 is_stmt 1 view -0
 770              		.cfi_startproc
 771              		@ args = 0, pretend = 0, frame = 0
 772              		@ frame_needed = 0, uses_anonymous_args = 0
 773              		@ link register save eliminated.
 711:Drivers/STM32F4xx_HAL_Driver/Src/stm32f4xx_hal_hcd.c ****   /* Prevent unused argument(s) compilation warning */
 712:Drivers/STM32F4xx_HAL_Driver/Src/stm32f4xx_hal_hcd.c ****   UNUSED(hhcd);
 774              		.loc 1 712 3 view .LVU197
 713:Drivers/STM32F4xx_HAL_Driver/Src/stm32f4xx_hal_hcd.c ****   UNUSED(chnum);
 775              		.loc 1 713 3 view .LVU198
 714:Drivers/STM32F4xx_HAL_Driver/Src/stm32f4xx_hal_hcd.c ****   UNUSED(urb_state);
 776              		.loc 1 714 3 view .LVU199
 715:Drivers/STM32F4xx_HAL_Driver/Src/stm32f4xx_hal_hcd.c **** 
 716:Drivers/STM32F4xx_HAL_Driver/Src/stm32f4xx_hal_hcd.c ****   /* NOTE : This function should not be modified, when the callback is needed,
 717:Drivers/STM32F4xx_HAL_Driver/Src/stm32f4xx_hal_hcd.c ****             the HAL_HCD_HC_NotifyURBChange_Callback could be implemented in the user file
 718:Drivers/STM32F4xx_HAL_Driver/Src/stm32f4xx_hal_hcd.c ****    */
 719:Drivers/STM32F4xx_HAL_Driver/Src/stm32f4xx_hal_hcd.c **** }
 777              		.loc 1 719 1 is_stmt 0 view .LVU200
 778 0000 7047     		bx	lr
 779              		.cfi_endproc
 780              	.LFE144:
 782 0002 00BF     		.section	.text.HAL_HCD_IRQHandler,"ax",%progbits
 783              		.align	1
 784              		.p2align 2,,3
ARM GAS  /var/folders/0z/tsy30v1j4xl4_7kw94k978ww0000gn/T//cc1wg7if.s 			page 29


 785              		.global	HAL_HCD_IRQHandler
 786              		.syntax unified
 787              		.thumb
 788              		.thumb_func
 790              	HAL_HCD_IRQHandler:
 791              	.LVL46:
 792              	.LFB137:
 494:Drivers/STM32F4xx_HAL_Driver/Src/stm32f4xx_hal_hcd.c ****   USB_OTG_GlobalTypeDef *USBx = hhcd->Instance;
 793              		.loc 1 494 1 is_stmt 1 view -0
 794              		.cfi_startproc
 795              		@ args = 0, pretend = 0, frame = 16
 796              		@ frame_needed = 0, uses_anonymous_args = 0
 495:Drivers/STM32F4xx_HAL_Driver/Src/stm32f4xx_hal_hcd.c ****   uint32_t USBx_BASE = (uint32_t)USBx;
 797              		.loc 1 495 3 view .LVU202
 494:Drivers/STM32F4xx_HAL_Driver/Src/stm32f4xx_hal_hcd.c ****   USB_OTG_GlobalTypeDef *USBx = hhcd->Instance;
 798              		.loc 1 494 1 is_stmt 0 view .LVU203
 799 0000 2DE9F04F 		push	{r4, r5, r6, r7, r8, r9, r10, fp, lr}
 800              		.cfi_def_cfa_offset 36
 801              		.cfi_offset 4, -36
 802              		.cfi_offset 5, -32
 803              		.cfi_offset 6, -28
 804              		.cfi_offset 7, -24
 805              		.cfi_offset 8, -20
 806              		.cfi_offset 9, -16
 807              		.cfi_offset 10, -12
 808              		.cfi_offset 11, -8
 809              		.cfi_offset 14, -4
 495:Drivers/STM32F4xx_HAL_Driver/Src/stm32f4xx_hal_hcd.c ****   uint32_t USBx_BASE = (uint32_t)USBx;
 810              		.loc 1 495 26 view .LVU204
 811 0004 0568     		ldr	r5, [r0]
 812              	.LVL47:
 496:Drivers/STM32F4xx_HAL_Driver/Src/stm32f4xx_hal_hcd.c ****   uint32_t i;
 813              		.loc 1 496 3 is_stmt 1 view .LVU205
 497:Drivers/STM32F4xx_HAL_Driver/Src/stm32f4xx_hal_hcd.c ****   uint32_t interrupt;
 814              		.loc 1 497 3 view .LVU206
 498:Drivers/STM32F4xx_HAL_Driver/Src/stm32f4xx_hal_hcd.c **** 
 815              		.loc 1 498 3 view .LVU207
 501:Drivers/STM32F4xx_HAL_Driver/Src/stm32f4xx_hal_hcd.c ****   {
 816              		.loc 1 501 3 view .LVU208
 494:Drivers/STM32F4xx_HAL_Driver/Src/stm32f4xx_hal_hcd.c ****   USB_OTG_GlobalTypeDef *USBx = hhcd->Instance;
 817              		.loc 1 494 1 is_stmt 0 view .LVU209
 818 0006 85B0     		sub	sp, sp, #20
 819              		.cfi_def_cfa_offset 56
 494:Drivers/STM32F4xx_HAL_Driver/Src/stm32f4xx_hal_hcd.c ****   USB_OTG_GlobalTypeDef *USBx = hhcd->Instance;
 820              		.loc 1 494 1 view .LVU210
 821 0008 0446     		mov	r4, r0
 501:Drivers/STM32F4xx_HAL_Driver/Src/stm32f4xx_hal_hcd.c ****   {
 822              		.loc 1 501 7 view .LVU211
 823 000a 2846     		mov	r0, r5
 824              	.LVL48:
 501:Drivers/STM32F4xx_HAL_Driver/Src/stm32f4xx_hal_hcd.c ****   {
 825              		.loc 1 501 7 view .LVU212
 826 000c FFF7FEFF 		bl	USB_GetMode
 827              	.LVL49:
 501:Drivers/STM32F4xx_HAL_Driver/Src/stm32f4xx_hal_hcd.c ****   {
 828              		.loc 1 501 6 view .LVU213
 829 0010 0128     		cmp	r0, #1
ARM GAS  /var/folders/0z/tsy30v1j4xl4_7kw94k978ww0000gn/T//cc1wg7if.s 			page 30


 830 0012 02D0     		beq	.L213
 831              	.LVL50:
 832              	.L65:
 605:Drivers/STM32F4xx_HAL_Driver/Src/stm32f4xx_hal_hcd.c **** 
 833              		.loc 1 605 1 view .LVU214
 834 0014 05B0     		add	sp, sp, #20
 835              		.cfi_remember_state
 836              		.cfi_def_cfa_offset 36
 837              		@ sp needed
 838 0016 BDE8F08F 		pop	{r4, r5, r6, r7, r8, r9, r10, fp, pc}
 839              	.LVL51:
 840              	.L213:
 841              		.cfi_restore_state
 504:Drivers/STM32F4xx_HAL_Driver/Src/stm32f4xx_hal_hcd.c ****     {
 842              		.loc 1 504 5 is_stmt 1 view .LVU215
 504:Drivers/STM32F4xx_HAL_Driver/Src/stm32f4xx_hal_hcd.c ****     {
 843              		.loc 1 504 9 is_stmt 0 view .LVU216
 844 001a 2068     		ldr	r0, [r4]
 845 001c FFF7FEFF 		bl	USB_ReadInterrupts
 846              	.LVL52:
 504:Drivers/STM32F4xx_HAL_Driver/Src/stm32f4xx_hal_hcd.c ****     {
 847              		.loc 1 504 8 view .LVU217
 848 0020 0028     		cmp	r0, #0
 849 0022 F7D0     		beq	.L65
 509:Drivers/STM32F4xx_HAL_Driver/Src/stm32f4xx_hal_hcd.c ****     {
 850              		.loc 1 509 5 is_stmt 1 view .LVU218
 509:Drivers/STM32F4xx_HAL_Driver/Src/stm32f4xx_hal_hcd.c ****     {
 851              		.loc 1 509 9 is_stmt 0 view .LVU219
 852 0024 2068     		ldr	r0, [r4]
 853 0026 FFF7FEFF 		bl	USB_ReadInterrupts
 854              	.LVL53:
 509:Drivers/STM32F4xx_HAL_Driver/Src/stm32f4xx_hal_hcd.c ****     {
 855              		.loc 1 509 8 view .LVU220
 856 002a 10F4001F 		tst	r0, #2097152
 512:Drivers/STM32F4xx_HAL_Driver/Src/stm32f4xx_hal_hcd.c ****     }
 857              		.loc 1 512 7 view .LVU221
 858 002e 2068     		ldr	r0, [r4]
 512:Drivers/STM32F4xx_HAL_Driver/Src/stm32f4xx_hal_hcd.c ****     }
 859              		.loc 1 512 7 is_stmt 1 view .LVU222
 515:Drivers/STM32F4xx_HAL_Driver/Src/stm32f4xx_hal_hcd.c ****     {
 860              		.loc 1 515 5 view .LVU223
 512:Drivers/STM32F4xx_HAL_Driver/Src/stm32f4xx_hal_hcd.c ****     }
 861              		.loc 1 512 7 is_stmt 0 view .LVU224
 862 0030 1CBF     		itt	ne
 863 0032 4FF40013 		movne	r3, #2097152
 864 0036 4361     		strne	r3, [r0, #20]
 515:Drivers/STM32F4xx_HAL_Driver/Src/stm32f4xx_hal_hcd.c ****     {
 865              		.loc 1 515 9 view .LVU225
 866 0038 FFF7FEFF 		bl	USB_ReadInterrupts
 867              	.LVL54:
 515:Drivers/STM32F4xx_HAL_Driver/Src/stm32f4xx_hal_hcd.c ****     {
 868              		.loc 1 515 8 view .LVU226
 869 003c 10F4801F 		tst	r0, #1048576
 518:Drivers/STM32F4xx_HAL_Driver/Src/stm32f4xx_hal_hcd.c ****     }
 870              		.loc 1 518 7 view .LVU227
 871 0040 2068     		ldr	r0, [r4]
 518:Drivers/STM32F4xx_HAL_Driver/Src/stm32f4xx_hal_hcd.c ****     }
ARM GAS  /var/folders/0z/tsy30v1j4xl4_7kw94k978ww0000gn/T//cc1wg7if.s 			page 31


 872              		.loc 1 518 7 is_stmt 1 view .LVU228
 521:Drivers/STM32F4xx_HAL_Driver/Src/stm32f4xx_hal_hcd.c ****     {
 873              		.loc 1 521 5 view .LVU229
 518:Drivers/STM32F4xx_HAL_Driver/Src/stm32f4xx_hal_hcd.c ****     }
 874              		.loc 1 518 7 is_stmt 0 view .LVU230
 875 0042 1CBF     		itt	ne
 876 0044 4FF48013 		movne	r3, #1048576
 877 0048 4361     		strne	r3, [r0, #20]
 521:Drivers/STM32F4xx_HAL_Driver/Src/stm32f4xx_hal_hcd.c ****     {
 878              		.loc 1 521 9 view .LVU231
 879 004a FFF7FEFF 		bl	USB_ReadInterrupts
 880              	.LVL55:
 521:Drivers/STM32F4xx_HAL_Driver/Src/stm32f4xx_hal_hcd.c ****     {
 881              		.loc 1 521 8 view .LVU232
 882 004e 10F0806F 		tst	r0, #67108864
 524:Drivers/STM32F4xx_HAL_Driver/Src/stm32f4xx_hal_hcd.c ****     }
 883              		.loc 1 524 7 view .LVU233
 884 0052 2068     		ldr	r0, [r4]
 524:Drivers/STM32F4xx_HAL_Driver/Src/stm32f4xx_hal_hcd.c ****     }
 885              		.loc 1 524 7 is_stmt 1 view .LVU234
 527:Drivers/STM32F4xx_HAL_Driver/Src/stm32f4xx_hal_hcd.c ****     {
 886              		.loc 1 527 5 view .LVU235
 524:Drivers/STM32F4xx_HAL_Driver/Src/stm32f4xx_hal_hcd.c ****     }
 887              		.loc 1 524 7 is_stmt 0 view .LVU236
 888 0054 1CBF     		itt	ne
 889 0056 4FF08063 		movne	r3, #67108864
 890 005a 4361     		strne	r3, [r0, #20]
 527:Drivers/STM32F4xx_HAL_Driver/Src/stm32f4xx_hal_hcd.c ****     {
 891              		.loc 1 527 9 view .LVU237
 892 005c FFF7FEFF 		bl	USB_ReadInterrupts
 893              	.LVL56:
 527:Drivers/STM32F4xx_HAL_Driver/Src/stm32f4xx_hal_hcd.c ****     {
 894              		.loc 1 527 8 view .LVU238
 895 0060 10F0020F 		tst	r0, #2
 530:Drivers/STM32F4xx_HAL_Driver/Src/stm32f4xx_hal_hcd.c ****     }
 896              		.loc 1 530 7 view .LVU239
 897 0064 2068     		ldr	r0, [r4]
 530:Drivers/STM32F4xx_HAL_Driver/Src/stm32f4xx_hal_hcd.c ****     }
 898              		.loc 1 530 7 is_stmt 1 view .LVU240
 534:Drivers/STM32F4xx_HAL_Driver/Src/stm32f4xx_hal_hcd.c ****     {
 899              		.loc 1 534 5 view .LVU241
 530:Drivers/STM32F4xx_HAL_Driver/Src/stm32f4xx_hal_hcd.c ****     }
 900              		.loc 1 530 7 is_stmt 0 view .LVU242
 901 0066 1CBF     		itt	ne
 902 0068 0223     		movne	r3, #2
 903 006a 4361     		strne	r3, [r0, #20]
 534:Drivers/STM32F4xx_HAL_Driver/Src/stm32f4xx_hal_hcd.c ****     {
 904              		.loc 1 534 9 view .LVU243
 905 006c FFF7FEFF 		bl	USB_ReadInterrupts
 906              	.LVL57:
 534:Drivers/STM32F4xx_HAL_Driver/Src/stm32f4xx_hal_hcd.c ****     {
 907              		.loc 1 534 8 view .LVU244
 908 0070 10F0005F 		tst	r0, #536870912
 536:Drivers/STM32F4xx_HAL_Driver/Src/stm32f4xx_hal_hcd.c **** 
 909              		.loc 1 536 7 view .LVU245
 910 0074 2068     		ldr	r0, [r4]
 534:Drivers/STM32F4xx_HAL_Driver/Src/stm32f4xx_hal_hcd.c ****     {
ARM GAS  /var/folders/0z/tsy30v1j4xl4_7kw94k978ww0000gn/T//cc1wg7if.s 			page 32


 911              		.loc 1 534 8 view .LVU246
 912 0076 40F0BD80 		bne	.L77
 913              	.L78:
 557:Drivers/STM32F4xx_HAL_Driver/Src/stm32f4xx_hal_hcd.c ****     {
 914              		.loc 1 557 5 is_stmt 1 view .LVU247
 557:Drivers/STM32F4xx_HAL_Driver/Src/stm32f4xx_hal_hcd.c ****     {
 915              		.loc 1 557 9 is_stmt 0 view .LVU248
 916 007a FFF7FEFF 		bl	USB_ReadInterrupts
 917              	.LVL58:
 557:Drivers/STM32F4xx_HAL_Driver/Src/stm32f4xx_hal_hcd.c ****     {
 918              		.loc 1 557 8 view .LVU249
 919 007e C601     		lsls	r6, r0, #7
 920 0080 00F1EA80 		bmi	.L214
 921              	.L79:
 563:Drivers/STM32F4xx_HAL_Driver/Src/stm32f4xx_hal_hcd.c ****     {
 922              		.loc 1 563 5 is_stmt 1 view .LVU250
 563:Drivers/STM32F4xx_HAL_Driver/Src/stm32f4xx_hal_hcd.c ****     {
 923              		.loc 1 563 9 is_stmt 0 view .LVU251
 924 0084 2068     		ldr	r0, [r4]
 925 0086 FFF7FEFF 		bl	USB_ReadInterrupts
 926              	.LVL59:
 563:Drivers/STM32F4xx_HAL_Driver/Src/stm32f4xx_hal_hcd.c ****     {
 927              		.loc 1 563 8 view .LVU252
 928 008a 0007     		lsls	r0, r0, #28
 929 008c 00F1DD80 		bmi	.L88
 575:Drivers/STM32F4xx_HAL_Driver/Src/stm32f4xx_hal_hcd.c ****     {
 930              		.loc 1 575 10 view .LVU253
 931 0090 2068     		ldr	r0, [r4]
 932              	.L89:
 575:Drivers/STM32F4xx_HAL_Driver/Src/stm32f4xx_hal_hcd.c ****     {
 933              		.loc 1 575 5 is_stmt 1 view .LVU254
 575:Drivers/STM32F4xx_HAL_Driver/Src/stm32f4xx_hal_hcd.c ****     {
 934              		.loc 1 575 10 is_stmt 0 view .LVU255
 935 0092 FFF7FEFF 		bl	USB_ReadInterrupts
 936              	.LVL60:
 575:Drivers/STM32F4xx_HAL_Driver/Src/stm32f4xx_hal_hcd.c ****     {
 937              		.loc 1 575 60 view .LVU256
 938 0096 C106     		lsls	r1, r0, #27
 577:Drivers/STM32F4xx_HAL_Driver/Src/stm32f4xx_hal_hcd.c **** 
 939              		.loc 1 577 7 view .LVU257
 940 0098 2668     		ldr	r6, [r4]
 575:Drivers/STM32F4xx_HAL_Driver/Src/stm32f4xx_hal_hcd.c ****     {
 941              		.loc 1 575 60 view .LVU258
 942 009a 00F1C780 		bmi	.L90
 943              	.L91:
 585:Drivers/STM32F4xx_HAL_Driver/Src/stm32f4xx_hal_hcd.c ****     {
 944              		.loc 1 585 5 is_stmt 1 view .LVU259
 585:Drivers/STM32F4xx_HAL_Driver/Src/stm32f4xx_hal_hcd.c ****     {
 945              		.loc 1 585 9 is_stmt 0 view .LVU260
 946 009e 3046     		mov	r0, r6
 947 00a0 FFF7FEFF 		bl	USB_ReadInterrupts
 948              	.LVL61:
 585:Drivers/STM32F4xx_HAL_Driver/Src/stm32f4xx_hal_hcd.c ****     {
 949              		.loc 1 585 8 view .LVU261
 950 00a4 8201     		lsls	r2, r0, #6
 951 00a6 B5D5     		bpl	.L65
 587:Drivers/STM32F4xx_HAL_Driver/Src/stm32f4xx_hal_hcd.c ****       for (i = 0U; i < hhcd->Init.Host_channels; i++)
ARM GAS  /var/folders/0z/tsy30v1j4xl4_7kw94k978ww0000gn/T//cc1wg7if.s 			page 33


 952              		.loc 1 587 7 is_stmt 1 view .LVU262
 587:Drivers/STM32F4xx_HAL_Driver/Src/stm32f4xx_hal_hcd.c ****       for (i = 0U; i < hhcd->Init.Host_channels; i++)
 953              		.loc 1 587 19 is_stmt 0 view .LVU263
 954 00a8 2068     		ldr	r0, [r4]
 955 00aa FFF7FEFF 		bl	USB_HC_ReadInterrupt
 956              	.LVL62:
 588:Drivers/STM32F4xx_HAL_Driver/Src/stm32f4xx_hal_hcd.c ****       {
 957              		.loc 1 588 34 view .LVU264
 958 00ae A268     		ldr	r2, [r4, #8]
 587:Drivers/STM32F4xx_HAL_Driver/Src/stm32f4xx_hal_hcd.c ****       for (i = 0U; i < hhcd->Init.Host_channels; i++)
 959              		.loc 1 587 19 view .LVU265
 960 00b0 0746     		mov	r7, r0
 961              	.LVL63:
 588:Drivers/STM32F4xx_HAL_Driver/Src/stm32f4xx_hal_hcd.c ****       {
 962              		.loc 1 588 7 is_stmt 1 view .LVU266
 588:Drivers/STM32F4xx_HAL_Driver/Src/stm32f4xx_hal_hcd.c ****       {
 963              		.loc 1 588 22 view .LVU267
 602:Drivers/STM32F4xx_HAL_Driver/Src/stm32f4xx_hal_hcd.c ****     }
 964              		.loc 1 602 7 is_stmt 0 view .LVU268
 965 00b2 2068     		ldr	r0, [r4]
 966              	.LVL64:
 588:Drivers/STM32F4xx_HAL_Driver/Src/stm32f4xx_hal_hcd.c ****       {
 967              		.loc 1 588 22 view .LVU269
 968 00b4 002A     		cmp	r2, #0
 969 00b6 00F0B580 		beq	.L151
 970 00ba 05F5A065 		add	r5, r5, #1280
 971              	.LVL65:
 588:Drivers/STM32F4xx_HAL_Driver/Src/stm32f4xx_hal_hcd.c ****       {
 972              		.loc 1 588 14 view .LVU270
 973 00be 0026     		movs	r6, #0
 974              	.LBB10:
 975              	.LBB11:
 720:Drivers/STM32F4xx_HAL_Driver/Src/stm32f4xx_hal_hcd.c **** 
 721:Drivers/STM32F4xx_HAL_Driver/Src/stm32f4xx_hal_hcd.c **** #if (USE_HAL_HCD_REGISTER_CALLBACKS == 1U)
 722:Drivers/STM32F4xx_HAL_Driver/Src/stm32f4xx_hal_hcd.c **** /**
 723:Drivers/STM32F4xx_HAL_Driver/Src/stm32f4xx_hal_hcd.c ****   * @brief  Register a User USB HCD Callback
 724:Drivers/STM32F4xx_HAL_Driver/Src/stm32f4xx_hal_hcd.c ****   *         To be used instead of the weak predefined callback
 725:Drivers/STM32F4xx_HAL_Driver/Src/stm32f4xx_hal_hcd.c ****   * @param  hhcd USB HCD handle
 726:Drivers/STM32F4xx_HAL_Driver/Src/stm32f4xx_hal_hcd.c ****   * @param  CallbackID ID of the callback to be registered
 727:Drivers/STM32F4xx_HAL_Driver/Src/stm32f4xx_hal_hcd.c ****   *         This parameter can be one of the following values:
 728:Drivers/STM32F4xx_HAL_Driver/Src/stm32f4xx_hal_hcd.c ****   *          @arg @ref HAL_HCD_SOF_CB_ID USB HCD SOF callback ID
 729:Drivers/STM32F4xx_HAL_Driver/Src/stm32f4xx_hal_hcd.c ****   *          @arg @ref HAL_HCD_CONNECT_CB_ID USB HCD Connect callback ID
 730:Drivers/STM32F4xx_HAL_Driver/Src/stm32f4xx_hal_hcd.c ****   *          @arg @ref HAL_HCD_DISCONNECT_CB_ID OTG HCD Disconnect callback ID
 731:Drivers/STM32F4xx_HAL_Driver/Src/stm32f4xx_hal_hcd.c ****   *          @arg @ref HAL_HCD_PORT_ENABLED_CB_ID USB HCD Port Enable callback ID
 732:Drivers/STM32F4xx_HAL_Driver/Src/stm32f4xx_hal_hcd.c ****   *          @arg @ref HAL_HCD_PORT_DISABLED_CB_ID USB HCD Port Disable callback ID
 733:Drivers/STM32F4xx_HAL_Driver/Src/stm32f4xx_hal_hcd.c ****   *          @arg @ref HAL_HCD_MSPINIT_CB_ID MspDeInit callback ID
 734:Drivers/STM32F4xx_HAL_Driver/Src/stm32f4xx_hal_hcd.c ****   *          @arg @ref HAL_HCD_MSPDEINIT_CB_ID MspDeInit callback ID
 735:Drivers/STM32F4xx_HAL_Driver/Src/stm32f4xx_hal_hcd.c ****   * @param  pCallback pointer to the Callback function
 736:Drivers/STM32F4xx_HAL_Driver/Src/stm32f4xx_hal_hcd.c ****   * @retval HAL status
 737:Drivers/STM32F4xx_HAL_Driver/Src/stm32f4xx_hal_hcd.c ****   */
 738:Drivers/STM32F4xx_HAL_Driver/Src/stm32f4xx_hal_hcd.c **** HAL_StatusTypeDef HAL_HCD_RegisterCallback(HCD_HandleTypeDef *hhcd,
 739:Drivers/STM32F4xx_HAL_Driver/Src/stm32f4xx_hal_hcd.c ****                                            HAL_HCD_CallbackIDTypeDef CallbackID,
 740:Drivers/STM32F4xx_HAL_Driver/Src/stm32f4xx_hal_hcd.c ****                                            pHCD_CallbackTypeDef pCallback)
 741:Drivers/STM32F4xx_HAL_Driver/Src/stm32f4xx_hal_hcd.c **** {
 742:Drivers/STM32F4xx_HAL_Driver/Src/stm32f4xx_hal_hcd.c ****   HAL_StatusTypeDef status = HAL_OK;
 743:Drivers/STM32F4xx_HAL_Driver/Src/stm32f4xx_hal_hcd.c **** 
 744:Drivers/STM32F4xx_HAL_Driver/Src/stm32f4xx_hal_hcd.c ****   if (pCallback == NULL)
ARM GAS  /var/folders/0z/tsy30v1j4xl4_7kw94k978ww0000gn/T//cc1wg7if.s 			page 34


 745:Drivers/STM32F4xx_HAL_Driver/Src/stm32f4xx_hal_hcd.c ****   {
 746:Drivers/STM32F4xx_HAL_Driver/Src/stm32f4xx_hal_hcd.c ****     /* Update the error code */
 747:Drivers/STM32F4xx_HAL_Driver/Src/stm32f4xx_hal_hcd.c ****     hhcd->ErrorCode |= HAL_HCD_ERROR_INVALID_CALLBACK;
 748:Drivers/STM32F4xx_HAL_Driver/Src/stm32f4xx_hal_hcd.c ****     return HAL_ERROR;
 749:Drivers/STM32F4xx_HAL_Driver/Src/stm32f4xx_hal_hcd.c ****   }
 750:Drivers/STM32F4xx_HAL_Driver/Src/stm32f4xx_hal_hcd.c ****   /* Process locked */
 751:Drivers/STM32F4xx_HAL_Driver/Src/stm32f4xx_hal_hcd.c ****   __HAL_LOCK(hhcd);
 752:Drivers/STM32F4xx_HAL_Driver/Src/stm32f4xx_hal_hcd.c **** 
 753:Drivers/STM32F4xx_HAL_Driver/Src/stm32f4xx_hal_hcd.c ****   if (hhcd->State == HAL_HCD_STATE_READY)
 754:Drivers/STM32F4xx_HAL_Driver/Src/stm32f4xx_hal_hcd.c ****   {
 755:Drivers/STM32F4xx_HAL_Driver/Src/stm32f4xx_hal_hcd.c ****     switch (CallbackID)
 756:Drivers/STM32F4xx_HAL_Driver/Src/stm32f4xx_hal_hcd.c ****     {
 757:Drivers/STM32F4xx_HAL_Driver/Src/stm32f4xx_hal_hcd.c ****       case HAL_HCD_SOF_CB_ID :
 758:Drivers/STM32F4xx_HAL_Driver/Src/stm32f4xx_hal_hcd.c ****         hhcd->SOFCallback = pCallback;
 759:Drivers/STM32F4xx_HAL_Driver/Src/stm32f4xx_hal_hcd.c ****         break;
 760:Drivers/STM32F4xx_HAL_Driver/Src/stm32f4xx_hal_hcd.c **** 
 761:Drivers/STM32F4xx_HAL_Driver/Src/stm32f4xx_hal_hcd.c ****       case HAL_HCD_CONNECT_CB_ID :
 762:Drivers/STM32F4xx_HAL_Driver/Src/stm32f4xx_hal_hcd.c ****         hhcd->ConnectCallback = pCallback;
 763:Drivers/STM32F4xx_HAL_Driver/Src/stm32f4xx_hal_hcd.c ****         break;
 764:Drivers/STM32F4xx_HAL_Driver/Src/stm32f4xx_hal_hcd.c **** 
 765:Drivers/STM32F4xx_HAL_Driver/Src/stm32f4xx_hal_hcd.c ****       case HAL_HCD_DISCONNECT_CB_ID :
 766:Drivers/STM32F4xx_HAL_Driver/Src/stm32f4xx_hal_hcd.c ****         hhcd->DisconnectCallback = pCallback;
 767:Drivers/STM32F4xx_HAL_Driver/Src/stm32f4xx_hal_hcd.c ****         break;
 768:Drivers/STM32F4xx_HAL_Driver/Src/stm32f4xx_hal_hcd.c **** 
 769:Drivers/STM32F4xx_HAL_Driver/Src/stm32f4xx_hal_hcd.c ****       case HAL_HCD_PORT_ENABLED_CB_ID :
 770:Drivers/STM32F4xx_HAL_Driver/Src/stm32f4xx_hal_hcd.c ****         hhcd->PortEnabledCallback = pCallback;
 771:Drivers/STM32F4xx_HAL_Driver/Src/stm32f4xx_hal_hcd.c ****         break;
 772:Drivers/STM32F4xx_HAL_Driver/Src/stm32f4xx_hal_hcd.c **** 
 773:Drivers/STM32F4xx_HAL_Driver/Src/stm32f4xx_hal_hcd.c ****       case HAL_HCD_PORT_DISABLED_CB_ID :
 774:Drivers/STM32F4xx_HAL_Driver/Src/stm32f4xx_hal_hcd.c ****         hhcd->PortDisabledCallback = pCallback;
 775:Drivers/STM32F4xx_HAL_Driver/Src/stm32f4xx_hal_hcd.c ****         break;
 776:Drivers/STM32F4xx_HAL_Driver/Src/stm32f4xx_hal_hcd.c **** 
 777:Drivers/STM32F4xx_HAL_Driver/Src/stm32f4xx_hal_hcd.c ****       case HAL_HCD_MSPINIT_CB_ID :
 778:Drivers/STM32F4xx_HAL_Driver/Src/stm32f4xx_hal_hcd.c ****         hhcd->MspInitCallback = pCallback;
 779:Drivers/STM32F4xx_HAL_Driver/Src/stm32f4xx_hal_hcd.c ****         break;
 780:Drivers/STM32F4xx_HAL_Driver/Src/stm32f4xx_hal_hcd.c **** 
 781:Drivers/STM32F4xx_HAL_Driver/Src/stm32f4xx_hal_hcd.c ****       case HAL_HCD_MSPDEINIT_CB_ID :
 782:Drivers/STM32F4xx_HAL_Driver/Src/stm32f4xx_hal_hcd.c ****         hhcd->MspDeInitCallback = pCallback;
 783:Drivers/STM32F4xx_HAL_Driver/Src/stm32f4xx_hal_hcd.c ****         break;
 784:Drivers/STM32F4xx_HAL_Driver/Src/stm32f4xx_hal_hcd.c **** 
 785:Drivers/STM32F4xx_HAL_Driver/Src/stm32f4xx_hal_hcd.c ****       default :
 786:Drivers/STM32F4xx_HAL_Driver/Src/stm32f4xx_hal_hcd.c ****         /* Update the error code */
 787:Drivers/STM32F4xx_HAL_Driver/Src/stm32f4xx_hal_hcd.c ****         hhcd->ErrorCode |= HAL_HCD_ERROR_INVALID_CALLBACK;
 788:Drivers/STM32F4xx_HAL_Driver/Src/stm32f4xx_hal_hcd.c ****         /* Return error status */
 789:Drivers/STM32F4xx_HAL_Driver/Src/stm32f4xx_hal_hcd.c ****         status =  HAL_ERROR;
 790:Drivers/STM32F4xx_HAL_Driver/Src/stm32f4xx_hal_hcd.c ****         break;
 791:Drivers/STM32F4xx_HAL_Driver/Src/stm32f4xx_hal_hcd.c ****     }
 792:Drivers/STM32F4xx_HAL_Driver/Src/stm32f4xx_hal_hcd.c ****   }
 793:Drivers/STM32F4xx_HAL_Driver/Src/stm32f4xx_hal_hcd.c ****   else if (hhcd->State == HAL_HCD_STATE_RESET)
 794:Drivers/STM32F4xx_HAL_Driver/Src/stm32f4xx_hal_hcd.c ****   {
 795:Drivers/STM32F4xx_HAL_Driver/Src/stm32f4xx_hal_hcd.c ****     switch (CallbackID)
 796:Drivers/STM32F4xx_HAL_Driver/Src/stm32f4xx_hal_hcd.c ****     {
 797:Drivers/STM32F4xx_HAL_Driver/Src/stm32f4xx_hal_hcd.c ****       case HAL_HCD_MSPINIT_CB_ID :
 798:Drivers/STM32F4xx_HAL_Driver/Src/stm32f4xx_hal_hcd.c ****         hhcd->MspInitCallback = pCallback;
 799:Drivers/STM32F4xx_HAL_Driver/Src/stm32f4xx_hal_hcd.c ****         break;
 800:Drivers/STM32F4xx_HAL_Driver/Src/stm32f4xx_hal_hcd.c **** 
 801:Drivers/STM32F4xx_HAL_Driver/Src/stm32f4xx_hal_hcd.c ****       case HAL_HCD_MSPDEINIT_CB_ID :
ARM GAS  /var/folders/0z/tsy30v1j4xl4_7kw94k978ww0000gn/T//cc1wg7if.s 			page 35


 802:Drivers/STM32F4xx_HAL_Driver/Src/stm32f4xx_hal_hcd.c ****         hhcd->MspDeInitCallback = pCallback;
 803:Drivers/STM32F4xx_HAL_Driver/Src/stm32f4xx_hal_hcd.c ****         break;
 804:Drivers/STM32F4xx_HAL_Driver/Src/stm32f4xx_hal_hcd.c **** 
 805:Drivers/STM32F4xx_HAL_Driver/Src/stm32f4xx_hal_hcd.c ****       default :
 806:Drivers/STM32F4xx_HAL_Driver/Src/stm32f4xx_hal_hcd.c ****         /* Update the error code */
 807:Drivers/STM32F4xx_HAL_Driver/Src/stm32f4xx_hal_hcd.c ****         hhcd->ErrorCode |= HAL_HCD_ERROR_INVALID_CALLBACK;
 808:Drivers/STM32F4xx_HAL_Driver/Src/stm32f4xx_hal_hcd.c ****         /* Return error status */
 809:Drivers/STM32F4xx_HAL_Driver/Src/stm32f4xx_hal_hcd.c ****         status =  HAL_ERROR;
 810:Drivers/STM32F4xx_HAL_Driver/Src/stm32f4xx_hal_hcd.c ****         break;
 811:Drivers/STM32F4xx_HAL_Driver/Src/stm32f4xx_hal_hcd.c ****     }
 812:Drivers/STM32F4xx_HAL_Driver/Src/stm32f4xx_hal_hcd.c ****   }
 813:Drivers/STM32F4xx_HAL_Driver/Src/stm32f4xx_hal_hcd.c ****   else
 814:Drivers/STM32F4xx_HAL_Driver/Src/stm32f4xx_hal_hcd.c ****   {
 815:Drivers/STM32F4xx_HAL_Driver/Src/stm32f4xx_hal_hcd.c ****     /* Update the error code */
 816:Drivers/STM32F4xx_HAL_Driver/Src/stm32f4xx_hal_hcd.c ****     hhcd->ErrorCode |= HAL_HCD_ERROR_INVALID_CALLBACK;
 817:Drivers/STM32F4xx_HAL_Driver/Src/stm32f4xx_hal_hcd.c ****     /* Return error status */
 818:Drivers/STM32F4xx_HAL_Driver/Src/stm32f4xx_hal_hcd.c ****     status =  HAL_ERROR;
 819:Drivers/STM32F4xx_HAL_Driver/Src/stm32f4xx_hal_hcd.c ****   }
 820:Drivers/STM32F4xx_HAL_Driver/Src/stm32f4xx_hal_hcd.c **** 
 821:Drivers/STM32F4xx_HAL_Driver/Src/stm32f4xx_hal_hcd.c ****   /* Release Lock */
 822:Drivers/STM32F4xx_HAL_Driver/Src/stm32f4xx_hal_hcd.c ****   __HAL_UNLOCK(hhcd);
 823:Drivers/STM32F4xx_HAL_Driver/Src/stm32f4xx_hal_hcd.c ****   return status;
 824:Drivers/STM32F4xx_HAL_Driver/Src/stm32f4xx_hal_hcd.c **** }
 825:Drivers/STM32F4xx_HAL_Driver/Src/stm32f4xx_hal_hcd.c **** 
 826:Drivers/STM32F4xx_HAL_Driver/Src/stm32f4xx_hal_hcd.c **** /**
 827:Drivers/STM32F4xx_HAL_Driver/Src/stm32f4xx_hal_hcd.c ****   * @brief  Unregister an USB HCD Callback
 828:Drivers/STM32F4xx_HAL_Driver/Src/stm32f4xx_hal_hcd.c ****   *         USB HCD callback is redirected to the weak predefined callback
 829:Drivers/STM32F4xx_HAL_Driver/Src/stm32f4xx_hal_hcd.c ****   * @param  hhcd USB HCD handle
 830:Drivers/STM32F4xx_HAL_Driver/Src/stm32f4xx_hal_hcd.c ****   * @param  CallbackID ID of the callback to be unregistered
 831:Drivers/STM32F4xx_HAL_Driver/Src/stm32f4xx_hal_hcd.c ****   *         This parameter can be one of the following values:
 832:Drivers/STM32F4xx_HAL_Driver/Src/stm32f4xx_hal_hcd.c ****   *          @arg @ref HAL_HCD_SOF_CB_ID USB HCD SOF callback ID
 833:Drivers/STM32F4xx_HAL_Driver/Src/stm32f4xx_hal_hcd.c ****   *          @arg @ref HAL_HCD_CONNECT_CB_ID USB HCD Connect callback ID
 834:Drivers/STM32F4xx_HAL_Driver/Src/stm32f4xx_hal_hcd.c ****   *          @arg @ref HAL_HCD_DISCONNECT_CB_ID OTG HCD Disconnect callback ID
 835:Drivers/STM32F4xx_HAL_Driver/Src/stm32f4xx_hal_hcd.c ****   *          @arg @ref HAL_HCD_PORT_ENABLED_CB_ID USB HCD Port Enabled callback ID
 836:Drivers/STM32F4xx_HAL_Driver/Src/stm32f4xx_hal_hcd.c ****   *          @arg @ref HAL_HCD_PORT_DISABLED_CB_ID USB HCD Port Disabled callback ID
 837:Drivers/STM32F4xx_HAL_Driver/Src/stm32f4xx_hal_hcd.c ****   *          @arg @ref HAL_HCD_MSPINIT_CB_ID MspDeInit callback ID
 838:Drivers/STM32F4xx_HAL_Driver/Src/stm32f4xx_hal_hcd.c ****   *          @arg @ref HAL_HCD_MSPDEINIT_CB_ID MspDeInit callback ID
 839:Drivers/STM32F4xx_HAL_Driver/Src/stm32f4xx_hal_hcd.c ****   * @retval HAL status
 840:Drivers/STM32F4xx_HAL_Driver/Src/stm32f4xx_hal_hcd.c ****   */
 841:Drivers/STM32F4xx_HAL_Driver/Src/stm32f4xx_hal_hcd.c **** HAL_StatusTypeDef HAL_HCD_UnRegisterCallback(HCD_HandleTypeDef *hhcd, HAL_HCD_CallbackIDTypeDef Cal
 842:Drivers/STM32F4xx_HAL_Driver/Src/stm32f4xx_hal_hcd.c **** {
 843:Drivers/STM32F4xx_HAL_Driver/Src/stm32f4xx_hal_hcd.c ****   HAL_StatusTypeDef status = HAL_OK;
 844:Drivers/STM32F4xx_HAL_Driver/Src/stm32f4xx_hal_hcd.c **** 
 845:Drivers/STM32F4xx_HAL_Driver/Src/stm32f4xx_hal_hcd.c ****   /* Process locked */
 846:Drivers/STM32F4xx_HAL_Driver/Src/stm32f4xx_hal_hcd.c ****   __HAL_LOCK(hhcd);
 847:Drivers/STM32F4xx_HAL_Driver/Src/stm32f4xx_hal_hcd.c **** 
 848:Drivers/STM32F4xx_HAL_Driver/Src/stm32f4xx_hal_hcd.c ****   /* Setup Legacy weak Callbacks  */
 849:Drivers/STM32F4xx_HAL_Driver/Src/stm32f4xx_hal_hcd.c ****   if (hhcd->State == HAL_HCD_STATE_READY)
 850:Drivers/STM32F4xx_HAL_Driver/Src/stm32f4xx_hal_hcd.c ****   {
 851:Drivers/STM32F4xx_HAL_Driver/Src/stm32f4xx_hal_hcd.c ****     switch (CallbackID)
 852:Drivers/STM32F4xx_HAL_Driver/Src/stm32f4xx_hal_hcd.c ****     {
 853:Drivers/STM32F4xx_HAL_Driver/Src/stm32f4xx_hal_hcd.c ****       case HAL_HCD_SOF_CB_ID :
 854:Drivers/STM32F4xx_HAL_Driver/Src/stm32f4xx_hal_hcd.c ****         hhcd->SOFCallback = HAL_HCD_SOF_Callback;
 855:Drivers/STM32F4xx_HAL_Driver/Src/stm32f4xx_hal_hcd.c ****         break;
 856:Drivers/STM32F4xx_HAL_Driver/Src/stm32f4xx_hal_hcd.c **** 
 857:Drivers/STM32F4xx_HAL_Driver/Src/stm32f4xx_hal_hcd.c ****       case HAL_HCD_CONNECT_CB_ID :
 858:Drivers/STM32F4xx_HAL_Driver/Src/stm32f4xx_hal_hcd.c ****         hhcd->ConnectCallback = HAL_HCD_Connect_Callback;
ARM GAS  /var/folders/0z/tsy30v1j4xl4_7kw94k978ww0000gn/T//cc1wg7if.s 			page 36


 859:Drivers/STM32F4xx_HAL_Driver/Src/stm32f4xx_hal_hcd.c ****         break;
 860:Drivers/STM32F4xx_HAL_Driver/Src/stm32f4xx_hal_hcd.c **** 
 861:Drivers/STM32F4xx_HAL_Driver/Src/stm32f4xx_hal_hcd.c ****       case HAL_HCD_DISCONNECT_CB_ID :
 862:Drivers/STM32F4xx_HAL_Driver/Src/stm32f4xx_hal_hcd.c ****         hhcd->DisconnectCallback = HAL_HCD_Disconnect_Callback;
 863:Drivers/STM32F4xx_HAL_Driver/Src/stm32f4xx_hal_hcd.c ****         break;
 864:Drivers/STM32F4xx_HAL_Driver/Src/stm32f4xx_hal_hcd.c **** 
 865:Drivers/STM32F4xx_HAL_Driver/Src/stm32f4xx_hal_hcd.c ****       case HAL_HCD_PORT_ENABLED_CB_ID :
 866:Drivers/STM32F4xx_HAL_Driver/Src/stm32f4xx_hal_hcd.c ****         hhcd->PortEnabledCallback = HAL_HCD_PortEnabled_Callback;
 867:Drivers/STM32F4xx_HAL_Driver/Src/stm32f4xx_hal_hcd.c ****         break;
 868:Drivers/STM32F4xx_HAL_Driver/Src/stm32f4xx_hal_hcd.c **** 
 869:Drivers/STM32F4xx_HAL_Driver/Src/stm32f4xx_hal_hcd.c ****       case HAL_HCD_PORT_DISABLED_CB_ID :
 870:Drivers/STM32F4xx_HAL_Driver/Src/stm32f4xx_hal_hcd.c ****         hhcd->PortDisabledCallback = HAL_HCD_PortDisabled_Callback;
 871:Drivers/STM32F4xx_HAL_Driver/Src/stm32f4xx_hal_hcd.c ****         break;
 872:Drivers/STM32F4xx_HAL_Driver/Src/stm32f4xx_hal_hcd.c **** 
 873:Drivers/STM32F4xx_HAL_Driver/Src/stm32f4xx_hal_hcd.c ****       case HAL_HCD_MSPINIT_CB_ID :
 874:Drivers/STM32F4xx_HAL_Driver/Src/stm32f4xx_hal_hcd.c ****         hhcd->MspInitCallback = HAL_HCD_MspInit;
 875:Drivers/STM32F4xx_HAL_Driver/Src/stm32f4xx_hal_hcd.c ****         break;
 876:Drivers/STM32F4xx_HAL_Driver/Src/stm32f4xx_hal_hcd.c **** 
 877:Drivers/STM32F4xx_HAL_Driver/Src/stm32f4xx_hal_hcd.c ****       case HAL_HCD_MSPDEINIT_CB_ID :
 878:Drivers/STM32F4xx_HAL_Driver/Src/stm32f4xx_hal_hcd.c ****         hhcd->MspDeInitCallback = HAL_HCD_MspDeInit;
 879:Drivers/STM32F4xx_HAL_Driver/Src/stm32f4xx_hal_hcd.c ****         break;
 880:Drivers/STM32F4xx_HAL_Driver/Src/stm32f4xx_hal_hcd.c **** 
 881:Drivers/STM32F4xx_HAL_Driver/Src/stm32f4xx_hal_hcd.c ****       default :
 882:Drivers/STM32F4xx_HAL_Driver/Src/stm32f4xx_hal_hcd.c ****         /* Update the error code */
 883:Drivers/STM32F4xx_HAL_Driver/Src/stm32f4xx_hal_hcd.c ****         hhcd->ErrorCode |= HAL_HCD_ERROR_INVALID_CALLBACK;
 884:Drivers/STM32F4xx_HAL_Driver/Src/stm32f4xx_hal_hcd.c **** 
 885:Drivers/STM32F4xx_HAL_Driver/Src/stm32f4xx_hal_hcd.c ****         /* Return error status */
 886:Drivers/STM32F4xx_HAL_Driver/Src/stm32f4xx_hal_hcd.c ****         status =  HAL_ERROR;
 887:Drivers/STM32F4xx_HAL_Driver/Src/stm32f4xx_hal_hcd.c ****         break;
 888:Drivers/STM32F4xx_HAL_Driver/Src/stm32f4xx_hal_hcd.c ****     }
 889:Drivers/STM32F4xx_HAL_Driver/Src/stm32f4xx_hal_hcd.c ****   }
 890:Drivers/STM32F4xx_HAL_Driver/Src/stm32f4xx_hal_hcd.c ****   else if (hhcd->State == HAL_HCD_STATE_RESET)
 891:Drivers/STM32F4xx_HAL_Driver/Src/stm32f4xx_hal_hcd.c ****   {
 892:Drivers/STM32F4xx_HAL_Driver/Src/stm32f4xx_hal_hcd.c ****     switch (CallbackID)
 893:Drivers/STM32F4xx_HAL_Driver/Src/stm32f4xx_hal_hcd.c ****     {
 894:Drivers/STM32F4xx_HAL_Driver/Src/stm32f4xx_hal_hcd.c ****       case HAL_HCD_MSPINIT_CB_ID :
 895:Drivers/STM32F4xx_HAL_Driver/Src/stm32f4xx_hal_hcd.c ****         hhcd->MspInitCallback = HAL_HCD_MspInit;
 896:Drivers/STM32F4xx_HAL_Driver/Src/stm32f4xx_hal_hcd.c ****         break;
 897:Drivers/STM32F4xx_HAL_Driver/Src/stm32f4xx_hal_hcd.c **** 
 898:Drivers/STM32F4xx_HAL_Driver/Src/stm32f4xx_hal_hcd.c ****       case HAL_HCD_MSPDEINIT_CB_ID :
 899:Drivers/STM32F4xx_HAL_Driver/Src/stm32f4xx_hal_hcd.c ****         hhcd->MspDeInitCallback = HAL_HCD_MspDeInit;
 900:Drivers/STM32F4xx_HAL_Driver/Src/stm32f4xx_hal_hcd.c ****         break;
 901:Drivers/STM32F4xx_HAL_Driver/Src/stm32f4xx_hal_hcd.c **** 
 902:Drivers/STM32F4xx_HAL_Driver/Src/stm32f4xx_hal_hcd.c ****       default :
 903:Drivers/STM32F4xx_HAL_Driver/Src/stm32f4xx_hal_hcd.c ****         /* Update the error code */
 904:Drivers/STM32F4xx_HAL_Driver/Src/stm32f4xx_hal_hcd.c ****         hhcd->ErrorCode |= HAL_HCD_ERROR_INVALID_CALLBACK;
 905:Drivers/STM32F4xx_HAL_Driver/Src/stm32f4xx_hal_hcd.c **** 
 906:Drivers/STM32F4xx_HAL_Driver/Src/stm32f4xx_hal_hcd.c ****         /* Return error status */
 907:Drivers/STM32F4xx_HAL_Driver/Src/stm32f4xx_hal_hcd.c ****         status =  HAL_ERROR;
 908:Drivers/STM32F4xx_HAL_Driver/Src/stm32f4xx_hal_hcd.c ****         break;
 909:Drivers/STM32F4xx_HAL_Driver/Src/stm32f4xx_hal_hcd.c ****     }
 910:Drivers/STM32F4xx_HAL_Driver/Src/stm32f4xx_hal_hcd.c ****   }
 911:Drivers/STM32F4xx_HAL_Driver/Src/stm32f4xx_hal_hcd.c ****   else
 912:Drivers/STM32F4xx_HAL_Driver/Src/stm32f4xx_hal_hcd.c ****   {
 913:Drivers/STM32F4xx_HAL_Driver/Src/stm32f4xx_hal_hcd.c ****     /* Update the error code */
 914:Drivers/STM32F4xx_HAL_Driver/Src/stm32f4xx_hal_hcd.c ****     hhcd->ErrorCode |= HAL_HCD_ERROR_INVALID_CALLBACK;
 915:Drivers/STM32F4xx_HAL_Driver/Src/stm32f4xx_hal_hcd.c **** 
ARM GAS  /var/folders/0z/tsy30v1j4xl4_7kw94k978ww0000gn/T//cc1wg7if.s 			page 37


 916:Drivers/STM32F4xx_HAL_Driver/Src/stm32f4xx_hal_hcd.c ****     /* Return error status */
 917:Drivers/STM32F4xx_HAL_Driver/Src/stm32f4xx_hal_hcd.c ****     status =  HAL_ERROR;
 918:Drivers/STM32F4xx_HAL_Driver/Src/stm32f4xx_hal_hcd.c ****   }
 919:Drivers/STM32F4xx_HAL_Driver/Src/stm32f4xx_hal_hcd.c **** 
 920:Drivers/STM32F4xx_HAL_Driver/Src/stm32f4xx_hal_hcd.c ****   /* Release Lock */
 921:Drivers/STM32F4xx_HAL_Driver/Src/stm32f4xx_hal_hcd.c ****   __HAL_UNLOCK(hhcd);
 922:Drivers/STM32F4xx_HAL_Driver/Src/stm32f4xx_hal_hcd.c ****   return status;
 923:Drivers/STM32F4xx_HAL_Driver/Src/stm32f4xx_hal_hcd.c **** }
 924:Drivers/STM32F4xx_HAL_Driver/Src/stm32f4xx_hal_hcd.c **** 
 925:Drivers/STM32F4xx_HAL_Driver/Src/stm32f4xx_hal_hcd.c **** /**
 926:Drivers/STM32F4xx_HAL_Driver/Src/stm32f4xx_hal_hcd.c ****   * @brief  Register USB HCD Host Channel Notify URB Change Callback
 927:Drivers/STM32F4xx_HAL_Driver/Src/stm32f4xx_hal_hcd.c ****   *         To be used instead of the weak HAL_HCD_HC_NotifyURBChange_Callback() predefined callbac
 928:Drivers/STM32F4xx_HAL_Driver/Src/stm32f4xx_hal_hcd.c ****   * @param  hhcd HCD handle
 929:Drivers/STM32F4xx_HAL_Driver/Src/stm32f4xx_hal_hcd.c ****   * @param  pCallback pointer to the USB HCD Host Channel Notify URB Change Callback function
 930:Drivers/STM32F4xx_HAL_Driver/Src/stm32f4xx_hal_hcd.c ****   * @retval HAL status
 931:Drivers/STM32F4xx_HAL_Driver/Src/stm32f4xx_hal_hcd.c ****   */
 932:Drivers/STM32F4xx_HAL_Driver/Src/stm32f4xx_hal_hcd.c **** HAL_StatusTypeDef HAL_HCD_RegisterHC_NotifyURBChangeCallback(HCD_HandleTypeDef *hhcd,
 933:Drivers/STM32F4xx_HAL_Driver/Src/stm32f4xx_hal_hcd.c ****                                                              pHCD_HC_NotifyURBChangeCallbackTypeDef
 934:Drivers/STM32F4xx_HAL_Driver/Src/stm32f4xx_hal_hcd.c **** {
 935:Drivers/STM32F4xx_HAL_Driver/Src/stm32f4xx_hal_hcd.c ****   HAL_StatusTypeDef status = HAL_OK;
 936:Drivers/STM32F4xx_HAL_Driver/Src/stm32f4xx_hal_hcd.c **** 
 937:Drivers/STM32F4xx_HAL_Driver/Src/stm32f4xx_hal_hcd.c ****   if (pCallback == NULL)
 938:Drivers/STM32F4xx_HAL_Driver/Src/stm32f4xx_hal_hcd.c ****   {
 939:Drivers/STM32F4xx_HAL_Driver/Src/stm32f4xx_hal_hcd.c ****     /* Update the error code */
 940:Drivers/STM32F4xx_HAL_Driver/Src/stm32f4xx_hal_hcd.c ****     hhcd->ErrorCode |= HAL_HCD_ERROR_INVALID_CALLBACK;
 941:Drivers/STM32F4xx_HAL_Driver/Src/stm32f4xx_hal_hcd.c **** 
 942:Drivers/STM32F4xx_HAL_Driver/Src/stm32f4xx_hal_hcd.c ****     return HAL_ERROR;
 943:Drivers/STM32F4xx_HAL_Driver/Src/stm32f4xx_hal_hcd.c ****   }
 944:Drivers/STM32F4xx_HAL_Driver/Src/stm32f4xx_hal_hcd.c **** 
 945:Drivers/STM32F4xx_HAL_Driver/Src/stm32f4xx_hal_hcd.c ****   /* Process locked */
 946:Drivers/STM32F4xx_HAL_Driver/Src/stm32f4xx_hal_hcd.c ****   __HAL_LOCK(hhcd);
 947:Drivers/STM32F4xx_HAL_Driver/Src/stm32f4xx_hal_hcd.c **** 
 948:Drivers/STM32F4xx_HAL_Driver/Src/stm32f4xx_hal_hcd.c ****   if (hhcd->State == HAL_HCD_STATE_READY)
 949:Drivers/STM32F4xx_HAL_Driver/Src/stm32f4xx_hal_hcd.c ****   {
 950:Drivers/STM32F4xx_HAL_Driver/Src/stm32f4xx_hal_hcd.c ****     hhcd->HC_NotifyURBChangeCallback = pCallback;
 951:Drivers/STM32F4xx_HAL_Driver/Src/stm32f4xx_hal_hcd.c ****   }
 952:Drivers/STM32F4xx_HAL_Driver/Src/stm32f4xx_hal_hcd.c ****   else
 953:Drivers/STM32F4xx_HAL_Driver/Src/stm32f4xx_hal_hcd.c ****   {
 954:Drivers/STM32F4xx_HAL_Driver/Src/stm32f4xx_hal_hcd.c ****     /* Update the error code */
 955:Drivers/STM32F4xx_HAL_Driver/Src/stm32f4xx_hal_hcd.c ****     hhcd->ErrorCode |= HAL_HCD_ERROR_INVALID_CALLBACK;
 956:Drivers/STM32F4xx_HAL_Driver/Src/stm32f4xx_hal_hcd.c **** 
 957:Drivers/STM32F4xx_HAL_Driver/Src/stm32f4xx_hal_hcd.c ****     /* Return error status */
 958:Drivers/STM32F4xx_HAL_Driver/Src/stm32f4xx_hal_hcd.c ****     status =  HAL_ERROR;
 959:Drivers/STM32F4xx_HAL_Driver/Src/stm32f4xx_hal_hcd.c ****   }
 960:Drivers/STM32F4xx_HAL_Driver/Src/stm32f4xx_hal_hcd.c **** 
 961:Drivers/STM32F4xx_HAL_Driver/Src/stm32f4xx_hal_hcd.c ****   /* Release Lock */
 962:Drivers/STM32F4xx_HAL_Driver/Src/stm32f4xx_hal_hcd.c ****   __HAL_UNLOCK(hhcd);
 963:Drivers/STM32F4xx_HAL_Driver/Src/stm32f4xx_hal_hcd.c **** 
 964:Drivers/STM32F4xx_HAL_Driver/Src/stm32f4xx_hal_hcd.c ****   return status;
 965:Drivers/STM32F4xx_HAL_Driver/Src/stm32f4xx_hal_hcd.c **** }
 966:Drivers/STM32F4xx_HAL_Driver/Src/stm32f4xx_hal_hcd.c **** 
 967:Drivers/STM32F4xx_HAL_Driver/Src/stm32f4xx_hal_hcd.c **** /**
 968:Drivers/STM32F4xx_HAL_Driver/Src/stm32f4xx_hal_hcd.c ****   * @brief  Unregister the USB HCD Host Channel Notify URB Change Callback
 969:Drivers/STM32F4xx_HAL_Driver/Src/stm32f4xx_hal_hcd.c ****   *         USB HCD Host Channel Notify URB Change Callback is redirected
 970:Drivers/STM32F4xx_HAL_Driver/Src/stm32f4xx_hal_hcd.c ****   *         to the weak HAL_HCD_HC_NotifyURBChange_Callback() predefined callback
 971:Drivers/STM32F4xx_HAL_Driver/Src/stm32f4xx_hal_hcd.c ****   * @param  hhcd HCD handle
 972:Drivers/STM32F4xx_HAL_Driver/Src/stm32f4xx_hal_hcd.c ****   * @retval HAL status
ARM GAS  /var/folders/0z/tsy30v1j4xl4_7kw94k978ww0000gn/T//cc1wg7if.s 			page 38


 973:Drivers/STM32F4xx_HAL_Driver/Src/stm32f4xx_hal_hcd.c ****   */
 974:Drivers/STM32F4xx_HAL_Driver/Src/stm32f4xx_hal_hcd.c **** HAL_StatusTypeDef HAL_HCD_UnRegisterHC_NotifyURBChangeCallback(HCD_HandleTypeDef *hhcd)
 975:Drivers/STM32F4xx_HAL_Driver/Src/stm32f4xx_hal_hcd.c **** {
 976:Drivers/STM32F4xx_HAL_Driver/Src/stm32f4xx_hal_hcd.c ****   HAL_StatusTypeDef status = HAL_OK;
 977:Drivers/STM32F4xx_HAL_Driver/Src/stm32f4xx_hal_hcd.c **** 
 978:Drivers/STM32F4xx_HAL_Driver/Src/stm32f4xx_hal_hcd.c ****   /* Process locked */
 979:Drivers/STM32F4xx_HAL_Driver/Src/stm32f4xx_hal_hcd.c ****   __HAL_LOCK(hhcd);
 980:Drivers/STM32F4xx_HAL_Driver/Src/stm32f4xx_hal_hcd.c **** 
 981:Drivers/STM32F4xx_HAL_Driver/Src/stm32f4xx_hal_hcd.c ****   if (hhcd->State == HAL_HCD_STATE_READY)
 982:Drivers/STM32F4xx_HAL_Driver/Src/stm32f4xx_hal_hcd.c ****   {
 983:Drivers/STM32F4xx_HAL_Driver/Src/stm32f4xx_hal_hcd.c ****     hhcd->HC_NotifyURBChangeCallback = HAL_HCD_HC_NotifyURBChange_Callback; /* Legacy weak DataOutS
 984:Drivers/STM32F4xx_HAL_Driver/Src/stm32f4xx_hal_hcd.c ****   }
 985:Drivers/STM32F4xx_HAL_Driver/Src/stm32f4xx_hal_hcd.c ****   else
 986:Drivers/STM32F4xx_HAL_Driver/Src/stm32f4xx_hal_hcd.c ****   {
 987:Drivers/STM32F4xx_HAL_Driver/Src/stm32f4xx_hal_hcd.c ****     /* Update the error code */
 988:Drivers/STM32F4xx_HAL_Driver/Src/stm32f4xx_hal_hcd.c ****     hhcd->ErrorCode |= HAL_HCD_ERROR_INVALID_CALLBACK;
 989:Drivers/STM32F4xx_HAL_Driver/Src/stm32f4xx_hal_hcd.c **** 
 990:Drivers/STM32F4xx_HAL_Driver/Src/stm32f4xx_hal_hcd.c ****     /* Return error status */
 991:Drivers/STM32F4xx_HAL_Driver/Src/stm32f4xx_hal_hcd.c ****     status =  HAL_ERROR;
 992:Drivers/STM32F4xx_HAL_Driver/Src/stm32f4xx_hal_hcd.c ****   }
 993:Drivers/STM32F4xx_HAL_Driver/Src/stm32f4xx_hal_hcd.c **** 
 994:Drivers/STM32F4xx_HAL_Driver/Src/stm32f4xx_hal_hcd.c ****   /* Release Lock */
 995:Drivers/STM32F4xx_HAL_Driver/Src/stm32f4xx_hal_hcd.c ****   __HAL_UNLOCK(hhcd);
 996:Drivers/STM32F4xx_HAL_Driver/Src/stm32f4xx_hal_hcd.c **** 
 997:Drivers/STM32F4xx_HAL_Driver/Src/stm32f4xx_hal_hcd.c ****   return status;
 998:Drivers/STM32F4xx_HAL_Driver/Src/stm32f4xx_hal_hcd.c **** }
 999:Drivers/STM32F4xx_HAL_Driver/Src/stm32f4xx_hal_hcd.c **** #endif /* USE_HAL_HCD_REGISTER_CALLBACKS */
1000:Drivers/STM32F4xx_HAL_Driver/Src/stm32f4xx_hal_hcd.c **** 
1001:Drivers/STM32F4xx_HAL_Driver/Src/stm32f4xx_hal_hcd.c **** /**
1002:Drivers/STM32F4xx_HAL_Driver/Src/stm32f4xx_hal_hcd.c ****   * @}
1003:Drivers/STM32F4xx_HAL_Driver/Src/stm32f4xx_hal_hcd.c ****   */
1004:Drivers/STM32F4xx_HAL_Driver/Src/stm32f4xx_hal_hcd.c **** 
1005:Drivers/STM32F4xx_HAL_Driver/Src/stm32f4xx_hal_hcd.c **** /** @defgroup HCD_Exported_Functions_Group3 Peripheral Control functions
1006:Drivers/STM32F4xx_HAL_Driver/Src/stm32f4xx_hal_hcd.c ****   *  @brief   Management functions
1007:Drivers/STM32F4xx_HAL_Driver/Src/stm32f4xx_hal_hcd.c ****   *
1008:Drivers/STM32F4xx_HAL_Driver/Src/stm32f4xx_hal_hcd.c **** @verbatim
1009:Drivers/STM32F4xx_HAL_Driver/Src/stm32f4xx_hal_hcd.c ****  ===============================================================================
1010:Drivers/STM32F4xx_HAL_Driver/Src/stm32f4xx_hal_hcd.c ****                       ##### Peripheral Control functions #####
1011:Drivers/STM32F4xx_HAL_Driver/Src/stm32f4xx_hal_hcd.c ****  ===============================================================================
1012:Drivers/STM32F4xx_HAL_Driver/Src/stm32f4xx_hal_hcd.c ****     [..]
1013:Drivers/STM32F4xx_HAL_Driver/Src/stm32f4xx_hal_hcd.c ****     This subsection provides a set of functions allowing to control the HCD data
1014:Drivers/STM32F4xx_HAL_Driver/Src/stm32f4xx_hal_hcd.c ****     transfers.
1015:Drivers/STM32F4xx_HAL_Driver/Src/stm32f4xx_hal_hcd.c **** 
1016:Drivers/STM32F4xx_HAL_Driver/Src/stm32f4xx_hal_hcd.c **** @endverbatim
1017:Drivers/STM32F4xx_HAL_Driver/Src/stm32f4xx_hal_hcd.c ****   * @{
1018:Drivers/STM32F4xx_HAL_Driver/Src/stm32f4xx_hal_hcd.c ****   */
1019:Drivers/STM32F4xx_HAL_Driver/Src/stm32f4xx_hal_hcd.c **** 
1020:Drivers/STM32F4xx_HAL_Driver/Src/stm32f4xx_hal_hcd.c **** /**
1021:Drivers/STM32F4xx_HAL_Driver/Src/stm32f4xx_hal_hcd.c ****   * @brief  Start the host driver.
1022:Drivers/STM32F4xx_HAL_Driver/Src/stm32f4xx_hal_hcd.c ****   * @param  hhcd HCD handle
1023:Drivers/STM32F4xx_HAL_Driver/Src/stm32f4xx_hal_hcd.c ****   * @retval HAL status
1024:Drivers/STM32F4xx_HAL_Driver/Src/stm32f4xx_hal_hcd.c ****   */
1025:Drivers/STM32F4xx_HAL_Driver/Src/stm32f4xx_hal_hcd.c **** HAL_StatusTypeDef HAL_HCD_Start(HCD_HandleTypeDef *hhcd)
1026:Drivers/STM32F4xx_HAL_Driver/Src/stm32f4xx_hal_hcd.c **** {
1027:Drivers/STM32F4xx_HAL_Driver/Src/stm32f4xx_hal_hcd.c ****   __HAL_LOCK(hhcd);
1028:Drivers/STM32F4xx_HAL_Driver/Src/stm32f4xx_hal_hcd.c ****   /* Enable port power */
1029:Drivers/STM32F4xx_HAL_Driver/Src/stm32f4xx_hal_hcd.c ****   (void)USB_DriveVbus(hhcd->Instance, 1U);
ARM GAS  /var/folders/0z/tsy30v1j4xl4_7kw94k978ww0000gn/T//cc1wg7if.s 			page 39


1030:Drivers/STM32F4xx_HAL_Driver/Src/stm32f4xx_hal_hcd.c **** 
1031:Drivers/STM32F4xx_HAL_Driver/Src/stm32f4xx_hal_hcd.c ****   /* Enable global interrupt */
1032:Drivers/STM32F4xx_HAL_Driver/Src/stm32f4xx_hal_hcd.c ****   __HAL_HCD_ENABLE(hhcd);
1033:Drivers/STM32F4xx_HAL_Driver/Src/stm32f4xx_hal_hcd.c ****   __HAL_UNLOCK(hhcd);
1034:Drivers/STM32F4xx_HAL_Driver/Src/stm32f4xx_hal_hcd.c **** 
1035:Drivers/STM32F4xx_HAL_Driver/Src/stm32f4xx_hal_hcd.c ****   return HAL_OK;
1036:Drivers/STM32F4xx_HAL_Driver/Src/stm32f4xx_hal_hcd.c **** }
1037:Drivers/STM32F4xx_HAL_Driver/Src/stm32f4xx_hal_hcd.c **** 
1038:Drivers/STM32F4xx_HAL_Driver/Src/stm32f4xx_hal_hcd.c **** /**
1039:Drivers/STM32F4xx_HAL_Driver/Src/stm32f4xx_hal_hcd.c ****   * @brief  Stop the host driver.
1040:Drivers/STM32F4xx_HAL_Driver/Src/stm32f4xx_hal_hcd.c ****   * @param  hhcd HCD handle
1041:Drivers/STM32F4xx_HAL_Driver/Src/stm32f4xx_hal_hcd.c ****   * @retval HAL status
1042:Drivers/STM32F4xx_HAL_Driver/Src/stm32f4xx_hal_hcd.c ****   */
1043:Drivers/STM32F4xx_HAL_Driver/Src/stm32f4xx_hal_hcd.c **** 
1044:Drivers/STM32F4xx_HAL_Driver/Src/stm32f4xx_hal_hcd.c **** HAL_StatusTypeDef HAL_HCD_Stop(HCD_HandleTypeDef *hhcd)
1045:Drivers/STM32F4xx_HAL_Driver/Src/stm32f4xx_hal_hcd.c **** {
1046:Drivers/STM32F4xx_HAL_Driver/Src/stm32f4xx_hal_hcd.c ****   __HAL_LOCK(hhcd);
1047:Drivers/STM32F4xx_HAL_Driver/Src/stm32f4xx_hal_hcd.c ****   (void)USB_StopHost(hhcd->Instance);
1048:Drivers/STM32F4xx_HAL_Driver/Src/stm32f4xx_hal_hcd.c ****   __HAL_UNLOCK(hhcd);
1049:Drivers/STM32F4xx_HAL_Driver/Src/stm32f4xx_hal_hcd.c **** 
1050:Drivers/STM32F4xx_HAL_Driver/Src/stm32f4xx_hal_hcd.c ****   return HAL_OK;
1051:Drivers/STM32F4xx_HAL_Driver/Src/stm32f4xx_hal_hcd.c **** }
1052:Drivers/STM32F4xx_HAL_Driver/Src/stm32f4xx_hal_hcd.c **** 
1053:Drivers/STM32F4xx_HAL_Driver/Src/stm32f4xx_hal_hcd.c **** /**
1054:Drivers/STM32F4xx_HAL_Driver/Src/stm32f4xx_hal_hcd.c ****   * @brief  Reset the host port.
1055:Drivers/STM32F4xx_HAL_Driver/Src/stm32f4xx_hal_hcd.c ****   * @param  hhcd HCD handle
1056:Drivers/STM32F4xx_HAL_Driver/Src/stm32f4xx_hal_hcd.c ****   * @retval HAL status
1057:Drivers/STM32F4xx_HAL_Driver/Src/stm32f4xx_hal_hcd.c ****   */
1058:Drivers/STM32F4xx_HAL_Driver/Src/stm32f4xx_hal_hcd.c **** HAL_StatusTypeDef HAL_HCD_ResetPort(HCD_HandleTypeDef *hhcd)
1059:Drivers/STM32F4xx_HAL_Driver/Src/stm32f4xx_hal_hcd.c **** {
1060:Drivers/STM32F4xx_HAL_Driver/Src/stm32f4xx_hal_hcd.c ****   return (USB_ResetPort(hhcd->Instance));
1061:Drivers/STM32F4xx_HAL_Driver/Src/stm32f4xx_hal_hcd.c **** }
1062:Drivers/STM32F4xx_HAL_Driver/Src/stm32f4xx_hal_hcd.c **** 
1063:Drivers/STM32F4xx_HAL_Driver/Src/stm32f4xx_hal_hcd.c **** /**
1064:Drivers/STM32F4xx_HAL_Driver/Src/stm32f4xx_hal_hcd.c ****   * @}
1065:Drivers/STM32F4xx_HAL_Driver/Src/stm32f4xx_hal_hcd.c ****   */
1066:Drivers/STM32F4xx_HAL_Driver/Src/stm32f4xx_hal_hcd.c **** 
1067:Drivers/STM32F4xx_HAL_Driver/Src/stm32f4xx_hal_hcd.c **** /** @defgroup HCD_Exported_Functions_Group4 Peripheral State functions
1068:Drivers/STM32F4xx_HAL_Driver/Src/stm32f4xx_hal_hcd.c ****   *  @brief   Peripheral State functions
1069:Drivers/STM32F4xx_HAL_Driver/Src/stm32f4xx_hal_hcd.c ****   *
1070:Drivers/STM32F4xx_HAL_Driver/Src/stm32f4xx_hal_hcd.c **** @verbatim
1071:Drivers/STM32F4xx_HAL_Driver/Src/stm32f4xx_hal_hcd.c ****  ===============================================================================
1072:Drivers/STM32F4xx_HAL_Driver/Src/stm32f4xx_hal_hcd.c ****                       ##### Peripheral State functions #####
1073:Drivers/STM32F4xx_HAL_Driver/Src/stm32f4xx_hal_hcd.c ****  ===============================================================================
1074:Drivers/STM32F4xx_HAL_Driver/Src/stm32f4xx_hal_hcd.c ****     [..]
1075:Drivers/STM32F4xx_HAL_Driver/Src/stm32f4xx_hal_hcd.c ****     This subsection permits to get in run-time the status of the peripheral
1076:Drivers/STM32F4xx_HAL_Driver/Src/stm32f4xx_hal_hcd.c ****     and the data flow.
1077:Drivers/STM32F4xx_HAL_Driver/Src/stm32f4xx_hal_hcd.c **** 
1078:Drivers/STM32F4xx_HAL_Driver/Src/stm32f4xx_hal_hcd.c **** @endverbatim
1079:Drivers/STM32F4xx_HAL_Driver/Src/stm32f4xx_hal_hcd.c ****   * @{
1080:Drivers/STM32F4xx_HAL_Driver/Src/stm32f4xx_hal_hcd.c ****   */
1081:Drivers/STM32F4xx_HAL_Driver/Src/stm32f4xx_hal_hcd.c **** 
1082:Drivers/STM32F4xx_HAL_Driver/Src/stm32f4xx_hal_hcd.c **** /**
1083:Drivers/STM32F4xx_HAL_Driver/Src/stm32f4xx_hal_hcd.c ****   * @brief  Return the HCD handle state.
1084:Drivers/STM32F4xx_HAL_Driver/Src/stm32f4xx_hal_hcd.c ****   * @param  hhcd HCD handle
1085:Drivers/STM32F4xx_HAL_Driver/Src/stm32f4xx_hal_hcd.c ****   * @retval HAL state
1086:Drivers/STM32F4xx_HAL_Driver/Src/stm32f4xx_hal_hcd.c ****   */
ARM GAS  /var/folders/0z/tsy30v1j4xl4_7kw94k978ww0000gn/T//cc1wg7if.s 			page 40


1087:Drivers/STM32F4xx_HAL_Driver/Src/stm32f4xx_hal_hcd.c **** HCD_StateTypeDef HAL_HCD_GetState(HCD_HandleTypeDef *hhcd)
1088:Drivers/STM32F4xx_HAL_Driver/Src/stm32f4xx_hal_hcd.c **** {
1089:Drivers/STM32F4xx_HAL_Driver/Src/stm32f4xx_hal_hcd.c ****   return hhcd->State;
1090:Drivers/STM32F4xx_HAL_Driver/Src/stm32f4xx_hal_hcd.c **** }
1091:Drivers/STM32F4xx_HAL_Driver/Src/stm32f4xx_hal_hcd.c **** 
1092:Drivers/STM32F4xx_HAL_Driver/Src/stm32f4xx_hal_hcd.c **** /**
1093:Drivers/STM32F4xx_HAL_Driver/Src/stm32f4xx_hal_hcd.c ****   * @brief  Return  URB state for a channel.
1094:Drivers/STM32F4xx_HAL_Driver/Src/stm32f4xx_hal_hcd.c ****   * @param  hhcd HCD handle
1095:Drivers/STM32F4xx_HAL_Driver/Src/stm32f4xx_hal_hcd.c ****   * @param  chnum Channel number.
1096:Drivers/STM32F4xx_HAL_Driver/Src/stm32f4xx_hal_hcd.c ****   *         This parameter can be a value from 1 to 15
1097:Drivers/STM32F4xx_HAL_Driver/Src/stm32f4xx_hal_hcd.c ****   * @retval URB state.
1098:Drivers/STM32F4xx_HAL_Driver/Src/stm32f4xx_hal_hcd.c ****   *          This parameter can be one of these values:
1099:Drivers/STM32F4xx_HAL_Driver/Src/stm32f4xx_hal_hcd.c ****   *            URB_IDLE/
1100:Drivers/STM32F4xx_HAL_Driver/Src/stm32f4xx_hal_hcd.c ****   *            URB_DONE/
1101:Drivers/STM32F4xx_HAL_Driver/Src/stm32f4xx_hal_hcd.c ****   *            URB_NOTREADY/
1102:Drivers/STM32F4xx_HAL_Driver/Src/stm32f4xx_hal_hcd.c ****   *            URB_NYET/
1103:Drivers/STM32F4xx_HAL_Driver/Src/stm32f4xx_hal_hcd.c ****   *            URB_ERROR/
1104:Drivers/STM32F4xx_HAL_Driver/Src/stm32f4xx_hal_hcd.c ****   *            URB_STALL
1105:Drivers/STM32F4xx_HAL_Driver/Src/stm32f4xx_hal_hcd.c ****   */
1106:Drivers/STM32F4xx_HAL_Driver/Src/stm32f4xx_hal_hcd.c **** HCD_URBStateTypeDef HAL_HCD_HC_GetURBState(HCD_HandleTypeDef *hhcd, uint8_t chnum)
1107:Drivers/STM32F4xx_HAL_Driver/Src/stm32f4xx_hal_hcd.c **** {
1108:Drivers/STM32F4xx_HAL_Driver/Src/stm32f4xx_hal_hcd.c ****   return hhcd->hc[chnum].urb_state;
1109:Drivers/STM32F4xx_HAL_Driver/Src/stm32f4xx_hal_hcd.c **** }
1110:Drivers/STM32F4xx_HAL_Driver/Src/stm32f4xx_hal_hcd.c **** 
1111:Drivers/STM32F4xx_HAL_Driver/Src/stm32f4xx_hal_hcd.c **** 
1112:Drivers/STM32F4xx_HAL_Driver/Src/stm32f4xx_hal_hcd.c **** /**
1113:Drivers/STM32F4xx_HAL_Driver/Src/stm32f4xx_hal_hcd.c ****   * @brief  Return the last host transfer size.
1114:Drivers/STM32F4xx_HAL_Driver/Src/stm32f4xx_hal_hcd.c ****   * @param  hhcd HCD handle
1115:Drivers/STM32F4xx_HAL_Driver/Src/stm32f4xx_hal_hcd.c ****   * @param  chnum Channel number.
1116:Drivers/STM32F4xx_HAL_Driver/Src/stm32f4xx_hal_hcd.c ****   *         This parameter can be a value from 1 to 15
1117:Drivers/STM32F4xx_HAL_Driver/Src/stm32f4xx_hal_hcd.c ****   * @retval last transfer size in byte
1118:Drivers/STM32F4xx_HAL_Driver/Src/stm32f4xx_hal_hcd.c ****   */
1119:Drivers/STM32F4xx_HAL_Driver/Src/stm32f4xx_hal_hcd.c **** uint32_t HAL_HCD_HC_GetXferCount(HCD_HandleTypeDef *hhcd, uint8_t chnum)
1120:Drivers/STM32F4xx_HAL_Driver/Src/stm32f4xx_hal_hcd.c **** {
1121:Drivers/STM32F4xx_HAL_Driver/Src/stm32f4xx_hal_hcd.c ****   return hhcd->hc[chnum].xfer_count;
1122:Drivers/STM32F4xx_HAL_Driver/Src/stm32f4xx_hal_hcd.c **** }
1123:Drivers/STM32F4xx_HAL_Driver/Src/stm32f4xx_hal_hcd.c **** 
1124:Drivers/STM32F4xx_HAL_Driver/Src/stm32f4xx_hal_hcd.c **** /**
1125:Drivers/STM32F4xx_HAL_Driver/Src/stm32f4xx_hal_hcd.c ****   * @brief  Return the Host Channel state.
1126:Drivers/STM32F4xx_HAL_Driver/Src/stm32f4xx_hal_hcd.c ****   * @param  hhcd HCD handle
1127:Drivers/STM32F4xx_HAL_Driver/Src/stm32f4xx_hal_hcd.c ****   * @param  chnum Channel number.
1128:Drivers/STM32F4xx_HAL_Driver/Src/stm32f4xx_hal_hcd.c ****   *         This parameter can be a value from 1 to 15
1129:Drivers/STM32F4xx_HAL_Driver/Src/stm32f4xx_hal_hcd.c ****   * @retval Host channel state
1130:Drivers/STM32F4xx_HAL_Driver/Src/stm32f4xx_hal_hcd.c ****   *          This parameter can be one of these values:
1131:Drivers/STM32F4xx_HAL_Driver/Src/stm32f4xx_hal_hcd.c ****   *            HC_IDLE/
1132:Drivers/STM32F4xx_HAL_Driver/Src/stm32f4xx_hal_hcd.c ****   *            HC_XFRC/
1133:Drivers/STM32F4xx_HAL_Driver/Src/stm32f4xx_hal_hcd.c ****   *            HC_HALTED/
1134:Drivers/STM32F4xx_HAL_Driver/Src/stm32f4xx_hal_hcd.c ****   *            HC_NYET/
1135:Drivers/STM32F4xx_HAL_Driver/Src/stm32f4xx_hal_hcd.c ****   *            HC_NAK/
1136:Drivers/STM32F4xx_HAL_Driver/Src/stm32f4xx_hal_hcd.c ****   *            HC_STALL/
1137:Drivers/STM32F4xx_HAL_Driver/Src/stm32f4xx_hal_hcd.c ****   *            HC_XACTERR/
1138:Drivers/STM32F4xx_HAL_Driver/Src/stm32f4xx_hal_hcd.c ****   *            HC_BBLERR/
1139:Drivers/STM32F4xx_HAL_Driver/Src/stm32f4xx_hal_hcd.c ****   *            HC_DATATGLERR
1140:Drivers/STM32F4xx_HAL_Driver/Src/stm32f4xx_hal_hcd.c ****   */
1141:Drivers/STM32F4xx_HAL_Driver/Src/stm32f4xx_hal_hcd.c **** HCD_HCStateTypeDef  HAL_HCD_HC_GetState(HCD_HandleTypeDef *hhcd, uint8_t chnum)
1142:Drivers/STM32F4xx_HAL_Driver/Src/stm32f4xx_hal_hcd.c **** {
1143:Drivers/STM32F4xx_HAL_Driver/Src/stm32f4xx_hal_hcd.c ****   return hhcd->hc[chnum].state;
ARM GAS  /var/folders/0z/tsy30v1j4xl4_7kw94k978ww0000gn/T//cc1wg7if.s 			page 41


1144:Drivers/STM32F4xx_HAL_Driver/Src/stm32f4xx_hal_hcd.c **** }
1145:Drivers/STM32F4xx_HAL_Driver/Src/stm32f4xx_hal_hcd.c **** 
1146:Drivers/STM32F4xx_HAL_Driver/Src/stm32f4xx_hal_hcd.c **** /**
1147:Drivers/STM32F4xx_HAL_Driver/Src/stm32f4xx_hal_hcd.c ****   * @brief  Return the current Host frame number.
1148:Drivers/STM32F4xx_HAL_Driver/Src/stm32f4xx_hal_hcd.c ****   * @param  hhcd HCD handle
1149:Drivers/STM32F4xx_HAL_Driver/Src/stm32f4xx_hal_hcd.c ****   * @retval Current Host frame number
1150:Drivers/STM32F4xx_HAL_Driver/Src/stm32f4xx_hal_hcd.c ****   */
1151:Drivers/STM32F4xx_HAL_Driver/Src/stm32f4xx_hal_hcd.c **** uint32_t HAL_HCD_GetCurrentFrame(HCD_HandleTypeDef *hhcd)
1152:Drivers/STM32F4xx_HAL_Driver/Src/stm32f4xx_hal_hcd.c **** {
1153:Drivers/STM32F4xx_HAL_Driver/Src/stm32f4xx_hal_hcd.c ****   return (USB_GetCurrentFrame(hhcd->Instance));
1154:Drivers/STM32F4xx_HAL_Driver/Src/stm32f4xx_hal_hcd.c **** }
1155:Drivers/STM32F4xx_HAL_Driver/Src/stm32f4xx_hal_hcd.c **** 
1156:Drivers/STM32F4xx_HAL_Driver/Src/stm32f4xx_hal_hcd.c **** /**
1157:Drivers/STM32F4xx_HAL_Driver/Src/stm32f4xx_hal_hcd.c ****   * @brief  Return the Host enumeration speed.
1158:Drivers/STM32F4xx_HAL_Driver/Src/stm32f4xx_hal_hcd.c ****   * @param  hhcd HCD handle
1159:Drivers/STM32F4xx_HAL_Driver/Src/stm32f4xx_hal_hcd.c ****   * @retval Enumeration speed
1160:Drivers/STM32F4xx_HAL_Driver/Src/stm32f4xx_hal_hcd.c ****   */
1161:Drivers/STM32F4xx_HAL_Driver/Src/stm32f4xx_hal_hcd.c **** uint32_t HAL_HCD_GetCurrentSpeed(HCD_HandleTypeDef *hhcd)
1162:Drivers/STM32F4xx_HAL_Driver/Src/stm32f4xx_hal_hcd.c **** {
1163:Drivers/STM32F4xx_HAL_Driver/Src/stm32f4xx_hal_hcd.c ****   return (USB_GetHostSpeed(hhcd->Instance));
1164:Drivers/STM32F4xx_HAL_Driver/Src/stm32f4xx_hal_hcd.c **** }
1165:Drivers/STM32F4xx_HAL_Driver/Src/stm32f4xx_hal_hcd.c **** 
1166:Drivers/STM32F4xx_HAL_Driver/Src/stm32f4xx_hal_hcd.c **** /**
1167:Drivers/STM32F4xx_HAL_Driver/Src/stm32f4xx_hal_hcd.c ****   * @}
1168:Drivers/STM32F4xx_HAL_Driver/Src/stm32f4xx_hal_hcd.c ****   */
1169:Drivers/STM32F4xx_HAL_Driver/Src/stm32f4xx_hal_hcd.c **** 
1170:Drivers/STM32F4xx_HAL_Driver/Src/stm32f4xx_hal_hcd.c **** /**
1171:Drivers/STM32F4xx_HAL_Driver/Src/stm32f4xx_hal_hcd.c ****   * @}
1172:Drivers/STM32F4xx_HAL_Driver/Src/stm32f4xx_hal_hcd.c ****   */
1173:Drivers/STM32F4xx_HAL_Driver/Src/stm32f4xx_hal_hcd.c **** 
1174:Drivers/STM32F4xx_HAL_Driver/Src/stm32f4xx_hal_hcd.c **** /** @addtogroup HCD_Private_Functions
1175:Drivers/STM32F4xx_HAL_Driver/Src/stm32f4xx_hal_hcd.c ****   * @{
1176:Drivers/STM32F4xx_HAL_Driver/Src/stm32f4xx_hal_hcd.c ****   */
1177:Drivers/STM32F4xx_HAL_Driver/Src/stm32f4xx_hal_hcd.c **** /**
1178:Drivers/STM32F4xx_HAL_Driver/Src/stm32f4xx_hal_hcd.c ****   * @brief  Handle Host Channel IN interrupt requests.
1179:Drivers/STM32F4xx_HAL_Driver/Src/stm32f4xx_hal_hcd.c ****   * @param  hhcd HCD handle
1180:Drivers/STM32F4xx_HAL_Driver/Src/stm32f4xx_hal_hcd.c ****   * @param  chnum Channel number.
1181:Drivers/STM32F4xx_HAL_Driver/Src/stm32f4xx_hal_hcd.c ****   *         This parameter can be a value from 1 to 15
1182:Drivers/STM32F4xx_HAL_Driver/Src/stm32f4xx_hal_hcd.c ****   * @retval none
1183:Drivers/STM32F4xx_HAL_Driver/Src/stm32f4xx_hal_hcd.c ****   */
1184:Drivers/STM32F4xx_HAL_Driver/Src/stm32f4xx_hal_hcd.c **** static void HCD_HC_IN_IRQHandler(HCD_HandleTypeDef *hhcd, uint8_t chnum)
1185:Drivers/STM32F4xx_HAL_Driver/Src/stm32f4xx_hal_hcd.c **** {
1186:Drivers/STM32F4xx_HAL_Driver/Src/stm32f4xx_hal_hcd.c ****   USB_OTG_GlobalTypeDef *USBx = hhcd->Instance;
1187:Drivers/STM32F4xx_HAL_Driver/Src/stm32f4xx_hal_hcd.c ****   uint32_t USBx_BASE = (uint32_t)USBx;
1188:Drivers/STM32F4xx_HAL_Driver/Src/stm32f4xx_hal_hcd.c ****   uint32_t ch_num = (uint32_t)chnum;
1189:Drivers/STM32F4xx_HAL_Driver/Src/stm32f4xx_hal_hcd.c **** 
1190:Drivers/STM32F4xx_HAL_Driver/Src/stm32f4xx_hal_hcd.c ****   uint32_t tmpreg;
1191:Drivers/STM32F4xx_HAL_Driver/Src/stm32f4xx_hal_hcd.c **** 
1192:Drivers/STM32F4xx_HAL_Driver/Src/stm32f4xx_hal_hcd.c ****   if ((USBx_HC(ch_num)->HCINT & USB_OTG_HCINT_AHBERR) == USB_OTG_HCINT_AHBERR)
1193:Drivers/STM32F4xx_HAL_Driver/Src/stm32f4xx_hal_hcd.c ****   {
1194:Drivers/STM32F4xx_HAL_Driver/Src/stm32f4xx_hal_hcd.c ****     __HAL_HCD_CLEAR_HC_INT(ch_num, USB_OTG_HCINT_AHBERR);
1195:Drivers/STM32F4xx_HAL_Driver/Src/stm32f4xx_hal_hcd.c ****     hhcd->hc[ch_num].state = HC_XACTERR;
1196:Drivers/STM32F4xx_HAL_Driver/Src/stm32f4xx_hal_hcd.c ****     (void)USB_HC_Halt(hhcd->Instance, (uint8_t)ch_num);
1197:Drivers/STM32F4xx_HAL_Driver/Src/stm32f4xx_hal_hcd.c ****   }
1198:Drivers/STM32F4xx_HAL_Driver/Src/stm32f4xx_hal_hcd.c ****   else if ((USBx_HC(ch_num)->HCINT & USB_OTG_HCINT_BBERR) == USB_OTG_HCINT_BBERR)
1199:Drivers/STM32F4xx_HAL_Driver/Src/stm32f4xx_hal_hcd.c ****   {
1200:Drivers/STM32F4xx_HAL_Driver/Src/stm32f4xx_hal_hcd.c ****     __HAL_HCD_CLEAR_HC_INT(ch_num, USB_OTG_HCINT_BBERR);
ARM GAS  /var/folders/0z/tsy30v1j4xl4_7kw94k978ww0000gn/T//cc1wg7if.s 			page 42


1201:Drivers/STM32F4xx_HAL_Driver/Src/stm32f4xx_hal_hcd.c ****     hhcd->hc[ch_num].state = HC_BBLERR;
1202:Drivers/STM32F4xx_HAL_Driver/Src/stm32f4xx_hal_hcd.c ****     (void)USB_HC_Halt(hhcd->Instance, (uint8_t)ch_num);
1203:Drivers/STM32F4xx_HAL_Driver/Src/stm32f4xx_hal_hcd.c ****   }
1204:Drivers/STM32F4xx_HAL_Driver/Src/stm32f4xx_hal_hcd.c ****   else if ((USBx_HC(ch_num)->HCINT & USB_OTG_HCINT_ACK) == USB_OTG_HCINT_ACK)
1205:Drivers/STM32F4xx_HAL_Driver/Src/stm32f4xx_hal_hcd.c ****   {
1206:Drivers/STM32F4xx_HAL_Driver/Src/stm32f4xx_hal_hcd.c ****     __HAL_HCD_CLEAR_HC_INT(ch_num, USB_OTG_HCINT_ACK);
1207:Drivers/STM32F4xx_HAL_Driver/Src/stm32f4xx_hal_hcd.c ****   }
1208:Drivers/STM32F4xx_HAL_Driver/Src/stm32f4xx_hal_hcd.c ****   else if ((USBx_HC(ch_num)->HCINT & USB_OTG_HCINT_STALL) == USB_OTG_HCINT_STALL)
1209:Drivers/STM32F4xx_HAL_Driver/Src/stm32f4xx_hal_hcd.c ****   {
1210:Drivers/STM32F4xx_HAL_Driver/Src/stm32f4xx_hal_hcd.c ****     __HAL_HCD_CLEAR_HC_INT(ch_num, USB_OTG_HCINT_STALL);
1211:Drivers/STM32F4xx_HAL_Driver/Src/stm32f4xx_hal_hcd.c ****     hhcd->hc[ch_num].state = HC_STALL;
1212:Drivers/STM32F4xx_HAL_Driver/Src/stm32f4xx_hal_hcd.c ****     (void)USB_HC_Halt(hhcd->Instance, (uint8_t)ch_num);
1213:Drivers/STM32F4xx_HAL_Driver/Src/stm32f4xx_hal_hcd.c ****   }
1214:Drivers/STM32F4xx_HAL_Driver/Src/stm32f4xx_hal_hcd.c ****   else if ((USBx_HC(ch_num)->HCINT & USB_OTG_HCINT_DTERR) == USB_OTG_HCINT_DTERR)
1215:Drivers/STM32F4xx_HAL_Driver/Src/stm32f4xx_hal_hcd.c ****   {
1216:Drivers/STM32F4xx_HAL_Driver/Src/stm32f4xx_hal_hcd.c ****     __HAL_HCD_CLEAR_HC_INT(ch_num, USB_OTG_HCINT_DTERR);
1217:Drivers/STM32F4xx_HAL_Driver/Src/stm32f4xx_hal_hcd.c ****     hhcd->hc[ch_num].state = HC_DATATGLERR;
1218:Drivers/STM32F4xx_HAL_Driver/Src/stm32f4xx_hal_hcd.c ****     (void)USB_HC_Halt(hhcd->Instance, (uint8_t)ch_num);
1219:Drivers/STM32F4xx_HAL_Driver/Src/stm32f4xx_hal_hcd.c ****   }
1220:Drivers/STM32F4xx_HAL_Driver/Src/stm32f4xx_hal_hcd.c ****   else if ((USBx_HC(ch_num)->HCINT & USB_OTG_HCINT_TXERR) == USB_OTG_HCINT_TXERR)
1221:Drivers/STM32F4xx_HAL_Driver/Src/stm32f4xx_hal_hcd.c ****   {
1222:Drivers/STM32F4xx_HAL_Driver/Src/stm32f4xx_hal_hcd.c ****     __HAL_HCD_CLEAR_HC_INT(ch_num, USB_OTG_HCINT_TXERR);
1223:Drivers/STM32F4xx_HAL_Driver/Src/stm32f4xx_hal_hcd.c ****     hhcd->hc[ch_num].state = HC_XACTERR;
1224:Drivers/STM32F4xx_HAL_Driver/Src/stm32f4xx_hal_hcd.c ****     (void)USB_HC_Halt(hhcd->Instance, (uint8_t)ch_num);
1225:Drivers/STM32F4xx_HAL_Driver/Src/stm32f4xx_hal_hcd.c ****   }
1226:Drivers/STM32F4xx_HAL_Driver/Src/stm32f4xx_hal_hcd.c ****   else
1227:Drivers/STM32F4xx_HAL_Driver/Src/stm32f4xx_hal_hcd.c ****   {
1228:Drivers/STM32F4xx_HAL_Driver/Src/stm32f4xx_hal_hcd.c ****     /* ... */
1229:Drivers/STM32F4xx_HAL_Driver/Src/stm32f4xx_hal_hcd.c ****   }
1230:Drivers/STM32F4xx_HAL_Driver/Src/stm32f4xx_hal_hcd.c **** 
1231:Drivers/STM32F4xx_HAL_Driver/Src/stm32f4xx_hal_hcd.c ****   if ((USBx_HC(ch_num)->HCINT & USB_OTG_HCINT_FRMOR) == USB_OTG_HCINT_FRMOR)
1232:Drivers/STM32F4xx_HAL_Driver/Src/stm32f4xx_hal_hcd.c ****   {
1233:Drivers/STM32F4xx_HAL_Driver/Src/stm32f4xx_hal_hcd.c ****     (void)USB_HC_Halt(hhcd->Instance, (uint8_t)ch_num);
1234:Drivers/STM32F4xx_HAL_Driver/Src/stm32f4xx_hal_hcd.c ****     __HAL_HCD_CLEAR_HC_INT(ch_num, USB_OTG_HCINT_FRMOR);
1235:Drivers/STM32F4xx_HAL_Driver/Src/stm32f4xx_hal_hcd.c ****   }
1236:Drivers/STM32F4xx_HAL_Driver/Src/stm32f4xx_hal_hcd.c ****   else if ((USBx_HC(ch_num)->HCINT & USB_OTG_HCINT_XFRC) == USB_OTG_HCINT_XFRC)
1237:Drivers/STM32F4xx_HAL_Driver/Src/stm32f4xx_hal_hcd.c ****   {
1238:Drivers/STM32F4xx_HAL_Driver/Src/stm32f4xx_hal_hcd.c ****     if (hhcd->Init.dma_enable != 0U)
1239:Drivers/STM32F4xx_HAL_Driver/Src/stm32f4xx_hal_hcd.c ****     {
1240:Drivers/STM32F4xx_HAL_Driver/Src/stm32f4xx_hal_hcd.c ****       hhcd->hc[ch_num].xfer_count = hhcd->hc[ch_num].XferSize - \
1241:Drivers/STM32F4xx_HAL_Driver/Src/stm32f4xx_hal_hcd.c ****                                     (USBx_HC(ch_num)->HCTSIZ & USB_OTG_HCTSIZ_XFRSIZ);
1242:Drivers/STM32F4xx_HAL_Driver/Src/stm32f4xx_hal_hcd.c ****     }
1243:Drivers/STM32F4xx_HAL_Driver/Src/stm32f4xx_hal_hcd.c **** 
1244:Drivers/STM32F4xx_HAL_Driver/Src/stm32f4xx_hal_hcd.c ****     hhcd->hc[ch_num].state = HC_XFRC;
1245:Drivers/STM32F4xx_HAL_Driver/Src/stm32f4xx_hal_hcd.c ****     hhcd->hc[ch_num].ErrCnt = 0U;
1246:Drivers/STM32F4xx_HAL_Driver/Src/stm32f4xx_hal_hcd.c ****     __HAL_HCD_CLEAR_HC_INT(ch_num, USB_OTG_HCINT_XFRC);
1247:Drivers/STM32F4xx_HAL_Driver/Src/stm32f4xx_hal_hcd.c **** 
1248:Drivers/STM32F4xx_HAL_Driver/Src/stm32f4xx_hal_hcd.c ****     if ((hhcd->hc[ch_num].ep_type == EP_TYPE_CTRL) ||
1249:Drivers/STM32F4xx_HAL_Driver/Src/stm32f4xx_hal_hcd.c ****         (hhcd->hc[ch_num].ep_type == EP_TYPE_BULK))
1250:Drivers/STM32F4xx_HAL_Driver/Src/stm32f4xx_hal_hcd.c ****     {
1251:Drivers/STM32F4xx_HAL_Driver/Src/stm32f4xx_hal_hcd.c ****       (void)USB_HC_Halt(hhcd->Instance, (uint8_t)ch_num);
1252:Drivers/STM32F4xx_HAL_Driver/Src/stm32f4xx_hal_hcd.c ****       __HAL_HCD_CLEAR_HC_INT(ch_num, USB_OTG_HCINT_NAK);
1253:Drivers/STM32F4xx_HAL_Driver/Src/stm32f4xx_hal_hcd.c ****     }
1254:Drivers/STM32F4xx_HAL_Driver/Src/stm32f4xx_hal_hcd.c ****     else if ((hhcd->hc[ch_num].ep_type == EP_TYPE_INTR) ||
1255:Drivers/STM32F4xx_HAL_Driver/Src/stm32f4xx_hal_hcd.c ****              (hhcd->hc[ch_num].ep_type == EP_TYPE_ISOC))
1256:Drivers/STM32F4xx_HAL_Driver/Src/stm32f4xx_hal_hcd.c ****     {
1257:Drivers/STM32F4xx_HAL_Driver/Src/stm32f4xx_hal_hcd.c ****       USBx_HC(ch_num)->HCCHAR |= USB_OTG_HCCHAR_ODDFRM;
ARM GAS  /var/folders/0z/tsy30v1j4xl4_7kw94k978ww0000gn/T//cc1wg7if.s 			page 43


1258:Drivers/STM32F4xx_HAL_Driver/Src/stm32f4xx_hal_hcd.c ****       hhcd->hc[ch_num].urb_state = URB_DONE;
1259:Drivers/STM32F4xx_HAL_Driver/Src/stm32f4xx_hal_hcd.c **** 
1260:Drivers/STM32F4xx_HAL_Driver/Src/stm32f4xx_hal_hcd.c **** #if (USE_HAL_HCD_REGISTER_CALLBACKS == 1U)
1261:Drivers/STM32F4xx_HAL_Driver/Src/stm32f4xx_hal_hcd.c ****       hhcd->HC_NotifyURBChangeCallback(hhcd, (uint8_t)ch_num, hhcd->hc[ch_num].urb_state);
1262:Drivers/STM32F4xx_HAL_Driver/Src/stm32f4xx_hal_hcd.c **** #else
1263:Drivers/STM32F4xx_HAL_Driver/Src/stm32f4xx_hal_hcd.c ****       HAL_HCD_HC_NotifyURBChange_Callback(hhcd, (uint8_t)ch_num, hhcd->hc[ch_num].urb_state);
1264:Drivers/STM32F4xx_HAL_Driver/Src/stm32f4xx_hal_hcd.c **** #endif /* USE_HAL_HCD_REGISTER_CALLBACKS */
1265:Drivers/STM32F4xx_HAL_Driver/Src/stm32f4xx_hal_hcd.c ****     }
1266:Drivers/STM32F4xx_HAL_Driver/Src/stm32f4xx_hal_hcd.c ****     else
1267:Drivers/STM32F4xx_HAL_Driver/Src/stm32f4xx_hal_hcd.c ****     {
1268:Drivers/STM32F4xx_HAL_Driver/Src/stm32f4xx_hal_hcd.c ****       /* ... */
1269:Drivers/STM32F4xx_HAL_Driver/Src/stm32f4xx_hal_hcd.c ****     }
1270:Drivers/STM32F4xx_HAL_Driver/Src/stm32f4xx_hal_hcd.c **** 
1271:Drivers/STM32F4xx_HAL_Driver/Src/stm32f4xx_hal_hcd.c ****     if (hhcd->Init.dma_enable == 1U)
1272:Drivers/STM32F4xx_HAL_Driver/Src/stm32f4xx_hal_hcd.c ****     {
1273:Drivers/STM32F4xx_HAL_Driver/Src/stm32f4xx_hal_hcd.c ****       if (((hhcd->hc[ch_num].XferSize / hhcd->hc[ch_num].max_packet) & 1U) != 0U)
1274:Drivers/STM32F4xx_HAL_Driver/Src/stm32f4xx_hal_hcd.c ****       {
1275:Drivers/STM32F4xx_HAL_Driver/Src/stm32f4xx_hal_hcd.c ****         hhcd->hc[ch_num].toggle_in ^= 1U;
1276:Drivers/STM32F4xx_HAL_Driver/Src/stm32f4xx_hal_hcd.c ****       }
1277:Drivers/STM32F4xx_HAL_Driver/Src/stm32f4xx_hal_hcd.c ****     }
1278:Drivers/STM32F4xx_HAL_Driver/Src/stm32f4xx_hal_hcd.c ****     else
1279:Drivers/STM32F4xx_HAL_Driver/Src/stm32f4xx_hal_hcd.c ****     {
1280:Drivers/STM32F4xx_HAL_Driver/Src/stm32f4xx_hal_hcd.c ****       hhcd->hc[ch_num].toggle_in ^= 1U;
1281:Drivers/STM32F4xx_HAL_Driver/Src/stm32f4xx_hal_hcd.c ****     }
1282:Drivers/STM32F4xx_HAL_Driver/Src/stm32f4xx_hal_hcd.c ****   }
1283:Drivers/STM32F4xx_HAL_Driver/Src/stm32f4xx_hal_hcd.c ****   else if ((USBx_HC(ch_num)->HCINT & USB_OTG_HCINT_CHH) == USB_OTG_HCINT_CHH)
1284:Drivers/STM32F4xx_HAL_Driver/Src/stm32f4xx_hal_hcd.c ****   {
1285:Drivers/STM32F4xx_HAL_Driver/Src/stm32f4xx_hal_hcd.c ****     if (hhcd->hc[ch_num].state == HC_XFRC)
1286:Drivers/STM32F4xx_HAL_Driver/Src/stm32f4xx_hal_hcd.c ****     {
1287:Drivers/STM32F4xx_HAL_Driver/Src/stm32f4xx_hal_hcd.c ****       hhcd->hc[ch_num].urb_state = URB_DONE;
1288:Drivers/STM32F4xx_HAL_Driver/Src/stm32f4xx_hal_hcd.c ****     }
1289:Drivers/STM32F4xx_HAL_Driver/Src/stm32f4xx_hal_hcd.c ****     else if (hhcd->hc[ch_num].state == HC_STALL)
1290:Drivers/STM32F4xx_HAL_Driver/Src/stm32f4xx_hal_hcd.c ****     {
1291:Drivers/STM32F4xx_HAL_Driver/Src/stm32f4xx_hal_hcd.c ****       hhcd->hc[ch_num].urb_state = URB_STALL;
1292:Drivers/STM32F4xx_HAL_Driver/Src/stm32f4xx_hal_hcd.c ****     }
1293:Drivers/STM32F4xx_HAL_Driver/Src/stm32f4xx_hal_hcd.c ****     else if ((hhcd->hc[ch_num].state == HC_XACTERR) ||
1294:Drivers/STM32F4xx_HAL_Driver/Src/stm32f4xx_hal_hcd.c ****              (hhcd->hc[ch_num].state == HC_DATATGLERR))
1295:Drivers/STM32F4xx_HAL_Driver/Src/stm32f4xx_hal_hcd.c ****     {
1296:Drivers/STM32F4xx_HAL_Driver/Src/stm32f4xx_hal_hcd.c ****       hhcd->hc[ch_num].ErrCnt++;
1297:Drivers/STM32F4xx_HAL_Driver/Src/stm32f4xx_hal_hcd.c ****       if (hhcd->hc[ch_num].ErrCnt > 2U)
1298:Drivers/STM32F4xx_HAL_Driver/Src/stm32f4xx_hal_hcd.c ****       {
1299:Drivers/STM32F4xx_HAL_Driver/Src/stm32f4xx_hal_hcd.c ****         hhcd->hc[ch_num].ErrCnt = 0U;
1300:Drivers/STM32F4xx_HAL_Driver/Src/stm32f4xx_hal_hcd.c ****         hhcd->hc[ch_num].urb_state = URB_ERROR;
1301:Drivers/STM32F4xx_HAL_Driver/Src/stm32f4xx_hal_hcd.c ****       }
1302:Drivers/STM32F4xx_HAL_Driver/Src/stm32f4xx_hal_hcd.c ****       else
1303:Drivers/STM32F4xx_HAL_Driver/Src/stm32f4xx_hal_hcd.c ****       {
1304:Drivers/STM32F4xx_HAL_Driver/Src/stm32f4xx_hal_hcd.c ****         hhcd->hc[ch_num].urb_state = URB_NOTREADY;
1305:Drivers/STM32F4xx_HAL_Driver/Src/stm32f4xx_hal_hcd.c **** 
1306:Drivers/STM32F4xx_HAL_Driver/Src/stm32f4xx_hal_hcd.c ****         /* re-activate the channel */
1307:Drivers/STM32F4xx_HAL_Driver/Src/stm32f4xx_hal_hcd.c ****         tmpreg = USBx_HC(ch_num)->HCCHAR;
1308:Drivers/STM32F4xx_HAL_Driver/Src/stm32f4xx_hal_hcd.c ****         tmpreg &= ~USB_OTG_HCCHAR_CHDIS;
1309:Drivers/STM32F4xx_HAL_Driver/Src/stm32f4xx_hal_hcd.c ****         tmpreg |= USB_OTG_HCCHAR_CHENA;
1310:Drivers/STM32F4xx_HAL_Driver/Src/stm32f4xx_hal_hcd.c ****         USBx_HC(ch_num)->HCCHAR = tmpreg;
1311:Drivers/STM32F4xx_HAL_Driver/Src/stm32f4xx_hal_hcd.c ****       }
1312:Drivers/STM32F4xx_HAL_Driver/Src/stm32f4xx_hal_hcd.c ****     }
1313:Drivers/STM32F4xx_HAL_Driver/Src/stm32f4xx_hal_hcd.c ****     else if (hhcd->hc[ch_num].state == HC_NAK)
1314:Drivers/STM32F4xx_HAL_Driver/Src/stm32f4xx_hal_hcd.c ****     {
ARM GAS  /var/folders/0z/tsy30v1j4xl4_7kw94k978ww0000gn/T//cc1wg7if.s 			page 44


1315:Drivers/STM32F4xx_HAL_Driver/Src/stm32f4xx_hal_hcd.c ****       hhcd->hc[ch_num].urb_state  = URB_NOTREADY;
1316:Drivers/STM32F4xx_HAL_Driver/Src/stm32f4xx_hal_hcd.c **** 
1317:Drivers/STM32F4xx_HAL_Driver/Src/stm32f4xx_hal_hcd.c ****       /* re-activate the channel */
1318:Drivers/STM32F4xx_HAL_Driver/Src/stm32f4xx_hal_hcd.c ****       tmpreg = USBx_HC(ch_num)->HCCHAR;
1319:Drivers/STM32F4xx_HAL_Driver/Src/stm32f4xx_hal_hcd.c ****       tmpreg &= ~USB_OTG_HCCHAR_CHDIS;
1320:Drivers/STM32F4xx_HAL_Driver/Src/stm32f4xx_hal_hcd.c ****       tmpreg |= USB_OTG_HCCHAR_CHENA;
1321:Drivers/STM32F4xx_HAL_Driver/Src/stm32f4xx_hal_hcd.c ****       USBx_HC(ch_num)->HCCHAR = tmpreg;
1322:Drivers/STM32F4xx_HAL_Driver/Src/stm32f4xx_hal_hcd.c ****     }
1323:Drivers/STM32F4xx_HAL_Driver/Src/stm32f4xx_hal_hcd.c ****     else if (hhcd->hc[ch_num].state == HC_BBLERR)
1324:Drivers/STM32F4xx_HAL_Driver/Src/stm32f4xx_hal_hcd.c ****     {
1325:Drivers/STM32F4xx_HAL_Driver/Src/stm32f4xx_hal_hcd.c ****       hhcd->hc[ch_num].ErrCnt++;
1326:Drivers/STM32F4xx_HAL_Driver/Src/stm32f4xx_hal_hcd.c ****       hhcd->hc[ch_num].urb_state = URB_ERROR;
1327:Drivers/STM32F4xx_HAL_Driver/Src/stm32f4xx_hal_hcd.c ****     }
1328:Drivers/STM32F4xx_HAL_Driver/Src/stm32f4xx_hal_hcd.c ****     else
1329:Drivers/STM32F4xx_HAL_Driver/Src/stm32f4xx_hal_hcd.c ****     {
1330:Drivers/STM32F4xx_HAL_Driver/Src/stm32f4xx_hal_hcd.c ****       /* ... */
1331:Drivers/STM32F4xx_HAL_Driver/Src/stm32f4xx_hal_hcd.c ****     }
1332:Drivers/STM32F4xx_HAL_Driver/Src/stm32f4xx_hal_hcd.c ****     __HAL_HCD_CLEAR_HC_INT(ch_num, USB_OTG_HCINT_CHH);
1333:Drivers/STM32F4xx_HAL_Driver/Src/stm32f4xx_hal_hcd.c **** 
1334:Drivers/STM32F4xx_HAL_Driver/Src/stm32f4xx_hal_hcd.c **** #if (USE_HAL_HCD_REGISTER_CALLBACKS == 1U)
1335:Drivers/STM32F4xx_HAL_Driver/Src/stm32f4xx_hal_hcd.c ****     hhcd->HC_NotifyURBChangeCallback(hhcd, (uint8_t)ch_num, hhcd->hc[ch_num].urb_state);
1336:Drivers/STM32F4xx_HAL_Driver/Src/stm32f4xx_hal_hcd.c **** #else
1337:Drivers/STM32F4xx_HAL_Driver/Src/stm32f4xx_hal_hcd.c ****     HAL_HCD_HC_NotifyURBChange_Callback(hhcd, (uint8_t)ch_num, hhcd->hc[ch_num].urb_state);
1338:Drivers/STM32F4xx_HAL_Driver/Src/stm32f4xx_hal_hcd.c **** #endif /* USE_HAL_HCD_REGISTER_CALLBACKS */
1339:Drivers/STM32F4xx_HAL_Driver/Src/stm32f4xx_hal_hcd.c ****   }
1340:Drivers/STM32F4xx_HAL_Driver/Src/stm32f4xx_hal_hcd.c ****   else if ((USBx_HC(ch_num)->HCINT & USB_OTG_HCINT_NAK) == USB_OTG_HCINT_NAK)
1341:Drivers/STM32F4xx_HAL_Driver/Src/stm32f4xx_hal_hcd.c ****   {
1342:Drivers/STM32F4xx_HAL_Driver/Src/stm32f4xx_hal_hcd.c ****     if (hhcd->hc[ch_num].ep_type == EP_TYPE_INTR)
1343:Drivers/STM32F4xx_HAL_Driver/Src/stm32f4xx_hal_hcd.c ****     {
1344:Drivers/STM32F4xx_HAL_Driver/Src/stm32f4xx_hal_hcd.c ****       hhcd->hc[ch_num].ErrCnt = 0U;
1345:Drivers/STM32F4xx_HAL_Driver/Src/stm32f4xx_hal_hcd.c ****       (void)USB_HC_Halt(hhcd->Instance, (uint8_t)ch_num);
1346:Drivers/STM32F4xx_HAL_Driver/Src/stm32f4xx_hal_hcd.c ****     }
1347:Drivers/STM32F4xx_HAL_Driver/Src/stm32f4xx_hal_hcd.c ****     else if ((hhcd->hc[ch_num].ep_type == EP_TYPE_CTRL) ||
1348:Drivers/STM32F4xx_HAL_Driver/Src/stm32f4xx_hal_hcd.c ****              (hhcd->hc[ch_num].ep_type == EP_TYPE_BULK))
1349:Drivers/STM32F4xx_HAL_Driver/Src/stm32f4xx_hal_hcd.c ****     {
1350:Drivers/STM32F4xx_HAL_Driver/Src/stm32f4xx_hal_hcd.c ****       hhcd->hc[ch_num].ErrCnt = 0U;
1351:Drivers/STM32F4xx_HAL_Driver/Src/stm32f4xx_hal_hcd.c **** 
1352:Drivers/STM32F4xx_HAL_Driver/Src/stm32f4xx_hal_hcd.c ****       if (hhcd->Init.dma_enable == 0U)
1353:Drivers/STM32F4xx_HAL_Driver/Src/stm32f4xx_hal_hcd.c ****       {
1354:Drivers/STM32F4xx_HAL_Driver/Src/stm32f4xx_hal_hcd.c ****         hhcd->hc[ch_num].state = HC_NAK;
1355:Drivers/STM32F4xx_HAL_Driver/Src/stm32f4xx_hal_hcd.c ****         (void)USB_HC_Halt(hhcd->Instance, (uint8_t)ch_num);
1356:Drivers/STM32F4xx_HAL_Driver/Src/stm32f4xx_hal_hcd.c ****       }
1357:Drivers/STM32F4xx_HAL_Driver/Src/stm32f4xx_hal_hcd.c ****     }
1358:Drivers/STM32F4xx_HAL_Driver/Src/stm32f4xx_hal_hcd.c ****     else
1359:Drivers/STM32F4xx_HAL_Driver/Src/stm32f4xx_hal_hcd.c ****     {
1360:Drivers/STM32F4xx_HAL_Driver/Src/stm32f4xx_hal_hcd.c ****       /* ... */
1361:Drivers/STM32F4xx_HAL_Driver/Src/stm32f4xx_hal_hcd.c ****     }
1362:Drivers/STM32F4xx_HAL_Driver/Src/stm32f4xx_hal_hcd.c ****     __HAL_HCD_CLEAR_HC_INT(ch_num, USB_OTG_HCINT_NAK);
1363:Drivers/STM32F4xx_HAL_Driver/Src/stm32f4xx_hal_hcd.c ****   }
1364:Drivers/STM32F4xx_HAL_Driver/Src/stm32f4xx_hal_hcd.c ****   else
1365:Drivers/STM32F4xx_HAL_Driver/Src/stm32f4xx_hal_hcd.c ****   {
1366:Drivers/STM32F4xx_HAL_Driver/Src/stm32f4xx_hal_hcd.c ****     /* ... */
1367:Drivers/STM32F4xx_HAL_Driver/Src/stm32f4xx_hal_hcd.c ****   }
1368:Drivers/STM32F4xx_HAL_Driver/Src/stm32f4xx_hal_hcd.c **** }
1369:Drivers/STM32F4xx_HAL_Driver/Src/stm32f4xx_hal_hcd.c **** 
1370:Drivers/STM32F4xx_HAL_Driver/Src/stm32f4xx_hal_hcd.c **** /**
1371:Drivers/STM32F4xx_HAL_Driver/Src/stm32f4xx_hal_hcd.c ****   * @brief  Handle Host Channel OUT interrupt requests.
ARM GAS  /var/folders/0z/tsy30v1j4xl4_7kw94k978ww0000gn/T//cc1wg7if.s 			page 45


1372:Drivers/STM32F4xx_HAL_Driver/Src/stm32f4xx_hal_hcd.c ****   * @param  hhcd HCD handle
1373:Drivers/STM32F4xx_HAL_Driver/Src/stm32f4xx_hal_hcd.c ****   * @param  chnum Channel number.
1374:Drivers/STM32F4xx_HAL_Driver/Src/stm32f4xx_hal_hcd.c ****   *         This parameter can be a value from 1 to 15
1375:Drivers/STM32F4xx_HAL_Driver/Src/stm32f4xx_hal_hcd.c ****   * @retval none
1376:Drivers/STM32F4xx_HAL_Driver/Src/stm32f4xx_hal_hcd.c ****   */
1377:Drivers/STM32F4xx_HAL_Driver/Src/stm32f4xx_hal_hcd.c **** static void HCD_HC_OUT_IRQHandler(HCD_HandleTypeDef *hhcd, uint8_t chnum)
1378:Drivers/STM32F4xx_HAL_Driver/Src/stm32f4xx_hal_hcd.c **** {
1379:Drivers/STM32F4xx_HAL_Driver/Src/stm32f4xx_hal_hcd.c ****   USB_OTG_GlobalTypeDef *USBx = hhcd->Instance;
1380:Drivers/STM32F4xx_HAL_Driver/Src/stm32f4xx_hal_hcd.c ****   uint32_t USBx_BASE = (uint32_t)USBx;
1381:Drivers/STM32F4xx_HAL_Driver/Src/stm32f4xx_hal_hcd.c ****   uint32_t ch_num = (uint32_t)chnum;
1382:Drivers/STM32F4xx_HAL_Driver/Src/stm32f4xx_hal_hcd.c ****   uint32_t tmpreg;
1383:Drivers/STM32F4xx_HAL_Driver/Src/stm32f4xx_hal_hcd.c ****   uint32_t num_packets;
1384:Drivers/STM32F4xx_HAL_Driver/Src/stm32f4xx_hal_hcd.c **** 
1385:Drivers/STM32F4xx_HAL_Driver/Src/stm32f4xx_hal_hcd.c ****   if ((USBx_HC(ch_num)->HCINT & USB_OTG_HCINT_AHBERR) == USB_OTG_HCINT_AHBERR)
1386:Drivers/STM32F4xx_HAL_Driver/Src/stm32f4xx_hal_hcd.c ****   {
1387:Drivers/STM32F4xx_HAL_Driver/Src/stm32f4xx_hal_hcd.c ****     __HAL_HCD_CLEAR_HC_INT(ch_num, USB_OTG_HCINT_AHBERR);
1388:Drivers/STM32F4xx_HAL_Driver/Src/stm32f4xx_hal_hcd.c ****     hhcd->hc[ch_num].state = HC_XACTERR;
1389:Drivers/STM32F4xx_HAL_Driver/Src/stm32f4xx_hal_hcd.c ****     (void)USB_HC_Halt(hhcd->Instance, (uint8_t)ch_num);
1390:Drivers/STM32F4xx_HAL_Driver/Src/stm32f4xx_hal_hcd.c ****   }
1391:Drivers/STM32F4xx_HAL_Driver/Src/stm32f4xx_hal_hcd.c ****   else if ((USBx_HC(ch_num)->HCINT & USB_OTG_HCINT_ACK) == USB_OTG_HCINT_ACK)
1392:Drivers/STM32F4xx_HAL_Driver/Src/stm32f4xx_hal_hcd.c ****   {
1393:Drivers/STM32F4xx_HAL_Driver/Src/stm32f4xx_hal_hcd.c ****     __HAL_HCD_CLEAR_HC_INT(ch_num, USB_OTG_HCINT_ACK);
1394:Drivers/STM32F4xx_HAL_Driver/Src/stm32f4xx_hal_hcd.c **** 
1395:Drivers/STM32F4xx_HAL_Driver/Src/stm32f4xx_hal_hcd.c ****     if (hhcd->hc[ch_num].do_ping == 1U)
1396:Drivers/STM32F4xx_HAL_Driver/Src/stm32f4xx_hal_hcd.c ****     {
1397:Drivers/STM32F4xx_HAL_Driver/Src/stm32f4xx_hal_hcd.c ****       hhcd->hc[ch_num].do_ping = 0U;
1398:Drivers/STM32F4xx_HAL_Driver/Src/stm32f4xx_hal_hcd.c ****       hhcd->hc[ch_num].urb_state = URB_NOTREADY;
1399:Drivers/STM32F4xx_HAL_Driver/Src/stm32f4xx_hal_hcd.c ****       (void)USB_HC_Halt(hhcd->Instance, (uint8_t)ch_num);
1400:Drivers/STM32F4xx_HAL_Driver/Src/stm32f4xx_hal_hcd.c ****     }
1401:Drivers/STM32F4xx_HAL_Driver/Src/stm32f4xx_hal_hcd.c ****   }
1402:Drivers/STM32F4xx_HAL_Driver/Src/stm32f4xx_hal_hcd.c ****   else if ((USBx_HC(ch_num)->HCINT & USB_OTG_HCINT_FRMOR) == USB_OTG_HCINT_FRMOR)
1403:Drivers/STM32F4xx_HAL_Driver/Src/stm32f4xx_hal_hcd.c ****   {
1404:Drivers/STM32F4xx_HAL_Driver/Src/stm32f4xx_hal_hcd.c ****     __HAL_HCD_CLEAR_HC_INT(ch_num, USB_OTG_HCINT_FRMOR);
1405:Drivers/STM32F4xx_HAL_Driver/Src/stm32f4xx_hal_hcd.c ****     (void)USB_HC_Halt(hhcd->Instance, (uint8_t)ch_num);
1406:Drivers/STM32F4xx_HAL_Driver/Src/stm32f4xx_hal_hcd.c ****   }
1407:Drivers/STM32F4xx_HAL_Driver/Src/stm32f4xx_hal_hcd.c ****   else if ((USBx_HC(ch_num)->HCINT & USB_OTG_HCINT_XFRC) == USB_OTG_HCINT_XFRC)
1408:Drivers/STM32F4xx_HAL_Driver/Src/stm32f4xx_hal_hcd.c ****   {
1409:Drivers/STM32F4xx_HAL_Driver/Src/stm32f4xx_hal_hcd.c ****     hhcd->hc[ch_num].ErrCnt = 0U;
1410:Drivers/STM32F4xx_HAL_Driver/Src/stm32f4xx_hal_hcd.c **** 
1411:Drivers/STM32F4xx_HAL_Driver/Src/stm32f4xx_hal_hcd.c ****     /* transaction completed with NYET state, update do ping state */
1412:Drivers/STM32F4xx_HAL_Driver/Src/stm32f4xx_hal_hcd.c ****     if ((USBx_HC(ch_num)->HCINT & USB_OTG_HCINT_NYET) == USB_OTG_HCINT_NYET)
1413:Drivers/STM32F4xx_HAL_Driver/Src/stm32f4xx_hal_hcd.c ****     {
1414:Drivers/STM32F4xx_HAL_Driver/Src/stm32f4xx_hal_hcd.c ****       hhcd->hc[ch_num].do_ping = 1U;
1415:Drivers/STM32F4xx_HAL_Driver/Src/stm32f4xx_hal_hcd.c ****       __HAL_HCD_CLEAR_HC_INT(ch_num, USB_OTG_HCINT_NYET);
1416:Drivers/STM32F4xx_HAL_Driver/Src/stm32f4xx_hal_hcd.c ****     }
1417:Drivers/STM32F4xx_HAL_Driver/Src/stm32f4xx_hal_hcd.c ****     __HAL_HCD_CLEAR_HC_INT(ch_num, USB_OTG_HCINT_XFRC);
1418:Drivers/STM32F4xx_HAL_Driver/Src/stm32f4xx_hal_hcd.c ****     hhcd->hc[ch_num].state = HC_XFRC;
1419:Drivers/STM32F4xx_HAL_Driver/Src/stm32f4xx_hal_hcd.c ****     (void)USB_HC_Halt(hhcd->Instance, (uint8_t)ch_num);
1420:Drivers/STM32F4xx_HAL_Driver/Src/stm32f4xx_hal_hcd.c ****   }
1421:Drivers/STM32F4xx_HAL_Driver/Src/stm32f4xx_hal_hcd.c ****   else if ((USBx_HC(ch_num)->HCINT & USB_OTG_HCINT_NYET) == USB_OTG_HCINT_NYET)
1422:Drivers/STM32F4xx_HAL_Driver/Src/stm32f4xx_hal_hcd.c ****   {
1423:Drivers/STM32F4xx_HAL_Driver/Src/stm32f4xx_hal_hcd.c ****     hhcd->hc[ch_num].state = HC_NYET;
1424:Drivers/STM32F4xx_HAL_Driver/Src/stm32f4xx_hal_hcd.c ****     hhcd->hc[ch_num].do_ping = 1U;
1425:Drivers/STM32F4xx_HAL_Driver/Src/stm32f4xx_hal_hcd.c ****     hhcd->hc[ch_num].ErrCnt = 0U;
1426:Drivers/STM32F4xx_HAL_Driver/Src/stm32f4xx_hal_hcd.c ****     (void)USB_HC_Halt(hhcd->Instance, (uint8_t)ch_num);
1427:Drivers/STM32F4xx_HAL_Driver/Src/stm32f4xx_hal_hcd.c ****     __HAL_HCD_CLEAR_HC_INT(ch_num, USB_OTG_HCINT_NYET);
1428:Drivers/STM32F4xx_HAL_Driver/Src/stm32f4xx_hal_hcd.c ****   }
ARM GAS  /var/folders/0z/tsy30v1j4xl4_7kw94k978ww0000gn/T//cc1wg7if.s 			page 46


1429:Drivers/STM32F4xx_HAL_Driver/Src/stm32f4xx_hal_hcd.c ****   else if ((USBx_HC(ch_num)->HCINT & USB_OTG_HCINT_STALL) == USB_OTG_HCINT_STALL)
1430:Drivers/STM32F4xx_HAL_Driver/Src/stm32f4xx_hal_hcd.c ****   {
1431:Drivers/STM32F4xx_HAL_Driver/Src/stm32f4xx_hal_hcd.c ****     __HAL_HCD_CLEAR_HC_INT(ch_num, USB_OTG_HCINT_STALL);
1432:Drivers/STM32F4xx_HAL_Driver/Src/stm32f4xx_hal_hcd.c ****     hhcd->hc[ch_num].state = HC_STALL;
1433:Drivers/STM32F4xx_HAL_Driver/Src/stm32f4xx_hal_hcd.c ****     (void)USB_HC_Halt(hhcd->Instance, (uint8_t)ch_num);
1434:Drivers/STM32F4xx_HAL_Driver/Src/stm32f4xx_hal_hcd.c ****   }
1435:Drivers/STM32F4xx_HAL_Driver/Src/stm32f4xx_hal_hcd.c ****   else if ((USBx_HC(ch_num)->HCINT & USB_OTG_HCINT_NAK) == USB_OTG_HCINT_NAK)
1436:Drivers/STM32F4xx_HAL_Driver/Src/stm32f4xx_hal_hcd.c ****   {
1437:Drivers/STM32F4xx_HAL_Driver/Src/stm32f4xx_hal_hcd.c ****     hhcd->hc[ch_num].ErrCnt = 0U;
1438:Drivers/STM32F4xx_HAL_Driver/Src/stm32f4xx_hal_hcd.c ****     hhcd->hc[ch_num].state = HC_NAK;
1439:Drivers/STM32F4xx_HAL_Driver/Src/stm32f4xx_hal_hcd.c **** 
1440:Drivers/STM32F4xx_HAL_Driver/Src/stm32f4xx_hal_hcd.c ****     if (hhcd->hc[ch_num].do_ping == 0U)
1441:Drivers/STM32F4xx_HAL_Driver/Src/stm32f4xx_hal_hcd.c ****     {
1442:Drivers/STM32F4xx_HAL_Driver/Src/stm32f4xx_hal_hcd.c ****       if (hhcd->hc[ch_num].speed == HCD_DEVICE_SPEED_HIGH)
1443:Drivers/STM32F4xx_HAL_Driver/Src/stm32f4xx_hal_hcd.c ****       {
1444:Drivers/STM32F4xx_HAL_Driver/Src/stm32f4xx_hal_hcd.c ****         hhcd->hc[ch_num].do_ping = 1U;
1445:Drivers/STM32F4xx_HAL_Driver/Src/stm32f4xx_hal_hcd.c ****       }
1446:Drivers/STM32F4xx_HAL_Driver/Src/stm32f4xx_hal_hcd.c ****     }
1447:Drivers/STM32F4xx_HAL_Driver/Src/stm32f4xx_hal_hcd.c **** 
1448:Drivers/STM32F4xx_HAL_Driver/Src/stm32f4xx_hal_hcd.c ****     (void)USB_HC_Halt(hhcd->Instance, (uint8_t)ch_num);
1449:Drivers/STM32F4xx_HAL_Driver/Src/stm32f4xx_hal_hcd.c ****     __HAL_HCD_CLEAR_HC_INT(ch_num, USB_OTG_HCINT_NAK);
1450:Drivers/STM32F4xx_HAL_Driver/Src/stm32f4xx_hal_hcd.c ****   }
1451:Drivers/STM32F4xx_HAL_Driver/Src/stm32f4xx_hal_hcd.c ****   else if ((USBx_HC(ch_num)->HCINT & USB_OTG_HCINT_TXERR) == USB_OTG_HCINT_TXERR)
1452:Drivers/STM32F4xx_HAL_Driver/Src/stm32f4xx_hal_hcd.c ****   {
1453:Drivers/STM32F4xx_HAL_Driver/Src/stm32f4xx_hal_hcd.c ****     if (hhcd->Init.dma_enable == 0U)
1454:Drivers/STM32F4xx_HAL_Driver/Src/stm32f4xx_hal_hcd.c ****     {
1455:Drivers/STM32F4xx_HAL_Driver/Src/stm32f4xx_hal_hcd.c ****       hhcd->hc[ch_num].state = HC_XACTERR;
1456:Drivers/STM32F4xx_HAL_Driver/Src/stm32f4xx_hal_hcd.c ****       (void)USB_HC_Halt(hhcd->Instance, (uint8_t)ch_num);
1457:Drivers/STM32F4xx_HAL_Driver/Src/stm32f4xx_hal_hcd.c ****     }
1458:Drivers/STM32F4xx_HAL_Driver/Src/stm32f4xx_hal_hcd.c ****     else
1459:Drivers/STM32F4xx_HAL_Driver/Src/stm32f4xx_hal_hcd.c ****     {
1460:Drivers/STM32F4xx_HAL_Driver/Src/stm32f4xx_hal_hcd.c ****       hhcd->hc[ch_num].ErrCnt++;
1461:Drivers/STM32F4xx_HAL_Driver/Src/stm32f4xx_hal_hcd.c ****       if (hhcd->hc[ch_num].ErrCnt > 2U)
1462:Drivers/STM32F4xx_HAL_Driver/Src/stm32f4xx_hal_hcd.c ****       {
1463:Drivers/STM32F4xx_HAL_Driver/Src/stm32f4xx_hal_hcd.c ****         hhcd->hc[ch_num].ErrCnt = 0U;
1464:Drivers/STM32F4xx_HAL_Driver/Src/stm32f4xx_hal_hcd.c ****         hhcd->hc[ch_num].urb_state = URB_ERROR;
1465:Drivers/STM32F4xx_HAL_Driver/Src/stm32f4xx_hal_hcd.c **** 
1466:Drivers/STM32F4xx_HAL_Driver/Src/stm32f4xx_hal_hcd.c **** #if (USE_HAL_HCD_REGISTER_CALLBACKS == 1U)
1467:Drivers/STM32F4xx_HAL_Driver/Src/stm32f4xx_hal_hcd.c ****         hhcd->HC_NotifyURBChangeCallback(hhcd, (uint8_t)ch_num, hhcd->hc[ch_num].urb_state);
1468:Drivers/STM32F4xx_HAL_Driver/Src/stm32f4xx_hal_hcd.c **** #else
1469:Drivers/STM32F4xx_HAL_Driver/Src/stm32f4xx_hal_hcd.c ****         HAL_HCD_HC_NotifyURBChange_Callback(hhcd, (uint8_t)ch_num, hhcd->hc[ch_num].urb_state);
1470:Drivers/STM32F4xx_HAL_Driver/Src/stm32f4xx_hal_hcd.c **** #endif /* USE_HAL_HCD_REGISTER_CALLBACKS */
1471:Drivers/STM32F4xx_HAL_Driver/Src/stm32f4xx_hal_hcd.c ****       }
1472:Drivers/STM32F4xx_HAL_Driver/Src/stm32f4xx_hal_hcd.c ****       else
1473:Drivers/STM32F4xx_HAL_Driver/Src/stm32f4xx_hal_hcd.c ****       {
1474:Drivers/STM32F4xx_HAL_Driver/Src/stm32f4xx_hal_hcd.c ****         hhcd->hc[ch_num].urb_state = URB_NOTREADY;
1475:Drivers/STM32F4xx_HAL_Driver/Src/stm32f4xx_hal_hcd.c ****       }
1476:Drivers/STM32F4xx_HAL_Driver/Src/stm32f4xx_hal_hcd.c ****     }
1477:Drivers/STM32F4xx_HAL_Driver/Src/stm32f4xx_hal_hcd.c ****     __HAL_HCD_CLEAR_HC_INT(ch_num, USB_OTG_HCINT_TXERR);
1478:Drivers/STM32F4xx_HAL_Driver/Src/stm32f4xx_hal_hcd.c ****   }
1479:Drivers/STM32F4xx_HAL_Driver/Src/stm32f4xx_hal_hcd.c ****   else if ((USBx_HC(ch_num)->HCINT & USB_OTG_HCINT_DTERR) == USB_OTG_HCINT_DTERR)
1480:Drivers/STM32F4xx_HAL_Driver/Src/stm32f4xx_hal_hcd.c ****   {
1481:Drivers/STM32F4xx_HAL_Driver/Src/stm32f4xx_hal_hcd.c ****     hhcd->hc[ch_num].state = HC_DATATGLERR;
1482:Drivers/STM32F4xx_HAL_Driver/Src/stm32f4xx_hal_hcd.c ****     (void)USB_HC_Halt(hhcd->Instance, (uint8_t)ch_num);
1483:Drivers/STM32F4xx_HAL_Driver/Src/stm32f4xx_hal_hcd.c ****     __HAL_HCD_CLEAR_HC_INT(ch_num, USB_OTG_HCINT_DTERR);
1484:Drivers/STM32F4xx_HAL_Driver/Src/stm32f4xx_hal_hcd.c ****   }
1485:Drivers/STM32F4xx_HAL_Driver/Src/stm32f4xx_hal_hcd.c ****   else if ((USBx_HC(ch_num)->HCINT & USB_OTG_HCINT_CHH) == USB_OTG_HCINT_CHH)
ARM GAS  /var/folders/0z/tsy30v1j4xl4_7kw94k978ww0000gn/T//cc1wg7if.s 			page 47


1486:Drivers/STM32F4xx_HAL_Driver/Src/stm32f4xx_hal_hcd.c ****   {
1487:Drivers/STM32F4xx_HAL_Driver/Src/stm32f4xx_hal_hcd.c ****     if (hhcd->hc[ch_num].state == HC_XFRC)
 976              		.loc 1 1487 25 view .LVU271
 977 00c0 4FF02C08 		mov	r8, #44
 978 00c4 64E0     		b	.L150
 979              	.LVL66:
 980              	.L220:
 981              		.loc 1 1487 25 view .LVU272
 982              	.LBE11:
 983              	.LBE10:
 594:Drivers/STM32F4xx_HAL_Driver/Src/stm32f4xx_hal_hcd.c ****           }
 984              		.loc 1 594 13 is_stmt 1 view .LVU273
 985 00c6 5FFA86F9 		uxtb	r9, r6
 986              	.LVL67:
 987              	.LBB27:
 988              	.LBI27:
1184:Drivers/STM32F4xx_HAL_Driver/Src/stm32f4xx_hal_hcd.c **** {
 989              		.loc 1 1184 13 view .LVU274
 990              	.LBB28:
1186:Drivers/STM32F4xx_HAL_Driver/Src/stm32f4xx_hal_hcd.c ****   uint32_t USBx_BASE = (uint32_t)USBx;
 991              		.loc 1 1186 3 view .LVU275
1187:Drivers/STM32F4xx_HAL_Driver/Src/stm32f4xx_hal_hcd.c ****   uint32_t ch_num = (uint32_t)chnum;
 992              		.loc 1 1187 3 view .LVU276
1188:Drivers/STM32F4xx_HAL_Driver/Src/stm32f4xx_hal_hcd.c **** 
 993              		.loc 1 1188 3 view .LVU277
1190:Drivers/STM32F4xx_HAL_Driver/Src/stm32f4xx_hal_hcd.c **** 
 994              		.loc 1 1190 3 view .LVU278
1192:Drivers/STM32F4xx_HAL_Driver/Src/stm32f4xx_hal_hcd.c ****   {
 995              		.loc 1 1192 3 view .LVU279
1192:Drivers/STM32F4xx_HAL_Driver/Src/stm32f4xx_hal_hcd.c ****   {
 996              		.loc 1 1192 8 is_stmt 0 view .LVU280
 997 00ca 00F5A06B 		add	fp, r0, #1280
 998 00ce 0BEB491A 		add	r10, fp, r9, lsl #5
 999 00d2 4FEA4913 		lsl	r3, r9, #5
1192:Drivers/STM32F4xx_HAL_Driver/Src/stm32f4xx_hal_hcd.c ****   {
 1000              		.loc 1 1192 23 view .LVU281
 1001 00d6 DAF80820 		ldr	r2, [r10, #8]
1192:Drivers/STM32F4xx_HAL_Driver/Src/stm32f4xx_hal_hcd.c ****   {
 1002              		.loc 1 1192 8 view .LVU282
 1003 00da 0193     		str	r3, [sp, #4]
1192:Drivers/STM32F4xx_HAL_Driver/Src/stm32f4xx_hal_hcd.c ****   {
 1004              		.loc 1 1192 6 view .LVU283
 1005 00dc 5207     		lsls	r2, r2, #29
 1006 00de 00F16C81 		bmi	.L215
1198:Drivers/STM32F4xx_HAL_Driver/Src/stm32f4xx_hal_hcd.c ****   {
 1007              		.loc 1 1198 8 is_stmt 1 view .LVU284
1198:Drivers/STM32F4xx_HAL_Driver/Src/stm32f4xx_hal_hcd.c ****   {
 1008              		.loc 1 1198 28 is_stmt 0 view .LVU285
 1009 00e2 DAF80820 		ldr	r2, [r10, #8]
1198:Drivers/STM32F4xx_HAL_Driver/Src/stm32f4xx_hal_hcd.c ****   {
 1010              		.loc 1 1198 11 view .LVU286
 1011 00e6 D305     		lsls	r3, r2, #23
 1012 00e8 00F19F81 		bmi	.L216
1204:Drivers/STM32F4xx_HAL_Driver/Src/stm32f4xx_hal_hcd.c ****   {
 1013              		.loc 1 1204 8 is_stmt 1 view .LVU287
1204:Drivers/STM32F4xx_HAL_Driver/Src/stm32f4xx_hal_hcd.c ****   {
 1014              		.loc 1 1204 28 is_stmt 0 view .LVU288
ARM GAS  /var/folders/0z/tsy30v1j4xl4_7kw94k978ww0000gn/T//cc1wg7if.s 			page 48


 1015 00ec DAF80820 		ldr	r2, [r10, #8]
1204:Drivers/STM32F4xx_HAL_Driver/Src/stm32f4xx_hal_hcd.c ****   {
 1016              		.loc 1 1204 11 view .LVU289
 1017 00f0 9106     		lsls	r1, r2, #26
 1018 00f2 40F18781 		bpl	.L102
1206:Drivers/STM32F4xx_HAL_Driver/Src/stm32f4xx_hal_hcd.c ****   }
 1019              		.loc 1 1206 5 is_stmt 1 view .LVU290
 1020 00f6 2022     		movs	r2, #32
 1021 00f8 CAF80820 		str	r2, [r10, #8]
 1022              	.LVL68:
 1023              	.L100:
1229:Drivers/STM32F4xx_HAL_Driver/Src/stm32f4xx_hal_hcd.c **** 
 1024              		.loc 1 1229 3 view .LVU291
1231:Drivers/STM32F4xx_HAL_Driver/Src/stm32f4xx_hal_hcd.c ****   {
 1025              		.loc 1 1231 3 view .LVU292
1231:Drivers/STM32F4xx_HAL_Driver/Src/stm32f4xx_hal_hcd.c ****   {
 1026              		.loc 1 1231 23 is_stmt 0 view .LVU293
 1027 00fc DAF80820 		ldr	r2, [r10, #8]
1231:Drivers/STM32F4xx_HAL_Driver/Src/stm32f4xx_hal_hcd.c ****   {
 1028              		.loc 1 1231 6 view .LVU294
 1029 0100 9205     		lsls	r2, r2, #22
 1030 0102 00F16781 		bmi	.L217
1236:Drivers/STM32F4xx_HAL_Driver/Src/stm32f4xx_hal_hcd.c ****   {
 1031              		.loc 1 1236 8 is_stmt 1 view .LVU295
1236:Drivers/STM32F4xx_HAL_Driver/Src/stm32f4xx_hal_hcd.c ****   {
 1032              		.loc 1 1236 28 is_stmt 0 view .LVU296
 1033 0106 DAF80820 		ldr	r2, [r10, #8]
1236:Drivers/STM32F4xx_HAL_Driver/Src/stm32f4xx_hal_hcd.c ****   {
 1034              		.loc 1 1236 11 view .LVU297
 1035 010a D307     		lsls	r3, r2, #31
 1036 010c 40F10481 		bpl	.L106
1238:Drivers/STM32F4xx_HAL_Driver/Src/stm32f4xx_hal_hcd.c ****     {
 1037              		.loc 1 1238 5 is_stmt 1 view .LVU298
1238:Drivers/STM32F4xx_HAL_Driver/Src/stm32f4xx_hal_hcd.c ****     {
 1038              		.loc 1 1238 19 is_stmt 0 view .LVU299
 1039 0110 2069     		ldr	r0, [r4, #16]
1238:Drivers/STM32F4xx_HAL_Driver/Src/stm32f4xx_hal_hcd.c ****     {
 1040              		.loc 1 1238 8 view .LVU300
 1041 0112 58B1     		cbz	r0, .L107
1240:Drivers/STM32F4xx_HAL_Driver/Src/stm32f4xx_hal_hcd.c ****                                     (USBx_HC(ch_num)->HCTSIZ & USB_OTG_HCTSIZ_XFRSIZ);
 1042              		.loc 1 1240 7 is_stmt 1 view .LVU301
1241:Drivers/STM32F4xx_HAL_Driver/Src/stm32f4xx_hal_hcd.c ****     }
 1043              		.loc 1 1241 53 is_stmt 0 view .LVU302
 1044 0114 DAF81020 		ldr	r2, [r10, #16]
1240:Drivers/STM32F4xx_HAL_Driver/Src/stm32f4xx_hal_hcd.c ****                                     (USBx_HC(ch_num)->HCTSIZ & USB_OTG_HCTSIZ_XFRSIZ);
 1045              		.loc 1 1240 35 view .LVU303
 1046 0118 08FB094C 		mla	ip, r8, r9, r4
1241:Drivers/STM32F4xx_HAL_Driver/Src/stm32f4xx_hal_hcd.c ****     }
 1047              		.loc 1 1241 62 view .LVU304
 1048 011c C2F3120E 		ubfx	lr, r2, #0, #19
1240:Drivers/STM32F4xx_HAL_Driver/Src/stm32f4xx_hal_hcd.c ****                                     (USBx_HC(ch_num)->HCTSIZ & USB_OTG_HCTSIZ_XFRSIZ);
 1049              		.loc 1 1240 63 view .LVU305
 1050 0120 DCF84820 		ldr	r2, [ip, #72]
 1051 0124 A2EB0E02 		sub	r2, r2, lr
1240:Drivers/STM32F4xx_HAL_Driver/Src/stm32f4xx_hal_hcd.c ****                                     (USBx_HC(ch_num)->HCTSIZ & USB_OTG_HCTSIZ_XFRSIZ);
 1052              		.loc 1 1240 35 view .LVU306
 1053 0128 CCF85020 		str	r2, [ip, #80]
ARM GAS  /var/folders/0z/tsy30v1j4xl4_7kw94k978ww0000gn/T//cc1wg7if.s 			page 49


 1054              	.L107:
1244:Drivers/STM32F4xx_HAL_Driver/Src/stm32f4xx_hal_hcd.c ****     hhcd->hc[ch_num].ErrCnt = 0U;
 1055              		.loc 1 1244 5 is_stmt 1 view .LVU307
1244:Drivers/STM32F4xx_HAL_Driver/Src/stm32f4xx_hal_hcd.c ****     hhcd->hc[ch_num].ErrCnt = 0U;
 1056              		.loc 1 1244 28 is_stmt 0 view .LVU308
 1057 012c 08FB094C 		mla	ip, r8, r9, r4
 1058 0130 0122     		movs	r2, #1
1245:Drivers/STM32F4xx_HAL_Driver/Src/stm32f4xx_hal_hcd.c ****     __HAL_HCD_CLEAR_HC_INT(ch_num, USB_OTG_HCINT_XFRC);
 1059              		.loc 1 1245 29 view .LVU309
 1060 0132 0023     		movs	r3, #0
1244:Drivers/STM32F4xx_HAL_Driver/Src/stm32f4xx_hal_hcd.c ****     hhcd->hc[ch_num].ErrCnt = 0U;
 1061              		.loc 1 1244 28 view .LVU310
 1062 0134 8CF86120 		strb	r2, [ip, #97]
1245:Drivers/STM32F4xx_HAL_Driver/Src/stm32f4xx_hal_hcd.c ****     __HAL_HCD_CLEAR_HC_INT(ch_num, USB_OTG_HCINT_XFRC);
 1063              		.loc 1 1245 5 is_stmt 1 view .LVU311
1245:Drivers/STM32F4xx_HAL_Driver/Src/stm32f4xx_hal_hcd.c ****     __HAL_HCD_CLEAR_HC_INT(ch_num, USB_OTG_HCINT_XFRC);
 1064              		.loc 1 1245 29 is_stmt 0 view .LVU312
 1065 0138 CCF85C30 		str	r3, [ip, #92]
1246:Drivers/STM32F4xx_HAL_Driver/Src/stm32f4xx_hal_hcd.c **** 
 1066              		.loc 1 1246 5 is_stmt 1 view .LVU313
 1067 013c CAF80820 		str	r2, [r10, #8]
1248:Drivers/STM32F4xx_HAL_Driver/Src/stm32f4xx_hal_hcd.c ****         (hhcd->hc[ch_num].ep_type == EP_TYPE_BULK))
 1068              		.loc 1 1248 5 view .LVU314
1248:Drivers/STM32F4xx_HAL_Driver/Src/stm32f4xx_hal_hcd.c ****         (hhcd->hc[ch_num].ep_type == EP_TYPE_BULK))
 1069              		.loc 1 1248 8 is_stmt 0 view .LVU315
 1070 0140 9CF83F20 		ldrb	r2, [ip, #63]	@ zero_extendqisi2
 1071 0144 12F0FD02 		ands	r2, r2, #253
 1072 0148 00F07D81 		beq	.L218
1254:Drivers/STM32F4xx_HAL_Driver/Src/stm32f4xx_hal_hcd.c ****              (hhcd->hc[ch_num].ep_type == EP_TYPE_ISOC))
 1073              		.loc 1 1254 10 is_stmt 1 view .LVU316
1254:Drivers/STM32F4xx_HAL_Driver/Src/stm32f4xx_hal_hcd.c ****              (hhcd->hc[ch_num].ep_type == EP_TYPE_ISOC))
 1074              		.loc 1 1254 57 is_stmt 0 view .LVU317
 1075 014c 012A     		cmp	r2, #1
 1076 014e 0DD1     		bne	.L109
1257:Drivers/STM32F4xx_HAL_Driver/Src/stm32f4xx_hal_hcd.c ****       hhcd->hc[ch_num].urb_state = URB_DONE;
 1077              		.loc 1 1257 7 is_stmt 1 view .LVU318
1257:Drivers/STM32F4xx_HAL_Driver/Src/stm32f4xx_hal_hcd.c ****       hhcd->hc[ch_num].urb_state = URB_DONE;
 1078              		.loc 1 1257 31 is_stmt 0 view .LVU319
 1079 0150 019B     		ldr	r3, [sp, #4]
 1080 0152 5BF80300 		ldr	r0, [fp, r3]
 1081 0156 40F00050 		orr	r0, r0, #536870912
 1082 015a 4BF80300 		str	r0, [fp, r3]
1258:Drivers/STM32F4xx_HAL_Driver/Src/stm32f4xx_hal_hcd.c **** 
 1083              		.loc 1 1258 7 is_stmt 1 view .LVU320
1263:Drivers/STM32F4xx_HAL_Driver/Src/stm32f4xx_hal_hcd.c **** #endif /* USE_HAL_HCD_REGISTER_CALLBACKS */
 1084              		.loc 1 1263 7 is_stmt 0 view .LVU321
 1085 015e 4946     		mov	r1, r9
 1086 0160 2046     		mov	r0, r4
1258:Drivers/STM32F4xx_HAL_Driver/Src/stm32f4xx_hal_hcd.c **** 
 1087              		.loc 1 1258 34 view .LVU322
 1088 0162 8CF86020 		strb	r2, [ip, #96]
1263:Drivers/STM32F4xx_HAL_Driver/Src/stm32f4xx_hal_hcd.c **** #endif /* USE_HAL_HCD_REGISTER_CALLBACKS */
 1089              		.loc 1 1263 7 is_stmt 1 view .LVU323
 1090 0166 FFF7FEFF 		bl	HAL_HCD_HC_NotifyURBChange_Callback
 1091              	.LVL69:
1271:Drivers/STM32F4xx_HAL_Driver/Src/stm32f4xx_hal_hcd.c ****     {
 1092              		.loc 1 1271 19 is_stmt 0 view .LVU324
ARM GAS  /var/folders/0z/tsy30v1j4xl4_7kw94k978ww0000gn/T//cc1wg7if.s 			page 50


 1093 016a 2069     		ldr	r0, [r4, #16]
 1094              	.L109:
1271:Drivers/STM32F4xx_HAL_Driver/Src/stm32f4xx_hal_hcd.c ****     {
 1095              		.loc 1 1271 5 is_stmt 1 view .LVU325
1271:Drivers/STM32F4xx_HAL_Driver/Src/stm32f4xx_hal_hcd.c ****     {
 1096              		.loc 1 1271 8 is_stmt 0 view .LVU326
 1097 016c 0128     		cmp	r0, #1
1273:Drivers/STM32F4xx_HAL_Driver/Src/stm32f4xx_hal_hcd.c ****       {
 1098              		.loc 1 1273 29 view .LVU327
 1099 016e 08FB0941 		mla	r1, r8, r9, r4
1271:Drivers/STM32F4xx_HAL_Driver/Src/stm32f4xx_hal_hcd.c ****     {
 1100              		.loc 1 1271 8 view .LVU328
 1101 0172 00F0A681 		beq	.L219
 1102              	.L110:
1280:Drivers/STM32F4xx_HAL_Driver/Src/stm32f4xx_hal_hcd.c ****     }
 1103              		.loc 1 1280 7 is_stmt 1 view .LVU329
1280:Drivers/STM32F4xx_HAL_Driver/Src/stm32f4xx_hal_hcd.c ****     }
 1104              		.loc 1 1280 34 is_stmt 0 view .LVU330
 1105 0176 91F85430 		ldrb	r3, [r1, #84]	@ zero_extendqisi2
 1106 017a 83F00103 		eor	r3, r3, #1
 1107 017e 81F85430 		strb	r3, [r1, #84]
 1108              	.LBE28:
 1109              	.LBE27:
 588:Drivers/STM32F4xx_HAL_Driver/Src/stm32f4xx_hal_hcd.c ****       {
 1110              		.loc 1 588 34 view .LVU331
 1111 0182 A268     		ldr	r2, [r4, #8]
 602:Drivers/STM32F4xx_HAL_Driver/Src/stm32f4xx_hal_hcd.c ****     }
 1112              		.loc 1 602 7 view .LVU332
 1113 0184 2068     		ldr	r0, [r4]
 1114              	.LVL70:
 1115              	.L97:
 588:Drivers/STM32F4xx_HAL_Driver/Src/stm32f4xx_hal_hcd.c ****       {
 1116              		.loc 1 588 51 is_stmt 1 discriminator 2 view .LVU333
 1117 0186 0136     		adds	r6, r6, #1
 1118              	.LVL71:
 588:Drivers/STM32F4xx_HAL_Driver/Src/stm32f4xx_hal_hcd.c ****       {
 1119              		.loc 1 588 22 discriminator 2 view .LVU334
 1120 0188 9642     		cmp	r6, r2
 1121 018a 05F12005 		add	r5, r5, #32
 1122 018e 49D2     		bcs	.L151
 1123              	.LVL72:
 1124              	.L150:
 590:Drivers/STM32F4xx_HAL_Driver/Src/stm32f4xx_hal_hcd.c ****         {
 1125              		.loc 1 590 9 view .LVU335
 590:Drivers/STM32F4xx_HAL_Driver/Src/stm32f4xx_hal_hcd.c ****         {
 1126              		.loc 1 590 37 is_stmt 0 view .LVU336
 1127 0190 06F00F03 		and	r3, r6, #15
 590:Drivers/STM32F4xx_HAL_Driver/Src/stm32f4xx_hal_hcd.c ****         {
 1128              		.loc 1 590 47 view .LVU337
 1129 0194 27FA03F3 		lsr	r3, r7, r3
 590:Drivers/STM32F4xx_HAL_Driver/Src/stm32f4xx_hal_hcd.c ****         {
 1130              		.loc 1 590 12 view .LVU338
 1131 0198 DB07     		lsls	r3, r3, #31
 1132 019a F4D5     		bpl	.L97
 592:Drivers/STM32F4xx_HAL_Driver/Src/stm32f4xx_hal_hcd.c ****           {
 1133              		.loc 1 592 11 is_stmt 1 view .LVU339
 592:Drivers/STM32F4xx_HAL_Driver/Src/stm32f4xx_hal_hcd.c ****           {
ARM GAS  /var/folders/0z/tsy30v1j4xl4_7kw94k978ww0000gn/T//cc1wg7if.s 			page 51


 1134              		.loc 1 592 26 is_stmt 0 view .LVU340
 1135 019c 2B68     		ldr	r3, [r5]
 592:Drivers/STM32F4xx_HAL_Driver/Src/stm32f4xx_hal_hcd.c ****           {
 1136              		.loc 1 592 14 view .LVU341
 1137 019e 1904     		lsls	r1, r3, #16
 1138 01a0 91D4     		bmi	.L220
 598:Drivers/STM32F4xx_HAL_Driver/Src/stm32f4xx_hal_hcd.c ****           }
 1139              		.loc 1 598 13 is_stmt 1 view .LVU342
 1140 01a2 F1B2     		uxtb	r1, r6
 1141              	.LVL73:
 1142              	.LBB40:
 1143              	.LBI10:
1377:Drivers/STM32F4xx_HAL_Driver/Src/stm32f4xx_hal_hcd.c **** {
 1144              		.loc 1 1377 13 view .LVU343
 1145              	.LBB12:
1379:Drivers/STM32F4xx_HAL_Driver/Src/stm32f4xx_hal_hcd.c ****   uint32_t USBx_BASE = (uint32_t)USBx;
 1146              		.loc 1 1379 3 view .LVU344
1380:Drivers/STM32F4xx_HAL_Driver/Src/stm32f4xx_hal_hcd.c ****   uint32_t ch_num = (uint32_t)chnum;
 1147              		.loc 1 1380 3 view .LVU345
1381:Drivers/STM32F4xx_HAL_Driver/Src/stm32f4xx_hal_hcd.c ****   uint32_t tmpreg;
 1148              		.loc 1 1381 3 view .LVU346
1382:Drivers/STM32F4xx_HAL_Driver/Src/stm32f4xx_hal_hcd.c ****   uint32_t num_packets;
 1149              		.loc 1 1382 3 view .LVU347
1383:Drivers/STM32F4xx_HAL_Driver/Src/stm32f4xx_hal_hcd.c **** 
 1150              		.loc 1 1383 3 view .LVU348
1385:Drivers/STM32F4xx_HAL_Driver/Src/stm32f4xx_hal_hcd.c ****   {
 1151              		.loc 1 1385 3 view .LVU349
1385:Drivers/STM32F4xx_HAL_Driver/Src/stm32f4xx_hal_hcd.c ****   {
 1152              		.loc 1 1385 8 is_stmt 0 view .LVU350
 1153 01a4 00F5A06C 		add	ip, r0, #1280
 1154 01a8 0CEB411A 		add	r10, ip, r1, lsl #5
 1155 01ac 4FEA411E 		lsl	lr, r1, #5
1385:Drivers/STM32F4xx_HAL_Driver/Src/stm32f4xx_hal_hcd.c ****   {
 1156              		.loc 1 1385 23 view .LVU351
 1157 01b0 DAF80830 		ldr	r3, [r10, #8]
1385:Drivers/STM32F4xx_HAL_Driver/Src/stm32f4xx_hal_hcd.c ****   {
 1158              		.loc 1 1385 6 view .LVU352
 1159 01b4 13F00403 		ands	r3, r3, #4
 1160 01b8 40F01781 		bne	.L221
1391:Drivers/STM32F4xx_HAL_Driver/Src/stm32f4xx_hal_hcd.c ****   {
 1161              		.loc 1 1391 8 is_stmt 1 view .LVU353
1391:Drivers/STM32F4xx_HAL_Driver/Src/stm32f4xx_hal_hcd.c ****   {
 1162              		.loc 1 1391 28 is_stmt 0 view .LVU354
 1163 01bc DAF808B0 		ldr	fp, [r10, #8]
1391:Drivers/STM32F4xx_HAL_Driver/Src/stm32f4xx_hal_hcd.c ****   {
 1164              		.loc 1 1391 11 view .LVU355
 1165 01c0 1BF0200F 		tst	fp, #32
 1166 01c4 00F08280 		beq	.L128
1393:Drivers/STM32F4xx_HAL_Driver/Src/stm32f4xx_hal_hcd.c **** 
 1167              		.loc 1 1393 5 is_stmt 1 view .LVU356
 1168 01c8 4FF0200C 		mov	ip, #32
 1169 01cc CAF808C0 		str	ip, [r10, #8]
1395:Drivers/STM32F4xx_HAL_Driver/Src/stm32f4xx_hal_hcd.c ****     {
 1170              		.loc 1 1395 5 view .LVU357
1395:Drivers/STM32F4xx_HAL_Driver/Src/stm32f4xx_hal_hcd.c ****     {
 1171              		.loc 1 1395 25 is_stmt 0 view .LVU358
 1172 01d0 08FB014C 		mla	ip, r8, r1, r4
ARM GAS  /var/folders/0z/tsy30v1j4xl4_7kw94k978ww0000gn/T//cc1wg7if.s 			page 52


1395:Drivers/STM32F4xx_HAL_Driver/Src/stm32f4xx_hal_hcd.c ****     {
 1173              		.loc 1 1395 8 view .LVU359
 1174 01d4 9CF83DE0 		ldrb	lr, [ip, #61]	@ zero_extendqisi2
 1175 01d8 BEF1010F 		cmp	lr, #1
 1176 01dc D3D1     		bne	.L97
1397:Drivers/STM32F4xx_HAL_Driver/Src/stm32f4xx_hal_hcd.c ****       hhcd->hc[ch_num].urb_state = URB_NOTREADY;
 1177              		.loc 1 1397 7 is_stmt 1 view .LVU360
1397:Drivers/STM32F4xx_HAL_Driver/Src/stm32f4xx_hal_hcd.c ****       hhcd->hc[ch_num].urb_state = URB_NOTREADY;
 1178              		.loc 1 1397 32 is_stmt 0 view .LVU361
 1179 01de 8CF83D30 		strb	r3, [ip, #61]
1398:Drivers/STM32F4xx_HAL_Driver/Src/stm32f4xx_hal_hcd.c ****       (void)USB_HC_Halt(hhcd->Instance, (uint8_t)ch_num);
 1180              		.loc 1 1398 7 is_stmt 1 view .LVU362
1398:Drivers/STM32F4xx_HAL_Driver/Src/stm32f4xx_hal_hcd.c ****       (void)USB_HC_Halt(hhcd->Instance, (uint8_t)ch_num);
 1181              		.loc 1 1398 34 is_stmt 0 view .LVU363
 1182 01e2 4FF00203 		mov	r3, #2
 1183 01e6 8CF86030 		strb	r3, [ip, #96]
1399:Drivers/STM32F4xx_HAL_Driver/Src/stm32f4xx_hal_hcd.c ****     }
 1184              		.loc 1 1399 7 is_stmt 1 view .LVU364
1399:Drivers/STM32F4xx_HAL_Driver/Src/stm32f4xx_hal_hcd.c ****     }
 1185              		.loc 1 1399 13 is_stmt 0 view .LVU365
 1186 01ea FFF7FEFF 		bl	USB_HC_Halt
 1187              	.LVL74:
1399:Drivers/STM32F4xx_HAL_Driver/Src/stm32f4xx_hal_hcd.c ****     }
 1188              		.loc 1 1399 13 view .LVU366
 1189              	.LBE12:
 1190              	.LBE40:
 588:Drivers/STM32F4xx_HAL_Driver/Src/stm32f4xx_hal_hcd.c ****       {
 1191              		.loc 1 588 34 view .LVU367
 1192 01ee A268     		ldr	r2, [r4, #8]
 602:Drivers/STM32F4xx_HAL_Driver/Src/stm32f4xx_hal_hcd.c ****     }
 1193              		.loc 1 602 7 view .LVU368
 1194 01f0 2068     		ldr	r0, [r4]
 1195 01f2 C8E7     		b	.L97
 1196              	.LVL75:
 1197              	.L77:
 536:Drivers/STM32F4xx_HAL_Driver/Src/stm32f4xx_hal_hcd.c **** 
 1198              		.loc 1 536 7 is_stmt 1 view .LVU369
 1199 01f4 4FF00053 		mov	r3, #536870912
 1200 01f8 4361     		str	r3, [r0, #20]
 538:Drivers/STM32F4xx_HAL_Driver/Src/stm32f4xx_hal_hcd.c ****       {
 1201              		.loc 1 538 7 view .LVU370
 538:Drivers/STM32F4xx_HAL_Driver/Src/stm32f4xx_hal_hcd.c ****       {
 1202              		.loc 1 538 12 is_stmt 0 view .LVU371
 1203 01fa D5F84034 		ldr	r3, [r5, #1088]
 538:Drivers/STM32F4xx_HAL_Driver/Src/stm32f4xx_hal_hcd.c ****       {
 1204              		.loc 1 538 10 view .LVU372
 1205 01fe DF07     		lsls	r7, r3, #31
 1206 0200 3FF53BAF 		bmi	.L78
 541:Drivers/STM32F4xx_HAL_Driver/Src/stm32f4xx_hal_hcd.c ****         (void)USB_FlushRxFifo(USBx);
 1207              		.loc 1 541 9 is_stmt 1 view .LVU373
 541:Drivers/STM32F4xx_HAL_Driver/Src/stm32f4xx_hal_hcd.c ****         (void)USB_FlushRxFifo(USBx);
 1208              		.loc 1 541 15 is_stmt 0 view .LVU374
 1209 0204 1021     		movs	r1, #16
 1210 0206 2846     		mov	r0, r5
 1211 0208 FFF7FEFF 		bl	USB_FlushTxFifo
 1212              	.LVL76:
 542:Drivers/STM32F4xx_HAL_Driver/Src/stm32f4xx_hal_hcd.c **** 
ARM GAS  /var/folders/0z/tsy30v1j4xl4_7kw94k978ww0000gn/T//cc1wg7if.s 			page 53


 1213              		.loc 1 542 9 is_stmt 1 view .LVU375
 542:Drivers/STM32F4xx_HAL_Driver/Src/stm32f4xx_hal_hcd.c **** 
 1214              		.loc 1 542 15 is_stmt 0 view .LVU376
 1215 020c 2846     		mov	r0, r5
 1216 020e FFF7FEFF 		bl	USB_FlushRxFifo
 1217              	.LVL77:
 545:Drivers/STM32F4xx_HAL_Driver/Src/stm32f4xx_hal_hcd.c **** 
 1218              		.loc 1 545 9 is_stmt 1 view .LVU377
 545:Drivers/STM32F4xx_HAL_Driver/Src/stm32f4xx_hal_hcd.c **** 
 1219              		.loc 1 545 15 is_stmt 0 view .LVU378
 1220 0212 0121     		movs	r1, #1
 1221 0214 2068     		ldr	r0, [r4]
 1222 0216 FFF7FEFF 		bl	USB_InitFSLSPClkSel
 1223              	.LVL78:
 551:Drivers/STM32F4xx_HAL_Driver/Src/stm32f4xx_hal_hcd.c **** #endif /* USE_HAL_HCD_REGISTER_CALLBACKS */
 1224              		.loc 1 551 9 is_stmt 1 view .LVU379
 1225 021a 2046     		mov	r0, r4
 1226 021c FFF7FEFF 		bl	HAL_HCD_Disconnect_Callback
 1227              	.LVL79:
 557:Drivers/STM32F4xx_HAL_Driver/Src/stm32f4xx_hal_hcd.c ****     {
 1228              		.loc 1 557 9 is_stmt 0 view .LVU380
 1229 0220 2068     		ldr	r0, [r4]
 1230 0222 2AE7     		b	.L78
 1231              	.LVL80:
 1232              	.L151:
 602:Drivers/STM32F4xx_HAL_Driver/Src/stm32f4xx_hal_hcd.c ****     }
 1233              		.loc 1 602 7 is_stmt 1 view .LVU381
 1234 0224 4FF00073 		mov	r3, #33554432
 1235 0228 4361     		str	r3, [r0, #20]
 1236 022a F3E6     		b	.L65
 1237              	.LVL81:
 1238              	.L90:
 577:Drivers/STM32F4xx_HAL_Driver/Src/stm32f4xx_hal_hcd.c **** 
 1239              		.loc 1 577 7 view .LVU382
 1240 022c B369     		ldr	r3, [r6, #24]
 1241 022e 23F01003 		bic	r3, r3, #16
 1242 0232 B361     		str	r3, [r6, #24]
 579:Drivers/STM32F4xx_HAL_Driver/Src/stm32f4xx_hal_hcd.c **** 
 1243              		.loc 1 579 7 view .LVU383
 1244              	.LVL82:
 1245              	.LBB41:
 1246              	.LBI41:
1488:Drivers/STM32F4xx_HAL_Driver/Src/stm32f4xx_hal_hcd.c ****     {
1489:Drivers/STM32F4xx_HAL_Driver/Src/stm32f4xx_hal_hcd.c ****       hhcd->hc[ch_num].urb_state  = URB_DONE;
1490:Drivers/STM32F4xx_HAL_Driver/Src/stm32f4xx_hal_hcd.c ****       if ((hhcd->hc[ch_num].ep_type == EP_TYPE_BULK) ||
1491:Drivers/STM32F4xx_HAL_Driver/Src/stm32f4xx_hal_hcd.c ****           (hhcd->hc[ch_num].ep_type == EP_TYPE_INTR))
1492:Drivers/STM32F4xx_HAL_Driver/Src/stm32f4xx_hal_hcd.c ****       {
1493:Drivers/STM32F4xx_HAL_Driver/Src/stm32f4xx_hal_hcd.c ****         if (hhcd->Init.dma_enable == 0U)
1494:Drivers/STM32F4xx_HAL_Driver/Src/stm32f4xx_hal_hcd.c ****         {
1495:Drivers/STM32F4xx_HAL_Driver/Src/stm32f4xx_hal_hcd.c ****           hhcd->hc[ch_num].toggle_out ^= 1U;
1496:Drivers/STM32F4xx_HAL_Driver/Src/stm32f4xx_hal_hcd.c ****         }
1497:Drivers/STM32F4xx_HAL_Driver/Src/stm32f4xx_hal_hcd.c **** 
1498:Drivers/STM32F4xx_HAL_Driver/Src/stm32f4xx_hal_hcd.c ****         if ((hhcd->Init.dma_enable == 1U) && (hhcd->hc[ch_num].xfer_len > 0U))
1499:Drivers/STM32F4xx_HAL_Driver/Src/stm32f4xx_hal_hcd.c ****         {
1500:Drivers/STM32F4xx_HAL_Driver/Src/stm32f4xx_hal_hcd.c ****           num_packets = (hhcd->hc[ch_num].xfer_len + hhcd->hc[ch_num].max_packet - 1U) / hhcd->hc[c
1501:Drivers/STM32F4xx_HAL_Driver/Src/stm32f4xx_hal_hcd.c **** 
1502:Drivers/STM32F4xx_HAL_Driver/Src/stm32f4xx_hal_hcd.c ****           if ((num_packets & 1U) != 0U)
ARM GAS  /var/folders/0z/tsy30v1j4xl4_7kw94k978ww0000gn/T//cc1wg7if.s 			page 54


1503:Drivers/STM32F4xx_HAL_Driver/Src/stm32f4xx_hal_hcd.c ****           {
1504:Drivers/STM32F4xx_HAL_Driver/Src/stm32f4xx_hal_hcd.c ****             hhcd->hc[ch_num].toggle_out ^= 1U;
1505:Drivers/STM32F4xx_HAL_Driver/Src/stm32f4xx_hal_hcd.c ****           }
1506:Drivers/STM32F4xx_HAL_Driver/Src/stm32f4xx_hal_hcd.c ****         }
1507:Drivers/STM32F4xx_HAL_Driver/Src/stm32f4xx_hal_hcd.c ****       }
1508:Drivers/STM32F4xx_HAL_Driver/Src/stm32f4xx_hal_hcd.c ****     }
1509:Drivers/STM32F4xx_HAL_Driver/Src/stm32f4xx_hal_hcd.c ****     else if (hhcd->hc[ch_num].state == HC_NAK)
1510:Drivers/STM32F4xx_HAL_Driver/Src/stm32f4xx_hal_hcd.c ****     {
1511:Drivers/STM32F4xx_HAL_Driver/Src/stm32f4xx_hal_hcd.c ****       hhcd->hc[ch_num].urb_state = URB_NOTREADY;
1512:Drivers/STM32F4xx_HAL_Driver/Src/stm32f4xx_hal_hcd.c ****     }
1513:Drivers/STM32F4xx_HAL_Driver/Src/stm32f4xx_hal_hcd.c ****     else if (hhcd->hc[ch_num].state == HC_NYET)
1514:Drivers/STM32F4xx_HAL_Driver/Src/stm32f4xx_hal_hcd.c ****     {
1515:Drivers/STM32F4xx_HAL_Driver/Src/stm32f4xx_hal_hcd.c ****       hhcd->hc[ch_num].urb_state  = URB_NOTREADY;
1516:Drivers/STM32F4xx_HAL_Driver/Src/stm32f4xx_hal_hcd.c ****     }
1517:Drivers/STM32F4xx_HAL_Driver/Src/stm32f4xx_hal_hcd.c ****     else if (hhcd->hc[ch_num].state == HC_STALL)
1518:Drivers/STM32F4xx_HAL_Driver/Src/stm32f4xx_hal_hcd.c ****     {
1519:Drivers/STM32F4xx_HAL_Driver/Src/stm32f4xx_hal_hcd.c ****       hhcd->hc[ch_num].urb_state  = URB_STALL;
1520:Drivers/STM32F4xx_HAL_Driver/Src/stm32f4xx_hal_hcd.c ****     }
1521:Drivers/STM32F4xx_HAL_Driver/Src/stm32f4xx_hal_hcd.c ****     else if ((hhcd->hc[ch_num].state == HC_XACTERR) ||
1522:Drivers/STM32F4xx_HAL_Driver/Src/stm32f4xx_hal_hcd.c ****              (hhcd->hc[ch_num].state == HC_DATATGLERR))
1523:Drivers/STM32F4xx_HAL_Driver/Src/stm32f4xx_hal_hcd.c ****     {
1524:Drivers/STM32F4xx_HAL_Driver/Src/stm32f4xx_hal_hcd.c ****       hhcd->hc[ch_num].ErrCnt++;
1525:Drivers/STM32F4xx_HAL_Driver/Src/stm32f4xx_hal_hcd.c ****       if (hhcd->hc[ch_num].ErrCnt > 2U)
1526:Drivers/STM32F4xx_HAL_Driver/Src/stm32f4xx_hal_hcd.c ****       {
1527:Drivers/STM32F4xx_HAL_Driver/Src/stm32f4xx_hal_hcd.c ****         hhcd->hc[ch_num].ErrCnt = 0U;
1528:Drivers/STM32F4xx_HAL_Driver/Src/stm32f4xx_hal_hcd.c ****         hhcd->hc[ch_num].urb_state = URB_ERROR;
1529:Drivers/STM32F4xx_HAL_Driver/Src/stm32f4xx_hal_hcd.c ****       }
1530:Drivers/STM32F4xx_HAL_Driver/Src/stm32f4xx_hal_hcd.c ****       else
1531:Drivers/STM32F4xx_HAL_Driver/Src/stm32f4xx_hal_hcd.c ****       {
1532:Drivers/STM32F4xx_HAL_Driver/Src/stm32f4xx_hal_hcd.c ****         hhcd->hc[ch_num].urb_state = URB_NOTREADY;
1533:Drivers/STM32F4xx_HAL_Driver/Src/stm32f4xx_hal_hcd.c **** 
1534:Drivers/STM32F4xx_HAL_Driver/Src/stm32f4xx_hal_hcd.c ****         /* re-activate the channel  */
1535:Drivers/STM32F4xx_HAL_Driver/Src/stm32f4xx_hal_hcd.c ****         tmpreg = USBx_HC(ch_num)->HCCHAR;
1536:Drivers/STM32F4xx_HAL_Driver/Src/stm32f4xx_hal_hcd.c ****         tmpreg &= ~USB_OTG_HCCHAR_CHDIS;
1537:Drivers/STM32F4xx_HAL_Driver/Src/stm32f4xx_hal_hcd.c ****         tmpreg |= USB_OTG_HCCHAR_CHENA;
1538:Drivers/STM32F4xx_HAL_Driver/Src/stm32f4xx_hal_hcd.c ****         USBx_HC(ch_num)->HCCHAR = tmpreg;
1539:Drivers/STM32F4xx_HAL_Driver/Src/stm32f4xx_hal_hcd.c ****       }
1540:Drivers/STM32F4xx_HAL_Driver/Src/stm32f4xx_hal_hcd.c ****     }
1541:Drivers/STM32F4xx_HAL_Driver/Src/stm32f4xx_hal_hcd.c ****     else
1542:Drivers/STM32F4xx_HAL_Driver/Src/stm32f4xx_hal_hcd.c ****     {
1543:Drivers/STM32F4xx_HAL_Driver/Src/stm32f4xx_hal_hcd.c ****       /* ... */
1544:Drivers/STM32F4xx_HAL_Driver/Src/stm32f4xx_hal_hcd.c ****     }
1545:Drivers/STM32F4xx_HAL_Driver/Src/stm32f4xx_hal_hcd.c **** 
1546:Drivers/STM32F4xx_HAL_Driver/Src/stm32f4xx_hal_hcd.c ****     __HAL_HCD_CLEAR_HC_INT(ch_num, USB_OTG_HCINT_CHH);
1547:Drivers/STM32F4xx_HAL_Driver/Src/stm32f4xx_hal_hcd.c **** 
1548:Drivers/STM32F4xx_HAL_Driver/Src/stm32f4xx_hal_hcd.c **** #if (USE_HAL_HCD_REGISTER_CALLBACKS == 1U)
1549:Drivers/STM32F4xx_HAL_Driver/Src/stm32f4xx_hal_hcd.c ****     hhcd->HC_NotifyURBChangeCallback(hhcd, (uint8_t)ch_num, hhcd->hc[ch_num].urb_state);
1550:Drivers/STM32F4xx_HAL_Driver/Src/stm32f4xx_hal_hcd.c **** #else
1551:Drivers/STM32F4xx_HAL_Driver/Src/stm32f4xx_hal_hcd.c ****     HAL_HCD_HC_NotifyURBChange_Callback(hhcd, (uint8_t)ch_num, hhcd->hc[ch_num].urb_state);
1552:Drivers/STM32F4xx_HAL_Driver/Src/stm32f4xx_hal_hcd.c **** #endif /* USE_HAL_HCD_REGISTER_CALLBACKS */
1553:Drivers/STM32F4xx_HAL_Driver/Src/stm32f4xx_hal_hcd.c ****   }
1554:Drivers/STM32F4xx_HAL_Driver/Src/stm32f4xx_hal_hcd.c ****   else
1555:Drivers/STM32F4xx_HAL_Driver/Src/stm32f4xx_hal_hcd.c ****   {
1556:Drivers/STM32F4xx_HAL_Driver/Src/stm32f4xx_hal_hcd.c ****     /* ... */
1557:Drivers/STM32F4xx_HAL_Driver/Src/stm32f4xx_hal_hcd.c ****   }
1558:Drivers/STM32F4xx_HAL_Driver/Src/stm32f4xx_hal_hcd.c **** }
1559:Drivers/STM32F4xx_HAL_Driver/Src/stm32f4xx_hal_hcd.c **** 
ARM GAS  /var/folders/0z/tsy30v1j4xl4_7kw94k978ww0000gn/T//cc1wg7if.s 			page 55


1560:Drivers/STM32F4xx_HAL_Driver/Src/stm32f4xx_hal_hcd.c **** /**
1561:Drivers/STM32F4xx_HAL_Driver/Src/stm32f4xx_hal_hcd.c ****   * @brief  Handle Rx Queue Level interrupt requests.
1562:Drivers/STM32F4xx_HAL_Driver/Src/stm32f4xx_hal_hcd.c ****   * @param  hhcd HCD handle
1563:Drivers/STM32F4xx_HAL_Driver/Src/stm32f4xx_hal_hcd.c ****   * @retval none
1564:Drivers/STM32F4xx_HAL_Driver/Src/stm32f4xx_hal_hcd.c ****   */
1565:Drivers/STM32F4xx_HAL_Driver/Src/stm32f4xx_hal_hcd.c **** static void HCD_RXQLVL_IRQHandler(HCD_HandleTypeDef *hhcd)
 1247              		.loc 1 1565 13 view .LVU384
 1248              	.LBB42:
1566:Drivers/STM32F4xx_HAL_Driver/Src/stm32f4xx_hal_hcd.c **** {
1567:Drivers/STM32F4xx_HAL_Driver/Src/stm32f4xx_hal_hcd.c ****   USB_OTG_GlobalTypeDef *USBx = hhcd->Instance;
 1249              		.loc 1 1567 3 view .LVU385
1568:Drivers/STM32F4xx_HAL_Driver/Src/stm32f4xx_hal_hcd.c ****   uint32_t USBx_BASE = (uint32_t)USBx;
 1250              		.loc 1 1568 3 view .LVU386
1569:Drivers/STM32F4xx_HAL_Driver/Src/stm32f4xx_hal_hcd.c ****   uint32_t pktsts;
 1251              		.loc 1 1569 3 view .LVU387
1570:Drivers/STM32F4xx_HAL_Driver/Src/stm32f4xx_hal_hcd.c ****   uint32_t pktcnt;
 1252              		.loc 1 1570 3 view .LVU388
1571:Drivers/STM32F4xx_HAL_Driver/Src/stm32f4xx_hal_hcd.c ****   uint32_t GrxstspReg;
 1253              		.loc 1 1571 3 view .LVU389
1572:Drivers/STM32F4xx_HAL_Driver/Src/stm32f4xx_hal_hcd.c ****   uint32_t xferSizePktCnt;
 1254              		.loc 1 1572 3 view .LVU390
1573:Drivers/STM32F4xx_HAL_Driver/Src/stm32f4xx_hal_hcd.c ****   uint32_t tmpreg;
 1255              		.loc 1 1573 3 view .LVU391
1574:Drivers/STM32F4xx_HAL_Driver/Src/stm32f4xx_hal_hcd.c ****   uint32_t ch_num;
 1256              		.loc 1 1574 3 view .LVU392
1575:Drivers/STM32F4xx_HAL_Driver/Src/stm32f4xx_hal_hcd.c **** 
1576:Drivers/STM32F4xx_HAL_Driver/Src/stm32f4xx_hal_hcd.c ****   GrxstspReg = hhcd->Instance->GRXSTSP;
 1257              		.loc 1 1576 3 view .LVU393
 1258              		.loc 1 1576 14 is_stmt 0 view .LVU394
 1259 0234 376A     		ldr	r7, [r6, #32]
 1260              	.LVL83:
1577:Drivers/STM32F4xx_HAL_Driver/Src/stm32f4xx_hal_hcd.c ****   ch_num = GrxstspReg & USB_OTG_GRXSTSP_EPNUM;
 1261              		.loc 1 1577 3 is_stmt 1 view .LVU395
1578:Drivers/STM32F4xx_HAL_Driver/Src/stm32f4xx_hal_hcd.c ****   pktsts = (GrxstspReg & USB_OTG_GRXSTSP_PKTSTS) >> 17;
 1262              		.loc 1 1578 3 view .LVU396
1579:Drivers/STM32F4xx_HAL_Driver/Src/stm32f4xx_hal_hcd.c ****   pktcnt = (GrxstspReg & USB_OTG_GRXSTSP_BCNT) >> 4;
 1263              		.loc 1 1579 3 view .LVU397
1580:Drivers/STM32F4xx_HAL_Driver/Src/stm32f4xx_hal_hcd.c **** 
1581:Drivers/STM32F4xx_HAL_Driver/Src/stm32f4xx_hal_hcd.c ****   switch (pktsts)
 1264              		.loc 1 1581 3 view .LVU398
1578:Drivers/STM32F4xx_HAL_Driver/Src/stm32f4xx_hal_hcd.c ****   pktcnt = (GrxstspReg & USB_OTG_GRXSTSP_BCNT) >> 4;
 1265              		.loc 1 1578 10 is_stmt 0 view .LVU399
 1266 0236 C7F34342 		ubfx	r2, r7, #17, #4
 1267              		.loc 1 1581 3 view .LVU400
 1268 023a 022A     		cmp	r2, #2
 1269 023c 00F02581 		beq	.L222
 1270              	.LVL84:
 1271              	.L92:
 1272              		.loc 1 1581 3 view .LVU401
 1273              	.LBE42:
 1274              	.LBE41:
 581:Drivers/STM32F4xx_HAL_Driver/Src/stm32f4xx_hal_hcd.c ****     }
 1275              		.loc 1 581 7 is_stmt 1 view .LVU402
 1276 0240 B369     		ldr	r3, [r6, #24]
 1277 0242 43F01003 		orr	r3, r3, #16
 1278 0246 B361     		str	r3, [r6, #24]
 1279 0248 29E7     		b	.L91
ARM GAS  /var/folders/0z/tsy30v1j4xl4_7kw94k978ww0000gn/T//cc1wg7if.s 			page 56


 1280              	.L88:
 568:Drivers/STM32F4xx_HAL_Driver/Src/stm32f4xx_hal_hcd.c **** #endif /* USE_HAL_HCD_REGISTER_CALLBACKS */
 1281              		.loc 1 568 7 view .LVU403
 1282 024a 2046     		mov	r0, r4
 1283 024c FFF7FEFF 		bl	HAL_HCD_SOF_Callback
 1284              	.LVL85:
 571:Drivers/STM32F4xx_HAL_Driver/Src/stm32f4xx_hal_hcd.c ****     }
 1285              		.loc 1 571 7 view .LVU404
 1286 0250 2068     		ldr	r0, [r4]
 1287 0252 0823     		movs	r3, #8
 1288 0254 4361     		str	r3, [r0, #20]
 1289 0256 1CE7     		b	.L89
 1290              	.L214:
 559:Drivers/STM32F4xx_HAL_Driver/Src/stm32f4xx_hal_hcd.c ****     }
 1291              		.loc 1 559 7 view .LVU405
 1292              	.LVL86:
 1293              	.LBB46:
 1294              	.LBI46:
1582:Drivers/STM32F4xx_HAL_Driver/Src/stm32f4xx_hal_hcd.c ****   {
1583:Drivers/STM32F4xx_HAL_Driver/Src/stm32f4xx_hal_hcd.c ****     case GRXSTS_PKTSTS_IN:
1584:Drivers/STM32F4xx_HAL_Driver/Src/stm32f4xx_hal_hcd.c ****       /* Read the data into the host buffer. */
1585:Drivers/STM32F4xx_HAL_Driver/Src/stm32f4xx_hal_hcd.c ****       if ((pktcnt > 0U) && (hhcd->hc[ch_num].xfer_buff != (void *)0))
1586:Drivers/STM32F4xx_HAL_Driver/Src/stm32f4xx_hal_hcd.c ****       {
1587:Drivers/STM32F4xx_HAL_Driver/Src/stm32f4xx_hal_hcd.c ****         if ((hhcd->hc[ch_num].xfer_count + pktcnt) <= hhcd->hc[ch_num].xfer_len)
1588:Drivers/STM32F4xx_HAL_Driver/Src/stm32f4xx_hal_hcd.c ****         {
1589:Drivers/STM32F4xx_HAL_Driver/Src/stm32f4xx_hal_hcd.c ****           (void)USB_ReadPacket(hhcd->Instance,
1590:Drivers/STM32F4xx_HAL_Driver/Src/stm32f4xx_hal_hcd.c ****                                hhcd->hc[ch_num].xfer_buff, (uint16_t)pktcnt);
1591:Drivers/STM32F4xx_HAL_Driver/Src/stm32f4xx_hal_hcd.c **** 
1592:Drivers/STM32F4xx_HAL_Driver/Src/stm32f4xx_hal_hcd.c ****           /* manage multiple Xfer */
1593:Drivers/STM32F4xx_HAL_Driver/Src/stm32f4xx_hal_hcd.c ****           hhcd->hc[ch_num].xfer_buff += pktcnt;
1594:Drivers/STM32F4xx_HAL_Driver/Src/stm32f4xx_hal_hcd.c ****           hhcd->hc[ch_num].xfer_count += pktcnt;
1595:Drivers/STM32F4xx_HAL_Driver/Src/stm32f4xx_hal_hcd.c **** 
1596:Drivers/STM32F4xx_HAL_Driver/Src/stm32f4xx_hal_hcd.c ****           /* get transfer size packet count */
1597:Drivers/STM32F4xx_HAL_Driver/Src/stm32f4xx_hal_hcd.c ****           xferSizePktCnt = (USBx_HC(ch_num)->HCTSIZ & USB_OTG_HCTSIZ_PKTCNT) >> 19;
1598:Drivers/STM32F4xx_HAL_Driver/Src/stm32f4xx_hal_hcd.c **** 
1599:Drivers/STM32F4xx_HAL_Driver/Src/stm32f4xx_hal_hcd.c ****           if ((hhcd->hc[ch_num].max_packet == pktcnt) && (xferSizePktCnt > 0U))
1600:Drivers/STM32F4xx_HAL_Driver/Src/stm32f4xx_hal_hcd.c ****           {
1601:Drivers/STM32F4xx_HAL_Driver/Src/stm32f4xx_hal_hcd.c ****             /* re-activate the channel when more packets are expected */
1602:Drivers/STM32F4xx_HAL_Driver/Src/stm32f4xx_hal_hcd.c ****             tmpreg = USBx_HC(ch_num)->HCCHAR;
1603:Drivers/STM32F4xx_HAL_Driver/Src/stm32f4xx_hal_hcd.c ****             tmpreg &= ~USB_OTG_HCCHAR_CHDIS;
1604:Drivers/STM32F4xx_HAL_Driver/Src/stm32f4xx_hal_hcd.c ****             tmpreg |= USB_OTG_HCCHAR_CHENA;
1605:Drivers/STM32F4xx_HAL_Driver/Src/stm32f4xx_hal_hcd.c ****             USBx_HC(ch_num)->HCCHAR = tmpreg;
1606:Drivers/STM32F4xx_HAL_Driver/Src/stm32f4xx_hal_hcd.c ****             hhcd->hc[ch_num].toggle_in ^= 1U;
1607:Drivers/STM32F4xx_HAL_Driver/Src/stm32f4xx_hal_hcd.c ****           }
1608:Drivers/STM32F4xx_HAL_Driver/Src/stm32f4xx_hal_hcd.c ****         }
1609:Drivers/STM32F4xx_HAL_Driver/Src/stm32f4xx_hal_hcd.c ****         else
1610:Drivers/STM32F4xx_HAL_Driver/Src/stm32f4xx_hal_hcd.c ****         {
1611:Drivers/STM32F4xx_HAL_Driver/Src/stm32f4xx_hal_hcd.c ****           hhcd->hc[ch_num].urb_state = URB_ERROR;
1612:Drivers/STM32F4xx_HAL_Driver/Src/stm32f4xx_hal_hcd.c ****         }
1613:Drivers/STM32F4xx_HAL_Driver/Src/stm32f4xx_hal_hcd.c ****       }
1614:Drivers/STM32F4xx_HAL_Driver/Src/stm32f4xx_hal_hcd.c ****       break;
1615:Drivers/STM32F4xx_HAL_Driver/Src/stm32f4xx_hal_hcd.c **** 
1616:Drivers/STM32F4xx_HAL_Driver/Src/stm32f4xx_hal_hcd.c ****     case GRXSTS_PKTSTS_DATA_TOGGLE_ERR:
1617:Drivers/STM32F4xx_HAL_Driver/Src/stm32f4xx_hal_hcd.c ****       break;
1618:Drivers/STM32F4xx_HAL_Driver/Src/stm32f4xx_hal_hcd.c **** 
1619:Drivers/STM32F4xx_HAL_Driver/Src/stm32f4xx_hal_hcd.c ****     case GRXSTS_PKTSTS_IN_XFER_COMP:
1620:Drivers/STM32F4xx_HAL_Driver/Src/stm32f4xx_hal_hcd.c ****     case GRXSTS_PKTSTS_CH_HALTED:
ARM GAS  /var/folders/0z/tsy30v1j4xl4_7kw94k978ww0000gn/T//cc1wg7if.s 			page 57


1621:Drivers/STM32F4xx_HAL_Driver/Src/stm32f4xx_hal_hcd.c ****     default:
1622:Drivers/STM32F4xx_HAL_Driver/Src/stm32f4xx_hal_hcd.c ****       break;
1623:Drivers/STM32F4xx_HAL_Driver/Src/stm32f4xx_hal_hcd.c ****   }
1624:Drivers/STM32F4xx_HAL_Driver/Src/stm32f4xx_hal_hcd.c **** }
1625:Drivers/STM32F4xx_HAL_Driver/Src/stm32f4xx_hal_hcd.c **** 
1626:Drivers/STM32F4xx_HAL_Driver/Src/stm32f4xx_hal_hcd.c **** /**
1627:Drivers/STM32F4xx_HAL_Driver/Src/stm32f4xx_hal_hcd.c ****   * @brief  Handle Host Port interrupt requests.
1628:Drivers/STM32F4xx_HAL_Driver/Src/stm32f4xx_hal_hcd.c ****   * @param  hhcd HCD handle
1629:Drivers/STM32F4xx_HAL_Driver/Src/stm32f4xx_hal_hcd.c ****   * @retval None
1630:Drivers/STM32F4xx_HAL_Driver/Src/stm32f4xx_hal_hcd.c ****   */
1631:Drivers/STM32F4xx_HAL_Driver/Src/stm32f4xx_hal_hcd.c **** static void HCD_Port_IRQHandler(HCD_HandleTypeDef *hhcd)
 1295              		.loc 1 1631 13 view .LVU406
 1296              	.LBB47:
1632:Drivers/STM32F4xx_HAL_Driver/Src/stm32f4xx_hal_hcd.c **** {
1633:Drivers/STM32F4xx_HAL_Driver/Src/stm32f4xx_hal_hcd.c ****   USB_OTG_GlobalTypeDef *USBx = hhcd->Instance;
 1297              		.loc 1 1633 3 view .LVU407
1634:Drivers/STM32F4xx_HAL_Driver/Src/stm32f4xx_hal_hcd.c ****   uint32_t USBx_BASE = (uint32_t)USBx;
 1298              		.loc 1 1634 3 view .LVU408
 1299              		.loc 1 1634 12 is_stmt 0 view .LVU409
 1300 0258 2668     		ldr	r6, [r4]
 1301              	.LVL87:
1635:Drivers/STM32F4xx_HAL_Driver/Src/stm32f4xx_hal_hcd.c ****   __IO uint32_t hprt0;
 1302              		.loc 1 1635 3 is_stmt 1 view .LVU410
1636:Drivers/STM32F4xx_HAL_Driver/Src/stm32f4xx_hal_hcd.c ****   __IO uint32_t hprt0_dup;
 1303              		.loc 1 1636 3 view .LVU411
1637:Drivers/STM32F4xx_HAL_Driver/Src/stm32f4xx_hal_hcd.c **** 
1638:Drivers/STM32F4xx_HAL_Driver/Src/stm32f4xx_hal_hcd.c ****   /* Handle Host Port Interrupts */
1639:Drivers/STM32F4xx_HAL_Driver/Src/stm32f4xx_hal_hcd.c ****   hprt0 = USBx_HPRT0;
 1304              		.loc 1 1639 3 view .LVU412
 1305              		.loc 1 1639 11 is_stmt 0 view .LVU413
 1306 025a D6F84034 		ldr	r3, [r6, #1088]
 1307              		.loc 1 1639 9 view .LVU414
 1308 025e 0293     		str	r3, [sp, #8]
1640:Drivers/STM32F4xx_HAL_Driver/Src/stm32f4xx_hal_hcd.c ****   hprt0_dup = USBx_HPRT0;
 1309              		.loc 1 1640 3 is_stmt 1 view .LVU415
 1310              		.loc 1 1640 15 is_stmt 0 view .LVU416
 1311 0260 D6F84034 		ldr	r3, [r6, #1088]
 1312              		.loc 1 1640 13 view .LVU417
 1313 0264 0393     		str	r3, [sp, #12]
1641:Drivers/STM32F4xx_HAL_Driver/Src/stm32f4xx_hal_hcd.c **** 
1642:Drivers/STM32F4xx_HAL_Driver/Src/stm32f4xx_hal_hcd.c ****   hprt0_dup &= ~(USB_OTG_HPRT_PENA | USB_OTG_HPRT_PCDET | \
 1314              		.loc 1 1642 3 is_stmt 1 view .LVU418
 1315              		.loc 1 1642 13 is_stmt 0 view .LVU419
 1316 0266 039B     		ldr	r3, [sp, #12]
 1317 0268 23F02E03 		bic	r3, r3, #46
 1318 026c 0393     		str	r3, [sp, #12]
1643:Drivers/STM32F4xx_HAL_Driver/Src/stm32f4xx_hal_hcd.c ****                  USB_OTG_HPRT_PENCHNG | USB_OTG_HPRT_POCCHNG);
1644:Drivers/STM32F4xx_HAL_Driver/Src/stm32f4xx_hal_hcd.c **** 
1645:Drivers/STM32F4xx_HAL_Driver/Src/stm32f4xx_hal_hcd.c ****   /* Check whether Port Connect detected */
1646:Drivers/STM32F4xx_HAL_Driver/Src/stm32f4xx_hal_hcd.c ****   if ((hprt0 & USB_OTG_HPRT_PCDET) == USB_OTG_HPRT_PCDET)
 1319              		.loc 1 1646 3 is_stmt 1 view .LVU420
 1320              		.loc 1 1646 14 is_stmt 0 view .LVU421
 1321 026e 029B     		ldr	r3, [sp, #8]
 1322              		.loc 1 1646 6 view .LVU422
 1323 0270 9807     		lsls	r0, r3, #30
 1324 0272 07D5     		bpl	.L80
1647:Drivers/STM32F4xx_HAL_Driver/Src/stm32f4xx_hal_hcd.c ****   {
ARM GAS  /var/folders/0z/tsy30v1j4xl4_7kw94k978ww0000gn/T//cc1wg7if.s 			page 58


1648:Drivers/STM32F4xx_HAL_Driver/Src/stm32f4xx_hal_hcd.c ****     if ((hprt0 & USB_OTG_HPRT_PCSTS) == USB_OTG_HPRT_PCSTS)
 1325              		.loc 1 1648 5 is_stmt 1 view .LVU423
 1326              		.loc 1 1648 16 is_stmt 0 view .LVU424
 1327 0274 029B     		ldr	r3, [sp, #8]
 1328              		.loc 1 1648 8 view .LVU425
 1329 0276 D907     		lsls	r1, r3, #31
 1330 0278 00F15A81 		bmi	.L223
 1331              	.LVL88:
 1332              	.L81:
1649:Drivers/STM32F4xx_HAL_Driver/Src/stm32f4xx_hal_hcd.c ****     {
1650:Drivers/STM32F4xx_HAL_Driver/Src/stm32f4xx_hal_hcd.c **** #if (USE_HAL_HCD_REGISTER_CALLBACKS == 1U)
1651:Drivers/STM32F4xx_HAL_Driver/Src/stm32f4xx_hal_hcd.c ****       hhcd->ConnectCallback(hhcd);
1652:Drivers/STM32F4xx_HAL_Driver/Src/stm32f4xx_hal_hcd.c **** #else
1653:Drivers/STM32F4xx_HAL_Driver/Src/stm32f4xx_hal_hcd.c ****       HAL_HCD_Connect_Callback(hhcd);
1654:Drivers/STM32F4xx_HAL_Driver/Src/stm32f4xx_hal_hcd.c **** #endif /* USE_HAL_HCD_REGISTER_CALLBACKS */
1655:Drivers/STM32F4xx_HAL_Driver/Src/stm32f4xx_hal_hcd.c ****     }
1656:Drivers/STM32F4xx_HAL_Driver/Src/stm32f4xx_hal_hcd.c ****     hprt0_dup |= USB_OTG_HPRT_PCDET;
 1333              		.loc 1 1656 5 is_stmt 1 view .LVU426
 1334              		.loc 1 1656 15 is_stmt 0 view .LVU427
 1335 027c 039B     		ldr	r3, [sp, #12]
 1336 027e 43F00203 		orr	r3, r3, #2
 1337 0282 0393     		str	r3, [sp, #12]
 1338              	.L80:
1657:Drivers/STM32F4xx_HAL_Driver/Src/stm32f4xx_hal_hcd.c ****   }
1658:Drivers/STM32F4xx_HAL_Driver/Src/stm32f4xx_hal_hcd.c **** 
1659:Drivers/STM32F4xx_HAL_Driver/Src/stm32f4xx_hal_hcd.c ****   /* Check whether Port Enable Changed */
1660:Drivers/STM32F4xx_HAL_Driver/Src/stm32f4xx_hal_hcd.c ****   if ((hprt0 & USB_OTG_HPRT_PENCHNG) == USB_OTG_HPRT_PENCHNG)
 1339              		.loc 1 1660 3 is_stmt 1 view .LVU428
 1340              		.loc 1 1660 14 is_stmt 0 view .LVU429
 1341 0284 029B     		ldr	r3, [sp, #8]
 1342              		.loc 1 1660 6 view .LVU430
 1343 0286 1A07     		lsls	r2, r3, #28
 1344 0288 15D5     		bpl	.L82
1661:Drivers/STM32F4xx_HAL_Driver/Src/stm32f4xx_hal_hcd.c ****   {
1662:Drivers/STM32F4xx_HAL_Driver/Src/stm32f4xx_hal_hcd.c ****     hprt0_dup |= USB_OTG_HPRT_PENCHNG;
 1345              		.loc 1 1662 5 is_stmt 1 view .LVU431
 1346              		.loc 1 1662 15 is_stmt 0 view .LVU432
 1347 028a 039B     		ldr	r3, [sp, #12]
 1348 028c 43F00803 		orr	r3, r3, #8
 1349 0290 0393     		str	r3, [sp, #12]
1663:Drivers/STM32F4xx_HAL_Driver/Src/stm32f4xx_hal_hcd.c **** 
1664:Drivers/STM32F4xx_HAL_Driver/Src/stm32f4xx_hal_hcd.c ****     if ((hprt0 & USB_OTG_HPRT_PENA) == USB_OTG_HPRT_PENA)
 1350              		.loc 1 1664 5 is_stmt 1 view .LVU433
 1351              		.loc 1 1664 16 is_stmt 0 view .LVU434
 1352 0292 029B     		ldr	r3, [sp, #8]
 1353              		.loc 1 1664 8 view .LVU435
 1354 0294 5B07     		lsls	r3, r3, #29
 1355 0296 40F14F81 		bpl	.L83
1665:Drivers/STM32F4xx_HAL_Driver/Src/stm32f4xx_hal_hcd.c ****     {
1666:Drivers/STM32F4xx_HAL_Driver/Src/stm32f4xx_hal_hcd.c ****       if (hhcd->Init.phy_itface  == USB_OTG_EMBEDDED_PHY)
 1356              		.loc 1 1666 7 is_stmt 1 view .LVU436
 1357              		.loc 1 1666 10 is_stmt 0 view .LVU437
 1358 029a A169     		ldr	r1, [r4, #24]
 1359 029c 0229     		cmp	r1, #2
 1360 029e 00F05F81 		beq	.L224
1667:Drivers/STM32F4xx_HAL_Driver/Src/stm32f4xx_hal_hcd.c ****       {
1668:Drivers/STM32F4xx_HAL_Driver/Src/stm32f4xx_hal_hcd.c ****         if ((hprt0 & USB_OTG_HPRT_PSPD) == (HPRT0_PRTSPD_LOW_SPEED << 17))
ARM GAS  /var/folders/0z/tsy30v1j4xl4_7kw94k978ww0000gn/T//cc1wg7if.s 			page 59


1669:Drivers/STM32F4xx_HAL_Driver/Src/stm32f4xx_hal_hcd.c ****         {
1670:Drivers/STM32F4xx_HAL_Driver/Src/stm32f4xx_hal_hcd.c ****           (void)USB_InitFSLSPClkSel(hhcd->Instance, HCFG_6_MHZ);
1671:Drivers/STM32F4xx_HAL_Driver/Src/stm32f4xx_hal_hcd.c ****         }
1672:Drivers/STM32F4xx_HAL_Driver/Src/stm32f4xx_hal_hcd.c ****         else
1673:Drivers/STM32F4xx_HAL_Driver/Src/stm32f4xx_hal_hcd.c ****         {
1674:Drivers/STM32F4xx_HAL_Driver/Src/stm32f4xx_hal_hcd.c ****           (void)USB_InitFSLSPClkSel(hhcd->Instance, HCFG_48_MHZ);
1675:Drivers/STM32F4xx_HAL_Driver/Src/stm32f4xx_hal_hcd.c ****         }
1676:Drivers/STM32F4xx_HAL_Driver/Src/stm32f4xx_hal_hcd.c ****       }
1677:Drivers/STM32F4xx_HAL_Driver/Src/stm32f4xx_hal_hcd.c ****       else
1678:Drivers/STM32F4xx_HAL_Driver/Src/stm32f4xx_hal_hcd.c ****       {
1679:Drivers/STM32F4xx_HAL_Driver/Src/stm32f4xx_hal_hcd.c ****         if (hhcd->Init.speed == HCD_SPEED_FULL)
 1361              		.loc 1 1679 9 is_stmt 1 view .LVU438
 1362              		.loc 1 1679 12 is_stmt 0 view .LVU439
 1363 02a2 E368     		ldr	r3, [r4, #12]
 1364 02a4 012B     		cmp	r3, #1
1680:Drivers/STM32F4xx_HAL_Driver/Src/stm32f4xx_hal_hcd.c ****         {
1681:Drivers/STM32F4xx_HAL_Driver/Src/stm32f4xx_hal_hcd.c ****           USBx_HOST->HFIR = 60000U;
 1365              		.loc 1 1681 11 is_stmt 1 view .LVU440
 1366              		.loc 1 1681 27 is_stmt 0 view .LVU441
 1367 02a6 04BF     		itt	eq
 1368 02a8 4EF66022 		movweq	r2, #60000
 1369 02ac C6F80424 		streq	r2, [r6, #1028]
 1370              	.L86:
1682:Drivers/STM32F4xx_HAL_Driver/Src/stm32f4xx_hal_hcd.c ****         }
1683:Drivers/STM32F4xx_HAL_Driver/Src/stm32f4xx_hal_hcd.c ****       }
1684:Drivers/STM32F4xx_HAL_Driver/Src/stm32f4xx_hal_hcd.c **** #if (USE_HAL_HCD_REGISTER_CALLBACKS == 1U)
1685:Drivers/STM32F4xx_HAL_Driver/Src/stm32f4xx_hal_hcd.c ****       hhcd->PortEnabledCallback(hhcd);
1686:Drivers/STM32F4xx_HAL_Driver/Src/stm32f4xx_hal_hcd.c **** #else
1687:Drivers/STM32F4xx_HAL_Driver/Src/stm32f4xx_hal_hcd.c ****       HAL_HCD_PortEnabled_Callback(hhcd);
 1371              		.loc 1 1687 7 is_stmt 1 view .LVU442
 1372 02b0 2046     		mov	r0, r4
 1373 02b2 FFF7FEFF 		bl	HAL_HCD_PortEnabled_Callback
 1374              	.LVL89:
 1375              	.L82:
1688:Drivers/STM32F4xx_HAL_Driver/Src/stm32f4xx_hal_hcd.c **** #endif /* USE_HAL_HCD_REGISTER_CALLBACKS */
1689:Drivers/STM32F4xx_HAL_Driver/Src/stm32f4xx_hal_hcd.c **** 
1690:Drivers/STM32F4xx_HAL_Driver/Src/stm32f4xx_hal_hcd.c ****     }
1691:Drivers/STM32F4xx_HAL_Driver/Src/stm32f4xx_hal_hcd.c ****     else
1692:Drivers/STM32F4xx_HAL_Driver/Src/stm32f4xx_hal_hcd.c ****     {
1693:Drivers/STM32F4xx_HAL_Driver/Src/stm32f4xx_hal_hcd.c **** #if (USE_HAL_HCD_REGISTER_CALLBACKS == 1U)
1694:Drivers/STM32F4xx_HAL_Driver/Src/stm32f4xx_hal_hcd.c ****       hhcd->PortDisabledCallback(hhcd);
1695:Drivers/STM32F4xx_HAL_Driver/Src/stm32f4xx_hal_hcd.c **** #else
1696:Drivers/STM32F4xx_HAL_Driver/Src/stm32f4xx_hal_hcd.c ****       HAL_HCD_PortDisabled_Callback(hhcd);
1697:Drivers/STM32F4xx_HAL_Driver/Src/stm32f4xx_hal_hcd.c **** #endif /* USE_HAL_HCD_REGISTER_CALLBACKS */
1698:Drivers/STM32F4xx_HAL_Driver/Src/stm32f4xx_hal_hcd.c ****     }
1699:Drivers/STM32F4xx_HAL_Driver/Src/stm32f4xx_hal_hcd.c ****   }
1700:Drivers/STM32F4xx_HAL_Driver/Src/stm32f4xx_hal_hcd.c **** 
1701:Drivers/STM32F4xx_HAL_Driver/Src/stm32f4xx_hal_hcd.c ****   /* Check for an overcurrent */
1702:Drivers/STM32F4xx_HAL_Driver/Src/stm32f4xx_hal_hcd.c ****   if ((hprt0 & USB_OTG_HPRT_POCCHNG) == USB_OTG_HPRT_POCCHNG)
 1376              		.loc 1 1702 3 view .LVU443
 1377              		.loc 1 1702 14 is_stmt 0 view .LVU444
 1378 02b6 029B     		ldr	r3, [sp, #8]
 1379              		.loc 1 1702 6 view .LVU445
 1380 02b8 9F06     		lsls	r7, r3, #26
 1381 02ba 03D5     		bpl	.L87
1703:Drivers/STM32F4xx_HAL_Driver/Src/stm32f4xx_hal_hcd.c ****   {
1704:Drivers/STM32F4xx_HAL_Driver/Src/stm32f4xx_hal_hcd.c ****     hprt0_dup |= USB_OTG_HPRT_POCCHNG;
ARM GAS  /var/folders/0z/tsy30v1j4xl4_7kw94k978ww0000gn/T//cc1wg7if.s 			page 60


 1382              		.loc 1 1704 5 is_stmt 1 view .LVU446
 1383              		.loc 1 1704 15 is_stmt 0 view .LVU447
 1384 02bc 039B     		ldr	r3, [sp, #12]
 1385 02be 43F02003 		orr	r3, r3, #32
 1386 02c2 0393     		str	r3, [sp, #12]
 1387              	.L87:
1705:Drivers/STM32F4xx_HAL_Driver/Src/stm32f4xx_hal_hcd.c ****   }
1706:Drivers/STM32F4xx_HAL_Driver/Src/stm32f4xx_hal_hcd.c **** 
1707:Drivers/STM32F4xx_HAL_Driver/Src/stm32f4xx_hal_hcd.c ****   /* Clear Port Interrupts */
1708:Drivers/STM32F4xx_HAL_Driver/Src/stm32f4xx_hal_hcd.c ****   USBx_HPRT0 = hprt0_dup;
 1388              		.loc 1 1708 3 is_stmt 1 view .LVU448
 1389              		.loc 1 1708 14 is_stmt 0 view .LVU449
 1390 02c4 039B     		ldr	r3, [sp, #12]
 1391 02c6 C6F84034 		str	r3, [r6, #1088]
1709:Drivers/STM32F4xx_HAL_Driver/Src/stm32f4xx_hal_hcd.c **** }
 1392              		.loc 1 1709 1 view .LVU450
 1393 02ca DBE6     		b	.L79
 1394              	.LVL90:
 1395              	.L128:
 1396              		.loc 1 1709 1 view .LVU451
 1397              	.LBE47:
 1398              	.LBE46:
 1399              	.LBB50:
 1400              	.LBB13:
1402:Drivers/STM32F4xx_HAL_Driver/Src/stm32f4xx_hal_hcd.c ****   {
 1401              		.loc 1 1402 8 is_stmt 1 view .LVU452
1402:Drivers/STM32F4xx_HAL_Driver/Src/stm32f4xx_hal_hcd.c ****   {
 1402              		.loc 1 1402 28 is_stmt 0 view .LVU453
 1403 02cc DAF80830 		ldr	r3, [r10, #8]
1402:Drivers/STM32F4xx_HAL_Driver/Src/stm32f4xx_hal_hcd.c ****   {
 1404              		.loc 1 1402 11 view .LVU454
 1405 02d0 13F4007B 		ands	fp, r3, #512
 1406 02d4 40F02381 		bne	.L225
1407:Drivers/STM32F4xx_HAL_Driver/Src/stm32f4xx_hal_hcd.c ****   {
 1407              		.loc 1 1407 8 is_stmt 1 view .LVU455
1407:Drivers/STM32F4xx_HAL_Driver/Src/stm32f4xx_hal_hcd.c ****   {
 1408              		.loc 1 1407 28 is_stmt 0 view .LVU456
 1409 02d8 DAF80830 		ldr	r3, [r10, #8]
1407:Drivers/STM32F4xx_HAL_Driver/Src/stm32f4xx_hal_hcd.c ****   {
 1410              		.loc 1 1407 11 view .LVU457
 1411 02dc 13F00103 		ands	r3, r3, #1
 1412 02e0 00F0FA80 		beq	.L130
1409:Drivers/STM32F4xx_HAL_Driver/Src/stm32f4xx_hal_hcd.c **** 
 1413              		.loc 1 1409 5 is_stmt 1 view .LVU458
1412:Drivers/STM32F4xx_HAL_Driver/Src/stm32f4xx_hal_hcd.c ****     {
 1414              		.loc 1 1412 25 is_stmt 0 view .LVU459
 1415 02e4 DAF80820 		ldr	r2, [r10, #8]
1409:Drivers/STM32F4xx_HAL_Driver/Src/stm32f4xx_hal_hcd.c **** 
 1416              		.loc 1 1409 29 view .LVU460
 1417 02e8 08FB0143 		mla	r3, r8, r1, r4
1412:Drivers/STM32F4xx_HAL_Driver/Src/stm32f4xx_hal_hcd.c ****     {
 1418              		.loc 1 1412 8 view .LVU461
 1419 02ec 5206     		lsls	r2, r2, #25
1409:Drivers/STM32F4xx_HAL_Driver/Src/stm32f4xx_hal_hcd.c **** 
 1420              		.loc 1 1409 29 view .LVU462
 1421 02ee C3F85CB0 		str	fp, [r3, #92]
1412:Drivers/STM32F4xx_HAL_Driver/Src/stm32f4xx_hal_hcd.c ****     {
ARM GAS  /var/folders/0z/tsy30v1j4xl4_7kw94k978ww0000gn/T//cc1wg7if.s 			page 61


 1422              		.loc 1 1412 5 is_stmt 1 view .LVU463
1412:Drivers/STM32F4xx_HAL_Driver/Src/stm32f4xx_hal_hcd.c ****     {
 1423              		.loc 1 1412 8 is_stmt 0 view .LVU464
 1424 02f2 05D5     		bpl	.L131
1414:Drivers/STM32F4xx_HAL_Driver/Src/stm32f4xx_hal_hcd.c ****       __HAL_HCD_CLEAR_HC_INT(ch_num, USB_OTG_HCINT_NYET);
 1425              		.loc 1 1414 7 is_stmt 1 view .LVU465
1414:Drivers/STM32F4xx_HAL_Driver/Src/stm32f4xx_hal_hcd.c ****       __HAL_HCD_CLEAR_HC_INT(ch_num, USB_OTG_HCINT_NYET);
 1426              		.loc 1 1414 32 is_stmt 0 view .LVU466
 1427 02f4 0122     		movs	r2, #1
 1428 02f6 83F83D20 		strb	r2, [r3, #61]
1415:Drivers/STM32F4xx_HAL_Driver/Src/stm32f4xx_hal_hcd.c ****     }
 1429              		.loc 1 1415 7 is_stmt 1 view .LVU467
 1430 02fa 4023     		movs	r3, #64
 1431 02fc CAF80830 		str	r3, [r10, #8]
 1432              	.L131:
1417:Drivers/STM32F4xx_HAL_Driver/Src/stm32f4xx_hal_hcd.c ****     hhcd->hc[ch_num].state = HC_XFRC;
 1433              		.loc 1 1417 5 view .LVU468
1418:Drivers/STM32F4xx_HAL_Driver/Src/stm32f4xx_hal_hcd.c ****     (void)USB_HC_Halt(hhcd->Instance, (uint8_t)ch_num);
 1434              		.loc 1 1418 28 is_stmt 0 view .LVU469
 1435 0300 08FB0142 		mla	r2, r8, r1, r4
1417:Drivers/STM32F4xx_HAL_Driver/Src/stm32f4xx_hal_hcd.c ****     hhcd->hc[ch_num].state = HC_XFRC;
 1436              		.loc 1 1417 5 view .LVU470
 1437 0304 0123     		movs	r3, #1
 1438 0306 CAF80830 		str	r3, [r10, #8]
1418:Drivers/STM32F4xx_HAL_Driver/Src/stm32f4xx_hal_hcd.c ****     (void)USB_HC_Halt(hhcd->Instance, (uint8_t)ch_num);
 1439              		.loc 1 1418 5 is_stmt 1 view .LVU471
1418:Drivers/STM32F4xx_HAL_Driver/Src/stm32f4xx_hal_hcd.c ****     (void)USB_HC_Halt(hhcd->Instance, (uint8_t)ch_num);
 1440              		.loc 1 1418 28 is_stmt 0 view .LVU472
 1441 030a 82F86130 		strb	r3, [r2, #97]
1419:Drivers/STM32F4xx_HAL_Driver/Src/stm32f4xx_hal_hcd.c ****   }
 1442              		.loc 1 1419 5 is_stmt 1 view .LVU473
1419:Drivers/STM32F4xx_HAL_Driver/Src/stm32f4xx_hal_hcd.c ****   }
 1443              		.loc 1 1419 11 is_stmt 0 view .LVU474
 1444 030e FFF7FEFF 		bl	USB_HC_Halt
 1445              	.LVL91:
1419:Drivers/STM32F4xx_HAL_Driver/Src/stm32f4xx_hal_hcd.c ****   }
 1446              		.loc 1 1419 11 view .LVU475
 1447              	.LBE13:
 1448              	.LBE50:
 588:Drivers/STM32F4xx_HAL_Driver/Src/stm32f4xx_hal_hcd.c ****       {
 1449              		.loc 1 588 34 view .LVU476
 1450 0312 A268     		ldr	r2, [r4, #8]
 602:Drivers/STM32F4xx_HAL_Driver/Src/stm32f4xx_hal_hcd.c ****     }
 1451              		.loc 1 602 7 view .LVU477
 1452 0314 2068     		ldr	r0, [r4]
 1453              	.LBB51:
 1454              	.LBB14:
 1455 0316 36E7     		b	.L97
 1456              	.LVL92:
 1457              	.L106:
 602:Drivers/STM32F4xx_HAL_Driver/Src/stm32f4xx_hal_hcd.c ****     }
 1458              		.loc 1 602 7 view .LVU478
 1459              	.LBE14:
 1460              	.LBE51:
 1461              	.LBB52:
 1462              	.LBB29:
1283:Drivers/STM32F4xx_HAL_Driver/Src/stm32f4xx_hal_hcd.c ****   {
ARM GAS  /var/folders/0z/tsy30v1j4xl4_7kw94k978ww0000gn/T//cc1wg7if.s 			page 62


 1463              		.loc 1 1283 8 is_stmt 1 view .LVU479
1283:Drivers/STM32F4xx_HAL_Driver/Src/stm32f4xx_hal_hcd.c ****   {
 1464              		.loc 1 1283 28 is_stmt 0 view .LVU480
 1465 0318 DAF80820 		ldr	r2, [r10, #8]
1283:Drivers/STM32F4xx_HAL_Driver/Src/stm32f4xx_hal_hcd.c ****   {
 1466              		.loc 1 1283 11 view .LVU481
 1467 031c 12F00202 		ands	r2, r2, #2
 1468 0320 00F09A80 		beq	.L112
1285:Drivers/STM32F4xx_HAL_Driver/Src/stm32f4xx_hal_hcd.c ****     {
 1469              		.loc 1 1285 5 is_stmt 1 view .LVU482
1285:Drivers/STM32F4xx_HAL_Driver/Src/stm32f4xx_hal_hcd.c ****     {
 1470              		.loc 1 1285 25 is_stmt 0 view .LVU483
 1471 0324 08FB0940 		mla	r0, r8, r9, r4
 1472 0328 90F86120 		ldrb	r2, [r0, #97]	@ zero_extendqisi2
1285:Drivers/STM32F4xx_HAL_Driver/Src/stm32f4xx_hal_hcd.c ****     {
 1473              		.loc 1 1285 8 view .LVU484
 1474 032c 012A     		cmp	r2, #1
 1475 032e 00F01481 		beq	.L226
1289:Drivers/STM32F4xx_HAL_Driver/Src/stm32f4xx_hal_hcd.c ****     {
 1476              		.loc 1 1289 10 is_stmt 1 view .LVU485
 1477 0332 D01E     		subs	r0, r2, #3
 1478 0334 0528     		cmp	r0, #5
 1479 0336 3BD8     		bhi	.L115
 1480 0338 DFE800F0 		tbb	[pc, r0]
 1481              	.L117:
 1482 033c 20       		.byte	(.L120-.L117)/2
 1483 033d 3A       		.byte	(.L115-.L117)/2
 1484 033e 1A       		.byte	(.L119-.L117)/2
 1485 033f 03       		.byte	(.L116-.L117)/2
 1486 0340 31       		.byte	(.L118-.L117)/2
 1487 0341 03       		.byte	(.L116-.L117)/2
 1488              		.p2align 1
 1489              	.L116:
1296:Drivers/STM32F4xx_HAL_Driver/Src/stm32f4xx_hal_hcd.c ****       if (hhcd->hc[ch_num].ErrCnt > 2U)
 1490              		.loc 1 1296 7 view .LVU486
1296:Drivers/STM32F4xx_HAL_Driver/Src/stm32f4xx_hal_hcd.c ****       if (hhcd->hc[ch_num].ErrCnt > 2U)
 1491              		.loc 1 1296 23 is_stmt 0 view .LVU487
 1492 0342 08FB0940 		mla	r0, r8, r9, r4
1296:Drivers/STM32F4xx_HAL_Driver/Src/stm32f4xx_hal_hcd.c ****       if (hhcd->hc[ch_num].ErrCnt > 2U)
 1493              		.loc 1 1296 30 view .LVU488
 1494 0346 C26D     		ldr	r2, [r0, #92]
 1495 0348 0132     		adds	r2, r2, #1
