ARM GAS  /var/folders/0z/tsy30v1j4xl4_7kw94k978ww0000gn/T//ccE3WcSy.s 			page 1


   1              		.cpu cortex-m4
   2              		.arch armv7e-m
   3              		.fpu fpv4-sp-d16
   4              		.eabi_attribute 27, 1
   5              		.eabi_attribute 28, 1
   6              		.eabi_attribute 20, 1
   7              		.eabi_attribute 21, 1
   8              		.eabi_attribute 23, 3
   9              		.eabi_attribute 24, 1
  10              		.eabi_attribute 25, 1
  11              		.eabi_attribute 26, 1
  12              		.eabi_attribute 30, 2
  13              		.eabi_attribute 34, 1
  14              		.eabi_attribute 18, 4
  15              		.file	"stm32f4xx_hal.c"
  16              		.text
  17              	.Ltext0:
  18              		.cfi_sections	.debug_frame
  19              		.section	.text.HAL_MspInit,"ax",%progbits
  20              		.align	1
  21              		.p2align 2,,3
  22              		.weak	HAL_MspInit
  23              		.syntax unified
  24              		.thumb
  25              		.thumb_func
  27              	HAL_MspInit:
  28              	.LFB237:
  29              		.file 1 "Drivers/STM32F4xx_HAL_Driver/Src/stm32f4xx_hal.c"
   1:Drivers/STM32F4xx_HAL_Driver/Src/stm32f4xx_hal.c **** /**
   2:Drivers/STM32F4xx_HAL_Driver/Src/stm32f4xx_hal.c ****   ******************************************************************************
   3:Drivers/STM32F4xx_HAL_Driver/Src/stm32f4xx_hal.c ****   * @file    stm32f4xx_hal.c
   4:Drivers/STM32F4xx_HAL_Driver/Src/stm32f4xx_hal.c ****   * @author  MCD Application Team
   5:Drivers/STM32F4xx_HAL_Driver/Src/stm32f4xx_hal.c ****   * @brief   HAL module driver.
   6:Drivers/STM32F4xx_HAL_Driver/Src/stm32f4xx_hal.c ****   *          This is the common part of the HAL initialization
   7:Drivers/STM32F4xx_HAL_Driver/Src/stm32f4xx_hal.c ****   *
   8:Drivers/STM32F4xx_HAL_Driver/Src/stm32f4xx_hal.c ****   ******************************************************************************
   9:Drivers/STM32F4xx_HAL_Driver/Src/stm32f4xx_hal.c ****   * @attention
  10:Drivers/STM32F4xx_HAL_Driver/Src/stm32f4xx_hal.c ****   *
  11:Drivers/STM32F4xx_HAL_Driver/Src/stm32f4xx_hal.c ****   * Copyright (c) 2017 STMicroelectronics.
  12:Drivers/STM32F4xx_HAL_Driver/Src/stm32f4xx_hal.c ****   * All rights reserved.
  13:Drivers/STM32F4xx_HAL_Driver/Src/stm32f4xx_hal.c ****   *
  14:Drivers/STM32F4xx_HAL_Driver/Src/stm32f4xx_hal.c ****   * This software is licensed under terms that can be found in the LICENSE file
  15:Drivers/STM32F4xx_HAL_Driver/Src/stm32f4xx_hal.c ****   * in the root directory of this software component.
  16:Drivers/STM32F4xx_HAL_Driver/Src/stm32f4xx_hal.c ****   * If no LICENSE file comes with this software, it is provided AS-IS.
  17:Drivers/STM32F4xx_HAL_Driver/Src/stm32f4xx_hal.c ****   *
  18:Drivers/STM32F4xx_HAL_Driver/Src/stm32f4xx_hal.c ****   ******************************************************************************
  19:Drivers/STM32F4xx_HAL_Driver/Src/stm32f4xx_hal.c ****   @verbatim
  20:Drivers/STM32F4xx_HAL_Driver/Src/stm32f4xx_hal.c ****   ==============================================================================
  21:Drivers/STM32F4xx_HAL_Driver/Src/stm32f4xx_hal.c ****                      ##### How to use this driver #####
  22:Drivers/STM32F4xx_HAL_Driver/Src/stm32f4xx_hal.c ****   ==============================================================================
  23:Drivers/STM32F4xx_HAL_Driver/Src/stm32f4xx_hal.c ****     [..]
  24:Drivers/STM32F4xx_HAL_Driver/Src/stm32f4xx_hal.c ****     The common HAL driver contains a set of generic and common APIs that can be
  25:Drivers/STM32F4xx_HAL_Driver/Src/stm32f4xx_hal.c ****     used by the PPP peripheral drivers and the user to start using the HAL. 
  26:Drivers/STM32F4xx_HAL_Driver/Src/stm32f4xx_hal.c ****     [..]
  27:Drivers/STM32F4xx_HAL_Driver/Src/stm32f4xx_hal.c ****     The HAL contains two APIs' categories: 
  28:Drivers/STM32F4xx_HAL_Driver/Src/stm32f4xx_hal.c ****          (+) Common HAL APIs
  29:Drivers/STM32F4xx_HAL_Driver/Src/stm32f4xx_hal.c ****          (+) Services HAL APIs
ARM GAS  /var/folders/0z/tsy30v1j4xl4_7kw94k978ww0000gn/T//ccE3WcSy.s 			page 2


  30:Drivers/STM32F4xx_HAL_Driver/Src/stm32f4xx_hal.c **** 
  31:Drivers/STM32F4xx_HAL_Driver/Src/stm32f4xx_hal.c ****   @endverbatim
  32:Drivers/STM32F4xx_HAL_Driver/Src/stm32f4xx_hal.c ****   ******************************************************************************
  33:Drivers/STM32F4xx_HAL_Driver/Src/stm32f4xx_hal.c ****   */ 
  34:Drivers/STM32F4xx_HAL_Driver/Src/stm32f4xx_hal.c **** 
  35:Drivers/STM32F4xx_HAL_Driver/Src/stm32f4xx_hal.c **** /* Includes ------------------------------------------------------------------*/
  36:Drivers/STM32F4xx_HAL_Driver/Src/stm32f4xx_hal.c **** #include "stm32f4xx_hal.h"
  37:Drivers/STM32F4xx_HAL_Driver/Src/stm32f4xx_hal.c **** 
  38:Drivers/STM32F4xx_HAL_Driver/Src/stm32f4xx_hal.c **** /** @addtogroup STM32F4xx_HAL_Driver
  39:Drivers/STM32F4xx_HAL_Driver/Src/stm32f4xx_hal.c ****   * @{
  40:Drivers/STM32F4xx_HAL_Driver/Src/stm32f4xx_hal.c ****   */
  41:Drivers/STM32F4xx_HAL_Driver/Src/stm32f4xx_hal.c **** 
  42:Drivers/STM32F4xx_HAL_Driver/Src/stm32f4xx_hal.c **** /** @defgroup HAL HAL
  43:Drivers/STM32F4xx_HAL_Driver/Src/stm32f4xx_hal.c ****   * @brief HAL module driver.
  44:Drivers/STM32F4xx_HAL_Driver/Src/stm32f4xx_hal.c ****   * @{
  45:Drivers/STM32F4xx_HAL_Driver/Src/stm32f4xx_hal.c ****   */
  46:Drivers/STM32F4xx_HAL_Driver/Src/stm32f4xx_hal.c **** 
  47:Drivers/STM32F4xx_HAL_Driver/Src/stm32f4xx_hal.c **** /* Private typedef -----------------------------------------------------------*/
  48:Drivers/STM32F4xx_HAL_Driver/Src/stm32f4xx_hal.c **** /* Private define ------------------------------------------------------------*/
  49:Drivers/STM32F4xx_HAL_Driver/Src/stm32f4xx_hal.c **** /** @addtogroup HAL_Private_Constants
  50:Drivers/STM32F4xx_HAL_Driver/Src/stm32f4xx_hal.c ****   * @{
  51:Drivers/STM32F4xx_HAL_Driver/Src/stm32f4xx_hal.c ****   */
  52:Drivers/STM32F4xx_HAL_Driver/Src/stm32f4xx_hal.c **** /**
  53:Drivers/STM32F4xx_HAL_Driver/Src/stm32f4xx_hal.c ****   * @brief STM32F4xx HAL Driver version number V1.8.1
  54:Drivers/STM32F4xx_HAL_Driver/Src/stm32f4xx_hal.c ****   */
  55:Drivers/STM32F4xx_HAL_Driver/Src/stm32f4xx_hal.c **** #define __STM32F4xx_HAL_VERSION_MAIN   (0x01U) /*!< [31:24] main version */
  56:Drivers/STM32F4xx_HAL_Driver/Src/stm32f4xx_hal.c **** #define __STM32F4xx_HAL_VERSION_SUB1   (0x08U) /*!< [23:16] sub1 version */
  57:Drivers/STM32F4xx_HAL_Driver/Src/stm32f4xx_hal.c **** #define __STM32F4xx_HAL_VERSION_SUB2   (0x01U) /*!< [15:8]  sub2 version */
  58:Drivers/STM32F4xx_HAL_Driver/Src/stm32f4xx_hal.c **** #define __STM32F4xx_HAL_VERSION_RC     (0x00U) /*!< [7:0]  release candidate */ 
  59:Drivers/STM32F4xx_HAL_Driver/Src/stm32f4xx_hal.c **** #define __STM32F4xx_HAL_VERSION         ((__STM32F4xx_HAL_VERSION_MAIN << 24U)\
  60:Drivers/STM32F4xx_HAL_Driver/Src/stm32f4xx_hal.c ****                                         |(__STM32F4xx_HAL_VERSION_SUB1 << 16U)\
  61:Drivers/STM32F4xx_HAL_Driver/Src/stm32f4xx_hal.c ****                                         |(__STM32F4xx_HAL_VERSION_SUB2 << 8U )\
  62:Drivers/STM32F4xx_HAL_Driver/Src/stm32f4xx_hal.c ****                                         |(__STM32F4xx_HAL_VERSION_RC))
  63:Drivers/STM32F4xx_HAL_Driver/Src/stm32f4xx_hal.c ****                                         
  64:Drivers/STM32F4xx_HAL_Driver/Src/stm32f4xx_hal.c **** #define IDCODE_DEVID_MASK    0x00000FFFU
  65:Drivers/STM32F4xx_HAL_Driver/Src/stm32f4xx_hal.c **** 
  66:Drivers/STM32F4xx_HAL_Driver/Src/stm32f4xx_hal.c **** /* ------------ RCC registers bit address in the alias region ----------- */
  67:Drivers/STM32F4xx_HAL_Driver/Src/stm32f4xx_hal.c **** #define SYSCFG_OFFSET             (SYSCFG_BASE - PERIPH_BASE)
  68:Drivers/STM32F4xx_HAL_Driver/Src/stm32f4xx_hal.c **** /* ---  MEMRMP Register ---*/ 
  69:Drivers/STM32F4xx_HAL_Driver/Src/stm32f4xx_hal.c **** /* Alias word address of UFB_MODE bit */ 
  70:Drivers/STM32F4xx_HAL_Driver/Src/stm32f4xx_hal.c **** #define MEMRMP_OFFSET             SYSCFG_OFFSET 
  71:Drivers/STM32F4xx_HAL_Driver/Src/stm32f4xx_hal.c **** #define UFB_MODE_BIT_NUMBER       SYSCFG_MEMRMP_UFB_MODE_Pos
  72:Drivers/STM32F4xx_HAL_Driver/Src/stm32f4xx_hal.c **** #define UFB_MODE_BB               (uint32_t)(PERIPH_BB_BASE + (MEMRMP_OFFSET * 32U) + (UFB_MODE_BIT
  73:Drivers/STM32F4xx_HAL_Driver/Src/stm32f4xx_hal.c **** 
  74:Drivers/STM32F4xx_HAL_Driver/Src/stm32f4xx_hal.c **** /* ---  CMPCR Register ---*/ 
  75:Drivers/STM32F4xx_HAL_Driver/Src/stm32f4xx_hal.c **** /* Alias word address of CMP_PD bit */ 
  76:Drivers/STM32F4xx_HAL_Driver/Src/stm32f4xx_hal.c **** #define CMPCR_OFFSET              (SYSCFG_OFFSET + 0x20U) 
  77:Drivers/STM32F4xx_HAL_Driver/Src/stm32f4xx_hal.c **** #define CMP_PD_BIT_NUMBER         SYSCFG_CMPCR_CMP_PD_Pos
  78:Drivers/STM32F4xx_HAL_Driver/Src/stm32f4xx_hal.c **** #define CMPCR_CMP_PD_BB           (uint32_t)(PERIPH_BB_BASE + (CMPCR_OFFSET * 32U) + (CMP_PD_BIT_NU
  79:Drivers/STM32F4xx_HAL_Driver/Src/stm32f4xx_hal.c **** 
  80:Drivers/STM32F4xx_HAL_Driver/Src/stm32f4xx_hal.c **** /* ---  MCHDLYCR Register ---*/ 
  81:Drivers/STM32F4xx_HAL_Driver/Src/stm32f4xx_hal.c **** /* Alias word address of BSCKSEL bit */ 
  82:Drivers/STM32F4xx_HAL_Driver/Src/stm32f4xx_hal.c **** #define MCHDLYCR_OFFSET            (SYSCFG_OFFSET + 0x30U) 
  83:Drivers/STM32F4xx_HAL_Driver/Src/stm32f4xx_hal.c **** #define BSCKSEL_BIT_NUMBER         SYSCFG_MCHDLYCR_BSCKSEL_Pos
  84:Drivers/STM32F4xx_HAL_Driver/Src/stm32f4xx_hal.c **** #define MCHDLYCR_BSCKSEL_BB        (uint32_t)(PERIPH_BB_BASE + (MCHDLYCR_OFFSET * 32U) + (BSCKSEL_B
  85:Drivers/STM32F4xx_HAL_Driver/Src/stm32f4xx_hal.c **** /**
  86:Drivers/STM32F4xx_HAL_Driver/Src/stm32f4xx_hal.c ****   * @}
ARM GAS  /var/folders/0z/tsy30v1j4xl4_7kw94k978ww0000gn/T//ccE3WcSy.s 			page 3


  87:Drivers/STM32F4xx_HAL_Driver/Src/stm32f4xx_hal.c ****   */
  88:Drivers/STM32F4xx_HAL_Driver/Src/stm32f4xx_hal.c **** 
  89:Drivers/STM32F4xx_HAL_Driver/Src/stm32f4xx_hal.c **** /* Private macro -------------------------------------------------------------*/
  90:Drivers/STM32F4xx_HAL_Driver/Src/stm32f4xx_hal.c **** /* Private variables ---------------------------------------------------------*/
  91:Drivers/STM32F4xx_HAL_Driver/Src/stm32f4xx_hal.c **** /** @addtogroup HAL_Private_Variables
  92:Drivers/STM32F4xx_HAL_Driver/Src/stm32f4xx_hal.c ****   * @{
  93:Drivers/STM32F4xx_HAL_Driver/Src/stm32f4xx_hal.c ****   */
  94:Drivers/STM32F4xx_HAL_Driver/Src/stm32f4xx_hal.c **** __IO uint32_t uwTick;
  95:Drivers/STM32F4xx_HAL_Driver/Src/stm32f4xx_hal.c **** uint32_t uwTickPrio   = (1UL << __NVIC_PRIO_BITS); /* Invalid PRIO */
  96:Drivers/STM32F4xx_HAL_Driver/Src/stm32f4xx_hal.c **** HAL_TickFreqTypeDef uwTickFreq = HAL_TICK_FREQ_DEFAULT;  /* 1KHz */
  97:Drivers/STM32F4xx_HAL_Driver/Src/stm32f4xx_hal.c **** /**
  98:Drivers/STM32F4xx_HAL_Driver/Src/stm32f4xx_hal.c ****   * @}
  99:Drivers/STM32F4xx_HAL_Driver/Src/stm32f4xx_hal.c ****   */
 100:Drivers/STM32F4xx_HAL_Driver/Src/stm32f4xx_hal.c **** /* Private function prototypes -----------------------------------------------*/
 101:Drivers/STM32F4xx_HAL_Driver/Src/stm32f4xx_hal.c **** /* Private functions ---------------------------------------------------------*/
 102:Drivers/STM32F4xx_HAL_Driver/Src/stm32f4xx_hal.c **** 
 103:Drivers/STM32F4xx_HAL_Driver/Src/stm32f4xx_hal.c **** /** @defgroup HAL_Exported_Functions HAL Exported Functions
 104:Drivers/STM32F4xx_HAL_Driver/Src/stm32f4xx_hal.c ****   * @{
 105:Drivers/STM32F4xx_HAL_Driver/Src/stm32f4xx_hal.c ****   */
 106:Drivers/STM32F4xx_HAL_Driver/Src/stm32f4xx_hal.c **** 
 107:Drivers/STM32F4xx_HAL_Driver/Src/stm32f4xx_hal.c **** /** @defgroup HAL_Exported_Functions_Group1 Initialization and de-initialization Functions 
 108:Drivers/STM32F4xx_HAL_Driver/Src/stm32f4xx_hal.c ****  *  @brief    Initialization and de-initialization functions
 109:Drivers/STM32F4xx_HAL_Driver/Src/stm32f4xx_hal.c ****  *
 110:Drivers/STM32F4xx_HAL_Driver/Src/stm32f4xx_hal.c **** @verbatim    
 111:Drivers/STM32F4xx_HAL_Driver/Src/stm32f4xx_hal.c ****  ===============================================================================
 112:Drivers/STM32F4xx_HAL_Driver/Src/stm32f4xx_hal.c ****               ##### Initialization and Configuration functions #####
 113:Drivers/STM32F4xx_HAL_Driver/Src/stm32f4xx_hal.c ****  ===============================================================================
 114:Drivers/STM32F4xx_HAL_Driver/Src/stm32f4xx_hal.c ****     [..]  This section provides functions allowing to:
 115:Drivers/STM32F4xx_HAL_Driver/Src/stm32f4xx_hal.c ****       (+) Initializes the Flash interface the NVIC allocation and initial clock 
 116:Drivers/STM32F4xx_HAL_Driver/Src/stm32f4xx_hal.c ****           configuration. It initializes the systick also when timeout is needed 
 117:Drivers/STM32F4xx_HAL_Driver/Src/stm32f4xx_hal.c ****           and the backup domain when enabled.
 118:Drivers/STM32F4xx_HAL_Driver/Src/stm32f4xx_hal.c ****       (+) De-Initializes common part of the HAL.
 119:Drivers/STM32F4xx_HAL_Driver/Src/stm32f4xx_hal.c ****       (+) Configure the time base source to have 1ms time base with a dedicated 
 120:Drivers/STM32F4xx_HAL_Driver/Src/stm32f4xx_hal.c ****           Tick interrupt priority. 
 121:Drivers/STM32F4xx_HAL_Driver/Src/stm32f4xx_hal.c ****         (++) SysTick timer is used by default as source of time base, but user
 122:Drivers/STM32F4xx_HAL_Driver/Src/stm32f4xx_hal.c ****              can eventually implement his proper time base source (a general purpose 
 123:Drivers/STM32F4xx_HAL_Driver/Src/stm32f4xx_hal.c ****              timer for example or other time source), keeping in mind that Time base 
 124:Drivers/STM32F4xx_HAL_Driver/Src/stm32f4xx_hal.c ****              duration should be kept 1ms since PPP_TIMEOUT_VALUEs are defined and 
 125:Drivers/STM32F4xx_HAL_Driver/Src/stm32f4xx_hal.c ****              handled in milliseconds basis.
 126:Drivers/STM32F4xx_HAL_Driver/Src/stm32f4xx_hal.c ****         (++) Time base configuration function (HAL_InitTick ()) is called automatically 
 127:Drivers/STM32F4xx_HAL_Driver/Src/stm32f4xx_hal.c ****              at the beginning of the program after reset by HAL_Init() or at any time 
 128:Drivers/STM32F4xx_HAL_Driver/Src/stm32f4xx_hal.c ****              when clock is configured, by HAL_RCC_ClockConfig(). 
 129:Drivers/STM32F4xx_HAL_Driver/Src/stm32f4xx_hal.c ****         (++) Source of time base is configured  to generate interrupts at regular 
 130:Drivers/STM32F4xx_HAL_Driver/Src/stm32f4xx_hal.c ****              time intervals. Care must be taken if HAL_Delay() is called from a 
 131:Drivers/STM32F4xx_HAL_Driver/Src/stm32f4xx_hal.c ****              peripheral ISR process, the Tick interrupt line must have higher priority 
 132:Drivers/STM32F4xx_HAL_Driver/Src/stm32f4xx_hal.c ****             (numerically lower) than the peripheral interrupt. Otherwise the caller 
 133:Drivers/STM32F4xx_HAL_Driver/Src/stm32f4xx_hal.c ****             ISR process will be blocked. 
 134:Drivers/STM32F4xx_HAL_Driver/Src/stm32f4xx_hal.c ****        (++) functions affecting time base configurations are declared as __weak  
 135:Drivers/STM32F4xx_HAL_Driver/Src/stm32f4xx_hal.c ****              to make  override possible  in case of other  implementations in user file.
 136:Drivers/STM32F4xx_HAL_Driver/Src/stm32f4xx_hal.c **** @endverbatim
 137:Drivers/STM32F4xx_HAL_Driver/Src/stm32f4xx_hal.c ****   * @{
 138:Drivers/STM32F4xx_HAL_Driver/Src/stm32f4xx_hal.c ****   */
 139:Drivers/STM32F4xx_HAL_Driver/Src/stm32f4xx_hal.c **** 
 140:Drivers/STM32F4xx_HAL_Driver/Src/stm32f4xx_hal.c **** /**
 141:Drivers/STM32F4xx_HAL_Driver/Src/stm32f4xx_hal.c ****   * @brief  This function is used to initialize the HAL Library; it must be the first 
 142:Drivers/STM32F4xx_HAL_Driver/Src/stm32f4xx_hal.c ****   *         instruction to be executed in the main program (before to call any other
 143:Drivers/STM32F4xx_HAL_Driver/Src/stm32f4xx_hal.c ****   *         HAL function), it performs the following:
ARM GAS  /var/folders/0z/tsy30v1j4xl4_7kw94k978ww0000gn/T//ccE3WcSy.s 			page 4


 144:Drivers/STM32F4xx_HAL_Driver/Src/stm32f4xx_hal.c ****   *           Configure the Flash prefetch, instruction and Data caches.
 145:Drivers/STM32F4xx_HAL_Driver/Src/stm32f4xx_hal.c ****   *           Configures the SysTick to generate an interrupt each 1 millisecond,
 146:Drivers/STM32F4xx_HAL_Driver/Src/stm32f4xx_hal.c ****   *           which is clocked by the HSI (at this stage, the clock is not yet
 147:Drivers/STM32F4xx_HAL_Driver/Src/stm32f4xx_hal.c ****   *           configured and thus the system is running from the internal HSI at 16 MHz).
 148:Drivers/STM32F4xx_HAL_Driver/Src/stm32f4xx_hal.c ****   *           Set NVIC Group Priority to 4.
 149:Drivers/STM32F4xx_HAL_Driver/Src/stm32f4xx_hal.c ****   *           Calls the HAL_MspInit() callback function defined in user file 
 150:Drivers/STM32F4xx_HAL_Driver/Src/stm32f4xx_hal.c ****   *           "stm32f4xx_hal_msp.c" to do the global low level hardware initialization 
 151:Drivers/STM32F4xx_HAL_Driver/Src/stm32f4xx_hal.c ****   *            
 152:Drivers/STM32F4xx_HAL_Driver/Src/stm32f4xx_hal.c ****   * @note   SysTick is used as time base for the HAL_Delay() function, the application
 153:Drivers/STM32F4xx_HAL_Driver/Src/stm32f4xx_hal.c ****   *         need to ensure that the SysTick time base is always set to 1 millisecond
 154:Drivers/STM32F4xx_HAL_Driver/Src/stm32f4xx_hal.c ****   *         to have correct HAL operation.
 155:Drivers/STM32F4xx_HAL_Driver/Src/stm32f4xx_hal.c ****   * @retval HAL status
 156:Drivers/STM32F4xx_HAL_Driver/Src/stm32f4xx_hal.c ****   */
 157:Drivers/STM32F4xx_HAL_Driver/Src/stm32f4xx_hal.c **** HAL_StatusTypeDef HAL_Init(void)
 158:Drivers/STM32F4xx_HAL_Driver/Src/stm32f4xx_hal.c **** {
 159:Drivers/STM32F4xx_HAL_Driver/Src/stm32f4xx_hal.c ****   /* Configure Flash prefetch, Instruction cache, Data cache */ 
 160:Drivers/STM32F4xx_HAL_Driver/Src/stm32f4xx_hal.c **** #if (INSTRUCTION_CACHE_ENABLE != 0U)
 161:Drivers/STM32F4xx_HAL_Driver/Src/stm32f4xx_hal.c ****   __HAL_FLASH_INSTRUCTION_CACHE_ENABLE();
 162:Drivers/STM32F4xx_HAL_Driver/Src/stm32f4xx_hal.c **** #endif /* INSTRUCTION_CACHE_ENABLE */
 163:Drivers/STM32F4xx_HAL_Driver/Src/stm32f4xx_hal.c **** 
 164:Drivers/STM32F4xx_HAL_Driver/Src/stm32f4xx_hal.c **** #if (DATA_CACHE_ENABLE != 0U)
 165:Drivers/STM32F4xx_HAL_Driver/Src/stm32f4xx_hal.c ****   __HAL_FLASH_DATA_CACHE_ENABLE();
 166:Drivers/STM32F4xx_HAL_Driver/Src/stm32f4xx_hal.c **** #endif /* DATA_CACHE_ENABLE */
 167:Drivers/STM32F4xx_HAL_Driver/Src/stm32f4xx_hal.c **** 
 168:Drivers/STM32F4xx_HAL_Driver/Src/stm32f4xx_hal.c **** #if (PREFETCH_ENABLE != 0U)
 169:Drivers/STM32F4xx_HAL_Driver/Src/stm32f4xx_hal.c ****   __HAL_FLASH_PREFETCH_BUFFER_ENABLE();
 170:Drivers/STM32F4xx_HAL_Driver/Src/stm32f4xx_hal.c **** #endif /* PREFETCH_ENABLE */
 171:Drivers/STM32F4xx_HAL_Driver/Src/stm32f4xx_hal.c **** 
 172:Drivers/STM32F4xx_HAL_Driver/Src/stm32f4xx_hal.c ****   /* Set Interrupt Group Priority */
 173:Drivers/STM32F4xx_HAL_Driver/Src/stm32f4xx_hal.c ****   HAL_NVIC_SetPriorityGrouping(NVIC_PRIORITYGROUP_4);
 174:Drivers/STM32F4xx_HAL_Driver/Src/stm32f4xx_hal.c **** 
 175:Drivers/STM32F4xx_HAL_Driver/Src/stm32f4xx_hal.c ****   /* Use systick as time base source and configure 1ms tick (default clock after Reset is HSI) */
 176:Drivers/STM32F4xx_HAL_Driver/Src/stm32f4xx_hal.c ****   HAL_InitTick(TICK_INT_PRIORITY);
 177:Drivers/STM32F4xx_HAL_Driver/Src/stm32f4xx_hal.c **** 
 178:Drivers/STM32F4xx_HAL_Driver/Src/stm32f4xx_hal.c ****   /* Init the low level hardware */
 179:Drivers/STM32F4xx_HAL_Driver/Src/stm32f4xx_hal.c ****   HAL_MspInit();
 180:Drivers/STM32F4xx_HAL_Driver/Src/stm32f4xx_hal.c **** 
 181:Drivers/STM32F4xx_HAL_Driver/Src/stm32f4xx_hal.c ****   /* Return function status */
 182:Drivers/STM32F4xx_HAL_Driver/Src/stm32f4xx_hal.c ****   return HAL_OK;
 183:Drivers/STM32F4xx_HAL_Driver/Src/stm32f4xx_hal.c **** }
 184:Drivers/STM32F4xx_HAL_Driver/Src/stm32f4xx_hal.c **** 
 185:Drivers/STM32F4xx_HAL_Driver/Src/stm32f4xx_hal.c **** /**
 186:Drivers/STM32F4xx_HAL_Driver/Src/stm32f4xx_hal.c ****   * @brief  This function de-Initializes common part of the HAL and stops the systick.
 187:Drivers/STM32F4xx_HAL_Driver/Src/stm32f4xx_hal.c ****   *         This function is optional.   
 188:Drivers/STM32F4xx_HAL_Driver/Src/stm32f4xx_hal.c ****   * @retval HAL status
 189:Drivers/STM32F4xx_HAL_Driver/Src/stm32f4xx_hal.c ****   */
 190:Drivers/STM32F4xx_HAL_Driver/Src/stm32f4xx_hal.c **** HAL_StatusTypeDef HAL_DeInit(void)
 191:Drivers/STM32F4xx_HAL_Driver/Src/stm32f4xx_hal.c **** {
 192:Drivers/STM32F4xx_HAL_Driver/Src/stm32f4xx_hal.c ****   /* Reset of all peripherals */
 193:Drivers/STM32F4xx_HAL_Driver/Src/stm32f4xx_hal.c ****   __HAL_RCC_APB1_FORCE_RESET();
 194:Drivers/STM32F4xx_HAL_Driver/Src/stm32f4xx_hal.c ****   __HAL_RCC_APB1_RELEASE_RESET();
 195:Drivers/STM32F4xx_HAL_Driver/Src/stm32f4xx_hal.c **** 
 196:Drivers/STM32F4xx_HAL_Driver/Src/stm32f4xx_hal.c ****   __HAL_RCC_APB2_FORCE_RESET();
 197:Drivers/STM32F4xx_HAL_Driver/Src/stm32f4xx_hal.c ****   __HAL_RCC_APB2_RELEASE_RESET();
 198:Drivers/STM32F4xx_HAL_Driver/Src/stm32f4xx_hal.c **** 
 199:Drivers/STM32F4xx_HAL_Driver/Src/stm32f4xx_hal.c ****   __HAL_RCC_AHB1_FORCE_RESET();
 200:Drivers/STM32F4xx_HAL_Driver/Src/stm32f4xx_hal.c ****   __HAL_RCC_AHB1_RELEASE_RESET();
ARM GAS  /var/folders/0z/tsy30v1j4xl4_7kw94k978ww0000gn/T//ccE3WcSy.s 			page 5


 201:Drivers/STM32F4xx_HAL_Driver/Src/stm32f4xx_hal.c **** 
 202:Drivers/STM32F4xx_HAL_Driver/Src/stm32f4xx_hal.c ****   __HAL_RCC_AHB2_FORCE_RESET();
 203:Drivers/STM32F4xx_HAL_Driver/Src/stm32f4xx_hal.c ****   __HAL_RCC_AHB2_RELEASE_RESET();
 204:Drivers/STM32F4xx_HAL_Driver/Src/stm32f4xx_hal.c **** 
 205:Drivers/STM32F4xx_HAL_Driver/Src/stm32f4xx_hal.c ****   __HAL_RCC_AHB3_FORCE_RESET();
 206:Drivers/STM32F4xx_HAL_Driver/Src/stm32f4xx_hal.c ****   __HAL_RCC_AHB3_RELEASE_RESET();
 207:Drivers/STM32F4xx_HAL_Driver/Src/stm32f4xx_hal.c **** 
 208:Drivers/STM32F4xx_HAL_Driver/Src/stm32f4xx_hal.c ****   /* De-Init the low level hardware */
 209:Drivers/STM32F4xx_HAL_Driver/Src/stm32f4xx_hal.c ****   HAL_MspDeInit();
 210:Drivers/STM32F4xx_HAL_Driver/Src/stm32f4xx_hal.c ****     
 211:Drivers/STM32F4xx_HAL_Driver/Src/stm32f4xx_hal.c ****   /* Return function status */
 212:Drivers/STM32F4xx_HAL_Driver/Src/stm32f4xx_hal.c ****   return HAL_OK;
 213:Drivers/STM32F4xx_HAL_Driver/Src/stm32f4xx_hal.c **** }
 214:Drivers/STM32F4xx_HAL_Driver/Src/stm32f4xx_hal.c **** 
 215:Drivers/STM32F4xx_HAL_Driver/Src/stm32f4xx_hal.c **** /**
 216:Drivers/STM32F4xx_HAL_Driver/Src/stm32f4xx_hal.c ****   * @brief  Initialize the MSP.
 217:Drivers/STM32F4xx_HAL_Driver/Src/stm32f4xx_hal.c ****   * @retval None
 218:Drivers/STM32F4xx_HAL_Driver/Src/stm32f4xx_hal.c ****   */
 219:Drivers/STM32F4xx_HAL_Driver/Src/stm32f4xx_hal.c **** __weak void HAL_MspInit(void)
 220:Drivers/STM32F4xx_HAL_Driver/Src/stm32f4xx_hal.c **** {
  30              		.loc 1 220 1 view -0
  31              		.cfi_startproc
  32              		@ args = 0, pretend = 0, frame = 0
  33              		@ frame_needed = 0, uses_anonymous_args = 0
  34              		@ link register save eliminated.
 221:Drivers/STM32F4xx_HAL_Driver/Src/stm32f4xx_hal.c ****   /* NOTE : This function should not be modified, when the callback is needed,
 222:Drivers/STM32F4xx_HAL_Driver/Src/stm32f4xx_hal.c ****             the HAL_MspInit could be implemented in the user file
 223:Drivers/STM32F4xx_HAL_Driver/Src/stm32f4xx_hal.c ****    */
 224:Drivers/STM32F4xx_HAL_Driver/Src/stm32f4xx_hal.c **** }
  35              		.loc 1 224 1 view .LVU1
  36 0000 7047     		bx	lr
  37              		.cfi_endproc
  38              	.LFE237:
  40 0002 00BF     		.section	.text.HAL_MspDeInit,"ax",%progbits
  41              		.align	1
  42              		.p2align 2,,3
  43              		.weak	HAL_MspDeInit
  44              		.syntax unified
  45              		.thumb
  46              		.thumb_func
  48              	HAL_MspDeInit:
  49              	.LFB264:
  50              		.cfi_startproc
  51              		@ args = 0, pretend = 0, frame = 0
  52              		@ frame_needed = 0, uses_anonymous_args = 0
  53              		@ link register save eliminated.
  54 0000 7047     		bx	lr
  55              		.cfi_endproc
  56              	.LFE264:
  58 0002 00BF     		.section	.text.HAL_DeInit,"ax",%progbits
  59              		.align	1
  60              		.p2align 2,,3
  61              		.global	HAL_DeInit
  62              		.syntax unified
  63              		.thumb
  64              		.thumb_func
  66              	HAL_DeInit:
ARM GAS  /var/folders/0z/tsy30v1j4xl4_7kw94k978ww0000gn/T//ccE3WcSy.s 			page 6


  67              	.LFB236:
 191:Drivers/STM32F4xx_HAL_Driver/Src/stm32f4xx_hal.c ****   /* Reset of all peripherals */
  68              		.loc 1 191 1 view -0
  69              		.cfi_startproc
  70              		@ args = 0, pretend = 0, frame = 0
  71              		@ frame_needed = 0, uses_anonymous_args = 0
 193:Drivers/STM32F4xx_HAL_Driver/Src/stm32f4xx_hal.c ****   __HAL_RCC_APB1_RELEASE_RESET();
  72              		.loc 1 193 3 view .LVU3
 191:Drivers/STM32F4xx_HAL_Driver/Src/stm32f4xx_hal.c ****   /* Reset of all peripherals */
  73              		.loc 1 191 1 is_stmt 0 view .LVU4
  74 0000 10B5     		push	{r4, lr}
  75              		.cfi_def_cfa_offset 8
  76              		.cfi_offset 4, -8
  77              		.cfi_offset 14, -4
 193:Drivers/STM32F4xx_HAL_Driver/Src/stm32f4xx_hal.c ****   __HAL_RCC_APB1_RELEASE_RESET();
  78              		.loc 1 193 3 view .LVU5
  79 0002 094B     		ldr	r3, .L6
 194:Drivers/STM32F4xx_HAL_Driver/Src/stm32f4xx_hal.c **** 
  80              		.loc 1 194 3 view .LVU6
  81 0004 0024     		movs	r4, #0
 193:Drivers/STM32F4xx_HAL_Driver/Src/stm32f4xx_hal.c ****   __HAL_RCC_APB1_RELEASE_RESET();
  82              		.loc 1 193 3 view .LVU7
  83 0006 4FF0FF32 		mov	r2, #-1
  84 000a 1A62     		str	r2, [r3, #32]
 194:Drivers/STM32F4xx_HAL_Driver/Src/stm32f4xx_hal.c **** 
  85              		.loc 1 194 3 is_stmt 1 view .LVU8
  86 000c 1C62     		str	r4, [r3, #32]
 196:Drivers/STM32F4xx_HAL_Driver/Src/stm32f4xx_hal.c ****   __HAL_RCC_APB2_RELEASE_RESET();
  87              		.loc 1 196 3 view .LVU9
  88 000e 5A62     		str	r2, [r3, #36]
 197:Drivers/STM32F4xx_HAL_Driver/Src/stm32f4xx_hal.c **** 
  89              		.loc 1 197 3 view .LVU10
  90 0010 5C62     		str	r4, [r3, #36]
 199:Drivers/STM32F4xx_HAL_Driver/Src/stm32f4xx_hal.c ****   __HAL_RCC_AHB1_RELEASE_RESET();
  91              		.loc 1 199 3 view .LVU11
  92 0012 1A61     		str	r2, [r3, #16]
 200:Drivers/STM32F4xx_HAL_Driver/Src/stm32f4xx_hal.c **** 
  93              		.loc 1 200 3 view .LVU12
  94 0014 1C61     		str	r4, [r3, #16]
 202:Drivers/STM32F4xx_HAL_Driver/Src/stm32f4xx_hal.c ****   __HAL_RCC_AHB2_RELEASE_RESET();
  95              		.loc 1 202 3 view .LVU13
  96 0016 5A61     		str	r2, [r3, #20]
 203:Drivers/STM32F4xx_HAL_Driver/Src/stm32f4xx_hal.c **** 
  97              		.loc 1 203 3 view .LVU14
  98 0018 5C61     		str	r4, [r3, #20]
 205:Drivers/STM32F4xx_HAL_Driver/Src/stm32f4xx_hal.c ****   __HAL_RCC_AHB3_RELEASE_RESET();
  99              		.loc 1 205 3 view .LVU15
 100 001a 9A61     		str	r2, [r3, #24]
 206:Drivers/STM32F4xx_HAL_Driver/Src/stm32f4xx_hal.c **** 
 101              		.loc 1 206 3 view .LVU16
 102 001c 9C61     		str	r4, [r3, #24]
 209:Drivers/STM32F4xx_HAL_Driver/Src/stm32f4xx_hal.c ****     
 103              		.loc 1 209 3 view .LVU17
 104 001e FFF7FEFF 		bl	HAL_MspDeInit
 105              	.LVL0:
 212:Drivers/STM32F4xx_HAL_Driver/Src/stm32f4xx_hal.c **** }
 106              		.loc 1 212 3 view .LVU18
ARM GAS  /var/folders/0z/tsy30v1j4xl4_7kw94k978ww0000gn/T//ccE3WcSy.s 			page 7


 213:Drivers/STM32F4xx_HAL_Driver/Src/stm32f4xx_hal.c **** 
 107              		.loc 1 213 1 is_stmt 0 view .LVU19
 108 0022 2046     		mov	r0, r4
 109 0024 10BD     		pop	{r4, pc}
 110              	.L7:
 111 0026 00BF     		.align	2
 112              	.L6:
 113 0028 00380240 		.word	1073887232
 114              		.cfi_endproc
 115              	.LFE236:
 117              		.section	.text.HAL_InitTick,"ax",%progbits
 118              		.align	1
 119              		.p2align 2,,3
 120              		.weak	HAL_InitTick
 121              		.syntax unified
 122              		.thumb
 123              		.thumb_func
 125              	HAL_InitTick:
 126              	.LVL1:
 127              	.LFB239:
 225:Drivers/STM32F4xx_HAL_Driver/Src/stm32f4xx_hal.c **** 
 226:Drivers/STM32F4xx_HAL_Driver/Src/stm32f4xx_hal.c **** /**
 227:Drivers/STM32F4xx_HAL_Driver/Src/stm32f4xx_hal.c ****   * @brief  DeInitializes the MSP.
 228:Drivers/STM32F4xx_HAL_Driver/Src/stm32f4xx_hal.c ****   * @retval None
 229:Drivers/STM32F4xx_HAL_Driver/Src/stm32f4xx_hal.c ****   */
 230:Drivers/STM32F4xx_HAL_Driver/Src/stm32f4xx_hal.c **** __weak void HAL_MspDeInit(void)
 231:Drivers/STM32F4xx_HAL_Driver/Src/stm32f4xx_hal.c **** {
 232:Drivers/STM32F4xx_HAL_Driver/Src/stm32f4xx_hal.c ****   /* NOTE : This function should not be modified, when the callback is needed,
 233:Drivers/STM32F4xx_HAL_Driver/Src/stm32f4xx_hal.c ****             the HAL_MspDeInit could be implemented in the user file
 234:Drivers/STM32F4xx_HAL_Driver/Src/stm32f4xx_hal.c ****    */ 
 235:Drivers/STM32F4xx_HAL_Driver/Src/stm32f4xx_hal.c **** }
 236:Drivers/STM32F4xx_HAL_Driver/Src/stm32f4xx_hal.c **** 
 237:Drivers/STM32F4xx_HAL_Driver/Src/stm32f4xx_hal.c **** /**
 238:Drivers/STM32F4xx_HAL_Driver/Src/stm32f4xx_hal.c ****   * @brief This function configures the source of the time base.
 239:Drivers/STM32F4xx_HAL_Driver/Src/stm32f4xx_hal.c ****   *        The time source is configured  to have 1ms time base with a dedicated 
 240:Drivers/STM32F4xx_HAL_Driver/Src/stm32f4xx_hal.c ****   *        Tick interrupt priority.
 241:Drivers/STM32F4xx_HAL_Driver/Src/stm32f4xx_hal.c ****   * @note This function is called  automatically at the beginning of program after
 242:Drivers/STM32F4xx_HAL_Driver/Src/stm32f4xx_hal.c ****   *       reset by HAL_Init() or at any time when clock is reconfigured  by HAL_RCC_ClockConfig().
 243:Drivers/STM32F4xx_HAL_Driver/Src/stm32f4xx_hal.c ****   * @note In the default implementation, SysTick timer is the source of time base. 
 244:Drivers/STM32F4xx_HAL_Driver/Src/stm32f4xx_hal.c ****   *       It is used to generate interrupts at regular time intervals. 
 245:Drivers/STM32F4xx_HAL_Driver/Src/stm32f4xx_hal.c ****   *       Care must be taken if HAL_Delay() is called from a peripheral ISR process, 
 246:Drivers/STM32F4xx_HAL_Driver/Src/stm32f4xx_hal.c ****   *       The SysTick interrupt must have higher priority (numerically lower)
 247:Drivers/STM32F4xx_HAL_Driver/Src/stm32f4xx_hal.c ****   *       than the peripheral interrupt. Otherwise the caller ISR process will be blocked.
 248:Drivers/STM32F4xx_HAL_Driver/Src/stm32f4xx_hal.c ****   *       The function is declared as __weak  to be overwritten  in case of other
 249:Drivers/STM32F4xx_HAL_Driver/Src/stm32f4xx_hal.c ****   *       implementation  in user file.
 250:Drivers/STM32F4xx_HAL_Driver/Src/stm32f4xx_hal.c ****   * @param TickPriority Tick interrupt priority.
 251:Drivers/STM32F4xx_HAL_Driver/Src/stm32f4xx_hal.c ****   * @retval HAL status
 252:Drivers/STM32F4xx_HAL_Driver/Src/stm32f4xx_hal.c ****   */
 253:Drivers/STM32F4xx_HAL_Driver/Src/stm32f4xx_hal.c **** __weak HAL_StatusTypeDef HAL_InitTick(uint32_t TickPriority)
 254:Drivers/STM32F4xx_HAL_Driver/Src/stm32f4xx_hal.c **** {
 128              		.loc 1 254 1 is_stmt 1 view -0
 129              		.cfi_startproc
 130              		@ args = 0, pretend = 0, frame = 0
 131              		@ frame_needed = 0, uses_anonymous_args = 0
 255:Drivers/STM32F4xx_HAL_Driver/Src/stm32f4xx_hal.c ****   /* Configure the SysTick to have interrupt in 1ms time basis*/
 256:Drivers/STM32F4xx_HAL_Driver/Src/stm32f4xx_hal.c ****   if (HAL_SYSTICK_Config(SystemCoreClock / (1000U / uwTickFreq)) > 0U)
 132              		.loc 1 256 3 view .LVU21
ARM GAS  /var/folders/0z/tsy30v1j4xl4_7kw94k978ww0000gn/T//ccE3WcSy.s 			page 8


 254:Drivers/STM32F4xx_HAL_Driver/Src/stm32f4xx_hal.c ****   /* Configure the SysTick to have interrupt in 1ms time basis*/
 133              		.loc 1 254 1 is_stmt 0 view .LVU22
 134 0000 38B5     		push	{r3, r4, r5, lr}
 135              		.cfi_def_cfa_offset 16
 136              		.cfi_offset 3, -16
 137              		.cfi_offset 4, -12
 138              		.cfi_offset 5, -8
 139              		.cfi_offset 14, -4
 140              		.loc 1 256 51 view .LVU23
 141 0002 0E4A     		ldr	r2, .L14
 142              		.loc 1 256 7 view .LVU24
 143 0004 0E4B     		ldr	r3, .L14+4
 144              		.loc 1 256 51 view .LVU25
 145 0006 1278     		ldrb	r2, [r2]	@ zero_extendqisi2
 146              		.loc 1 256 7 view .LVU26
 147 0008 1B68     		ldr	r3, [r3]
 254:Drivers/STM32F4xx_HAL_Driver/Src/stm32f4xx_hal.c ****   /* Configure the SysTick to have interrupt in 1ms time basis*/
 148              		.loc 1 254 1 view .LVU27
 149 000a 0546     		mov	r5, r0
 150              		.loc 1 256 51 view .LVU28
 151 000c 4FF47A70 		mov	r0, #1000
 152              	.LVL2:
 153              		.loc 1 256 51 view .LVU29
 154 0010 B0FBF2F0 		udiv	r0, r0, r2
 155              		.loc 1 256 7 view .LVU30
 156 0014 B3FBF0F0 		udiv	r0, r3, r0
 157 0018 FFF7FEFF 		bl	HAL_SYSTICK_Config
 158              	.LVL3:
 159              		.loc 1 256 6 view .LVU31
 160 001c 08B9     		cbnz	r0, .L11
 257:Drivers/STM32F4xx_HAL_Driver/Src/stm32f4xx_hal.c ****   {
 258:Drivers/STM32F4xx_HAL_Driver/Src/stm32f4xx_hal.c ****     return HAL_ERROR;
 259:Drivers/STM32F4xx_HAL_Driver/Src/stm32f4xx_hal.c ****   }
 260:Drivers/STM32F4xx_HAL_Driver/Src/stm32f4xx_hal.c **** 
 261:Drivers/STM32F4xx_HAL_Driver/Src/stm32f4xx_hal.c ****   /* Configure the SysTick IRQ priority */
 262:Drivers/STM32F4xx_HAL_Driver/Src/stm32f4xx_hal.c ****   if (TickPriority < (1UL << __NVIC_PRIO_BITS))
 161              		.loc 1 262 3 is_stmt 1 view .LVU32
 162              		.loc 1 262 6 is_stmt 0 view .LVU33
 163 001e 0F2D     		cmp	r5, #15
 164 0020 01D9     		bls	.L13
 165              	.L11:
 258:Drivers/STM32F4xx_HAL_Driver/Src/stm32f4xx_hal.c ****   }
 166              		.loc 1 258 12 view .LVU34
 167 0022 0120     		movs	r0, #1
 263:Drivers/STM32F4xx_HAL_Driver/Src/stm32f4xx_hal.c ****   {
 264:Drivers/STM32F4xx_HAL_Driver/Src/stm32f4xx_hal.c ****     HAL_NVIC_SetPriority(SysTick_IRQn, TickPriority, 0U);
 265:Drivers/STM32F4xx_HAL_Driver/Src/stm32f4xx_hal.c ****     uwTickPrio = TickPriority;
 266:Drivers/STM32F4xx_HAL_Driver/Src/stm32f4xx_hal.c ****   }
 267:Drivers/STM32F4xx_HAL_Driver/Src/stm32f4xx_hal.c ****   else
 268:Drivers/STM32F4xx_HAL_Driver/Src/stm32f4xx_hal.c ****   {
 269:Drivers/STM32F4xx_HAL_Driver/Src/stm32f4xx_hal.c ****     return HAL_ERROR;
 270:Drivers/STM32F4xx_HAL_Driver/Src/stm32f4xx_hal.c ****   }
 271:Drivers/STM32F4xx_HAL_Driver/Src/stm32f4xx_hal.c **** 
 272:Drivers/STM32F4xx_HAL_Driver/Src/stm32f4xx_hal.c ****   /* Return function status */
 273:Drivers/STM32F4xx_HAL_Driver/Src/stm32f4xx_hal.c ****   return HAL_OK;
 274:Drivers/STM32F4xx_HAL_Driver/Src/stm32f4xx_hal.c **** }
 168              		.loc 1 274 1 view .LVU35
ARM GAS  /var/folders/0z/tsy30v1j4xl4_7kw94k978ww0000gn/T//ccE3WcSy.s 			page 9


 169 0024 38BD     		pop	{r3, r4, r5, pc}
 170              	.LVL4:
 171              	.L13:
 172              		.loc 1 274 1 view .LVU36
 173 0026 0446     		mov	r4, r0
 174              	.LVL5:
 175              	.LBB4:
 176              	.LBI4:
 253:Drivers/STM32F4xx_HAL_Driver/Src/stm32f4xx_hal.c **** {
 177              		.loc 1 253 26 is_stmt 1 view .LVU37
 178              	.LBB5:
 264:Drivers/STM32F4xx_HAL_Driver/Src/stm32f4xx_hal.c ****     uwTickPrio = TickPriority;
 179              		.loc 1 264 5 view .LVU38
 180 0028 0246     		mov	r2, r0
 181 002a 2946     		mov	r1, r5
 182 002c 4FF0FF30 		mov	r0, #-1
 183 0030 FFF7FEFF 		bl	HAL_NVIC_SetPriority
 184              	.LVL6:
 265:Drivers/STM32F4xx_HAL_Driver/Src/stm32f4xx_hal.c ****   }
 185              		.loc 1 265 5 view .LVU39
 265:Drivers/STM32F4xx_HAL_Driver/Src/stm32f4xx_hal.c ****   }
 186              		.loc 1 265 16 is_stmt 0 view .LVU40
 187 0034 034B     		ldr	r3, .L14+8
 188 0036 2046     		mov	r0, r4
 189 0038 1D60     		str	r5, [r3]
 273:Drivers/STM32F4xx_HAL_Driver/Src/stm32f4xx_hal.c **** }
 190              		.loc 1 273 3 is_stmt 1 view .LVU41
 191              	.LVL7:
 273:Drivers/STM32F4xx_HAL_Driver/Src/stm32f4xx_hal.c **** }
 192              		.loc 1 273 3 is_stmt 0 view .LVU42
 193              	.LBE5:
 194              	.LBE4:
 195              		.loc 1 274 1 view .LVU43
 196 003a 38BD     		pop	{r3, r4, r5, pc}
 197              	.LVL8:
 198              	.L15:
 199              		.loc 1 274 1 view .LVU44
 200              		.align	2
 201              	.L14:
 202 003c 00000000 		.word	.LANCHOR0
 203 0040 00000000 		.word	SystemCoreClock
 204 0044 00000000 		.word	.LANCHOR1
 205              		.cfi_endproc
 206              	.LFE239:
 208              		.section	.text.HAL_Init,"ax",%progbits
 209              		.align	1
 210              		.p2align 2,,3
 211              		.global	HAL_Init
 212              		.syntax unified
 213              		.thumb
 214              		.thumb_func
 216              	HAL_Init:
 217              	.LFB235:
 158:Drivers/STM32F4xx_HAL_Driver/Src/stm32f4xx_hal.c ****   /* Configure Flash prefetch, Instruction cache, Data cache */ 
 218              		.loc 1 158 1 is_stmt 1 view -0
 219              		.cfi_startproc
 220              		@ args = 0, pretend = 0, frame = 0
ARM GAS  /var/folders/0z/tsy30v1j4xl4_7kw94k978ww0000gn/T//ccE3WcSy.s 			page 10


 221              		@ frame_needed = 0, uses_anonymous_args = 0
 161:Drivers/STM32F4xx_HAL_Driver/Src/stm32f4xx_hal.c **** #endif /* INSTRUCTION_CACHE_ENABLE */
 222              		.loc 1 161 3 view .LVU46
 158:Drivers/STM32F4xx_HAL_Driver/Src/stm32f4xx_hal.c ****   /* Configure Flash prefetch, Instruction cache, Data cache */ 
 223              		.loc 1 158 1 is_stmt 0 view .LVU47
 224 0000 08B5     		push	{r3, lr}
 225              		.cfi_def_cfa_offset 8
 226              		.cfi_offset 3, -8
 227              		.cfi_offset 14, -4
 161:Drivers/STM32F4xx_HAL_Driver/Src/stm32f4xx_hal.c **** #endif /* INSTRUCTION_CACHE_ENABLE */
 228              		.loc 1 161 3 view .LVU48
 229 0002 0B4B     		ldr	r3, .L18
 230 0004 1A68     		ldr	r2, [r3]
 231 0006 42F40072 		orr	r2, r2, #512
 232 000a 1A60     		str	r2, [r3]
 165:Drivers/STM32F4xx_HAL_Driver/Src/stm32f4xx_hal.c **** #endif /* DATA_CACHE_ENABLE */
 233              		.loc 1 165 3 is_stmt 1 view .LVU49
 234 000c 1A68     		ldr	r2, [r3]
 235 000e 42F48062 		orr	r2, r2, #1024
 236 0012 1A60     		str	r2, [r3]
 169:Drivers/STM32F4xx_HAL_Driver/Src/stm32f4xx_hal.c **** #endif /* PREFETCH_ENABLE */
 237              		.loc 1 169 3 view .LVU50
 238 0014 1A68     		ldr	r2, [r3]
 239 0016 42F48072 		orr	r2, r2, #256
 240 001a 1A60     		str	r2, [r3]
 173:Drivers/STM32F4xx_HAL_Driver/Src/stm32f4xx_hal.c **** 
 241              		.loc 1 173 3 view .LVU51
 242 001c 0320     		movs	r0, #3
 243 001e FFF7FEFF 		bl	HAL_NVIC_SetPriorityGrouping
 244              	.LVL9:
 176:Drivers/STM32F4xx_HAL_Driver/Src/stm32f4xx_hal.c **** 
 245              		.loc 1 176 3 view .LVU52
 246 0022 0020     		movs	r0, #0
 247 0024 FFF7FEFF 		bl	HAL_InitTick
 248              	.LVL10:
 179:Drivers/STM32F4xx_HAL_Driver/Src/stm32f4xx_hal.c **** 
 249              		.loc 1 179 3 view .LVU53
 250 0028 FFF7FEFF 		bl	HAL_MspInit
 251              	.LVL11:
 182:Drivers/STM32F4xx_HAL_Driver/Src/stm32f4xx_hal.c **** }
 252              		.loc 1 182 3 view .LVU54
 183:Drivers/STM32F4xx_HAL_Driver/Src/stm32f4xx_hal.c **** 
 253              		.loc 1 183 1 is_stmt 0 view .LVU55
 254 002c 0020     		movs	r0, #0
 255 002e 08BD     		pop	{r3, pc}
 256              	.L19:
 257              		.align	2
 258              	.L18:
 259 0030 003C0240 		.word	1073888256
 260              		.cfi_endproc
 261              	.LFE235:
 263              		.section	.text.HAL_IncTick,"ax",%progbits
 264              		.align	1
 265              		.p2align 2,,3
 266              		.weak	HAL_IncTick
 267              		.syntax unified
 268              		.thumb
ARM GAS  /var/folders/0z/tsy30v1j4xl4_7kw94k978ww0000gn/T//ccE3WcSy.s 			page 11


 269              		.thumb_func
 271              	HAL_IncTick:
 272              	.LFB240:
 275:Drivers/STM32F4xx_HAL_Driver/Src/stm32f4xx_hal.c **** 
 276:Drivers/STM32F4xx_HAL_Driver/Src/stm32f4xx_hal.c **** /**
 277:Drivers/STM32F4xx_HAL_Driver/Src/stm32f4xx_hal.c ****   * @}
 278:Drivers/STM32F4xx_HAL_Driver/Src/stm32f4xx_hal.c ****   */
 279:Drivers/STM32F4xx_HAL_Driver/Src/stm32f4xx_hal.c **** 
 280:Drivers/STM32F4xx_HAL_Driver/Src/stm32f4xx_hal.c **** /** @defgroup HAL_Exported_Functions_Group2 HAL Control functions 
 281:Drivers/STM32F4xx_HAL_Driver/Src/stm32f4xx_hal.c ****  *  @brief    HAL Control functions
 282:Drivers/STM32F4xx_HAL_Driver/Src/stm32f4xx_hal.c ****  *
 283:Drivers/STM32F4xx_HAL_Driver/Src/stm32f4xx_hal.c **** @verbatim
 284:Drivers/STM32F4xx_HAL_Driver/Src/stm32f4xx_hal.c ****  ===============================================================================
 285:Drivers/STM32F4xx_HAL_Driver/Src/stm32f4xx_hal.c ****                       ##### HAL Control functions #####
 286:Drivers/STM32F4xx_HAL_Driver/Src/stm32f4xx_hal.c ****  ===============================================================================
 287:Drivers/STM32F4xx_HAL_Driver/Src/stm32f4xx_hal.c ****     [..]  This section provides functions allowing to:
 288:Drivers/STM32F4xx_HAL_Driver/Src/stm32f4xx_hal.c ****       (+) Provide a tick value in millisecond
 289:Drivers/STM32F4xx_HAL_Driver/Src/stm32f4xx_hal.c ****       (+) Provide a blocking delay in millisecond
 290:Drivers/STM32F4xx_HAL_Driver/Src/stm32f4xx_hal.c ****       (+) Suspend the time base source interrupt
 291:Drivers/STM32F4xx_HAL_Driver/Src/stm32f4xx_hal.c ****       (+) Resume the time base source interrupt
 292:Drivers/STM32F4xx_HAL_Driver/Src/stm32f4xx_hal.c ****       (+) Get the HAL API driver version
 293:Drivers/STM32F4xx_HAL_Driver/Src/stm32f4xx_hal.c ****       (+) Get the device identifier
 294:Drivers/STM32F4xx_HAL_Driver/Src/stm32f4xx_hal.c ****       (+) Get the device revision identifier
 295:Drivers/STM32F4xx_HAL_Driver/Src/stm32f4xx_hal.c ****       (+) Enable/Disable Debug module during SLEEP mode
 296:Drivers/STM32F4xx_HAL_Driver/Src/stm32f4xx_hal.c ****       (+) Enable/Disable Debug module during STOP mode
 297:Drivers/STM32F4xx_HAL_Driver/Src/stm32f4xx_hal.c ****       (+) Enable/Disable Debug module during STANDBY mode
 298:Drivers/STM32F4xx_HAL_Driver/Src/stm32f4xx_hal.c **** 
 299:Drivers/STM32F4xx_HAL_Driver/Src/stm32f4xx_hal.c **** @endverbatim
 300:Drivers/STM32F4xx_HAL_Driver/Src/stm32f4xx_hal.c ****   * @{
 301:Drivers/STM32F4xx_HAL_Driver/Src/stm32f4xx_hal.c ****   */
 302:Drivers/STM32F4xx_HAL_Driver/Src/stm32f4xx_hal.c **** 
 303:Drivers/STM32F4xx_HAL_Driver/Src/stm32f4xx_hal.c **** /**
 304:Drivers/STM32F4xx_HAL_Driver/Src/stm32f4xx_hal.c ****   * @brief This function is called to increment  a global variable "uwTick"
 305:Drivers/STM32F4xx_HAL_Driver/Src/stm32f4xx_hal.c ****   *        used as application time base.
 306:Drivers/STM32F4xx_HAL_Driver/Src/stm32f4xx_hal.c ****   * @note In the default implementation, this variable is incremented each 1ms
 307:Drivers/STM32F4xx_HAL_Driver/Src/stm32f4xx_hal.c ****   *       in SysTick ISR.
 308:Drivers/STM32F4xx_HAL_Driver/Src/stm32f4xx_hal.c ****  * @note This function is declared as __weak to be overwritten in case of other 
 309:Drivers/STM32F4xx_HAL_Driver/Src/stm32f4xx_hal.c ****   *      implementations in user file.
 310:Drivers/STM32F4xx_HAL_Driver/Src/stm32f4xx_hal.c ****   * @retval None
 311:Drivers/STM32F4xx_HAL_Driver/Src/stm32f4xx_hal.c ****   */
 312:Drivers/STM32F4xx_HAL_Driver/Src/stm32f4xx_hal.c **** __weak void HAL_IncTick(void)
 313:Drivers/STM32F4xx_HAL_Driver/Src/stm32f4xx_hal.c **** {
 273              		.loc 1 313 1 is_stmt 1 view -0
 274              		.cfi_startproc
 275              		@ args = 0, pretend = 0, frame = 0
 276              		@ frame_needed = 0, uses_anonymous_args = 0
 277              		@ link register save eliminated.
 314:Drivers/STM32F4xx_HAL_Driver/Src/stm32f4xx_hal.c ****   uwTick += uwTickFreq;
 278              		.loc 1 314 3 view .LVU57
 279              		.loc 1 314 10 is_stmt 0 view .LVU58
 280 0000 034A     		ldr	r2, .L21
 281 0002 044B     		ldr	r3, .L21+4
 282 0004 1168     		ldr	r1, [r2]
 283 0006 1B78     		ldrb	r3, [r3]	@ zero_extendqisi2
 284 0008 0B44     		add	r3, r3, r1
 285 000a 1360     		str	r3, [r2]
 315:Drivers/STM32F4xx_HAL_Driver/Src/stm32f4xx_hal.c **** }
ARM GAS  /var/folders/0z/tsy30v1j4xl4_7kw94k978ww0000gn/T//ccE3WcSy.s 			page 12


 286              		.loc 1 315 1 view .LVU59
 287 000c 7047     		bx	lr
 288              	.L22:
 289 000e 00BF     		.align	2
 290              	.L21:
 291 0010 00000000 		.word	.LANCHOR2
 292 0014 00000000 		.word	.LANCHOR0
 293              		.cfi_endproc
 294              	.LFE240:
 296              		.section	.text.HAL_GetTick,"ax",%progbits
 297              		.align	1
 298              		.p2align 2,,3
 299              		.weak	HAL_GetTick
 300              		.syntax unified
 301              		.thumb
 302              		.thumb_func
 304              	HAL_GetTick:
 305              	.LFB241:
 316:Drivers/STM32F4xx_HAL_Driver/Src/stm32f4xx_hal.c **** 
 317:Drivers/STM32F4xx_HAL_Driver/Src/stm32f4xx_hal.c **** /**
 318:Drivers/STM32F4xx_HAL_Driver/Src/stm32f4xx_hal.c ****   * @brief Provides a tick value in millisecond.
 319:Drivers/STM32F4xx_HAL_Driver/Src/stm32f4xx_hal.c ****   * @note This function is declared as __weak to be overwritten in case of other 
 320:Drivers/STM32F4xx_HAL_Driver/Src/stm32f4xx_hal.c ****   *       implementations in user file.
 321:Drivers/STM32F4xx_HAL_Driver/Src/stm32f4xx_hal.c ****   * @retval tick value
 322:Drivers/STM32F4xx_HAL_Driver/Src/stm32f4xx_hal.c ****   */
 323:Drivers/STM32F4xx_HAL_Driver/Src/stm32f4xx_hal.c **** __weak uint32_t HAL_GetTick(void)
 324:Drivers/STM32F4xx_HAL_Driver/Src/stm32f4xx_hal.c **** {
 306              		.loc 1 324 1 is_stmt 1 view -0
 307              		.cfi_startproc
 308              		@ args = 0, pretend = 0, frame = 0
 309              		@ frame_needed = 0, uses_anonymous_args = 0
 310              		@ link register save eliminated.
 325:Drivers/STM32F4xx_HAL_Driver/Src/stm32f4xx_hal.c ****   return uwTick;
 311              		.loc 1 325 3 view .LVU61
 312              		.loc 1 325 10 is_stmt 0 view .LVU62
 313 0000 014B     		ldr	r3, .L24
 314 0002 1868     		ldr	r0, [r3]
 326:Drivers/STM32F4xx_HAL_Driver/Src/stm32f4xx_hal.c **** }
 315              		.loc 1 326 1 view .LVU63
 316 0004 7047     		bx	lr
 317              	.L25:
 318 0006 00BF     		.align	2
 319              	.L24:
 320 0008 00000000 		.word	.LANCHOR2
 321              		.cfi_endproc
 322              	.LFE241:
 324              		.section	.text.HAL_GetTickPrio,"ax",%progbits
 325              		.align	1
 326              		.p2align 2,,3
 327              		.global	HAL_GetTickPrio
 328              		.syntax unified
 329              		.thumb
 330              		.thumb_func
 332              	HAL_GetTickPrio:
 333              	.LFB242:
 327:Drivers/STM32F4xx_HAL_Driver/Src/stm32f4xx_hal.c **** 
 328:Drivers/STM32F4xx_HAL_Driver/Src/stm32f4xx_hal.c **** /**
ARM GAS  /var/folders/0z/tsy30v1j4xl4_7kw94k978ww0000gn/T//ccE3WcSy.s 			page 13


 329:Drivers/STM32F4xx_HAL_Driver/Src/stm32f4xx_hal.c ****   * @brief This function returns a tick priority.
 330:Drivers/STM32F4xx_HAL_Driver/Src/stm32f4xx_hal.c ****   * @retval tick priority
 331:Drivers/STM32F4xx_HAL_Driver/Src/stm32f4xx_hal.c ****   */
 332:Drivers/STM32F4xx_HAL_Driver/Src/stm32f4xx_hal.c **** uint32_t HAL_GetTickPrio(void)
 333:Drivers/STM32F4xx_HAL_Driver/Src/stm32f4xx_hal.c **** {
 334              		.loc 1 333 1 is_stmt 1 view -0
 335              		.cfi_startproc
 336              		@ args = 0, pretend = 0, frame = 0
 337              		@ frame_needed = 0, uses_anonymous_args = 0
 338              		@ link register save eliminated.
 334:Drivers/STM32F4xx_HAL_Driver/Src/stm32f4xx_hal.c ****   return uwTickPrio;
 339              		.loc 1 334 3 view .LVU65
 340              		.loc 1 334 10 is_stmt 0 view .LVU66
 341 0000 014B     		ldr	r3, .L27
 335:Drivers/STM32F4xx_HAL_Driver/Src/stm32f4xx_hal.c **** }
 342              		.loc 1 335 1 view .LVU67
 343 0002 1868     		ldr	r0, [r3]
 344 0004 7047     		bx	lr
 345              	.L28:
 346 0006 00BF     		.align	2
 347              	.L27:
 348 0008 00000000 		.word	.LANCHOR1
 349              		.cfi_endproc
 350              	.LFE242:
 352              		.section	.text.HAL_SetTickFreq,"ax",%progbits
 353              		.align	1
 354              		.p2align 2,,3
 355              		.global	HAL_SetTickFreq
 356              		.syntax unified
 357              		.thumb
 358              		.thumb_func
 360              	HAL_SetTickFreq:
 361              	.LVL12:
 362              	.LFB243:
 336:Drivers/STM32F4xx_HAL_Driver/Src/stm32f4xx_hal.c **** 
 337:Drivers/STM32F4xx_HAL_Driver/Src/stm32f4xx_hal.c **** /**
 338:Drivers/STM32F4xx_HAL_Driver/Src/stm32f4xx_hal.c ****   * @brief Set new tick Freq.
 339:Drivers/STM32F4xx_HAL_Driver/Src/stm32f4xx_hal.c ****   * @retval Status
 340:Drivers/STM32F4xx_HAL_Driver/Src/stm32f4xx_hal.c ****   */
 341:Drivers/STM32F4xx_HAL_Driver/Src/stm32f4xx_hal.c **** HAL_StatusTypeDef HAL_SetTickFreq(HAL_TickFreqTypeDef Freq)
 342:Drivers/STM32F4xx_HAL_Driver/Src/stm32f4xx_hal.c **** {
 363              		.loc 1 342 1 is_stmt 1 view -0
 364              		.cfi_startproc
 365              		@ args = 0, pretend = 0, frame = 0
 366              		@ frame_needed = 0, uses_anonymous_args = 0
 343:Drivers/STM32F4xx_HAL_Driver/Src/stm32f4xx_hal.c ****   HAL_StatusTypeDef status  = HAL_OK;
 367              		.loc 1 343 3 view .LVU69
 344:Drivers/STM32F4xx_HAL_Driver/Src/stm32f4xx_hal.c ****   HAL_TickFreqTypeDef prevTickFreq;
 368              		.loc 1 344 3 view .LVU70
 345:Drivers/STM32F4xx_HAL_Driver/Src/stm32f4xx_hal.c **** 
 346:Drivers/STM32F4xx_HAL_Driver/Src/stm32f4xx_hal.c ****   assert_param(IS_TICKFREQ(Freq));
 369              		.loc 1 346 3 view .LVU71
 347:Drivers/STM32F4xx_HAL_Driver/Src/stm32f4xx_hal.c **** 
 348:Drivers/STM32F4xx_HAL_Driver/Src/stm32f4xx_hal.c ****   if (uwTickFreq != Freq)
 370              		.loc 1 348 3 view .LVU72
 342:Drivers/STM32F4xx_HAL_Driver/Src/stm32f4xx_hal.c ****   HAL_StatusTypeDef status  = HAL_OK;
 371              		.loc 1 342 1 is_stmt 0 view .LVU73
ARM GAS  /var/folders/0z/tsy30v1j4xl4_7kw94k978ww0000gn/T//ccE3WcSy.s 			page 14


 372 0000 38B5     		push	{r3, r4, r5, lr}
 373              		.cfi_def_cfa_offset 16
 374              		.cfi_offset 3, -16
 375              		.cfi_offset 4, -12
 376              		.cfi_offset 5, -8
 377              		.cfi_offset 14, -4
 378              		.loc 1 348 18 view .LVU74
 379 0002 074C     		ldr	r4, .L37
 380 0004 2578     		ldrb	r5, [r4]	@ zero_extendqisi2
 381              		.loc 1 348 6 view .LVU75
 382 0006 8542     		cmp	r5, r0
 383 0008 01D1     		bne	.L36
 343:Drivers/STM32F4xx_HAL_Driver/Src/stm32f4xx_hal.c ****   HAL_TickFreqTypeDef prevTickFreq;
 384              		.loc 1 343 21 view .LVU76
 385 000a 0020     		movs	r0, #0
 386              	.LVL13:
 387              	.L30:
 349:Drivers/STM32F4xx_HAL_Driver/Src/stm32f4xx_hal.c ****   {
 350:Drivers/STM32F4xx_HAL_Driver/Src/stm32f4xx_hal.c ****     /* Back up uwTickFreq frequency */
 351:Drivers/STM32F4xx_HAL_Driver/Src/stm32f4xx_hal.c ****     prevTickFreq = uwTickFreq;
 352:Drivers/STM32F4xx_HAL_Driver/Src/stm32f4xx_hal.c **** 
 353:Drivers/STM32F4xx_HAL_Driver/Src/stm32f4xx_hal.c ****     /* Update uwTickFreq global variable used by HAL_InitTick() */
 354:Drivers/STM32F4xx_HAL_Driver/Src/stm32f4xx_hal.c ****     uwTickFreq = Freq;
 355:Drivers/STM32F4xx_HAL_Driver/Src/stm32f4xx_hal.c **** 
 356:Drivers/STM32F4xx_HAL_Driver/Src/stm32f4xx_hal.c ****     /* Apply the new tick Freq  */
 357:Drivers/STM32F4xx_HAL_Driver/Src/stm32f4xx_hal.c ****     status = HAL_InitTick(uwTickPrio);
 358:Drivers/STM32F4xx_HAL_Driver/Src/stm32f4xx_hal.c **** 
 359:Drivers/STM32F4xx_HAL_Driver/Src/stm32f4xx_hal.c ****     if (status != HAL_OK)
 360:Drivers/STM32F4xx_HAL_Driver/Src/stm32f4xx_hal.c ****     {
 361:Drivers/STM32F4xx_HAL_Driver/Src/stm32f4xx_hal.c ****       /* Restore previous tick frequency */
 362:Drivers/STM32F4xx_HAL_Driver/Src/stm32f4xx_hal.c ****       uwTickFreq = prevTickFreq;
 363:Drivers/STM32F4xx_HAL_Driver/Src/stm32f4xx_hal.c ****     }
 364:Drivers/STM32F4xx_HAL_Driver/Src/stm32f4xx_hal.c ****   }
 365:Drivers/STM32F4xx_HAL_Driver/Src/stm32f4xx_hal.c **** 
 366:Drivers/STM32F4xx_HAL_Driver/Src/stm32f4xx_hal.c ****   return status;
 388              		.loc 1 366 3 is_stmt 1 view .LVU77
 367:Drivers/STM32F4xx_HAL_Driver/Src/stm32f4xx_hal.c **** }
 389              		.loc 1 367 1 is_stmt 0 view .LVU78
 390 000c 38BD     		pop	{r3, r4, r5, pc}
 391              	.LVL14:
 392              	.L36:
 351:Drivers/STM32F4xx_HAL_Driver/Src/stm32f4xx_hal.c **** 
 393              		.loc 1 351 5 is_stmt 1 view .LVU79
 354:Drivers/STM32F4xx_HAL_Driver/Src/stm32f4xx_hal.c **** 
 394              		.loc 1 354 5 view .LVU80
 357:Drivers/STM32F4xx_HAL_Driver/Src/stm32f4xx_hal.c **** 
 395              		.loc 1 357 14 is_stmt 0 view .LVU81
 396 000e 054B     		ldr	r3, .L37+4
 354:Drivers/STM32F4xx_HAL_Driver/Src/stm32f4xx_hal.c **** 
 397              		.loc 1 354 16 view .LVU82
 398 0010 2070     		strb	r0, [r4]
 357:Drivers/STM32F4xx_HAL_Driver/Src/stm32f4xx_hal.c **** 
 399              		.loc 1 357 5 is_stmt 1 view .LVU83
 357:Drivers/STM32F4xx_HAL_Driver/Src/stm32f4xx_hal.c **** 
 400              		.loc 1 357 14 is_stmt 0 view .LVU84
 401 0012 1868     		ldr	r0, [r3]
 402              	.LVL15:
ARM GAS  /var/folders/0z/tsy30v1j4xl4_7kw94k978ww0000gn/T//ccE3WcSy.s 			page 15


 357:Drivers/STM32F4xx_HAL_Driver/Src/stm32f4xx_hal.c **** 
 403              		.loc 1 357 14 view .LVU85
 404 0014 FFF7FEFF 		bl	HAL_InitTick
 405              	.LVL16:
 359:Drivers/STM32F4xx_HAL_Driver/Src/stm32f4xx_hal.c ****     {
 406              		.loc 1 359 5 is_stmt 1 view .LVU86
 359:Drivers/STM32F4xx_HAL_Driver/Src/stm32f4xx_hal.c ****     {
 407              		.loc 1 359 8 is_stmt 0 view .LVU87
 408 0018 0028     		cmp	r0, #0
 409 001a F7D0     		beq	.L30
 362:Drivers/STM32F4xx_HAL_Driver/Src/stm32f4xx_hal.c ****     }
 410              		.loc 1 362 7 is_stmt 1 view .LVU88
 362:Drivers/STM32F4xx_HAL_Driver/Src/stm32f4xx_hal.c ****     }
 411              		.loc 1 362 18 is_stmt 0 view .LVU89
 412 001c 2570     		strb	r5, [r4]
 366:Drivers/STM32F4xx_HAL_Driver/Src/stm32f4xx_hal.c **** }
 413              		.loc 1 366 3 is_stmt 1 view .LVU90
 414              		.loc 1 367 1 is_stmt 0 view .LVU91
 415 001e 38BD     		pop	{r3, r4, r5, pc}
 416              	.LVL17:
 417              	.L38:
 418              		.loc 1 367 1 view .LVU92
 419              		.align	2
 420              	.L37:
 421 0020 00000000 		.word	.LANCHOR0
 422 0024 00000000 		.word	.LANCHOR1
 423              		.cfi_endproc
 424              	.LFE243:
 426              		.section	.text.HAL_GetTickFreq,"ax",%progbits
 427              		.align	1
 428              		.p2align 2,,3
 429              		.global	HAL_GetTickFreq
 430              		.syntax unified
 431              		.thumb
 432              		.thumb_func
 434              	HAL_GetTickFreq:
 435              	.LFB244:
 368:Drivers/STM32F4xx_HAL_Driver/Src/stm32f4xx_hal.c **** 
 369:Drivers/STM32F4xx_HAL_Driver/Src/stm32f4xx_hal.c **** /**
 370:Drivers/STM32F4xx_HAL_Driver/Src/stm32f4xx_hal.c ****   * @brief Return tick frequency.
 371:Drivers/STM32F4xx_HAL_Driver/Src/stm32f4xx_hal.c ****   * @retval tick period in Hz
 372:Drivers/STM32F4xx_HAL_Driver/Src/stm32f4xx_hal.c ****   */
 373:Drivers/STM32F4xx_HAL_Driver/Src/stm32f4xx_hal.c **** HAL_TickFreqTypeDef HAL_GetTickFreq(void)
 374:Drivers/STM32F4xx_HAL_Driver/Src/stm32f4xx_hal.c **** {
 436              		.loc 1 374 1 is_stmt 1 view -0
 437              		.cfi_startproc
 438              		@ args = 0, pretend = 0, frame = 0
 439              		@ frame_needed = 0, uses_anonymous_args = 0
 440              		@ link register save eliminated.
 375:Drivers/STM32F4xx_HAL_Driver/Src/stm32f4xx_hal.c ****   return uwTickFreq;
 441              		.loc 1 375 3 view .LVU94
 442              		.loc 1 375 10 is_stmt 0 view .LVU95
 443 0000 014B     		ldr	r3, .L40
 376:Drivers/STM32F4xx_HAL_Driver/Src/stm32f4xx_hal.c **** }
 444              		.loc 1 376 1 view .LVU96
 445 0002 1878     		ldrb	r0, [r3]	@ zero_extendqisi2
 446 0004 7047     		bx	lr
ARM GAS  /var/folders/0z/tsy30v1j4xl4_7kw94k978ww0000gn/T//ccE3WcSy.s 			page 16


 447              	.L41:
 448 0006 00BF     		.align	2
 449              	.L40:
 450 0008 00000000 		.word	.LANCHOR0
 451              		.cfi_endproc
 452              	.LFE244:
 454              		.section	.text.HAL_Delay,"ax",%progbits
 455              		.align	1
 456              		.p2align 2,,3
 457              		.weak	HAL_Delay
 458              		.syntax unified
 459              		.thumb
 460              		.thumb_func
 462              	HAL_Delay:
 463              	.LVL18:
 464              	.LFB245:
 377:Drivers/STM32F4xx_HAL_Driver/Src/stm32f4xx_hal.c **** 
 378:Drivers/STM32F4xx_HAL_Driver/Src/stm32f4xx_hal.c **** /**
 379:Drivers/STM32F4xx_HAL_Driver/Src/stm32f4xx_hal.c ****   * @brief This function provides minimum delay (in milliseconds) based 
 380:Drivers/STM32F4xx_HAL_Driver/Src/stm32f4xx_hal.c ****   *        on variable incremented.
 381:Drivers/STM32F4xx_HAL_Driver/Src/stm32f4xx_hal.c ****   * @note In the default implementation , SysTick timer is the source of time base.
 382:Drivers/STM32F4xx_HAL_Driver/Src/stm32f4xx_hal.c ****   *       It is used to generate interrupts at regular time intervals where uwTick
 383:Drivers/STM32F4xx_HAL_Driver/Src/stm32f4xx_hal.c ****   *       is incremented.
 384:Drivers/STM32F4xx_HAL_Driver/Src/stm32f4xx_hal.c ****   * @note This function is declared as __weak to be overwritten in case of other
 385:Drivers/STM32F4xx_HAL_Driver/Src/stm32f4xx_hal.c ****   *       implementations in user file.
 386:Drivers/STM32F4xx_HAL_Driver/Src/stm32f4xx_hal.c ****   * @param Delay specifies the delay time length, in milliseconds.
 387:Drivers/STM32F4xx_HAL_Driver/Src/stm32f4xx_hal.c ****   * @retval None
 388:Drivers/STM32F4xx_HAL_Driver/Src/stm32f4xx_hal.c ****   */
 389:Drivers/STM32F4xx_HAL_Driver/Src/stm32f4xx_hal.c **** __weak void HAL_Delay(uint32_t Delay)
 390:Drivers/STM32F4xx_HAL_Driver/Src/stm32f4xx_hal.c **** {
 465              		.loc 1 390 1 is_stmt 1 view -0
 466              		.cfi_startproc
 467              		@ args = 0, pretend = 0, frame = 0
 468              		@ frame_needed = 0, uses_anonymous_args = 0
 391:Drivers/STM32F4xx_HAL_Driver/Src/stm32f4xx_hal.c ****   uint32_t tickstart = HAL_GetTick();
 469              		.loc 1 391 3 view .LVU98
 390:Drivers/STM32F4xx_HAL_Driver/Src/stm32f4xx_hal.c ****   uint32_t tickstart = HAL_GetTick();
 470              		.loc 1 390 1 is_stmt 0 view .LVU99
 471 0000 38B5     		push	{r3, r4, r5, lr}
 472              		.cfi_def_cfa_offset 16
 473              		.cfi_offset 3, -16
 474              		.cfi_offset 4, -12
 475              		.cfi_offset 5, -8
 476              		.cfi_offset 14, -4
 390:Drivers/STM32F4xx_HAL_Driver/Src/stm32f4xx_hal.c ****   uint32_t tickstart = HAL_GetTick();
 477              		.loc 1 390 1 view .LVU100
 478 0002 0446     		mov	r4, r0
 479              		.loc 1 391 24 view .LVU101
 480 0004 FFF7FEFF 		bl	HAL_GetTick
 481              	.LVL19:
 392:Drivers/STM32F4xx_HAL_Driver/Src/stm32f4xx_hal.c ****   uint32_t wait = Delay;
 393:Drivers/STM32F4xx_HAL_Driver/Src/stm32f4xx_hal.c **** 
 394:Drivers/STM32F4xx_HAL_Driver/Src/stm32f4xx_hal.c ****   /* Add a freq to guarantee minimum wait */
 395:Drivers/STM32F4xx_HAL_Driver/Src/stm32f4xx_hal.c ****   if (wait < HAL_MAX_DELAY)
 482              		.loc 1 395 6 view .LVU102
 483 0008 631C     		adds	r3, r4, #1
 391:Drivers/STM32F4xx_HAL_Driver/Src/stm32f4xx_hal.c ****   uint32_t wait = Delay;
ARM GAS  /var/folders/0z/tsy30v1j4xl4_7kw94k978ww0000gn/T//ccE3WcSy.s 			page 17


 484              		.loc 1 391 24 view .LVU103
 485 000a 0546     		mov	r5, r0
 486              	.LVL20:
 392:Drivers/STM32F4xx_HAL_Driver/Src/stm32f4xx_hal.c ****   uint32_t wait = Delay;
 487              		.loc 1 392 3 is_stmt 1 view .LVU104
 488              		.loc 1 395 3 view .LVU105
 489              		.loc 1 395 6 is_stmt 0 view .LVU106
 490 000c 02D0     		beq	.L44
 396:Drivers/STM32F4xx_HAL_Driver/Src/stm32f4xx_hal.c ****   {
 397:Drivers/STM32F4xx_HAL_Driver/Src/stm32f4xx_hal.c ****     wait += (uint32_t)(uwTickFreq);
 491              		.loc 1 397 5 is_stmt 1 view .LVU107
 492              		.loc 1 397 13 is_stmt 0 view .LVU108
 493 000e 044B     		ldr	r3, .L50
 494 0010 1B78     		ldrb	r3, [r3]	@ zero_extendqisi2
 495              		.loc 1 397 10 view .LVU109
 496 0012 1C44     		add	r4, r4, r3
 497              	.LVL21:
 498              	.L44:
 398:Drivers/STM32F4xx_HAL_Driver/Src/stm32f4xx_hal.c ****   }
 399:Drivers/STM32F4xx_HAL_Driver/Src/stm32f4xx_hal.c **** 
 400:Drivers/STM32F4xx_HAL_Driver/Src/stm32f4xx_hal.c ****   while((HAL_GetTick() - tickstart) < wait)
 401:Drivers/STM32F4xx_HAL_Driver/Src/stm32f4xx_hal.c ****   {
 402:Drivers/STM32F4xx_HAL_Driver/Src/stm32f4xx_hal.c ****   }
 499              		.loc 1 402 3 is_stmt 1 discriminator 1 view .LVU110
 400:Drivers/STM32F4xx_HAL_Driver/Src/stm32f4xx_hal.c ****   {
 500              		.loc 1 400 37 discriminator 1 view .LVU111
 400:Drivers/STM32F4xx_HAL_Driver/Src/stm32f4xx_hal.c ****   {
 501              		.loc 1 400 10 is_stmt 0 discriminator 1 view .LVU112
 502 0014 FFF7FEFF 		bl	HAL_GetTick
 503              	.LVL22:
 400:Drivers/STM32F4xx_HAL_Driver/Src/stm32f4xx_hal.c ****   {
 504              		.loc 1 400 24 discriminator 1 view .LVU113
 505 0018 431B     		subs	r3, r0, r5
 400:Drivers/STM32F4xx_HAL_Driver/Src/stm32f4xx_hal.c ****   {
 506              		.loc 1 400 37 discriminator 1 view .LVU114
 507 001a A342     		cmp	r3, r4
 508 001c FAD3     		bcc	.L44
 403:Drivers/STM32F4xx_HAL_Driver/Src/stm32f4xx_hal.c **** }
 509              		.loc 1 403 1 view .LVU115
 510 001e 38BD     		pop	{r3, r4, r5, pc}
 511              	.LVL23:
 512              	.L51:
 513              		.loc 1 403 1 view .LVU116
 514              		.align	2
 515              	.L50:
 516 0020 00000000 		.word	.LANCHOR0
 517              		.cfi_endproc
 518              	.LFE245:
 520              		.section	.text.HAL_SuspendTick,"ax",%progbits
 521              		.align	1
 522              		.p2align 2,,3
 523              		.weak	HAL_SuspendTick
 524              		.syntax unified
 525              		.thumb
 526              		.thumb_func
 528              	HAL_SuspendTick:
 529              	.LFB246:
ARM GAS  /var/folders/0z/tsy30v1j4xl4_7kw94k978ww0000gn/T//ccE3WcSy.s 			page 18


 404:Drivers/STM32F4xx_HAL_Driver/Src/stm32f4xx_hal.c **** 
 405:Drivers/STM32F4xx_HAL_Driver/Src/stm32f4xx_hal.c **** /**
 406:Drivers/STM32F4xx_HAL_Driver/Src/stm32f4xx_hal.c ****   * @brief Suspend Tick increment.
 407:Drivers/STM32F4xx_HAL_Driver/Src/stm32f4xx_hal.c ****   * @note In the default implementation , SysTick timer is the source of time base. It is
 408:Drivers/STM32F4xx_HAL_Driver/Src/stm32f4xx_hal.c ****   *       used to generate interrupts at regular time intervals. Once HAL_SuspendTick()
 409:Drivers/STM32F4xx_HAL_Driver/Src/stm32f4xx_hal.c ****   *       is called, the SysTick interrupt will be disabled and so Tick increment 
 410:Drivers/STM32F4xx_HAL_Driver/Src/stm32f4xx_hal.c ****   *       is suspended.
 411:Drivers/STM32F4xx_HAL_Driver/Src/stm32f4xx_hal.c ****   * @note This function is declared as __weak to be overwritten in case of other
 412:Drivers/STM32F4xx_HAL_Driver/Src/stm32f4xx_hal.c ****   *       implementations in user file.
 413:Drivers/STM32F4xx_HAL_Driver/Src/stm32f4xx_hal.c ****   * @retval None
 414:Drivers/STM32F4xx_HAL_Driver/Src/stm32f4xx_hal.c ****   */
 415:Drivers/STM32F4xx_HAL_Driver/Src/stm32f4xx_hal.c **** __weak void HAL_SuspendTick(void)
 416:Drivers/STM32F4xx_HAL_Driver/Src/stm32f4xx_hal.c **** {
 530              		.loc 1 416 1 is_stmt 1 view -0
 531              		.cfi_startproc
 532              		@ args = 0, pretend = 0, frame = 0
 533              		@ frame_needed = 0, uses_anonymous_args = 0
 534              		@ link register save eliminated.
 417:Drivers/STM32F4xx_HAL_Driver/Src/stm32f4xx_hal.c ****   /* Disable SysTick Interrupt */
 418:Drivers/STM32F4xx_HAL_Driver/Src/stm32f4xx_hal.c ****   SysTick->CTRL &= ~SysTick_CTRL_TICKINT_Msk;
 535              		.loc 1 418 3 view .LVU118
 536              		.loc 1 418 17 is_stmt 0 view .LVU119
 537 0000 4FF0E022 		mov	r2, #-536813568
 538 0004 1369     		ldr	r3, [r2, #16]
 539 0006 23F00203 		bic	r3, r3, #2
 540 000a 1361     		str	r3, [r2, #16]
 419:Drivers/STM32F4xx_HAL_Driver/Src/stm32f4xx_hal.c **** }
 541              		.loc 1 419 1 view .LVU120
 542 000c 7047     		bx	lr
 543              		.cfi_endproc
 544              	.LFE246:
 546 000e 00BF     		.section	.text.HAL_ResumeTick,"ax",%progbits
 547              		.align	1
 548              		.p2align 2,,3
 549              		.weak	HAL_ResumeTick
 550              		.syntax unified
 551              		.thumb
 552              		.thumb_func
 554              	HAL_ResumeTick:
 555              	.LFB247:
 420:Drivers/STM32F4xx_HAL_Driver/Src/stm32f4xx_hal.c **** 
 421:Drivers/STM32F4xx_HAL_Driver/Src/stm32f4xx_hal.c **** /**
 422:Drivers/STM32F4xx_HAL_Driver/Src/stm32f4xx_hal.c ****   * @brief Resume Tick increment.
 423:Drivers/STM32F4xx_HAL_Driver/Src/stm32f4xx_hal.c ****   * @note In the default implementation , SysTick timer is the source of time base. It is
 424:Drivers/STM32F4xx_HAL_Driver/Src/stm32f4xx_hal.c ****   *       used to generate interrupts at regular time intervals. Once HAL_ResumeTick()
 425:Drivers/STM32F4xx_HAL_Driver/Src/stm32f4xx_hal.c ****   *       is called, the SysTick interrupt will be enabled and so Tick increment 
 426:Drivers/STM32F4xx_HAL_Driver/Src/stm32f4xx_hal.c ****   *       is resumed.
 427:Drivers/STM32F4xx_HAL_Driver/Src/stm32f4xx_hal.c ****   * @note This function is declared as __weak to be overwritten in case of other
 428:Drivers/STM32F4xx_HAL_Driver/Src/stm32f4xx_hal.c ****   *       implementations in user file.
 429:Drivers/STM32F4xx_HAL_Driver/Src/stm32f4xx_hal.c ****   * @retval None
 430:Drivers/STM32F4xx_HAL_Driver/Src/stm32f4xx_hal.c ****   */
 431:Drivers/STM32F4xx_HAL_Driver/Src/stm32f4xx_hal.c **** __weak void HAL_ResumeTick(void)
 432:Drivers/STM32F4xx_HAL_Driver/Src/stm32f4xx_hal.c **** {
 556              		.loc 1 432 1 is_stmt 1 view -0
 557              		.cfi_startproc
 558              		@ args = 0, pretend = 0, frame = 0
 559              		@ frame_needed = 0, uses_anonymous_args = 0
ARM GAS  /var/folders/0z/tsy30v1j4xl4_7kw94k978ww0000gn/T//ccE3WcSy.s 			page 19


 560              		@ link register save eliminated.
 433:Drivers/STM32F4xx_HAL_Driver/Src/stm32f4xx_hal.c ****   /* Enable SysTick Interrupt */
 434:Drivers/STM32F4xx_HAL_Driver/Src/stm32f4xx_hal.c ****   SysTick->CTRL  |= SysTick_CTRL_TICKINT_Msk;
 561              		.loc 1 434 3 view .LVU122
 562              		.loc 1 434 18 is_stmt 0 view .LVU123
 563 0000 4FF0E022 		mov	r2, #-536813568
 564 0004 1369     		ldr	r3, [r2, #16]
 565 0006 43F00203 		orr	r3, r3, #2
 566 000a 1361     		str	r3, [r2, #16]
 435:Drivers/STM32F4xx_HAL_Driver/Src/stm32f4xx_hal.c **** }
 567              		.loc 1 435 1 view .LVU124
 568 000c 7047     		bx	lr
 569              		.cfi_endproc
 570              	.LFE247:
 572 000e 00BF     		.section	.text.HAL_GetHalVersion,"ax",%progbits
 573              		.align	1
 574              		.p2align 2,,3
 575              		.global	HAL_GetHalVersion
 576              		.syntax unified
 577              		.thumb
 578              		.thumb_func
 580              	HAL_GetHalVersion:
 581              	.LFB248:
 436:Drivers/STM32F4xx_HAL_Driver/Src/stm32f4xx_hal.c **** 
 437:Drivers/STM32F4xx_HAL_Driver/Src/stm32f4xx_hal.c **** /**
 438:Drivers/STM32F4xx_HAL_Driver/Src/stm32f4xx_hal.c ****   * @brief  Returns the HAL revision
 439:Drivers/STM32F4xx_HAL_Driver/Src/stm32f4xx_hal.c ****   * @retval version : 0xXYZR (8bits for each decimal, R for RC)
 440:Drivers/STM32F4xx_HAL_Driver/Src/stm32f4xx_hal.c ****   */
 441:Drivers/STM32F4xx_HAL_Driver/Src/stm32f4xx_hal.c **** uint32_t HAL_GetHalVersion(void)
 442:Drivers/STM32F4xx_HAL_Driver/Src/stm32f4xx_hal.c **** {
 582              		.loc 1 442 1 is_stmt 1 view -0
 583              		.cfi_startproc
 584              		@ args = 0, pretend = 0, frame = 0
 585              		@ frame_needed = 0, uses_anonymous_args = 0
 586              		@ link register save eliminated.
 443:Drivers/STM32F4xx_HAL_Driver/Src/stm32f4xx_hal.c ****   return __STM32F4xx_HAL_VERSION;
 587              		.loc 1 443 3 view .LVU126
 444:Drivers/STM32F4xx_HAL_Driver/Src/stm32f4xx_hal.c **** }
 588              		.loc 1 444 1 is_stmt 0 view .LVU127
 589 0000 0048     		ldr	r0, .L55
 590 0002 7047     		bx	lr
 591              	.L56:
 592              		.align	2
 593              	.L55:
 594 0004 00010801 		.word	17301760
 595              		.cfi_endproc
 596              	.LFE248:
 598              		.section	.text.HAL_GetREVID,"ax",%progbits
 599              		.align	1
 600              		.p2align 2,,3
 601              		.global	HAL_GetREVID
 602              		.syntax unified
 603              		.thumb
 604              		.thumb_func
 606              	HAL_GetREVID:
 607              	.LFB249:
 445:Drivers/STM32F4xx_HAL_Driver/Src/stm32f4xx_hal.c **** 
ARM GAS  /var/folders/0z/tsy30v1j4xl4_7kw94k978ww0000gn/T//ccE3WcSy.s 			page 20


 446:Drivers/STM32F4xx_HAL_Driver/Src/stm32f4xx_hal.c **** /**
 447:Drivers/STM32F4xx_HAL_Driver/Src/stm32f4xx_hal.c ****   * @brief  Returns the device revision identifier.
 448:Drivers/STM32F4xx_HAL_Driver/Src/stm32f4xx_hal.c ****   * @retval Device revision identifier
 449:Drivers/STM32F4xx_HAL_Driver/Src/stm32f4xx_hal.c ****   */
 450:Drivers/STM32F4xx_HAL_Driver/Src/stm32f4xx_hal.c **** uint32_t HAL_GetREVID(void)
 451:Drivers/STM32F4xx_HAL_Driver/Src/stm32f4xx_hal.c **** {
 608              		.loc 1 451 1 is_stmt 1 view -0
 609              		.cfi_startproc
 610              		@ args = 0, pretend = 0, frame = 0
 611              		@ frame_needed = 0, uses_anonymous_args = 0
 612              		@ link register save eliminated.
 452:Drivers/STM32F4xx_HAL_Driver/Src/stm32f4xx_hal.c ****   return((DBGMCU->IDCODE) >> 16U);
 613              		.loc 1 452 3 view .LVU129
 614              		.loc 1 452 17 is_stmt 0 view .LVU130
 615 0000 014B     		ldr	r3, .L58
 616 0002 1868     		ldr	r0, [r3]
 453:Drivers/STM32F4xx_HAL_Driver/Src/stm32f4xx_hal.c **** }
 617              		.loc 1 453 1 view .LVU131
 618 0004 000C     		lsrs	r0, r0, #16
 619 0006 7047     		bx	lr
 620              	.L59:
 621              		.align	2
 622              	.L58:
 623 0008 002004E0 		.word	-536600576
 624              		.cfi_endproc
 625              	.LFE249:
 627              		.section	.text.HAL_GetDEVID,"ax",%progbits
 628              		.align	1
 629              		.p2align 2,,3
 630              		.global	HAL_GetDEVID
 631              		.syntax unified
 632              		.thumb
 633              		.thumb_func
 635              	HAL_GetDEVID:
 636              	.LFB250:
 454:Drivers/STM32F4xx_HAL_Driver/Src/stm32f4xx_hal.c **** 
 455:Drivers/STM32F4xx_HAL_Driver/Src/stm32f4xx_hal.c **** /**
 456:Drivers/STM32F4xx_HAL_Driver/Src/stm32f4xx_hal.c ****   * @brief  Returns the device identifier.
 457:Drivers/STM32F4xx_HAL_Driver/Src/stm32f4xx_hal.c ****   * @retval Device identifier
 458:Drivers/STM32F4xx_HAL_Driver/Src/stm32f4xx_hal.c ****   */
 459:Drivers/STM32F4xx_HAL_Driver/Src/stm32f4xx_hal.c **** uint32_t HAL_GetDEVID(void)
 460:Drivers/STM32F4xx_HAL_Driver/Src/stm32f4xx_hal.c **** {
 637              		.loc 1 460 1 is_stmt 1 view -0
 638              		.cfi_startproc
 639              		@ args = 0, pretend = 0, frame = 0
 640              		@ frame_needed = 0, uses_anonymous_args = 0
 641              		@ link register save eliminated.
 461:Drivers/STM32F4xx_HAL_Driver/Src/stm32f4xx_hal.c ****   return((DBGMCU->IDCODE) & IDCODE_DEVID_MASK);
 642              		.loc 1 461 3 view .LVU133
 643              		.loc 1 461 17 is_stmt 0 view .LVU134
 644 0000 024B     		ldr	r3, .L61
 645 0002 1868     		ldr	r0, [r3]
 462:Drivers/STM32F4xx_HAL_Driver/Src/stm32f4xx_hal.c **** }
 646              		.loc 1 462 1 view .LVU135
 647 0004 C0F30B00 		ubfx	r0, r0, #0, #12
 648 0008 7047     		bx	lr
 649              	.L62:
ARM GAS  /var/folders/0z/tsy30v1j4xl4_7kw94k978ww0000gn/T//ccE3WcSy.s 			page 21


 650 000a 00BF     		.align	2
 651              	.L61:
 652 000c 002004E0 		.word	-536600576
 653              		.cfi_endproc
 654              	.LFE250:
 656              		.section	.text.HAL_DBGMCU_EnableDBGSleepMode,"ax",%progbits
 657              		.align	1
 658              		.p2align 2,,3
 659              		.global	HAL_DBGMCU_EnableDBGSleepMode
 660              		.syntax unified
 661              		.thumb
 662              		.thumb_func
 664              	HAL_DBGMCU_EnableDBGSleepMode:
 665              	.LFB251:
 463:Drivers/STM32F4xx_HAL_Driver/Src/stm32f4xx_hal.c **** 
 464:Drivers/STM32F4xx_HAL_Driver/Src/stm32f4xx_hal.c **** /**
 465:Drivers/STM32F4xx_HAL_Driver/Src/stm32f4xx_hal.c ****   * @brief  Enable the Debug Module during SLEEP mode
 466:Drivers/STM32F4xx_HAL_Driver/Src/stm32f4xx_hal.c ****   * @retval None
 467:Drivers/STM32F4xx_HAL_Driver/Src/stm32f4xx_hal.c ****   */
 468:Drivers/STM32F4xx_HAL_Driver/Src/stm32f4xx_hal.c **** void HAL_DBGMCU_EnableDBGSleepMode(void)
 469:Drivers/STM32F4xx_HAL_Driver/Src/stm32f4xx_hal.c **** {
 666              		.loc 1 469 1 is_stmt 1 view -0
 667              		.cfi_startproc
 668              		@ args = 0, pretend = 0, frame = 0
 669              		@ frame_needed = 0, uses_anonymous_args = 0
 670              		@ link register save eliminated.
 470:Drivers/STM32F4xx_HAL_Driver/Src/stm32f4xx_hal.c ****   SET_BIT(DBGMCU->CR, DBGMCU_CR_DBG_SLEEP);
 671              		.loc 1 470 3 view .LVU137
 672 0000 024A     		ldr	r2, .L64
 673 0002 5368     		ldr	r3, [r2, #4]
 674 0004 43F00103 		orr	r3, r3, #1
 675 0008 5360     		str	r3, [r2, #4]
 471:Drivers/STM32F4xx_HAL_Driver/Src/stm32f4xx_hal.c **** }
 676              		.loc 1 471 1 is_stmt 0 view .LVU138
 677 000a 7047     		bx	lr
 678              	.L65:
 679              		.align	2
 680              	.L64:
 681 000c 002004E0 		.word	-536600576
 682              		.cfi_endproc
 683              	.LFE251:
 685              		.section	.text.HAL_DBGMCU_DisableDBGSleepMode,"ax",%progbits
 686              		.align	1
 687              		.p2align 2,,3
 688              		.global	HAL_DBGMCU_DisableDBGSleepMode
 689              		.syntax unified
 690              		.thumb
 691              		.thumb_func
 693              	HAL_DBGMCU_DisableDBGSleepMode:
 694              	.LFB252:
 472:Drivers/STM32F4xx_HAL_Driver/Src/stm32f4xx_hal.c **** 
 473:Drivers/STM32F4xx_HAL_Driver/Src/stm32f4xx_hal.c **** /**
 474:Drivers/STM32F4xx_HAL_Driver/Src/stm32f4xx_hal.c ****   * @brief  Disable the Debug Module during SLEEP mode
 475:Drivers/STM32F4xx_HAL_Driver/Src/stm32f4xx_hal.c ****   * @retval None
 476:Drivers/STM32F4xx_HAL_Driver/Src/stm32f4xx_hal.c ****   */
 477:Drivers/STM32F4xx_HAL_Driver/Src/stm32f4xx_hal.c **** void HAL_DBGMCU_DisableDBGSleepMode(void)
 478:Drivers/STM32F4xx_HAL_Driver/Src/stm32f4xx_hal.c **** {
ARM GAS  /var/folders/0z/tsy30v1j4xl4_7kw94k978ww0000gn/T//ccE3WcSy.s 			page 22


 695              		.loc 1 478 1 is_stmt 1 view -0
 696              		.cfi_startproc
 697              		@ args = 0, pretend = 0, frame = 0
 698              		@ frame_needed = 0, uses_anonymous_args = 0
 699              		@ link register save eliminated.
 479:Drivers/STM32F4xx_HAL_Driver/Src/stm32f4xx_hal.c ****   CLEAR_BIT(DBGMCU->CR, DBGMCU_CR_DBG_SLEEP);
 700              		.loc 1 479 3 view .LVU140
 701 0000 024A     		ldr	r2, .L67
 702 0002 5368     		ldr	r3, [r2, #4]
 703 0004 23F00103 		bic	r3, r3, #1
 704 0008 5360     		str	r3, [r2, #4]
 480:Drivers/STM32F4xx_HAL_Driver/Src/stm32f4xx_hal.c **** }
 705              		.loc 1 480 1 is_stmt 0 view .LVU141
 706 000a 7047     		bx	lr
 707              	.L68:
 708              		.align	2
 709              	.L67:
 710 000c 002004E0 		.word	-536600576
 711              		.cfi_endproc
 712              	.LFE252:
 714              		.section	.text.HAL_DBGMCU_EnableDBGStopMode,"ax",%progbits
 715              		.align	1
 716              		.p2align 2,,3
 717              		.global	HAL_DBGMCU_EnableDBGStopMode
 718              		.syntax unified
 719              		.thumb
 720              		.thumb_func
 722              	HAL_DBGMCU_EnableDBGStopMode:
 723              	.LFB253:
 481:Drivers/STM32F4xx_HAL_Driver/Src/stm32f4xx_hal.c **** 
 482:Drivers/STM32F4xx_HAL_Driver/Src/stm32f4xx_hal.c **** /**
 483:Drivers/STM32F4xx_HAL_Driver/Src/stm32f4xx_hal.c ****   * @brief  Enable the Debug Module during STOP mode
 484:Drivers/STM32F4xx_HAL_Driver/Src/stm32f4xx_hal.c ****   * @retval None
 485:Drivers/STM32F4xx_HAL_Driver/Src/stm32f4xx_hal.c ****   */
 486:Drivers/STM32F4xx_HAL_Driver/Src/stm32f4xx_hal.c **** void HAL_DBGMCU_EnableDBGStopMode(void)
 487:Drivers/STM32F4xx_HAL_Driver/Src/stm32f4xx_hal.c **** {
 724              		.loc 1 487 1 is_stmt 1 view -0
 725              		.cfi_startproc
 726              		@ args = 0, pretend = 0, frame = 0
 727              		@ frame_needed = 0, uses_anonymous_args = 0
 728              		@ link register save eliminated.
 488:Drivers/STM32F4xx_HAL_Driver/Src/stm32f4xx_hal.c ****   SET_BIT(DBGMCU->CR, DBGMCU_CR_DBG_STOP);
 729              		.loc 1 488 3 view .LVU143
 730 0000 024A     		ldr	r2, .L70
 731 0002 5368     		ldr	r3, [r2, #4]
 732 0004 43F00203 		orr	r3, r3, #2
 733 0008 5360     		str	r3, [r2, #4]
 489:Drivers/STM32F4xx_HAL_Driver/Src/stm32f4xx_hal.c **** }
 734              		.loc 1 489 1 is_stmt 0 view .LVU144
 735 000a 7047     		bx	lr
 736              	.L71:
 737              		.align	2
 738              	.L70:
 739 000c 002004E0 		.word	-536600576
 740              		.cfi_endproc
 741              	.LFE253:
 743              		.section	.text.HAL_DBGMCU_DisableDBGStopMode,"ax",%progbits
ARM GAS  /var/folders/0z/tsy30v1j4xl4_7kw94k978ww0000gn/T//ccE3WcSy.s 			page 23


 744              		.align	1
 745              		.p2align 2,,3
 746              		.global	HAL_DBGMCU_DisableDBGStopMode
 747              		.syntax unified
 748              		.thumb
 749              		.thumb_func
 751              	HAL_DBGMCU_DisableDBGStopMode:
 752              	.LFB254:
 490:Drivers/STM32F4xx_HAL_Driver/Src/stm32f4xx_hal.c **** 
 491:Drivers/STM32F4xx_HAL_Driver/Src/stm32f4xx_hal.c **** /**
 492:Drivers/STM32F4xx_HAL_Driver/Src/stm32f4xx_hal.c ****   * @brief  Disable the Debug Module during STOP mode
 493:Drivers/STM32F4xx_HAL_Driver/Src/stm32f4xx_hal.c ****   * @retval None
 494:Drivers/STM32F4xx_HAL_Driver/Src/stm32f4xx_hal.c ****   */
 495:Drivers/STM32F4xx_HAL_Driver/Src/stm32f4xx_hal.c **** void HAL_DBGMCU_DisableDBGStopMode(void)
 496:Drivers/STM32F4xx_HAL_Driver/Src/stm32f4xx_hal.c **** {
 753              		.loc 1 496 1 is_stmt 1 view -0
 754              		.cfi_startproc
 755              		@ args = 0, pretend = 0, frame = 0
 756              		@ frame_needed = 0, uses_anonymous_args = 0
 757              		@ link register save eliminated.
 497:Drivers/STM32F4xx_HAL_Driver/Src/stm32f4xx_hal.c ****   CLEAR_BIT(DBGMCU->CR, DBGMCU_CR_DBG_STOP);
 758              		.loc 1 497 3 view .LVU146
 759 0000 024A     		ldr	r2, .L73
 760 0002 5368     		ldr	r3, [r2, #4]
 761 0004 23F00203 		bic	r3, r3, #2
 762 0008 5360     		str	r3, [r2, #4]
 498:Drivers/STM32F4xx_HAL_Driver/Src/stm32f4xx_hal.c **** }
 763              		.loc 1 498 1 is_stmt 0 view .LVU147
 764 000a 7047     		bx	lr
 765              	.L74:
 766              		.align	2
 767              	.L73:
 768 000c 002004E0 		.word	-536600576
 769              		.cfi_endproc
 770              	.LFE254:
 772              		.section	.text.HAL_DBGMCU_EnableDBGStandbyMode,"ax",%progbits
 773              		.align	1
 774              		.p2align 2,,3
 775              		.global	HAL_DBGMCU_EnableDBGStandbyMode
 776              		.syntax unified
 777              		.thumb
 778              		.thumb_func
 780              	HAL_DBGMCU_EnableDBGStandbyMode:
 781              	.LFB255:
 499:Drivers/STM32F4xx_HAL_Driver/Src/stm32f4xx_hal.c **** 
 500:Drivers/STM32F4xx_HAL_Driver/Src/stm32f4xx_hal.c **** /**
 501:Drivers/STM32F4xx_HAL_Driver/Src/stm32f4xx_hal.c ****   * @brief  Enable the Debug Module during STANDBY mode
 502:Drivers/STM32F4xx_HAL_Driver/Src/stm32f4xx_hal.c ****   * @retval None
 503:Drivers/STM32F4xx_HAL_Driver/Src/stm32f4xx_hal.c ****   */
 504:Drivers/STM32F4xx_HAL_Driver/Src/stm32f4xx_hal.c **** void HAL_DBGMCU_EnableDBGStandbyMode(void)
 505:Drivers/STM32F4xx_HAL_Driver/Src/stm32f4xx_hal.c **** {
 782              		.loc 1 505 1 is_stmt 1 view -0
 783              		.cfi_startproc
 784              		@ args = 0, pretend = 0, frame = 0
 785              		@ frame_needed = 0, uses_anonymous_args = 0
 786              		@ link register save eliminated.
 506:Drivers/STM32F4xx_HAL_Driver/Src/stm32f4xx_hal.c ****   SET_BIT(DBGMCU->CR, DBGMCU_CR_DBG_STANDBY);
ARM GAS  /var/folders/0z/tsy30v1j4xl4_7kw94k978ww0000gn/T//ccE3WcSy.s 			page 24


 787              		.loc 1 506 3 view .LVU149
 788 0000 024A     		ldr	r2, .L76
 789 0002 5368     		ldr	r3, [r2, #4]
 790 0004 43F00403 		orr	r3, r3, #4
 791 0008 5360     		str	r3, [r2, #4]
 507:Drivers/STM32F4xx_HAL_Driver/Src/stm32f4xx_hal.c **** }
 792              		.loc 1 507 1 is_stmt 0 view .LVU150
 793 000a 7047     		bx	lr
 794              	.L77:
 795              		.align	2
 796              	.L76:
 797 000c 002004E0 		.word	-536600576
 798              		.cfi_endproc
 799              	.LFE255:
 801              		.section	.text.HAL_DBGMCU_DisableDBGStandbyMode,"ax",%progbits
 802              		.align	1
 803              		.p2align 2,,3
 804              		.global	HAL_DBGMCU_DisableDBGStandbyMode
 805              		.syntax unified
 806              		.thumb
 807              		.thumb_func
 809              	HAL_DBGMCU_DisableDBGStandbyMode:
 810              	.LFB256:
 508:Drivers/STM32F4xx_HAL_Driver/Src/stm32f4xx_hal.c **** 
 509:Drivers/STM32F4xx_HAL_Driver/Src/stm32f4xx_hal.c **** /**
 510:Drivers/STM32F4xx_HAL_Driver/Src/stm32f4xx_hal.c ****   * @brief  Disable the Debug Module during STANDBY mode
 511:Drivers/STM32F4xx_HAL_Driver/Src/stm32f4xx_hal.c ****   * @retval None
 512:Drivers/STM32F4xx_HAL_Driver/Src/stm32f4xx_hal.c ****   */
 513:Drivers/STM32F4xx_HAL_Driver/Src/stm32f4xx_hal.c **** void HAL_DBGMCU_DisableDBGStandbyMode(void)
 514:Drivers/STM32F4xx_HAL_Driver/Src/stm32f4xx_hal.c **** {
 811              		.loc 1 514 1 is_stmt 1 view -0
 812              		.cfi_startproc
 813              		@ args = 0, pretend = 0, frame = 0
 814              		@ frame_needed = 0, uses_anonymous_args = 0
 815              		@ link register save eliminated.
 515:Drivers/STM32F4xx_HAL_Driver/Src/stm32f4xx_hal.c ****   CLEAR_BIT(DBGMCU->CR, DBGMCU_CR_DBG_STANDBY);
 816              		.loc 1 515 3 view .LVU152
 817 0000 024A     		ldr	r2, .L79
 818 0002 5368     		ldr	r3, [r2, #4]
 819 0004 23F00403 		bic	r3, r3, #4
 820 0008 5360     		str	r3, [r2, #4]
 516:Drivers/STM32F4xx_HAL_Driver/Src/stm32f4xx_hal.c **** }
 821              		.loc 1 516 1 is_stmt 0 view .LVU153
 822 000a 7047     		bx	lr
 823              	.L80:
 824              		.align	2
 825              	.L79:
 826 000c 002004E0 		.word	-536600576
 827              		.cfi_endproc
 828              	.LFE256:
 830              		.section	.text.HAL_EnableCompensationCell,"ax",%progbits
 831              		.align	1
 832              		.p2align 2,,3
 833              		.global	HAL_EnableCompensationCell
 834              		.syntax unified
 835              		.thumb
 836              		.thumb_func
ARM GAS  /var/folders/0z/tsy30v1j4xl4_7kw94k978ww0000gn/T//ccE3WcSy.s 			page 25


 838              	HAL_EnableCompensationCell:
 839              	.LFB257:
 517:Drivers/STM32F4xx_HAL_Driver/Src/stm32f4xx_hal.c **** 
 518:Drivers/STM32F4xx_HAL_Driver/Src/stm32f4xx_hal.c **** /**
 519:Drivers/STM32F4xx_HAL_Driver/Src/stm32f4xx_hal.c ****   * @brief  Enables the I/O Compensation Cell.
 520:Drivers/STM32F4xx_HAL_Driver/Src/stm32f4xx_hal.c ****   * @note   The I/O compensation cell can be used only when the device supply
 521:Drivers/STM32F4xx_HAL_Driver/Src/stm32f4xx_hal.c ****   *         voltage ranges from 2.4 to 3.6 V.  
 522:Drivers/STM32F4xx_HAL_Driver/Src/stm32f4xx_hal.c ****   * @retval None
 523:Drivers/STM32F4xx_HAL_Driver/Src/stm32f4xx_hal.c ****   */
 524:Drivers/STM32F4xx_HAL_Driver/Src/stm32f4xx_hal.c **** void HAL_EnableCompensationCell(void)
 525:Drivers/STM32F4xx_HAL_Driver/Src/stm32f4xx_hal.c **** {
 840              		.loc 1 525 1 is_stmt 1 view -0
 841              		.cfi_startproc
 842              		@ args = 0, pretend = 0, frame = 0
 843              		@ frame_needed = 0, uses_anonymous_args = 0
 844              		@ link register save eliminated.
 526:Drivers/STM32F4xx_HAL_Driver/Src/stm32f4xx_hal.c ****   *(__IO uint32_t *)CMPCR_CMP_PD_BB = (uint32_t)ENABLE;
 845              		.loc 1 526 3 view .LVU155
 846              		.loc 1 526 37 is_stmt 0 view .LVU156
 847 0000 024B     		ldr	r3, .L82
 848 0002 0122     		movs	r2, #1
 849 0004 C3F80024 		str	r2, [r3, #1024]
 527:Drivers/STM32F4xx_HAL_Driver/Src/stm32f4xx_hal.c **** }
 850              		.loc 1 527 1 view .LVU157
 851 0008 7047     		bx	lr
 852              	.L83:
 853 000a 00BF     		.align	2
 854              	.L82:
 855 000c 00002742 		.word	1109852160
 856              		.cfi_endproc
 857              	.LFE257:
 859              		.section	.text.HAL_DisableCompensationCell,"ax",%progbits
 860              		.align	1
 861              		.p2align 2,,3
 862              		.global	HAL_DisableCompensationCell
 863              		.syntax unified
 864              		.thumb
 865              		.thumb_func
 867              	HAL_DisableCompensationCell:
 868              	.LFB258:
 528:Drivers/STM32F4xx_HAL_Driver/Src/stm32f4xx_hal.c **** 
 529:Drivers/STM32F4xx_HAL_Driver/Src/stm32f4xx_hal.c **** /**
 530:Drivers/STM32F4xx_HAL_Driver/Src/stm32f4xx_hal.c ****   * @brief  Power-down the I/O Compensation Cell.
 531:Drivers/STM32F4xx_HAL_Driver/Src/stm32f4xx_hal.c ****   * @note   The I/O compensation cell can be used only when the device supply
 532:Drivers/STM32F4xx_HAL_Driver/Src/stm32f4xx_hal.c ****   *         voltage ranges from 2.4 to 3.6 V.  
 533:Drivers/STM32F4xx_HAL_Driver/Src/stm32f4xx_hal.c ****   * @retval None
 534:Drivers/STM32F4xx_HAL_Driver/Src/stm32f4xx_hal.c ****   */
 535:Drivers/STM32F4xx_HAL_Driver/Src/stm32f4xx_hal.c **** void HAL_DisableCompensationCell(void)
 536:Drivers/STM32F4xx_HAL_Driver/Src/stm32f4xx_hal.c **** {
 869              		.loc 1 536 1 is_stmt 1 view -0
 870              		.cfi_startproc
 871              		@ args = 0, pretend = 0, frame = 0
 872              		@ frame_needed = 0, uses_anonymous_args = 0
 873              		@ link register save eliminated.
 537:Drivers/STM32F4xx_HAL_Driver/Src/stm32f4xx_hal.c ****   *(__IO uint32_t *)CMPCR_CMP_PD_BB = (uint32_t)DISABLE;
 874              		.loc 1 537 3 view .LVU159
 875              		.loc 1 537 37 is_stmt 0 view .LVU160
ARM GAS  /var/folders/0z/tsy30v1j4xl4_7kw94k978ww0000gn/T//ccE3WcSy.s 			page 26


 876 0000 024B     		ldr	r3, .L85
 877 0002 0022     		movs	r2, #0
 878 0004 C3F80024 		str	r2, [r3, #1024]
 538:Drivers/STM32F4xx_HAL_Driver/Src/stm32f4xx_hal.c **** }
 879              		.loc 1 538 1 view .LVU161
 880 0008 7047     		bx	lr
 881              	.L86:
 882 000a 00BF     		.align	2
 883              	.L85:
 884 000c 00002742 		.word	1109852160
 885              		.cfi_endproc
 886              	.LFE258:
 888              		.section	.text.HAL_GetUIDw0,"ax",%progbits
 889              		.align	1
 890              		.p2align 2,,3
 891              		.global	HAL_GetUIDw0
 892              		.syntax unified
 893              		.thumb
 894              		.thumb_func
 896              	HAL_GetUIDw0:
 897              	.LFB259:
 539:Drivers/STM32F4xx_HAL_Driver/Src/stm32f4xx_hal.c **** 
 540:Drivers/STM32F4xx_HAL_Driver/Src/stm32f4xx_hal.c **** /**
 541:Drivers/STM32F4xx_HAL_Driver/Src/stm32f4xx_hal.c ****   * @brief  Returns first word of the unique device identifier (UID based on 96 bits)
 542:Drivers/STM32F4xx_HAL_Driver/Src/stm32f4xx_hal.c ****   * @retval Device identifier
 543:Drivers/STM32F4xx_HAL_Driver/Src/stm32f4xx_hal.c ****   */
 544:Drivers/STM32F4xx_HAL_Driver/Src/stm32f4xx_hal.c **** uint32_t HAL_GetUIDw0(void)
 545:Drivers/STM32F4xx_HAL_Driver/Src/stm32f4xx_hal.c **** {
 898              		.loc 1 545 1 is_stmt 1 view -0
 899              		.cfi_startproc
 900              		@ args = 0, pretend = 0, frame = 0
 901              		@ frame_needed = 0, uses_anonymous_args = 0
 902              		@ link register save eliminated.
 546:Drivers/STM32F4xx_HAL_Driver/Src/stm32f4xx_hal.c ****   return (READ_REG(*((uint32_t *)UID_BASE)));
 903              		.loc 1 546 3 view .LVU163
 904              		.loc 1 546 11 is_stmt 0 view .LVU164
 905 0000 014B     		ldr	r3, .L88
 547:Drivers/STM32F4xx_HAL_Driver/Src/stm32f4xx_hal.c **** }
 906              		.loc 1 547 1 view .LVU165
 907 0002 D3F8100A 		ldr	r0, [r3, #2576]
 908 0006 7047     		bx	lr
 909              	.L89:
 910              		.align	2
 911              	.L88:
 912 0008 0070FF1F 		.word	536834048
 913              		.cfi_endproc
 914              	.LFE259:
 916              		.section	.text.HAL_GetUIDw1,"ax",%progbits
 917              		.align	1
 918              		.p2align 2,,3
 919              		.global	HAL_GetUIDw1
 920              		.syntax unified
 921              		.thumb
 922              		.thumb_func
 924              	HAL_GetUIDw1:
 925              	.LFB260:
 548:Drivers/STM32F4xx_HAL_Driver/Src/stm32f4xx_hal.c **** 
ARM GAS  /var/folders/0z/tsy30v1j4xl4_7kw94k978ww0000gn/T//ccE3WcSy.s 			page 27


 549:Drivers/STM32F4xx_HAL_Driver/Src/stm32f4xx_hal.c **** /**
 550:Drivers/STM32F4xx_HAL_Driver/Src/stm32f4xx_hal.c ****   * @brief  Returns second word of the unique device identifier (UID based on 96 bits)
 551:Drivers/STM32F4xx_HAL_Driver/Src/stm32f4xx_hal.c ****   * @retval Device identifier
 552:Drivers/STM32F4xx_HAL_Driver/Src/stm32f4xx_hal.c ****   */
 553:Drivers/STM32F4xx_HAL_Driver/Src/stm32f4xx_hal.c **** uint32_t HAL_GetUIDw1(void)
 554:Drivers/STM32F4xx_HAL_Driver/Src/stm32f4xx_hal.c **** {
 926              		.loc 1 554 1 is_stmt 1 view -0
 927              		.cfi_startproc
 928              		@ args = 0, pretend = 0, frame = 0
 929              		@ frame_needed = 0, uses_anonymous_args = 0
 930              		@ link register save eliminated.
 555:Drivers/STM32F4xx_HAL_Driver/Src/stm32f4xx_hal.c ****   return (READ_REG(*((uint32_t *)(UID_BASE + 4U))));
 931              		.loc 1 555 3 view .LVU167
 932              		.loc 1 555 11 is_stmt 0 view .LVU168
 933 0000 014B     		ldr	r3, .L91
 556:Drivers/STM32F4xx_HAL_Driver/Src/stm32f4xx_hal.c **** }
 934              		.loc 1 556 1 view .LVU169
 935 0002 D3F8140A 		ldr	r0, [r3, #2580]
 936 0006 7047     		bx	lr
 937              	.L92:
 938              		.align	2
 939              	.L91:
 940 0008 0070FF1F 		.word	536834048
 941              		.cfi_endproc
 942              	.LFE260:
 944              		.section	.text.HAL_GetUIDw2,"ax",%progbits
 945              		.align	1
 946              		.p2align 2,,3
 947              		.global	HAL_GetUIDw2
 948              		.syntax unified
 949              		.thumb
 950              		.thumb_func
 952              	HAL_GetUIDw2:
 953              	.LFB261:
 557:Drivers/STM32F4xx_HAL_Driver/Src/stm32f4xx_hal.c **** 
 558:Drivers/STM32F4xx_HAL_Driver/Src/stm32f4xx_hal.c **** /**
 559:Drivers/STM32F4xx_HAL_Driver/Src/stm32f4xx_hal.c ****   * @brief  Returns third word of the unique device identifier (UID based on 96 bits)
 560:Drivers/STM32F4xx_HAL_Driver/Src/stm32f4xx_hal.c ****   * @retval Device identifier
 561:Drivers/STM32F4xx_HAL_Driver/Src/stm32f4xx_hal.c ****   */
 562:Drivers/STM32F4xx_HAL_Driver/Src/stm32f4xx_hal.c **** uint32_t HAL_GetUIDw2(void)
 563:Drivers/STM32F4xx_HAL_Driver/Src/stm32f4xx_hal.c **** {
 954              		.loc 1 563 1 is_stmt 1 view -0
 955              		.cfi_startproc
 956              		@ args = 0, pretend = 0, frame = 0
 957              		@ frame_needed = 0, uses_anonymous_args = 0
 958              		@ link register save eliminated.
 564:Drivers/STM32F4xx_HAL_Driver/Src/stm32f4xx_hal.c ****   return (READ_REG(*((uint32_t *)(UID_BASE + 8U))));
 959              		.loc 1 564 3 view .LVU171
 960              		.loc 1 564 11 is_stmt 0 view .LVU172
 961 0000 014B     		ldr	r3, .L94
 565:Drivers/STM32F4xx_HAL_Driver/Src/stm32f4xx_hal.c **** }
 962              		.loc 1 565 1 view .LVU173
 963 0002 D3F8180A 		ldr	r0, [r3, #2584]
 964 0006 7047     		bx	lr
 965              	.L95:
 966              		.align	2
 967              	.L94:
ARM GAS  /var/folders/0z/tsy30v1j4xl4_7kw94k978ww0000gn/T//ccE3WcSy.s 			page 28


 968 0008 0070FF1F 		.word	536834048
 969              		.cfi_endproc
 970              	.LFE261:
 972              		.global	uwTickFreq
 973              		.global	uwTickPrio
 974              		.global	uwTick
 975              		.section	.bss.uwTick,"aw",%nobits
 976              		.align	2
 977              		.set	.LANCHOR2,. + 0
 980              	uwTick:
 981 0000 00000000 		.space	4
 982              		.section	.data.uwTickFreq,"aw"
 983              		.set	.LANCHOR0,. + 0
 986              	uwTickFreq:
 987 0000 01       		.byte	1
 988              		.section	.data.uwTickPrio,"aw"
 989              		.align	2
 990              		.set	.LANCHOR1,. + 0
 993              	uwTickPrio:
 994 0000 10000000 		.word	16
 995              		.text
 996              	.Letext0:
 997              		.file 2 "Drivers/CMSIS/Device/ST/STM32F4xx/Include/stm32f407xx.h"
 998              		.file 3 "/Users/johannes/Library/Application Support/Code/User/globalStorage/bmd.stm32-for-vscode/
 999              		.file 4 "/Users/johannes/Library/Application Support/Code/User/globalStorage/bmd.stm32-for-vscode/
 1000              		.file 5 "Drivers/CMSIS/Include/core_cm4.h"
 1001              		.file 6 "Drivers/CMSIS/Device/ST/STM32F4xx/Include/stm32f4xx.h"
 1002              		.file 7 "Drivers/STM32F4xx_HAL_Driver/Inc/stm32f4xx_hal_def.h"
 1003              		.file 8 "Drivers/STM32F4xx_HAL_Driver/Inc/stm32f4xx_hal.h"
 1004              		.file 9 "Drivers/CMSIS/Device/ST/STM32F4xx/Include/system_stm32f4xx.h"
 1005              		.file 10 "Drivers/STM32F4xx_HAL_Driver/Inc/stm32f4xx_hal_cortex.h"
ARM GAS  /var/folders/0z/tsy30v1j4xl4_7kw94k978ww0000gn/T//ccE3WcSy.s 			page 29

