ARM GAS  /var/folders/0z/tsy30v1j4xl4_7kw94k978ww0000gn/T//cccg2137.s 			page 1


   1              		.cpu cortex-m4
   2              		.arch armv7e-m
   3              		.fpu fpv4-sp-d16
   4              		.eabi_attribute 27, 1
   5              		.eabi_attribute 28, 1
   6              		.eabi_attribute 20, 1
   7              		.eabi_attribute 21, 1
   8              		.eabi_attribute 23, 3
   9              		.eabi_attribute 24, 1
  10              		.eabi_attribute 25, 1
  11              		.eabi_attribute 26, 1
  12              		.eabi_attribute 30, 2
  13              		.eabi_attribute 34, 1
  14              		.eabi_attribute 18, 4
  15              		.file	"stm32f4xx_it.c"
  16              		.text
  17              	.Ltext0:
  18              		.cfi_sections	.debug_frame
  19              		.section	.text.NMI_Handler,"ax",%progbits
  20              		.align	1
  21              		.p2align 2,,3
  22              		.global	NMI_Handler
  23              		.syntax unified
  24              		.thumb
  25              		.thumb_func
  27              	NMI_Handler:
  28              	.LFB446:
  29              		.file 1 "Core/Src/stm32f4xx_it.c"
   1:Core/Src/stm32f4xx_it.c **** /* USER CODE BEGIN Header */
   2:Core/Src/stm32f4xx_it.c **** /**
   3:Core/Src/stm32f4xx_it.c ****   ******************************************************************************
   4:Core/Src/stm32f4xx_it.c ****   * @file    stm32f4xx_it.c
   5:Core/Src/stm32f4xx_it.c ****   * @brief   Interrupt Service Routines.
   6:Core/Src/stm32f4xx_it.c ****   ******************************************************************************
   7:Core/Src/stm32f4xx_it.c ****   * @attention
   8:Core/Src/stm32f4xx_it.c ****   *
   9:Core/Src/stm32f4xx_it.c ****   * Copyright (c) 2023 STMicroelectronics.
  10:Core/Src/stm32f4xx_it.c ****   * All rights reserved.
  11:Core/Src/stm32f4xx_it.c ****   *
  12:Core/Src/stm32f4xx_it.c ****   * This software is licensed under terms that can be found in the LICENSE file
  13:Core/Src/stm32f4xx_it.c ****   * in the root directory of this software component.
  14:Core/Src/stm32f4xx_it.c ****   * If no LICENSE file comes with this software, it is provided AS-IS.
  15:Core/Src/stm32f4xx_it.c ****   *
  16:Core/Src/stm32f4xx_it.c ****   ******************************************************************************
  17:Core/Src/stm32f4xx_it.c ****   */
  18:Core/Src/stm32f4xx_it.c **** /* USER CODE END Header */
  19:Core/Src/stm32f4xx_it.c **** 
  20:Core/Src/stm32f4xx_it.c **** /* Includes ------------------------------------------------------------------*/
  21:Core/Src/stm32f4xx_it.c **** #include "main.h"
  22:Core/Src/stm32f4xx_it.c **** #include "stm32f4xx_it.h"
  23:Core/Src/stm32f4xx_it.c **** /* Private includes ----------------------------------------------------------*/
  24:Core/Src/stm32f4xx_it.c **** /* USER CODE BEGIN Includes */
  25:Core/Src/stm32f4xx_it.c **** #include "lvgl.h"
  26:Core/Src/stm32f4xx_it.c **** #include "SEGGER_RTT.h"
  27:Core/Src/stm32f4xx_it.c **** #include "UI_hardware.h"
  28:Core/Src/stm32f4xx_it.c **** 
  29:Core/Src/stm32f4xx_it.c **** /* USER CODE END Includes */
ARM GAS  /var/folders/0z/tsy30v1j4xl4_7kw94k978ww0000gn/T//cccg2137.s 			page 2


  30:Core/Src/stm32f4xx_it.c **** 
  31:Core/Src/stm32f4xx_it.c **** /* Private typedef -----------------------------------------------------------*/
  32:Core/Src/stm32f4xx_it.c **** /* USER CODE BEGIN TD */
  33:Core/Src/stm32f4xx_it.c **** 
  34:Core/Src/stm32f4xx_it.c **** /* USER CODE END TD */
  35:Core/Src/stm32f4xx_it.c **** 
  36:Core/Src/stm32f4xx_it.c **** /* Private define ------------------------------------------------------------*/
  37:Core/Src/stm32f4xx_it.c **** /* USER CODE BEGIN PD */
  38:Core/Src/stm32f4xx_it.c **** 
  39:Core/Src/stm32f4xx_it.c **** /* USER CODE END PD */
  40:Core/Src/stm32f4xx_it.c **** 
  41:Core/Src/stm32f4xx_it.c **** /* Private macro -------------------------------------------------------------*/
  42:Core/Src/stm32f4xx_it.c **** /* USER CODE BEGIN PM */
  43:Core/Src/stm32f4xx_it.c **** 
  44:Core/Src/stm32f4xx_it.c **** /* USER CODE END PM */
  45:Core/Src/stm32f4xx_it.c **** 
  46:Core/Src/stm32f4xx_it.c **** /* Private variables ---------------------------------------------------------*/
  47:Core/Src/stm32f4xx_it.c **** /* USER CODE BEGIN PV */
  48:Core/Src/stm32f4xx_it.c **** 
  49:Core/Src/stm32f4xx_it.c **** /* USER CODE END PV */
  50:Core/Src/stm32f4xx_it.c **** 
  51:Core/Src/stm32f4xx_it.c **** /* Private function prototypes -----------------------------------------------*/
  52:Core/Src/stm32f4xx_it.c **** /* USER CODE BEGIN PFP */
  53:Core/Src/stm32f4xx_it.c **** 
  54:Core/Src/stm32f4xx_it.c **** /* USER CODE END PFP */
  55:Core/Src/stm32f4xx_it.c **** 
  56:Core/Src/stm32f4xx_it.c **** /* Private user code ---------------------------------------------------------*/
  57:Core/Src/stm32f4xx_it.c **** /* USER CODE BEGIN 0 */
  58:Core/Src/stm32f4xx_it.c **** 
  59:Core/Src/stm32f4xx_it.c **** /* USER CODE END 0 */
  60:Core/Src/stm32f4xx_it.c **** 
  61:Core/Src/stm32f4xx_it.c **** /* External variables --------------------------------------------------------*/
  62:Core/Src/stm32f4xx_it.c **** extern HCD_HandleTypeDef hHCD;
  63:Core/Src/stm32f4xx_it.c **** extern DMA_HandleTypeDef hdma_spi1_tx;
  64:Core/Src/stm32f4xx_it.c **** extern SPI_HandleTypeDef hspi1;
  65:Core/Src/stm32f4xx_it.c **** extern TIM_HandleTypeDef htim3;
  66:Core/Src/stm32f4xx_it.c **** 
  67:Core/Src/stm32f4xx_it.c **** // extern volatile uint16_t current_count;
  68:Core/Src/stm32f4xx_it.c **** // extern volatile uint16_t former_count;
  69:Core/Src/stm32f4xx_it.c **** /* USER CODE BEGIN EV */
  70:Core/Src/stm32f4xx_it.c **** 
  71:Core/Src/stm32f4xx_it.c **** /* USER CODE END EV */
  72:Core/Src/stm32f4xx_it.c **** 
  73:Core/Src/stm32f4xx_it.c **** /******************************************************************************/
  74:Core/Src/stm32f4xx_it.c **** /*           Cortex-M4 Processor Interruption and Exception Handlers          */
  75:Core/Src/stm32f4xx_it.c **** /******************************************************************************/
  76:Core/Src/stm32f4xx_it.c **** /**
  77:Core/Src/stm32f4xx_it.c ****   * @brief This function handles Non maskable interrupt.
  78:Core/Src/stm32f4xx_it.c ****   */
  79:Core/Src/stm32f4xx_it.c **** void NMI_Handler(void)
  80:Core/Src/stm32f4xx_it.c **** {
  30              		.loc 1 80 1 view -0
  31              		.cfi_startproc
  32              		@ Volatile: function does not return.
  33              		@ args = 0, pretend = 0, frame = 0
  34              		@ frame_needed = 0, uses_anonymous_args = 0
  35              		@ link register save eliminated.
ARM GAS  /var/folders/0z/tsy30v1j4xl4_7kw94k978ww0000gn/T//cccg2137.s 			page 3


  36              	.L2:
  81:Core/Src/stm32f4xx_it.c ****   /* USER CODE BEGIN NonMaskableInt_IRQn 0 */
  82:Core/Src/stm32f4xx_it.c **** 
  83:Core/Src/stm32f4xx_it.c ****   /* USER CODE END NonMaskableInt_IRQn 0 */
  84:Core/Src/stm32f4xx_it.c ****   /* USER CODE BEGIN NonMaskableInt_IRQn 1 */
  85:Core/Src/stm32f4xx_it.c ****   while (1)
  37              		.loc 1 85 3 discriminator 1 view .LVU1
  86:Core/Src/stm32f4xx_it.c ****   {
  87:Core/Src/stm32f4xx_it.c ****   }
  38              		.loc 1 87 3 discriminator 1 view .LVU2
  85:Core/Src/stm32f4xx_it.c ****   {
  39              		.loc 1 85 9 discriminator 1 view .LVU3
  40 0000 FEE7     		b	.L2
  41              		.cfi_endproc
  42              	.LFE446:
  44 0002 00BF     		.section	.text.HardFault_Handler,"ax",%progbits
  45              		.align	1
  46              		.p2align 2,,3
  47              		.global	HardFault_Handler
  48              		.syntax unified
  49              		.thumb
  50              		.thumb_func
  52              	HardFault_Handler:
  53              	.LFB447:
  88:Core/Src/stm32f4xx_it.c ****   /* USER CODE END NonMaskableInt_IRQn 1 */
  89:Core/Src/stm32f4xx_it.c **** }
  90:Core/Src/stm32f4xx_it.c **** 
  91:Core/Src/stm32f4xx_it.c **** /**
  92:Core/Src/stm32f4xx_it.c ****   * @brief This function handles Hard fault interrupt.
  93:Core/Src/stm32f4xx_it.c ****   */
  94:Core/Src/stm32f4xx_it.c **** void HardFault_Handler(void)
  95:Core/Src/stm32f4xx_it.c **** {
  54              		.loc 1 95 1 view -0
  55              		.cfi_startproc
  56              		@ Volatile: function does not return.
  57              		@ args = 0, pretend = 0, frame = 0
  58              		@ frame_needed = 0, uses_anonymous_args = 0
  59              		@ link register save eliminated.
  60              	.L5:
  96:Core/Src/stm32f4xx_it.c ****   /* USER CODE BEGIN HardFault_IRQn 0 */
  97:Core/Src/stm32f4xx_it.c **** 
  98:Core/Src/stm32f4xx_it.c ****   /* USER CODE END HardFault_IRQn 0 */
  99:Core/Src/stm32f4xx_it.c ****   while (1)
  61              		.loc 1 99 3 discriminator 1 view .LVU5
 100:Core/Src/stm32f4xx_it.c ****   {
 101:Core/Src/stm32f4xx_it.c ****     /* USER CODE BEGIN W1_HardFault_IRQn 0 */
 102:Core/Src/stm32f4xx_it.c ****     /* USER CODE END W1_HardFault_IRQn 0 */
 103:Core/Src/stm32f4xx_it.c ****   }
  62              		.loc 1 103 3 discriminator 1 view .LVU6
  99:Core/Src/stm32f4xx_it.c ****   {
  63              		.loc 1 99 9 discriminator 1 view .LVU7
  64 0000 FEE7     		b	.L5
  65              		.cfi_endproc
  66              	.LFE447:
  68 0002 00BF     		.section	.text.MemManage_Handler,"ax",%progbits
  69              		.align	1
  70              		.p2align 2,,3
ARM GAS  /var/folders/0z/tsy30v1j4xl4_7kw94k978ww0000gn/T//cccg2137.s 			page 4


  71              		.global	MemManage_Handler
  72              		.syntax unified
  73              		.thumb
  74              		.thumb_func
  76              	MemManage_Handler:
  77              	.LFB448:
 104:Core/Src/stm32f4xx_it.c **** }
 105:Core/Src/stm32f4xx_it.c **** 
 106:Core/Src/stm32f4xx_it.c **** /**
 107:Core/Src/stm32f4xx_it.c ****   * @brief This function handles Memory management fault.
 108:Core/Src/stm32f4xx_it.c ****   */
 109:Core/Src/stm32f4xx_it.c **** void MemManage_Handler(void)
 110:Core/Src/stm32f4xx_it.c **** {
  78              		.loc 1 110 1 view -0
  79              		.cfi_startproc
  80              		@ Volatile: function does not return.
  81              		@ args = 0, pretend = 0, frame = 0
  82              		@ frame_needed = 0, uses_anonymous_args = 0
  83              		@ link register save eliminated.
  84              	.L7:
 111:Core/Src/stm32f4xx_it.c ****   /* USER CODE BEGIN MemoryManagement_IRQn 0 */
 112:Core/Src/stm32f4xx_it.c **** 
 113:Core/Src/stm32f4xx_it.c ****   /* USER CODE END MemoryManagement_IRQn 0 */
 114:Core/Src/stm32f4xx_it.c ****   while (1)
  85              		.loc 1 114 3 discriminator 1 view .LVU9
 115:Core/Src/stm32f4xx_it.c ****   {
 116:Core/Src/stm32f4xx_it.c ****     /* USER CODE BEGIN W1_MemoryManagement_IRQn 0 */
 117:Core/Src/stm32f4xx_it.c ****     /* USER CODE END W1_MemoryManagement_IRQn 0 */
 118:Core/Src/stm32f4xx_it.c ****   }
  86              		.loc 1 118 3 discriminator 1 view .LVU10
 114:Core/Src/stm32f4xx_it.c ****   {
  87              		.loc 1 114 9 discriminator 1 view .LVU11
  88 0000 FEE7     		b	.L7
  89              		.cfi_endproc
  90              	.LFE448:
  92 0002 00BF     		.section	.text.BusFault_Handler,"ax",%progbits
  93              		.align	1
  94              		.p2align 2,,3
  95              		.global	BusFault_Handler
  96              		.syntax unified
  97              		.thumb
  98              		.thumb_func
 100              	BusFault_Handler:
 101              	.LFB449:
 119:Core/Src/stm32f4xx_it.c **** }
 120:Core/Src/stm32f4xx_it.c **** 
 121:Core/Src/stm32f4xx_it.c **** /**
 122:Core/Src/stm32f4xx_it.c ****   * @brief This function handles Pre-fetch fault, memory access fault.
 123:Core/Src/stm32f4xx_it.c ****   */
 124:Core/Src/stm32f4xx_it.c **** void BusFault_Handler(void)
 125:Core/Src/stm32f4xx_it.c **** {
 102              		.loc 1 125 1 view -0
 103              		.cfi_startproc
 104              		@ Volatile: function does not return.
 105              		@ args = 0, pretend = 0, frame = 0
 106              		@ frame_needed = 0, uses_anonymous_args = 0
 107              		@ link register save eliminated.
ARM GAS  /var/folders/0z/tsy30v1j4xl4_7kw94k978ww0000gn/T//cccg2137.s 			page 5


 108              	.L9:
 126:Core/Src/stm32f4xx_it.c ****   /* USER CODE BEGIN BusFault_IRQn 0 */
 127:Core/Src/stm32f4xx_it.c **** 
 128:Core/Src/stm32f4xx_it.c ****   /* USER CODE END BusFault_IRQn 0 */
 129:Core/Src/stm32f4xx_it.c ****   while (1)
 109              		.loc 1 129 3 discriminator 1 view .LVU13
 130:Core/Src/stm32f4xx_it.c ****   {
 131:Core/Src/stm32f4xx_it.c ****     /* USER CODE BEGIN W1_BusFault_IRQn 0 */
 132:Core/Src/stm32f4xx_it.c ****     /* USER CODE END W1_BusFault_IRQn 0 */
 133:Core/Src/stm32f4xx_it.c ****   }
 110              		.loc 1 133 3 discriminator 1 view .LVU14
 129:Core/Src/stm32f4xx_it.c ****   {
 111              		.loc 1 129 9 discriminator 1 view .LVU15
 112 0000 FEE7     		b	.L9
 113              		.cfi_endproc
 114              	.LFE449:
 116 0002 00BF     		.section	.text.UsageFault_Handler,"ax",%progbits
 117              		.align	1
 118              		.p2align 2,,3
 119              		.global	UsageFault_Handler
 120              		.syntax unified
 121              		.thumb
 122              		.thumb_func
 124              	UsageFault_Handler:
 125              	.LFB450:
 134:Core/Src/stm32f4xx_it.c **** }
 135:Core/Src/stm32f4xx_it.c **** 
 136:Core/Src/stm32f4xx_it.c **** /**
 137:Core/Src/stm32f4xx_it.c ****   * @brief This function handles Undefined instruction or illegal state.
 138:Core/Src/stm32f4xx_it.c ****   */
 139:Core/Src/stm32f4xx_it.c **** void UsageFault_Handler(void)
 140:Core/Src/stm32f4xx_it.c **** {
 126              		.loc 1 140 1 view -0
 127              		.cfi_startproc
 128              		@ Volatile: function does not return.
 129              		@ args = 0, pretend = 0, frame = 0
 130              		@ frame_needed = 0, uses_anonymous_args = 0
 131              		@ link register save eliminated.
 132              	.L11:
 141:Core/Src/stm32f4xx_it.c ****   /* USER CODE BEGIN UsageFault_IRQn 0 */
 142:Core/Src/stm32f4xx_it.c **** 
 143:Core/Src/stm32f4xx_it.c ****   /* USER CODE END UsageFault_IRQn 0 */
 144:Core/Src/stm32f4xx_it.c ****   while (1)
 133              		.loc 1 144 3 discriminator 1 view .LVU17
 145:Core/Src/stm32f4xx_it.c ****   {
 146:Core/Src/stm32f4xx_it.c ****     /* USER CODE BEGIN W1_UsageFault_IRQn 0 */
 147:Core/Src/stm32f4xx_it.c ****     /* USER CODE END W1_UsageFault_IRQn 0 */
 148:Core/Src/stm32f4xx_it.c ****   }
 134              		.loc 1 148 3 discriminator 1 view .LVU18
 144:Core/Src/stm32f4xx_it.c ****   {
 135              		.loc 1 144 9 discriminator 1 view .LVU19
 136 0000 FEE7     		b	.L11
 137              		.cfi_endproc
 138              	.LFE450:
 140 0002 00BF     		.section	.text.SVC_Handler,"ax",%progbits
 141              		.align	1
 142              		.p2align 2,,3
ARM GAS  /var/folders/0z/tsy30v1j4xl4_7kw94k978ww0000gn/T//cccg2137.s 			page 6


 143              		.global	SVC_Handler
 144              		.syntax unified
 145              		.thumb
 146              		.thumb_func
 148              	SVC_Handler:
 149              	.LFB451:
 149:Core/Src/stm32f4xx_it.c **** }
 150:Core/Src/stm32f4xx_it.c **** 
 151:Core/Src/stm32f4xx_it.c **** /**
 152:Core/Src/stm32f4xx_it.c ****   * @brief This function handles System service call via SWI instruction.
 153:Core/Src/stm32f4xx_it.c ****   */
 154:Core/Src/stm32f4xx_it.c **** void SVC_Handler(void)
 155:Core/Src/stm32f4xx_it.c **** {
 150              		.loc 1 155 1 view -0
 151              		.cfi_startproc
 152              		@ args = 0, pretend = 0, frame = 0
 153              		@ frame_needed = 0, uses_anonymous_args = 0
 154              		@ link register save eliminated.
 156:Core/Src/stm32f4xx_it.c ****   /* USER CODE BEGIN SVCall_IRQn 0 */
 157:Core/Src/stm32f4xx_it.c **** 
 158:Core/Src/stm32f4xx_it.c ****   /* USER CODE END SVCall_IRQn 0 */
 159:Core/Src/stm32f4xx_it.c ****   /* USER CODE BEGIN SVCall_IRQn 1 */
 160:Core/Src/stm32f4xx_it.c **** 
 161:Core/Src/stm32f4xx_it.c ****   /* USER CODE END SVCall_IRQn 1 */
 162:Core/Src/stm32f4xx_it.c **** }
 155              		.loc 1 162 1 view .LVU21
 156 0000 7047     		bx	lr
 157              		.cfi_endproc
 158              	.LFE451:
 160 0002 00BF     		.section	.text.DebugMon_Handler,"ax",%progbits
 161              		.align	1
 162              		.p2align 2,,3
 163              		.global	DebugMon_Handler
 164              		.syntax unified
 165              		.thumb
 166              		.thumb_func
 168              	DebugMon_Handler:
 169              	.LFB461:
 170              		.cfi_startproc
 171              		@ args = 0, pretend = 0, frame = 0
 172              		@ frame_needed = 0, uses_anonymous_args = 0
 173              		@ link register save eliminated.
 174 0000 7047     		bx	lr
 175              		.cfi_endproc
 176              	.LFE461:
 178 0002 00BF     		.section	.text.PendSV_Handler,"ax",%progbits
 179              		.align	1
 180              		.p2align 2,,3
 181              		.global	PendSV_Handler
 182              		.syntax unified
 183              		.thumb
 184              		.thumb_func
 186              	PendSV_Handler:
 187              	.LFB463:
 188              		.cfi_startproc
 189              		@ args = 0, pretend = 0, frame = 0
 190              		@ frame_needed = 0, uses_anonymous_args = 0
ARM GAS  /var/folders/0z/tsy30v1j4xl4_7kw94k978ww0000gn/T//cccg2137.s 			page 7


 191              		@ link register save eliminated.
 192 0000 7047     		bx	lr
 193              		.cfi_endproc
 194              	.LFE463:
 196 0002 00BF     		.section	.text.SysTick_Handler,"ax",%progbits
 197              		.align	1
 198              		.p2align 2,,3
 199              		.global	SysTick_Handler
 200              		.syntax unified
 201              		.thumb
 202              		.thumb_func
 204              	SysTick_Handler:
 205              	.LFB454:
 163:Core/Src/stm32f4xx_it.c **** 
 164:Core/Src/stm32f4xx_it.c **** /**
 165:Core/Src/stm32f4xx_it.c ****   * @brief This function handles Debug monitor.
 166:Core/Src/stm32f4xx_it.c ****   */
 167:Core/Src/stm32f4xx_it.c **** void DebugMon_Handler(void)
 168:Core/Src/stm32f4xx_it.c **** {
 169:Core/Src/stm32f4xx_it.c ****   /* USER CODE BEGIN DebugMonitor_IRQn 0 */
 170:Core/Src/stm32f4xx_it.c **** 
 171:Core/Src/stm32f4xx_it.c ****   /* USER CODE END DebugMonitor_IRQn 0 */
 172:Core/Src/stm32f4xx_it.c ****   /* USER CODE BEGIN DebugMonitor_IRQn 1 */
 173:Core/Src/stm32f4xx_it.c **** 
 174:Core/Src/stm32f4xx_it.c ****   /* USER CODE END DebugMonitor_IRQn 1 */
 175:Core/Src/stm32f4xx_it.c **** }
 176:Core/Src/stm32f4xx_it.c **** 
 177:Core/Src/stm32f4xx_it.c **** /**
 178:Core/Src/stm32f4xx_it.c ****   * @brief This function handles Pendable request for system service.
 179:Core/Src/stm32f4xx_it.c ****   */
 180:Core/Src/stm32f4xx_it.c **** void PendSV_Handler(void)
 181:Core/Src/stm32f4xx_it.c **** {
 182:Core/Src/stm32f4xx_it.c ****   /* USER CODE BEGIN PendSV_IRQn 0 */
 183:Core/Src/stm32f4xx_it.c **** 
 184:Core/Src/stm32f4xx_it.c ****   /* USER CODE END PendSV_IRQn 0 */
 185:Core/Src/stm32f4xx_it.c ****   /* USER CODE BEGIN PendSV_IRQn 1 */
 186:Core/Src/stm32f4xx_it.c **** 
 187:Core/Src/stm32f4xx_it.c ****   /* USER CODE END PendSV_IRQn 1 */
 188:Core/Src/stm32f4xx_it.c **** }
 189:Core/Src/stm32f4xx_it.c **** 
 190:Core/Src/stm32f4xx_it.c **** /**
 191:Core/Src/stm32f4xx_it.c ****   * @brief This function handles System tick timer.
 192:Core/Src/stm32f4xx_it.c ****   */
 193:Core/Src/stm32f4xx_it.c **** void SysTick_Handler(void)
 194:Core/Src/stm32f4xx_it.c **** {
 206              		.loc 1 194 1 view -0
 207              		.cfi_startproc
 208              		@ args = 0, pretend = 0, frame = 0
 209              		@ frame_needed = 0, uses_anonymous_args = 0
 195:Core/Src/stm32f4xx_it.c ****   /* USER CODE BEGIN SysTick_IRQn 0 */
 196:Core/Src/stm32f4xx_it.c ****   lv_tick_inc(1); 
 210              		.loc 1 196 3 view .LVU23
 194:Core/Src/stm32f4xx_it.c ****   /* USER CODE BEGIN SysTick_IRQn 0 */
 211              		.loc 1 194 1 is_stmt 0 view .LVU24
 212 0000 08B5     		push	{r3, lr}
 213              		.cfi_def_cfa_offset 8
 214              		.cfi_offset 3, -8
ARM GAS  /var/folders/0z/tsy30v1j4xl4_7kw94k978ww0000gn/T//cccg2137.s 			page 8


 215              		.cfi_offset 14, -4
 216              		.loc 1 196 3 view .LVU25
 217 0002 0120     		movs	r0, #1
 218 0004 FFF7FEFF 		bl	lv_tick_inc
 219              	.LVL0:
 197:Core/Src/stm32f4xx_it.c ****   /* USER CODE END SysTick_IRQn 0 */
 198:Core/Src/stm32f4xx_it.c ****   HAL_IncTick();
 220              		.loc 1 198 3 is_stmt 1 view .LVU26
 221 0008 FFF7FEFF 		bl	HAL_IncTick
 222              	.LVL1:
 199:Core/Src/stm32f4xx_it.c ****   
 200:Core/Src/stm32f4xx_it.c ****   /* USER CODE BEGIN SysTick_IRQn 1 */
 201:Core/Src/stm32f4xx_it.c ****   poll_ADCs();
 223              		.loc 1 201 3 view .LVU27
 224 000c FFF7FEFF 		bl	poll_ADCs
 225              	.LVL2:
 202:Core/Src/stm32f4xx_it.c ****   poll_Encoder();
 226              		.loc 1 202 3 view .LVU28
 227 0010 FFF7FEFF 		bl	poll_Encoder
 228              	.LVL3:
 203:Core/Src/stm32f4xx_it.c ****   poll_EncoderBtn();
 229              		.loc 1 203 3 view .LVU29
 204:Core/Src/stm32f4xx_it.c **** 
 205:Core/Src/stm32f4xx_it.c ****   // uint32_t tick = HAL_GetTick();
 206:Core/Src/stm32f4xx_it.c ****   // SEGGER_RTT_printf(0, "Tick: %u\r\n", tick); // debug
 207:Core/Src/stm32f4xx_it.c ****   /* USER CODE END SysTick_IRQn 1 */
 208:Core/Src/stm32f4xx_it.c **** }
 230              		.loc 1 208 1 is_stmt 0 view .LVU30
 231 0014 BDE80840 		pop	{r3, lr}
 232              		.cfi_restore 14
 233              		.cfi_restore 3
 234              		.cfi_def_cfa_offset 0
 203:Core/Src/stm32f4xx_it.c ****   poll_EncoderBtn();
 235              		.loc 1 203 3 view .LVU31
 236 0018 FFF7FEBF 		b	poll_EncoderBtn
 237              	.LVL4:
 238              		.cfi_endproc
 239              	.LFE454:
 241              		.section	.text.EXTI0_IRQHandler,"ax",%progbits
 242              		.align	1
 243              		.p2align 2,,3
 244              		.global	EXTI0_IRQHandler
 245              		.syntax unified
 246              		.thumb
 247              		.thumb_func
 249              	EXTI0_IRQHandler:
 250              	.LFB455:
 209:Core/Src/stm32f4xx_it.c **** 
 210:Core/Src/stm32f4xx_it.c **** /******************************************************************************/
 211:Core/Src/stm32f4xx_it.c **** /* STM32F4xx Peripheral Interrupt Handlers                                    */
 212:Core/Src/stm32f4xx_it.c **** /* Add here the Interrupt Handlers for the used peripherals.                  */
 213:Core/Src/stm32f4xx_it.c **** /* For the available peripheral interrupt handler names,                      */
 214:Core/Src/stm32f4xx_it.c **** /* please refer to the startup file (startup_stm32f4xx.s).                    */
 215:Core/Src/stm32f4xx_it.c **** /******************************************************************************/
 216:Core/Src/stm32f4xx_it.c **** /**
 217:Core/Src/stm32f4xx_it.c ****   * @brief This function handles EXTI line0 interrupt.
 218:Core/Src/stm32f4xx_it.c ****   */
ARM GAS  /var/folders/0z/tsy30v1j4xl4_7kw94k978ww0000gn/T//cccg2137.s 			page 9


 219:Core/Src/stm32f4xx_it.c **** void EXTI0_IRQHandler(void)
 220:Core/Src/stm32f4xx_it.c **** {
 251              		.loc 1 220 1 is_stmt 1 view -0
 252              		.cfi_startproc
 253              		@ args = 0, pretend = 0, frame = 0
 254              		@ frame_needed = 0, uses_anonymous_args = 0
 255              		@ link register save eliminated.
 221:Core/Src/stm32f4xx_it.c ****   /* USER CODE BEGIN EXTI0_IRQn 0 */
 222:Core/Src/stm32f4xx_it.c **** 
 223:Core/Src/stm32f4xx_it.c ****   /* USER CODE END EXTI0_IRQn 0 */
 224:Core/Src/stm32f4xx_it.c ****   HAL_GPIO_EXTI_IRQHandler(GPIO_PIN_0);
 256              		.loc 1 224 3 view .LVU33
 257 0000 0120     		movs	r0, #1
 258 0002 FFF7FEBF 		b	HAL_GPIO_EXTI_IRQHandler
 259              	.LVL5:
 260              		.cfi_endproc
 261              	.LFE455:
 263 0006 00BF     		.section	.text.TIM3_IRQHandler,"ax",%progbits
 264              		.align	1
 265              		.p2align 2,,3
 266              		.global	TIM3_IRQHandler
 267              		.syntax unified
 268              		.thumb
 269              		.thumb_func
 271              	TIM3_IRQHandler:
 272              	.LFB456:
 225:Core/Src/stm32f4xx_it.c ****   /* USER CODE BEGIN EXTI0_IRQn 1 */
 226:Core/Src/stm32f4xx_it.c **** 
 227:Core/Src/stm32f4xx_it.c ****   /* USER CODE END EXTI0_IRQn 1 */
 228:Core/Src/stm32f4xx_it.c **** }
 229:Core/Src/stm32f4xx_it.c **** 
 230:Core/Src/stm32f4xx_it.c **** /**
 231:Core/Src/stm32f4xx_it.c ****   * @brief This function handles TIM3 global interrupt.
 232:Core/Src/stm32f4xx_it.c ****   */
 233:Core/Src/stm32f4xx_it.c **** void TIM3_IRQHandler(void)
 234:Core/Src/stm32f4xx_it.c **** {
 273              		.loc 1 234 1 view -0
 274              		.cfi_startproc
 275              		@ args = 0, pretend = 0, frame = 0
 276              		@ frame_needed = 0, uses_anonymous_args = 0
 277              		@ link register save eliminated.
 235:Core/Src/stm32f4xx_it.c ****   /* USER CODE BEGIN TIM3_IRQn 0 */
 236:Core/Src/stm32f4xx_it.c ****   
 237:Core/Src/stm32f4xx_it.c ****   /* USER CODE END TIM3_IRQn 0 */
 238:Core/Src/stm32f4xx_it.c ****   HAL_TIM_IRQHandler(&htim3);
 278              		.loc 1 238 3 view .LVU35
 279 0000 0148     		ldr	r0, .L19
 280 0002 FFF7FEBF 		b	HAL_TIM_IRQHandler
 281              	.LVL6:
 282              	.L20:
 283 0006 00BF     		.align	2
 284              	.L19:
 285 0008 00000000 		.word	htim3
 286              		.cfi_endproc
 287              	.LFE456:
 289              		.section	.text.OTG_FS_IRQHandler,"ax",%progbits
 290              		.align	1
ARM GAS  /var/folders/0z/tsy30v1j4xl4_7kw94k978ww0000gn/T//cccg2137.s 			page 10


 291              		.p2align 2,,3
 292              		.global	OTG_FS_IRQHandler
 293              		.syntax unified
 294              		.thumb
 295              		.thumb_func
 297              	OTG_FS_IRQHandler:
 298              	.LFB457:
 239:Core/Src/stm32f4xx_it.c ****   /* USER CODE BEGIN TIM3_IRQn 1 */
 240:Core/Src/stm32f4xx_it.c ****   // current_count = ((TIM3->CNT) >> 2);
 241:Core/Src/stm32f4xx_it.c ****   // if ( current_count != former_count)
 242:Core/Src/stm32f4xx_it.c ****   // {
 243:Core/Src/stm32f4xx_it.c ****   //   SEGGER_RTT_printf(0, "Interrupt ! Encoder counter = %u.\r\n", ((TIM3->CNT)>>2));
 244:Core/Src/stm32f4xx_it.c ****   //   }
 245:Core/Src/stm32f4xx_it.c ****   //   former_count = current_count;
 246:Core/Src/stm32f4xx_it.c ****     /* USER CODE END TIM3_IRQn 1 */
 247:Core/Src/stm32f4xx_it.c **** }
 248:Core/Src/stm32f4xx_it.c **** 
 249:Core/Src/stm32f4xx_it.c **** 
 250:Core/Src/stm32f4xx_it.c **** /**
 251:Core/Src/stm32f4xx_it.c ****   * @brief This function handles USB On The Go FS global interrupt.
 252:Core/Src/stm32f4xx_it.c ****   */
 253:Core/Src/stm32f4xx_it.c **** void OTG_FS_IRQHandler(void)
 254:Core/Src/stm32f4xx_it.c **** {
 299              		.loc 1 254 1 view -0
 300              		.cfi_startproc
 301              		@ args = 0, pretend = 0, frame = 0
 302              		@ frame_needed = 0, uses_anonymous_args = 0
 303              		@ link register save eliminated.
 255:Core/Src/stm32f4xx_it.c ****   /* USER CODE BEGIN OTG_FS_IRQn 0 */
 256:Core/Src/stm32f4xx_it.c **** 
 257:Core/Src/stm32f4xx_it.c ****   /* USER CODE END OTG_FS_IRQn 0 */
 258:Core/Src/stm32f4xx_it.c ****   HAL_HCD_IRQHandler(&hHCD);
 304              		.loc 1 258 3 view .LVU37
 305 0000 0148     		ldr	r0, .L22
 306 0002 FFF7FEBF 		b	HAL_HCD_IRQHandler
 307              	.LVL7:
 308              	.L23:
 309 0006 00BF     		.align	2
 310              	.L22:
 311 0008 00000000 		.word	hHCD
 312              		.cfi_endproc
 313              	.LFE457:
 315              		.section	.text.SPI1_IRQHandler,"ax",%progbits
 316              		.align	1
 317              		.p2align 2,,3
 318              		.global	SPI1_IRQHandler
 319              		.syntax unified
 320              		.thumb
 321              		.thumb_func
 323              	SPI1_IRQHandler:
 324              	.LFB458:
 259:Core/Src/stm32f4xx_it.c ****   /* USER CODE BEGIN OTG_FS_IRQn 1 */
 260:Core/Src/stm32f4xx_it.c **** 
 261:Core/Src/stm32f4xx_it.c ****   /* USER CODE END OTG_FS_IRQn 1 */
 262:Core/Src/stm32f4xx_it.c **** }
 263:Core/Src/stm32f4xx_it.c **** 
 264:Core/Src/stm32f4xx_it.c **** /**
ARM GAS  /var/folders/0z/tsy30v1j4xl4_7kw94k978ww0000gn/T//cccg2137.s 			page 11


 265:Core/Src/stm32f4xx_it.c ****   * @brief This function handles SPI1 global interrupt.
 266:Core/Src/stm32f4xx_it.c ****   */
 267:Core/Src/stm32f4xx_it.c **** void SPI1_IRQHandler(void)
 268:Core/Src/stm32f4xx_it.c **** {
 325              		.loc 1 268 1 view -0
 326              		.cfi_startproc
 327              		@ args = 0, pretend = 0, frame = 0
 328              		@ frame_needed = 0, uses_anonymous_args = 0
 329              		@ link register save eliminated.
 269:Core/Src/stm32f4xx_it.c ****   /* USER CODE BEGIN SPI1_IRQn 0 */
 270:Core/Src/stm32f4xx_it.c **** 
 271:Core/Src/stm32f4xx_it.c ****   /* USER CODE END SPI1_IRQn 0 */
 272:Core/Src/stm32f4xx_it.c ****   HAL_SPI_IRQHandler(&hspi1);
 330              		.loc 1 272 3 view .LVU39
 331 0000 0148     		ldr	r0, .L25
 332 0002 FFF7FEBF 		b	HAL_SPI_IRQHandler
 333              	.LVL8:
 334              	.L26:
 335 0006 00BF     		.align	2
 336              	.L25:
 337 0008 00000000 		.word	hspi1
 338              		.cfi_endproc
 339              	.LFE458:
 341              		.section	.text.DMA2_Stream3_IRQHandler,"ax",%progbits
 342              		.align	1
 343              		.p2align 2,,3
 344              		.global	DMA2_Stream3_IRQHandler
 345              		.syntax unified
 346              		.thumb
 347              		.thumb_func
 349              	DMA2_Stream3_IRQHandler:
 350              	.LFB459:
 273:Core/Src/stm32f4xx_it.c ****   /* USER CODE BEGIN SPI1_IRQn 1 */
 274:Core/Src/stm32f4xx_it.c **** 
 275:Core/Src/stm32f4xx_it.c ****   /* USER CODE END SPI1_IRQn 1 */
 276:Core/Src/stm32f4xx_it.c **** }
 277:Core/Src/stm32f4xx_it.c **** 
 278:Core/Src/stm32f4xx_it.c **** /**
 279:Core/Src/stm32f4xx_it.c ****   * @brief This function handles DMA2 stream3 global interrupt.
 280:Core/Src/stm32f4xx_it.c ****   */
 281:Core/Src/stm32f4xx_it.c **** void DMA2_Stream3_IRQHandler(void)
 282:Core/Src/stm32f4xx_it.c **** {
 351              		.loc 1 282 1 view -0
 352              		.cfi_startproc
 353              		@ args = 0, pretend = 0, frame = 0
 354              		@ frame_needed = 0, uses_anonymous_args = 0
 355              		@ link register save eliminated.
 283:Core/Src/stm32f4xx_it.c ****   /* USER CODE BEGIN DMA2_Stream3_IRQn 0 */
 284:Core/Src/stm32f4xx_it.c **** 
 285:Core/Src/stm32f4xx_it.c ****   /* USER CODE END DMA2_Stream3_IRQn 0 */
 286:Core/Src/stm32f4xx_it.c ****   HAL_DMA_IRQHandler(&hdma_spi1_tx);
 356              		.loc 1 286 3 view .LVU41
 357 0000 0148     		ldr	r0, .L28
 358 0002 FFF7FEBF 		b	HAL_DMA_IRQHandler
 359              	.LVL9:
 360              	.L29:
 361 0006 00BF     		.align	2
ARM GAS  /var/folders/0z/tsy30v1j4xl4_7kw94k978ww0000gn/T//cccg2137.s 			page 12


 362              	.L28:
 363 0008 00000000 		.word	hdma_spi1_tx
 364              		.cfi_endproc
 365              	.LFE459:
 367              		.text
 368              	.Letext0:
 369              		.file 2 "/Users/johannes/Library/Application Support/Code/User/globalStorage/bmd.stm32-for-vscode/
 370              		.file 3 "/Users/johannes/Library/Application Support/Code/User/globalStorage/bmd.stm32-for-vscode/
 371              		.file 4 "Drivers/CMSIS/Device/ST/STM32F4xx/Include/stm32f407xx.h"
 372              		.file 5 "Drivers/STM32F4xx_HAL_Driver/Inc/stm32f4xx_hal_def.h"
 373              		.file 6 "Drivers/STM32F4xx_HAL_Driver/Inc/stm32f4xx_hal_dma.h"
 374              		.file 7 "Drivers/STM32F4xx_HAL_Driver/Inc/stm32f4xx_hal_spi.h"
 375              		.file 8 "Drivers/STM32F4xx_HAL_Driver/Inc/stm32f4xx_hal_tim.h"
 376              		.file 9 "Drivers/STM32F4xx_HAL_Driver/Inc/stm32f4xx_ll_usb.h"
 377              		.file 10 "Drivers/STM32F4xx_HAL_Driver/Inc/stm32f4xx_hal_hcd.h"
 378              		.file 11 "Drivers/STM32F4xx_HAL_Driver/Inc/stm32f4xx_hal_gpio.h"
 379              		.file 12 "Core/Inc/UI_hardware.h"
 380              		.file 13 "Drivers/STM32F4xx_HAL_Driver/Inc/stm32f4xx_hal.h"
 381              		.file 14 "Drivers/lvgl/src/misc/../hal/lv_hal_tick.h"
ARM GAS  /var/folders/0z/tsy30v1j4xl4_7kw94k978ww0000gn/T//cccg2137.s 			page 13


DEFINED SYMBOLS
                            *ABS*:0000000000000000 stm32f4xx_it.c
/var/folders/0z/tsy30v1j4xl4_7kw94k978ww0000gn/T//cccg2137.s:20     .text.NMI_Handler:0000000000000000 $t
/var/folders/0z/tsy30v1j4xl4_7kw94k978ww0000gn/T//cccg2137.s:27     .text.NMI_Handler:0000000000000000 NMI_Handler
/var/folders/0z/tsy30v1j4xl4_7kw94k978ww0000gn/T//cccg2137.s:45     .text.HardFault_Handler:0000000000000000 $t
/var/folders/0z/tsy30v1j4xl4_7kw94k978ww0000gn/T//cccg2137.s:52     .text.HardFault_Handler:0000000000000000 HardFault_Handler
/var/folders/0z/tsy30v1j4xl4_7kw94k978ww0000gn/T//cccg2137.s:69     .text.MemManage_Handler:0000000000000000 $t
/var/folders/0z/tsy30v1j4xl4_7kw94k978ww0000gn/T//cccg2137.s:76     .text.MemManage_Handler:0000000000000000 MemManage_Handler
/var/folders/0z/tsy30v1j4xl4_7kw94k978ww0000gn/T//cccg2137.s:93     .text.BusFault_Handler:0000000000000000 $t
/var/folders/0z/tsy30v1j4xl4_7kw94k978ww0000gn/T//cccg2137.s:100    .text.BusFault_Handler:0000000000000000 BusFault_Handler
/var/folders/0z/tsy30v1j4xl4_7kw94k978ww0000gn/T//cccg2137.s:117    .text.UsageFault_Handler:0000000000000000 $t
/var/folders/0z/tsy30v1j4xl4_7kw94k978ww0000gn/T//cccg2137.s:124    .text.UsageFault_Handler:0000000000000000 UsageFault_Handler
/var/folders/0z/tsy30v1j4xl4_7kw94k978ww0000gn/T//cccg2137.s:141    .text.SVC_Handler:0000000000000000 $t
/var/folders/0z/tsy30v1j4xl4_7kw94k978ww0000gn/T//cccg2137.s:148    .text.SVC_Handler:0000000000000000 SVC_Handler
/var/folders/0z/tsy30v1j4xl4_7kw94k978ww0000gn/T//cccg2137.s:161    .text.DebugMon_Handler:0000000000000000 $t
/var/folders/0z/tsy30v1j4xl4_7kw94k978ww0000gn/T//cccg2137.s:168    .text.DebugMon_Handler:0000000000000000 DebugMon_Handler
/var/folders/0z/tsy30v1j4xl4_7kw94k978ww0000gn/T//cccg2137.s:179    .text.PendSV_Handler:0000000000000000 $t
/var/folders/0z/tsy30v1j4xl4_7kw94k978ww0000gn/T//cccg2137.s:186    .text.PendSV_Handler:0000000000000000 PendSV_Handler
/var/folders/0z/tsy30v1j4xl4_7kw94k978ww0000gn/T//cccg2137.s:197    .text.SysTick_Handler:0000000000000000 $t
/var/folders/0z/tsy30v1j4xl4_7kw94k978ww0000gn/T//cccg2137.s:204    .text.SysTick_Handler:0000000000000000 SysTick_Handler
/var/folders/0z/tsy30v1j4xl4_7kw94k978ww0000gn/T//cccg2137.s:242    .text.EXTI0_IRQHandler:0000000000000000 $t
/var/folders/0z/tsy30v1j4xl4_7kw94k978ww0000gn/T//cccg2137.s:249    .text.EXTI0_IRQHandler:0000000000000000 EXTI0_IRQHandler
/var/folders/0z/tsy30v1j4xl4_7kw94k978ww0000gn/T//cccg2137.s:264    .text.TIM3_IRQHandler:0000000000000000 $t
/var/folders/0z/tsy30v1j4xl4_7kw94k978ww0000gn/T//cccg2137.s:271    .text.TIM3_IRQHandler:0000000000000000 TIM3_IRQHandler
/var/folders/0z/tsy30v1j4xl4_7kw94k978ww0000gn/T//cccg2137.s:285    .text.TIM3_IRQHandler:0000000000000008 $d
/var/folders/0z/tsy30v1j4xl4_7kw94k978ww0000gn/T//cccg2137.s:290    .text.OTG_FS_IRQHandler:0000000000000000 $t
/var/folders/0z/tsy30v1j4xl4_7kw94k978ww0000gn/T//cccg2137.s:297    .text.OTG_FS_IRQHandler:0000000000000000 OTG_FS_IRQHandler
/var/folders/0z/tsy30v1j4xl4_7kw94k978ww0000gn/T//cccg2137.s:311    .text.OTG_FS_IRQHandler:0000000000000008 $d
/var/folders/0z/tsy30v1j4xl4_7kw94k978ww0000gn/T//cccg2137.s:316    .text.SPI1_IRQHandler:0000000000000000 $t
/var/folders/0z/tsy30v1j4xl4_7kw94k978ww0000gn/T//cccg2137.s:323    .text.SPI1_IRQHandler:0000000000000000 SPI1_IRQHandler
/var/folders/0z/tsy30v1j4xl4_7kw94k978ww0000gn/T//cccg2137.s:337    .text.SPI1_IRQHandler:0000000000000008 $d
/var/folders/0z/tsy30v1j4xl4_7kw94k978ww0000gn/T//cccg2137.s:342    .text.DMA2_Stream3_IRQHandler:0000000000000000 $t
/var/folders/0z/tsy30v1j4xl4_7kw94k978ww0000gn/T//cccg2137.s:349    .text.DMA2_Stream3_IRQHandler:0000000000000000 DMA2_Stream3_IRQHandler
/var/folders/0z/tsy30v1j4xl4_7kw94k978ww0000gn/T//cccg2137.s:363    .text.DMA2_Stream3_IRQHandler:0000000000000008 $d

UNDEFINED SYMBOLS
lv_tick_inc
HAL_IncTick
poll_ADCs
poll_Encoder
poll_EncoderBtn
HAL_GPIO_EXTI_IRQHandler
HAL_TIM_IRQHandler
htim3
HAL_HCD_IRQHandler
hHCD
HAL_SPI_IRQHandler
hspi1
HAL_DMA_IRQHandler
hdma_spi1_tx
