ARM GAS  /var/folders/lp/x54gwt890xv47sdkqj1k04q40000gn/T//cctevgvi.s 			page 1


   1              		.cpu cortex-m4
   2              		.arch armv7e-m
   3              		.fpu fpv4-sp-d16
   4              		.eabi_attribute 27, 1
   5              		.eabi_attribute 28, 1
   6              		.eabi_attribute 20, 1
   7              		.eabi_attribute 21, 1
   8              		.eabi_attribute 23, 3
   9              		.eabi_attribute 24, 1
  10              		.eabi_attribute 25, 1
  11              		.eabi_attribute 26, 1
  12              		.eabi_attribute 30, 2
  13              		.eabi_attribute 34, 1
  14              		.eabi_attribute 18, 4
  15              		.file	"stm32f4xx_hal_hcd.c"
  16              		.text
  17              	.Ltext0:
  18              		.cfi_sections	.debug_frame
  19              		.file 1 "Drivers/STM32F4xx_HAL_Driver/Src/stm32f4xx_hal_hcd.c"
  20              		.section	.text.HAL_HCD_HC_Init,"ax",%progbits
  21              		.align	1
  22              		.p2align 2,,3
  23              		.global	HAL_HCD_HC_Init
  24              		.syntax unified
  25              		.thumb
  26              		.thumb_func
  28              	HAL_HCD_HC_Init:
  29              	.LVL0:
  30              	.LFB236:
   1:Drivers/STM32F4xx_HAL_Driver/Src/stm32f4xx_hal_hcd.c **** /**
   2:Drivers/STM32F4xx_HAL_Driver/Src/stm32f4xx_hal_hcd.c ****   ******************************************************************************
   3:Drivers/STM32F4xx_HAL_Driver/Src/stm32f4xx_hal_hcd.c ****   * @file    stm32f4xx_hal_hcd.c
   4:Drivers/STM32F4xx_HAL_Driver/Src/stm32f4xx_hal_hcd.c ****   * @author  MCD Application Team
   5:Drivers/STM32F4xx_HAL_Driver/Src/stm32f4xx_hal_hcd.c ****   * @brief   HCD HAL module driver.
   6:Drivers/STM32F4xx_HAL_Driver/Src/stm32f4xx_hal_hcd.c ****   *          This file provides firmware functions to manage the following
   7:Drivers/STM32F4xx_HAL_Driver/Src/stm32f4xx_hal_hcd.c ****   *          functionalities of the USB Peripheral Controller:
   8:Drivers/STM32F4xx_HAL_Driver/Src/stm32f4xx_hal_hcd.c ****   *           + Initialization and de-initialization functions
   9:Drivers/STM32F4xx_HAL_Driver/Src/stm32f4xx_hal_hcd.c ****   *           + IO operation functions
  10:Drivers/STM32F4xx_HAL_Driver/Src/stm32f4xx_hal_hcd.c ****   *           + Peripheral Control functions
  11:Drivers/STM32F4xx_HAL_Driver/Src/stm32f4xx_hal_hcd.c ****   *           + Peripheral State functions
  12:Drivers/STM32F4xx_HAL_Driver/Src/stm32f4xx_hal_hcd.c ****   *
  13:Drivers/STM32F4xx_HAL_Driver/Src/stm32f4xx_hal_hcd.c ****   ******************************************************************************
  14:Drivers/STM32F4xx_HAL_Driver/Src/stm32f4xx_hal_hcd.c ****   * @attention
  15:Drivers/STM32F4xx_HAL_Driver/Src/stm32f4xx_hal_hcd.c ****   *
  16:Drivers/STM32F4xx_HAL_Driver/Src/stm32f4xx_hal_hcd.c ****   * Copyright (c) 2016 STMicroelectronics.
  17:Drivers/STM32F4xx_HAL_Driver/Src/stm32f4xx_hal_hcd.c ****   * All rights reserved.
  18:Drivers/STM32F4xx_HAL_Driver/Src/stm32f4xx_hal_hcd.c ****   *
  19:Drivers/STM32F4xx_HAL_Driver/Src/stm32f4xx_hal_hcd.c ****   * This software is licensed under terms that can be found in the LICENSE file
  20:Drivers/STM32F4xx_HAL_Driver/Src/stm32f4xx_hal_hcd.c ****   * in the root directory of this software component.
  21:Drivers/STM32F4xx_HAL_Driver/Src/stm32f4xx_hal_hcd.c ****   * If no LICENSE file comes with this software, it is provided AS-IS.
  22:Drivers/STM32F4xx_HAL_Driver/Src/stm32f4xx_hal_hcd.c ****   *
  23:Drivers/STM32F4xx_HAL_Driver/Src/stm32f4xx_hal_hcd.c ****   ******************************************************************************
  24:Drivers/STM32F4xx_HAL_Driver/Src/stm32f4xx_hal_hcd.c ****   @verbatim
  25:Drivers/STM32F4xx_HAL_Driver/Src/stm32f4xx_hal_hcd.c ****   ==============================================================================
  26:Drivers/STM32F4xx_HAL_Driver/Src/stm32f4xx_hal_hcd.c ****                     ##### How to use this driver #####
  27:Drivers/STM32F4xx_HAL_Driver/Src/stm32f4xx_hal_hcd.c ****   ==============================================================================
  28:Drivers/STM32F4xx_HAL_Driver/Src/stm32f4xx_hal_hcd.c ****   [..]
ARM GAS  /var/folders/lp/x54gwt890xv47sdkqj1k04q40000gn/T//cctevgvi.s 			page 2


  29:Drivers/STM32F4xx_HAL_Driver/Src/stm32f4xx_hal_hcd.c ****     (#)Declare a HCD_HandleTypeDef handle structure, for example:
  30:Drivers/STM32F4xx_HAL_Driver/Src/stm32f4xx_hal_hcd.c ****        HCD_HandleTypeDef  hhcd;
  31:Drivers/STM32F4xx_HAL_Driver/Src/stm32f4xx_hal_hcd.c **** 
  32:Drivers/STM32F4xx_HAL_Driver/Src/stm32f4xx_hal_hcd.c ****     (#)Fill parameters of Init structure in HCD handle
  33:Drivers/STM32F4xx_HAL_Driver/Src/stm32f4xx_hal_hcd.c **** 
  34:Drivers/STM32F4xx_HAL_Driver/Src/stm32f4xx_hal_hcd.c ****     (#)Call HAL_HCD_Init() API to initialize the HCD peripheral (Core, Host core, ...)
  35:Drivers/STM32F4xx_HAL_Driver/Src/stm32f4xx_hal_hcd.c **** 
  36:Drivers/STM32F4xx_HAL_Driver/Src/stm32f4xx_hal_hcd.c ****     (#)Initialize the HCD low level resources through the HAL_HCD_MspInit() API:
  37:Drivers/STM32F4xx_HAL_Driver/Src/stm32f4xx_hal_hcd.c ****         (##) Enable the HCD/USB Low Level interface clock using the following macros
  38:Drivers/STM32F4xx_HAL_Driver/Src/stm32f4xx_hal_hcd.c ****              (+++) __HAL_RCC_USB_OTG_FS_CLK_ENABLE();
  39:Drivers/STM32F4xx_HAL_Driver/Src/stm32f4xx_hal_hcd.c ****              (+++) __HAL_RCC_USB_OTG_HS_CLK_ENABLE(); (For High Speed Mode)
  40:Drivers/STM32F4xx_HAL_Driver/Src/stm32f4xx_hal_hcd.c ****              (+++) __HAL_RCC_USB_OTG_HS_ULPI_CLK_ENABLE(); (For High Speed Mode)
  41:Drivers/STM32F4xx_HAL_Driver/Src/stm32f4xx_hal_hcd.c **** 
  42:Drivers/STM32F4xx_HAL_Driver/Src/stm32f4xx_hal_hcd.c ****         (##) Initialize the related GPIO clocks
  43:Drivers/STM32F4xx_HAL_Driver/Src/stm32f4xx_hal_hcd.c ****         (##) Configure HCD pin-out
  44:Drivers/STM32F4xx_HAL_Driver/Src/stm32f4xx_hal_hcd.c ****         (##) Configure HCD NVIC interrupt
  45:Drivers/STM32F4xx_HAL_Driver/Src/stm32f4xx_hal_hcd.c **** 
  46:Drivers/STM32F4xx_HAL_Driver/Src/stm32f4xx_hal_hcd.c ****     (#)Associate the Upper USB Host stack to the HAL HCD Driver:
  47:Drivers/STM32F4xx_HAL_Driver/Src/stm32f4xx_hal_hcd.c ****         (##) hhcd.pData = phost;
  48:Drivers/STM32F4xx_HAL_Driver/Src/stm32f4xx_hal_hcd.c **** 
  49:Drivers/STM32F4xx_HAL_Driver/Src/stm32f4xx_hal_hcd.c ****     (#)Enable HCD transmission and reception:
  50:Drivers/STM32F4xx_HAL_Driver/Src/stm32f4xx_hal_hcd.c ****         (##) HAL_HCD_Start();
  51:Drivers/STM32F4xx_HAL_Driver/Src/stm32f4xx_hal_hcd.c **** 
  52:Drivers/STM32F4xx_HAL_Driver/Src/stm32f4xx_hal_hcd.c ****   @endverbatim
  53:Drivers/STM32F4xx_HAL_Driver/Src/stm32f4xx_hal_hcd.c ****   ******************************************************************************
  54:Drivers/STM32F4xx_HAL_Driver/Src/stm32f4xx_hal_hcd.c ****   */
  55:Drivers/STM32F4xx_HAL_Driver/Src/stm32f4xx_hal_hcd.c **** 
  56:Drivers/STM32F4xx_HAL_Driver/Src/stm32f4xx_hal_hcd.c **** /* Includes ------------------------------------------------------------------*/
  57:Drivers/STM32F4xx_HAL_Driver/Src/stm32f4xx_hal_hcd.c **** #include "stm32f4xx_hal.h"
  58:Drivers/STM32F4xx_HAL_Driver/Src/stm32f4xx_hal_hcd.c **** 
  59:Drivers/STM32F4xx_HAL_Driver/Src/stm32f4xx_hal_hcd.c **** /** @addtogroup STM32F4xx_HAL_Driver
  60:Drivers/STM32F4xx_HAL_Driver/Src/stm32f4xx_hal_hcd.c ****   * @{
  61:Drivers/STM32F4xx_HAL_Driver/Src/stm32f4xx_hal_hcd.c ****   */
  62:Drivers/STM32F4xx_HAL_Driver/Src/stm32f4xx_hal_hcd.c **** 
  63:Drivers/STM32F4xx_HAL_Driver/Src/stm32f4xx_hal_hcd.c **** #ifdef HAL_HCD_MODULE_ENABLED
  64:Drivers/STM32F4xx_HAL_Driver/Src/stm32f4xx_hal_hcd.c **** #if defined (USB_OTG_FS) || defined (USB_OTG_HS)
  65:Drivers/STM32F4xx_HAL_Driver/Src/stm32f4xx_hal_hcd.c **** 
  66:Drivers/STM32F4xx_HAL_Driver/Src/stm32f4xx_hal_hcd.c **** /** @defgroup HCD HCD
  67:Drivers/STM32F4xx_HAL_Driver/Src/stm32f4xx_hal_hcd.c ****   * @brief HCD HAL module driver
  68:Drivers/STM32F4xx_HAL_Driver/Src/stm32f4xx_hal_hcd.c ****   * @{
  69:Drivers/STM32F4xx_HAL_Driver/Src/stm32f4xx_hal_hcd.c ****   */
  70:Drivers/STM32F4xx_HAL_Driver/Src/stm32f4xx_hal_hcd.c **** 
  71:Drivers/STM32F4xx_HAL_Driver/Src/stm32f4xx_hal_hcd.c **** /* Private typedef -----------------------------------------------------------*/
  72:Drivers/STM32F4xx_HAL_Driver/Src/stm32f4xx_hal_hcd.c **** /* Private define ------------------------------------------------------------*/
  73:Drivers/STM32F4xx_HAL_Driver/Src/stm32f4xx_hal_hcd.c **** /* Private macro -------------------------------------------------------------*/
  74:Drivers/STM32F4xx_HAL_Driver/Src/stm32f4xx_hal_hcd.c **** /* Private variables ---------------------------------------------------------*/
  75:Drivers/STM32F4xx_HAL_Driver/Src/stm32f4xx_hal_hcd.c **** /* Private function prototypes -----------------------------------------------*/
  76:Drivers/STM32F4xx_HAL_Driver/Src/stm32f4xx_hal_hcd.c **** /** @defgroup HCD_Private_Functions HCD Private Functions
  77:Drivers/STM32F4xx_HAL_Driver/Src/stm32f4xx_hal_hcd.c ****   * @{
  78:Drivers/STM32F4xx_HAL_Driver/Src/stm32f4xx_hal_hcd.c ****   */
  79:Drivers/STM32F4xx_HAL_Driver/Src/stm32f4xx_hal_hcd.c **** static void HCD_HC_IN_IRQHandler(HCD_HandleTypeDef *hhcd, uint8_t chnum);
  80:Drivers/STM32F4xx_HAL_Driver/Src/stm32f4xx_hal_hcd.c **** static void HCD_HC_OUT_IRQHandler(HCD_HandleTypeDef *hhcd, uint8_t chnum);
  81:Drivers/STM32F4xx_HAL_Driver/Src/stm32f4xx_hal_hcd.c **** static void HCD_RXQLVL_IRQHandler(HCD_HandleTypeDef *hhcd);
  82:Drivers/STM32F4xx_HAL_Driver/Src/stm32f4xx_hal_hcd.c **** static void HCD_Port_IRQHandler(HCD_HandleTypeDef *hhcd);
  83:Drivers/STM32F4xx_HAL_Driver/Src/stm32f4xx_hal_hcd.c **** /**
  84:Drivers/STM32F4xx_HAL_Driver/Src/stm32f4xx_hal_hcd.c ****   * @}
  85:Drivers/STM32F4xx_HAL_Driver/Src/stm32f4xx_hal_hcd.c ****   */
ARM GAS  /var/folders/lp/x54gwt890xv47sdkqj1k04q40000gn/T//cctevgvi.s 			page 3


  86:Drivers/STM32F4xx_HAL_Driver/Src/stm32f4xx_hal_hcd.c **** 
  87:Drivers/STM32F4xx_HAL_Driver/Src/stm32f4xx_hal_hcd.c **** /* Exported functions --------------------------------------------------------*/
  88:Drivers/STM32F4xx_HAL_Driver/Src/stm32f4xx_hal_hcd.c **** /** @defgroup HCD_Exported_Functions HCD Exported Functions
  89:Drivers/STM32F4xx_HAL_Driver/Src/stm32f4xx_hal_hcd.c ****   * @{
  90:Drivers/STM32F4xx_HAL_Driver/Src/stm32f4xx_hal_hcd.c ****   */
  91:Drivers/STM32F4xx_HAL_Driver/Src/stm32f4xx_hal_hcd.c **** 
  92:Drivers/STM32F4xx_HAL_Driver/Src/stm32f4xx_hal_hcd.c **** /** @defgroup HCD_Exported_Functions_Group1 Initialization and de-initialization functions
  93:Drivers/STM32F4xx_HAL_Driver/Src/stm32f4xx_hal_hcd.c ****   *  @brief    Initialization and Configuration functions
  94:Drivers/STM32F4xx_HAL_Driver/Src/stm32f4xx_hal_hcd.c ****   *
  95:Drivers/STM32F4xx_HAL_Driver/Src/stm32f4xx_hal_hcd.c **** @verbatim
  96:Drivers/STM32F4xx_HAL_Driver/Src/stm32f4xx_hal_hcd.c ****  ===============================================================================
  97:Drivers/STM32F4xx_HAL_Driver/Src/stm32f4xx_hal_hcd.c ****           ##### Initialization and de-initialization functions #####
  98:Drivers/STM32F4xx_HAL_Driver/Src/stm32f4xx_hal_hcd.c ****  ===============================================================================
  99:Drivers/STM32F4xx_HAL_Driver/Src/stm32f4xx_hal_hcd.c ****     [..]  This section provides functions allowing to:
 100:Drivers/STM32F4xx_HAL_Driver/Src/stm32f4xx_hal_hcd.c **** 
 101:Drivers/STM32F4xx_HAL_Driver/Src/stm32f4xx_hal_hcd.c **** @endverbatim
 102:Drivers/STM32F4xx_HAL_Driver/Src/stm32f4xx_hal_hcd.c ****   * @{
 103:Drivers/STM32F4xx_HAL_Driver/Src/stm32f4xx_hal_hcd.c ****   */
 104:Drivers/STM32F4xx_HAL_Driver/Src/stm32f4xx_hal_hcd.c **** 
 105:Drivers/STM32F4xx_HAL_Driver/Src/stm32f4xx_hal_hcd.c **** /**
 106:Drivers/STM32F4xx_HAL_Driver/Src/stm32f4xx_hal_hcd.c ****   * @brief  Initialize the host driver.
 107:Drivers/STM32F4xx_HAL_Driver/Src/stm32f4xx_hal_hcd.c ****   * @param  hhcd HCD handle
 108:Drivers/STM32F4xx_HAL_Driver/Src/stm32f4xx_hal_hcd.c ****   * @retval HAL status
 109:Drivers/STM32F4xx_HAL_Driver/Src/stm32f4xx_hal_hcd.c ****   */
 110:Drivers/STM32F4xx_HAL_Driver/Src/stm32f4xx_hal_hcd.c **** HAL_StatusTypeDef HAL_HCD_Init(HCD_HandleTypeDef *hhcd)
 111:Drivers/STM32F4xx_HAL_Driver/Src/stm32f4xx_hal_hcd.c **** {
 112:Drivers/STM32F4xx_HAL_Driver/Src/stm32f4xx_hal_hcd.c ****   USB_OTG_GlobalTypeDef *USBx;
 113:Drivers/STM32F4xx_HAL_Driver/Src/stm32f4xx_hal_hcd.c **** 
 114:Drivers/STM32F4xx_HAL_Driver/Src/stm32f4xx_hal_hcd.c ****   /* Check the HCD handle allocation */
 115:Drivers/STM32F4xx_HAL_Driver/Src/stm32f4xx_hal_hcd.c ****   if (hhcd == NULL)
 116:Drivers/STM32F4xx_HAL_Driver/Src/stm32f4xx_hal_hcd.c ****   {
 117:Drivers/STM32F4xx_HAL_Driver/Src/stm32f4xx_hal_hcd.c ****     return HAL_ERROR;
 118:Drivers/STM32F4xx_HAL_Driver/Src/stm32f4xx_hal_hcd.c ****   }
 119:Drivers/STM32F4xx_HAL_Driver/Src/stm32f4xx_hal_hcd.c **** 
 120:Drivers/STM32F4xx_HAL_Driver/Src/stm32f4xx_hal_hcd.c ****   /* Check the parameters */
 121:Drivers/STM32F4xx_HAL_Driver/Src/stm32f4xx_hal_hcd.c ****   assert_param(IS_HCD_ALL_INSTANCE(hhcd->Instance));
 122:Drivers/STM32F4xx_HAL_Driver/Src/stm32f4xx_hal_hcd.c **** 
 123:Drivers/STM32F4xx_HAL_Driver/Src/stm32f4xx_hal_hcd.c ****   USBx = hhcd->Instance;
 124:Drivers/STM32F4xx_HAL_Driver/Src/stm32f4xx_hal_hcd.c **** 
 125:Drivers/STM32F4xx_HAL_Driver/Src/stm32f4xx_hal_hcd.c ****   if (hhcd->State == HAL_HCD_STATE_RESET)
 126:Drivers/STM32F4xx_HAL_Driver/Src/stm32f4xx_hal_hcd.c ****   {
 127:Drivers/STM32F4xx_HAL_Driver/Src/stm32f4xx_hal_hcd.c ****     /* Allocate lock resource and initialize it */
 128:Drivers/STM32F4xx_HAL_Driver/Src/stm32f4xx_hal_hcd.c ****     hhcd->Lock = HAL_UNLOCKED;
 129:Drivers/STM32F4xx_HAL_Driver/Src/stm32f4xx_hal_hcd.c **** 
 130:Drivers/STM32F4xx_HAL_Driver/Src/stm32f4xx_hal_hcd.c **** #if (USE_HAL_HCD_REGISTER_CALLBACKS == 1U)
 131:Drivers/STM32F4xx_HAL_Driver/Src/stm32f4xx_hal_hcd.c ****     hhcd->SOFCallback = HAL_HCD_SOF_Callback;
 132:Drivers/STM32F4xx_HAL_Driver/Src/stm32f4xx_hal_hcd.c ****     hhcd->ConnectCallback = HAL_HCD_Connect_Callback;
 133:Drivers/STM32F4xx_HAL_Driver/Src/stm32f4xx_hal_hcd.c ****     hhcd->DisconnectCallback = HAL_HCD_Disconnect_Callback;
 134:Drivers/STM32F4xx_HAL_Driver/Src/stm32f4xx_hal_hcd.c ****     hhcd->PortEnabledCallback = HAL_HCD_PortEnabled_Callback;
 135:Drivers/STM32F4xx_HAL_Driver/Src/stm32f4xx_hal_hcd.c ****     hhcd->PortDisabledCallback = HAL_HCD_PortDisabled_Callback;
 136:Drivers/STM32F4xx_HAL_Driver/Src/stm32f4xx_hal_hcd.c ****     hhcd->HC_NotifyURBChangeCallback = HAL_HCD_HC_NotifyURBChange_Callback;
 137:Drivers/STM32F4xx_HAL_Driver/Src/stm32f4xx_hal_hcd.c **** 
 138:Drivers/STM32F4xx_HAL_Driver/Src/stm32f4xx_hal_hcd.c ****     if (hhcd->MspInitCallback == NULL)
 139:Drivers/STM32F4xx_HAL_Driver/Src/stm32f4xx_hal_hcd.c ****     {
 140:Drivers/STM32F4xx_HAL_Driver/Src/stm32f4xx_hal_hcd.c ****       hhcd->MspInitCallback = HAL_HCD_MspInit;
 141:Drivers/STM32F4xx_HAL_Driver/Src/stm32f4xx_hal_hcd.c ****     }
 142:Drivers/STM32F4xx_HAL_Driver/Src/stm32f4xx_hal_hcd.c **** 
ARM GAS  /var/folders/lp/x54gwt890xv47sdkqj1k04q40000gn/T//cctevgvi.s 			page 4


 143:Drivers/STM32F4xx_HAL_Driver/Src/stm32f4xx_hal_hcd.c ****     /* Init the low level hardware */
 144:Drivers/STM32F4xx_HAL_Driver/Src/stm32f4xx_hal_hcd.c ****     hhcd->MspInitCallback(hhcd);
 145:Drivers/STM32F4xx_HAL_Driver/Src/stm32f4xx_hal_hcd.c **** #else
 146:Drivers/STM32F4xx_HAL_Driver/Src/stm32f4xx_hal_hcd.c ****     /* Init the low level hardware : GPIO, CLOCK, NVIC... */
 147:Drivers/STM32F4xx_HAL_Driver/Src/stm32f4xx_hal_hcd.c ****     HAL_HCD_MspInit(hhcd);
 148:Drivers/STM32F4xx_HAL_Driver/Src/stm32f4xx_hal_hcd.c **** #endif /* (USE_HAL_HCD_REGISTER_CALLBACKS) */
 149:Drivers/STM32F4xx_HAL_Driver/Src/stm32f4xx_hal_hcd.c ****   }
 150:Drivers/STM32F4xx_HAL_Driver/Src/stm32f4xx_hal_hcd.c **** 
 151:Drivers/STM32F4xx_HAL_Driver/Src/stm32f4xx_hal_hcd.c ****   hhcd->State = HAL_HCD_STATE_BUSY;
 152:Drivers/STM32F4xx_HAL_Driver/Src/stm32f4xx_hal_hcd.c **** 
 153:Drivers/STM32F4xx_HAL_Driver/Src/stm32f4xx_hal_hcd.c ****   /* Disable DMA mode for FS instance */
 154:Drivers/STM32F4xx_HAL_Driver/Src/stm32f4xx_hal_hcd.c ****   if ((USBx->CID & (0x1U << 8)) == 0U)
 155:Drivers/STM32F4xx_HAL_Driver/Src/stm32f4xx_hal_hcd.c ****   {
 156:Drivers/STM32F4xx_HAL_Driver/Src/stm32f4xx_hal_hcd.c ****     hhcd->Init.dma_enable = 0U;
 157:Drivers/STM32F4xx_HAL_Driver/Src/stm32f4xx_hal_hcd.c ****   }
 158:Drivers/STM32F4xx_HAL_Driver/Src/stm32f4xx_hal_hcd.c **** 
 159:Drivers/STM32F4xx_HAL_Driver/Src/stm32f4xx_hal_hcd.c ****   /* Disable the Interrupts */
 160:Drivers/STM32F4xx_HAL_Driver/Src/stm32f4xx_hal_hcd.c ****   __HAL_HCD_DISABLE(hhcd);
 161:Drivers/STM32F4xx_HAL_Driver/Src/stm32f4xx_hal_hcd.c **** 
 162:Drivers/STM32F4xx_HAL_Driver/Src/stm32f4xx_hal_hcd.c ****   /* Init the Core (common init.) */
 163:Drivers/STM32F4xx_HAL_Driver/Src/stm32f4xx_hal_hcd.c ****   (void)USB_CoreInit(hhcd->Instance, hhcd->Init);
 164:Drivers/STM32F4xx_HAL_Driver/Src/stm32f4xx_hal_hcd.c **** 
 165:Drivers/STM32F4xx_HAL_Driver/Src/stm32f4xx_hal_hcd.c ****   /* Force Host Mode*/
 166:Drivers/STM32F4xx_HAL_Driver/Src/stm32f4xx_hal_hcd.c ****   (void)USB_SetCurrentMode(hhcd->Instance, USB_HOST_MODE);
 167:Drivers/STM32F4xx_HAL_Driver/Src/stm32f4xx_hal_hcd.c **** 
 168:Drivers/STM32F4xx_HAL_Driver/Src/stm32f4xx_hal_hcd.c ****   /* Init Host */
 169:Drivers/STM32F4xx_HAL_Driver/Src/stm32f4xx_hal_hcd.c ****   (void)USB_HostInit(hhcd->Instance, hhcd->Init);
 170:Drivers/STM32F4xx_HAL_Driver/Src/stm32f4xx_hal_hcd.c **** 
 171:Drivers/STM32F4xx_HAL_Driver/Src/stm32f4xx_hal_hcd.c ****   hhcd->State = HAL_HCD_STATE_READY;
 172:Drivers/STM32F4xx_HAL_Driver/Src/stm32f4xx_hal_hcd.c **** 
 173:Drivers/STM32F4xx_HAL_Driver/Src/stm32f4xx_hal_hcd.c ****   return HAL_OK;
 174:Drivers/STM32F4xx_HAL_Driver/Src/stm32f4xx_hal_hcd.c **** }
 175:Drivers/STM32F4xx_HAL_Driver/Src/stm32f4xx_hal_hcd.c **** 
 176:Drivers/STM32F4xx_HAL_Driver/Src/stm32f4xx_hal_hcd.c **** /**
 177:Drivers/STM32F4xx_HAL_Driver/Src/stm32f4xx_hal_hcd.c ****   * @brief  Initialize a host channel.
 178:Drivers/STM32F4xx_HAL_Driver/Src/stm32f4xx_hal_hcd.c ****   * @param  hhcd HCD handle
 179:Drivers/STM32F4xx_HAL_Driver/Src/stm32f4xx_hal_hcd.c ****   * @param  ch_num Channel number.
 180:Drivers/STM32F4xx_HAL_Driver/Src/stm32f4xx_hal_hcd.c ****   *         This parameter can be a value from 1 to 15
 181:Drivers/STM32F4xx_HAL_Driver/Src/stm32f4xx_hal_hcd.c ****   * @param  epnum Endpoint number.
 182:Drivers/STM32F4xx_HAL_Driver/Src/stm32f4xx_hal_hcd.c ****   *          This parameter can be a value from 1 to 15
 183:Drivers/STM32F4xx_HAL_Driver/Src/stm32f4xx_hal_hcd.c ****   * @param  dev_address Current device address
 184:Drivers/STM32F4xx_HAL_Driver/Src/stm32f4xx_hal_hcd.c ****   *          This parameter can be a value from 0 to 255
 185:Drivers/STM32F4xx_HAL_Driver/Src/stm32f4xx_hal_hcd.c ****   * @param  speed Current device speed.
 186:Drivers/STM32F4xx_HAL_Driver/Src/stm32f4xx_hal_hcd.c ****   *          This parameter can be one of these values:
 187:Drivers/STM32F4xx_HAL_Driver/Src/stm32f4xx_hal_hcd.c ****   *            HCD_DEVICE_SPEED_HIGH: High speed mode,
 188:Drivers/STM32F4xx_HAL_Driver/Src/stm32f4xx_hal_hcd.c ****   *            HCD_DEVICE_SPEED_FULL: Full speed mode,
 189:Drivers/STM32F4xx_HAL_Driver/Src/stm32f4xx_hal_hcd.c ****   *            HCD_DEVICE_SPEED_LOW: Low speed mode
 190:Drivers/STM32F4xx_HAL_Driver/Src/stm32f4xx_hal_hcd.c ****   * @param  ep_type Endpoint Type.
 191:Drivers/STM32F4xx_HAL_Driver/Src/stm32f4xx_hal_hcd.c ****   *          This parameter can be one of these values:
 192:Drivers/STM32F4xx_HAL_Driver/Src/stm32f4xx_hal_hcd.c ****   *            EP_TYPE_CTRL: Control type,
 193:Drivers/STM32F4xx_HAL_Driver/Src/stm32f4xx_hal_hcd.c ****   *            EP_TYPE_ISOC: Isochronous type,
 194:Drivers/STM32F4xx_HAL_Driver/Src/stm32f4xx_hal_hcd.c ****   *            EP_TYPE_BULK: Bulk type,
 195:Drivers/STM32F4xx_HAL_Driver/Src/stm32f4xx_hal_hcd.c ****   *            EP_TYPE_INTR: Interrupt type
 196:Drivers/STM32F4xx_HAL_Driver/Src/stm32f4xx_hal_hcd.c ****   * @param  mps Max Packet Size.
 197:Drivers/STM32F4xx_HAL_Driver/Src/stm32f4xx_hal_hcd.c ****   *          This parameter can be a value from 0 to32K
 198:Drivers/STM32F4xx_HAL_Driver/Src/stm32f4xx_hal_hcd.c ****   * @retval HAL status
 199:Drivers/STM32F4xx_HAL_Driver/Src/stm32f4xx_hal_hcd.c ****   */
ARM GAS  /var/folders/lp/x54gwt890xv47sdkqj1k04q40000gn/T//cctevgvi.s 			page 5


 200:Drivers/STM32F4xx_HAL_Driver/Src/stm32f4xx_hal_hcd.c **** HAL_StatusTypeDef HAL_HCD_HC_Init(HCD_HandleTypeDef *hhcd,
 201:Drivers/STM32F4xx_HAL_Driver/Src/stm32f4xx_hal_hcd.c ****                                   uint8_t ch_num,
 202:Drivers/STM32F4xx_HAL_Driver/Src/stm32f4xx_hal_hcd.c ****                                   uint8_t epnum,
 203:Drivers/STM32F4xx_HAL_Driver/Src/stm32f4xx_hal_hcd.c ****                                   uint8_t dev_address,
 204:Drivers/STM32F4xx_HAL_Driver/Src/stm32f4xx_hal_hcd.c ****                                   uint8_t speed,
 205:Drivers/STM32F4xx_HAL_Driver/Src/stm32f4xx_hal_hcd.c ****                                   uint8_t ep_type,
 206:Drivers/STM32F4xx_HAL_Driver/Src/stm32f4xx_hal_hcd.c ****                                   uint16_t mps)
 207:Drivers/STM32F4xx_HAL_Driver/Src/stm32f4xx_hal_hcd.c **** {
  31              		.loc 1 207 1 view -0
  32              		.cfi_startproc
  33              		@ args = 12, pretend = 0, frame = 0
  34              		@ frame_needed = 0, uses_anonymous_args = 0
 208:Drivers/STM32F4xx_HAL_Driver/Src/stm32f4xx_hal_hcd.c ****   HAL_StatusTypeDef status;
  35              		.loc 1 208 3 view .LVU1
 209:Drivers/STM32F4xx_HAL_Driver/Src/stm32f4xx_hal_hcd.c **** 
 210:Drivers/STM32F4xx_HAL_Driver/Src/stm32f4xx_hal_hcd.c ****   __HAL_LOCK(hhcd);
  36              		.loc 1 210 3 view .LVU2
  37              		.loc 1 210 3 view .LVU3
 207:Drivers/STM32F4xx_HAL_Driver/Src/stm32f4xx_hal_hcd.c ****   HAL_StatusTypeDef status;
  38              		.loc 1 207 1 is_stmt 0 view .LVU4
  39 0000 2DE9F043 		push	{r4, r5, r6, r7, r8, r9, lr}
  40              		.cfi_def_cfa_offset 28
  41              		.cfi_offset 4, -28
  42              		.cfi_offset 5, -24
  43              		.cfi_offset 6, -20
  44              		.cfi_offset 7, -16
  45              		.cfi_offset 8, -12
  46              		.cfi_offset 9, -8
  47              		.cfi_offset 14, -4
  48              		.loc 1 210 3 view .LVU5
  49 0004 90F8F852 		ldrb	r5, [r0, #760]	@ zero_extendqisi2
 207:Drivers/STM32F4xx_HAL_Driver/Src/stm32f4xx_hal_hcd.c ****   HAL_StatusTypeDef status;
  50              		.loc 1 207 1 view .LVU6
  51 0008 85B0     		sub	sp, sp, #20
  52              		.cfi_def_cfa_offset 48
  53              		.loc 1 210 3 view .LVU7
  54 000a 012D     		cmp	r5, #1
 207:Drivers/STM32F4xx_HAL_Driver/Src/stm32f4xx_hal_hcd.c ****   HAL_StatusTypeDef status;
  55              		.loc 1 207 1 view .LVU8
  56 000c 9DF83070 		ldrb	r7, [sp, #48]	@ zero_extendqisi2
  57 0010 9DF834E0 		ldrb	lr, [sp, #52]	@ zero_extendqisi2
  58 0014 BDF83880 		ldrh	r8, [sp, #56]
  59              		.loc 1 210 3 view .LVU9
  60 0018 2ED0     		beq	.L3
  61              		.loc 1 210 3 is_stmt 1 discriminator 2 view .LVU10
 211:Drivers/STM32F4xx_HAL_Driver/Src/stm32f4xx_hal_hcd.c ****   hhcd->hc[ch_num].do_ping = 0U;
  62              		.loc 1 211 28 is_stmt 0 view .LVU11
  63 001a 0026     		movs	r6, #0
 212:Drivers/STM32F4xx_HAL_Driver/Src/stm32f4xx_hal_hcd.c ****   hhcd->hc[ch_num].dev_addr = dev_address;
  64              		.loc 1 212 29 view .LVU12
  65 001c 3546     		mov	r5, r6
  66 001e 63F30705 		bfi	r5, r3, #0, #8
  67              	.LVL1:
 211:Drivers/STM32F4xx_HAL_Driver/Src/stm32f4xx_hal_hcd.c ****   hhcd->hc[ch_num].do_ping = 0U;
  68              		.loc 1 211 28 view .LVU13
  69 0022 4FF02C09 		mov	r9, #44
  70 0026 09FB01FC 		mul	ip, r9, r1
ARM GAS  /var/folders/lp/x54gwt890xv47sdkqj1k04q40000gn/T//cctevgvi.s 			page 6


  71              		.loc 1 212 29 view .LVU14
  72 002a 61F30F25 		bfi	r5, r1, #8, #8
 213:Drivers/STM32F4xx_HAL_Driver/Src/stm32f4xx_hal_hcd.c ****   hhcd->hc[ch_num].max_packet = mps;
 214:Drivers/STM32F4xx_HAL_Driver/Src/stm32f4xx_hal_hcd.c ****   hhcd->hc[ch_num].ch_num = ch_num;
 215:Drivers/STM32F4xx_HAL_Driver/Src/stm32f4xx_hal_hcd.c ****   hhcd->hc[ch_num].ep_type = ep_type;
 216:Drivers/STM32F4xx_HAL_Driver/Src/stm32f4xx_hal_hcd.c ****   hhcd->hc[ch_num].ep_num = epnum & 0x7FU;
  73              		.loc 1 216 35 view .LVU15
  74 002e 02F07F09 		and	r9, r2, #127
  75 0032 0446     		mov	r4, r0
 212:Drivers/STM32F4xx_HAL_Driver/Src/stm32f4xx_hal_hcd.c ****   hhcd->hc[ch_num].dev_addr = dev_address;
  76              		.loc 1 212 29 view .LVU16
  77 0034 69F31745 		bfi	r5, r9, #16, #8
 217:Drivers/STM32F4xx_HAL_Driver/Src/stm32f4xx_hal_hcd.c **** 
 218:Drivers/STM32F4xx_HAL_Driver/Src/stm32f4xx_hal_hcd.c ****   if ((epnum & 0x80U) == 0x80U)
  78              		.loc 1 218 6 view .LVU17
  79 0038 D009     		lsrs	r0, r2, #7
  80              	.LVL2:
 212:Drivers/STM32F4xx_HAL_Driver/Src/stm32f4xx_hal_hcd.c ****   hhcd->hc[ch_num].max_packet = mps;
  81              		.loc 1 212 29 view .LVU18
  82 003a 60F31F65 		bfi	r5, r0, #24, #8
 211:Drivers/STM32F4xx_HAL_Driver/Src/stm32f4xx_hal_hcd.c ****   hhcd->hc[ch_num].dev_addr = dev_address;
  83              		.loc 1 211 28 view .LVU19
  84 003e 04EB0C00 		add	r0, r4, ip
 212:Drivers/STM32F4xx_HAL_Driver/Src/stm32f4xx_hal_hcd.c ****   hhcd->hc[ch_num].max_packet = mps;
  85              		.loc 1 212 29 view .LVU20
  86 0042 0CF1380C 		add	ip, ip, #56
 210:Drivers/STM32F4xx_HAL_Driver/Src/stm32f4xx_hal_hcd.c ****   hhcd->hc[ch_num].do_ping = 0U;
  87              		.loc 1 210 3 discriminator 2 view .LVU21
  88 0046 4FF00109 		mov	r9, #1
  89 004a 84F8F892 		strb	r9, [r4, #760]
 210:Drivers/STM32F4xx_HAL_Driver/Src/stm32f4xx_hal_hcd.c ****   hhcd->hc[ch_num].do_ping = 0U;
  90              		.loc 1 210 3 is_stmt 1 discriminator 2 view .LVU22
 211:Drivers/STM32F4xx_HAL_Driver/Src/stm32f4xx_hal_hcd.c ****   hhcd->hc[ch_num].dev_addr = dev_address;
  91              		.loc 1 211 3 view .LVU23
 211:Drivers/STM32F4xx_HAL_Driver/Src/stm32f4xx_hal_hcd.c ****   hhcd->hc[ch_num].dev_addr = dev_address;
  92              		.loc 1 211 28 is_stmt 0 view .LVU24
  93 004e 80F83D60 		strb	r6, [r0, #61]
 212:Drivers/STM32F4xx_HAL_Driver/Src/stm32f4xx_hal_hcd.c ****   hhcd->hc[ch_num].max_packet = mps;
  94              		.loc 1 212 3 is_stmt 1 view .LVU25
 213:Drivers/STM32F4xx_HAL_Driver/Src/stm32f4xx_hal_hcd.c ****   hhcd->hc[ch_num].ch_num = ch_num;
  95              		.loc 1 213 3 view .LVU26
 215:Drivers/STM32F4xx_HAL_Driver/Src/stm32f4xx_hal_hcd.c ****   hhcd->hc[ch_num].ep_num = epnum & 0x7FU;
  96              		.loc 1 215 28 is_stmt 0 view .LVU27
  97 0052 80F83FE0 		strb	lr, [r0, #63]
 213:Drivers/STM32F4xx_HAL_Driver/Src/stm32f4xx_hal_hcd.c ****   hhcd->hc[ch_num].ch_num = ch_num;
  98              		.loc 1 213 31 view .LVU28
  99 0056 A0F84080 		strh	r8, [r0, #64]	@ movhi
 214:Drivers/STM32F4xx_HAL_Driver/Src/stm32f4xx_hal_hcd.c ****   hhcd->hc[ch_num].ep_type = ep_type;
 100              		.loc 1 214 3 is_stmt 1 view .LVU29
 215:Drivers/STM32F4xx_HAL_Driver/Src/stm32f4xx_hal_hcd.c ****   hhcd->hc[ch_num].ep_num = epnum & 0x7FU;
 101              		.loc 1 215 3 view .LVU30
 216:Drivers/STM32F4xx_HAL_Driver/Src/stm32f4xx_hal_hcd.c **** 
 102              		.loc 1 216 3 view .LVU31
 103              		.loc 1 218 3 view .LVU32
 212:Drivers/STM32F4xx_HAL_Driver/Src/stm32f4xx_hal_hcd.c ****   hhcd->hc[ch_num].max_packet = mps;
 104              		.loc 1 212 29 is_stmt 0 view .LVU33
 105 005a 44F80C50 		str	r5, [r4, ip]
ARM GAS  /var/folders/lp/x54gwt890xv47sdkqj1k04q40000gn/T//cctevgvi.s 			page 7


 219:Drivers/STM32F4xx_HAL_Driver/Src/stm32f4xx_hal_hcd.c ****   {
 220:Drivers/STM32F4xx_HAL_Driver/Src/stm32f4xx_hal_hcd.c ****     hhcd->hc[ch_num].ep_is_in = 1U;
 221:Drivers/STM32F4xx_HAL_Driver/Src/stm32f4xx_hal_hcd.c ****   }
 222:Drivers/STM32F4xx_HAL_Driver/Src/stm32f4xx_hal_hcd.c ****   else
 223:Drivers/STM32F4xx_HAL_Driver/Src/stm32f4xx_hal_hcd.c ****   {
 224:Drivers/STM32F4xx_HAL_Driver/Src/stm32f4xx_hal_hcd.c ****     hhcd->hc[ch_num].ep_is_in = 0U;
 225:Drivers/STM32F4xx_HAL_Driver/Src/stm32f4xx_hal_hcd.c ****   }
 226:Drivers/STM32F4xx_HAL_Driver/Src/stm32f4xx_hal_hcd.c **** 
 227:Drivers/STM32F4xx_HAL_Driver/Src/stm32f4xx_hal_hcd.c ****   hhcd->hc[ch_num].speed = speed;
 106              		.loc 1 227 3 is_stmt 1 view .LVU34
 107              		.loc 1 227 26 is_stmt 0 view .LVU35
 108 005e 80F83C70 		strb	r7, [r0, #60]
 228:Drivers/STM32F4xx_HAL_Driver/Src/stm32f4xx_hal_hcd.c **** 
 229:Drivers/STM32F4xx_HAL_Driver/Src/stm32f4xx_hal_hcd.c ****   status =  USB_HC_Init(hhcd->Instance,
 109              		.loc 1 229 3 is_stmt 1 view .LVU36
 110              		.loc 1 229 13 is_stmt 0 view .LVU37
 111 0062 CDE901E8 		strd	lr, r8, [sp, #4]
 112 0066 0097     		str	r7, [sp]
 113 0068 2068     		ldr	r0, [r4]
 114 006a FFF7FEFF 		bl	USB_HC_Init
 115              	.LVL3:
 230:Drivers/STM32F4xx_HAL_Driver/Src/stm32f4xx_hal_hcd.c ****                         ch_num,
 231:Drivers/STM32F4xx_HAL_Driver/Src/stm32f4xx_hal_hcd.c ****                         epnum,
 232:Drivers/STM32F4xx_HAL_Driver/Src/stm32f4xx_hal_hcd.c ****                         dev_address,
 233:Drivers/STM32F4xx_HAL_Driver/Src/stm32f4xx_hal_hcd.c ****                         speed,
 234:Drivers/STM32F4xx_HAL_Driver/Src/stm32f4xx_hal_hcd.c ****                         ep_type,
 235:Drivers/STM32F4xx_HAL_Driver/Src/stm32f4xx_hal_hcd.c ****                         mps);
 236:Drivers/STM32F4xx_HAL_Driver/Src/stm32f4xx_hal_hcd.c ****   __HAL_UNLOCK(hhcd);
 116              		.loc 1 236 3 is_stmt 1 view .LVU38
 117              		.loc 1 236 3 view .LVU39
 118 006e 84F8F862 		strb	r6, [r4, #760]
 119              		.loc 1 236 3 view .LVU40
 237:Drivers/STM32F4xx_HAL_Driver/Src/stm32f4xx_hal_hcd.c **** 
 238:Drivers/STM32F4xx_HAL_Driver/Src/stm32f4xx_hal_hcd.c ****   return status;
 120              		.loc 1 238 3 view .LVU41
 239:Drivers/STM32F4xx_HAL_Driver/Src/stm32f4xx_hal_hcd.c **** }
 121              		.loc 1 239 1 is_stmt 0 view .LVU42
 122 0072 05B0     		add	sp, sp, #20
 123              		.cfi_remember_state
 124              		.cfi_def_cfa_offset 28
 125              		@ sp needed
 126 0074 BDE8F083 		pop	{r4, r5, r6, r7, r8, r9, pc}
 127              	.LVL4:
 128              	.L3:
 129              		.cfi_restore_state
 210:Drivers/STM32F4xx_HAL_Driver/Src/stm32f4xx_hal_hcd.c ****   hhcd->hc[ch_num].do_ping = 0U;
 130              		.loc 1 210 3 discriminator 1 view .LVU43
 131 0078 0220     		movs	r0, #2
 132              	.LVL5:
 133              		.loc 1 239 1 view .LVU44
 134 007a 05B0     		add	sp, sp, #20
 135              		.cfi_def_cfa_offset 28
 136              		@ sp needed
 137 007c BDE8F083 		pop	{r4, r5, r6, r7, r8, r9, pc}
 138              		.loc 1 239 1 view .LVU45
 139              		.cfi_endproc
 140              	.LFE236:
ARM GAS  /var/folders/lp/x54gwt890xv47sdkqj1k04q40000gn/T//cctevgvi.s 			page 8


 142              		.section	.text.HAL_HCD_HC_Halt,"ax",%progbits
 143              		.align	1
 144              		.p2align 2,,3
 145              		.global	HAL_HCD_HC_Halt
 146              		.syntax unified
 147              		.thumb
 148              		.thumb_func
 150              	HAL_HCD_HC_Halt:
 151              	.LVL6:
 152              	.LFB237:
 240:Drivers/STM32F4xx_HAL_Driver/Src/stm32f4xx_hal_hcd.c **** 
 241:Drivers/STM32F4xx_HAL_Driver/Src/stm32f4xx_hal_hcd.c **** /**
 242:Drivers/STM32F4xx_HAL_Driver/Src/stm32f4xx_hal_hcd.c ****   * @brief  Halt a host channel.
 243:Drivers/STM32F4xx_HAL_Driver/Src/stm32f4xx_hal_hcd.c ****   * @param  hhcd HCD handle
 244:Drivers/STM32F4xx_HAL_Driver/Src/stm32f4xx_hal_hcd.c ****   * @param  ch_num Channel number.
 245:Drivers/STM32F4xx_HAL_Driver/Src/stm32f4xx_hal_hcd.c ****   *         This parameter can be a value from 1 to 15
 246:Drivers/STM32F4xx_HAL_Driver/Src/stm32f4xx_hal_hcd.c ****   * @retval HAL status
 247:Drivers/STM32F4xx_HAL_Driver/Src/stm32f4xx_hal_hcd.c ****   */
 248:Drivers/STM32F4xx_HAL_Driver/Src/stm32f4xx_hal_hcd.c **** HAL_StatusTypeDef HAL_HCD_HC_Halt(HCD_HandleTypeDef *hhcd, uint8_t ch_num)
 249:Drivers/STM32F4xx_HAL_Driver/Src/stm32f4xx_hal_hcd.c **** {
 153              		.loc 1 249 1 is_stmt 1 view -0
 154              		.cfi_startproc
 155              		@ args = 0, pretend = 0, frame = 0
 156              		@ frame_needed = 0, uses_anonymous_args = 0
 250:Drivers/STM32F4xx_HAL_Driver/Src/stm32f4xx_hal_hcd.c ****   HAL_StatusTypeDef status = HAL_OK;
 157              		.loc 1 250 3 view .LVU47
 251:Drivers/STM32F4xx_HAL_Driver/Src/stm32f4xx_hal_hcd.c **** 
 252:Drivers/STM32F4xx_HAL_Driver/Src/stm32f4xx_hal_hcd.c ****   __HAL_LOCK(hhcd);
 158              		.loc 1 252 3 view .LVU48
 159              		.loc 1 252 3 view .LVU49
 160 0000 90F8F832 		ldrb	r3, [r0, #760]	@ zero_extendqisi2
 161 0004 012B     		cmp	r3, #1
 162 0006 0CD0     		beq	.L8
 163              		.loc 1 252 3 discriminator 2 view .LVU50
 249:Drivers/STM32F4xx_HAL_Driver/Src/stm32f4xx_hal_hcd.c ****   HAL_StatusTypeDef status = HAL_OK;
 164              		.loc 1 249 1 is_stmt 0 view .LVU51
 165 0008 10B5     		push	{r4, lr}
 166              		.cfi_def_cfa_offset 8
 167              		.cfi_offset 4, -8
 168              		.cfi_offset 14, -4
 169 000a 0446     		mov	r4, r0
 170              		.loc 1 252 3 discriminator 2 view .LVU52
 171 000c 0123     		movs	r3, #1
 253:Drivers/STM32F4xx_HAL_Driver/Src/stm32f4xx_hal_hcd.c ****   (void)USB_HC_Halt(hhcd->Instance, (uint8_t)ch_num);
 172              		.loc 1 253 9 view .LVU53
 173 000e 0068     		ldr	r0, [r0]
 174              	.LVL7:
 252:Drivers/STM32F4xx_HAL_Driver/Src/stm32f4xx_hal_hcd.c ****   (void)USB_HC_Halt(hhcd->Instance, (uint8_t)ch_num);
 175              		.loc 1 252 3 discriminator 2 view .LVU54
 176 0010 84F8F832 		strb	r3, [r4, #760]
 252:Drivers/STM32F4xx_HAL_Driver/Src/stm32f4xx_hal_hcd.c ****   (void)USB_HC_Halt(hhcd->Instance, (uint8_t)ch_num);
 177              		.loc 1 252 3 is_stmt 1 discriminator 2 view .LVU55
 178              		.loc 1 253 3 view .LVU56
 179              		.loc 1 253 9 is_stmt 0 view .LVU57
 180 0014 FFF7FEFF 		bl	USB_HC_Halt
 181              	.LVL8:
 254:Drivers/STM32F4xx_HAL_Driver/Src/stm32f4xx_hal_hcd.c ****   __HAL_UNLOCK(hhcd);
ARM GAS  /var/folders/lp/x54gwt890xv47sdkqj1k04q40000gn/T//cctevgvi.s 			page 9


 182              		.loc 1 254 3 is_stmt 1 view .LVU58
 183              		.loc 1 254 3 view .LVU59
 184 0018 0023     		movs	r3, #0
 185 001a 84F8F832 		strb	r3, [r4, #760]
 186              		.loc 1 254 3 view .LVU60
 255:Drivers/STM32F4xx_HAL_Driver/Src/stm32f4xx_hal_hcd.c **** 
 256:Drivers/STM32F4xx_HAL_Driver/Src/stm32f4xx_hal_hcd.c ****   return status;
 187              		.loc 1 256 3 view .LVU61
 188              		.loc 1 256 10 is_stmt 0 view .LVU62
 189 001e 1846     		mov	r0, r3
 257:Drivers/STM32F4xx_HAL_Driver/Src/stm32f4xx_hal_hcd.c **** }
 190              		.loc 1 257 1 view .LVU63
 191 0020 10BD     		pop	{r4, pc}
 192              	.LVL9:
 193              	.L8:
 194              		.cfi_def_cfa_offset 0
 195              		.cfi_restore 4
 196              		.cfi_restore 14
 252:Drivers/STM32F4xx_HAL_Driver/Src/stm32f4xx_hal_hcd.c ****   (void)USB_HC_Halt(hhcd->Instance, (uint8_t)ch_num);
 197              		.loc 1 252 3 discriminator 1 view .LVU64
 198 0022 0220     		movs	r0, #2
 199              	.LVL10:
 200              		.loc 1 257 1 view .LVU65
 201 0024 7047     		bx	lr
 202              		.cfi_endproc
 203              	.LFE237:
 205 0026 00BF     		.section	.text.HAL_HCD_MspInit,"ax",%progbits
 206              		.align	1
 207              		.p2align 2,,3
 208              		.weak	HAL_HCD_MspInit
 209              		.syntax unified
 210              		.thumb
 211              		.thumb_func
 213              	HAL_HCD_MspInit:
 214              	.LVL11:
 215              	.LFB239:
 258:Drivers/STM32F4xx_HAL_Driver/Src/stm32f4xx_hal_hcd.c **** 
 259:Drivers/STM32F4xx_HAL_Driver/Src/stm32f4xx_hal_hcd.c **** /**
 260:Drivers/STM32F4xx_HAL_Driver/Src/stm32f4xx_hal_hcd.c ****   * @brief  DeInitialize the host driver.
 261:Drivers/STM32F4xx_HAL_Driver/Src/stm32f4xx_hal_hcd.c ****   * @param  hhcd HCD handle
 262:Drivers/STM32F4xx_HAL_Driver/Src/stm32f4xx_hal_hcd.c ****   * @retval HAL status
 263:Drivers/STM32F4xx_HAL_Driver/Src/stm32f4xx_hal_hcd.c ****   */
 264:Drivers/STM32F4xx_HAL_Driver/Src/stm32f4xx_hal_hcd.c **** HAL_StatusTypeDef HAL_HCD_DeInit(HCD_HandleTypeDef *hhcd)
 265:Drivers/STM32F4xx_HAL_Driver/Src/stm32f4xx_hal_hcd.c **** {
 266:Drivers/STM32F4xx_HAL_Driver/Src/stm32f4xx_hal_hcd.c ****   /* Check the HCD handle allocation */
 267:Drivers/STM32F4xx_HAL_Driver/Src/stm32f4xx_hal_hcd.c ****   if (hhcd == NULL)
 268:Drivers/STM32F4xx_HAL_Driver/Src/stm32f4xx_hal_hcd.c ****   {
 269:Drivers/STM32F4xx_HAL_Driver/Src/stm32f4xx_hal_hcd.c ****     return HAL_ERROR;
 270:Drivers/STM32F4xx_HAL_Driver/Src/stm32f4xx_hal_hcd.c ****   }
 271:Drivers/STM32F4xx_HAL_Driver/Src/stm32f4xx_hal_hcd.c **** 
 272:Drivers/STM32F4xx_HAL_Driver/Src/stm32f4xx_hal_hcd.c ****   hhcd->State = HAL_HCD_STATE_BUSY;
 273:Drivers/STM32F4xx_HAL_Driver/Src/stm32f4xx_hal_hcd.c **** 
 274:Drivers/STM32F4xx_HAL_Driver/Src/stm32f4xx_hal_hcd.c **** #if (USE_HAL_HCD_REGISTER_CALLBACKS == 1U)
 275:Drivers/STM32F4xx_HAL_Driver/Src/stm32f4xx_hal_hcd.c ****   if (hhcd->MspDeInitCallback == NULL)
 276:Drivers/STM32F4xx_HAL_Driver/Src/stm32f4xx_hal_hcd.c ****   {
 277:Drivers/STM32F4xx_HAL_Driver/Src/stm32f4xx_hal_hcd.c ****     hhcd->MspDeInitCallback = HAL_HCD_MspDeInit; /* Legacy weak MspDeInit  */
 278:Drivers/STM32F4xx_HAL_Driver/Src/stm32f4xx_hal_hcd.c ****   }
ARM GAS  /var/folders/lp/x54gwt890xv47sdkqj1k04q40000gn/T//cctevgvi.s 			page 10


 279:Drivers/STM32F4xx_HAL_Driver/Src/stm32f4xx_hal_hcd.c **** 
 280:Drivers/STM32F4xx_HAL_Driver/Src/stm32f4xx_hal_hcd.c ****   /* DeInit the low level hardware */
 281:Drivers/STM32F4xx_HAL_Driver/Src/stm32f4xx_hal_hcd.c ****   hhcd->MspDeInitCallback(hhcd);
 282:Drivers/STM32F4xx_HAL_Driver/Src/stm32f4xx_hal_hcd.c **** #else
 283:Drivers/STM32F4xx_HAL_Driver/Src/stm32f4xx_hal_hcd.c ****   /* DeInit the low level hardware: CLOCK, NVIC.*/
 284:Drivers/STM32F4xx_HAL_Driver/Src/stm32f4xx_hal_hcd.c ****   HAL_HCD_MspDeInit(hhcd);
 285:Drivers/STM32F4xx_HAL_Driver/Src/stm32f4xx_hal_hcd.c **** #endif /* USE_HAL_HCD_REGISTER_CALLBACKS */
 286:Drivers/STM32F4xx_HAL_Driver/Src/stm32f4xx_hal_hcd.c **** 
 287:Drivers/STM32F4xx_HAL_Driver/Src/stm32f4xx_hal_hcd.c ****   __HAL_HCD_DISABLE(hhcd);
 288:Drivers/STM32F4xx_HAL_Driver/Src/stm32f4xx_hal_hcd.c **** 
 289:Drivers/STM32F4xx_HAL_Driver/Src/stm32f4xx_hal_hcd.c ****   hhcd->State = HAL_HCD_STATE_RESET;
 290:Drivers/STM32F4xx_HAL_Driver/Src/stm32f4xx_hal_hcd.c **** 
 291:Drivers/STM32F4xx_HAL_Driver/Src/stm32f4xx_hal_hcd.c ****   return HAL_OK;
 292:Drivers/STM32F4xx_HAL_Driver/Src/stm32f4xx_hal_hcd.c **** }
 293:Drivers/STM32F4xx_HAL_Driver/Src/stm32f4xx_hal_hcd.c **** 
 294:Drivers/STM32F4xx_HAL_Driver/Src/stm32f4xx_hal_hcd.c **** /**
 295:Drivers/STM32F4xx_HAL_Driver/Src/stm32f4xx_hal_hcd.c ****   * @brief  Initialize the HCD MSP.
 296:Drivers/STM32F4xx_HAL_Driver/Src/stm32f4xx_hal_hcd.c ****   * @param  hhcd HCD handle
 297:Drivers/STM32F4xx_HAL_Driver/Src/stm32f4xx_hal_hcd.c ****   * @retval None
 298:Drivers/STM32F4xx_HAL_Driver/Src/stm32f4xx_hal_hcd.c ****   */
 299:Drivers/STM32F4xx_HAL_Driver/Src/stm32f4xx_hal_hcd.c **** __weak void  HAL_HCD_MspInit(HCD_HandleTypeDef *hhcd)
 300:Drivers/STM32F4xx_HAL_Driver/Src/stm32f4xx_hal_hcd.c **** {
 216              		.loc 1 300 1 is_stmt 1 view -0
 217              		.cfi_startproc
 218              		@ args = 0, pretend = 0, frame = 0
 219              		@ frame_needed = 0, uses_anonymous_args = 0
 220              		@ link register save eliminated.
 301:Drivers/STM32F4xx_HAL_Driver/Src/stm32f4xx_hal_hcd.c ****   /* Prevent unused argument(s) compilation warning */
 302:Drivers/STM32F4xx_HAL_Driver/Src/stm32f4xx_hal_hcd.c ****   UNUSED(hhcd);
 221              		.loc 1 302 3 view .LVU67
 303:Drivers/STM32F4xx_HAL_Driver/Src/stm32f4xx_hal_hcd.c **** 
 304:Drivers/STM32F4xx_HAL_Driver/Src/stm32f4xx_hal_hcd.c ****   /* NOTE : This function should not be modified, when the callback is needed,
 305:Drivers/STM32F4xx_HAL_Driver/Src/stm32f4xx_hal_hcd.c ****             the HAL_HCD_MspInit could be implemented in the user file
 306:Drivers/STM32F4xx_HAL_Driver/Src/stm32f4xx_hal_hcd.c ****    */
 307:Drivers/STM32F4xx_HAL_Driver/Src/stm32f4xx_hal_hcd.c **** }
 222              		.loc 1 307 1 is_stmt 0 view .LVU68
 223 0000 7047     		bx	lr
 224              		.cfi_endproc
 225              	.LFE239:
 227 0002 00BF     		.section	.text.HAL_HCD_Init,"ax",%progbits
 228              		.align	1
 229              		.p2align 2,,3
 230              		.global	HAL_HCD_Init
 231              		.syntax unified
 232              		.thumb
 233              		.thumb_func
 235              	HAL_HCD_Init:
 236              	.LVL12:
 237              	.LFB235:
 111:Drivers/STM32F4xx_HAL_Driver/Src/stm32f4xx_hal_hcd.c ****   USB_OTG_GlobalTypeDef *USBx;
 238              		.loc 1 111 1 is_stmt 1 view -0
 239              		.cfi_startproc
 240              		@ args = 0, pretend = 0, frame = 0
 241              		@ frame_needed = 0, uses_anonymous_args = 0
 112:Drivers/STM32F4xx_HAL_Driver/Src/stm32f4xx_hal_hcd.c **** 
 242              		.loc 1 112 3 view .LVU70
 115:Drivers/STM32F4xx_HAL_Driver/Src/stm32f4xx_hal_hcd.c ****   {
ARM GAS  /var/folders/lp/x54gwt890xv47sdkqj1k04q40000gn/T//cctevgvi.s 			page 11


 243              		.loc 1 115 3 view .LVU71
 115:Drivers/STM32F4xx_HAL_Driver/Src/stm32f4xx_hal_hcd.c ****   {
 244              		.loc 1 115 6 is_stmt 0 view .LVU72
 245 0000 0028     		cmp	r0, #0
 246 0002 4DD0     		beq	.L18
 121:Drivers/STM32F4xx_HAL_Driver/Src/stm32f4xx_hal_hcd.c **** 
 247              		.loc 1 121 3 is_stmt 1 view .LVU73
 123:Drivers/STM32F4xx_HAL_Driver/Src/stm32f4xx_hal_hcd.c **** 
 248              		.loc 1 123 3 view .LVU74
 111:Drivers/STM32F4xx_HAL_Driver/Src/stm32f4xx_hal_hcd.c ****   USB_OTG_GlobalTypeDef *USBx;
 249              		.loc 1 111 1 is_stmt 0 view .LVU75
 250 0004 2DE9F041 		push	{r4, r5, r6, r7, r8, lr}
 251              		.cfi_def_cfa_offset 24
 252              		.cfi_offset 4, -24
 253              		.cfi_offset 5, -20
 254              		.cfi_offset 6, -16
 255              		.cfi_offset 7, -12
 256              		.cfi_offset 8, -8
 257              		.cfi_offset 14, -4
 125:Drivers/STM32F4xx_HAL_Driver/Src/stm32f4xx_hal_hcd.c ****   {
 258              		.loc 1 125 11 view .LVU76
 259 0008 90F8F932 		ldrb	r3, [r0, #761]	@ zero_extendqisi2
 123:Drivers/STM32F4xx_HAL_Driver/Src/stm32f4xx_hal_hcd.c **** 
 260              		.loc 1 123 8 view .LVU77
 261 000c 0468     		ldr	r4, [r0]
 262              	.LVL13:
 125:Drivers/STM32F4xx_HAL_Driver/Src/stm32f4xx_hal_hcd.c ****   {
 263              		.loc 1 125 3 is_stmt 1 view .LVU78
 111:Drivers/STM32F4xx_HAL_Driver/Src/stm32f4xx_hal_hcd.c ****   USB_OTG_GlobalTypeDef *USBx;
 264              		.loc 1 111 1 is_stmt 0 view .LVU79
 265 000e 8AB0     		sub	sp, sp, #40
 266              		.cfi_def_cfa_offset 64
 267 0010 0646     		mov	r6, r0
 125:Drivers/STM32F4xx_HAL_Driver/Src/stm32f4xx_hal_hcd.c ****   {
 268              		.loc 1 125 6 view .LVU80
 269 0012 03F0FF02 		and	r2, r3, #255
 270 0016 002B     		cmp	r3, #0
 271 0018 3CD0     		beq	.L24
 272 001a 2046     		mov	r0, r4
 273              	.LVL14:
 274              	.L16:
 151:Drivers/STM32F4xx_HAL_Driver/Src/stm32f4xx_hal_hcd.c **** 
 275              		.loc 1 151 3 is_stmt 1 view .LVU81
 151:Drivers/STM32F4xx_HAL_Driver/Src/stm32f4xx_hal_hcd.c **** 
 276              		.loc 1 151 15 is_stmt 0 view .LVU82
 277 001c 0323     		movs	r3, #3
 278 001e 86F8F932 		strb	r3, [r6, #761]
 154:Drivers/STM32F4xx_HAL_Driver/Src/stm32f4xx_hal_hcd.c ****   {
 279              		.loc 1 154 3 is_stmt 1 view .LVU83
 154:Drivers/STM32F4xx_HAL_Driver/Src/stm32f4xx_hal_hcd.c ****   {
 280              		.loc 1 154 12 is_stmt 0 view .LVU84
 281 0022 E36B     		ldr	r3, [r4, #60]
 163:Drivers/STM32F4xx_HAL_Driver/Src/stm32f4xx_hal_hcd.c **** 
 282              		.loc 1 163 9 view .LVU85
 283 0024 3446     		mov	r4, r6
 284              	.LVL15:
 154:Drivers/STM32F4xx_HAL_Driver/Src/stm32f4xx_hal_hcd.c ****   {
ARM GAS  /var/folders/lp/x54gwt890xv47sdkqj1k04q40000gn/T//cctevgvi.s 			page 12


 285              		.loc 1 154 6 view .LVU86
 286 0026 13F48073 		ands	r3, r3, #256
 156:Drivers/STM32F4xx_HAL_Driver/Src/stm32f4xx_hal_hcd.c ****   }
 287              		.loc 1 156 5 is_stmt 1 view .LVU87
 160:Drivers/STM32F4xx_HAL_Driver/Src/stm32f4xx_hal_hcd.c **** 
 288              		.loc 1 160 3 view .LVU88
 156:Drivers/STM32F4xx_HAL_Driver/Src/stm32f4xx_hal_hcd.c ****   }
 289              		.loc 1 156 27 is_stmt 0 view .LVU89
 290 002a 08BF     		it	eq
 291 002c 3361     		streq	r3, [r6, #16]
 160:Drivers/STM32F4xx_HAL_Driver/Src/stm32f4xx_hal_hcd.c **** 
 292              		.loc 1 160 3 view .LVU90
 293 002e FFF7FEFF 		bl	USB_DisableGlobalInt
 294              	.LVL16:
 163:Drivers/STM32F4xx_HAL_Driver/Src/stm32f4xx_hal_hcd.c **** 
 295              		.loc 1 163 3 is_stmt 1 view .LVU91
 163:Drivers/STM32F4xx_HAL_Driver/Src/stm32f4xx_hal_hcd.c **** 
 296              		.loc 1 163 9 is_stmt 0 view .LVU92
 297 0032 54F810CB 		ldr	ip, [r4], #16
 298 0036 0FCC     		ldmia	r4!, {r0, r1, r2, r3}
 299 0038 6D46     		mov	r5, sp
 300 003a 0FC5     		stmia	r5!, {r0, r1, r2, r3}
 301 003c 0FCC     		ldmia	r4!, {r0, r1, r2, r3}
 302 003e 0FC5     		stmia	r5!, {r0, r1, r2, r3}
 303 0040 94E80300 		ldm	r4, {r0, r1}
 304 0044 85E80300 		stm	r5, {r0, r1}
 305 0048 371D     		adds	r7, r6, #4
 306 004a 97E80E00 		ldm	r7, {r1, r2, r3}
 307 004e 6046     		mov	r0, ip
 308 0050 FFF7FEFF 		bl	USB_CoreInit
 309              	.LVL17:
 166:Drivers/STM32F4xx_HAL_Driver/Src/stm32f4xx_hal_hcd.c **** 
 310              		.loc 1 166 3 is_stmt 1 view .LVU93
 166:Drivers/STM32F4xx_HAL_Driver/Src/stm32f4xx_hal_hcd.c **** 
 311              		.loc 1 166 9 is_stmt 0 view .LVU94
 312 0054 3068     		ldr	r0, [r6]
 313 0056 0121     		movs	r1, #1
 314 0058 FFF7FEFF 		bl	USB_SetCurrentMode
 315              	.LVL18:
 169:Drivers/STM32F4xx_HAL_Driver/Src/stm32f4xx_hal_hcd.c **** 
 316              		.loc 1 169 3 is_stmt 1 view .LVU95
 169:Drivers/STM32F4xx_HAL_Driver/Src/stm32f4xx_hal_hcd.c **** 
 317              		.loc 1 169 9 is_stmt 0 view .LVU96
 318 005c B446     		mov	ip, r6
 319 005e EE46     		mov	lr, sp
 320 0060 5CF8108B 		ldr	r8, [ip], #16
 321 0064 BCE80F00 		ldmia	ip!, {r0, r1, r2, r3}
 322 0068 AEE80F00 		stmia	lr!, {r0, r1, r2, r3}
 323 006c BCE80F00 		ldmia	ip!, {r0, r1, r2, r3}
 324 0070 AEE80F00 		stmia	lr!, {r0, r1, r2, r3}
 325 0074 94E80300 		ldm	r4, {r0, r1}
 326 0078 85E80300 		stm	r5, {r0, r1}
 327 007c 4046     		mov	r0, r8
 328 007e 97E80E00 		ldm	r7, {r1, r2, r3}
 329 0082 FFF7FEFF 		bl	USB_HostInit
 330              	.LVL19:
 171:Drivers/STM32F4xx_HAL_Driver/Src/stm32f4xx_hal_hcd.c **** 
ARM GAS  /var/folders/lp/x54gwt890xv47sdkqj1k04q40000gn/T//cctevgvi.s 			page 13


 331              		.loc 1 171 3 is_stmt 1 view .LVU97
 171:Drivers/STM32F4xx_HAL_Driver/Src/stm32f4xx_hal_hcd.c **** 
 332              		.loc 1 171 15 is_stmt 0 view .LVU98
 333 0086 0123     		movs	r3, #1
 173:Drivers/STM32F4xx_HAL_Driver/Src/stm32f4xx_hal_hcd.c **** }
 334              		.loc 1 173 10 view .LVU99
 335 0088 0020     		movs	r0, #0
 171:Drivers/STM32F4xx_HAL_Driver/Src/stm32f4xx_hal_hcd.c **** 
 336              		.loc 1 171 15 view .LVU100
 337 008a 86F8F932 		strb	r3, [r6, #761]
 173:Drivers/STM32F4xx_HAL_Driver/Src/stm32f4xx_hal_hcd.c **** }
 338              		.loc 1 173 3 is_stmt 1 view .LVU101
 174:Drivers/STM32F4xx_HAL_Driver/Src/stm32f4xx_hal_hcd.c **** 
 339              		.loc 1 174 1 is_stmt 0 view .LVU102
 340 008e 0AB0     		add	sp, sp, #40
 341              		.cfi_remember_state
 342              		.cfi_def_cfa_offset 24
 343              		@ sp needed
 344 0090 BDE8F081 		pop	{r4, r5, r6, r7, r8, pc}
 345              	.LVL20:
 346              	.L24:
 347              		.cfi_restore_state
 128:Drivers/STM32F4xx_HAL_Driver/Src/stm32f4xx_hal_hcd.c **** 
 348              		.loc 1 128 5 is_stmt 1 view .LVU103
 128:Drivers/STM32F4xx_HAL_Driver/Src/stm32f4xx_hal_hcd.c **** 
 349              		.loc 1 128 16 is_stmt 0 view .LVU104
 350 0094 80F8F822 		strb	r2, [r0, #760]
 147:Drivers/STM32F4xx_HAL_Driver/Src/stm32f4xx_hal_hcd.c **** #endif /* (USE_HAL_HCD_REGISTER_CALLBACKS) */
 351              		.loc 1 147 5 is_stmt 1 view .LVU105
 352 0098 FFF7FEFF 		bl	HAL_HCD_MspInit
 353              	.LVL21:
 160:Drivers/STM32F4xx_HAL_Driver/Src/stm32f4xx_hal_hcd.c **** 
 354              		.loc 1 160 3 is_stmt 0 view .LVU106
 355 009c 3068     		ldr	r0, [r6]
 356 009e BDE7     		b	.L16
 357              	.LVL22:
 358              	.L18:
 359              		.cfi_def_cfa_offset 0
 360              		.cfi_restore 4
 361              		.cfi_restore 5
 362              		.cfi_restore 6
 363              		.cfi_restore 7
 364              		.cfi_restore 8
 365              		.cfi_restore 14
 117:Drivers/STM32F4xx_HAL_Driver/Src/stm32f4xx_hal_hcd.c ****   }
 366              		.loc 1 117 12 view .LVU107
 367 00a0 0120     		movs	r0, #1
 368              	.LVL23:
 174:Drivers/STM32F4xx_HAL_Driver/Src/stm32f4xx_hal_hcd.c **** 
 369              		.loc 1 174 1 view .LVU108
 370 00a2 7047     		bx	lr
 371              		.cfi_endproc
 372              	.LFE235:
 374              		.section	.text.HAL_HCD_MspDeInit,"ax",%progbits
 375              		.align	1
 376              		.p2align 2,,3
 377              		.weak	HAL_HCD_MspDeInit
ARM GAS  /var/folders/lp/x54gwt890xv47sdkqj1k04q40000gn/T//cctevgvi.s 			page 14


 378              		.syntax unified
 379              		.thumb
 380              		.thumb_func
 382              	HAL_HCD_MspDeInit:
 383              	.LFB264:
 384              		.cfi_startproc
 308:Drivers/STM32F4xx_HAL_Driver/Src/stm32f4xx_hal_hcd.c **** 
 309:Drivers/STM32F4xx_HAL_Driver/Src/stm32f4xx_hal_hcd.c **** /**
 310:Drivers/STM32F4xx_HAL_Driver/Src/stm32f4xx_hal_hcd.c ****   * @brief  DeInitialize the HCD MSP.
 311:Drivers/STM32F4xx_HAL_Driver/Src/stm32f4xx_hal_hcd.c ****   * @param  hhcd HCD handle
 312:Drivers/STM32F4xx_HAL_Driver/Src/stm32f4xx_hal_hcd.c ****   * @retval None
 313:Drivers/STM32F4xx_HAL_Driver/Src/stm32f4xx_hal_hcd.c ****   */
 314:Drivers/STM32F4xx_HAL_Driver/Src/stm32f4xx_hal_hcd.c **** __weak void  HAL_HCD_MspDeInit(HCD_HandleTypeDef *hhcd)
 385              		.loc 1 314 14 is_stmt 1 view -0
 386              		@ args = 0, pretend = 0, frame = 0
 387              		@ frame_needed = 0, uses_anonymous_args = 0
 388              		@ link register save eliminated.
 389 0000 7047     		bx	lr
 390              		.cfi_endproc
 391              	.LFE264:
 393 0002 00BF     		.section	.text.HAL_HCD_DeInit,"ax",%progbits
 394              		.align	1
 395              		.p2align 2,,3
 396              		.global	HAL_HCD_DeInit
 397              		.syntax unified
 398              		.thumb
 399              		.thumb_func
 401              	HAL_HCD_DeInit:
 402              	.LVL24:
 403              	.LFB238:
 265:Drivers/STM32F4xx_HAL_Driver/Src/stm32f4xx_hal_hcd.c ****   /* Check the HCD handle allocation */
 404              		.loc 1 265 1 view -0
 405              		.cfi_startproc
 406              		@ args = 0, pretend = 0, frame = 0
 407              		@ frame_needed = 0, uses_anonymous_args = 0
 267:Drivers/STM32F4xx_HAL_Driver/Src/stm32f4xx_hal_hcd.c ****   {
 408              		.loc 1 267 3 view .LVU111
 267:Drivers/STM32F4xx_HAL_Driver/Src/stm32f4xx_hal_hcd.c ****   {
 409              		.loc 1 267 6 is_stmt 0 view .LVU112
 410 0000 70B1     		cbz	r0, .L28
 272:Drivers/STM32F4xx_HAL_Driver/Src/stm32f4xx_hal_hcd.c **** 
 411              		.loc 1 272 3 is_stmt 1 view .LVU113
 265:Drivers/STM32F4xx_HAL_Driver/Src/stm32f4xx_hal_hcd.c ****   /* Check the HCD handle allocation */
 412              		.loc 1 265 1 is_stmt 0 view .LVU114
 413 0002 10B5     		push	{r4, lr}
 414              		.cfi_def_cfa_offset 8
 415              		.cfi_offset 4, -8
 416              		.cfi_offset 14, -4
 272:Drivers/STM32F4xx_HAL_Driver/Src/stm32f4xx_hal_hcd.c **** 
 417              		.loc 1 272 15 view .LVU115
 418 0004 0323     		movs	r3, #3
 419 0006 0446     		mov	r4, r0
 420 0008 80F8F932 		strb	r3, [r0, #761]
 284:Drivers/STM32F4xx_HAL_Driver/Src/stm32f4xx_hal_hcd.c **** #endif /* USE_HAL_HCD_REGISTER_CALLBACKS */
 421              		.loc 1 284 3 is_stmt 1 view .LVU116
 422 000c FFF7FEFF 		bl	HAL_HCD_MspDeInit
 423              	.LVL25:
ARM GAS  /var/folders/lp/x54gwt890xv47sdkqj1k04q40000gn/T//cctevgvi.s 			page 15


 287:Drivers/STM32F4xx_HAL_Driver/Src/stm32f4xx_hal_hcd.c **** 
 424              		.loc 1 287 3 view .LVU117
 425 0010 2068     		ldr	r0, [r4]
 426 0012 FFF7FEFF 		bl	USB_DisableGlobalInt
 427              	.LVL26:
 289:Drivers/STM32F4xx_HAL_Driver/Src/stm32f4xx_hal_hcd.c **** 
 428              		.loc 1 289 3 view .LVU118
 289:Drivers/STM32F4xx_HAL_Driver/Src/stm32f4xx_hal_hcd.c **** 
 429              		.loc 1 289 15 is_stmt 0 view .LVU119
 430 0016 0023     		movs	r3, #0
 431 0018 84F8F932 		strb	r3, [r4, #761]
 291:Drivers/STM32F4xx_HAL_Driver/Src/stm32f4xx_hal_hcd.c **** }
 432              		.loc 1 291 3 is_stmt 1 view .LVU120
 291:Drivers/STM32F4xx_HAL_Driver/Src/stm32f4xx_hal_hcd.c **** }
 433              		.loc 1 291 10 is_stmt 0 view .LVU121
 434 001c 1846     		mov	r0, r3
 292:Drivers/STM32F4xx_HAL_Driver/Src/stm32f4xx_hal_hcd.c **** 
 435              		.loc 1 292 1 view .LVU122
 436 001e 10BD     		pop	{r4, pc}
 437              	.LVL27:
 438              	.L28:
 439              		.cfi_def_cfa_offset 0
 440              		.cfi_restore 4
 441              		.cfi_restore 14
 269:Drivers/STM32F4xx_HAL_Driver/Src/stm32f4xx_hal_hcd.c ****   }
 442              		.loc 1 269 12 view .LVU123
 443 0020 0120     		movs	r0, #1
 444              	.LVL28:
 292:Drivers/STM32F4xx_HAL_Driver/Src/stm32f4xx_hal_hcd.c **** 
 445              		.loc 1 292 1 view .LVU124
 446 0022 7047     		bx	lr
 447              		.cfi_endproc
 448              	.LFE238:
 450              		.section	.text.HAL_HCD_HC_SubmitRequest,"ax",%progbits
 451              		.align	1
 452              		.p2align 2,,3
 453              		.global	HAL_HCD_HC_SubmitRequest
 454              		.syntax unified
 455              		.thumb
 456              		.thumb_func
 458              	HAL_HCD_HC_SubmitRequest:
 459              	.LVL29:
 460              	.LFB241:
 315:Drivers/STM32F4xx_HAL_Driver/Src/stm32f4xx_hal_hcd.c **** {
 316:Drivers/STM32F4xx_HAL_Driver/Src/stm32f4xx_hal_hcd.c ****   /* Prevent unused argument(s) compilation warning */
 317:Drivers/STM32F4xx_HAL_Driver/Src/stm32f4xx_hal_hcd.c ****   UNUSED(hhcd);
 318:Drivers/STM32F4xx_HAL_Driver/Src/stm32f4xx_hal_hcd.c **** 
 319:Drivers/STM32F4xx_HAL_Driver/Src/stm32f4xx_hal_hcd.c ****   /* NOTE : This function should not be modified, when the callback is needed,
 320:Drivers/STM32F4xx_HAL_Driver/Src/stm32f4xx_hal_hcd.c ****             the HAL_HCD_MspDeInit could be implemented in the user file
 321:Drivers/STM32F4xx_HAL_Driver/Src/stm32f4xx_hal_hcd.c ****    */
 322:Drivers/STM32F4xx_HAL_Driver/Src/stm32f4xx_hal_hcd.c **** }
 323:Drivers/STM32F4xx_HAL_Driver/Src/stm32f4xx_hal_hcd.c **** 
 324:Drivers/STM32F4xx_HAL_Driver/Src/stm32f4xx_hal_hcd.c **** /**
 325:Drivers/STM32F4xx_HAL_Driver/Src/stm32f4xx_hal_hcd.c ****   * @}
 326:Drivers/STM32F4xx_HAL_Driver/Src/stm32f4xx_hal_hcd.c ****   */
 327:Drivers/STM32F4xx_HAL_Driver/Src/stm32f4xx_hal_hcd.c **** 
 328:Drivers/STM32F4xx_HAL_Driver/Src/stm32f4xx_hal_hcd.c **** /** @defgroup HCD_Exported_Functions_Group2 Input and Output operation functions
ARM GAS  /var/folders/lp/x54gwt890xv47sdkqj1k04q40000gn/T//cctevgvi.s 			page 16


 329:Drivers/STM32F4xx_HAL_Driver/Src/stm32f4xx_hal_hcd.c ****   *  @brief   HCD IO operation functions
 330:Drivers/STM32F4xx_HAL_Driver/Src/stm32f4xx_hal_hcd.c ****   *
 331:Drivers/STM32F4xx_HAL_Driver/Src/stm32f4xx_hal_hcd.c **** @verbatim
 332:Drivers/STM32F4xx_HAL_Driver/Src/stm32f4xx_hal_hcd.c ****  ===============================================================================
 333:Drivers/STM32F4xx_HAL_Driver/Src/stm32f4xx_hal_hcd.c ****                       ##### IO operation functions #####
 334:Drivers/STM32F4xx_HAL_Driver/Src/stm32f4xx_hal_hcd.c ****  ===============================================================================
 335:Drivers/STM32F4xx_HAL_Driver/Src/stm32f4xx_hal_hcd.c ****  [..] This subsection provides a set of functions allowing to manage the USB Host Data
 336:Drivers/STM32F4xx_HAL_Driver/Src/stm32f4xx_hal_hcd.c ****     Transfer
 337:Drivers/STM32F4xx_HAL_Driver/Src/stm32f4xx_hal_hcd.c **** 
 338:Drivers/STM32F4xx_HAL_Driver/Src/stm32f4xx_hal_hcd.c **** @endverbatim
 339:Drivers/STM32F4xx_HAL_Driver/Src/stm32f4xx_hal_hcd.c ****   * @{
 340:Drivers/STM32F4xx_HAL_Driver/Src/stm32f4xx_hal_hcd.c ****   */
 341:Drivers/STM32F4xx_HAL_Driver/Src/stm32f4xx_hal_hcd.c **** 
 342:Drivers/STM32F4xx_HAL_Driver/Src/stm32f4xx_hal_hcd.c **** /**
 343:Drivers/STM32F4xx_HAL_Driver/Src/stm32f4xx_hal_hcd.c ****   * @brief  Submit a new URB for processing.
 344:Drivers/STM32F4xx_HAL_Driver/Src/stm32f4xx_hal_hcd.c ****   * @param  hhcd HCD handle
 345:Drivers/STM32F4xx_HAL_Driver/Src/stm32f4xx_hal_hcd.c ****   * @param  ch_num Channel number.
 346:Drivers/STM32F4xx_HAL_Driver/Src/stm32f4xx_hal_hcd.c ****   *         This parameter can be a value from 1 to 15
 347:Drivers/STM32F4xx_HAL_Driver/Src/stm32f4xx_hal_hcd.c ****   * @param  direction Channel number.
 348:Drivers/STM32F4xx_HAL_Driver/Src/stm32f4xx_hal_hcd.c ****   *          This parameter can be one of these values:
 349:Drivers/STM32F4xx_HAL_Driver/Src/stm32f4xx_hal_hcd.c ****   *           0 : Output / 1 : Input
 350:Drivers/STM32F4xx_HAL_Driver/Src/stm32f4xx_hal_hcd.c ****   * @param  ep_type Endpoint Type.
 351:Drivers/STM32F4xx_HAL_Driver/Src/stm32f4xx_hal_hcd.c ****   *          This parameter can be one of these values:
 352:Drivers/STM32F4xx_HAL_Driver/Src/stm32f4xx_hal_hcd.c ****   *            EP_TYPE_CTRL: Control type/
 353:Drivers/STM32F4xx_HAL_Driver/Src/stm32f4xx_hal_hcd.c ****   *            EP_TYPE_ISOC: Isochronous type/
 354:Drivers/STM32F4xx_HAL_Driver/Src/stm32f4xx_hal_hcd.c ****   *            EP_TYPE_BULK: Bulk type/
 355:Drivers/STM32F4xx_HAL_Driver/Src/stm32f4xx_hal_hcd.c ****   *            EP_TYPE_INTR: Interrupt type/
 356:Drivers/STM32F4xx_HAL_Driver/Src/stm32f4xx_hal_hcd.c ****   * @param  token Endpoint Type.
 357:Drivers/STM32F4xx_HAL_Driver/Src/stm32f4xx_hal_hcd.c ****   *          This parameter can be one of these values:
 358:Drivers/STM32F4xx_HAL_Driver/Src/stm32f4xx_hal_hcd.c ****   *            0: HC_PID_SETUP / 1: HC_PID_DATA1
 359:Drivers/STM32F4xx_HAL_Driver/Src/stm32f4xx_hal_hcd.c ****   * @param  pbuff pointer to URB data
 360:Drivers/STM32F4xx_HAL_Driver/Src/stm32f4xx_hal_hcd.c ****   * @param  length Length of URB data
 361:Drivers/STM32F4xx_HAL_Driver/Src/stm32f4xx_hal_hcd.c ****   * @param  do_ping activate do ping protocol (for high speed only).
 362:Drivers/STM32F4xx_HAL_Driver/Src/stm32f4xx_hal_hcd.c ****   *          This parameter can be one of these values:
 363:Drivers/STM32F4xx_HAL_Driver/Src/stm32f4xx_hal_hcd.c ****   *           0 : do ping inactive / 1 : do ping active
 364:Drivers/STM32F4xx_HAL_Driver/Src/stm32f4xx_hal_hcd.c ****   * @retval HAL status
 365:Drivers/STM32F4xx_HAL_Driver/Src/stm32f4xx_hal_hcd.c ****   */
 366:Drivers/STM32F4xx_HAL_Driver/Src/stm32f4xx_hal_hcd.c **** HAL_StatusTypeDef HAL_HCD_HC_SubmitRequest(HCD_HandleTypeDef *hhcd,
 367:Drivers/STM32F4xx_HAL_Driver/Src/stm32f4xx_hal_hcd.c ****                                            uint8_t ch_num,
 368:Drivers/STM32F4xx_HAL_Driver/Src/stm32f4xx_hal_hcd.c ****                                            uint8_t direction,
 369:Drivers/STM32F4xx_HAL_Driver/Src/stm32f4xx_hal_hcd.c ****                                            uint8_t ep_type,
 370:Drivers/STM32F4xx_HAL_Driver/Src/stm32f4xx_hal_hcd.c ****                                            uint8_t token,
 371:Drivers/STM32F4xx_HAL_Driver/Src/stm32f4xx_hal_hcd.c ****                                            uint8_t *pbuff,
 372:Drivers/STM32F4xx_HAL_Driver/Src/stm32f4xx_hal_hcd.c ****                                            uint16_t length,
 373:Drivers/STM32F4xx_HAL_Driver/Src/stm32f4xx_hal_hcd.c ****                                            uint8_t do_ping)
 374:Drivers/STM32F4xx_HAL_Driver/Src/stm32f4xx_hal_hcd.c **** {
 461              		.loc 1 374 1 is_stmt 1 view -0
 462              		.cfi_startproc
 463              		@ args = 16, pretend = 0, frame = 0
 464              		@ frame_needed = 0, uses_anonymous_args = 0
 375:Drivers/STM32F4xx_HAL_Driver/Src/stm32f4xx_hal_hcd.c ****   hhcd->hc[ch_num].ep_is_in = direction;
 465              		.loc 1 375 3 view .LVU126
 374:Drivers/STM32F4xx_HAL_Driver/Src/stm32f4xx_hal_hcd.c ****   hhcd->hc[ch_num].ep_is_in = direction;
 466              		.loc 1 374 1 is_stmt 0 view .LVU127
 467 0000 70B5     		push	{r4, r5, r6, lr}
 468              		.cfi_def_cfa_offset 16
 469              		.cfi_offset 4, -16
ARM GAS  /var/folders/lp/x54gwt890xv47sdkqj1k04q40000gn/T//cctevgvi.s 			page 17


 470              		.cfi_offset 5, -12
 471              		.cfi_offset 6, -8
 472              		.cfi_offset 14, -4
 374:Drivers/STM32F4xx_HAL_Driver/Src/stm32f4xx_hal_hcd.c ****   hhcd->hc[ch_num].ep_is_in = direction;
 473              		.loc 1 374 1 view .LVU128
 474 0002 8C46     		mov	ip, r1
 475              		.loc 1 375 29 view .LVU129
 476 0004 2C21     		movs	r1, #44
 477              	.LVL30:
 478              		.loc 1 375 29 view .LVU130
 479 0006 01FB0C01 		mla	r1, r1, ip, r0
 374:Drivers/STM32F4xx_HAL_Driver/Src/stm32f4xx_hal_hcd.c ****   hhcd->hc[ch_num].ep_is_in = direction;
 480              		.loc 1 374 1 view .LVU131
 481 000a 9DF81060 		ldrb	r6, [sp, #16]	@ zero_extendqisi2
 482 000e 059D     		ldr	r5, [sp, #20]
 483 0010 BDF81840 		ldrh	r4, [sp, #24]
 484 0014 9DF81CE0 		ldrb	lr, [sp, #28]	@ zero_extendqisi2
 485              		.loc 1 375 29 view .LVU132
 486 0018 81F83B20 		strb	r2, [r1, #59]
 376:Drivers/STM32F4xx_HAL_Driver/Src/stm32f4xx_hal_hcd.c ****   hhcd->hc[ch_num].ep_type  = ep_type;
 487              		.loc 1 376 3 is_stmt 1 view .LVU133
 488              		.loc 1 376 29 is_stmt 0 view .LVU134
 489 001c 81F83F30 		strb	r3, [r1, #63]
 377:Drivers/STM32F4xx_HAL_Driver/Src/stm32f4xx_hal_hcd.c **** 
 378:Drivers/STM32F4xx_HAL_Driver/Src/stm32f4xx_hal_hcd.c ****   if (token == 0U)
 490              		.loc 1 378 3 is_stmt 1 view .LVU135
 491              		.loc 1 378 6 is_stmt 0 view .LVU136
 492 0020 4EBB     		cbnz	r6, .L49
 379:Drivers/STM32F4xx_HAL_Driver/Src/stm32f4xx_hal_hcd.c ****   {
 380:Drivers/STM32F4xx_HAL_Driver/Src/stm32f4xx_hal_hcd.c ****     hhcd->hc[ch_num].data_pid = HC_PID_SETUP;
 493              		.loc 1 380 5 is_stmt 1 view .LVU137
 381:Drivers/STM32F4xx_HAL_Driver/Src/stm32f4xx_hal_hcd.c ****     hhcd->hc[ch_num].do_ping = do_ping;
 494              		.loc 1 381 5 view .LVU138
 495              		.loc 1 381 30 is_stmt 0 view .LVU139
 496 0022 81F83DE0 		strb	lr, [r1, #61]
 380:Drivers/STM32F4xx_HAL_Driver/Src/stm32f4xx_hal_hcd.c ****     hhcd->hc[ch_num].do_ping = do_ping;
 497              		.loc 1 380 31 view .LVU140
 498 0026 4FF0030E 		mov	lr, #3
 499              	.L34:
 500 002a 2C21     		movs	r1, #44
 501 002c 01FB0C01 		mla	r1, r1, ip, r0
 502 0030 81F842E0 		strb	lr, [r1, #66]
 382:Drivers/STM32F4xx_HAL_Driver/Src/stm32f4xx_hal_hcd.c ****   }
 383:Drivers/STM32F4xx_HAL_Driver/Src/stm32f4xx_hal_hcd.c ****   else
 384:Drivers/STM32F4xx_HAL_Driver/Src/stm32f4xx_hal_hcd.c ****   {
 385:Drivers/STM32F4xx_HAL_Driver/Src/stm32f4xx_hal_hcd.c ****     hhcd->hc[ch_num].data_pid = HC_PID_DATA1;
 386:Drivers/STM32F4xx_HAL_Driver/Src/stm32f4xx_hal_hcd.c ****   }
 387:Drivers/STM32F4xx_HAL_Driver/Src/stm32f4xx_hal_hcd.c **** 
 388:Drivers/STM32F4xx_HAL_Driver/Src/stm32f4xx_hal_hcd.c ****   /* Manage Data Toggle */
 389:Drivers/STM32F4xx_HAL_Driver/Src/stm32f4xx_hal_hcd.c ****   switch (ep_type)
 503              		.loc 1 389 3 is_stmt 1 view .LVU141
 504 0034 032B     		cmp	r3, #3
 505 0036 09D8     		bhi	.L35
 506 0038 DFE803F0 		tbb	[pc, r3]
 507              	.L37:
 508 003c 2C       		.byte	(.L40-.L37)/2
 509 003d 02       		.byte	(.L39-.L37)/2
ARM GAS  /var/folders/lp/x54gwt890xv47sdkqj1k04q40000gn/T//cctevgvi.s 			page 18


 510 003e 20       		.byte	(.L36-.L37)/2
 511 003f 20       		.byte	(.L36-.L37)/2
 512              		.p2align 1
 513              	.L39:
 390:Drivers/STM32F4xx_HAL_Driver/Src/stm32f4xx_hal_hcd.c ****   {
 391:Drivers/STM32F4xx_HAL_Driver/Src/stm32f4xx_hal_hcd.c ****     case EP_TYPE_CTRL:
 392:Drivers/STM32F4xx_HAL_Driver/Src/stm32f4xx_hal_hcd.c ****       if ((token == 1U) && (direction == 0U)) /*send data */
 393:Drivers/STM32F4xx_HAL_Driver/Src/stm32f4xx_hal_hcd.c ****       {
 394:Drivers/STM32F4xx_HAL_Driver/Src/stm32f4xx_hal_hcd.c ****         if (length == 0U)
 395:Drivers/STM32F4xx_HAL_Driver/Src/stm32f4xx_hal_hcd.c ****         {
 396:Drivers/STM32F4xx_HAL_Driver/Src/stm32f4xx_hal_hcd.c ****           /* For Status OUT stage, Length==0, Status Out PID = 1 */
 397:Drivers/STM32F4xx_HAL_Driver/Src/stm32f4xx_hal_hcd.c ****           hhcd->hc[ch_num].toggle_out = 1U;
 398:Drivers/STM32F4xx_HAL_Driver/Src/stm32f4xx_hal_hcd.c ****         }
 399:Drivers/STM32F4xx_HAL_Driver/Src/stm32f4xx_hal_hcd.c **** 
 400:Drivers/STM32F4xx_HAL_Driver/Src/stm32f4xx_hal_hcd.c ****         /* Set the Data Toggle bit as per the Flag */
 401:Drivers/STM32F4xx_HAL_Driver/Src/stm32f4xx_hal_hcd.c ****         if (hhcd->hc[ch_num].toggle_out == 0U)
 402:Drivers/STM32F4xx_HAL_Driver/Src/stm32f4xx_hal_hcd.c ****         {
 403:Drivers/STM32F4xx_HAL_Driver/Src/stm32f4xx_hal_hcd.c ****           /* Put the PID 0 */
 404:Drivers/STM32F4xx_HAL_Driver/Src/stm32f4xx_hal_hcd.c ****           hhcd->hc[ch_num].data_pid = HC_PID_DATA0;
 405:Drivers/STM32F4xx_HAL_Driver/Src/stm32f4xx_hal_hcd.c ****         }
 406:Drivers/STM32F4xx_HAL_Driver/Src/stm32f4xx_hal_hcd.c ****         else
 407:Drivers/STM32F4xx_HAL_Driver/Src/stm32f4xx_hal_hcd.c ****         {
 408:Drivers/STM32F4xx_HAL_Driver/Src/stm32f4xx_hal_hcd.c ****           /* Put the PID 1 */
 409:Drivers/STM32F4xx_HAL_Driver/Src/stm32f4xx_hal_hcd.c ****           hhcd->hc[ch_num].data_pid = HC_PID_DATA1;
 410:Drivers/STM32F4xx_HAL_Driver/Src/stm32f4xx_hal_hcd.c ****         }
 411:Drivers/STM32F4xx_HAL_Driver/Src/stm32f4xx_hal_hcd.c ****       }
 412:Drivers/STM32F4xx_HAL_Driver/Src/stm32f4xx_hal_hcd.c ****       break;
 413:Drivers/STM32F4xx_HAL_Driver/Src/stm32f4xx_hal_hcd.c **** 
 414:Drivers/STM32F4xx_HAL_Driver/Src/stm32f4xx_hal_hcd.c ****     case EP_TYPE_BULK:
 415:Drivers/STM32F4xx_HAL_Driver/Src/stm32f4xx_hal_hcd.c ****       if (direction == 0U)
 416:Drivers/STM32F4xx_HAL_Driver/Src/stm32f4xx_hal_hcd.c ****       {
 417:Drivers/STM32F4xx_HAL_Driver/Src/stm32f4xx_hal_hcd.c ****         /* Set the Data Toggle bit as per the Flag */
 418:Drivers/STM32F4xx_HAL_Driver/Src/stm32f4xx_hal_hcd.c ****         if (hhcd->hc[ch_num].toggle_out == 0U)
 419:Drivers/STM32F4xx_HAL_Driver/Src/stm32f4xx_hal_hcd.c ****         {
 420:Drivers/STM32F4xx_HAL_Driver/Src/stm32f4xx_hal_hcd.c ****           /* Put the PID 0 */
 421:Drivers/STM32F4xx_HAL_Driver/Src/stm32f4xx_hal_hcd.c ****           hhcd->hc[ch_num].data_pid = HC_PID_DATA0;
 422:Drivers/STM32F4xx_HAL_Driver/Src/stm32f4xx_hal_hcd.c ****         }
 423:Drivers/STM32F4xx_HAL_Driver/Src/stm32f4xx_hal_hcd.c ****         else
 424:Drivers/STM32F4xx_HAL_Driver/Src/stm32f4xx_hal_hcd.c ****         {
 425:Drivers/STM32F4xx_HAL_Driver/Src/stm32f4xx_hal_hcd.c ****           /* Put the PID 1 */
 426:Drivers/STM32F4xx_HAL_Driver/Src/stm32f4xx_hal_hcd.c ****           hhcd->hc[ch_num].data_pid = HC_PID_DATA1;
 427:Drivers/STM32F4xx_HAL_Driver/Src/stm32f4xx_hal_hcd.c ****         }
 428:Drivers/STM32F4xx_HAL_Driver/Src/stm32f4xx_hal_hcd.c ****       }
 429:Drivers/STM32F4xx_HAL_Driver/Src/stm32f4xx_hal_hcd.c ****       else
 430:Drivers/STM32F4xx_HAL_Driver/Src/stm32f4xx_hal_hcd.c ****       {
 431:Drivers/STM32F4xx_HAL_Driver/Src/stm32f4xx_hal_hcd.c ****         if (hhcd->hc[ch_num].toggle_in == 0U)
 432:Drivers/STM32F4xx_HAL_Driver/Src/stm32f4xx_hal_hcd.c ****         {
 433:Drivers/STM32F4xx_HAL_Driver/Src/stm32f4xx_hal_hcd.c ****           hhcd->hc[ch_num].data_pid = HC_PID_DATA0;
 434:Drivers/STM32F4xx_HAL_Driver/Src/stm32f4xx_hal_hcd.c ****         }
 435:Drivers/STM32F4xx_HAL_Driver/Src/stm32f4xx_hal_hcd.c ****         else
 436:Drivers/STM32F4xx_HAL_Driver/Src/stm32f4xx_hal_hcd.c ****         {
 437:Drivers/STM32F4xx_HAL_Driver/Src/stm32f4xx_hal_hcd.c ****           hhcd->hc[ch_num].data_pid = HC_PID_DATA1;
 438:Drivers/STM32F4xx_HAL_Driver/Src/stm32f4xx_hal_hcd.c ****         }
 439:Drivers/STM32F4xx_HAL_Driver/Src/stm32f4xx_hal_hcd.c ****       }
 440:Drivers/STM32F4xx_HAL_Driver/Src/stm32f4xx_hal_hcd.c **** 
 441:Drivers/STM32F4xx_HAL_Driver/Src/stm32f4xx_hal_hcd.c ****       break;
 442:Drivers/STM32F4xx_HAL_Driver/Src/stm32f4xx_hal_hcd.c ****     case EP_TYPE_INTR:
ARM GAS  /var/folders/lp/x54gwt890xv47sdkqj1k04q40000gn/T//cctevgvi.s 			page 19


 443:Drivers/STM32F4xx_HAL_Driver/Src/stm32f4xx_hal_hcd.c ****       if (direction == 0U)
 444:Drivers/STM32F4xx_HAL_Driver/Src/stm32f4xx_hal_hcd.c ****       {
 445:Drivers/STM32F4xx_HAL_Driver/Src/stm32f4xx_hal_hcd.c ****         /* Set the Data Toggle bit as per the Flag */
 446:Drivers/STM32F4xx_HAL_Driver/Src/stm32f4xx_hal_hcd.c ****         if (hhcd->hc[ch_num].toggle_out == 0U)
 447:Drivers/STM32F4xx_HAL_Driver/Src/stm32f4xx_hal_hcd.c ****         {
 448:Drivers/STM32F4xx_HAL_Driver/Src/stm32f4xx_hal_hcd.c ****           /* Put the PID 0 */
 449:Drivers/STM32F4xx_HAL_Driver/Src/stm32f4xx_hal_hcd.c ****           hhcd->hc[ch_num].data_pid = HC_PID_DATA0;
 450:Drivers/STM32F4xx_HAL_Driver/Src/stm32f4xx_hal_hcd.c ****         }
 451:Drivers/STM32F4xx_HAL_Driver/Src/stm32f4xx_hal_hcd.c ****         else
 452:Drivers/STM32F4xx_HAL_Driver/Src/stm32f4xx_hal_hcd.c ****         {
 453:Drivers/STM32F4xx_HAL_Driver/Src/stm32f4xx_hal_hcd.c ****           /* Put the PID 1 */
 454:Drivers/STM32F4xx_HAL_Driver/Src/stm32f4xx_hal_hcd.c ****           hhcd->hc[ch_num].data_pid = HC_PID_DATA1;
 455:Drivers/STM32F4xx_HAL_Driver/Src/stm32f4xx_hal_hcd.c ****         }
 456:Drivers/STM32F4xx_HAL_Driver/Src/stm32f4xx_hal_hcd.c ****       }
 457:Drivers/STM32F4xx_HAL_Driver/Src/stm32f4xx_hal_hcd.c ****       else
 458:Drivers/STM32F4xx_HAL_Driver/Src/stm32f4xx_hal_hcd.c ****       {
 459:Drivers/STM32F4xx_HAL_Driver/Src/stm32f4xx_hal_hcd.c ****         if (hhcd->hc[ch_num].toggle_in == 0U)
 460:Drivers/STM32F4xx_HAL_Driver/Src/stm32f4xx_hal_hcd.c ****         {
 461:Drivers/STM32F4xx_HAL_Driver/Src/stm32f4xx_hal_hcd.c ****           hhcd->hc[ch_num].data_pid = HC_PID_DATA0;
 462:Drivers/STM32F4xx_HAL_Driver/Src/stm32f4xx_hal_hcd.c ****         }
 463:Drivers/STM32F4xx_HAL_Driver/Src/stm32f4xx_hal_hcd.c ****         else
 464:Drivers/STM32F4xx_HAL_Driver/Src/stm32f4xx_hal_hcd.c ****         {
 465:Drivers/STM32F4xx_HAL_Driver/Src/stm32f4xx_hal_hcd.c ****           hhcd->hc[ch_num].data_pid = HC_PID_DATA1;
 466:Drivers/STM32F4xx_HAL_Driver/Src/stm32f4xx_hal_hcd.c ****         }
 467:Drivers/STM32F4xx_HAL_Driver/Src/stm32f4xx_hal_hcd.c ****       }
 468:Drivers/STM32F4xx_HAL_Driver/Src/stm32f4xx_hal_hcd.c ****       break;
 469:Drivers/STM32F4xx_HAL_Driver/Src/stm32f4xx_hal_hcd.c **** 
 470:Drivers/STM32F4xx_HAL_Driver/Src/stm32f4xx_hal_hcd.c ****     case EP_TYPE_ISOC:
 471:Drivers/STM32F4xx_HAL_Driver/Src/stm32f4xx_hal_hcd.c ****       hhcd->hc[ch_num].data_pid = HC_PID_DATA0;
 514              		.loc 1 471 7 view .LVU142
 515              		.loc 1 471 33 is_stmt 0 view .LVU143
 516 0040 2C23     		movs	r3, #44
 517              	.LVL31:
 518              		.loc 1 471 33 view .LVU144
 519 0042 03FB0C03 		mla	r3, r3, ip, r0
 520 0046 0022     		movs	r2, #0
 521              	.LVL32:
 522              	.L52:
 523              		.loc 1 471 33 view .LVU145
 524 0048 83F84220 		strb	r2, [r3, #66]
 472:Drivers/STM32F4xx_HAL_Driver/Src/stm32f4xx_hal_hcd.c ****       break;
 525              		.loc 1 472 7 is_stmt 1 view .LVU146
 526              	.L35:
 473:Drivers/STM32F4xx_HAL_Driver/Src/stm32f4xx_hal_hcd.c **** 
 474:Drivers/STM32F4xx_HAL_Driver/Src/stm32f4xx_hal_hcd.c ****     default:
 475:Drivers/STM32F4xx_HAL_Driver/Src/stm32f4xx_hal_hcd.c ****       break;
 476:Drivers/STM32F4xx_HAL_Driver/Src/stm32f4xx_hal_hcd.c ****   }
 477:Drivers/STM32F4xx_HAL_Driver/Src/stm32f4xx_hal_hcd.c **** 
 478:Drivers/STM32F4xx_HAL_Driver/Src/stm32f4xx_hal_hcd.c ****   hhcd->hc[ch_num].xfer_buff = pbuff;
 527              		.loc 1 478 3 view .LVU147
 528              		.loc 1 478 30 is_stmt 0 view .LVU148
 529 004c 2C21     		movs	r1, #44
 530 004e 01FB0CF3 		mul	r3, r1, ip
 531 0052 C218     		adds	r2, r0, r3
 479:Drivers/STM32F4xx_HAL_Driver/Src/stm32f4xx_hal_hcd.c ****   hhcd->hc[ch_num].xfer_len  = length;
 480:Drivers/STM32F4xx_HAL_Driver/Src/stm32f4xx_hal_hcd.c ****   hhcd->hc[ch_num].urb_state = URB_IDLE;
 532              		.loc 1 480 30 view .LVU149
ARM GAS  /var/folders/lp/x54gwt890xv47sdkqj1k04q40000gn/T//cctevgvi.s 			page 20


 533 0054 6033     		adds	r3, r3, #96
 479:Drivers/STM32F4xx_HAL_Driver/Src/stm32f4xx_hal_hcd.c ****   hhcd->hc[ch_num].xfer_len  = length;
 534              		.loc 1 479 30 view .LVU150
 535 0056 D464     		str	r4, [r2, #76]
 481:Drivers/STM32F4xx_HAL_Driver/Src/stm32f4xx_hal_hcd.c ****   hhcd->hc[ch_num].xfer_count = 0U;
 536              		.loc 1 481 31 view .LVU151
 537 0058 0024     		movs	r4, #0
 482:Drivers/STM32F4xx_HAL_Driver/Src/stm32f4xx_hal_hcd.c ****   hhcd->hc[ch_num].ch_num = ch_num;
 538              		.loc 1 482 27 view .LVU152
 539 005a 82F839C0 		strb	ip, [r2, #57]
 478:Drivers/STM32F4xx_HAL_Driver/Src/stm32f4xx_hal_hcd.c ****   hhcd->hc[ch_num].xfer_len  = length;
 540              		.loc 1 478 30 view .LVU153
 541 005e 5564     		str	r5, [r2, #68]
 479:Drivers/STM32F4xx_HAL_Driver/Src/stm32f4xx_hal_hcd.c ****   hhcd->hc[ch_num].urb_state = URB_IDLE;
 542              		.loc 1 479 3 is_stmt 1 view .LVU154
 480:Drivers/STM32F4xx_HAL_Driver/Src/stm32f4xx_hal_hcd.c ****   hhcd->hc[ch_num].xfer_count = 0U;
 543              		.loc 1 480 3 view .LVU155
 481:Drivers/STM32F4xx_HAL_Driver/Src/stm32f4xx_hal_hcd.c ****   hhcd->hc[ch_num].ch_num = ch_num;
 544              		.loc 1 481 3 view .LVU156
 481:Drivers/STM32F4xx_HAL_Driver/Src/stm32f4xx_hal_hcd.c ****   hhcd->hc[ch_num].ch_num = ch_num;
 545              		.loc 1 481 31 is_stmt 0 view .LVU157
 546 0060 1465     		str	r4, [r2, #80]
 547              		.loc 1 482 3 is_stmt 1 view .LVU158
 483:Drivers/STM32F4xx_HAL_Driver/Src/stm32f4xx_hal_hcd.c ****   hhcd->hc[ch_num].state = HC_IDLE;
 548              		.loc 1 483 3 view .LVU159
 480:Drivers/STM32F4xx_HAL_Driver/Src/stm32f4xx_hal_hcd.c ****   hhcd->hc[ch_num].xfer_count = 0U;
 549              		.loc 1 480 30 is_stmt 0 view .LVU160
 550 0062 C452     		strh	r4, [r0, r3]	@ movhi
 484:Drivers/STM32F4xx_HAL_Driver/Src/stm32f4xx_hal_hcd.c **** 
 485:Drivers/STM32F4xx_HAL_Driver/Src/stm32f4xx_hal_hcd.c ****   return USB_HC_StartXfer(hhcd->Instance, &hhcd->hc[ch_num], (uint8_t)hhcd->Init.dma_enable);
 551              		.loc 1 485 3 is_stmt 1 view .LVU161
 552              		.loc 1 485 43 is_stmt 0 view .LVU162
 553 0064 01FB0C01 		mla	r1, r1, ip, r0
 554              		.loc 1 485 10 view .LVU163
 555 0068 027C     		ldrb	r2, [r0, #16]	@ zero_extendqisi2
 556 006a 0068     		ldr	r0, [r0]
 557              	.LVL33:
 486:Drivers/STM32F4xx_HAL_Driver/Src/stm32f4xx_hal_hcd.c **** }
 558              		.loc 1 486 1 view .LVU164
 559 006c BDE87040 		pop	{r4, r5, r6, lr}
 560              		.cfi_remember_state
 561              		.cfi_restore 14
 562              		.cfi_restore 6
 563              		.cfi_restore 5
 564              		.cfi_restore 4
 565              		.cfi_def_cfa_offset 0
 566              	.LVL34:
 485:Drivers/STM32F4xx_HAL_Driver/Src/stm32f4xx_hal_hcd.c **** }
 567              		.loc 1 485 10 view .LVU165
 568 0070 3831     		adds	r1, r1, #56
 569 0072 FFF7FEBF 		b	USB_HC_StartXfer
 570              	.LVL35:
 571              	.L49:
 572              		.cfi_restore_state
 385:Drivers/STM32F4xx_HAL_Driver/Src/stm32f4xx_hal_hcd.c ****   }
 573              		.loc 1 385 31 view .LVU166
 574 0076 4FF0020E 		mov	lr, #2
ARM GAS  /var/folders/lp/x54gwt890xv47sdkqj1k04q40000gn/T//cctevgvi.s 			page 21


 575 007a D6E7     		b	.L34
 576              	.L36:
 443:Drivers/STM32F4xx_HAL_Driver/Src/stm32f4xx_hal_hcd.c ****       {
 577              		.loc 1 443 7 is_stmt 1 view .LVU167
 446:Drivers/STM32F4xx_HAL_Driver/Src/stm32f4xx_hal_hcd.c ****         {
 578              		.loc 1 446 29 is_stmt 0 view .LVU168
 579 007c 2C23     		movs	r3, #44
 580              	.LVL36:
 446:Drivers/STM32F4xx_HAL_Driver/Src/stm32f4xx_hal_hcd.c ****         {
 581              		.loc 1 446 29 view .LVU169
 582 007e 03FB0C03 		mla	r3, r3, ip, r0
 443:Drivers/STM32F4xx_HAL_Driver/Src/stm32f4xx_hal_hcd.c ****       {
 583              		.loc 1 443 10 view .LVU170
 584 0082 C2B9     		cbnz	r2, .L46
 446:Drivers/STM32F4xx_HAL_Driver/Src/stm32f4xx_hal_hcd.c ****         {
 585              		.loc 1 446 9 is_stmt 1 view .LVU171
 446:Drivers/STM32F4xx_HAL_Driver/Src/stm32f4xx_hal_hcd.c ****         {
 586              		.loc 1 446 12 is_stmt 0 view .LVU172
 587 0084 93F85510 		ldrb	r1, [r3, #85]	@ zero_extendqisi2
 588 0088 0029     		cmp	r1, #0
 589 008a DDD0     		beq	.L52
 465:Drivers/STM32F4xx_HAL_Driver/Src/stm32f4xx_hal_hcd.c ****         }
 590              		.loc 1 465 11 is_stmt 1 view .LVU173
 465:Drivers/STM32F4xx_HAL_Driver/Src/stm32f4xx_hal_hcd.c ****         }
 591              		.loc 1 465 37 is_stmt 0 view .LVU174
 592 008c 0222     		movs	r2, #2
 593              	.LVL37:
 465:Drivers/STM32F4xx_HAL_Driver/Src/stm32f4xx_hal_hcd.c ****         }
 594              		.loc 1 465 37 view .LVU175
 595 008e 83F84220 		strb	r2, [r3, #66]
 596 0092 DBE7     		b	.L35
 597              	.LVL38:
 598              	.L40:
 392:Drivers/STM32F4xx_HAL_Driver/Src/stm32f4xx_hal_hcd.c ****       {
 599              		.loc 1 392 7 is_stmt 1 view .LVU176
 392:Drivers/STM32F4xx_HAL_Driver/Src/stm32f4xx_hal_hcd.c ****       {
 600              		.loc 1 392 10 is_stmt 0 view .LVU177
 601 0094 012E     		cmp	r6, #1
 602 0096 D9D1     		bne	.L35
 392:Drivers/STM32F4xx_HAL_Driver/Src/stm32f4xx_hal_hcd.c ****       {
 603              		.loc 1 392 25 discriminator 1 view .LVU178
 604 0098 002A     		cmp	r2, #0
 605 009a D7D1     		bne	.L35
 394:Drivers/STM32F4xx_HAL_Driver/Src/stm32f4xx_hal_hcd.c ****         {
 606              		.loc 1 394 9 is_stmt 1 view .LVU179
 397:Drivers/STM32F4xx_HAL_Driver/Src/stm32f4xx_hal_hcd.c ****         }
 607              		.loc 1 397 39 is_stmt 0 view .LVU180
 608 009c 2C23     		movs	r3, #44
 609              	.LVL39:
 397:Drivers/STM32F4xx_HAL_Driver/Src/stm32f4xx_hal_hcd.c ****         }
 610              		.loc 1 397 39 view .LVU181
 611 009e 03FB0C03 		mla	r3, r3, ip, r0
 394:Drivers/STM32F4xx_HAL_Driver/Src/stm32f4xx_hal_hcd.c ****         {
 612              		.loc 1 394 12 view .LVU182
 613 00a2 84B9     		cbnz	r4, .L41
 397:Drivers/STM32F4xx_HAL_Driver/Src/stm32f4xx_hal_hcd.c ****         }
 614              		.loc 1 397 11 is_stmt 1 view .LVU183
ARM GAS  /var/folders/lp/x54gwt890xv47sdkqj1k04q40000gn/T//cctevgvi.s 			page 22


 397:Drivers/STM32F4xx_HAL_Driver/Src/stm32f4xx_hal_hcd.c ****         }
 615              		.loc 1 397 39 is_stmt 0 view .LVU184
 616 00a4 83F85560 		strb	r6, [r3, #85]
 401:Drivers/STM32F4xx_HAL_Driver/Src/stm32f4xx_hal_hcd.c ****         {
 617              		.loc 1 401 9 is_stmt 1 view .LVU185
 618              	.L42:
 409:Drivers/STM32F4xx_HAL_Driver/Src/stm32f4xx_hal_hcd.c ****         }
 619              		.loc 1 409 11 view .LVU186
 409:Drivers/STM32F4xx_HAL_Driver/Src/stm32f4xx_hal_hcd.c ****         }
 620              		.loc 1 409 37 is_stmt 0 view .LVU187
 621 00a8 2C23     		movs	r3, #44
 622 00aa 03FB0C03 		mla	r3, r3, ip, r0
 623 00ae 0222     		movs	r2, #2
 624              	.LVL40:
 409:Drivers/STM32F4xx_HAL_Driver/Src/stm32f4xx_hal_hcd.c ****         }
 625              		.loc 1 409 37 view .LVU188
 626 00b0 83F84220 		strb	r2, [r3, #66]
 627 00b4 CAE7     		b	.L35
 628              	.LVL41:
 629              	.L46:
 459:Drivers/STM32F4xx_HAL_Driver/Src/stm32f4xx_hal_hcd.c ****         {
 630              		.loc 1 459 9 is_stmt 1 view .LVU189
 459:Drivers/STM32F4xx_HAL_Driver/Src/stm32f4xx_hal_hcd.c ****         {
 631              		.loc 1 459 12 is_stmt 0 view .LVU190
 632 00b6 93F85420 		ldrb	r2, [r3, #84]	@ zero_extendqisi2
 633              	.LVL42:
 459:Drivers/STM32F4xx_HAL_Driver/Src/stm32f4xx_hal_hcd.c ****         {
 634              		.loc 1 459 12 view .LVU191
 635 00ba 002A     		cmp	r2, #0
 636 00bc C4D0     		beq	.L52
 465:Drivers/STM32F4xx_HAL_Driver/Src/stm32f4xx_hal_hcd.c ****         }
 637              		.loc 1 465 11 is_stmt 1 view .LVU192
 465:Drivers/STM32F4xx_HAL_Driver/Src/stm32f4xx_hal_hcd.c ****         }
 638              		.loc 1 465 37 is_stmt 0 view .LVU193
 639 00be 0222     		movs	r2, #2
 640 00c0 83F84220 		strb	r2, [r3, #66]
 641 00c4 C2E7     		b	.L35
 642              	.LVL43:
 643              	.L41:
 401:Drivers/STM32F4xx_HAL_Driver/Src/stm32f4xx_hal_hcd.c ****         {
 644              		.loc 1 401 9 is_stmt 1 view .LVU194
 401:Drivers/STM32F4xx_HAL_Driver/Src/stm32f4xx_hal_hcd.c ****         {
 645              		.loc 1 401 12 is_stmt 0 view .LVU195
 646 00c6 93F85510 		ldrb	r1, [r3, #85]	@ zero_extendqisi2
 647 00ca 0029     		cmp	r1, #0
 648 00cc BCD0     		beq	.L52
 649 00ce EBE7     		b	.L42
 650              		.cfi_endproc
 651              	.LFE241:
 653              		.section	.text.HAL_HCD_WKUP_IRQHandler,"ax",%progbits
 654              		.align	1
 655              		.p2align 2,,3
 656              		.global	HAL_HCD_WKUP_IRQHandler
 657              		.syntax unified
 658              		.thumb
 659              		.thumb_func
 661              	HAL_HCD_WKUP_IRQHandler:
ARM GAS  /var/folders/lp/x54gwt890xv47sdkqj1k04q40000gn/T//cctevgvi.s 			page 23


 662              	.LVL44:
 663              	.LFB243:
 487:Drivers/STM32F4xx_HAL_Driver/Src/stm32f4xx_hal_hcd.c **** 
 488:Drivers/STM32F4xx_HAL_Driver/Src/stm32f4xx_hal_hcd.c **** /**
 489:Drivers/STM32F4xx_HAL_Driver/Src/stm32f4xx_hal_hcd.c ****   * @brief  Handle HCD interrupt request.
 490:Drivers/STM32F4xx_HAL_Driver/Src/stm32f4xx_hal_hcd.c ****   * @param  hhcd HCD handle
 491:Drivers/STM32F4xx_HAL_Driver/Src/stm32f4xx_hal_hcd.c ****   * @retval None
 492:Drivers/STM32F4xx_HAL_Driver/Src/stm32f4xx_hal_hcd.c ****   */
 493:Drivers/STM32F4xx_HAL_Driver/Src/stm32f4xx_hal_hcd.c **** void HAL_HCD_IRQHandler(HCD_HandleTypeDef *hhcd)
 494:Drivers/STM32F4xx_HAL_Driver/Src/stm32f4xx_hal_hcd.c **** {
 495:Drivers/STM32F4xx_HAL_Driver/Src/stm32f4xx_hal_hcd.c ****   USB_OTG_GlobalTypeDef *USBx = hhcd->Instance;
 496:Drivers/STM32F4xx_HAL_Driver/Src/stm32f4xx_hal_hcd.c ****   uint32_t USBx_BASE = (uint32_t)USBx;
 497:Drivers/STM32F4xx_HAL_Driver/Src/stm32f4xx_hal_hcd.c ****   uint32_t i;
 498:Drivers/STM32F4xx_HAL_Driver/Src/stm32f4xx_hal_hcd.c ****   uint32_t interrupt;
 499:Drivers/STM32F4xx_HAL_Driver/Src/stm32f4xx_hal_hcd.c **** 
 500:Drivers/STM32F4xx_HAL_Driver/Src/stm32f4xx_hal_hcd.c ****   /* Ensure that we are in device mode */
 501:Drivers/STM32F4xx_HAL_Driver/Src/stm32f4xx_hal_hcd.c ****   if (USB_GetMode(hhcd->Instance) == USB_OTG_MODE_HOST)
 502:Drivers/STM32F4xx_HAL_Driver/Src/stm32f4xx_hal_hcd.c ****   {
 503:Drivers/STM32F4xx_HAL_Driver/Src/stm32f4xx_hal_hcd.c ****     /* Avoid spurious interrupt */
 504:Drivers/STM32F4xx_HAL_Driver/Src/stm32f4xx_hal_hcd.c ****     if (__HAL_HCD_IS_INVALID_INTERRUPT(hhcd))
 505:Drivers/STM32F4xx_HAL_Driver/Src/stm32f4xx_hal_hcd.c ****     {
 506:Drivers/STM32F4xx_HAL_Driver/Src/stm32f4xx_hal_hcd.c ****       return;
 507:Drivers/STM32F4xx_HAL_Driver/Src/stm32f4xx_hal_hcd.c ****     }
 508:Drivers/STM32F4xx_HAL_Driver/Src/stm32f4xx_hal_hcd.c **** 
 509:Drivers/STM32F4xx_HAL_Driver/Src/stm32f4xx_hal_hcd.c ****     if (__HAL_HCD_GET_FLAG(hhcd, USB_OTG_GINTSTS_PXFR_INCOMPISOOUT))
 510:Drivers/STM32F4xx_HAL_Driver/Src/stm32f4xx_hal_hcd.c ****     {
 511:Drivers/STM32F4xx_HAL_Driver/Src/stm32f4xx_hal_hcd.c ****       /* Incorrect mode, acknowledge the interrupt */
 512:Drivers/STM32F4xx_HAL_Driver/Src/stm32f4xx_hal_hcd.c ****       __HAL_HCD_CLEAR_FLAG(hhcd, USB_OTG_GINTSTS_PXFR_INCOMPISOOUT);
 513:Drivers/STM32F4xx_HAL_Driver/Src/stm32f4xx_hal_hcd.c ****     }
 514:Drivers/STM32F4xx_HAL_Driver/Src/stm32f4xx_hal_hcd.c **** 
 515:Drivers/STM32F4xx_HAL_Driver/Src/stm32f4xx_hal_hcd.c ****     if (__HAL_HCD_GET_FLAG(hhcd, USB_OTG_GINTSTS_IISOIXFR))
 516:Drivers/STM32F4xx_HAL_Driver/Src/stm32f4xx_hal_hcd.c ****     {
 517:Drivers/STM32F4xx_HAL_Driver/Src/stm32f4xx_hal_hcd.c ****       /* Incorrect mode, acknowledge the interrupt */
 518:Drivers/STM32F4xx_HAL_Driver/Src/stm32f4xx_hal_hcd.c ****       __HAL_HCD_CLEAR_FLAG(hhcd, USB_OTG_GINTSTS_IISOIXFR);
 519:Drivers/STM32F4xx_HAL_Driver/Src/stm32f4xx_hal_hcd.c ****     }
 520:Drivers/STM32F4xx_HAL_Driver/Src/stm32f4xx_hal_hcd.c **** 
 521:Drivers/STM32F4xx_HAL_Driver/Src/stm32f4xx_hal_hcd.c ****     if (__HAL_HCD_GET_FLAG(hhcd, USB_OTG_GINTSTS_PTXFE))
 522:Drivers/STM32F4xx_HAL_Driver/Src/stm32f4xx_hal_hcd.c ****     {
 523:Drivers/STM32F4xx_HAL_Driver/Src/stm32f4xx_hal_hcd.c ****       /* Incorrect mode, acknowledge the interrupt */
 524:Drivers/STM32F4xx_HAL_Driver/Src/stm32f4xx_hal_hcd.c ****       __HAL_HCD_CLEAR_FLAG(hhcd, USB_OTG_GINTSTS_PTXFE);
 525:Drivers/STM32F4xx_HAL_Driver/Src/stm32f4xx_hal_hcd.c ****     }
 526:Drivers/STM32F4xx_HAL_Driver/Src/stm32f4xx_hal_hcd.c **** 
 527:Drivers/STM32F4xx_HAL_Driver/Src/stm32f4xx_hal_hcd.c ****     if (__HAL_HCD_GET_FLAG(hhcd, USB_OTG_GINTSTS_MMIS))
 528:Drivers/STM32F4xx_HAL_Driver/Src/stm32f4xx_hal_hcd.c ****     {
 529:Drivers/STM32F4xx_HAL_Driver/Src/stm32f4xx_hal_hcd.c ****       /* Incorrect mode, acknowledge the interrupt */
 530:Drivers/STM32F4xx_HAL_Driver/Src/stm32f4xx_hal_hcd.c ****       __HAL_HCD_CLEAR_FLAG(hhcd, USB_OTG_GINTSTS_MMIS);
 531:Drivers/STM32F4xx_HAL_Driver/Src/stm32f4xx_hal_hcd.c ****     }
 532:Drivers/STM32F4xx_HAL_Driver/Src/stm32f4xx_hal_hcd.c **** 
 533:Drivers/STM32F4xx_HAL_Driver/Src/stm32f4xx_hal_hcd.c ****     /* Handle Host Disconnect Interrupts */
 534:Drivers/STM32F4xx_HAL_Driver/Src/stm32f4xx_hal_hcd.c ****     if (__HAL_HCD_GET_FLAG(hhcd, USB_OTG_GINTSTS_DISCINT))
 535:Drivers/STM32F4xx_HAL_Driver/Src/stm32f4xx_hal_hcd.c ****     {
 536:Drivers/STM32F4xx_HAL_Driver/Src/stm32f4xx_hal_hcd.c ****       __HAL_HCD_CLEAR_FLAG(hhcd, USB_OTG_GINTSTS_DISCINT);
 537:Drivers/STM32F4xx_HAL_Driver/Src/stm32f4xx_hal_hcd.c **** 
 538:Drivers/STM32F4xx_HAL_Driver/Src/stm32f4xx_hal_hcd.c ****       if ((USBx_HPRT0 & USB_OTG_HPRT_PCSTS) == 0U)
 539:Drivers/STM32F4xx_HAL_Driver/Src/stm32f4xx_hal_hcd.c ****       {
 540:Drivers/STM32F4xx_HAL_Driver/Src/stm32f4xx_hal_hcd.c ****         /* Flush USB Fifo */
 541:Drivers/STM32F4xx_HAL_Driver/Src/stm32f4xx_hal_hcd.c ****         (void)USB_FlushTxFifo(USBx, 0x10U);
ARM GAS  /var/folders/lp/x54gwt890xv47sdkqj1k04q40000gn/T//cctevgvi.s 			page 24


 542:Drivers/STM32F4xx_HAL_Driver/Src/stm32f4xx_hal_hcd.c ****         (void)USB_FlushRxFifo(USBx);
 543:Drivers/STM32F4xx_HAL_Driver/Src/stm32f4xx_hal_hcd.c **** 
 544:Drivers/STM32F4xx_HAL_Driver/Src/stm32f4xx_hal_hcd.c ****         /* Restore FS Clock */
 545:Drivers/STM32F4xx_HAL_Driver/Src/stm32f4xx_hal_hcd.c ****         (void)USB_InitFSLSPClkSel(hhcd->Instance, HCFG_48_MHZ);
 546:Drivers/STM32F4xx_HAL_Driver/Src/stm32f4xx_hal_hcd.c **** 
 547:Drivers/STM32F4xx_HAL_Driver/Src/stm32f4xx_hal_hcd.c ****         /* Handle Host Port Disconnect Interrupt */
 548:Drivers/STM32F4xx_HAL_Driver/Src/stm32f4xx_hal_hcd.c **** #if (USE_HAL_HCD_REGISTER_CALLBACKS == 1U)
 549:Drivers/STM32F4xx_HAL_Driver/Src/stm32f4xx_hal_hcd.c ****         hhcd->DisconnectCallback(hhcd);
 550:Drivers/STM32F4xx_HAL_Driver/Src/stm32f4xx_hal_hcd.c **** #else
 551:Drivers/STM32F4xx_HAL_Driver/Src/stm32f4xx_hal_hcd.c ****         HAL_HCD_Disconnect_Callback(hhcd);
 552:Drivers/STM32F4xx_HAL_Driver/Src/stm32f4xx_hal_hcd.c **** #endif /* USE_HAL_HCD_REGISTER_CALLBACKS */
 553:Drivers/STM32F4xx_HAL_Driver/Src/stm32f4xx_hal_hcd.c ****       }
 554:Drivers/STM32F4xx_HAL_Driver/Src/stm32f4xx_hal_hcd.c ****     }
 555:Drivers/STM32F4xx_HAL_Driver/Src/stm32f4xx_hal_hcd.c **** 
 556:Drivers/STM32F4xx_HAL_Driver/Src/stm32f4xx_hal_hcd.c ****     /* Handle Host Port Interrupts */
 557:Drivers/STM32F4xx_HAL_Driver/Src/stm32f4xx_hal_hcd.c ****     if (__HAL_HCD_GET_FLAG(hhcd, USB_OTG_GINTSTS_HPRTINT))
 558:Drivers/STM32F4xx_HAL_Driver/Src/stm32f4xx_hal_hcd.c ****     {
 559:Drivers/STM32F4xx_HAL_Driver/Src/stm32f4xx_hal_hcd.c ****       HCD_Port_IRQHandler(hhcd);
 560:Drivers/STM32F4xx_HAL_Driver/Src/stm32f4xx_hal_hcd.c ****     }
 561:Drivers/STM32F4xx_HAL_Driver/Src/stm32f4xx_hal_hcd.c **** 
 562:Drivers/STM32F4xx_HAL_Driver/Src/stm32f4xx_hal_hcd.c ****     /* Handle Host SOF Interrupt */
 563:Drivers/STM32F4xx_HAL_Driver/Src/stm32f4xx_hal_hcd.c ****     if (__HAL_HCD_GET_FLAG(hhcd, USB_OTG_GINTSTS_SOF))
 564:Drivers/STM32F4xx_HAL_Driver/Src/stm32f4xx_hal_hcd.c ****     {
 565:Drivers/STM32F4xx_HAL_Driver/Src/stm32f4xx_hal_hcd.c **** #if (USE_HAL_HCD_REGISTER_CALLBACKS == 1U)
 566:Drivers/STM32F4xx_HAL_Driver/Src/stm32f4xx_hal_hcd.c ****       hhcd->SOFCallback(hhcd);
 567:Drivers/STM32F4xx_HAL_Driver/Src/stm32f4xx_hal_hcd.c **** #else
 568:Drivers/STM32F4xx_HAL_Driver/Src/stm32f4xx_hal_hcd.c ****       HAL_HCD_SOF_Callback(hhcd);
 569:Drivers/STM32F4xx_HAL_Driver/Src/stm32f4xx_hal_hcd.c **** #endif /* USE_HAL_HCD_REGISTER_CALLBACKS */
 570:Drivers/STM32F4xx_HAL_Driver/Src/stm32f4xx_hal_hcd.c **** 
 571:Drivers/STM32F4xx_HAL_Driver/Src/stm32f4xx_hal_hcd.c ****       __HAL_HCD_CLEAR_FLAG(hhcd, USB_OTG_GINTSTS_SOF);
 572:Drivers/STM32F4xx_HAL_Driver/Src/stm32f4xx_hal_hcd.c ****     }
 573:Drivers/STM32F4xx_HAL_Driver/Src/stm32f4xx_hal_hcd.c **** 
 574:Drivers/STM32F4xx_HAL_Driver/Src/stm32f4xx_hal_hcd.c ****     /* Handle Rx Queue Level Interrupts */
 575:Drivers/STM32F4xx_HAL_Driver/Src/stm32f4xx_hal_hcd.c ****     if ((__HAL_HCD_GET_FLAG(hhcd, USB_OTG_GINTSTS_RXFLVL)) != 0U)
 576:Drivers/STM32F4xx_HAL_Driver/Src/stm32f4xx_hal_hcd.c ****     {
 577:Drivers/STM32F4xx_HAL_Driver/Src/stm32f4xx_hal_hcd.c ****       USB_MASK_INTERRUPT(hhcd->Instance, USB_OTG_GINTSTS_RXFLVL);
 578:Drivers/STM32F4xx_HAL_Driver/Src/stm32f4xx_hal_hcd.c **** 
 579:Drivers/STM32F4xx_HAL_Driver/Src/stm32f4xx_hal_hcd.c ****       HCD_RXQLVL_IRQHandler(hhcd);
 580:Drivers/STM32F4xx_HAL_Driver/Src/stm32f4xx_hal_hcd.c **** 
 581:Drivers/STM32F4xx_HAL_Driver/Src/stm32f4xx_hal_hcd.c ****       USB_UNMASK_INTERRUPT(hhcd->Instance, USB_OTG_GINTSTS_RXFLVL);
 582:Drivers/STM32F4xx_HAL_Driver/Src/stm32f4xx_hal_hcd.c ****     }
 583:Drivers/STM32F4xx_HAL_Driver/Src/stm32f4xx_hal_hcd.c **** 
 584:Drivers/STM32F4xx_HAL_Driver/Src/stm32f4xx_hal_hcd.c ****     /* Handle Host channel Interrupt */
 585:Drivers/STM32F4xx_HAL_Driver/Src/stm32f4xx_hal_hcd.c ****     if (__HAL_HCD_GET_FLAG(hhcd, USB_OTG_GINTSTS_HCINT))
 586:Drivers/STM32F4xx_HAL_Driver/Src/stm32f4xx_hal_hcd.c ****     {
 587:Drivers/STM32F4xx_HAL_Driver/Src/stm32f4xx_hal_hcd.c ****       interrupt = USB_HC_ReadInterrupt(hhcd->Instance);
 588:Drivers/STM32F4xx_HAL_Driver/Src/stm32f4xx_hal_hcd.c ****       for (i = 0U; i < hhcd->Init.Host_channels; i++)
 589:Drivers/STM32F4xx_HAL_Driver/Src/stm32f4xx_hal_hcd.c ****       {
 590:Drivers/STM32F4xx_HAL_Driver/Src/stm32f4xx_hal_hcd.c ****         if ((interrupt & (1UL << (i & 0xFU))) != 0U)
 591:Drivers/STM32F4xx_HAL_Driver/Src/stm32f4xx_hal_hcd.c ****         {
 592:Drivers/STM32F4xx_HAL_Driver/Src/stm32f4xx_hal_hcd.c ****           if ((USBx_HC(i)->HCCHAR & USB_OTG_HCCHAR_EPDIR) == USB_OTG_HCCHAR_EPDIR)
 593:Drivers/STM32F4xx_HAL_Driver/Src/stm32f4xx_hal_hcd.c ****           {
 594:Drivers/STM32F4xx_HAL_Driver/Src/stm32f4xx_hal_hcd.c ****             HCD_HC_IN_IRQHandler(hhcd, (uint8_t)i);
 595:Drivers/STM32F4xx_HAL_Driver/Src/stm32f4xx_hal_hcd.c ****           }
 596:Drivers/STM32F4xx_HAL_Driver/Src/stm32f4xx_hal_hcd.c ****           else
 597:Drivers/STM32F4xx_HAL_Driver/Src/stm32f4xx_hal_hcd.c ****           {
 598:Drivers/STM32F4xx_HAL_Driver/Src/stm32f4xx_hal_hcd.c ****             HCD_HC_OUT_IRQHandler(hhcd, (uint8_t)i);
ARM GAS  /var/folders/lp/x54gwt890xv47sdkqj1k04q40000gn/T//cctevgvi.s 			page 25


 599:Drivers/STM32F4xx_HAL_Driver/Src/stm32f4xx_hal_hcd.c ****           }
 600:Drivers/STM32F4xx_HAL_Driver/Src/stm32f4xx_hal_hcd.c ****         }
 601:Drivers/STM32F4xx_HAL_Driver/Src/stm32f4xx_hal_hcd.c ****       }
 602:Drivers/STM32F4xx_HAL_Driver/Src/stm32f4xx_hal_hcd.c ****       __HAL_HCD_CLEAR_FLAG(hhcd, USB_OTG_GINTSTS_HCINT);
 603:Drivers/STM32F4xx_HAL_Driver/Src/stm32f4xx_hal_hcd.c ****     }
 604:Drivers/STM32F4xx_HAL_Driver/Src/stm32f4xx_hal_hcd.c ****   }
 605:Drivers/STM32F4xx_HAL_Driver/Src/stm32f4xx_hal_hcd.c **** }
 606:Drivers/STM32F4xx_HAL_Driver/Src/stm32f4xx_hal_hcd.c **** 
 607:Drivers/STM32F4xx_HAL_Driver/Src/stm32f4xx_hal_hcd.c **** 
 608:Drivers/STM32F4xx_HAL_Driver/Src/stm32f4xx_hal_hcd.c **** /**
 609:Drivers/STM32F4xx_HAL_Driver/Src/stm32f4xx_hal_hcd.c ****   * @brief  Handles HCD Wakeup interrupt request.
 610:Drivers/STM32F4xx_HAL_Driver/Src/stm32f4xx_hal_hcd.c ****   * @param  hhcd HCD handle
 611:Drivers/STM32F4xx_HAL_Driver/Src/stm32f4xx_hal_hcd.c ****   * @retval HAL status
 612:Drivers/STM32F4xx_HAL_Driver/Src/stm32f4xx_hal_hcd.c ****   */
 613:Drivers/STM32F4xx_HAL_Driver/Src/stm32f4xx_hal_hcd.c **** void HAL_HCD_WKUP_IRQHandler(HCD_HandleTypeDef *hhcd)
 614:Drivers/STM32F4xx_HAL_Driver/Src/stm32f4xx_hal_hcd.c **** {
 664              		.loc 1 614 1 is_stmt 1 view -0
 665              		.cfi_startproc
 666              		@ args = 0, pretend = 0, frame = 0
 667              		@ frame_needed = 0, uses_anonymous_args = 0
 668              		@ link register save eliminated.
 615:Drivers/STM32F4xx_HAL_Driver/Src/stm32f4xx_hal_hcd.c ****   UNUSED(hhcd);
 669              		.loc 1 615 3 view .LVU197
 616:Drivers/STM32F4xx_HAL_Driver/Src/stm32f4xx_hal_hcd.c **** }
 670              		.loc 1 616 1 is_stmt 0 view .LVU198
 671 0000 7047     		bx	lr
 672              		.cfi_endproc
 673              	.LFE243:
 675 0002 00BF     		.section	.text.HAL_HCD_SOF_Callback,"ax",%progbits
 676              		.align	1
 677              		.p2align 2,,3
 678              		.weak	HAL_HCD_SOF_Callback
 679              		.syntax unified
 680              		.thumb
 681              		.thumb_func
 683              	HAL_HCD_SOF_Callback:
 684              	.LFB266:
 685              		.cfi_startproc
 617:Drivers/STM32F4xx_HAL_Driver/Src/stm32f4xx_hal_hcd.c **** 
 618:Drivers/STM32F4xx_HAL_Driver/Src/stm32f4xx_hal_hcd.c **** 
 619:Drivers/STM32F4xx_HAL_Driver/Src/stm32f4xx_hal_hcd.c **** /**
 620:Drivers/STM32F4xx_HAL_Driver/Src/stm32f4xx_hal_hcd.c ****   * @brief  SOF callback.
 621:Drivers/STM32F4xx_HAL_Driver/Src/stm32f4xx_hal_hcd.c ****   * @param  hhcd HCD handle
 622:Drivers/STM32F4xx_HAL_Driver/Src/stm32f4xx_hal_hcd.c ****   * @retval None
 623:Drivers/STM32F4xx_HAL_Driver/Src/stm32f4xx_hal_hcd.c ****   */
 624:Drivers/STM32F4xx_HAL_Driver/Src/stm32f4xx_hal_hcd.c **** __weak void HAL_HCD_SOF_Callback(HCD_HandleTypeDef *hhcd)
 686              		.loc 1 624 13 is_stmt 1 view -0
 687              		@ args = 0, pretend = 0, frame = 0
 688              		@ frame_needed = 0, uses_anonymous_args = 0
 689              		@ link register save eliminated.
 690 0000 7047     		bx	lr
 691              		.cfi_endproc
 692              	.LFE266:
 694 0002 00BF     		.section	.text.HAL_HCD_Connect_Callback,"ax",%progbits
 695              		.align	1
 696              		.p2align 2,,3
 697              		.weak	HAL_HCD_Connect_Callback
ARM GAS  /var/folders/lp/x54gwt890xv47sdkqj1k04q40000gn/T//cctevgvi.s 			page 26


 698              		.syntax unified
 699              		.thumb
 700              		.thumb_func
 702              	HAL_HCD_Connect_Callback:
 703              	.LFB268:
 704              		.cfi_startproc
 625:Drivers/STM32F4xx_HAL_Driver/Src/stm32f4xx_hal_hcd.c **** {
 626:Drivers/STM32F4xx_HAL_Driver/Src/stm32f4xx_hal_hcd.c ****   /* Prevent unused argument(s) compilation warning */
 627:Drivers/STM32F4xx_HAL_Driver/Src/stm32f4xx_hal_hcd.c ****   UNUSED(hhcd);
 628:Drivers/STM32F4xx_HAL_Driver/Src/stm32f4xx_hal_hcd.c **** 
 629:Drivers/STM32F4xx_HAL_Driver/Src/stm32f4xx_hal_hcd.c ****   /* NOTE : This function should not be modified, when the callback is needed,
 630:Drivers/STM32F4xx_HAL_Driver/Src/stm32f4xx_hal_hcd.c ****             the HAL_HCD_SOF_Callback could be implemented in the user file
 631:Drivers/STM32F4xx_HAL_Driver/Src/stm32f4xx_hal_hcd.c ****    */
 632:Drivers/STM32F4xx_HAL_Driver/Src/stm32f4xx_hal_hcd.c **** }
 633:Drivers/STM32F4xx_HAL_Driver/Src/stm32f4xx_hal_hcd.c **** 
 634:Drivers/STM32F4xx_HAL_Driver/Src/stm32f4xx_hal_hcd.c **** /**
 635:Drivers/STM32F4xx_HAL_Driver/Src/stm32f4xx_hal_hcd.c ****   * @brief Connection Event callback.
 636:Drivers/STM32F4xx_HAL_Driver/Src/stm32f4xx_hal_hcd.c ****   * @param  hhcd HCD handle
 637:Drivers/STM32F4xx_HAL_Driver/Src/stm32f4xx_hal_hcd.c ****   * @retval None
 638:Drivers/STM32F4xx_HAL_Driver/Src/stm32f4xx_hal_hcd.c ****   */
 639:Drivers/STM32F4xx_HAL_Driver/Src/stm32f4xx_hal_hcd.c **** __weak void HAL_HCD_Connect_Callback(HCD_HandleTypeDef *hhcd)
 705              		.loc 1 639 13 view -0
 706              		@ args = 0, pretend = 0, frame = 0
 707              		@ frame_needed = 0, uses_anonymous_args = 0
 708              		@ link register save eliminated.
 709 0000 7047     		bx	lr
 710              		.cfi_endproc
 711              	.LFE268:
 713 0002 00BF     		.section	.text.HAL_HCD_Disconnect_Callback,"ax",%progbits
 714              		.align	1
 715              		.p2align 2,,3
 716              		.weak	HAL_HCD_Disconnect_Callback
 717              		.syntax unified
 718              		.thumb
 719              		.thumb_func
 721              	HAL_HCD_Disconnect_Callback:
 722              	.LFB270:
 723              		.cfi_startproc
 640:Drivers/STM32F4xx_HAL_Driver/Src/stm32f4xx_hal_hcd.c **** {
 641:Drivers/STM32F4xx_HAL_Driver/Src/stm32f4xx_hal_hcd.c ****   /* Prevent unused argument(s) compilation warning */
 642:Drivers/STM32F4xx_HAL_Driver/Src/stm32f4xx_hal_hcd.c ****   UNUSED(hhcd);
 643:Drivers/STM32F4xx_HAL_Driver/Src/stm32f4xx_hal_hcd.c **** 
 644:Drivers/STM32F4xx_HAL_Driver/Src/stm32f4xx_hal_hcd.c ****   /* NOTE : This function should not be modified, when the callback is needed,
 645:Drivers/STM32F4xx_HAL_Driver/Src/stm32f4xx_hal_hcd.c ****             the HAL_HCD_Connect_Callback could be implemented in the user file
 646:Drivers/STM32F4xx_HAL_Driver/Src/stm32f4xx_hal_hcd.c ****    */
 647:Drivers/STM32F4xx_HAL_Driver/Src/stm32f4xx_hal_hcd.c **** }
 648:Drivers/STM32F4xx_HAL_Driver/Src/stm32f4xx_hal_hcd.c **** 
 649:Drivers/STM32F4xx_HAL_Driver/Src/stm32f4xx_hal_hcd.c **** /**
 650:Drivers/STM32F4xx_HAL_Driver/Src/stm32f4xx_hal_hcd.c ****   * @brief  Disconnection Event callback.
 651:Drivers/STM32F4xx_HAL_Driver/Src/stm32f4xx_hal_hcd.c ****   * @param  hhcd HCD handle
 652:Drivers/STM32F4xx_HAL_Driver/Src/stm32f4xx_hal_hcd.c ****   * @retval None
 653:Drivers/STM32F4xx_HAL_Driver/Src/stm32f4xx_hal_hcd.c ****   */
 654:Drivers/STM32F4xx_HAL_Driver/Src/stm32f4xx_hal_hcd.c **** __weak void HAL_HCD_Disconnect_Callback(HCD_HandleTypeDef *hhcd)
 724              		.loc 1 654 13 view -0
 725              		@ args = 0, pretend = 0, frame = 0
 726              		@ frame_needed = 0, uses_anonymous_args = 0
 727              		@ link register save eliminated.
ARM GAS  /var/folders/lp/x54gwt890xv47sdkqj1k04q40000gn/T//cctevgvi.s 			page 27


 728 0000 7047     		bx	lr
 729              		.cfi_endproc
 730              	.LFE270:
 732 0002 00BF     		.section	.text.HAL_HCD_PortEnabled_Callback,"ax",%progbits
 733              		.align	1
 734              		.p2align 2,,3
 735              		.weak	HAL_HCD_PortEnabled_Callback
 736              		.syntax unified
 737              		.thumb
 738              		.thumb_func
 740              	HAL_HCD_PortEnabled_Callback:
 741              	.LFB272:
 742              		.cfi_startproc
 655:Drivers/STM32F4xx_HAL_Driver/Src/stm32f4xx_hal_hcd.c **** {
 656:Drivers/STM32F4xx_HAL_Driver/Src/stm32f4xx_hal_hcd.c ****   /* Prevent unused argument(s) compilation warning */
 657:Drivers/STM32F4xx_HAL_Driver/Src/stm32f4xx_hal_hcd.c ****   UNUSED(hhcd);
 658:Drivers/STM32F4xx_HAL_Driver/Src/stm32f4xx_hal_hcd.c **** 
 659:Drivers/STM32F4xx_HAL_Driver/Src/stm32f4xx_hal_hcd.c ****   /* NOTE : This function should not be modified, when the callback is needed,
 660:Drivers/STM32F4xx_HAL_Driver/Src/stm32f4xx_hal_hcd.c ****             the HAL_HCD_Disconnect_Callback could be implemented in the user file
 661:Drivers/STM32F4xx_HAL_Driver/Src/stm32f4xx_hal_hcd.c ****    */
 662:Drivers/STM32F4xx_HAL_Driver/Src/stm32f4xx_hal_hcd.c **** }
 663:Drivers/STM32F4xx_HAL_Driver/Src/stm32f4xx_hal_hcd.c **** 
 664:Drivers/STM32F4xx_HAL_Driver/Src/stm32f4xx_hal_hcd.c **** /**
 665:Drivers/STM32F4xx_HAL_Driver/Src/stm32f4xx_hal_hcd.c ****   * @brief  Port Enabled  Event callback.
 666:Drivers/STM32F4xx_HAL_Driver/Src/stm32f4xx_hal_hcd.c ****   * @param  hhcd HCD handle
 667:Drivers/STM32F4xx_HAL_Driver/Src/stm32f4xx_hal_hcd.c ****   * @retval None
 668:Drivers/STM32F4xx_HAL_Driver/Src/stm32f4xx_hal_hcd.c ****   */
 669:Drivers/STM32F4xx_HAL_Driver/Src/stm32f4xx_hal_hcd.c **** __weak void HAL_HCD_PortEnabled_Callback(HCD_HandleTypeDef *hhcd)
 743              		.loc 1 669 13 view -0
 744              		@ args = 0, pretend = 0, frame = 0
 745              		@ frame_needed = 0, uses_anonymous_args = 0
 746              		@ link register save eliminated.
 747 0000 7047     		bx	lr
 748              		.cfi_endproc
 749              	.LFE272:
 751 0002 00BF     		.section	.text.HAL_HCD_PortDisabled_Callback,"ax",%progbits
 752              		.align	1
 753              		.p2align 2,,3
 754              		.weak	HAL_HCD_PortDisabled_Callback
 755              		.syntax unified
 756              		.thumb
 757              		.thumb_func
 759              	HAL_HCD_PortDisabled_Callback:
 760              	.LFB274:
 761              		.cfi_startproc
 670:Drivers/STM32F4xx_HAL_Driver/Src/stm32f4xx_hal_hcd.c **** {
 671:Drivers/STM32F4xx_HAL_Driver/Src/stm32f4xx_hal_hcd.c ****   /* Prevent unused argument(s) compilation warning */
 672:Drivers/STM32F4xx_HAL_Driver/Src/stm32f4xx_hal_hcd.c ****   UNUSED(hhcd);
 673:Drivers/STM32F4xx_HAL_Driver/Src/stm32f4xx_hal_hcd.c **** 
 674:Drivers/STM32F4xx_HAL_Driver/Src/stm32f4xx_hal_hcd.c ****   /* NOTE : This function should not be modified, when the callback is needed,
 675:Drivers/STM32F4xx_HAL_Driver/Src/stm32f4xx_hal_hcd.c ****             the HAL_HCD_Disconnect_Callback could be implemented in the user file
 676:Drivers/STM32F4xx_HAL_Driver/Src/stm32f4xx_hal_hcd.c ****    */
 677:Drivers/STM32F4xx_HAL_Driver/Src/stm32f4xx_hal_hcd.c **** }
 678:Drivers/STM32F4xx_HAL_Driver/Src/stm32f4xx_hal_hcd.c **** 
 679:Drivers/STM32F4xx_HAL_Driver/Src/stm32f4xx_hal_hcd.c **** /**
 680:Drivers/STM32F4xx_HAL_Driver/Src/stm32f4xx_hal_hcd.c ****   * @brief  Port Disabled  Event callback.
 681:Drivers/STM32F4xx_HAL_Driver/Src/stm32f4xx_hal_hcd.c ****   * @param  hhcd HCD handle
ARM GAS  /var/folders/lp/x54gwt890xv47sdkqj1k04q40000gn/T//cctevgvi.s 			page 28


 682:Drivers/STM32F4xx_HAL_Driver/Src/stm32f4xx_hal_hcd.c ****   * @retval None
 683:Drivers/STM32F4xx_HAL_Driver/Src/stm32f4xx_hal_hcd.c ****   */
 684:Drivers/STM32F4xx_HAL_Driver/Src/stm32f4xx_hal_hcd.c **** __weak void HAL_HCD_PortDisabled_Callback(HCD_HandleTypeDef *hhcd)
 762              		.loc 1 684 13 view -0
 763              		@ args = 0, pretend = 0, frame = 0
 764              		@ frame_needed = 0, uses_anonymous_args = 0
 765              		@ link register save eliminated.
 766 0000 7047     		bx	lr
 767              		.cfi_endproc
 768              	.LFE274:
 770 0002 00BF     		.section	.text.HAL_HCD_HC_NotifyURBChange_Callback,"ax",%progbits
 771              		.align	1
 772              		.p2align 2,,3
 773              		.weak	HAL_HCD_HC_NotifyURBChange_Callback
 774              		.syntax unified
 775              		.thumb
 776              		.thumb_func
 778              	HAL_HCD_HC_NotifyURBChange_Callback:
 779              	.LVL45:
 780              	.LFB249:
 685:Drivers/STM32F4xx_HAL_Driver/Src/stm32f4xx_hal_hcd.c **** {
 686:Drivers/STM32F4xx_HAL_Driver/Src/stm32f4xx_hal_hcd.c ****   /* Prevent unused argument(s) compilation warning */
 687:Drivers/STM32F4xx_HAL_Driver/Src/stm32f4xx_hal_hcd.c ****   UNUSED(hhcd);
 688:Drivers/STM32F4xx_HAL_Driver/Src/stm32f4xx_hal_hcd.c **** 
 689:Drivers/STM32F4xx_HAL_Driver/Src/stm32f4xx_hal_hcd.c ****   /* NOTE : This function should not be modified, when the callback is needed,
 690:Drivers/STM32F4xx_HAL_Driver/Src/stm32f4xx_hal_hcd.c ****             the HAL_HCD_Disconnect_Callback could be implemented in the user file
 691:Drivers/STM32F4xx_HAL_Driver/Src/stm32f4xx_hal_hcd.c ****    */
 692:Drivers/STM32F4xx_HAL_Driver/Src/stm32f4xx_hal_hcd.c **** }
 693:Drivers/STM32F4xx_HAL_Driver/Src/stm32f4xx_hal_hcd.c **** 
 694:Drivers/STM32F4xx_HAL_Driver/Src/stm32f4xx_hal_hcd.c **** /**
 695:Drivers/STM32F4xx_HAL_Driver/Src/stm32f4xx_hal_hcd.c ****   * @brief  Notify URB state change callback.
 696:Drivers/STM32F4xx_HAL_Driver/Src/stm32f4xx_hal_hcd.c ****   * @param  hhcd HCD handle
 697:Drivers/STM32F4xx_HAL_Driver/Src/stm32f4xx_hal_hcd.c ****   * @param  chnum Channel number.
 698:Drivers/STM32F4xx_HAL_Driver/Src/stm32f4xx_hal_hcd.c ****   *         This parameter can be a value from 1 to 15
 699:Drivers/STM32F4xx_HAL_Driver/Src/stm32f4xx_hal_hcd.c ****   * @param  urb_state:
 700:Drivers/STM32F4xx_HAL_Driver/Src/stm32f4xx_hal_hcd.c ****   *          This parameter can be one of these values:
 701:Drivers/STM32F4xx_HAL_Driver/Src/stm32f4xx_hal_hcd.c ****   *            URB_IDLE/
 702:Drivers/STM32F4xx_HAL_Driver/Src/stm32f4xx_hal_hcd.c ****   *            URB_DONE/
 703:Drivers/STM32F4xx_HAL_Driver/Src/stm32f4xx_hal_hcd.c ****   *            URB_NOTREADY/
 704:Drivers/STM32F4xx_HAL_Driver/Src/stm32f4xx_hal_hcd.c ****   *            URB_NYET/
 705:Drivers/STM32F4xx_HAL_Driver/Src/stm32f4xx_hal_hcd.c ****   *            URB_ERROR/
 706:Drivers/STM32F4xx_HAL_Driver/Src/stm32f4xx_hal_hcd.c ****   *            URB_STALL/
 707:Drivers/STM32F4xx_HAL_Driver/Src/stm32f4xx_hal_hcd.c ****   * @retval None
 708:Drivers/STM32F4xx_HAL_Driver/Src/stm32f4xx_hal_hcd.c ****   */
 709:Drivers/STM32F4xx_HAL_Driver/Src/stm32f4xx_hal_hcd.c **** __weak void HAL_HCD_HC_NotifyURBChange_Callback(HCD_HandleTypeDef *hhcd, uint8_t chnum, HCD_URBStat
 710:Drivers/STM32F4xx_HAL_Driver/Src/stm32f4xx_hal_hcd.c **** {
 781              		.loc 1 710 1 view -0
 782              		.cfi_startproc
 783              		@ args = 0, pretend = 0, frame = 0
 784              		@ frame_needed = 0, uses_anonymous_args = 0
 785              		@ link register save eliminated.
 711:Drivers/STM32F4xx_HAL_Driver/Src/stm32f4xx_hal_hcd.c ****   /* Prevent unused argument(s) compilation warning */
 712:Drivers/STM32F4xx_HAL_Driver/Src/stm32f4xx_hal_hcd.c ****   UNUSED(hhcd);
 786              		.loc 1 712 3 view .LVU205
 713:Drivers/STM32F4xx_HAL_Driver/Src/stm32f4xx_hal_hcd.c ****   UNUSED(chnum);
 787              		.loc 1 713 3 view .LVU206
 714:Drivers/STM32F4xx_HAL_Driver/Src/stm32f4xx_hal_hcd.c ****   UNUSED(urb_state);
ARM GAS  /var/folders/lp/x54gwt890xv47sdkqj1k04q40000gn/T//cctevgvi.s 			page 29


 788              		.loc 1 714 3 view .LVU207
 715:Drivers/STM32F4xx_HAL_Driver/Src/stm32f4xx_hal_hcd.c **** 
 716:Drivers/STM32F4xx_HAL_Driver/Src/stm32f4xx_hal_hcd.c ****   /* NOTE : This function should not be modified, when the callback is needed,
 717:Drivers/STM32F4xx_HAL_Driver/Src/stm32f4xx_hal_hcd.c ****             the HAL_HCD_HC_NotifyURBChange_Callback could be implemented in the user file
 718:Drivers/STM32F4xx_HAL_Driver/Src/stm32f4xx_hal_hcd.c ****    */
 719:Drivers/STM32F4xx_HAL_Driver/Src/stm32f4xx_hal_hcd.c **** }
 789              		.loc 1 719 1 is_stmt 0 view .LVU208
 790 0000 7047     		bx	lr
 791              		.cfi_endproc
 792              	.LFE249:
 794 0002 00BF     		.section	.text.HAL_HCD_IRQHandler,"ax",%progbits
 795              		.align	1
 796              		.p2align 2,,3
 797              		.global	HAL_HCD_IRQHandler
 798              		.syntax unified
 799              		.thumb
 800              		.thumb_func
 802              	HAL_HCD_IRQHandler:
 803              	.LVL46:
 804              	.LFB242:
 494:Drivers/STM32F4xx_HAL_Driver/Src/stm32f4xx_hal_hcd.c ****   USB_OTG_GlobalTypeDef *USBx = hhcd->Instance;
 805              		.loc 1 494 1 is_stmt 1 view -0
 806              		.cfi_startproc
 807              		@ args = 0, pretend = 0, frame = 16
 808              		@ frame_needed = 0, uses_anonymous_args = 0
 495:Drivers/STM32F4xx_HAL_Driver/Src/stm32f4xx_hal_hcd.c ****   uint32_t USBx_BASE = (uint32_t)USBx;
 809              		.loc 1 495 3 view .LVU210
 494:Drivers/STM32F4xx_HAL_Driver/Src/stm32f4xx_hal_hcd.c ****   USB_OTG_GlobalTypeDef *USBx = hhcd->Instance;
 810              		.loc 1 494 1 is_stmt 0 view .LVU211
 811 0000 2DE9F04F 		push	{r4, r5, r6, r7, r8, r9, r10, fp, lr}
 812              		.cfi_def_cfa_offset 36
 813              		.cfi_offset 4, -36
 814              		.cfi_offset 5, -32
 815              		.cfi_offset 6, -28
 816              		.cfi_offset 7, -24
 817              		.cfi_offset 8, -20
 818              		.cfi_offset 9, -16
 819              		.cfi_offset 10, -12
 820              		.cfi_offset 11, -8
 821              		.cfi_offset 14, -4
 495:Drivers/STM32F4xx_HAL_Driver/Src/stm32f4xx_hal_hcd.c ****   uint32_t USBx_BASE = (uint32_t)USBx;
 822              		.loc 1 495 26 view .LVU212
 823 0004 0568     		ldr	r5, [r0]
 824              	.LVL47:
 496:Drivers/STM32F4xx_HAL_Driver/Src/stm32f4xx_hal_hcd.c ****   uint32_t i;
 825              		.loc 1 496 3 is_stmt 1 view .LVU213
 497:Drivers/STM32F4xx_HAL_Driver/Src/stm32f4xx_hal_hcd.c ****   uint32_t interrupt;
 826              		.loc 1 497 3 view .LVU214
 498:Drivers/STM32F4xx_HAL_Driver/Src/stm32f4xx_hal_hcd.c **** 
 827              		.loc 1 498 3 view .LVU215
 501:Drivers/STM32F4xx_HAL_Driver/Src/stm32f4xx_hal_hcd.c ****   {
 828              		.loc 1 501 3 view .LVU216
 494:Drivers/STM32F4xx_HAL_Driver/Src/stm32f4xx_hal_hcd.c ****   USB_OTG_GlobalTypeDef *USBx = hhcd->Instance;
 829              		.loc 1 494 1 is_stmt 0 view .LVU217
 830 0006 85B0     		sub	sp, sp, #20
 831              		.cfi_def_cfa_offset 56
 494:Drivers/STM32F4xx_HAL_Driver/Src/stm32f4xx_hal_hcd.c ****   USB_OTG_GlobalTypeDef *USBx = hhcd->Instance;
ARM GAS  /var/folders/lp/x54gwt890xv47sdkqj1k04q40000gn/T//cctevgvi.s 			page 30


 832              		.loc 1 494 1 view .LVU218
 833 0008 0446     		mov	r4, r0
 501:Drivers/STM32F4xx_HAL_Driver/Src/stm32f4xx_hal_hcd.c ****   {
 834              		.loc 1 501 7 view .LVU219
 835 000a 2846     		mov	r0, r5
 836              	.LVL48:
 501:Drivers/STM32F4xx_HAL_Driver/Src/stm32f4xx_hal_hcd.c ****   {
 837              		.loc 1 501 7 view .LVU220
 838 000c FFF7FEFF 		bl	USB_GetMode
 839              	.LVL49:
 501:Drivers/STM32F4xx_HAL_Driver/Src/stm32f4xx_hal_hcd.c ****   {
 840              		.loc 1 501 6 discriminator 1 view .LVU221
 841 0010 0128     		cmp	r0, #1
 842 0012 02D0     		beq	.L224
 843              	.LVL50:
 844              	.L65:
 605:Drivers/STM32F4xx_HAL_Driver/Src/stm32f4xx_hal_hcd.c **** 
 845              		.loc 1 605 1 view .LVU222
 846 0014 05B0     		add	sp, sp, #20
 847              		.cfi_remember_state
 848              		.cfi_def_cfa_offset 36
 849              		@ sp needed
 850 0016 BDE8F08F 		pop	{r4, r5, r6, r7, r8, r9, r10, fp, pc}
 851              	.LVL51:
 852              	.L224:
 853              		.cfi_restore_state
 504:Drivers/STM32F4xx_HAL_Driver/Src/stm32f4xx_hal_hcd.c ****     {
 854              		.loc 1 504 5 is_stmt 1 view .LVU223
 504:Drivers/STM32F4xx_HAL_Driver/Src/stm32f4xx_hal_hcd.c ****     {
 855              		.loc 1 504 9 is_stmt 0 view .LVU224
 856 001a 2068     		ldr	r0, [r4]
 857 001c FFF7FEFF 		bl	USB_ReadInterrupts
 858              	.LVL52:
 504:Drivers/STM32F4xx_HAL_Driver/Src/stm32f4xx_hal_hcd.c ****     {
 859              		.loc 1 504 8 discriminator 1 view .LVU225
 860 0020 0028     		cmp	r0, #0
 861 0022 F7D0     		beq	.L65
 509:Drivers/STM32F4xx_HAL_Driver/Src/stm32f4xx_hal_hcd.c ****     {
 862              		.loc 1 509 5 is_stmt 1 view .LVU226
 509:Drivers/STM32F4xx_HAL_Driver/Src/stm32f4xx_hal_hcd.c ****     {
 863              		.loc 1 509 9 is_stmt 0 view .LVU227
 864 0024 2068     		ldr	r0, [r4]
 865 0026 FFF7FEFF 		bl	USB_ReadInterrupts
 866              	.LVL53:
 509:Drivers/STM32F4xx_HAL_Driver/Src/stm32f4xx_hal_hcd.c ****     {
 867              		.loc 1 509 8 discriminator 1 view .LVU228
 868 002a 10F4001F 		tst	r0, #2097152
 512:Drivers/STM32F4xx_HAL_Driver/Src/stm32f4xx_hal_hcd.c ****     }
 869              		.loc 1 512 7 view .LVU229
 870 002e 2068     		ldr	r0, [r4]
 512:Drivers/STM32F4xx_HAL_Driver/Src/stm32f4xx_hal_hcd.c ****     }
 871              		.loc 1 512 7 is_stmt 1 view .LVU230
 515:Drivers/STM32F4xx_HAL_Driver/Src/stm32f4xx_hal_hcd.c ****     {
 872              		.loc 1 515 5 view .LVU231
 512:Drivers/STM32F4xx_HAL_Driver/Src/stm32f4xx_hal_hcd.c ****     }
 873              		.loc 1 512 7 is_stmt 0 view .LVU232
 874 0030 1CBF     		itt	ne
ARM GAS  /var/folders/lp/x54gwt890xv47sdkqj1k04q40000gn/T//cctevgvi.s 			page 31


 875 0032 4FF40013 		movne	r3, #2097152
 876 0036 4361     		strne	r3, [r0, #20]
 515:Drivers/STM32F4xx_HAL_Driver/Src/stm32f4xx_hal_hcd.c ****     {
 877              		.loc 1 515 9 view .LVU233
 878 0038 FFF7FEFF 		bl	USB_ReadInterrupts
 879              	.LVL54:
 515:Drivers/STM32F4xx_HAL_Driver/Src/stm32f4xx_hal_hcd.c ****     {
 880              		.loc 1 515 8 discriminator 1 view .LVU234
 881 003c 10F4801F 		tst	r0, #1048576
 518:Drivers/STM32F4xx_HAL_Driver/Src/stm32f4xx_hal_hcd.c ****     }
 882              		.loc 1 518 7 view .LVU235
 883 0040 2068     		ldr	r0, [r4]
 518:Drivers/STM32F4xx_HAL_Driver/Src/stm32f4xx_hal_hcd.c ****     }
 884              		.loc 1 518 7 is_stmt 1 view .LVU236
 521:Drivers/STM32F4xx_HAL_Driver/Src/stm32f4xx_hal_hcd.c ****     {
 885              		.loc 1 521 5 view .LVU237
 518:Drivers/STM32F4xx_HAL_Driver/Src/stm32f4xx_hal_hcd.c ****     }
 886              		.loc 1 518 7 is_stmt 0 view .LVU238
 887 0042 1CBF     		itt	ne
 888 0044 4FF48013 		movne	r3, #1048576
 889 0048 4361     		strne	r3, [r0, #20]
 521:Drivers/STM32F4xx_HAL_Driver/Src/stm32f4xx_hal_hcd.c ****     {
 890              		.loc 1 521 9 view .LVU239
 891 004a FFF7FEFF 		bl	USB_ReadInterrupts
 892              	.LVL55:
 521:Drivers/STM32F4xx_HAL_Driver/Src/stm32f4xx_hal_hcd.c ****     {
 893              		.loc 1 521 8 discriminator 1 view .LVU240
 894 004e 10F0806F 		tst	r0, #67108864
 524:Drivers/STM32F4xx_HAL_Driver/Src/stm32f4xx_hal_hcd.c ****     }
 895              		.loc 1 524 7 view .LVU241
 896 0052 2068     		ldr	r0, [r4]
 524:Drivers/STM32F4xx_HAL_Driver/Src/stm32f4xx_hal_hcd.c ****     }
 897              		.loc 1 524 7 is_stmt 1 view .LVU242
 527:Drivers/STM32F4xx_HAL_Driver/Src/stm32f4xx_hal_hcd.c ****     {
 898              		.loc 1 527 5 view .LVU243
 524:Drivers/STM32F4xx_HAL_Driver/Src/stm32f4xx_hal_hcd.c ****     }
 899              		.loc 1 524 7 is_stmt 0 view .LVU244
 900 0054 1CBF     		itt	ne
 901 0056 4FF08063 		movne	r3, #67108864
 902 005a 4361     		strne	r3, [r0, #20]
 527:Drivers/STM32F4xx_HAL_Driver/Src/stm32f4xx_hal_hcd.c ****     {
 903              		.loc 1 527 9 view .LVU245
 904 005c FFF7FEFF 		bl	USB_ReadInterrupts
 905              	.LVL56:
 527:Drivers/STM32F4xx_HAL_Driver/Src/stm32f4xx_hal_hcd.c ****     {
 906              		.loc 1 527 8 discriminator 1 view .LVU246
 907 0060 10F0020F 		tst	r0, #2
 530:Drivers/STM32F4xx_HAL_Driver/Src/stm32f4xx_hal_hcd.c ****     }
 908              		.loc 1 530 7 view .LVU247
 909 0064 2068     		ldr	r0, [r4]
 530:Drivers/STM32F4xx_HAL_Driver/Src/stm32f4xx_hal_hcd.c ****     }
 910              		.loc 1 530 7 is_stmt 1 view .LVU248
 534:Drivers/STM32F4xx_HAL_Driver/Src/stm32f4xx_hal_hcd.c ****     {
 911              		.loc 1 534 5 view .LVU249
 530:Drivers/STM32F4xx_HAL_Driver/Src/stm32f4xx_hal_hcd.c ****     }
 912              		.loc 1 530 7 is_stmt 0 view .LVU250
 913 0066 1CBF     		itt	ne
ARM GAS  /var/folders/lp/x54gwt890xv47sdkqj1k04q40000gn/T//cctevgvi.s 			page 32


 914 0068 0223     		movne	r3, #2
 915 006a 4361     		strne	r3, [r0, #20]
 534:Drivers/STM32F4xx_HAL_Driver/Src/stm32f4xx_hal_hcd.c ****     {
 916              		.loc 1 534 9 view .LVU251
 917 006c FFF7FEFF 		bl	USB_ReadInterrupts
 918              	.LVL57:
 534:Drivers/STM32F4xx_HAL_Driver/Src/stm32f4xx_hal_hcd.c ****     {
 919              		.loc 1 534 8 discriminator 1 view .LVU252
 920 0070 10F0005F 		tst	r0, #536870912
 536:Drivers/STM32F4xx_HAL_Driver/Src/stm32f4xx_hal_hcd.c **** 
 921              		.loc 1 536 7 view .LVU253
 922 0074 2068     		ldr	r0, [r4]
 534:Drivers/STM32F4xx_HAL_Driver/Src/stm32f4xx_hal_hcd.c ****     {
 923              		.loc 1 534 8 discriminator 1 view .LVU254
 924 0076 66D1     		bne	.L77
 925              	.L78:
 557:Drivers/STM32F4xx_HAL_Driver/Src/stm32f4xx_hal_hcd.c ****     {
 926              		.loc 1 557 5 is_stmt 1 view .LVU255
 557:Drivers/STM32F4xx_HAL_Driver/Src/stm32f4xx_hal_hcd.c ****     {
 927              		.loc 1 557 9 is_stmt 0 view .LVU256
 928 0078 FFF7FEFF 		bl	USB_ReadInterrupts
 929              	.LVL58:
 557:Drivers/STM32F4xx_HAL_Driver/Src/stm32f4xx_hal_hcd.c ****     {
 930              		.loc 1 557 8 discriminator 1 view .LVU257
 931 007c C001     		lsls	r0, r0, #7
 932 007e 00F1CC80 		bmi	.L225
 933              	.L79:
 563:Drivers/STM32F4xx_HAL_Driver/Src/stm32f4xx_hal_hcd.c ****     {
 934              		.loc 1 563 5 is_stmt 1 view .LVU258
 563:Drivers/STM32F4xx_HAL_Driver/Src/stm32f4xx_hal_hcd.c ****     {
 935              		.loc 1 563 9 is_stmt 0 view .LVU259
 936 0082 2068     		ldr	r0, [r4]
 937 0084 FFF7FEFF 		bl	USB_ReadInterrupts
 938              	.LVL59:
 563:Drivers/STM32F4xx_HAL_Driver/Src/stm32f4xx_hal_hcd.c ****     {
 939              		.loc 1 563 8 discriminator 1 view .LVU260
 940 0088 0107     		lsls	r1, r0, #28
 941 008a 00F1BF80 		bmi	.L88
 575:Drivers/STM32F4xx_HAL_Driver/Src/stm32f4xx_hal_hcd.c ****     {
 942              		.loc 1 575 10 view .LVU261
 943 008e 2068     		ldr	r0, [r4]
 944              	.L89:
 575:Drivers/STM32F4xx_HAL_Driver/Src/stm32f4xx_hal_hcd.c ****     {
 945              		.loc 1 575 5 is_stmt 1 view .LVU262
 575:Drivers/STM32F4xx_HAL_Driver/Src/stm32f4xx_hal_hcd.c ****     {
 946              		.loc 1 575 10 is_stmt 0 view .LVU263
 947 0090 FFF7FEFF 		bl	USB_ReadInterrupts
 948              	.LVL60:
 575:Drivers/STM32F4xx_HAL_Driver/Src/stm32f4xx_hal_hcd.c ****     {
 949              		.loc 1 575 60 discriminator 1 view .LVU264
 950 0094 C206     		lsls	r2, r0, #27
 577:Drivers/STM32F4xx_HAL_Driver/Src/stm32f4xx_hal_hcd.c **** 
 951              		.loc 1 577 7 view .LVU265
 952 0096 2668     		ldr	r6, [r4]
 575:Drivers/STM32F4xx_HAL_Driver/Src/stm32f4xx_hal_hcd.c ****     {
 953              		.loc 1 575 60 discriminator 1 view .LVU266
 954 0098 00F1F980 		bmi	.L90
ARM GAS  /var/folders/lp/x54gwt890xv47sdkqj1k04q40000gn/T//cctevgvi.s 			page 33


 955              	.L91:
 585:Drivers/STM32F4xx_HAL_Driver/Src/stm32f4xx_hal_hcd.c ****     {
 956              		.loc 1 585 5 is_stmt 1 view .LVU267
 585:Drivers/STM32F4xx_HAL_Driver/Src/stm32f4xx_hal_hcd.c ****     {
 957              		.loc 1 585 9 is_stmt 0 view .LVU268
 958 009c 3046     		mov	r0, r6
 959 009e FFF7FEFF 		bl	USB_ReadInterrupts
 960              	.LVL61:
 585:Drivers/STM32F4xx_HAL_Driver/Src/stm32f4xx_hal_hcd.c ****     {
 961              		.loc 1 585 8 discriminator 1 view .LVU269
 962 00a2 8301     		lsls	r3, r0, #6
 963 00a4 B6D5     		bpl	.L65
 587:Drivers/STM32F4xx_HAL_Driver/Src/stm32f4xx_hal_hcd.c ****       for (i = 0U; i < hhcd->Init.Host_channels; i++)
 964              		.loc 1 587 7 is_stmt 1 view .LVU270
 587:Drivers/STM32F4xx_HAL_Driver/Src/stm32f4xx_hal_hcd.c ****       for (i = 0U; i < hhcd->Init.Host_channels; i++)
 965              		.loc 1 587 19 is_stmt 0 view .LVU271
 966 00a6 2068     		ldr	r0, [r4]
 967 00a8 FFF7FEFF 		bl	USB_HC_ReadInterrupt
 968              	.LVL62:
 588:Drivers/STM32F4xx_HAL_Driver/Src/stm32f4xx_hal_hcd.c ****       {
 969              		.loc 1 588 22 discriminator 1 view .LVU272
 970 00ac A268     		ldr	r2, [r4, #8]
 587:Drivers/STM32F4xx_HAL_Driver/Src/stm32f4xx_hal_hcd.c ****       for (i = 0U; i < hhcd->Init.Host_channels; i++)
 971              		.loc 1 587 19 view .LVU273
 972 00ae 8146     		mov	r9, r0
 973              	.LVL63:
 588:Drivers/STM32F4xx_HAL_Driver/Src/stm32f4xx_hal_hcd.c ****       {
 974              		.loc 1 588 7 is_stmt 1 view .LVU274
 588:Drivers/STM32F4xx_HAL_Driver/Src/stm32f4xx_hal_hcd.c ****       {
 975              		.loc 1 588 22 discriminator 1 view .LVU275
 602:Drivers/STM32F4xx_HAL_Driver/Src/stm32f4xx_hal_hcd.c ****     }
 976              		.loc 1 602 7 is_stmt 0 view .LVU276
 977 00b0 2068     		ldr	r0, [r4]
 978              	.LVL64:
 588:Drivers/STM32F4xx_HAL_Driver/Src/stm32f4xx_hal_hcd.c ****       {
 979              		.loc 1 588 22 discriminator 1 view .LVU277
 980 00b2 002A     		cmp	r2, #0
 981 00b4 00F08280 		beq	.L158
 982 00b8 05F5A065 		add	r5, r5, #1280
 983              	.LVL65:
 588:Drivers/STM32F4xx_HAL_Driver/Src/stm32f4xx_hal_hcd.c ****       {
 984              		.loc 1 588 14 view .LVU278
 985 00bc 0026     		movs	r6, #0
 986              	.LVL66:
 987              	.L157:
 590:Drivers/STM32F4xx_HAL_Driver/Src/stm32f4xx_hal_hcd.c ****         {
 988              		.loc 1 590 9 is_stmt 1 view .LVU279
 590:Drivers/STM32F4xx_HAL_Driver/Src/stm32f4xx_hal_hcd.c ****         {
 989              		.loc 1 590 37 is_stmt 0 view .LVU280
 990 00be 06F00F03 		and	r3, r6, #15
 590:Drivers/STM32F4xx_HAL_Driver/Src/stm32f4xx_hal_hcd.c ****         {
 991              		.loc 1 590 47 view .LVU281
 992 00c2 29FA03F3 		lsr	r3, r9, r3
 590:Drivers/STM32F4xx_HAL_Driver/Src/stm32f4xx_hal_hcd.c ****         {
 993              		.loc 1 590 12 view .LVU282
 994 00c6 DF07     		lsls	r7, r3, #31
 995 00c8 73D5     		bpl	.L100
ARM GAS  /var/folders/lp/x54gwt890xv47sdkqj1k04q40000gn/T//cctevgvi.s 			page 34


 592:Drivers/STM32F4xx_HAL_Driver/Src/stm32f4xx_hal_hcd.c ****           {
 996              		.loc 1 592 11 is_stmt 1 view .LVU283
 592:Drivers/STM32F4xx_HAL_Driver/Src/stm32f4xx_hal_hcd.c ****           {
 997              		.loc 1 592 26 is_stmt 0 view .LVU284
 998 00ca 2B68     		ldr	r3, [r5]
 999 00cc 5FFA86F8 		uxtb	r8, r6
 1000              	.LBB10:
 1001              	.LBB11:
 720:Drivers/STM32F4xx_HAL_Driver/Src/stm32f4xx_hal_hcd.c **** 
 721:Drivers/STM32F4xx_HAL_Driver/Src/stm32f4xx_hal_hcd.c **** #if (USE_HAL_HCD_REGISTER_CALLBACKS == 1U)
 722:Drivers/STM32F4xx_HAL_Driver/Src/stm32f4xx_hal_hcd.c **** /**
 723:Drivers/STM32F4xx_HAL_Driver/Src/stm32f4xx_hal_hcd.c ****   * @brief  Register a User USB HCD Callback
 724:Drivers/STM32F4xx_HAL_Driver/Src/stm32f4xx_hal_hcd.c ****   *         To be used instead of the weak predefined callback
 725:Drivers/STM32F4xx_HAL_Driver/Src/stm32f4xx_hal_hcd.c ****   * @param  hhcd USB HCD handle
 726:Drivers/STM32F4xx_HAL_Driver/Src/stm32f4xx_hal_hcd.c ****   * @param  CallbackID ID of the callback to be registered
 727:Drivers/STM32F4xx_HAL_Driver/Src/stm32f4xx_hal_hcd.c ****   *         This parameter can be one of the following values:
 728:Drivers/STM32F4xx_HAL_Driver/Src/stm32f4xx_hal_hcd.c ****   *          @arg @ref HAL_HCD_SOF_CB_ID USB HCD SOF callback ID
 729:Drivers/STM32F4xx_HAL_Driver/Src/stm32f4xx_hal_hcd.c ****   *          @arg @ref HAL_HCD_CONNECT_CB_ID USB HCD Connect callback ID
 730:Drivers/STM32F4xx_HAL_Driver/Src/stm32f4xx_hal_hcd.c ****   *          @arg @ref HAL_HCD_DISCONNECT_CB_ID OTG HCD Disconnect callback ID
 731:Drivers/STM32F4xx_HAL_Driver/Src/stm32f4xx_hal_hcd.c ****   *          @arg @ref HAL_HCD_PORT_ENABLED_CB_ID USB HCD Port Enable callback ID
 732:Drivers/STM32F4xx_HAL_Driver/Src/stm32f4xx_hal_hcd.c ****   *          @arg @ref HAL_HCD_PORT_DISABLED_CB_ID USB HCD Port Disable callback ID
 733:Drivers/STM32F4xx_HAL_Driver/Src/stm32f4xx_hal_hcd.c ****   *          @arg @ref HAL_HCD_MSPINIT_CB_ID MspDeInit callback ID
 734:Drivers/STM32F4xx_HAL_Driver/Src/stm32f4xx_hal_hcd.c ****   *          @arg @ref HAL_HCD_MSPDEINIT_CB_ID MspDeInit callback ID
 735:Drivers/STM32F4xx_HAL_Driver/Src/stm32f4xx_hal_hcd.c ****   * @param  pCallback pointer to the Callback function
 736:Drivers/STM32F4xx_HAL_Driver/Src/stm32f4xx_hal_hcd.c ****   * @retval HAL status
 737:Drivers/STM32F4xx_HAL_Driver/Src/stm32f4xx_hal_hcd.c ****   */
 738:Drivers/STM32F4xx_HAL_Driver/Src/stm32f4xx_hal_hcd.c **** HAL_StatusTypeDef HAL_HCD_RegisterCallback(HCD_HandleTypeDef *hhcd,
 739:Drivers/STM32F4xx_HAL_Driver/Src/stm32f4xx_hal_hcd.c ****                                            HAL_HCD_CallbackIDTypeDef CallbackID,
 740:Drivers/STM32F4xx_HAL_Driver/Src/stm32f4xx_hal_hcd.c ****                                            pHCD_CallbackTypeDef pCallback)
 741:Drivers/STM32F4xx_HAL_Driver/Src/stm32f4xx_hal_hcd.c **** {
 742:Drivers/STM32F4xx_HAL_Driver/Src/stm32f4xx_hal_hcd.c ****   HAL_StatusTypeDef status = HAL_OK;
 743:Drivers/STM32F4xx_HAL_Driver/Src/stm32f4xx_hal_hcd.c **** 
 744:Drivers/STM32F4xx_HAL_Driver/Src/stm32f4xx_hal_hcd.c ****   if (pCallback == NULL)
 745:Drivers/STM32F4xx_HAL_Driver/Src/stm32f4xx_hal_hcd.c ****   {
 746:Drivers/STM32F4xx_HAL_Driver/Src/stm32f4xx_hal_hcd.c ****     /* Update the error code */
 747:Drivers/STM32F4xx_HAL_Driver/Src/stm32f4xx_hal_hcd.c ****     hhcd->ErrorCode |= HAL_HCD_ERROR_INVALID_CALLBACK;
 748:Drivers/STM32F4xx_HAL_Driver/Src/stm32f4xx_hal_hcd.c ****     return HAL_ERROR;
 749:Drivers/STM32F4xx_HAL_Driver/Src/stm32f4xx_hal_hcd.c ****   }
 750:Drivers/STM32F4xx_HAL_Driver/Src/stm32f4xx_hal_hcd.c ****   /* Process locked */
 751:Drivers/STM32F4xx_HAL_Driver/Src/stm32f4xx_hal_hcd.c ****   __HAL_LOCK(hhcd);
 752:Drivers/STM32F4xx_HAL_Driver/Src/stm32f4xx_hal_hcd.c **** 
 753:Drivers/STM32F4xx_HAL_Driver/Src/stm32f4xx_hal_hcd.c ****   if (hhcd->State == HAL_HCD_STATE_READY)
 754:Drivers/STM32F4xx_HAL_Driver/Src/stm32f4xx_hal_hcd.c ****   {
 755:Drivers/STM32F4xx_HAL_Driver/Src/stm32f4xx_hal_hcd.c ****     switch (CallbackID)
 756:Drivers/STM32F4xx_HAL_Driver/Src/stm32f4xx_hal_hcd.c ****     {
 757:Drivers/STM32F4xx_HAL_Driver/Src/stm32f4xx_hal_hcd.c ****       case HAL_HCD_SOF_CB_ID :
 758:Drivers/STM32F4xx_HAL_Driver/Src/stm32f4xx_hal_hcd.c ****         hhcd->SOFCallback = pCallback;
 759:Drivers/STM32F4xx_HAL_Driver/Src/stm32f4xx_hal_hcd.c ****         break;
 760:Drivers/STM32F4xx_HAL_Driver/Src/stm32f4xx_hal_hcd.c **** 
 761:Drivers/STM32F4xx_HAL_Driver/Src/stm32f4xx_hal_hcd.c ****       case HAL_HCD_CONNECT_CB_ID :
 762:Drivers/STM32F4xx_HAL_Driver/Src/stm32f4xx_hal_hcd.c ****         hhcd->ConnectCallback = pCallback;
 763:Drivers/STM32F4xx_HAL_Driver/Src/stm32f4xx_hal_hcd.c ****         break;
 764:Drivers/STM32F4xx_HAL_Driver/Src/stm32f4xx_hal_hcd.c **** 
 765:Drivers/STM32F4xx_HAL_Driver/Src/stm32f4xx_hal_hcd.c ****       case HAL_HCD_DISCONNECT_CB_ID :
 766:Drivers/STM32F4xx_HAL_Driver/Src/stm32f4xx_hal_hcd.c ****         hhcd->DisconnectCallback = pCallback;
 767:Drivers/STM32F4xx_HAL_Driver/Src/stm32f4xx_hal_hcd.c ****         break;
 768:Drivers/STM32F4xx_HAL_Driver/Src/stm32f4xx_hal_hcd.c **** 
ARM GAS  /var/folders/lp/x54gwt890xv47sdkqj1k04q40000gn/T//cctevgvi.s 			page 35


 769:Drivers/STM32F4xx_HAL_Driver/Src/stm32f4xx_hal_hcd.c ****       case HAL_HCD_PORT_ENABLED_CB_ID :
 770:Drivers/STM32F4xx_HAL_Driver/Src/stm32f4xx_hal_hcd.c ****         hhcd->PortEnabledCallback = pCallback;
 771:Drivers/STM32F4xx_HAL_Driver/Src/stm32f4xx_hal_hcd.c ****         break;
 772:Drivers/STM32F4xx_HAL_Driver/Src/stm32f4xx_hal_hcd.c **** 
 773:Drivers/STM32F4xx_HAL_Driver/Src/stm32f4xx_hal_hcd.c ****       case HAL_HCD_PORT_DISABLED_CB_ID :
 774:Drivers/STM32F4xx_HAL_Driver/Src/stm32f4xx_hal_hcd.c ****         hhcd->PortDisabledCallback = pCallback;
 775:Drivers/STM32F4xx_HAL_Driver/Src/stm32f4xx_hal_hcd.c ****         break;
 776:Drivers/STM32F4xx_HAL_Driver/Src/stm32f4xx_hal_hcd.c **** 
 777:Drivers/STM32F4xx_HAL_Driver/Src/stm32f4xx_hal_hcd.c ****       case HAL_HCD_MSPINIT_CB_ID :
 778:Drivers/STM32F4xx_HAL_Driver/Src/stm32f4xx_hal_hcd.c ****         hhcd->MspInitCallback = pCallback;
 779:Drivers/STM32F4xx_HAL_Driver/Src/stm32f4xx_hal_hcd.c ****         break;
 780:Drivers/STM32F4xx_HAL_Driver/Src/stm32f4xx_hal_hcd.c **** 
 781:Drivers/STM32F4xx_HAL_Driver/Src/stm32f4xx_hal_hcd.c ****       case HAL_HCD_MSPDEINIT_CB_ID :
 782:Drivers/STM32F4xx_HAL_Driver/Src/stm32f4xx_hal_hcd.c ****         hhcd->MspDeInitCallback = pCallback;
 783:Drivers/STM32F4xx_HAL_Driver/Src/stm32f4xx_hal_hcd.c ****         break;
 784:Drivers/STM32F4xx_HAL_Driver/Src/stm32f4xx_hal_hcd.c **** 
 785:Drivers/STM32F4xx_HAL_Driver/Src/stm32f4xx_hal_hcd.c ****       default :
 786:Drivers/STM32F4xx_HAL_Driver/Src/stm32f4xx_hal_hcd.c ****         /* Update the error code */
 787:Drivers/STM32F4xx_HAL_Driver/Src/stm32f4xx_hal_hcd.c ****         hhcd->ErrorCode |= HAL_HCD_ERROR_INVALID_CALLBACK;
 788:Drivers/STM32F4xx_HAL_Driver/Src/stm32f4xx_hal_hcd.c ****         /* Return error status */
 789:Drivers/STM32F4xx_HAL_Driver/Src/stm32f4xx_hal_hcd.c ****         status =  HAL_ERROR;
 790:Drivers/STM32F4xx_HAL_Driver/Src/stm32f4xx_hal_hcd.c ****         break;
 791:Drivers/STM32F4xx_HAL_Driver/Src/stm32f4xx_hal_hcd.c ****     }
 792:Drivers/STM32F4xx_HAL_Driver/Src/stm32f4xx_hal_hcd.c ****   }
 793:Drivers/STM32F4xx_HAL_Driver/Src/stm32f4xx_hal_hcd.c ****   else if (hhcd->State == HAL_HCD_STATE_RESET)
 794:Drivers/STM32F4xx_HAL_Driver/Src/stm32f4xx_hal_hcd.c ****   {
 795:Drivers/STM32F4xx_HAL_Driver/Src/stm32f4xx_hal_hcd.c ****     switch (CallbackID)
 796:Drivers/STM32F4xx_HAL_Driver/Src/stm32f4xx_hal_hcd.c ****     {
 797:Drivers/STM32F4xx_HAL_Driver/Src/stm32f4xx_hal_hcd.c ****       case HAL_HCD_MSPINIT_CB_ID :
 798:Drivers/STM32F4xx_HAL_Driver/Src/stm32f4xx_hal_hcd.c ****         hhcd->MspInitCallback = pCallback;
 799:Drivers/STM32F4xx_HAL_Driver/Src/stm32f4xx_hal_hcd.c ****         break;
 800:Drivers/STM32F4xx_HAL_Driver/Src/stm32f4xx_hal_hcd.c **** 
 801:Drivers/STM32F4xx_HAL_Driver/Src/stm32f4xx_hal_hcd.c ****       case HAL_HCD_MSPDEINIT_CB_ID :
 802:Drivers/STM32F4xx_HAL_Driver/Src/stm32f4xx_hal_hcd.c ****         hhcd->MspDeInitCallback = pCallback;
 803:Drivers/STM32F4xx_HAL_Driver/Src/stm32f4xx_hal_hcd.c ****         break;
 804:Drivers/STM32F4xx_HAL_Driver/Src/stm32f4xx_hal_hcd.c **** 
 805:Drivers/STM32F4xx_HAL_Driver/Src/stm32f4xx_hal_hcd.c ****       default :
 806:Drivers/STM32F4xx_HAL_Driver/Src/stm32f4xx_hal_hcd.c ****         /* Update the error code */
 807:Drivers/STM32F4xx_HAL_Driver/Src/stm32f4xx_hal_hcd.c ****         hhcd->ErrorCode |= HAL_HCD_ERROR_INVALID_CALLBACK;
 808:Drivers/STM32F4xx_HAL_Driver/Src/stm32f4xx_hal_hcd.c ****         /* Return error status */
 809:Drivers/STM32F4xx_HAL_Driver/Src/stm32f4xx_hal_hcd.c ****         status =  HAL_ERROR;
 810:Drivers/STM32F4xx_HAL_Driver/Src/stm32f4xx_hal_hcd.c ****         break;
 811:Drivers/STM32F4xx_HAL_Driver/Src/stm32f4xx_hal_hcd.c ****     }
 812:Drivers/STM32F4xx_HAL_Driver/Src/stm32f4xx_hal_hcd.c ****   }
 813:Drivers/STM32F4xx_HAL_Driver/Src/stm32f4xx_hal_hcd.c ****   else
 814:Drivers/STM32F4xx_HAL_Driver/Src/stm32f4xx_hal_hcd.c ****   {
 815:Drivers/STM32F4xx_HAL_Driver/Src/stm32f4xx_hal_hcd.c ****     /* Update the error code */
 816:Drivers/STM32F4xx_HAL_Driver/Src/stm32f4xx_hal_hcd.c ****     hhcd->ErrorCode |= HAL_HCD_ERROR_INVALID_CALLBACK;
 817:Drivers/STM32F4xx_HAL_Driver/Src/stm32f4xx_hal_hcd.c ****     /* Return error status */
 818:Drivers/STM32F4xx_HAL_Driver/Src/stm32f4xx_hal_hcd.c ****     status =  HAL_ERROR;
 819:Drivers/STM32F4xx_HAL_Driver/Src/stm32f4xx_hal_hcd.c ****   }
 820:Drivers/STM32F4xx_HAL_Driver/Src/stm32f4xx_hal_hcd.c **** 
 821:Drivers/STM32F4xx_HAL_Driver/Src/stm32f4xx_hal_hcd.c ****   /* Release Lock */
 822:Drivers/STM32F4xx_HAL_Driver/Src/stm32f4xx_hal_hcd.c ****   __HAL_UNLOCK(hhcd);
 823:Drivers/STM32F4xx_HAL_Driver/Src/stm32f4xx_hal_hcd.c ****   return status;
 824:Drivers/STM32F4xx_HAL_Driver/Src/stm32f4xx_hal_hcd.c **** }
 825:Drivers/STM32F4xx_HAL_Driver/Src/stm32f4xx_hal_hcd.c **** 
ARM GAS  /var/folders/lp/x54gwt890xv47sdkqj1k04q40000gn/T//cctevgvi.s 			page 36


 826:Drivers/STM32F4xx_HAL_Driver/Src/stm32f4xx_hal_hcd.c **** /**
 827:Drivers/STM32F4xx_HAL_Driver/Src/stm32f4xx_hal_hcd.c ****   * @brief  Unregister an USB HCD Callback
 828:Drivers/STM32F4xx_HAL_Driver/Src/stm32f4xx_hal_hcd.c ****   *         USB HCD callback is redirected to the weak predefined callback
 829:Drivers/STM32F4xx_HAL_Driver/Src/stm32f4xx_hal_hcd.c ****   * @param  hhcd USB HCD handle
 830:Drivers/STM32F4xx_HAL_Driver/Src/stm32f4xx_hal_hcd.c ****   * @param  CallbackID ID of the callback to be unregistered
 831:Drivers/STM32F4xx_HAL_Driver/Src/stm32f4xx_hal_hcd.c ****   *         This parameter can be one of the following values:
 832:Drivers/STM32F4xx_HAL_Driver/Src/stm32f4xx_hal_hcd.c ****   *          @arg @ref HAL_HCD_SOF_CB_ID USB HCD SOF callback ID
 833:Drivers/STM32F4xx_HAL_Driver/Src/stm32f4xx_hal_hcd.c ****   *          @arg @ref HAL_HCD_CONNECT_CB_ID USB HCD Connect callback ID
 834:Drivers/STM32F4xx_HAL_Driver/Src/stm32f4xx_hal_hcd.c ****   *          @arg @ref HAL_HCD_DISCONNECT_CB_ID OTG HCD Disconnect callback ID
 835:Drivers/STM32F4xx_HAL_Driver/Src/stm32f4xx_hal_hcd.c ****   *          @arg @ref HAL_HCD_PORT_ENABLED_CB_ID USB HCD Port Enabled callback ID
 836:Drivers/STM32F4xx_HAL_Driver/Src/stm32f4xx_hal_hcd.c ****   *          @arg @ref HAL_HCD_PORT_DISABLED_CB_ID USB HCD Port Disabled callback ID
 837:Drivers/STM32F4xx_HAL_Driver/Src/stm32f4xx_hal_hcd.c ****   *          @arg @ref HAL_HCD_MSPINIT_CB_ID MspDeInit callback ID
 838:Drivers/STM32F4xx_HAL_Driver/Src/stm32f4xx_hal_hcd.c ****   *          @arg @ref HAL_HCD_MSPDEINIT_CB_ID MspDeInit callback ID
 839:Drivers/STM32F4xx_HAL_Driver/Src/stm32f4xx_hal_hcd.c ****   * @retval HAL status
 840:Drivers/STM32F4xx_HAL_Driver/Src/stm32f4xx_hal_hcd.c ****   */
 841:Drivers/STM32F4xx_HAL_Driver/Src/stm32f4xx_hal_hcd.c **** HAL_StatusTypeDef HAL_HCD_UnRegisterCallback(HCD_HandleTypeDef *hhcd, HAL_HCD_CallbackIDTypeDef Cal
 842:Drivers/STM32F4xx_HAL_Driver/Src/stm32f4xx_hal_hcd.c **** {
 843:Drivers/STM32F4xx_HAL_Driver/Src/stm32f4xx_hal_hcd.c ****   HAL_StatusTypeDef status = HAL_OK;
 844:Drivers/STM32F4xx_HAL_Driver/Src/stm32f4xx_hal_hcd.c **** 
 845:Drivers/STM32F4xx_HAL_Driver/Src/stm32f4xx_hal_hcd.c ****   /* Process locked */
 846:Drivers/STM32F4xx_HAL_Driver/Src/stm32f4xx_hal_hcd.c ****   __HAL_LOCK(hhcd);
 847:Drivers/STM32F4xx_HAL_Driver/Src/stm32f4xx_hal_hcd.c **** 
 848:Drivers/STM32F4xx_HAL_Driver/Src/stm32f4xx_hal_hcd.c ****   /* Setup Legacy weak Callbacks  */
 849:Drivers/STM32F4xx_HAL_Driver/Src/stm32f4xx_hal_hcd.c ****   if (hhcd->State == HAL_HCD_STATE_READY)
 850:Drivers/STM32F4xx_HAL_Driver/Src/stm32f4xx_hal_hcd.c ****   {
 851:Drivers/STM32F4xx_HAL_Driver/Src/stm32f4xx_hal_hcd.c ****     switch (CallbackID)
 852:Drivers/STM32F4xx_HAL_Driver/Src/stm32f4xx_hal_hcd.c ****     {
 853:Drivers/STM32F4xx_HAL_Driver/Src/stm32f4xx_hal_hcd.c ****       case HAL_HCD_SOF_CB_ID :
 854:Drivers/STM32F4xx_HAL_Driver/Src/stm32f4xx_hal_hcd.c ****         hhcd->SOFCallback = HAL_HCD_SOF_Callback;
 855:Drivers/STM32F4xx_HAL_Driver/Src/stm32f4xx_hal_hcd.c ****         break;
 856:Drivers/STM32F4xx_HAL_Driver/Src/stm32f4xx_hal_hcd.c **** 
 857:Drivers/STM32F4xx_HAL_Driver/Src/stm32f4xx_hal_hcd.c ****       case HAL_HCD_CONNECT_CB_ID :
 858:Drivers/STM32F4xx_HAL_Driver/Src/stm32f4xx_hal_hcd.c ****         hhcd->ConnectCallback = HAL_HCD_Connect_Callback;
 859:Drivers/STM32F4xx_HAL_Driver/Src/stm32f4xx_hal_hcd.c ****         break;
 860:Drivers/STM32F4xx_HAL_Driver/Src/stm32f4xx_hal_hcd.c **** 
 861:Drivers/STM32F4xx_HAL_Driver/Src/stm32f4xx_hal_hcd.c ****       case HAL_HCD_DISCONNECT_CB_ID :
 862:Drivers/STM32F4xx_HAL_Driver/Src/stm32f4xx_hal_hcd.c ****         hhcd->DisconnectCallback = HAL_HCD_Disconnect_Callback;
 863:Drivers/STM32F4xx_HAL_Driver/Src/stm32f4xx_hal_hcd.c ****         break;
 864:Drivers/STM32F4xx_HAL_Driver/Src/stm32f4xx_hal_hcd.c **** 
 865:Drivers/STM32F4xx_HAL_Driver/Src/stm32f4xx_hal_hcd.c ****       case HAL_HCD_PORT_ENABLED_CB_ID :
 866:Drivers/STM32F4xx_HAL_Driver/Src/stm32f4xx_hal_hcd.c ****         hhcd->PortEnabledCallback = HAL_HCD_PortEnabled_Callback;
 867:Drivers/STM32F4xx_HAL_Driver/Src/stm32f4xx_hal_hcd.c ****         break;
 868:Drivers/STM32F4xx_HAL_Driver/Src/stm32f4xx_hal_hcd.c **** 
 869:Drivers/STM32F4xx_HAL_Driver/Src/stm32f4xx_hal_hcd.c ****       case HAL_HCD_PORT_DISABLED_CB_ID :
 870:Drivers/STM32F4xx_HAL_Driver/Src/stm32f4xx_hal_hcd.c ****         hhcd->PortDisabledCallback = HAL_HCD_PortDisabled_Callback;
 871:Drivers/STM32F4xx_HAL_Driver/Src/stm32f4xx_hal_hcd.c ****         break;
 872:Drivers/STM32F4xx_HAL_Driver/Src/stm32f4xx_hal_hcd.c **** 
 873:Drivers/STM32F4xx_HAL_Driver/Src/stm32f4xx_hal_hcd.c ****       case HAL_HCD_MSPINIT_CB_ID :
 874:Drivers/STM32F4xx_HAL_Driver/Src/stm32f4xx_hal_hcd.c ****         hhcd->MspInitCallback = HAL_HCD_MspInit;
 875:Drivers/STM32F4xx_HAL_Driver/Src/stm32f4xx_hal_hcd.c ****         break;
 876:Drivers/STM32F4xx_HAL_Driver/Src/stm32f4xx_hal_hcd.c **** 
 877:Drivers/STM32F4xx_HAL_Driver/Src/stm32f4xx_hal_hcd.c ****       case HAL_HCD_MSPDEINIT_CB_ID :
 878:Drivers/STM32F4xx_HAL_Driver/Src/stm32f4xx_hal_hcd.c ****         hhcd->MspDeInitCallback = HAL_HCD_MspDeInit;
 879:Drivers/STM32F4xx_HAL_Driver/Src/stm32f4xx_hal_hcd.c ****         break;
 880:Drivers/STM32F4xx_HAL_Driver/Src/stm32f4xx_hal_hcd.c **** 
 881:Drivers/STM32F4xx_HAL_Driver/Src/stm32f4xx_hal_hcd.c ****       default :
 882:Drivers/STM32F4xx_HAL_Driver/Src/stm32f4xx_hal_hcd.c ****         /* Update the error code */
ARM GAS  /var/folders/lp/x54gwt890xv47sdkqj1k04q40000gn/T//cctevgvi.s 			page 37


 883:Drivers/STM32F4xx_HAL_Driver/Src/stm32f4xx_hal_hcd.c ****         hhcd->ErrorCode |= HAL_HCD_ERROR_INVALID_CALLBACK;
 884:Drivers/STM32F4xx_HAL_Driver/Src/stm32f4xx_hal_hcd.c **** 
 885:Drivers/STM32F4xx_HAL_Driver/Src/stm32f4xx_hal_hcd.c ****         /* Return error status */
 886:Drivers/STM32F4xx_HAL_Driver/Src/stm32f4xx_hal_hcd.c ****         status =  HAL_ERROR;
 887:Drivers/STM32F4xx_HAL_Driver/Src/stm32f4xx_hal_hcd.c ****         break;
 888:Drivers/STM32F4xx_HAL_Driver/Src/stm32f4xx_hal_hcd.c ****     }
 889:Drivers/STM32F4xx_HAL_Driver/Src/stm32f4xx_hal_hcd.c ****   }
 890:Drivers/STM32F4xx_HAL_Driver/Src/stm32f4xx_hal_hcd.c ****   else if (hhcd->State == HAL_HCD_STATE_RESET)
 891:Drivers/STM32F4xx_HAL_Driver/Src/stm32f4xx_hal_hcd.c ****   {
 892:Drivers/STM32F4xx_HAL_Driver/Src/stm32f4xx_hal_hcd.c ****     switch (CallbackID)
 893:Drivers/STM32F4xx_HAL_Driver/Src/stm32f4xx_hal_hcd.c ****     {
 894:Drivers/STM32F4xx_HAL_Driver/Src/stm32f4xx_hal_hcd.c ****       case HAL_HCD_MSPINIT_CB_ID :
 895:Drivers/STM32F4xx_HAL_Driver/Src/stm32f4xx_hal_hcd.c ****         hhcd->MspInitCallback = HAL_HCD_MspInit;
 896:Drivers/STM32F4xx_HAL_Driver/Src/stm32f4xx_hal_hcd.c ****         break;
 897:Drivers/STM32F4xx_HAL_Driver/Src/stm32f4xx_hal_hcd.c **** 
 898:Drivers/STM32F4xx_HAL_Driver/Src/stm32f4xx_hal_hcd.c ****       case HAL_HCD_MSPDEINIT_CB_ID :
 899:Drivers/STM32F4xx_HAL_Driver/Src/stm32f4xx_hal_hcd.c ****         hhcd->MspDeInitCallback = HAL_HCD_MspDeInit;
 900:Drivers/STM32F4xx_HAL_Driver/Src/stm32f4xx_hal_hcd.c ****         break;
 901:Drivers/STM32F4xx_HAL_Driver/Src/stm32f4xx_hal_hcd.c **** 
 902:Drivers/STM32F4xx_HAL_Driver/Src/stm32f4xx_hal_hcd.c ****       default :
 903:Drivers/STM32F4xx_HAL_Driver/Src/stm32f4xx_hal_hcd.c ****         /* Update the error code */
 904:Drivers/STM32F4xx_HAL_Driver/Src/stm32f4xx_hal_hcd.c ****         hhcd->ErrorCode |= HAL_HCD_ERROR_INVALID_CALLBACK;
 905:Drivers/STM32F4xx_HAL_Driver/Src/stm32f4xx_hal_hcd.c **** 
 906:Drivers/STM32F4xx_HAL_Driver/Src/stm32f4xx_hal_hcd.c ****         /* Return error status */
 907:Drivers/STM32F4xx_HAL_Driver/Src/stm32f4xx_hal_hcd.c ****         status =  HAL_ERROR;
 908:Drivers/STM32F4xx_HAL_Driver/Src/stm32f4xx_hal_hcd.c ****         break;
 909:Drivers/STM32F4xx_HAL_Driver/Src/stm32f4xx_hal_hcd.c ****     }
 910:Drivers/STM32F4xx_HAL_Driver/Src/stm32f4xx_hal_hcd.c ****   }
 911:Drivers/STM32F4xx_HAL_Driver/Src/stm32f4xx_hal_hcd.c ****   else
 912:Drivers/STM32F4xx_HAL_Driver/Src/stm32f4xx_hal_hcd.c ****   {
 913:Drivers/STM32F4xx_HAL_Driver/Src/stm32f4xx_hal_hcd.c ****     /* Update the error code */
 914:Drivers/STM32F4xx_HAL_Driver/Src/stm32f4xx_hal_hcd.c ****     hhcd->ErrorCode |= HAL_HCD_ERROR_INVALID_CALLBACK;
 915:Drivers/STM32F4xx_HAL_Driver/Src/stm32f4xx_hal_hcd.c **** 
 916:Drivers/STM32F4xx_HAL_Driver/Src/stm32f4xx_hal_hcd.c ****     /* Return error status */
 917:Drivers/STM32F4xx_HAL_Driver/Src/stm32f4xx_hal_hcd.c ****     status =  HAL_ERROR;
 918:Drivers/STM32F4xx_HAL_Driver/Src/stm32f4xx_hal_hcd.c ****   }
 919:Drivers/STM32F4xx_HAL_Driver/Src/stm32f4xx_hal_hcd.c **** 
 920:Drivers/STM32F4xx_HAL_Driver/Src/stm32f4xx_hal_hcd.c ****   /* Release Lock */
 921:Drivers/STM32F4xx_HAL_Driver/Src/stm32f4xx_hal_hcd.c ****   __HAL_UNLOCK(hhcd);
 922:Drivers/STM32F4xx_HAL_Driver/Src/stm32f4xx_hal_hcd.c ****   return status;
 923:Drivers/STM32F4xx_HAL_Driver/Src/stm32f4xx_hal_hcd.c **** }
 924:Drivers/STM32F4xx_HAL_Driver/Src/stm32f4xx_hal_hcd.c **** 
 925:Drivers/STM32F4xx_HAL_Driver/Src/stm32f4xx_hal_hcd.c **** /**
 926:Drivers/STM32F4xx_HAL_Driver/Src/stm32f4xx_hal_hcd.c ****   * @brief  Register USB HCD Host Channel Notify URB Change Callback
 927:Drivers/STM32F4xx_HAL_Driver/Src/stm32f4xx_hal_hcd.c ****   *         To be used instead of the weak HAL_HCD_HC_NotifyURBChange_Callback() predefined callbac
 928:Drivers/STM32F4xx_HAL_Driver/Src/stm32f4xx_hal_hcd.c ****   * @param  hhcd HCD handle
 929:Drivers/STM32F4xx_HAL_Driver/Src/stm32f4xx_hal_hcd.c ****   * @param  pCallback pointer to the USB HCD Host Channel Notify URB Change Callback function
 930:Drivers/STM32F4xx_HAL_Driver/Src/stm32f4xx_hal_hcd.c ****   * @retval HAL status
 931:Drivers/STM32F4xx_HAL_Driver/Src/stm32f4xx_hal_hcd.c ****   */
 932:Drivers/STM32F4xx_HAL_Driver/Src/stm32f4xx_hal_hcd.c **** HAL_StatusTypeDef HAL_HCD_RegisterHC_NotifyURBChangeCallback(HCD_HandleTypeDef *hhcd,
 933:Drivers/STM32F4xx_HAL_Driver/Src/stm32f4xx_hal_hcd.c ****                                                              pHCD_HC_NotifyURBChangeCallbackTypeDef
 934:Drivers/STM32F4xx_HAL_Driver/Src/stm32f4xx_hal_hcd.c **** {
 935:Drivers/STM32F4xx_HAL_Driver/Src/stm32f4xx_hal_hcd.c ****   HAL_StatusTypeDef status = HAL_OK;
 936:Drivers/STM32F4xx_HAL_Driver/Src/stm32f4xx_hal_hcd.c **** 
 937:Drivers/STM32F4xx_HAL_Driver/Src/stm32f4xx_hal_hcd.c ****   if (pCallback == NULL)
 938:Drivers/STM32F4xx_HAL_Driver/Src/stm32f4xx_hal_hcd.c ****   {
 939:Drivers/STM32F4xx_HAL_Driver/Src/stm32f4xx_hal_hcd.c ****     /* Update the error code */
ARM GAS  /var/folders/lp/x54gwt890xv47sdkqj1k04q40000gn/T//cctevgvi.s 			page 38


 940:Drivers/STM32F4xx_HAL_Driver/Src/stm32f4xx_hal_hcd.c ****     hhcd->ErrorCode |= HAL_HCD_ERROR_INVALID_CALLBACK;
 941:Drivers/STM32F4xx_HAL_Driver/Src/stm32f4xx_hal_hcd.c **** 
 942:Drivers/STM32F4xx_HAL_Driver/Src/stm32f4xx_hal_hcd.c ****     return HAL_ERROR;
 943:Drivers/STM32F4xx_HAL_Driver/Src/stm32f4xx_hal_hcd.c ****   }
 944:Drivers/STM32F4xx_HAL_Driver/Src/stm32f4xx_hal_hcd.c **** 
 945:Drivers/STM32F4xx_HAL_Driver/Src/stm32f4xx_hal_hcd.c ****   /* Process locked */
 946:Drivers/STM32F4xx_HAL_Driver/Src/stm32f4xx_hal_hcd.c ****   __HAL_LOCK(hhcd);
 947:Drivers/STM32F4xx_HAL_Driver/Src/stm32f4xx_hal_hcd.c **** 
 948:Drivers/STM32F4xx_HAL_Driver/Src/stm32f4xx_hal_hcd.c ****   if (hhcd->State == HAL_HCD_STATE_READY)
 949:Drivers/STM32F4xx_HAL_Driver/Src/stm32f4xx_hal_hcd.c ****   {
 950:Drivers/STM32F4xx_HAL_Driver/Src/stm32f4xx_hal_hcd.c ****     hhcd->HC_NotifyURBChangeCallback = pCallback;
 951:Drivers/STM32F4xx_HAL_Driver/Src/stm32f4xx_hal_hcd.c ****   }
 952:Drivers/STM32F4xx_HAL_Driver/Src/stm32f4xx_hal_hcd.c ****   else
 953:Drivers/STM32F4xx_HAL_Driver/Src/stm32f4xx_hal_hcd.c ****   {
 954:Drivers/STM32F4xx_HAL_Driver/Src/stm32f4xx_hal_hcd.c ****     /* Update the error code */
 955:Drivers/STM32F4xx_HAL_Driver/Src/stm32f4xx_hal_hcd.c ****     hhcd->ErrorCode |= HAL_HCD_ERROR_INVALID_CALLBACK;
 956:Drivers/STM32F4xx_HAL_Driver/Src/stm32f4xx_hal_hcd.c **** 
 957:Drivers/STM32F4xx_HAL_Driver/Src/stm32f4xx_hal_hcd.c ****     /* Return error status */
 958:Drivers/STM32F4xx_HAL_Driver/Src/stm32f4xx_hal_hcd.c ****     status =  HAL_ERROR;
 959:Drivers/STM32F4xx_HAL_Driver/Src/stm32f4xx_hal_hcd.c ****   }
 960:Drivers/STM32F4xx_HAL_Driver/Src/stm32f4xx_hal_hcd.c **** 
 961:Drivers/STM32F4xx_HAL_Driver/Src/stm32f4xx_hal_hcd.c ****   /* Release Lock */
 962:Drivers/STM32F4xx_HAL_Driver/Src/stm32f4xx_hal_hcd.c ****   __HAL_UNLOCK(hhcd);
 963:Drivers/STM32F4xx_HAL_Driver/Src/stm32f4xx_hal_hcd.c **** 
 964:Drivers/STM32F4xx_HAL_Driver/Src/stm32f4xx_hal_hcd.c ****   return status;
 965:Drivers/STM32F4xx_HAL_Driver/Src/stm32f4xx_hal_hcd.c **** }
 966:Drivers/STM32F4xx_HAL_Driver/Src/stm32f4xx_hal_hcd.c **** 
 967:Drivers/STM32F4xx_HAL_Driver/Src/stm32f4xx_hal_hcd.c **** /**
 968:Drivers/STM32F4xx_HAL_Driver/Src/stm32f4xx_hal_hcd.c ****   * @brief  Unregister the USB HCD Host Channel Notify URB Change Callback
 969:Drivers/STM32F4xx_HAL_Driver/Src/stm32f4xx_hal_hcd.c ****   *         USB HCD Host Channel Notify URB Change Callback is redirected
 970:Drivers/STM32F4xx_HAL_Driver/Src/stm32f4xx_hal_hcd.c ****   *         to the weak HAL_HCD_HC_NotifyURBChange_Callback() predefined callback
 971:Drivers/STM32F4xx_HAL_Driver/Src/stm32f4xx_hal_hcd.c ****   * @param  hhcd HCD handle
 972:Drivers/STM32F4xx_HAL_Driver/Src/stm32f4xx_hal_hcd.c ****   * @retval HAL status
 973:Drivers/STM32F4xx_HAL_Driver/Src/stm32f4xx_hal_hcd.c ****   */
 974:Drivers/STM32F4xx_HAL_Driver/Src/stm32f4xx_hal_hcd.c **** HAL_StatusTypeDef HAL_HCD_UnRegisterHC_NotifyURBChangeCallback(HCD_HandleTypeDef *hhcd)
 975:Drivers/STM32F4xx_HAL_Driver/Src/stm32f4xx_hal_hcd.c **** {
 976:Drivers/STM32F4xx_HAL_Driver/Src/stm32f4xx_hal_hcd.c ****   HAL_StatusTypeDef status = HAL_OK;
 977:Drivers/STM32F4xx_HAL_Driver/Src/stm32f4xx_hal_hcd.c **** 
 978:Drivers/STM32F4xx_HAL_Driver/Src/stm32f4xx_hal_hcd.c ****   /* Process locked */
 979:Drivers/STM32F4xx_HAL_Driver/Src/stm32f4xx_hal_hcd.c ****   __HAL_LOCK(hhcd);
 980:Drivers/STM32F4xx_HAL_Driver/Src/stm32f4xx_hal_hcd.c **** 
 981:Drivers/STM32F4xx_HAL_Driver/Src/stm32f4xx_hal_hcd.c ****   if (hhcd->State == HAL_HCD_STATE_READY)
 982:Drivers/STM32F4xx_HAL_Driver/Src/stm32f4xx_hal_hcd.c ****   {
 983:Drivers/STM32F4xx_HAL_Driver/Src/stm32f4xx_hal_hcd.c ****     hhcd->HC_NotifyURBChangeCallback = HAL_HCD_HC_NotifyURBChange_Callback; /* Legacy weak DataOutS
 984:Drivers/STM32F4xx_HAL_Driver/Src/stm32f4xx_hal_hcd.c ****   }
 985:Drivers/STM32F4xx_HAL_Driver/Src/stm32f4xx_hal_hcd.c ****   else
 986:Drivers/STM32F4xx_HAL_Driver/Src/stm32f4xx_hal_hcd.c ****   {
 987:Drivers/STM32F4xx_HAL_Driver/Src/stm32f4xx_hal_hcd.c ****     /* Update the error code */
 988:Drivers/STM32F4xx_HAL_Driver/Src/stm32f4xx_hal_hcd.c ****     hhcd->ErrorCode |= HAL_HCD_ERROR_INVALID_CALLBACK;
 989:Drivers/STM32F4xx_HAL_Driver/Src/stm32f4xx_hal_hcd.c **** 
 990:Drivers/STM32F4xx_HAL_Driver/Src/stm32f4xx_hal_hcd.c ****     /* Return error status */
 991:Drivers/STM32F4xx_HAL_Driver/Src/stm32f4xx_hal_hcd.c ****     status =  HAL_ERROR;
 992:Drivers/STM32F4xx_HAL_Driver/Src/stm32f4xx_hal_hcd.c ****   }
 993:Drivers/STM32F4xx_HAL_Driver/Src/stm32f4xx_hal_hcd.c **** 
 994:Drivers/STM32F4xx_HAL_Driver/Src/stm32f4xx_hal_hcd.c ****   /* Release Lock */
 995:Drivers/STM32F4xx_HAL_Driver/Src/stm32f4xx_hal_hcd.c ****   __HAL_UNLOCK(hhcd);
 996:Drivers/STM32F4xx_HAL_Driver/Src/stm32f4xx_hal_hcd.c **** 
ARM GAS  /var/folders/lp/x54gwt890xv47sdkqj1k04q40000gn/T//cctevgvi.s 			page 39


 997:Drivers/STM32F4xx_HAL_Driver/Src/stm32f4xx_hal_hcd.c ****   return status;
 998:Drivers/STM32F4xx_HAL_Driver/Src/stm32f4xx_hal_hcd.c **** }
 999:Drivers/STM32F4xx_HAL_Driver/Src/stm32f4xx_hal_hcd.c **** #endif /* USE_HAL_HCD_REGISTER_CALLBACKS */
1000:Drivers/STM32F4xx_HAL_Driver/Src/stm32f4xx_hal_hcd.c **** 
1001:Drivers/STM32F4xx_HAL_Driver/Src/stm32f4xx_hal_hcd.c **** /**
1002:Drivers/STM32F4xx_HAL_Driver/Src/stm32f4xx_hal_hcd.c ****   * @}
1003:Drivers/STM32F4xx_HAL_Driver/Src/stm32f4xx_hal_hcd.c ****   */
1004:Drivers/STM32F4xx_HAL_Driver/Src/stm32f4xx_hal_hcd.c **** 
1005:Drivers/STM32F4xx_HAL_Driver/Src/stm32f4xx_hal_hcd.c **** /** @defgroup HCD_Exported_Functions_Group3 Peripheral Control functions
1006:Drivers/STM32F4xx_HAL_Driver/Src/stm32f4xx_hal_hcd.c ****   *  @brief   Management functions
1007:Drivers/STM32F4xx_HAL_Driver/Src/stm32f4xx_hal_hcd.c ****   *
1008:Drivers/STM32F4xx_HAL_Driver/Src/stm32f4xx_hal_hcd.c **** @verbatim
1009:Drivers/STM32F4xx_HAL_Driver/Src/stm32f4xx_hal_hcd.c ****  ===============================================================================
1010:Drivers/STM32F4xx_HAL_Driver/Src/stm32f4xx_hal_hcd.c ****                       ##### Peripheral Control functions #####
1011:Drivers/STM32F4xx_HAL_Driver/Src/stm32f4xx_hal_hcd.c ****  ===============================================================================
1012:Drivers/STM32F4xx_HAL_Driver/Src/stm32f4xx_hal_hcd.c ****     [..]
1013:Drivers/STM32F4xx_HAL_Driver/Src/stm32f4xx_hal_hcd.c ****     This subsection provides a set of functions allowing to control the HCD data
1014:Drivers/STM32F4xx_HAL_Driver/Src/stm32f4xx_hal_hcd.c ****     transfers.
1015:Drivers/STM32F4xx_HAL_Driver/Src/stm32f4xx_hal_hcd.c **** 
1016:Drivers/STM32F4xx_HAL_Driver/Src/stm32f4xx_hal_hcd.c **** @endverbatim
1017:Drivers/STM32F4xx_HAL_Driver/Src/stm32f4xx_hal_hcd.c ****   * @{
1018:Drivers/STM32F4xx_HAL_Driver/Src/stm32f4xx_hal_hcd.c ****   */
1019:Drivers/STM32F4xx_HAL_Driver/Src/stm32f4xx_hal_hcd.c **** 
1020:Drivers/STM32F4xx_HAL_Driver/Src/stm32f4xx_hal_hcd.c **** /**
1021:Drivers/STM32F4xx_HAL_Driver/Src/stm32f4xx_hal_hcd.c ****   * @brief  Start the host driver.
1022:Drivers/STM32F4xx_HAL_Driver/Src/stm32f4xx_hal_hcd.c ****   * @param  hhcd HCD handle
1023:Drivers/STM32F4xx_HAL_Driver/Src/stm32f4xx_hal_hcd.c ****   * @retval HAL status
1024:Drivers/STM32F4xx_HAL_Driver/Src/stm32f4xx_hal_hcd.c ****   */
1025:Drivers/STM32F4xx_HAL_Driver/Src/stm32f4xx_hal_hcd.c **** HAL_StatusTypeDef HAL_HCD_Start(HCD_HandleTypeDef *hhcd)
1026:Drivers/STM32F4xx_HAL_Driver/Src/stm32f4xx_hal_hcd.c **** {
1027:Drivers/STM32F4xx_HAL_Driver/Src/stm32f4xx_hal_hcd.c ****   __HAL_LOCK(hhcd);
1028:Drivers/STM32F4xx_HAL_Driver/Src/stm32f4xx_hal_hcd.c ****   /* Enable port power */
1029:Drivers/STM32F4xx_HAL_Driver/Src/stm32f4xx_hal_hcd.c ****   (void)USB_DriveVbus(hhcd->Instance, 1U);
1030:Drivers/STM32F4xx_HAL_Driver/Src/stm32f4xx_hal_hcd.c **** 
1031:Drivers/STM32F4xx_HAL_Driver/Src/stm32f4xx_hal_hcd.c ****   /* Enable global interrupt */
1032:Drivers/STM32F4xx_HAL_Driver/Src/stm32f4xx_hal_hcd.c ****   __HAL_HCD_ENABLE(hhcd);
1033:Drivers/STM32F4xx_HAL_Driver/Src/stm32f4xx_hal_hcd.c ****   __HAL_UNLOCK(hhcd);
1034:Drivers/STM32F4xx_HAL_Driver/Src/stm32f4xx_hal_hcd.c **** 
1035:Drivers/STM32F4xx_HAL_Driver/Src/stm32f4xx_hal_hcd.c ****   return HAL_OK;
1036:Drivers/STM32F4xx_HAL_Driver/Src/stm32f4xx_hal_hcd.c **** }
1037:Drivers/STM32F4xx_HAL_Driver/Src/stm32f4xx_hal_hcd.c **** 
1038:Drivers/STM32F4xx_HAL_Driver/Src/stm32f4xx_hal_hcd.c **** /**
1039:Drivers/STM32F4xx_HAL_Driver/Src/stm32f4xx_hal_hcd.c ****   * @brief  Stop the host driver.
1040:Drivers/STM32F4xx_HAL_Driver/Src/stm32f4xx_hal_hcd.c ****   * @param  hhcd HCD handle
1041:Drivers/STM32F4xx_HAL_Driver/Src/stm32f4xx_hal_hcd.c ****   * @retval HAL status
1042:Drivers/STM32F4xx_HAL_Driver/Src/stm32f4xx_hal_hcd.c ****   */
1043:Drivers/STM32F4xx_HAL_Driver/Src/stm32f4xx_hal_hcd.c **** 
1044:Drivers/STM32F4xx_HAL_Driver/Src/stm32f4xx_hal_hcd.c **** HAL_StatusTypeDef HAL_HCD_Stop(HCD_HandleTypeDef *hhcd)
1045:Drivers/STM32F4xx_HAL_Driver/Src/stm32f4xx_hal_hcd.c **** {
1046:Drivers/STM32F4xx_HAL_Driver/Src/stm32f4xx_hal_hcd.c ****   __HAL_LOCK(hhcd);
1047:Drivers/STM32F4xx_HAL_Driver/Src/stm32f4xx_hal_hcd.c ****   (void)USB_StopHost(hhcd->Instance);
1048:Drivers/STM32F4xx_HAL_Driver/Src/stm32f4xx_hal_hcd.c ****   __HAL_UNLOCK(hhcd);
1049:Drivers/STM32F4xx_HAL_Driver/Src/stm32f4xx_hal_hcd.c **** 
1050:Drivers/STM32F4xx_HAL_Driver/Src/stm32f4xx_hal_hcd.c ****   return HAL_OK;
1051:Drivers/STM32F4xx_HAL_Driver/Src/stm32f4xx_hal_hcd.c **** }
1052:Drivers/STM32F4xx_HAL_Driver/Src/stm32f4xx_hal_hcd.c **** 
1053:Drivers/STM32F4xx_HAL_Driver/Src/stm32f4xx_hal_hcd.c **** /**
ARM GAS  /var/folders/lp/x54gwt890xv47sdkqj1k04q40000gn/T//cctevgvi.s 			page 40


1054:Drivers/STM32F4xx_HAL_Driver/Src/stm32f4xx_hal_hcd.c ****   * @brief  Reset the host port.
1055:Drivers/STM32F4xx_HAL_Driver/Src/stm32f4xx_hal_hcd.c ****   * @param  hhcd HCD handle
1056:Drivers/STM32F4xx_HAL_Driver/Src/stm32f4xx_hal_hcd.c ****   * @retval HAL status
1057:Drivers/STM32F4xx_HAL_Driver/Src/stm32f4xx_hal_hcd.c ****   */
1058:Drivers/STM32F4xx_HAL_Driver/Src/stm32f4xx_hal_hcd.c **** HAL_StatusTypeDef HAL_HCD_ResetPort(HCD_HandleTypeDef *hhcd)
1059:Drivers/STM32F4xx_HAL_Driver/Src/stm32f4xx_hal_hcd.c **** {
1060:Drivers/STM32F4xx_HAL_Driver/Src/stm32f4xx_hal_hcd.c ****   return (USB_ResetPort(hhcd->Instance));
1061:Drivers/STM32F4xx_HAL_Driver/Src/stm32f4xx_hal_hcd.c **** }
1062:Drivers/STM32F4xx_HAL_Driver/Src/stm32f4xx_hal_hcd.c **** 
1063:Drivers/STM32F4xx_HAL_Driver/Src/stm32f4xx_hal_hcd.c **** /**
1064:Drivers/STM32F4xx_HAL_Driver/Src/stm32f4xx_hal_hcd.c ****   * @}
1065:Drivers/STM32F4xx_HAL_Driver/Src/stm32f4xx_hal_hcd.c ****   */
1066:Drivers/STM32F4xx_HAL_Driver/Src/stm32f4xx_hal_hcd.c **** 
1067:Drivers/STM32F4xx_HAL_Driver/Src/stm32f4xx_hal_hcd.c **** /** @defgroup HCD_Exported_Functions_Group4 Peripheral State functions
1068:Drivers/STM32F4xx_HAL_Driver/Src/stm32f4xx_hal_hcd.c ****   *  @brief   Peripheral State functions
1069:Drivers/STM32F4xx_HAL_Driver/Src/stm32f4xx_hal_hcd.c ****   *
1070:Drivers/STM32F4xx_HAL_Driver/Src/stm32f4xx_hal_hcd.c **** @verbatim
1071:Drivers/STM32F4xx_HAL_Driver/Src/stm32f4xx_hal_hcd.c ****  ===============================================================================
1072:Drivers/STM32F4xx_HAL_Driver/Src/stm32f4xx_hal_hcd.c ****                       ##### Peripheral State functions #####
1073:Drivers/STM32F4xx_HAL_Driver/Src/stm32f4xx_hal_hcd.c ****  ===============================================================================
1074:Drivers/STM32F4xx_HAL_Driver/Src/stm32f4xx_hal_hcd.c ****     [..]
1075:Drivers/STM32F4xx_HAL_Driver/Src/stm32f4xx_hal_hcd.c ****     This subsection permits to get in run-time the status of the peripheral
1076:Drivers/STM32F4xx_HAL_Driver/Src/stm32f4xx_hal_hcd.c ****     and the data flow.
1077:Drivers/STM32F4xx_HAL_Driver/Src/stm32f4xx_hal_hcd.c **** 
1078:Drivers/STM32F4xx_HAL_Driver/Src/stm32f4xx_hal_hcd.c **** @endverbatim
1079:Drivers/STM32F4xx_HAL_Driver/Src/stm32f4xx_hal_hcd.c ****   * @{
1080:Drivers/STM32F4xx_HAL_Driver/Src/stm32f4xx_hal_hcd.c ****   */
1081:Drivers/STM32F4xx_HAL_Driver/Src/stm32f4xx_hal_hcd.c **** 
1082:Drivers/STM32F4xx_HAL_Driver/Src/stm32f4xx_hal_hcd.c **** /**
1083:Drivers/STM32F4xx_HAL_Driver/Src/stm32f4xx_hal_hcd.c ****   * @brief  Return the HCD handle state.
1084:Drivers/STM32F4xx_HAL_Driver/Src/stm32f4xx_hal_hcd.c ****   * @param  hhcd HCD handle
1085:Drivers/STM32F4xx_HAL_Driver/Src/stm32f4xx_hal_hcd.c ****   * @retval HAL state
1086:Drivers/STM32F4xx_HAL_Driver/Src/stm32f4xx_hal_hcd.c ****   */
1087:Drivers/STM32F4xx_HAL_Driver/Src/stm32f4xx_hal_hcd.c **** HCD_StateTypeDef HAL_HCD_GetState(HCD_HandleTypeDef *hhcd)
1088:Drivers/STM32F4xx_HAL_Driver/Src/stm32f4xx_hal_hcd.c **** {
1089:Drivers/STM32F4xx_HAL_Driver/Src/stm32f4xx_hal_hcd.c ****   return hhcd->State;
1090:Drivers/STM32F4xx_HAL_Driver/Src/stm32f4xx_hal_hcd.c **** }
1091:Drivers/STM32F4xx_HAL_Driver/Src/stm32f4xx_hal_hcd.c **** 
1092:Drivers/STM32F4xx_HAL_Driver/Src/stm32f4xx_hal_hcd.c **** /**
1093:Drivers/STM32F4xx_HAL_Driver/Src/stm32f4xx_hal_hcd.c ****   * @brief  Return  URB state for a channel.
1094:Drivers/STM32F4xx_HAL_Driver/Src/stm32f4xx_hal_hcd.c ****   * @param  hhcd HCD handle
1095:Drivers/STM32F4xx_HAL_Driver/Src/stm32f4xx_hal_hcd.c ****   * @param  chnum Channel number.
1096:Drivers/STM32F4xx_HAL_Driver/Src/stm32f4xx_hal_hcd.c ****   *         This parameter can be a value from 1 to 15
1097:Drivers/STM32F4xx_HAL_Driver/Src/stm32f4xx_hal_hcd.c ****   * @retval URB state.
1098:Drivers/STM32F4xx_HAL_Driver/Src/stm32f4xx_hal_hcd.c ****   *          This parameter can be one of these values:
1099:Drivers/STM32F4xx_HAL_Driver/Src/stm32f4xx_hal_hcd.c ****   *            URB_IDLE/
1100:Drivers/STM32F4xx_HAL_Driver/Src/stm32f4xx_hal_hcd.c ****   *            URB_DONE/
1101:Drivers/STM32F4xx_HAL_Driver/Src/stm32f4xx_hal_hcd.c ****   *            URB_NOTREADY/
1102:Drivers/STM32F4xx_HAL_Driver/Src/stm32f4xx_hal_hcd.c ****   *            URB_NYET/
1103:Drivers/STM32F4xx_HAL_Driver/Src/stm32f4xx_hal_hcd.c ****   *            URB_ERROR/
1104:Drivers/STM32F4xx_HAL_Driver/Src/stm32f4xx_hal_hcd.c ****   *            URB_STALL
1105:Drivers/STM32F4xx_HAL_Driver/Src/stm32f4xx_hal_hcd.c ****   */
1106:Drivers/STM32F4xx_HAL_Driver/Src/stm32f4xx_hal_hcd.c **** HCD_URBStateTypeDef HAL_HCD_HC_GetURBState(HCD_HandleTypeDef *hhcd, uint8_t chnum)
1107:Drivers/STM32F4xx_HAL_Driver/Src/stm32f4xx_hal_hcd.c **** {
1108:Drivers/STM32F4xx_HAL_Driver/Src/stm32f4xx_hal_hcd.c ****   return hhcd->hc[chnum].urb_state;
1109:Drivers/STM32F4xx_HAL_Driver/Src/stm32f4xx_hal_hcd.c **** }
1110:Drivers/STM32F4xx_HAL_Driver/Src/stm32f4xx_hal_hcd.c **** 
ARM GAS  /var/folders/lp/x54gwt890xv47sdkqj1k04q40000gn/T//cctevgvi.s 			page 41


1111:Drivers/STM32F4xx_HAL_Driver/Src/stm32f4xx_hal_hcd.c **** 
1112:Drivers/STM32F4xx_HAL_Driver/Src/stm32f4xx_hal_hcd.c **** /**
1113:Drivers/STM32F4xx_HAL_Driver/Src/stm32f4xx_hal_hcd.c ****   * @brief  Return the last host transfer size.
1114:Drivers/STM32F4xx_HAL_Driver/Src/stm32f4xx_hal_hcd.c ****   * @param  hhcd HCD handle
1115:Drivers/STM32F4xx_HAL_Driver/Src/stm32f4xx_hal_hcd.c ****   * @param  chnum Channel number.
1116:Drivers/STM32F4xx_HAL_Driver/Src/stm32f4xx_hal_hcd.c ****   *         This parameter can be a value from 1 to 15
1117:Drivers/STM32F4xx_HAL_Driver/Src/stm32f4xx_hal_hcd.c ****   * @retval last transfer size in byte
1118:Drivers/STM32F4xx_HAL_Driver/Src/stm32f4xx_hal_hcd.c ****   */
1119:Drivers/STM32F4xx_HAL_Driver/Src/stm32f4xx_hal_hcd.c **** uint32_t HAL_HCD_HC_GetXferCount(HCD_HandleTypeDef *hhcd, uint8_t chnum)
1120:Drivers/STM32F4xx_HAL_Driver/Src/stm32f4xx_hal_hcd.c **** {
1121:Drivers/STM32F4xx_HAL_Driver/Src/stm32f4xx_hal_hcd.c ****   return hhcd->hc[chnum].xfer_count;
1122:Drivers/STM32F4xx_HAL_Driver/Src/stm32f4xx_hal_hcd.c **** }
1123:Drivers/STM32F4xx_HAL_Driver/Src/stm32f4xx_hal_hcd.c **** 
1124:Drivers/STM32F4xx_HAL_Driver/Src/stm32f4xx_hal_hcd.c **** /**
1125:Drivers/STM32F4xx_HAL_Driver/Src/stm32f4xx_hal_hcd.c ****   * @brief  Return the Host Channel state.
1126:Drivers/STM32F4xx_HAL_Driver/Src/stm32f4xx_hal_hcd.c ****   * @param  hhcd HCD handle
1127:Drivers/STM32F4xx_HAL_Driver/Src/stm32f4xx_hal_hcd.c ****   * @param  chnum Channel number.
1128:Drivers/STM32F4xx_HAL_Driver/Src/stm32f4xx_hal_hcd.c ****   *         This parameter can be a value from 1 to 15
1129:Drivers/STM32F4xx_HAL_Driver/Src/stm32f4xx_hal_hcd.c ****   * @retval Host channel state
1130:Drivers/STM32F4xx_HAL_Driver/Src/stm32f4xx_hal_hcd.c ****   *          This parameter can be one of these values:
1131:Drivers/STM32F4xx_HAL_Driver/Src/stm32f4xx_hal_hcd.c ****   *            HC_IDLE/
1132:Drivers/STM32F4xx_HAL_Driver/Src/stm32f4xx_hal_hcd.c ****   *            HC_XFRC/
1133:Drivers/STM32F4xx_HAL_Driver/Src/stm32f4xx_hal_hcd.c ****   *            HC_HALTED/
1134:Drivers/STM32F4xx_HAL_Driver/Src/stm32f4xx_hal_hcd.c ****   *            HC_NYET/
1135:Drivers/STM32F4xx_HAL_Driver/Src/stm32f4xx_hal_hcd.c ****   *            HC_NAK/
1136:Drivers/STM32F4xx_HAL_Driver/Src/stm32f4xx_hal_hcd.c ****   *            HC_STALL/
1137:Drivers/STM32F4xx_HAL_Driver/Src/stm32f4xx_hal_hcd.c ****   *            HC_XACTERR/
1138:Drivers/STM32F4xx_HAL_Driver/Src/stm32f4xx_hal_hcd.c ****   *            HC_BBLERR/
1139:Drivers/STM32F4xx_HAL_Driver/Src/stm32f4xx_hal_hcd.c ****   *            HC_DATATGLERR
1140:Drivers/STM32F4xx_HAL_Driver/Src/stm32f4xx_hal_hcd.c ****   */
1141:Drivers/STM32F4xx_HAL_Driver/Src/stm32f4xx_hal_hcd.c **** HCD_HCStateTypeDef  HAL_HCD_HC_GetState(HCD_HandleTypeDef *hhcd, uint8_t chnum)
1142:Drivers/STM32F4xx_HAL_Driver/Src/stm32f4xx_hal_hcd.c **** {
1143:Drivers/STM32F4xx_HAL_Driver/Src/stm32f4xx_hal_hcd.c ****   return hhcd->hc[chnum].state;
1144:Drivers/STM32F4xx_HAL_Driver/Src/stm32f4xx_hal_hcd.c **** }
1145:Drivers/STM32F4xx_HAL_Driver/Src/stm32f4xx_hal_hcd.c **** 
1146:Drivers/STM32F4xx_HAL_Driver/Src/stm32f4xx_hal_hcd.c **** /**
1147:Drivers/STM32F4xx_HAL_Driver/Src/stm32f4xx_hal_hcd.c ****   * @brief  Return the current Host frame number.
1148:Drivers/STM32F4xx_HAL_Driver/Src/stm32f4xx_hal_hcd.c ****   * @param  hhcd HCD handle
1149:Drivers/STM32F4xx_HAL_Driver/Src/stm32f4xx_hal_hcd.c ****   * @retval Current Host frame number
1150:Drivers/STM32F4xx_HAL_Driver/Src/stm32f4xx_hal_hcd.c ****   */
1151:Drivers/STM32F4xx_HAL_Driver/Src/stm32f4xx_hal_hcd.c **** uint32_t HAL_HCD_GetCurrentFrame(HCD_HandleTypeDef *hhcd)
1152:Drivers/STM32F4xx_HAL_Driver/Src/stm32f4xx_hal_hcd.c **** {
1153:Drivers/STM32F4xx_HAL_Driver/Src/stm32f4xx_hal_hcd.c ****   return (USB_GetCurrentFrame(hhcd->Instance));
1154:Drivers/STM32F4xx_HAL_Driver/Src/stm32f4xx_hal_hcd.c **** }
1155:Drivers/STM32F4xx_HAL_Driver/Src/stm32f4xx_hal_hcd.c **** 
1156:Drivers/STM32F4xx_HAL_Driver/Src/stm32f4xx_hal_hcd.c **** /**
1157:Drivers/STM32F4xx_HAL_Driver/Src/stm32f4xx_hal_hcd.c ****   * @brief  Return the Host enumeration speed.
1158:Drivers/STM32F4xx_HAL_Driver/Src/stm32f4xx_hal_hcd.c ****   * @param  hhcd HCD handle
1159:Drivers/STM32F4xx_HAL_Driver/Src/stm32f4xx_hal_hcd.c ****   * @retval Enumeration speed
1160:Drivers/STM32F4xx_HAL_Driver/Src/stm32f4xx_hal_hcd.c ****   */
1161:Drivers/STM32F4xx_HAL_Driver/Src/stm32f4xx_hal_hcd.c **** uint32_t HAL_HCD_GetCurrentSpeed(HCD_HandleTypeDef *hhcd)
1162:Drivers/STM32F4xx_HAL_Driver/Src/stm32f4xx_hal_hcd.c **** {
1163:Drivers/STM32F4xx_HAL_Driver/Src/stm32f4xx_hal_hcd.c ****   return (USB_GetHostSpeed(hhcd->Instance));
1164:Drivers/STM32F4xx_HAL_Driver/Src/stm32f4xx_hal_hcd.c **** }
1165:Drivers/STM32F4xx_HAL_Driver/Src/stm32f4xx_hal_hcd.c **** 
1166:Drivers/STM32F4xx_HAL_Driver/Src/stm32f4xx_hal_hcd.c **** /**
1167:Drivers/STM32F4xx_HAL_Driver/Src/stm32f4xx_hal_hcd.c ****   * @}
ARM GAS  /var/folders/lp/x54gwt890xv47sdkqj1k04q40000gn/T//cctevgvi.s 			page 42


1168:Drivers/STM32F4xx_HAL_Driver/Src/stm32f4xx_hal_hcd.c ****   */
1169:Drivers/STM32F4xx_HAL_Driver/Src/stm32f4xx_hal_hcd.c **** 
1170:Drivers/STM32F4xx_HAL_Driver/Src/stm32f4xx_hal_hcd.c **** /**
1171:Drivers/STM32F4xx_HAL_Driver/Src/stm32f4xx_hal_hcd.c ****   * @}
1172:Drivers/STM32F4xx_HAL_Driver/Src/stm32f4xx_hal_hcd.c ****   */
1173:Drivers/STM32F4xx_HAL_Driver/Src/stm32f4xx_hal_hcd.c **** 
1174:Drivers/STM32F4xx_HAL_Driver/Src/stm32f4xx_hal_hcd.c **** /** @addtogroup HCD_Private_Functions
1175:Drivers/STM32F4xx_HAL_Driver/Src/stm32f4xx_hal_hcd.c ****   * @{
1176:Drivers/STM32F4xx_HAL_Driver/Src/stm32f4xx_hal_hcd.c ****   */
1177:Drivers/STM32F4xx_HAL_Driver/Src/stm32f4xx_hal_hcd.c **** /**
1178:Drivers/STM32F4xx_HAL_Driver/Src/stm32f4xx_hal_hcd.c ****   * @brief  Handle Host Channel IN interrupt requests.
1179:Drivers/STM32F4xx_HAL_Driver/Src/stm32f4xx_hal_hcd.c ****   * @param  hhcd HCD handle
1180:Drivers/STM32F4xx_HAL_Driver/Src/stm32f4xx_hal_hcd.c ****   * @param  chnum Channel number.
1181:Drivers/STM32F4xx_HAL_Driver/Src/stm32f4xx_hal_hcd.c ****   *         This parameter can be a value from 1 to 15
1182:Drivers/STM32F4xx_HAL_Driver/Src/stm32f4xx_hal_hcd.c ****   * @retval none
1183:Drivers/STM32F4xx_HAL_Driver/Src/stm32f4xx_hal_hcd.c ****   */
1184:Drivers/STM32F4xx_HAL_Driver/Src/stm32f4xx_hal_hcd.c **** static void HCD_HC_IN_IRQHandler(HCD_HandleTypeDef *hhcd, uint8_t chnum)
1185:Drivers/STM32F4xx_HAL_Driver/Src/stm32f4xx_hal_hcd.c **** {
1186:Drivers/STM32F4xx_HAL_Driver/Src/stm32f4xx_hal_hcd.c ****   USB_OTG_GlobalTypeDef *USBx = hhcd->Instance;
1187:Drivers/STM32F4xx_HAL_Driver/Src/stm32f4xx_hal_hcd.c ****   uint32_t USBx_BASE = (uint32_t)USBx;
1188:Drivers/STM32F4xx_HAL_Driver/Src/stm32f4xx_hal_hcd.c ****   uint32_t ch_num = (uint32_t)chnum;
1189:Drivers/STM32F4xx_HAL_Driver/Src/stm32f4xx_hal_hcd.c **** 
1190:Drivers/STM32F4xx_HAL_Driver/Src/stm32f4xx_hal_hcd.c ****   uint32_t tmpreg;
1191:Drivers/STM32F4xx_HAL_Driver/Src/stm32f4xx_hal_hcd.c **** 
1192:Drivers/STM32F4xx_HAL_Driver/Src/stm32f4xx_hal_hcd.c ****   if ((USBx_HC(ch_num)->HCINT & USB_OTG_HCINT_AHBERR) == USB_OTG_HCINT_AHBERR)
 1002              		.loc 1 1192 8 view .LVU285
 1003 00d0 00F5A06A 		add	r10, r0, #1280
 1004 00d4 0AEB4817 		add	r7, r10, r8, lsl #5
 1005              	.LBE11:
 1006              	.LBE10:
 592:Drivers/STM32F4xx_HAL_Driver/Src/stm32f4xx_hal_hcd.c ****           {
 1007              		.loc 1 592 14 view .LVU286
 1008 00d8 13F4004F 		tst	r3, #32768
 1009              	.LBB25:
 1010              	.LBB12:
 1011              		.loc 1 1192 8 view .LVU287
 1012 00dc 4FEA481B 		lsl	fp, r8, #5
 1013              		.loc 1 1192 23 view .LVU288
 1014 00e0 BB68     		ldr	r3, [r7, #8]
 1015              	.LBE12:
 1016              	.LBE25:
 592:Drivers/STM32F4xx_HAL_Driver/Src/stm32f4xx_hal_hcd.c ****           {
 1017              		.loc 1 592 14 view .LVU289
 1018 00e2 77D0     		beq	.L101
 594:Drivers/STM32F4xx_HAL_Driver/Src/stm32f4xx_hal_hcd.c ****           }
 1019              		.loc 1 594 13 is_stmt 1 view .LVU290
 1020              	.LVL67:
 1021              	.LBB26:
 1022              	.LBI10:
1184:Drivers/STM32F4xx_HAL_Driver/Src/stm32f4xx_hal_hcd.c **** {
 1023              		.loc 1 1184 13 view .LVU291
 1024              	.LBB13:
1186:Drivers/STM32F4xx_HAL_Driver/Src/stm32f4xx_hal_hcd.c ****   uint32_t USBx_BASE = (uint32_t)USBx;
 1025              		.loc 1 1186 3 view .LVU292
1187:Drivers/STM32F4xx_HAL_Driver/Src/stm32f4xx_hal_hcd.c ****   uint32_t ch_num = (uint32_t)chnum;
 1026              		.loc 1 1187 3 view .LVU293
1188:Drivers/STM32F4xx_HAL_Driver/Src/stm32f4xx_hal_hcd.c **** 
ARM GAS  /var/folders/lp/x54gwt890xv47sdkqj1k04q40000gn/T//cctevgvi.s 			page 43


 1027              		.loc 1 1188 3 view .LVU294
1190:Drivers/STM32F4xx_HAL_Driver/Src/stm32f4xx_hal_hcd.c **** 
 1028              		.loc 1 1190 3 view .LVU295
 1029              		.loc 1 1192 3 view .LVU296
 1030              		.loc 1 1192 6 is_stmt 0 view .LVU297
 1031 00e4 5907     		lsls	r1, r3, #29
 1032 00e6 00F17381 		bmi	.L226
1193:Drivers/STM32F4xx_HAL_Driver/Src/stm32f4xx_hal_hcd.c ****   {
1194:Drivers/STM32F4xx_HAL_Driver/Src/stm32f4xx_hal_hcd.c ****     __HAL_HCD_CLEAR_HC_INT(ch_num, USB_OTG_HCINT_AHBERR);
1195:Drivers/STM32F4xx_HAL_Driver/Src/stm32f4xx_hal_hcd.c ****     hhcd->hc[ch_num].state = HC_XACTERR;
1196:Drivers/STM32F4xx_HAL_Driver/Src/stm32f4xx_hal_hcd.c ****     (void)USB_HC_Halt(hhcd->Instance, (uint8_t)ch_num);
1197:Drivers/STM32F4xx_HAL_Driver/Src/stm32f4xx_hal_hcd.c ****   }
1198:Drivers/STM32F4xx_HAL_Driver/Src/stm32f4xx_hal_hcd.c ****   else if ((USBx_HC(ch_num)->HCINT & USB_OTG_HCINT_BBERR) == USB_OTG_HCINT_BBERR)
 1033              		.loc 1 1198 8 is_stmt 1 view .LVU298
 1034              		.loc 1 1198 28 is_stmt 0 view .LVU299
 1035 00ea BB68     		ldr	r3, [r7, #8]
 1036              		.loc 1 1198 11 view .LVU300
 1037 00ec DA05     		lsls	r2, r3, #23
 1038 00ee 00F18C81 		bmi	.L227
1199:Drivers/STM32F4xx_HAL_Driver/Src/stm32f4xx_hal_hcd.c ****   {
1200:Drivers/STM32F4xx_HAL_Driver/Src/stm32f4xx_hal_hcd.c ****     __HAL_HCD_CLEAR_HC_INT(ch_num, USB_OTG_HCINT_BBERR);
1201:Drivers/STM32F4xx_HAL_Driver/Src/stm32f4xx_hal_hcd.c ****     hhcd->hc[ch_num].state = HC_BBLERR;
1202:Drivers/STM32F4xx_HAL_Driver/Src/stm32f4xx_hal_hcd.c ****     (void)USB_HC_Halt(hhcd->Instance, (uint8_t)ch_num);
1203:Drivers/STM32F4xx_HAL_Driver/Src/stm32f4xx_hal_hcd.c ****   }
1204:Drivers/STM32F4xx_HAL_Driver/Src/stm32f4xx_hal_hcd.c ****   else if ((USBx_HC(ch_num)->HCINT & USB_OTG_HCINT_ACK) == USB_OTG_HCINT_ACK)
 1039              		.loc 1 1204 8 is_stmt 1 view .LVU301
 1040              		.loc 1 1204 28 is_stmt 0 view .LVU302
 1041 00f2 BB68     		ldr	r3, [r7, #8]
 1042              		.loc 1 1204 11 view .LVU303
 1043 00f4 9B06     		lsls	r3, r3, #26
 1044 00f6 40F17781 		bpl	.L105
1205:Drivers/STM32F4xx_HAL_Driver/Src/stm32f4xx_hal_hcd.c ****   {
1206:Drivers/STM32F4xx_HAL_Driver/Src/stm32f4xx_hal_hcd.c ****     __HAL_HCD_CLEAR_HC_INT(ch_num, USB_OTG_HCINT_ACK);
 1045              		.loc 1 1206 5 is_stmt 1 view .LVU304
 1046 00fa 2023     		movs	r3, #32
 1047 00fc BB60     		str	r3, [r7, #8]
 1048              	.L103:
1207:Drivers/STM32F4xx_HAL_Driver/Src/stm32f4xx_hal_hcd.c ****   }
1208:Drivers/STM32F4xx_HAL_Driver/Src/stm32f4xx_hal_hcd.c ****   else if ((USBx_HC(ch_num)->HCINT & USB_OTG_HCINT_STALL) == USB_OTG_HCINT_STALL)
1209:Drivers/STM32F4xx_HAL_Driver/Src/stm32f4xx_hal_hcd.c ****   {
1210:Drivers/STM32F4xx_HAL_Driver/Src/stm32f4xx_hal_hcd.c ****     __HAL_HCD_CLEAR_HC_INT(ch_num, USB_OTG_HCINT_STALL);
1211:Drivers/STM32F4xx_HAL_Driver/Src/stm32f4xx_hal_hcd.c ****     hhcd->hc[ch_num].state = HC_STALL;
1212:Drivers/STM32F4xx_HAL_Driver/Src/stm32f4xx_hal_hcd.c ****     (void)USB_HC_Halt(hhcd->Instance, (uint8_t)ch_num);
1213:Drivers/STM32F4xx_HAL_Driver/Src/stm32f4xx_hal_hcd.c ****   }
1214:Drivers/STM32F4xx_HAL_Driver/Src/stm32f4xx_hal_hcd.c ****   else if ((USBx_HC(ch_num)->HCINT & USB_OTG_HCINT_DTERR) == USB_OTG_HCINT_DTERR)
1215:Drivers/STM32F4xx_HAL_Driver/Src/stm32f4xx_hal_hcd.c ****   {
1216:Drivers/STM32F4xx_HAL_Driver/Src/stm32f4xx_hal_hcd.c ****     __HAL_HCD_CLEAR_HC_INT(ch_num, USB_OTG_HCINT_DTERR);
1217:Drivers/STM32F4xx_HAL_Driver/Src/stm32f4xx_hal_hcd.c ****     hhcd->hc[ch_num].state = HC_DATATGLERR;
1218:Drivers/STM32F4xx_HAL_Driver/Src/stm32f4xx_hal_hcd.c ****     (void)USB_HC_Halt(hhcd->Instance, (uint8_t)ch_num);
1219:Drivers/STM32F4xx_HAL_Driver/Src/stm32f4xx_hal_hcd.c ****   }
1220:Drivers/STM32F4xx_HAL_Driver/Src/stm32f4xx_hal_hcd.c ****   else if ((USBx_HC(ch_num)->HCINT & USB_OTG_HCINT_TXERR) == USB_OTG_HCINT_TXERR)
1221:Drivers/STM32F4xx_HAL_Driver/Src/stm32f4xx_hal_hcd.c ****   {
1222:Drivers/STM32F4xx_HAL_Driver/Src/stm32f4xx_hal_hcd.c ****     __HAL_HCD_CLEAR_HC_INT(ch_num, USB_OTG_HCINT_TXERR);
1223:Drivers/STM32F4xx_HAL_Driver/Src/stm32f4xx_hal_hcd.c ****     hhcd->hc[ch_num].state = HC_XACTERR;
1224:Drivers/STM32F4xx_HAL_Driver/Src/stm32f4xx_hal_hcd.c ****     (void)USB_HC_Halt(hhcd->Instance, (uint8_t)ch_num);
1225:Drivers/STM32F4xx_HAL_Driver/Src/stm32f4xx_hal_hcd.c ****   }
1226:Drivers/STM32F4xx_HAL_Driver/Src/stm32f4xx_hal_hcd.c ****   else
ARM GAS  /var/folders/lp/x54gwt890xv47sdkqj1k04q40000gn/T//cctevgvi.s 			page 44


1227:Drivers/STM32F4xx_HAL_Driver/Src/stm32f4xx_hal_hcd.c ****   {
1228:Drivers/STM32F4xx_HAL_Driver/Src/stm32f4xx_hal_hcd.c ****     /* ... */
1229:Drivers/STM32F4xx_HAL_Driver/Src/stm32f4xx_hal_hcd.c ****   }
 1049              		.loc 1 1229 3 view .LVU305
1230:Drivers/STM32F4xx_HAL_Driver/Src/stm32f4xx_hal_hcd.c **** 
1231:Drivers/STM32F4xx_HAL_Driver/Src/stm32f4xx_hal_hcd.c ****   if ((USBx_HC(ch_num)->HCINT & USB_OTG_HCINT_FRMOR) == USB_OTG_HCINT_FRMOR)
 1050              		.loc 1 1231 3 view .LVU306
 1051              		.loc 1 1231 23 is_stmt 0 view .LVU307
 1052 00fe BB68     		ldr	r3, [r7, #8]
 1053              		.loc 1 1231 6 view .LVU308
 1054 0100 13F40073 		ands	r3, r3, #512
 1055 0104 40F05A81 		bne	.L228
1232:Drivers/STM32F4xx_HAL_Driver/Src/stm32f4xx_hal_hcd.c ****   {
1233:Drivers/STM32F4xx_HAL_Driver/Src/stm32f4xx_hal_hcd.c ****     (void)USB_HC_Halt(hhcd->Instance, (uint8_t)ch_num);
1234:Drivers/STM32F4xx_HAL_Driver/Src/stm32f4xx_hal_hcd.c ****     __HAL_HCD_CLEAR_HC_INT(ch_num, USB_OTG_HCINT_FRMOR);
1235:Drivers/STM32F4xx_HAL_Driver/Src/stm32f4xx_hal_hcd.c ****   }
1236:Drivers/STM32F4xx_HAL_Driver/Src/stm32f4xx_hal_hcd.c ****   else if ((USBx_HC(ch_num)->HCINT & USB_OTG_HCINT_XFRC) == USB_OTG_HCINT_XFRC)
 1056              		.loc 1 1236 8 is_stmt 1 view .LVU309
 1057              		.loc 1 1236 28 is_stmt 0 view .LVU310
 1058 0108 B968     		ldr	r1, [r7, #8]
 1059              		.loc 1 1236 11 view .LVU311
 1060 010a 11F00101 		ands	r1, r1, #1
 1061 010e 00F0F180 		beq	.L109
1237:Drivers/STM32F4xx_HAL_Driver/Src/stm32f4xx_hal_hcd.c ****   {
1238:Drivers/STM32F4xx_HAL_Driver/Src/stm32f4xx_hal_hcd.c ****     if (hhcd->Init.dma_enable != 0U)
 1062              		.loc 1 1238 5 is_stmt 1 view .LVU312
 1063              		.loc 1 1238 19 is_stmt 0 view .LVU313
 1064 0112 2169     		ldr	r1, [r4, #16]
 1065              		.loc 1 1238 8 view .LVU314
 1066 0114 0029     		cmp	r1, #0
 1067 0116 00F08581 		beq	.L110
1239:Drivers/STM32F4xx_HAL_Driver/Src/stm32f4xx_hal_hcd.c ****     {
1240:Drivers/STM32F4xx_HAL_Driver/Src/stm32f4xx_hal_hcd.c ****       hhcd->hc[ch_num].xfer_count = hhcd->hc[ch_num].XferSize - \
 1068              		.loc 1 1240 7 is_stmt 1 view .LVU315
 1069              		.loc 1 1240 35 is_stmt 0 view .LVU316
 1070 011a 2C22     		movs	r2, #44
 1071 011c 02FB0842 		mla	r2, r2, r8, r4
1241:Drivers/STM32F4xx_HAL_Driver/Src/stm32f4xx_hal_hcd.c ****                                     (USBx_HC(ch_num)->HCTSIZ & USB_OTG_HCTSIZ_XFRSIZ);
 1072              		.loc 1 1241 53 view .LVU317
 1073 0120 3869     		ldr	r0, [r7, #16]
1242:Drivers/STM32F4xx_HAL_Driver/Src/stm32f4xx_hal_hcd.c ****     }
1243:Drivers/STM32F4xx_HAL_Driver/Src/stm32f4xx_hal_hcd.c **** 
1244:Drivers/STM32F4xx_HAL_Driver/Src/stm32f4xx_hal_hcd.c ****     hhcd->hc[ch_num].state = HC_XFRC;
1245:Drivers/STM32F4xx_HAL_Driver/Src/stm32f4xx_hal_hcd.c ****     hhcd->hc[ch_num].ErrCnt = 0U;
 1074              		.loc 1 1245 29 view .LVU318
 1075 0122 D365     		str	r3, [r2, #92]
1240:Drivers/STM32F4xx_HAL_Driver/Src/stm32f4xx_hal_hcd.c ****                                     (USBx_HC(ch_num)->HCTSIZ & USB_OTG_HCTSIZ_XFRSIZ);
 1076              		.loc 1 1240 63 view .LVU319
 1077 0124 936C     		ldr	r3, [r2, #72]
1241:Drivers/STM32F4xx_HAL_Driver/Src/stm32f4xx_hal_hcd.c ****                                     (USBx_HC(ch_num)->HCTSIZ & USB_OTG_HCTSIZ_XFRSIZ);
 1078              		.loc 1 1241 62 view .LVU320
 1079 0126 C0F31200 		ubfx	r0, r0, #0, #19
1240:Drivers/STM32F4xx_HAL_Driver/Src/stm32f4xx_hal_hcd.c ****                                     (USBx_HC(ch_num)->HCTSIZ & USB_OTG_HCTSIZ_XFRSIZ);
 1080              		.loc 1 1240 63 view .LVU321
 1081 012a 1B1A     		subs	r3, r3, r0
1240:Drivers/STM32F4xx_HAL_Driver/Src/stm32f4xx_hal_hcd.c ****                                     (USBx_HC(ch_num)->HCTSIZ & USB_OTG_HCTSIZ_XFRSIZ);
 1082              		.loc 1 1240 35 view .LVU322
ARM GAS  /var/folders/lp/x54gwt890xv47sdkqj1k04q40000gn/T//cctevgvi.s 			page 45


 1083 012c 1365     		str	r3, [r2, #80]
1244:Drivers/STM32F4xx_HAL_Driver/Src/stm32f4xx_hal_hcd.c ****     hhcd->hc[ch_num].ErrCnt = 0U;
 1084              		.loc 1 1244 5 is_stmt 1 view .LVU323
1244:Drivers/STM32F4xx_HAL_Driver/Src/stm32f4xx_hal_hcd.c ****     hhcd->hc[ch_num].ErrCnt = 0U;
 1085              		.loc 1 1244 28 is_stmt 0 view .LVU324
 1086 012e 0123     		movs	r3, #1
 1087 0130 82F86130 		strb	r3, [r2, #97]
 1088              		.loc 1 1245 5 is_stmt 1 view .LVU325
1246:Drivers/STM32F4xx_HAL_Driver/Src/stm32f4xx_hal_hcd.c ****     __HAL_HCD_CLEAR_HC_INT(ch_num, USB_OTG_HCINT_XFRC);
 1089              		.loc 1 1246 5 view .LVU326
 1090 0134 BB60     		str	r3, [r7, #8]
1247:Drivers/STM32F4xx_HAL_Driver/Src/stm32f4xx_hal_hcd.c **** 
1248:Drivers/STM32F4xx_HAL_Driver/Src/stm32f4xx_hal_hcd.c ****     if ((hhcd->hc[ch_num].ep_type == EP_TYPE_CTRL) ||
 1091              		.loc 1 1248 5 view .LVU327
 1092 0136 92F83F30 		ldrb	r3, [r2, #63]	@ zero_extendqisi2
 1093 013a 032B     		cmp	r3, #3
 1094 013c 2BD8     		bhi	.L111
 1095 013e DFE803F0 		tbb	[pc, r3]
 1096              	.L113:
 1097 0142 41       		.byte	(.L114-.L113)/2
 1098 0143 19       		.byte	(.L112-.L113)/2
 1099 0144 41       		.byte	(.L114-.L113)/2
 1100 0145 19       		.byte	(.L112-.L113)/2
 1101              	.LVL68:
 1102              		.p2align 1
 1103              	.L77:
 1104              		.loc 1 1248 5 is_stmt 0 view .LVU328
 1105              	.LBE13:
 1106              	.LBE26:
 536:Drivers/STM32F4xx_HAL_Driver/Src/stm32f4xx_hal_hcd.c **** 
 1107              		.loc 1 536 7 is_stmt 1 view .LVU329
 1108 0146 4FF00053 		mov	r3, #536870912
 1109 014a 4361     		str	r3, [r0, #20]
 538:Drivers/STM32F4xx_HAL_Driver/Src/stm32f4xx_hal_hcd.c ****       {
 1110              		.loc 1 538 7 view .LVU330
 538:Drivers/STM32F4xx_HAL_Driver/Src/stm32f4xx_hal_hcd.c ****       {
 1111              		.loc 1 538 12 is_stmt 0 view .LVU331
 1112 014c D5F84034 		ldr	r3, [r5, #1088]
 538:Drivers/STM32F4xx_HAL_Driver/Src/stm32f4xx_hal_hcd.c ****       {
 1113              		.loc 1 538 10 view .LVU332
 1114 0150 DE07     		lsls	r6, r3, #31
 1115 0152 91D4     		bmi	.L78
 541:Drivers/STM32F4xx_HAL_Driver/Src/stm32f4xx_hal_hcd.c ****         (void)USB_FlushRxFifo(USBx);
 1116              		.loc 1 541 9 is_stmt 1 view .LVU333
 541:Drivers/STM32F4xx_HAL_Driver/Src/stm32f4xx_hal_hcd.c ****         (void)USB_FlushRxFifo(USBx);
 1117              		.loc 1 541 15 is_stmt 0 view .LVU334
 1118 0154 1021     		movs	r1, #16
 1119 0156 2846     		mov	r0, r5
 1120 0158 FFF7FEFF 		bl	USB_FlushTxFifo
 1121              	.LVL69:
 542:Drivers/STM32F4xx_HAL_Driver/Src/stm32f4xx_hal_hcd.c **** 
 1122              		.loc 1 542 9 is_stmt 1 view .LVU335
 542:Drivers/STM32F4xx_HAL_Driver/Src/stm32f4xx_hal_hcd.c **** 
 1123              		.loc 1 542 15 is_stmt 0 view .LVU336
 1124 015c 2846     		mov	r0, r5
 1125 015e FFF7FEFF 		bl	USB_FlushRxFifo
 1126              	.LVL70:
ARM GAS  /var/folders/lp/x54gwt890xv47sdkqj1k04q40000gn/T//cctevgvi.s 			page 46


 545:Drivers/STM32F4xx_HAL_Driver/Src/stm32f4xx_hal_hcd.c **** 
 1127              		.loc 1 545 9 is_stmt 1 view .LVU337
 545:Drivers/STM32F4xx_HAL_Driver/Src/stm32f4xx_hal_hcd.c **** 
 1128              		.loc 1 545 15 is_stmt 0 view .LVU338
 1129 0162 0121     		movs	r1, #1
 1130 0164 2068     		ldr	r0, [r4]
 1131 0166 FFF7FEFF 		bl	USB_InitFSLSPClkSel
 1132              	.LVL71:
 551:Drivers/STM32F4xx_HAL_Driver/Src/stm32f4xx_hal_hcd.c **** #endif /* USE_HAL_HCD_REGISTER_CALLBACKS */
 1133              		.loc 1 551 9 is_stmt 1 view .LVU339
 1134 016a 2046     		mov	r0, r4
 1135 016c FFF7FEFF 		bl	HAL_HCD_Disconnect_Callback
 1136              	.LVL72:
 557:Drivers/STM32F4xx_HAL_Driver/Src/stm32f4xx_hal_hcd.c ****     {
 1137              		.loc 1 557 9 is_stmt 0 view .LVU340
 1138 0170 2068     		ldr	r0, [r4]
 1139 0172 81E7     		b	.L78
 1140              	.LVL73:
 1141              	.L112:
 1142              	.LBB27:
 1143              	.LBB14:
1249:Drivers/STM32F4xx_HAL_Driver/Src/stm32f4xx_hal_hcd.c ****         (hhcd->hc[ch_num].ep_type == EP_TYPE_BULK))
1250:Drivers/STM32F4xx_HAL_Driver/Src/stm32f4xx_hal_hcd.c ****     {
1251:Drivers/STM32F4xx_HAL_Driver/Src/stm32f4xx_hal_hcd.c ****       (void)USB_HC_Halt(hhcd->Instance, (uint8_t)ch_num);
1252:Drivers/STM32F4xx_HAL_Driver/Src/stm32f4xx_hal_hcd.c ****       __HAL_HCD_CLEAR_HC_INT(ch_num, USB_OTG_HCINT_NAK);
1253:Drivers/STM32F4xx_HAL_Driver/Src/stm32f4xx_hal_hcd.c ****     }
1254:Drivers/STM32F4xx_HAL_Driver/Src/stm32f4xx_hal_hcd.c ****     else if ((hhcd->hc[ch_num].ep_type == EP_TYPE_INTR) ||
1255:Drivers/STM32F4xx_HAL_Driver/Src/stm32f4xx_hal_hcd.c ****              (hhcd->hc[ch_num].ep_type == EP_TYPE_ISOC))
1256:Drivers/STM32F4xx_HAL_Driver/Src/stm32f4xx_hal_hcd.c ****     {
1257:Drivers/STM32F4xx_HAL_Driver/Src/stm32f4xx_hal_hcd.c ****       USBx_HC(ch_num)->HCCHAR |= USB_OTG_HCCHAR_ODDFRM;
 1144              		.loc 1 1257 7 is_stmt 1 view .LVU341
 1145              		.loc 1 1257 22 is_stmt 0 view .LVU342
 1146 0174 5AF80B30 		ldr	r3, [r10, fp]
 1147              		.loc 1 1257 31 view .LVU343
 1148 0178 43F00053 		orr	r3, r3, #536870912
 1149 017c 4AF80B30 		str	r3, [r10, fp]
1258:Drivers/STM32F4xx_HAL_Driver/Src/stm32f4xx_hal_hcd.c ****       hhcd->hc[ch_num].urb_state = URB_DONE;
 1150              		.loc 1 1258 7 is_stmt 1 view .LVU344
 1151              		.loc 1 1258 34 is_stmt 0 view .LVU345
 1152 0180 2C23     		movs	r3, #44
 1153 0182 03FB0843 		mla	r3, r3, r8, r4
 1154 0186 0122     		movs	r2, #1
1259:Drivers/STM32F4xx_HAL_Driver/Src/stm32f4xx_hal_hcd.c **** 
1260:Drivers/STM32F4xx_HAL_Driver/Src/stm32f4xx_hal_hcd.c **** #if (USE_HAL_HCD_REGISTER_CALLBACKS == 1U)
1261:Drivers/STM32F4xx_HAL_Driver/Src/stm32f4xx_hal_hcd.c ****       hhcd->HC_NotifyURBChangeCallback(hhcd, (uint8_t)ch_num, hhcd->hc[ch_num].urb_state);
1262:Drivers/STM32F4xx_HAL_Driver/Src/stm32f4xx_hal_hcd.c **** #else
1263:Drivers/STM32F4xx_HAL_Driver/Src/stm32f4xx_hal_hcd.c ****       HAL_HCD_HC_NotifyURBChange_Callback(hhcd, (uint8_t)ch_num, hhcd->hc[ch_num].urb_state);
 1155              		.loc 1 1263 7 view .LVU346
 1156 0188 4146     		mov	r1, r8
1258:Drivers/STM32F4xx_HAL_Driver/Src/stm32f4xx_hal_hcd.c ****       hhcd->hc[ch_num].urb_state = URB_DONE;
 1157              		.loc 1 1258 34 view .LVU347
 1158 018a 83F86020 		strb	r2, [r3, #96]
 1159              		.loc 1 1263 7 is_stmt 1 view .LVU348
 1160 018e 2046     		mov	r0, r4
 1161 0190 FFF7FEFF 		bl	HAL_HCD_HC_NotifyURBChange_Callback
 1162              	.LVL74:
1264:Drivers/STM32F4xx_HAL_Driver/Src/stm32f4xx_hal_hcd.c **** #endif /* USE_HAL_HCD_REGISTER_CALLBACKS */
ARM GAS  /var/folders/lp/x54gwt890xv47sdkqj1k04q40000gn/T//cctevgvi.s 			page 47


1265:Drivers/STM32F4xx_HAL_Driver/Src/stm32f4xx_hal_hcd.c ****     }
1266:Drivers/STM32F4xx_HAL_Driver/Src/stm32f4xx_hal_hcd.c ****     else
1267:Drivers/STM32F4xx_HAL_Driver/Src/stm32f4xx_hal_hcd.c ****     {
1268:Drivers/STM32F4xx_HAL_Driver/Src/stm32f4xx_hal_hcd.c ****       /* ... */
1269:Drivers/STM32F4xx_HAL_Driver/Src/stm32f4xx_hal_hcd.c ****     }
1270:Drivers/STM32F4xx_HAL_Driver/Src/stm32f4xx_hal_hcd.c **** 
1271:Drivers/STM32F4xx_HAL_Driver/Src/stm32f4xx_hal_hcd.c ****     if (hhcd->Init.dma_enable == 1U)
 1163              		.loc 1 1271 19 is_stmt 0 view .LVU349
 1164 0194 2169     		ldr	r1, [r4, #16]
 1165              	.L111:
 1166              		.loc 1 1271 5 is_stmt 1 view .LVU350
 1167              		.loc 1 1271 8 is_stmt 0 view .LVU351
 1168 0196 0129     		cmp	r1, #1
 1169 0198 00F09481 		beq	.L229
 1170              	.L115:
1272:Drivers/STM32F4xx_HAL_Driver/Src/stm32f4xx_hal_hcd.c ****     {
1273:Drivers/STM32F4xx_HAL_Driver/Src/stm32f4xx_hal_hcd.c ****       if (((hhcd->hc[ch_num].XferSize / hhcd->hc[ch_num].max_packet) & 1U) != 0U)
1274:Drivers/STM32F4xx_HAL_Driver/Src/stm32f4xx_hal_hcd.c ****       {
1275:Drivers/STM32F4xx_HAL_Driver/Src/stm32f4xx_hal_hcd.c ****         hhcd->hc[ch_num].toggle_in ^= 1U;
1276:Drivers/STM32F4xx_HAL_Driver/Src/stm32f4xx_hal_hcd.c ****       }
1277:Drivers/STM32F4xx_HAL_Driver/Src/stm32f4xx_hal_hcd.c ****     }
1278:Drivers/STM32F4xx_HAL_Driver/Src/stm32f4xx_hal_hcd.c ****     else
1279:Drivers/STM32F4xx_HAL_Driver/Src/stm32f4xx_hal_hcd.c ****     {
1280:Drivers/STM32F4xx_HAL_Driver/Src/stm32f4xx_hal_hcd.c ****       hhcd->hc[ch_num].toggle_in ^= 1U;
 1171              		.loc 1 1280 7 is_stmt 1 view .LVU352
 1172              		.loc 1 1280 34 is_stmt 0 view .LVU353
 1173 019c 2C23     		movs	r3, #44
 1174 019e 03FB0843 		mla	r3, r3, r8, r4
 1175              	.L222:
 1176              		.loc 1 1280 34 view .LVU354
 1177 01a2 93F85420 		ldrb	r2, [r3, #84]	@ zero_extendqisi2
 1178 01a6 82F00102 		eor	r2, r2, #1
 1179 01aa 83F85420 		strb	r2, [r3, #84]
 1180              	.LBE14:
 1181              	.LBE27:
 602:Drivers/STM32F4xx_HAL_Driver/Src/stm32f4xx_hal_hcd.c ****     }
 1182              		.loc 1 602 7 view .LVU355
 1183 01ae 2068     		ldr	r0, [r4]
 1184 01b0 A268     		ldr	r2, [r4, #8]
 1185              	.LVL75:
 1186              	.L100:
 588:Drivers/STM32F4xx_HAL_Driver/Src/stm32f4xx_hal_hcd.c ****       {
 1187              		.loc 1 588 51 is_stmt 1 discriminator 2 view .LVU356
 1188 01b2 0136     		adds	r6, r6, #1
 1189              	.LVL76:
 588:Drivers/STM32F4xx_HAL_Driver/Src/stm32f4xx_hal_hcd.c ****       {
 1190              		.loc 1 588 22 discriminator 1 view .LVU357
 1191 01b4 B242     		cmp	r2, r6
 1192 01b6 05F12005 		add	r5, r5, #32
 1193 01ba 80D8     		bhi	.L157
 1194              	.LVL77:
 1195              	.L158:
 602:Drivers/STM32F4xx_HAL_Driver/Src/stm32f4xx_hal_hcd.c ****     }
 1196              		.loc 1 602 7 view .LVU358
 1197 01bc 4FF00073 		mov	r3, #33554432
 1198 01c0 4361     		str	r3, [r0, #20]
 1199 01c2 27E7     		b	.L65
ARM GAS  /var/folders/lp/x54gwt890xv47sdkqj1k04q40000gn/T//cctevgvi.s 			page 48


 1200              	.LVL78:
 1201              	.L114:
 1202              	.LBB28:
 1203              	.LBB15:
1251:Drivers/STM32F4xx_HAL_Driver/Src/stm32f4xx_hal_hcd.c ****       __HAL_HCD_CLEAR_HC_INT(ch_num, USB_OTG_HCINT_NAK);
 1204              		.loc 1 1251 7 view .LVU359
1251:Drivers/STM32F4xx_HAL_Driver/Src/stm32f4xx_hal_hcd.c ****       __HAL_HCD_CLEAR_HC_INT(ch_num, USB_OTG_HCINT_NAK);
 1205              		.loc 1 1251 13 is_stmt 0 view .LVU360
 1206 01c4 4146     		mov	r1, r8
 1207 01c6 2068     		ldr	r0, [r4]
 1208 01c8 FFF7FEFF 		bl	USB_HC_Halt
 1209              	.LVL79:
1252:Drivers/STM32F4xx_HAL_Driver/Src/stm32f4xx_hal_hcd.c ****     }
 1210              		.loc 1 1252 7 is_stmt 1 view .LVU361
 1211 01cc 1023     		movs	r3, #16
1271:Drivers/STM32F4xx_HAL_Driver/Src/stm32f4xx_hal_hcd.c ****     {
 1212              		.loc 1 1271 19 is_stmt 0 view .LVU362
 1213 01ce 2169     		ldr	r1, [r4, #16]
1252:Drivers/STM32F4xx_HAL_Driver/Src/stm32f4xx_hal_hcd.c ****     }
 1214              		.loc 1 1252 7 view .LVU363
 1215 01d0 BB60     		str	r3, [r7, #8]
 1216 01d2 E0E7     		b	.L111
 1217              	.LVL80:
 1218              	.L101:
1252:Drivers/STM32F4xx_HAL_Driver/Src/stm32f4xx_hal_hcd.c ****     }
 1219              		.loc 1 1252 7 view .LVU364
 1220              	.LBE15:
 1221              	.LBE28:
 598:Drivers/STM32F4xx_HAL_Driver/Src/stm32f4xx_hal_hcd.c ****           }
 1222              		.loc 1 598 13 is_stmt 1 view .LVU365
 1223              	.LBB29:
 1224              	.LBI29:
1281:Drivers/STM32F4xx_HAL_Driver/Src/stm32f4xx_hal_hcd.c ****     }
1282:Drivers/STM32F4xx_HAL_Driver/Src/stm32f4xx_hal_hcd.c ****   }
1283:Drivers/STM32F4xx_HAL_Driver/Src/stm32f4xx_hal_hcd.c ****   else if ((USBx_HC(ch_num)->HCINT & USB_OTG_HCINT_CHH) == USB_OTG_HCINT_CHH)
1284:Drivers/STM32F4xx_HAL_Driver/Src/stm32f4xx_hal_hcd.c ****   {
1285:Drivers/STM32F4xx_HAL_Driver/Src/stm32f4xx_hal_hcd.c ****     if (hhcd->hc[ch_num].state == HC_XFRC)
1286:Drivers/STM32F4xx_HAL_Driver/Src/stm32f4xx_hal_hcd.c ****     {
1287:Drivers/STM32F4xx_HAL_Driver/Src/stm32f4xx_hal_hcd.c ****       hhcd->hc[ch_num].urb_state = URB_DONE;
1288:Drivers/STM32F4xx_HAL_Driver/Src/stm32f4xx_hal_hcd.c ****     }
1289:Drivers/STM32F4xx_HAL_Driver/Src/stm32f4xx_hal_hcd.c ****     else if (hhcd->hc[ch_num].state == HC_STALL)
1290:Drivers/STM32F4xx_HAL_Driver/Src/stm32f4xx_hal_hcd.c ****     {
1291:Drivers/STM32F4xx_HAL_Driver/Src/stm32f4xx_hal_hcd.c ****       hhcd->hc[ch_num].urb_state = URB_STALL;
1292:Drivers/STM32F4xx_HAL_Driver/Src/stm32f4xx_hal_hcd.c ****     }
1293:Drivers/STM32F4xx_HAL_Driver/Src/stm32f4xx_hal_hcd.c ****     else if ((hhcd->hc[ch_num].state == HC_XACTERR) ||
1294:Drivers/STM32F4xx_HAL_Driver/Src/stm32f4xx_hal_hcd.c ****              (hhcd->hc[ch_num].state == HC_DATATGLERR))
1295:Drivers/STM32F4xx_HAL_Driver/Src/stm32f4xx_hal_hcd.c ****     {
1296:Drivers/STM32F4xx_HAL_Driver/Src/stm32f4xx_hal_hcd.c ****       hhcd->hc[ch_num].ErrCnt++;
1297:Drivers/STM32F4xx_HAL_Driver/Src/stm32f4xx_hal_hcd.c ****       if (hhcd->hc[ch_num].ErrCnt > 2U)
1298:Drivers/STM32F4xx_HAL_Driver/Src/stm32f4xx_hal_hcd.c ****       {
1299:Drivers/STM32F4xx_HAL_Driver/Src/stm32f4xx_hal_hcd.c ****         hhcd->hc[ch_num].ErrCnt = 0U;
1300:Drivers/STM32F4xx_HAL_Driver/Src/stm32f4xx_hal_hcd.c ****         hhcd->hc[ch_num].urb_state = URB_ERROR;
1301:Drivers/STM32F4xx_HAL_Driver/Src/stm32f4xx_hal_hcd.c ****       }
1302:Drivers/STM32F4xx_HAL_Driver/Src/stm32f4xx_hal_hcd.c ****       else
1303:Drivers/STM32F4xx_HAL_Driver/Src/stm32f4xx_hal_hcd.c ****       {
1304:Drivers/STM32F4xx_HAL_Driver/Src/stm32f4xx_hal_hcd.c ****         hhcd->hc[ch_num].urb_state = URB_NOTREADY;
1305:Drivers/STM32F4xx_HAL_Driver/Src/stm32f4xx_hal_hcd.c **** 
ARM GAS  /var/folders/lp/x54gwt890xv47sdkqj1k04q40000gn/T//cctevgvi.s 			page 49


1306:Drivers/STM32F4xx_HAL_Driver/Src/stm32f4xx_hal_hcd.c ****         /* re-activate the channel */
1307:Drivers/STM32F4xx_HAL_Driver/Src/stm32f4xx_hal_hcd.c ****         tmpreg = USBx_HC(ch_num)->HCCHAR;
1308:Drivers/STM32F4xx_HAL_Driver/Src/stm32f4xx_hal_hcd.c ****         tmpreg &= ~USB_OTG_HCCHAR_CHDIS;
1309:Drivers/STM32F4xx_HAL_Driver/Src/stm32f4xx_hal_hcd.c ****         tmpreg |= USB_OTG_HCCHAR_CHENA;
1310:Drivers/STM32F4xx_HAL_Driver/Src/stm32f4xx_hal_hcd.c ****         USBx_HC(ch_num)->HCCHAR = tmpreg;
1311:Drivers/STM32F4xx_HAL_Driver/Src/stm32f4xx_hal_hcd.c ****       }
1312:Drivers/STM32F4xx_HAL_Driver/Src/stm32f4xx_hal_hcd.c ****     }
1313:Drivers/STM32F4xx_HAL_Driver/Src/stm32f4xx_hal_hcd.c ****     else if (hhcd->hc[ch_num].state == HC_NAK)
1314:Drivers/STM32F4xx_HAL_Driver/Src/stm32f4xx_hal_hcd.c ****     {
1315:Drivers/STM32F4xx_HAL_Driver/Src/stm32f4xx_hal_hcd.c ****       hhcd->hc[ch_num].urb_state  = URB_NOTREADY;
1316:Drivers/STM32F4xx_HAL_Driver/Src/stm32f4xx_hal_hcd.c **** 
1317:Drivers/STM32F4xx_HAL_Driver/Src/stm32f4xx_hal_hcd.c ****       /* re-activate the channel */
1318:Drivers/STM32F4xx_HAL_Driver/Src/stm32f4xx_hal_hcd.c ****       tmpreg = USBx_HC(ch_num)->HCCHAR;
1319:Drivers/STM32F4xx_HAL_Driver/Src/stm32f4xx_hal_hcd.c ****       tmpreg &= ~USB_OTG_HCCHAR_CHDIS;
1320:Drivers/STM32F4xx_HAL_Driver/Src/stm32f4xx_hal_hcd.c ****       tmpreg |= USB_OTG_HCCHAR_CHENA;
1321:Drivers/STM32F4xx_HAL_Driver/Src/stm32f4xx_hal_hcd.c ****       USBx_HC(ch_num)->HCCHAR = tmpreg;
1322:Drivers/STM32F4xx_HAL_Driver/Src/stm32f4xx_hal_hcd.c ****     }
1323:Drivers/STM32F4xx_HAL_Driver/Src/stm32f4xx_hal_hcd.c ****     else if (hhcd->hc[ch_num].state == HC_BBLERR)
1324:Drivers/STM32F4xx_HAL_Driver/Src/stm32f4xx_hal_hcd.c ****     {
1325:Drivers/STM32F4xx_HAL_Driver/Src/stm32f4xx_hal_hcd.c ****       hhcd->hc[ch_num].ErrCnt++;
1326:Drivers/STM32F4xx_HAL_Driver/Src/stm32f4xx_hal_hcd.c ****       hhcd->hc[ch_num].urb_state = URB_ERROR;
1327:Drivers/STM32F4xx_HAL_Driver/Src/stm32f4xx_hal_hcd.c ****     }
1328:Drivers/STM32F4xx_HAL_Driver/Src/stm32f4xx_hal_hcd.c ****     else
1329:Drivers/STM32F4xx_HAL_Driver/Src/stm32f4xx_hal_hcd.c ****     {
1330:Drivers/STM32F4xx_HAL_Driver/Src/stm32f4xx_hal_hcd.c ****       /* ... */
1331:Drivers/STM32F4xx_HAL_Driver/Src/stm32f4xx_hal_hcd.c ****     }
1332:Drivers/STM32F4xx_HAL_Driver/Src/stm32f4xx_hal_hcd.c ****     __HAL_HCD_CLEAR_HC_INT(ch_num, USB_OTG_HCINT_CHH);
1333:Drivers/STM32F4xx_HAL_Driver/Src/stm32f4xx_hal_hcd.c **** 
1334:Drivers/STM32F4xx_HAL_Driver/Src/stm32f4xx_hal_hcd.c **** #if (USE_HAL_HCD_REGISTER_CALLBACKS == 1U)
1335:Drivers/STM32F4xx_HAL_Driver/Src/stm32f4xx_hal_hcd.c ****     hhcd->HC_NotifyURBChangeCallback(hhcd, (uint8_t)ch_num, hhcd->hc[ch_num].urb_state);
1336:Drivers/STM32F4xx_HAL_Driver/Src/stm32f4xx_hal_hcd.c **** #else
1337:Drivers/STM32F4xx_HAL_Driver/Src/stm32f4xx_hal_hcd.c ****     HAL_HCD_HC_NotifyURBChange_Callback(hhcd, (uint8_t)ch_num, hhcd->hc[ch_num].urb_state);
1338:Drivers/STM32F4xx_HAL_Driver/Src/stm32f4xx_hal_hcd.c **** #endif /* USE_HAL_HCD_REGISTER_CALLBACKS */
1339:Drivers/STM32F4xx_HAL_Driver/Src/stm32f4xx_hal_hcd.c ****   }
1340:Drivers/STM32F4xx_HAL_Driver/Src/stm32f4xx_hal_hcd.c ****   else if ((USBx_HC(ch_num)->HCINT & USB_OTG_HCINT_NAK) == USB_OTG_HCINT_NAK)
1341:Drivers/STM32F4xx_HAL_Driver/Src/stm32f4xx_hal_hcd.c ****   {
1342:Drivers/STM32F4xx_HAL_Driver/Src/stm32f4xx_hal_hcd.c ****     if (hhcd->hc[ch_num].ep_type == EP_TYPE_INTR)
1343:Drivers/STM32F4xx_HAL_Driver/Src/stm32f4xx_hal_hcd.c ****     {
1344:Drivers/STM32F4xx_HAL_Driver/Src/stm32f4xx_hal_hcd.c ****       hhcd->hc[ch_num].ErrCnt = 0U;
1345:Drivers/STM32F4xx_HAL_Driver/Src/stm32f4xx_hal_hcd.c ****       (void)USB_HC_Halt(hhcd->Instance, (uint8_t)ch_num);
1346:Drivers/STM32F4xx_HAL_Driver/Src/stm32f4xx_hal_hcd.c ****     }
1347:Drivers/STM32F4xx_HAL_Driver/Src/stm32f4xx_hal_hcd.c ****     else if ((hhcd->hc[ch_num].ep_type == EP_TYPE_CTRL) ||
1348:Drivers/STM32F4xx_HAL_Driver/Src/stm32f4xx_hal_hcd.c ****              (hhcd->hc[ch_num].ep_type == EP_TYPE_BULK))
1349:Drivers/STM32F4xx_HAL_Driver/Src/stm32f4xx_hal_hcd.c ****     {
1350:Drivers/STM32F4xx_HAL_Driver/Src/stm32f4xx_hal_hcd.c ****       hhcd->hc[ch_num].ErrCnt = 0U;
1351:Drivers/STM32F4xx_HAL_Driver/Src/stm32f4xx_hal_hcd.c **** 
1352:Drivers/STM32F4xx_HAL_Driver/Src/stm32f4xx_hal_hcd.c ****       if (hhcd->Init.dma_enable == 0U)
1353:Drivers/STM32F4xx_HAL_Driver/Src/stm32f4xx_hal_hcd.c ****       {
1354:Drivers/STM32F4xx_HAL_Driver/Src/stm32f4xx_hal_hcd.c ****         hhcd->hc[ch_num].state = HC_NAK;
1355:Drivers/STM32F4xx_HAL_Driver/Src/stm32f4xx_hal_hcd.c ****         (void)USB_HC_Halt(hhcd->Instance, (uint8_t)ch_num);
1356:Drivers/STM32F4xx_HAL_Driver/Src/stm32f4xx_hal_hcd.c ****       }
1357:Drivers/STM32F4xx_HAL_Driver/Src/stm32f4xx_hal_hcd.c ****     }
1358:Drivers/STM32F4xx_HAL_Driver/Src/stm32f4xx_hal_hcd.c ****     else
1359:Drivers/STM32F4xx_HAL_Driver/Src/stm32f4xx_hal_hcd.c ****     {
1360:Drivers/STM32F4xx_HAL_Driver/Src/stm32f4xx_hal_hcd.c ****       /* ... */
1361:Drivers/STM32F4xx_HAL_Driver/Src/stm32f4xx_hal_hcd.c ****     }
1362:Drivers/STM32F4xx_HAL_Driver/Src/stm32f4xx_hal_hcd.c ****     __HAL_HCD_CLEAR_HC_INT(ch_num, USB_OTG_HCINT_NAK);
ARM GAS  /var/folders/lp/x54gwt890xv47sdkqj1k04q40000gn/T//cctevgvi.s 			page 50


1363:Drivers/STM32F4xx_HAL_Driver/Src/stm32f4xx_hal_hcd.c ****   }
1364:Drivers/STM32F4xx_HAL_Driver/Src/stm32f4xx_hal_hcd.c ****   else
1365:Drivers/STM32F4xx_HAL_Driver/Src/stm32f4xx_hal_hcd.c ****   {
1366:Drivers/STM32F4xx_HAL_Driver/Src/stm32f4xx_hal_hcd.c ****     /* ... */
1367:Drivers/STM32F4xx_HAL_Driver/Src/stm32f4xx_hal_hcd.c ****   }
1368:Drivers/STM32F4xx_HAL_Driver/Src/stm32f4xx_hal_hcd.c **** }
1369:Drivers/STM32F4xx_HAL_Driver/Src/stm32f4xx_hal_hcd.c **** 
1370:Drivers/STM32F4xx_HAL_Driver/Src/stm32f4xx_hal_hcd.c **** /**
1371:Drivers/STM32F4xx_HAL_Driver/Src/stm32f4xx_hal_hcd.c ****   * @brief  Handle Host Channel OUT interrupt requests.
1372:Drivers/STM32F4xx_HAL_Driver/Src/stm32f4xx_hal_hcd.c ****   * @param  hhcd HCD handle
1373:Drivers/STM32F4xx_HAL_Driver/Src/stm32f4xx_hal_hcd.c ****   * @param  chnum Channel number.
1374:Drivers/STM32F4xx_HAL_Driver/Src/stm32f4xx_hal_hcd.c ****   *         This parameter can be a value from 1 to 15
1375:Drivers/STM32F4xx_HAL_Driver/Src/stm32f4xx_hal_hcd.c ****   * @retval none
1376:Drivers/STM32F4xx_HAL_Driver/Src/stm32f4xx_hal_hcd.c ****   */
1377:Drivers/STM32F4xx_HAL_Driver/Src/stm32f4xx_hal_hcd.c **** static void HCD_HC_OUT_IRQHandler(HCD_HandleTypeDef *hhcd, uint8_t chnum)
 1225              		.loc 1 1377 13 view .LVU366
 1226              	.LBB30:
1378:Drivers/STM32F4xx_HAL_Driver/Src/stm32f4xx_hal_hcd.c **** {
1379:Drivers/STM32F4xx_HAL_Driver/Src/stm32f4xx_hal_hcd.c ****   USB_OTG_GlobalTypeDef *USBx = hhcd->Instance;
 1227              		.loc 1 1379 3 view .LVU367
1380:Drivers/STM32F4xx_HAL_Driver/Src/stm32f4xx_hal_hcd.c ****   uint32_t USBx_BASE = (uint32_t)USBx;
 1228              		.loc 1 1380 3 view .LVU368
1381:Drivers/STM32F4xx_HAL_Driver/Src/stm32f4xx_hal_hcd.c ****   uint32_t ch_num = (uint32_t)chnum;
 1229              		.loc 1 1381 3 view .LVU369
1382:Drivers/STM32F4xx_HAL_Driver/Src/stm32f4xx_hal_hcd.c ****   uint32_t tmpreg;
 1230              		.loc 1 1382 3 view .LVU370
1383:Drivers/STM32F4xx_HAL_Driver/Src/stm32f4xx_hal_hcd.c ****   uint32_t num_packets;
 1231              		.loc 1 1383 3 view .LVU371
1384:Drivers/STM32F4xx_HAL_Driver/Src/stm32f4xx_hal_hcd.c **** 
1385:Drivers/STM32F4xx_HAL_Driver/Src/stm32f4xx_hal_hcd.c ****   if ((USBx_HC(ch_num)->HCINT & USB_OTG_HCINT_AHBERR) == USB_OTG_HCINT_AHBERR)
 1232              		.loc 1 1385 3 view .LVU372
 1233              		.loc 1 1385 6 is_stmt 0 view .LVU373
 1234 01d4 13F00403 		ands	r3, r3, #4
 1235 01d8 40F0E280 		bne	.L230
1386:Drivers/STM32F4xx_HAL_Driver/Src/stm32f4xx_hal_hcd.c ****   {
1387:Drivers/STM32F4xx_HAL_Driver/Src/stm32f4xx_hal_hcd.c ****     __HAL_HCD_CLEAR_HC_INT(ch_num, USB_OTG_HCINT_AHBERR);
1388:Drivers/STM32F4xx_HAL_Driver/Src/stm32f4xx_hal_hcd.c ****     hhcd->hc[ch_num].state = HC_XACTERR;
1389:Drivers/STM32F4xx_HAL_Driver/Src/stm32f4xx_hal_hcd.c ****     (void)USB_HC_Halt(hhcd->Instance, (uint8_t)ch_num);
1390:Drivers/STM32F4xx_HAL_Driver/Src/stm32f4xx_hal_hcd.c ****   }
1391:Drivers/STM32F4xx_HAL_Driver/Src/stm32f4xx_hal_hcd.c ****   else if ((USBx_HC(ch_num)->HCINT & USB_OTG_HCINT_ACK) == USB_OTG_HCINT_ACK)
 1236              		.loc 1 1391 8 is_stmt 1 view .LVU374
 1237              		.loc 1 1391 28 is_stmt 0 view .LVU375
 1238 01dc B968     		ldr	r1, [r7, #8]
 1239              		.loc 1 1391 11 view .LVU376
 1240 01de 8906     		lsls	r1, r1, #26
 1241 01e0 65D5     		bpl	.L134
1392:Drivers/STM32F4xx_HAL_Driver/Src/stm32f4xx_hal_hcd.c ****   {
1393:Drivers/STM32F4xx_HAL_Driver/Src/stm32f4xx_hal_hcd.c ****     __HAL_HCD_CLEAR_HC_INT(ch_num, USB_OTG_HCINT_ACK);
 1242              		.loc 1 1393 5 is_stmt 1 view .LVU377
1394:Drivers/STM32F4xx_HAL_Driver/Src/stm32f4xx_hal_hcd.c **** 
1395:Drivers/STM32F4xx_HAL_Driver/Src/stm32f4xx_hal_hcd.c ****     if (hhcd->hc[ch_num].do_ping == 1U)
 1243              		.loc 1 1395 25 is_stmt 0 view .LVU378
 1244 01e2 4FF02C0C 		mov	ip, #44
1393:Drivers/STM32F4xx_HAL_Driver/Src/stm32f4xx_hal_hcd.c **** 
 1245              		.loc 1 1393 5 view .LVU379
 1246 01e6 2021     		movs	r1, #32
 1247              		.loc 1 1395 25 view .LVU380
ARM GAS  /var/folders/lp/x54gwt890xv47sdkqj1k04q40000gn/T//cctevgvi.s 			page 51


 1248 01e8 0CFB084C 		mla	ip, ip, r8, r4
1393:Drivers/STM32F4xx_HAL_Driver/Src/stm32f4xx_hal_hcd.c **** 
 1249              		.loc 1 1393 5 view .LVU381
 1250 01ec B960     		str	r1, [r7, #8]
 1251              		.loc 1 1395 5 is_stmt 1 view .LVU382
 1252              		.loc 1 1395 8 is_stmt 0 view .LVU383
 1253 01ee 9CF83D10 		ldrb	r1, [ip, #61]	@ zero_extendqisi2
 1254 01f2 0129     		cmp	r1, #1
 1255 01f4 DDD1     		bne	.L100
1396:Drivers/STM32F4xx_HAL_Driver/Src/stm32f4xx_hal_hcd.c ****     {
1397:Drivers/STM32F4xx_HAL_Driver/Src/stm32f4xx_hal_hcd.c ****       hhcd->hc[ch_num].do_ping = 0U;
 1256              		.loc 1 1397 7 is_stmt 1 view .LVU384
 1257              		.loc 1 1397 32 is_stmt 0 view .LVU385
 1258 01f6 8CF83D30 		strb	r3, [ip, #61]
1398:Drivers/STM32F4xx_HAL_Driver/Src/stm32f4xx_hal_hcd.c ****       hhcd->hc[ch_num].urb_state = URB_NOTREADY;
 1259              		.loc 1 1398 7 is_stmt 1 view .LVU386
 1260              		.loc 1 1398 34 is_stmt 0 view .LVU387
 1261 01fa 0223     		movs	r3, #2
1399:Drivers/STM32F4xx_HAL_Driver/Src/stm32f4xx_hal_hcd.c ****       (void)USB_HC_Halt(hhcd->Instance, (uint8_t)ch_num);
 1262              		.loc 1 1399 13 view .LVU388
 1263 01fc 4146     		mov	r1, r8
1398:Drivers/STM32F4xx_HAL_Driver/Src/stm32f4xx_hal_hcd.c ****       hhcd->hc[ch_num].urb_state = URB_NOTREADY;
 1264              		.loc 1 1398 34 view .LVU389
 1265 01fe 8CF86030 		strb	r3, [ip, #96]
 1266              		.loc 1 1399 7 is_stmt 1 view .LVU390
 1267              		.loc 1 1399 13 is_stmt 0 view .LVU391
 1268 0202 FFF7FEFF 		bl	USB_HC_Halt
 1269              	.LVL81:
 1270              	.LBE30:
 1271              	.LBE29:
 602:Drivers/STM32F4xx_HAL_Driver/Src/stm32f4xx_hal_hcd.c ****     }
 1272              		.loc 1 602 7 view .LVU392
 1273 0206 2068     		ldr	r0, [r4]
 1274 0208 A268     		ldr	r2, [r4, #8]
 1275 020a D2E7     		b	.L100
 1276              	.LVL82:
 1277              	.L88:
 568:Drivers/STM32F4xx_HAL_Driver/Src/stm32f4xx_hal_hcd.c **** #endif /* USE_HAL_HCD_REGISTER_CALLBACKS */
 1278              		.loc 1 568 7 is_stmt 1 view .LVU393
 1279 020c 2046     		mov	r0, r4
 1280 020e FFF7FEFF 		bl	HAL_HCD_SOF_Callback
 1281              	.LVL83:
 571:Drivers/STM32F4xx_HAL_Driver/Src/stm32f4xx_hal_hcd.c ****     }
 1282              		.loc 1 571 7 view .LVU394
 1283 0212 2068     		ldr	r0, [r4]
 1284 0214 0823     		movs	r3, #8
 1285 0216 4361     		str	r3, [r0, #20]
 1286 0218 3AE7     		b	.L89
 1287              	.L225:
 559:Drivers/STM32F4xx_HAL_Driver/Src/stm32f4xx_hal_hcd.c ****     }
 1288              		.loc 1 559 7 view .LVU395
 1289              	.LVL84:
 1290              	.LBB45:
 1291              	.LBI45:
1400:Drivers/STM32F4xx_HAL_Driver/Src/stm32f4xx_hal_hcd.c ****     }
1401:Drivers/STM32F4xx_HAL_Driver/Src/stm32f4xx_hal_hcd.c ****   }
1402:Drivers/STM32F4xx_HAL_Driver/Src/stm32f4xx_hal_hcd.c ****   else if ((USBx_HC(ch_num)->HCINT & USB_OTG_HCINT_FRMOR) == USB_OTG_HCINT_FRMOR)
ARM GAS  /var/folders/lp/x54gwt890xv47sdkqj1k04q40000gn/T//cctevgvi.s 			page 52


1403:Drivers/STM32F4xx_HAL_Driver/Src/stm32f4xx_hal_hcd.c ****   {
1404:Drivers/STM32F4xx_HAL_Driver/Src/stm32f4xx_hal_hcd.c ****     __HAL_HCD_CLEAR_HC_INT(ch_num, USB_OTG_HCINT_FRMOR);
1405:Drivers/STM32F4xx_HAL_Driver/Src/stm32f4xx_hal_hcd.c ****     (void)USB_HC_Halt(hhcd->Instance, (uint8_t)ch_num);
1406:Drivers/STM32F4xx_HAL_Driver/Src/stm32f4xx_hal_hcd.c ****   }
1407:Drivers/STM32F4xx_HAL_Driver/Src/stm32f4xx_hal_hcd.c ****   else if ((USBx_HC(ch_num)->HCINT & USB_OTG_HCINT_XFRC) == USB_OTG_HCINT_XFRC)
1408:Drivers/STM32F4xx_HAL_Driver/Src/stm32f4xx_hal_hcd.c ****   {
1409:Drivers/STM32F4xx_HAL_Driver/Src/stm32f4xx_hal_hcd.c ****     hhcd->hc[ch_num].ErrCnt = 0U;
1410:Drivers/STM32F4xx_HAL_Driver/Src/stm32f4xx_hal_hcd.c **** 
1411:Drivers/STM32F4xx_HAL_Driver/Src/stm32f4xx_hal_hcd.c ****     /* transaction completed with NYET state, update do ping state */
1412:Drivers/STM32F4xx_HAL_Driver/Src/stm32f4xx_hal_hcd.c ****     if ((USBx_HC(ch_num)->HCINT & USB_OTG_HCINT_NYET) == USB_OTG_HCINT_NYET)
1413:Drivers/STM32F4xx_HAL_Driver/Src/stm32f4xx_hal_hcd.c ****     {
1414:Drivers/STM32F4xx_HAL_Driver/Src/stm32f4xx_hal_hcd.c ****       hhcd->hc[ch_num].do_ping = 1U;
1415:Drivers/STM32F4xx_HAL_Driver/Src/stm32f4xx_hal_hcd.c ****       __HAL_HCD_CLEAR_HC_INT(ch_num, USB_OTG_HCINT_NYET);
1416:Drivers/STM32F4xx_HAL_Driver/Src/stm32f4xx_hal_hcd.c ****     }
1417:Drivers/STM32F4xx_HAL_Driver/Src/stm32f4xx_hal_hcd.c ****     __HAL_HCD_CLEAR_HC_INT(ch_num, USB_OTG_HCINT_XFRC);
1418:Drivers/STM32F4xx_HAL_Driver/Src/stm32f4xx_hal_hcd.c ****     hhcd->hc[ch_num].state = HC_XFRC;
1419:Drivers/STM32F4xx_HAL_Driver/Src/stm32f4xx_hal_hcd.c ****     (void)USB_HC_Halt(hhcd->Instance, (uint8_t)ch_num);
1420:Drivers/STM32F4xx_HAL_Driver/Src/stm32f4xx_hal_hcd.c ****   }
1421:Drivers/STM32F4xx_HAL_Driver/Src/stm32f4xx_hal_hcd.c ****   else if ((USBx_HC(ch_num)->HCINT & USB_OTG_HCINT_NYET) == USB_OTG_HCINT_NYET)
1422:Drivers/STM32F4xx_HAL_Driver/Src/stm32f4xx_hal_hcd.c ****   {
1423:Drivers/STM32F4xx_HAL_Driver/Src/stm32f4xx_hal_hcd.c ****     hhcd->hc[ch_num].state = HC_NYET;
1424:Drivers/STM32F4xx_HAL_Driver/Src/stm32f4xx_hal_hcd.c ****     hhcd->hc[ch_num].do_ping = 1U;
1425:Drivers/STM32F4xx_HAL_Driver/Src/stm32f4xx_hal_hcd.c ****     hhcd->hc[ch_num].ErrCnt = 0U;
1426:Drivers/STM32F4xx_HAL_Driver/Src/stm32f4xx_hal_hcd.c ****     (void)USB_HC_Halt(hhcd->Instance, (uint8_t)ch_num);
1427:Drivers/STM32F4xx_HAL_Driver/Src/stm32f4xx_hal_hcd.c ****     __HAL_HCD_CLEAR_HC_INT(ch_num, USB_OTG_HCINT_NYET);
1428:Drivers/STM32F4xx_HAL_Driver/Src/stm32f4xx_hal_hcd.c ****   }
1429:Drivers/STM32F4xx_HAL_Driver/Src/stm32f4xx_hal_hcd.c ****   else if ((USBx_HC(ch_num)->HCINT & USB_OTG_HCINT_STALL) == USB_OTG_HCINT_STALL)
1430:Drivers/STM32F4xx_HAL_Driver/Src/stm32f4xx_hal_hcd.c ****   {
1431:Drivers/STM32F4xx_HAL_Driver/Src/stm32f4xx_hal_hcd.c ****     __HAL_HCD_CLEAR_HC_INT(ch_num, USB_OTG_HCINT_STALL);
1432:Drivers/STM32F4xx_HAL_Driver/Src/stm32f4xx_hal_hcd.c ****     hhcd->hc[ch_num].state = HC_STALL;
1433:Drivers/STM32F4xx_HAL_Driver/Src/stm32f4xx_hal_hcd.c ****     (void)USB_HC_Halt(hhcd->Instance, (uint8_t)ch_num);
1434:Drivers/STM32F4xx_HAL_Driver/Src/stm32f4xx_hal_hcd.c ****   }
1435:Drivers/STM32F4xx_HAL_Driver/Src/stm32f4xx_hal_hcd.c ****   else if ((USBx_HC(ch_num)->HCINT & USB_OTG_HCINT_NAK) == USB_OTG_HCINT_NAK)
1436:Drivers/STM32F4xx_HAL_Driver/Src/stm32f4xx_hal_hcd.c ****   {
1437:Drivers/STM32F4xx_HAL_Driver/Src/stm32f4xx_hal_hcd.c ****     hhcd->hc[ch_num].ErrCnt = 0U;
1438:Drivers/STM32F4xx_HAL_Driver/Src/stm32f4xx_hal_hcd.c ****     hhcd->hc[ch_num].state = HC_NAK;
1439:Drivers/STM32F4xx_HAL_Driver/Src/stm32f4xx_hal_hcd.c **** 
1440:Drivers/STM32F4xx_HAL_Driver/Src/stm32f4xx_hal_hcd.c ****     if (hhcd->hc[ch_num].do_ping == 0U)
1441:Drivers/STM32F4xx_HAL_Driver/Src/stm32f4xx_hal_hcd.c ****     {
1442:Drivers/STM32F4xx_HAL_Driver/Src/stm32f4xx_hal_hcd.c ****       if (hhcd->hc[ch_num].speed == HCD_DEVICE_SPEED_HIGH)
1443:Drivers/STM32F4xx_HAL_Driver/Src/stm32f4xx_hal_hcd.c ****       {
1444:Drivers/STM32F4xx_HAL_Driver/Src/stm32f4xx_hal_hcd.c ****         hhcd->hc[ch_num].do_ping = 1U;
1445:Drivers/STM32F4xx_HAL_Driver/Src/stm32f4xx_hal_hcd.c ****       }
1446:Drivers/STM32F4xx_HAL_Driver/Src/stm32f4xx_hal_hcd.c ****     }
1447:Drivers/STM32F4xx_HAL_Driver/Src/stm32f4xx_hal_hcd.c **** 
1448:Drivers/STM32F4xx_HAL_Driver/Src/stm32f4xx_hal_hcd.c ****     (void)USB_HC_Halt(hhcd->Instance, (uint8_t)ch_num);
1449:Drivers/STM32F4xx_HAL_Driver/Src/stm32f4xx_hal_hcd.c ****     __HAL_HCD_CLEAR_HC_INT(ch_num, USB_OTG_HCINT_NAK);
1450:Drivers/STM32F4xx_HAL_Driver/Src/stm32f4xx_hal_hcd.c ****   }
1451:Drivers/STM32F4xx_HAL_Driver/Src/stm32f4xx_hal_hcd.c ****   else if ((USBx_HC(ch_num)->HCINT & USB_OTG_HCINT_TXERR) == USB_OTG_HCINT_TXERR)
1452:Drivers/STM32F4xx_HAL_Driver/Src/stm32f4xx_hal_hcd.c ****   {
1453:Drivers/STM32F4xx_HAL_Driver/Src/stm32f4xx_hal_hcd.c ****     if (hhcd->Init.dma_enable == 0U)
1454:Drivers/STM32F4xx_HAL_Driver/Src/stm32f4xx_hal_hcd.c ****     {
1455:Drivers/STM32F4xx_HAL_Driver/Src/stm32f4xx_hal_hcd.c ****       hhcd->hc[ch_num].state = HC_XACTERR;
1456:Drivers/STM32F4xx_HAL_Driver/Src/stm32f4xx_hal_hcd.c ****       (void)USB_HC_Halt(hhcd->Instance, (uint8_t)ch_num);
1457:Drivers/STM32F4xx_HAL_Driver/Src/stm32f4xx_hal_hcd.c ****     }
1458:Drivers/STM32F4xx_HAL_Driver/Src/stm32f4xx_hal_hcd.c ****     else
1459:Drivers/STM32F4xx_HAL_Driver/Src/stm32f4xx_hal_hcd.c ****     {
ARM GAS  /var/folders/lp/x54gwt890xv47sdkqj1k04q40000gn/T//cctevgvi.s 			page 53


1460:Drivers/STM32F4xx_HAL_Driver/Src/stm32f4xx_hal_hcd.c ****       hhcd->hc[ch_num].ErrCnt++;
1461:Drivers/STM32F4xx_HAL_Driver/Src/stm32f4xx_hal_hcd.c ****       if (hhcd->hc[ch_num].ErrCnt > 2U)
1462:Drivers/STM32F4xx_HAL_Driver/Src/stm32f4xx_hal_hcd.c ****       {
1463:Drivers/STM32F4xx_HAL_Driver/Src/stm32f4xx_hal_hcd.c ****         hhcd->hc[ch_num].ErrCnt = 0U;
1464:Drivers/STM32F4xx_HAL_Driver/Src/stm32f4xx_hal_hcd.c ****         hhcd->hc[ch_num].urb_state = URB_ERROR;
1465:Drivers/STM32F4xx_HAL_Driver/Src/stm32f4xx_hal_hcd.c **** 
1466:Drivers/STM32F4xx_HAL_Driver/Src/stm32f4xx_hal_hcd.c **** #if (USE_HAL_HCD_REGISTER_CALLBACKS == 1U)
1467:Drivers/STM32F4xx_HAL_Driver/Src/stm32f4xx_hal_hcd.c ****         hhcd->HC_NotifyURBChangeCallback(hhcd, (uint8_t)ch_num, hhcd->hc[ch_num].urb_state);
1468:Drivers/STM32F4xx_HAL_Driver/Src/stm32f4xx_hal_hcd.c **** #else
1469:Drivers/STM32F4xx_HAL_Driver/Src/stm32f4xx_hal_hcd.c ****         HAL_HCD_HC_NotifyURBChange_Callback(hhcd, (uint8_t)ch_num, hhcd->hc[ch_num].urb_state);
1470:Drivers/STM32F4xx_HAL_Driver/Src/stm32f4xx_hal_hcd.c **** #endif /* USE_HAL_HCD_REGISTER_CALLBACKS */
1471:Drivers/STM32F4xx_HAL_Driver/Src/stm32f4xx_hal_hcd.c ****       }
1472:Drivers/STM32F4xx_HAL_Driver/Src/stm32f4xx_hal_hcd.c ****       else
1473:Drivers/STM32F4xx_HAL_Driver/Src/stm32f4xx_hal_hcd.c ****       {
1474:Drivers/STM32F4xx_HAL_Driver/Src/stm32f4xx_hal_hcd.c ****         hhcd->hc[ch_num].urb_state = URB_NOTREADY;
1475:Drivers/STM32F4xx_HAL_Driver/Src/stm32f4xx_hal_hcd.c ****       }
1476:Drivers/STM32F4xx_HAL_Driver/Src/stm32f4xx_hal_hcd.c ****     }
1477:Drivers/STM32F4xx_HAL_Driver/Src/stm32f4xx_hal_hcd.c ****     __HAL_HCD_CLEAR_HC_INT(ch_num, USB_OTG_HCINT_TXERR);
1478:Drivers/STM32F4xx_HAL_Driver/Src/stm32f4xx_hal_hcd.c ****   }
1479:Drivers/STM32F4xx_HAL_Driver/Src/stm32f4xx_hal_hcd.c ****   else if ((USBx_HC(ch_num)->HCINT & USB_OTG_HCINT_DTERR) == USB_OTG_HCINT_DTERR)
1480:Drivers/STM32F4xx_HAL_Driver/Src/stm32f4xx_hal_hcd.c ****   {
1481:Drivers/STM32F4xx_HAL_Driver/Src/stm32f4xx_hal_hcd.c ****     hhcd->hc[ch_num].state = HC_DATATGLERR;
1482:Drivers/STM32F4xx_HAL_Driver/Src/stm32f4xx_hal_hcd.c ****     (void)USB_HC_Halt(hhcd->Instance, (uint8_t)ch_num);
1483:Drivers/STM32F4xx_HAL_Driver/Src/stm32f4xx_hal_hcd.c ****     __HAL_HCD_CLEAR_HC_INT(ch_num, USB_OTG_HCINT_DTERR);
1484:Drivers/STM32F4xx_HAL_Driver/Src/stm32f4xx_hal_hcd.c ****   }
1485:Drivers/STM32F4xx_HAL_Driver/Src/stm32f4xx_hal_hcd.c ****   else if ((USBx_HC(ch_num)->HCINT & USB_OTG_HCINT_CHH) == USB_OTG_HCINT_CHH)
1486:Drivers/STM32F4xx_HAL_Driver/Src/stm32f4xx_hal_hcd.c ****   {
1487:Drivers/STM32F4xx_HAL_Driver/Src/stm32f4xx_hal_hcd.c ****     if (hhcd->hc[ch_num].state == HC_XFRC)
1488:Drivers/STM32F4xx_HAL_Driver/Src/stm32f4xx_hal_hcd.c ****     {
1489:Drivers/STM32F4xx_HAL_Driver/Src/stm32f4xx_hal_hcd.c ****       hhcd->hc[ch_num].urb_state  = URB_DONE;
1490:Drivers/STM32F4xx_HAL_Driver/Src/stm32f4xx_hal_hcd.c ****       if ((hhcd->hc[ch_num].ep_type == EP_TYPE_BULK) ||
1491:Drivers/STM32F4xx_HAL_Driver/Src/stm32f4xx_hal_hcd.c ****           (hhcd->hc[ch_num].ep_type == EP_TYPE_INTR))
1492:Drivers/STM32F4xx_HAL_Driver/Src/stm32f4xx_hal_hcd.c ****       {
1493:Drivers/STM32F4xx_HAL_Driver/Src/stm32f4xx_hal_hcd.c ****         if (hhcd->Init.dma_enable == 0U)
1494:Drivers/STM32F4xx_HAL_Driver/Src/stm32f4xx_hal_hcd.c ****         {
1495:Drivers/STM32F4xx_HAL_Driver/Src/stm32f4xx_hal_hcd.c ****           hhcd->hc[ch_num].toggle_out ^= 1U;
1496:Drivers/STM32F4xx_HAL_Driver/Src/stm32f4xx_hal_hcd.c ****         }
1497:Drivers/STM32F4xx_HAL_Driver/Src/stm32f4xx_hal_hcd.c **** 
1498:Drivers/STM32F4xx_HAL_Driver/Src/stm32f4xx_hal_hcd.c ****         if ((hhcd->Init.dma_enable == 1U) && (hhcd->hc[ch_num].xfer_len > 0U))
1499:Drivers/STM32F4xx_HAL_Driver/Src/stm32f4xx_hal_hcd.c ****         {
1500:Drivers/STM32F4xx_HAL_Driver/Src/stm32f4xx_hal_hcd.c ****           num_packets = (hhcd->hc[ch_num].xfer_len + hhcd->hc[ch_num].max_packet - 1U) / hhcd->hc[c
1501:Drivers/STM32F4xx_HAL_Driver/Src/stm32f4xx_hal_hcd.c **** 
1502:Drivers/STM32F4xx_HAL_Driver/Src/stm32f4xx_hal_hcd.c ****           if ((num_packets & 1U) != 0U)
1503:Drivers/STM32F4xx_HAL_Driver/Src/stm32f4xx_hal_hcd.c ****           {
1504:Drivers/STM32F4xx_HAL_Driver/Src/stm32f4xx_hal_hcd.c ****             hhcd->hc[ch_num].toggle_out ^= 1U;
1505:Drivers/STM32F4xx_HAL_Driver/Src/stm32f4xx_hal_hcd.c ****           }
1506:Drivers/STM32F4xx_HAL_Driver/Src/stm32f4xx_hal_hcd.c ****         }
1507:Drivers/STM32F4xx_HAL_Driver/Src/stm32f4xx_hal_hcd.c ****       }
1508:Drivers/STM32F4xx_HAL_Driver/Src/stm32f4xx_hal_hcd.c ****     }
1509:Drivers/STM32F4xx_HAL_Driver/Src/stm32f4xx_hal_hcd.c ****     else if (hhcd->hc[ch_num].state == HC_NAK)
1510:Drivers/STM32F4xx_HAL_Driver/Src/stm32f4xx_hal_hcd.c ****     {
1511:Drivers/STM32F4xx_HAL_Driver/Src/stm32f4xx_hal_hcd.c ****       hhcd->hc[ch_num].urb_state = URB_NOTREADY;
1512:Drivers/STM32F4xx_HAL_Driver/Src/stm32f4xx_hal_hcd.c ****     }
1513:Drivers/STM32F4xx_HAL_Driver/Src/stm32f4xx_hal_hcd.c ****     else if (hhcd->hc[ch_num].state == HC_NYET)
1514:Drivers/STM32F4xx_HAL_Driver/Src/stm32f4xx_hal_hcd.c ****     {
1515:Drivers/STM32F4xx_HAL_Driver/Src/stm32f4xx_hal_hcd.c ****       hhcd->hc[ch_num].urb_state  = URB_NOTREADY;
1516:Drivers/STM32F4xx_HAL_Driver/Src/stm32f4xx_hal_hcd.c ****     }
ARM GAS  /var/folders/lp/x54gwt890xv47sdkqj1k04q40000gn/T//cctevgvi.s 			page 54


1517:Drivers/STM32F4xx_HAL_Driver/Src/stm32f4xx_hal_hcd.c ****     else if (hhcd->hc[ch_num].state == HC_STALL)
1518:Drivers/STM32F4xx_HAL_Driver/Src/stm32f4xx_hal_hcd.c ****     {
1519:Drivers/STM32F4xx_HAL_Driver/Src/stm32f4xx_hal_hcd.c ****       hhcd->hc[ch_num].urb_state  = URB_STALL;
1520:Drivers/STM32F4xx_HAL_Driver/Src/stm32f4xx_hal_hcd.c ****     }
1521:Drivers/STM32F4xx_HAL_Driver/Src/stm32f4xx_hal_hcd.c ****     else if ((hhcd->hc[ch_num].state == HC_XACTERR) ||
1522:Drivers/STM32F4xx_HAL_Driver/Src/stm32f4xx_hal_hcd.c ****              (hhcd->hc[ch_num].state == HC_DATATGLERR))
1523:Drivers/STM32F4xx_HAL_Driver/Src/stm32f4xx_hal_hcd.c ****     {
1524:Drivers/STM32F4xx_HAL_Driver/Src/stm32f4xx_hal_hcd.c ****       hhcd->hc[ch_num].ErrCnt++;
1525:Drivers/STM32F4xx_HAL_Driver/Src/stm32f4xx_hal_hcd.c ****       if (hhcd->hc[ch_num].ErrCnt > 2U)
1526:Drivers/STM32F4xx_HAL_Driver/Src/stm32f4xx_hal_hcd.c ****       {
1527:Drivers/STM32F4xx_HAL_Driver/Src/stm32f4xx_hal_hcd.c ****         hhcd->hc[ch_num].ErrCnt = 0U;
1528:Drivers/STM32F4xx_HAL_Driver/Src/stm32f4xx_hal_hcd.c ****         hhcd->hc[ch_num].urb_state = URB_ERROR;
1529:Drivers/STM32F4xx_HAL_Driver/Src/stm32f4xx_hal_hcd.c ****       }
1530:Drivers/STM32F4xx_HAL_Driver/Src/stm32f4xx_hal_hcd.c ****       else
1531:Drivers/STM32F4xx_HAL_Driver/Src/stm32f4xx_hal_hcd.c ****       {
1532:Drivers/STM32F4xx_HAL_Driver/Src/stm32f4xx_hal_hcd.c ****         hhcd->hc[ch_num].urb_state = URB_NOTREADY;
1533:Drivers/STM32F4xx_HAL_Driver/Src/stm32f4xx_hal_hcd.c **** 
1534:Drivers/STM32F4xx_HAL_Driver/Src/stm32f4xx_hal_hcd.c ****         /* re-activate the channel  */
1535:Drivers/STM32F4xx_HAL_Driver/Src/stm32f4xx_hal_hcd.c ****         tmpreg = USBx_HC(ch_num)->HCCHAR;
1536:Drivers/STM32F4xx_HAL_Driver/Src/stm32f4xx_hal_hcd.c ****         tmpreg &= ~USB_OTG_HCCHAR_CHDIS;
1537:Drivers/STM32F4xx_HAL_Driver/Src/stm32f4xx_hal_hcd.c ****         tmpreg |= USB_OTG_HCCHAR_CHENA;
1538:Drivers/STM32F4xx_HAL_Driver/Src/stm32f4xx_hal_hcd.c ****         USBx_HC(ch_num)->HCCHAR = tmpreg;
1539:Drivers/STM32F4xx_HAL_Driver/Src/stm32f4xx_hal_hcd.c ****       }
1540:Drivers/STM32F4xx_HAL_Driver/Src/stm32f4xx_hal_hcd.c ****     }
1541:Drivers/STM32F4xx_HAL_Driver/Src/stm32f4xx_hal_hcd.c ****     else
1542:Drivers/STM32F4xx_HAL_Driver/Src/stm32f4xx_hal_hcd.c ****     {
1543:Drivers/STM32F4xx_HAL_Driver/Src/stm32f4xx_hal_hcd.c ****       /* ... */
1544:Drivers/STM32F4xx_HAL_Driver/Src/stm32f4xx_hal_hcd.c ****     }
1545:Drivers/STM32F4xx_HAL_Driver/Src/stm32f4xx_hal_hcd.c **** 
1546:Drivers/STM32F4xx_HAL_Driver/Src/stm32f4xx_hal_hcd.c ****     __HAL_HCD_CLEAR_HC_INT(ch_num, USB_OTG_HCINT_CHH);
1547:Drivers/STM32F4xx_HAL_Driver/Src/stm32f4xx_hal_hcd.c **** 
1548:Drivers/STM32F4xx_HAL_Driver/Src/stm32f4xx_hal_hcd.c **** #if (USE_HAL_HCD_REGISTER_CALLBACKS == 1U)
1549:Drivers/STM32F4xx_HAL_Driver/Src/stm32f4xx_hal_hcd.c ****     hhcd->HC_NotifyURBChangeCallback(hhcd, (uint8_t)ch_num, hhcd->hc[ch_num].urb_state);
1550:Drivers/STM32F4xx_HAL_Driver/Src/stm32f4xx_hal_hcd.c **** #else
1551:Drivers/STM32F4xx_HAL_Driver/Src/stm32f4xx_hal_hcd.c ****     HAL_HCD_HC_NotifyURBChange_Callback(hhcd, (uint8_t)ch_num, hhcd->hc[ch_num].urb_state);
1552:Drivers/STM32F4xx_HAL_Driver/Src/stm32f4xx_hal_hcd.c **** #endif /* USE_HAL_HCD_REGISTER_CALLBACKS */
1553:Drivers/STM32F4xx_HAL_Driver/Src/stm32f4xx_hal_hcd.c ****   }
1554:Drivers/STM32F4xx_HAL_Driver/Src/stm32f4xx_hal_hcd.c ****   else
1555:Drivers/STM32F4xx_HAL_Driver/Src/stm32f4xx_hal_hcd.c ****   {
1556:Drivers/STM32F4xx_HAL_Driver/Src/stm32f4xx_hal_hcd.c ****     /* ... */
1557:Drivers/STM32F4xx_HAL_Driver/Src/stm32f4xx_hal_hcd.c ****   }
1558:Drivers/STM32F4xx_HAL_Driver/Src/stm32f4xx_hal_hcd.c **** }
1559:Drivers/STM32F4xx_HAL_Driver/Src/stm32f4xx_hal_hcd.c **** 
1560:Drivers/STM32F4xx_HAL_Driver/Src/stm32f4xx_hal_hcd.c **** /**
1561:Drivers/STM32F4xx_HAL_Driver/Src/stm32f4xx_hal_hcd.c ****   * @brief  Handle Rx Queue Level interrupt requests.
1562:Drivers/STM32F4xx_HAL_Driver/Src/stm32f4xx_hal_hcd.c ****   * @param  hhcd HCD handle
1563:Drivers/STM32F4xx_HAL_Driver/Src/stm32f4xx_hal_hcd.c ****   * @retval none
1564:Drivers/STM32F4xx_HAL_Driver/Src/stm32f4xx_hal_hcd.c ****   */
1565:Drivers/STM32F4xx_HAL_Driver/Src/stm32f4xx_hal_hcd.c **** static void HCD_RXQLVL_IRQHandler(HCD_HandleTypeDef *hhcd)
1566:Drivers/STM32F4xx_HAL_Driver/Src/stm32f4xx_hal_hcd.c **** {
1567:Drivers/STM32F4xx_HAL_Driver/Src/stm32f4xx_hal_hcd.c ****   USB_OTG_GlobalTypeDef *USBx = hhcd->Instance;
1568:Drivers/STM32F4xx_HAL_Driver/Src/stm32f4xx_hal_hcd.c ****   uint32_t USBx_BASE = (uint32_t)USBx;
1569:Drivers/STM32F4xx_HAL_Driver/Src/stm32f4xx_hal_hcd.c ****   uint32_t pktsts;
1570:Drivers/STM32F4xx_HAL_Driver/Src/stm32f4xx_hal_hcd.c ****   uint32_t pktcnt;
1571:Drivers/STM32F4xx_HAL_Driver/Src/stm32f4xx_hal_hcd.c ****   uint32_t GrxstspReg;
1572:Drivers/STM32F4xx_HAL_Driver/Src/stm32f4xx_hal_hcd.c ****   uint32_t xferSizePktCnt;
1573:Drivers/STM32F4xx_HAL_Driver/Src/stm32f4xx_hal_hcd.c ****   uint32_t tmpreg;
ARM GAS  /var/folders/lp/x54gwt890xv47sdkqj1k04q40000gn/T//cctevgvi.s 			page 55


1574:Drivers/STM32F4xx_HAL_Driver/Src/stm32f4xx_hal_hcd.c ****   uint32_t ch_num;
1575:Drivers/STM32F4xx_HAL_Driver/Src/stm32f4xx_hal_hcd.c **** 
1576:Drivers/STM32F4xx_HAL_Driver/Src/stm32f4xx_hal_hcd.c ****   GrxstspReg = hhcd->Instance->GRXSTSP;
1577:Drivers/STM32F4xx_HAL_Driver/Src/stm32f4xx_hal_hcd.c ****   ch_num = GrxstspReg & USB_OTG_GRXSTSP_EPNUM;
1578:Drivers/STM32F4xx_HAL_Driver/Src/stm32f4xx_hal_hcd.c ****   pktsts = (GrxstspReg & USB_OTG_GRXSTSP_PKTSTS) >> 17;
1579:Drivers/STM32F4xx_HAL_Driver/Src/stm32f4xx_hal_hcd.c ****   pktcnt = (GrxstspReg & USB_OTG_GRXSTSP_BCNT) >> 4;
1580:Drivers/STM32F4xx_HAL_Driver/Src/stm32f4xx_hal_hcd.c **** 
1581:Drivers/STM32F4xx_HAL_Driver/Src/stm32f4xx_hal_hcd.c ****   switch (pktsts)
1582:Drivers/STM32F4xx_HAL_Driver/Src/stm32f4xx_hal_hcd.c ****   {
1583:Drivers/STM32F4xx_HAL_Driver/Src/stm32f4xx_hal_hcd.c ****     case GRXSTS_PKTSTS_IN:
1584:Drivers/STM32F4xx_HAL_Driver/Src/stm32f4xx_hal_hcd.c ****       /* Read the data into the host buffer. */
1585:Drivers/STM32F4xx_HAL_Driver/Src/stm32f4xx_hal_hcd.c ****       if ((pktcnt > 0U) && (hhcd->hc[ch_num].xfer_buff != (void *)0))
1586:Drivers/STM32F4xx_HAL_Driver/Src/stm32f4xx_hal_hcd.c ****       {
1587:Drivers/STM32F4xx_HAL_Driver/Src/stm32f4xx_hal_hcd.c ****         if ((hhcd->hc[ch_num].xfer_count + pktcnt) <= hhcd->hc[ch_num].xfer_len)
1588:Drivers/STM32F4xx_HAL_Driver/Src/stm32f4xx_hal_hcd.c ****         {
1589:Drivers/STM32F4xx_HAL_Driver/Src/stm32f4xx_hal_hcd.c ****           (void)USB_ReadPacket(hhcd->Instance,
1590:Drivers/STM32F4xx_HAL_Driver/Src/stm32f4xx_hal_hcd.c ****                                hhcd->hc[ch_num].xfer_buff, (uint16_t)pktcnt);
1591:Drivers/STM32F4xx_HAL_Driver/Src/stm32f4xx_hal_hcd.c **** 
1592:Drivers/STM32F4xx_HAL_Driver/Src/stm32f4xx_hal_hcd.c ****           /* manage multiple Xfer */
1593:Drivers/STM32F4xx_HAL_Driver/Src/stm32f4xx_hal_hcd.c ****           hhcd->hc[ch_num].xfer_buff += pktcnt;
1594:Drivers/STM32F4xx_HAL_Driver/Src/stm32f4xx_hal_hcd.c ****           hhcd->hc[ch_num].xfer_count += pktcnt;
1595:Drivers/STM32F4xx_HAL_Driver/Src/stm32f4xx_hal_hcd.c **** 
1596:Drivers/STM32F4xx_HAL_Driver/Src/stm32f4xx_hal_hcd.c ****           /* get transfer size packet count */
1597:Drivers/STM32F4xx_HAL_Driver/Src/stm32f4xx_hal_hcd.c ****           xferSizePktCnt = (USBx_HC(ch_num)->HCTSIZ & USB_OTG_HCTSIZ_PKTCNT) >> 19;
1598:Drivers/STM32F4xx_HAL_Driver/Src/stm32f4xx_hal_hcd.c **** 
1599:Drivers/STM32F4xx_HAL_Driver/Src/stm32f4xx_hal_hcd.c ****           if ((hhcd->hc[ch_num].max_packet == pktcnt) && (xferSizePktCnt > 0U))
1600:Drivers/STM32F4xx_HAL_Driver/Src/stm32f4xx_hal_hcd.c ****           {
1601:Drivers/STM32F4xx_HAL_Driver/Src/stm32f4xx_hal_hcd.c ****             /* re-activate the channel when more packets are expected */
1602:Drivers/STM32F4xx_HAL_Driver/Src/stm32f4xx_hal_hcd.c ****             tmpreg = USBx_HC(ch_num)->HCCHAR;
1603:Drivers/STM32F4xx_HAL_Driver/Src/stm32f4xx_hal_hcd.c ****             tmpreg &= ~USB_OTG_HCCHAR_CHDIS;
1604:Drivers/STM32F4xx_HAL_Driver/Src/stm32f4xx_hal_hcd.c ****             tmpreg |= USB_OTG_HCCHAR_CHENA;
1605:Drivers/STM32F4xx_HAL_Driver/Src/stm32f4xx_hal_hcd.c ****             USBx_HC(ch_num)->HCCHAR = tmpreg;
1606:Drivers/STM32F4xx_HAL_Driver/Src/stm32f4xx_hal_hcd.c ****             hhcd->hc[ch_num].toggle_in ^= 1U;
1607:Drivers/STM32F4xx_HAL_Driver/Src/stm32f4xx_hal_hcd.c ****           }
1608:Drivers/STM32F4xx_HAL_Driver/Src/stm32f4xx_hal_hcd.c ****         }
1609:Drivers/STM32F4xx_HAL_Driver/Src/stm32f4xx_hal_hcd.c ****         else
1610:Drivers/STM32F4xx_HAL_Driver/Src/stm32f4xx_hal_hcd.c ****         {
1611:Drivers/STM32F4xx_HAL_Driver/Src/stm32f4xx_hal_hcd.c ****           hhcd->hc[ch_num].urb_state = URB_ERROR;
1612:Drivers/STM32F4xx_HAL_Driver/Src/stm32f4xx_hal_hcd.c ****         }
1613:Drivers/STM32F4xx_HAL_Driver/Src/stm32f4xx_hal_hcd.c ****       }
1614:Drivers/STM32F4xx_HAL_Driver/Src/stm32f4xx_hal_hcd.c ****       break;
1615:Drivers/STM32F4xx_HAL_Driver/Src/stm32f4xx_hal_hcd.c **** 
1616:Drivers/STM32F4xx_HAL_Driver/Src/stm32f4xx_hal_hcd.c ****     case GRXSTS_PKTSTS_DATA_TOGGLE_ERR:
1617:Drivers/STM32F4xx_HAL_Driver/Src/stm32f4xx_hal_hcd.c ****       break;
1618:Drivers/STM32F4xx_HAL_Driver/Src/stm32f4xx_hal_hcd.c **** 
1619:Drivers/STM32F4xx_HAL_Driver/Src/stm32f4xx_hal_hcd.c ****     case GRXSTS_PKTSTS_IN_XFER_COMP:
1620:Drivers/STM32F4xx_HAL_Driver/Src/stm32f4xx_hal_hcd.c ****     case GRXSTS_PKTSTS_CH_HALTED:
1621:Drivers/STM32F4xx_HAL_Driver/Src/stm32f4xx_hal_hcd.c ****     default:
1622:Drivers/STM32F4xx_HAL_Driver/Src/stm32f4xx_hal_hcd.c ****       break;
1623:Drivers/STM32F4xx_HAL_Driver/Src/stm32f4xx_hal_hcd.c ****   }
1624:Drivers/STM32F4xx_HAL_Driver/Src/stm32f4xx_hal_hcd.c **** }
1625:Drivers/STM32F4xx_HAL_Driver/Src/stm32f4xx_hal_hcd.c **** 
1626:Drivers/STM32F4xx_HAL_Driver/Src/stm32f4xx_hal_hcd.c **** /**
1627:Drivers/STM32F4xx_HAL_Driver/Src/stm32f4xx_hal_hcd.c ****   * @brief  Handle Host Port interrupt requests.
1628:Drivers/STM32F4xx_HAL_Driver/Src/stm32f4xx_hal_hcd.c ****   * @param  hhcd HCD handle
1629:Drivers/STM32F4xx_HAL_Driver/Src/stm32f4xx_hal_hcd.c ****   * @retval None
1630:Drivers/STM32F4xx_HAL_Driver/Src/stm32f4xx_hal_hcd.c ****   */
ARM GAS  /var/folders/lp/x54gwt890xv47sdkqj1k04q40000gn/T//cctevgvi.s 			page 56


1631:Drivers/STM32F4xx_HAL_Driver/Src/stm32f4xx_hal_hcd.c **** static void HCD_Port_IRQHandler(HCD_HandleTypeDef *hhcd)
 1292              		.loc 1 1631 13 view .LVU396
 1293              	.LBB46:
1632:Drivers/STM32F4xx_HAL_Driver/Src/stm32f4xx_hal_hcd.c **** {
1633:Drivers/STM32F4xx_HAL_Driver/Src/stm32f4xx_hal_hcd.c ****   USB_OTG_GlobalTypeDef *USBx = hhcd->Instance;
 1294              		.loc 1 1633 3 view .LVU397
1634:Drivers/STM32F4xx_HAL_Driver/Src/stm32f4xx_hal_hcd.c ****   uint32_t USBx_BASE = (uint32_t)USBx;
 1295              		.loc 1 1634 3 view .LVU398
 1296              		.loc 1 1634 12 is_stmt 0 view .LVU399
 1297 021a 2668     		ldr	r6, [r4]
 1298              	.LVL85:
1635:Drivers/STM32F4xx_HAL_Driver/Src/stm32f4xx_hal_hcd.c ****   __IO uint32_t hprt0;
 1299              		.loc 1 1635 3 is_stmt 1 view .LVU400
1636:Drivers/STM32F4xx_HAL_Driver/Src/stm32f4xx_hal_hcd.c ****   __IO uint32_t hprt0_dup;
 1300              		.loc 1 1636 3 view .LVU401
1637:Drivers/STM32F4xx_HAL_Driver/Src/stm32f4xx_hal_hcd.c **** 
1638:Drivers/STM32F4xx_HAL_Driver/Src/stm32f4xx_hal_hcd.c ****   /* Handle Host Port Interrupts */
1639:Drivers/STM32F4xx_HAL_Driver/Src/stm32f4xx_hal_hcd.c ****   hprt0 = USBx_HPRT0;
 1301              		.loc 1 1639 3 view .LVU402
 1302              		.loc 1 1639 11 is_stmt 0 view .LVU403
 1303 021c D6F84034 		ldr	r3, [r6, #1088]
 1304              		.loc 1 1639 9 view .LVU404
 1305 0220 0293     		str	r3, [sp, #8]
1640:Drivers/STM32F4xx_HAL_Driver/Src/stm32f4xx_hal_hcd.c ****   hprt0_dup = USBx_HPRT0;
 1306              		.loc 1 1640 3 is_stmt 1 view .LVU405
 1307              		.loc 1 1640 15 is_stmt 0 view .LVU406
 1308 0222 D6F84034 		ldr	r3, [r6, #1088]
 1309              		.loc 1 1640 13 view .LVU407
 1310 0226 0393     		str	r3, [sp, #12]
1641:Drivers/STM32F4xx_HAL_Driver/Src/stm32f4xx_hal_hcd.c **** 
1642:Drivers/STM32F4xx_HAL_Driver/Src/stm32f4xx_hal_hcd.c ****   hprt0_dup &= ~(USB_OTG_HPRT_PENA | USB_OTG_HPRT_PCDET | \
 1311              		.loc 1 1642 3 is_stmt 1 view .LVU408
 1312              		.loc 1 1642 13 is_stmt 0 view .LVU409
 1313 0228 039B     		ldr	r3, [sp, #12]
 1314 022a 23F02E03 		bic	r3, r3, #46
 1315 022e 0393     		str	r3, [sp, #12]
1643:Drivers/STM32F4xx_HAL_Driver/Src/stm32f4xx_hal_hcd.c ****                  USB_OTG_HPRT_PENCHNG | USB_OTG_HPRT_POCCHNG);
1644:Drivers/STM32F4xx_HAL_Driver/Src/stm32f4xx_hal_hcd.c **** 
1645:Drivers/STM32F4xx_HAL_Driver/Src/stm32f4xx_hal_hcd.c ****   /* Check whether Port Connect detected */
1646:Drivers/STM32F4xx_HAL_Driver/Src/stm32f4xx_hal_hcd.c ****   if ((hprt0 & USB_OTG_HPRT_PCDET) == USB_OTG_HPRT_PCDET)
 1316              		.loc 1 1646 3 is_stmt 1 view .LVU410
 1317              		.loc 1 1646 14 is_stmt 0 view .LVU411
 1318 0230 029B     		ldr	r3, [sp, #8]
 1319              		.loc 1 1646 6 view .LVU412
 1320 0232 9907     		lsls	r1, r3, #30
 1321 0234 07D5     		bpl	.L80
1647:Drivers/STM32F4xx_HAL_Driver/Src/stm32f4xx_hal_hcd.c ****   {
1648:Drivers/STM32F4xx_HAL_Driver/Src/stm32f4xx_hal_hcd.c ****     if ((hprt0 & USB_OTG_HPRT_PCSTS) == USB_OTG_HPRT_PCSTS)
 1322              		.loc 1 1648 5 is_stmt 1 view .LVU413
 1323              		.loc 1 1648 16 is_stmt 0 view .LVU414
 1324 0236 029B     		ldr	r3, [sp, #8]
 1325              		.loc 1 1648 8 view .LVU415
 1326 0238 DA07     		lsls	r2, r3, #31
 1327 023a 00F17D81 		bmi	.L231
 1328              	.LVL86:
 1329              	.L81:
1649:Drivers/STM32F4xx_HAL_Driver/Src/stm32f4xx_hal_hcd.c ****     {
ARM GAS  /var/folders/lp/x54gwt890xv47sdkqj1k04q40000gn/T//cctevgvi.s 			page 57


1650:Drivers/STM32F4xx_HAL_Driver/Src/stm32f4xx_hal_hcd.c **** #if (USE_HAL_HCD_REGISTER_CALLBACKS == 1U)
1651:Drivers/STM32F4xx_HAL_Driver/Src/stm32f4xx_hal_hcd.c ****       hhcd->ConnectCallback(hhcd);
1652:Drivers/STM32F4xx_HAL_Driver/Src/stm32f4xx_hal_hcd.c **** #else
1653:Drivers/STM32F4xx_HAL_Driver/Src/stm32f4xx_hal_hcd.c ****       HAL_HCD_Connect_Callback(hhcd);
1654:Drivers/STM32F4xx_HAL_Driver/Src/stm32f4xx_hal_hcd.c **** #endif /* USE_HAL_HCD_REGISTER_CALLBACKS */
1655:Drivers/STM32F4xx_HAL_Driver/Src/stm32f4xx_hal_hcd.c ****     }
1656:Drivers/STM32F4xx_HAL_Driver/Src/stm32f4xx_hal_hcd.c ****     hprt0_dup |= USB_OTG_HPRT_PCDET;
 1330              		.loc 1 1656 5 is_stmt 1 view .LVU416
 1331              		.loc 1 1656 15 is_stmt 0 view .LVU417
 1332 023e 039B     		ldr	r3, [sp, #12]
 1333 0240 43F00203 		orr	r3, r3, #2
 1334 0244 0393     		str	r3, [sp, #12]
 1335              	.L80:
1657:Drivers/STM32F4xx_HAL_Driver/Src/stm32f4xx_hal_hcd.c ****   }
1658:Drivers/STM32F4xx_HAL_Driver/Src/stm32f4xx_hal_hcd.c **** 
1659:Drivers/STM32F4xx_HAL_Driver/Src/stm32f4xx_hal_hcd.c ****   /* Check whether Port Enable Changed */
1660:Drivers/STM32F4xx_HAL_Driver/Src/stm32f4xx_hal_hcd.c ****   if ((hprt0 & USB_OTG_HPRT_PENCHNG) == USB_OTG_HPRT_PENCHNG)
 1336              		.loc 1 1660 3 is_stmt 1 view .LVU418
 1337              		.loc 1 1660 14 is_stmt 0 view .LVU419
 1338 0246 029B     		ldr	r3, [sp, #8]
 1339              		.loc 1 1660 6 view .LVU420
 1340 0248 1B07     		lsls	r3, r3, #28
 1341 024a 15D5     		bpl	.L82
1661:Drivers/STM32F4xx_HAL_Driver/Src/stm32f4xx_hal_hcd.c ****   {
1662:Drivers/STM32F4xx_HAL_Driver/Src/stm32f4xx_hal_hcd.c ****     hprt0_dup |= USB_OTG_HPRT_PENCHNG;
 1342              		.loc 1 1662 5 is_stmt 1 view .LVU421
 1343              		.loc 1 1662 15 is_stmt 0 view .LVU422
 1344 024c 039B     		ldr	r3, [sp, #12]
 1345 024e 43F00803 		orr	r3, r3, #8
 1346 0252 0393     		str	r3, [sp, #12]
1663:Drivers/STM32F4xx_HAL_Driver/Src/stm32f4xx_hal_hcd.c **** 
1664:Drivers/STM32F4xx_HAL_Driver/Src/stm32f4xx_hal_hcd.c ****     if ((hprt0 & USB_OTG_HPRT_PENA) == USB_OTG_HPRT_PENA)
 1347              		.loc 1 1664 5 is_stmt 1 view .LVU423
 1348              		.loc 1 1664 16 is_stmt 0 view .LVU424
 1349 0254 029B     		ldr	r3, [sp, #8]
 1350              		.loc 1 1664 8 view .LVU425
 1351 0256 5F07     		lsls	r7, r3, #29
 1352 0258 40F17281 		bpl	.L83
1665:Drivers/STM32F4xx_HAL_Driver/Src/stm32f4xx_hal_hcd.c ****     {
1666:Drivers/STM32F4xx_HAL_Driver/Src/stm32f4xx_hal_hcd.c ****       if (hhcd->Init.phy_itface  == USB_OTG_EMBEDDED_PHY)
 1353              		.loc 1 1666 7 is_stmt 1 view .LVU426
 1354              		.loc 1 1666 10 is_stmt 0 view .LVU427
 1355 025c A169     		ldr	r1, [r4, #24]
 1356 025e 0229     		cmp	r1, #2
 1357 0260 00F07E81 		beq	.L232
1667:Drivers/STM32F4xx_HAL_Driver/Src/stm32f4xx_hal_hcd.c ****       {
1668:Drivers/STM32F4xx_HAL_Driver/Src/stm32f4xx_hal_hcd.c ****         if ((hprt0 & USB_OTG_HPRT_PSPD) == (HPRT0_PRTSPD_LOW_SPEED << 17))
1669:Drivers/STM32F4xx_HAL_Driver/Src/stm32f4xx_hal_hcd.c ****         {
1670:Drivers/STM32F4xx_HAL_Driver/Src/stm32f4xx_hal_hcd.c ****           (void)USB_InitFSLSPClkSel(hhcd->Instance, HCFG_6_MHZ);
1671:Drivers/STM32F4xx_HAL_Driver/Src/stm32f4xx_hal_hcd.c ****         }
1672:Drivers/STM32F4xx_HAL_Driver/Src/stm32f4xx_hal_hcd.c ****         else
1673:Drivers/STM32F4xx_HAL_Driver/Src/stm32f4xx_hal_hcd.c ****         {
1674:Drivers/STM32F4xx_HAL_Driver/Src/stm32f4xx_hal_hcd.c ****           (void)USB_InitFSLSPClkSel(hhcd->Instance, HCFG_48_MHZ);
1675:Drivers/STM32F4xx_HAL_Driver/Src/stm32f4xx_hal_hcd.c ****         }
1676:Drivers/STM32F4xx_HAL_Driver/Src/stm32f4xx_hal_hcd.c ****       }
1677:Drivers/STM32F4xx_HAL_Driver/Src/stm32f4xx_hal_hcd.c ****       else
1678:Drivers/STM32F4xx_HAL_Driver/Src/stm32f4xx_hal_hcd.c ****       {
ARM GAS  /var/folders/lp/x54gwt890xv47sdkqj1k04q40000gn/T//cctevgvi.s 			page 58


1679:Drivers/STM32F4xx_HAL_Driver/Src/stm32f4xx_hal_hcd.c ****         if (hhcd->Init.speed == HCD_SPEED_FULL)
 1358              		.loc 1 1679 9 is_stmt 1 view .LVU428
 1359              		.loc 1 1679 12 is_stmt 0 view .LVU429
 1360 0264 E368     		ldr	r3, [r4, #12]
 1361 0266 012B     		cmp	r3, #1
1680:Drivers/STM32F4xx_HAL_Driver/Src/stm32f4xx_hal_hcd.c ****         {
1681:Drivers/STM32F4xx_HAL_Driver/Src/stm32f4xx_hal_hcd.c ****           USBx_HOST->HFIR = 60000U;
 1362              		.loc 1 1681 11 is_stmt 1 view .LVU430
 1363              		.loc 1 1681 27 is_stmt 0 view .LVU431
 1364 0268 04BF     		itt	eq
 1365 026a 4EF66022 		movweq	r2, #60000
 1366 026e C6F80424 		streq	r2, [r6, #1028]
 1367              	.L86:
1682:Drivers/STM32F4xx_HAL_Driver/Src/stm32f4xx_hal_hcd.c ****         }
1683:Drivers/STM32F4xx_HAL_Driver/Src/stm32f4xx_hal_hcd.c ****       }
1684:Drivers/STM32F4xx_HAL_Driver/Src/stm32f4xx_hal_hcd.c **** #if (USE_HAL_HCD_REGISTER_CALLBACKS == 1U)
1685:Drivers/STM32F4xx_HAL_Driver/Src/stm32f4xx_hal_hcd.c ****       hhcd->PortEnabledCallback(hhcd);
1686:Drivers/STM32F4xx_HAL_Driver/Src/stm32f4xx_hal_hcd.c **** #else
1687:Drivers/STM32F4xx_HAL_Driver/Src/stm32f4xx_hal_hcd.c ****       HAL_HCD_PortEnabled_Callback(hhcd);
 1368              		.loc 1 1687 7 is_stmt 1 view .LVU432
 1369 0272 2046     		mov	r0, r4
 1370 0274 FFF7FEFF 		bl	HAL_HCD_PortEnabled_Callback
 1371              	.LVL87:
 1372              	.L82:
1688:Drivers/STM32F4xx_HAL_Driver/Src/stm32f4xx_hal_hcd.c **** #endif /* USE_HAL_HCD_REGISTER_CALLBACKS */
1689:Drivers/STM32F4xx_HAL_Driver/Src/stm32f4xx_hal_hcd.c **** 
1690:Drivers/STM32F4xx_HAL_Driver/Src/stm32f4xx_hal_hcd.c ****     }
1691:Drivers/STM32F4xx_HAL_Driver/Src/stm32f4xx_hal_hcd.c ****     else
1692:Drivers/STM32F4xx_HAL_Driver/Src/stm32f4xx_hal_hcd.c ****     {
1693:Drivers/STM32F4xx_HAL_Driver/Src/stm32f4xx_hal_hcd.c **** #if (USE_HAL_HCD_REGISTER_CALLBACKS == 1U)
1694:Drivers/STM32F4xx_HAL_Driver/Src/stm32f4xx_hal_hcd.c ****       hhcd->PortDisabledCallback(hhcd);
1695:Drivers/STM32F4xx_HAL_Driver/Src/stm32f4xx_hal_hcd.c **** #else
1696:Drivers/STM32F4xx_HAL_Driver/Src/stm32f4xx_hal_hcd.c ****       HAL_HCD_PortDisabled_Callback(hhcd);
1697:Drivers/STM32F4xx_HAL_Driver/Src/stm32f4xx_hal_hcd.c **** #endif /* USE_HAL_HCD_REGISTER_CALLBACKS */
1698:Drivers/STM32F4xx_HAL_Driver/Src/stm32f4xx_hal_hcd.c ****     }
1699:Drivers/STM32F4xx_HAL_Driver/Src/stm32f4xx_hal_hcd.c ****   }
1700:Drivers/STM32F4xx_HAL_Driver/Src/stm32f4xx_hal_hcd.c **** 
1701:Drivers/STM32F4xx_HAL_Driver/Src/stm32f4xx_hal_hcd.c ****   /* Check for an overcurrent */
1702:Drivers/STM32F4xx_HAL_Driver/Src/stm32f4xx_hal_hcd.c ****   if ((hprt0 & USB_OTG_HPRT_POCCHNG) == USB_OTG_HPRT_POCCHNG)
 1373              		.loc 1 1702 3 view .LVU433
 1374              		.loc 1 1702 14 is_stmt 0 view .LVU434
 1375 0278 029B     		ldr	r3, [sp, #8]
 1376              		.loc 1 1702 6 view .LVU435
 1377 027a 9806     		lsls	r0, r3, #26
 1378 027c 03D5     		bpl	.L87
1703:Drivers/STM32F4xx_HAL_Driver/Src/stm32f4xx_hal_hcd.c ****   {
1704:Drivers/STM32F4xx_HAL_Driver/Src/stm32f4xx_hal_hcd.c ****     hprt0_dup |= USB_OTG_HPRT_POCCHNG;
 1379              		.loc 1 1704 5 is_stmt 1 view .LVU436
 1380              		.loc 1 1704 15 is_stmt 0 view .LVU437
 1381 027e 039B     		ldr	r3, [sp, #12]
 1382 0280 43F02003 		orr	r3, r3, #32
 1383 0284 0393     		str	r3, [sp, #12]
 1384              	.L87:
1705:Drivers/STM32F4xx_HAL_Driver/Src/stm32f4xx_hal_hcd.c ****   }
1706:Drivers/STM32F4xx_HAL_Driver/Src/stm32f4xx_hal_hcd.c **** 
1707:Drivers/STM32F4xx_HAL_Driver/Src/stm32f4xx_hal_hcd.c ****   /* Clear Port Interrupts */
1708:Drivers/STM32F4xx_HAL_Driver/Src/stm32f4xx_hal_hcd.c ****   USBx_HPRT0 = hprt0_dup;
ARM GAS  /var/folders/lp/x54gwt890xv47sdkqj1k04q40000gn/T//cctevgvi.s 			page 59


 1385              		.loc 1 1708 3 is_stmt 1 view .LVU438
 1386              		.loc 1 1708 14 is_stmt 0 view .LVU439
 1387 0286 039B     		ldr	r3, [sp, #12]
 1388 0288 C6F84034 		str	r3, [r6, #1088]
 1389              	.LVL88:
1709:Drivers/STM32F4xx_HAL_Driver/Src/stm32f4xx_hal_hcd.c **** }
 1390              		.loc 1 1709 1 view .LVU440
 1391 028c F9E6     		b	.L79
 1392              	.L90:
 1393              		.loc 1 1709 1 view .LVU441
 1394              	.LBE46:
 1395              	.LBE45:
 577:Drivers/STM32F4xx_HAL_Driver/Src/stm32f4xx_hal_hcd.c **** 
 1396              		.loc 1 577 7 is_stmt 1 view .LVU442
 1397 028e B369     		ldr	r3, [r6, #24]
 1398 0290 23F01003 		bic	r3, r3, #16
 1399 0294 B361     		str	r3, [r6, #24]
 579:Drivers/STM32F4xx_HAL_Driver/Src/stm32f4xx_hal_hcd.c **** 
 1400              		.loc 1 579 7 view .LVU443
 1401              	.LVL89:
 1402              	.LBB49:
 1403              	.LBI49:
1565:Drivers/STM32F4xx_HAL_Driver/Src/stm32f4xx_hal_hcd.c **** {
 1404              		.loc 1 1565 13 view .LVU444
 1405              	.LBB50:
1567:Drivers/STM32F4xx_HAL_Driver/Src/stm32f4xx_hal_hcd.c ****   uint32_t USBx_BASE = (uint32_t)USBx;
 1406              		.loc 1 1567 3 view .LVU445
1568:Drivers/STM32F4xx_HAL_Driver/Src/stm32f4xx_hal_hcd.c ****   uint32_t pktsts;
 1407              		.loc 1 1568 3 view .LVU446
1569:Drivers/STM32F4xx_HAL_Driver/Src/stm32f4xx_hal_hcd.c ****   uint32_t pktcnt;
 1408              		.loc 1 1569 3 view .LVU447
1570:Drivers/STM32F4xx_HAL_Driver/Src/stm32f4xx_hal_hcd.c ****   uint32_t GrxstspReg;
 1409              		.loc 1 1570 3 view .LVU448
1571:Drivers/STM32F4xx_HAL_Driver/Src/stm32f4xx_hal_hcd.c ****   uint32_t xferSizePktCnt;
 1410              		.loc 1 1571 3 view .LVU449
1572:Drivers/STM32F4xx_HAL_Driver/Src/stm32f4xx_hal_hcd.c ****   uint32_t tmpreg;
 1411              		.loc 1 1572 3 view .LVU450
1573:Drivers/STM32F4xx_HAL_Driver/Src/stm32f4xx_hal_hcd.c ****   uint32_t ch_num;
 1412              		.loc 1 1573 3 view .LVU451
1574:Drivers/STM32F4xx_HAL_Driver/Src/stm32f4xx_hal_hcd.c **** 
 1413              		.loc 1 1574 3 view .LVU452
1576:Drivers/STM32F4xx_HAL_Driver/Src/stm32f4xx_hal_hcd.c ****   ch_num = GrxstspReg & USB_OTG_GRXSTSP_EPNUM;
 1414              		.loc 1 1576 3 view .LVU453
1576:Drivers/STM32F4xx_HAL_Driver/Src/stm32f4xx_hal_hcd.c ****   ch_num = GrxstspReg & USB_OTG_GRXSTSP_EPNUM;
 1415              		.loc 1 1576 14 is_stmt 0 view .LVU454
 1416 0296 376A     		ldr	r7, [r6, #32]
 1417              	.LVL90:
1577:Drivers/STM32F4xx_HAL_Driver/Src/stm32f4xx_hal_hcd.c ****   pktsts = (GrxstspReg & USB_OTG_GRXSTSP_PKTSTS) >> 17;
 1418              		.loc 1 1577 3 is_stmt 1 view .LVU455
1578:Drivers/STM32F4xx_HAL_Driver/Src/stm32f4xx_hal_hcd.c ****   pktcnt = (GrxstspReg & USB_OTG_GRXSTSP_BCNT) >> 4;
 1419              		.loc 1 1578 3 view .LVU456
1579:Drivers/STM32F4xx_HAL_Driver/Src/stm32f4xx_hal_hcd.c **** 
 1420              		.loc 1 1579 3 view .LVU457
1581:Drivers/STM32F4xx_HAL_Driver/Src/stm32f4xx_hal_hcd.c ****   {
 1421              		.loc 1 1581 3 view .LVU458
 1422 0298 07F4F012 		and	r2, r7, #1966080
 1423 029c B2F5802F 		cmp	r2, #262144
ARM GAS  /var/folders/lp/x54gwt890xv47sdkqj1k04q40000gn/T//cctevgvi.s 			page 60


 1424 02a0 00F0D880 		beq	.L233
 1425              	.LVL91:
 1426              	.L93:
1581:Drivers/STM32F4xx_HAL_Driver/Src/stm32f4xx_hal_hcd.c ****   {
 1427              		.loc 1 1581 3 is_stmt 0 view .LVU459
 1428              	.LBE50:
 1429              	.LBE49:
 581:Drivers/STM32F4xx_HAL_Driver/Src/stm32f4xx_hal_hcd.c ****     }
 1430              		.loc 1 581 7 is_stmt 1 view .LVU460
 1431 02a4 B369     		ldr	r3, [r6, #24]
 1432 02a6 43F01003 		orr	r3, r3, #16
 1433 02aa B361     		str	r3, [r6, #24]
 1434 02ac F6E6     		b	.L91
 1435              	.LVL92:
 1436              	.L134:
 1437              	.LBB54:
 1438              	.LBB31:
1402:Drivers/STM32F4xx_HAL_Driver/Src/stm32f4xx_hal_hcd.c ****   {
 1439              		.loc 1 1402 8 view .LVU461
1402:Drivers/STM32F4xx_HAL_Driver/Src/stm32f4xx_hal_hcd.c ****   {
 1440              		.loc 1 1402 28 is_stmt 0 view .LVU462
 1441 02ae BB68     		ldr	r3, [r7, #8]
1402:Drivers/STM32F4xx_HAL_Driver/Src/stm32f4xx_hal_hcd.c ****   {
 1442              		.loc 1 1402 11 view .LVU463
 1443 02b0 13F40073 		ands	r3, r3, #512
 1444 02b4 40F03781 		bne	.L234
1407:Drivers/STM32F4xx_HAL_Driver/Src/stm32f4xx_hal_hcd.c ****   {
 1445              		.loc 1 1407 8 is_stmt 1 view .LVU464
1407:Drivers/STM32F4xx_HAL_Driver/Src/stm32f4xx_hal_hcd.c ****   {
 1446              		.loc 1 1407 28 is_stmt 0 view .LVU465
 1447 02b8 B968     		ldr	r1, [r7, #8]
1407:Drivers/STM32F4xx_HAL_Driver/Src/stm32f4xx_hal_hcd.c ****   {
 1448              		.loc 1 1407 11 view .LVU466
 1449 02ba 11F00101 		ands	r1, r1, #1
 1450 02be 00F00F81 		beq	.L137
1409:Drivers/STM32F4xx_HAL_Driver/Src/stm32f4xx_hal_hcd.c **** 
 1451              		.loc 1 1409 5 is_stmt 1 view .LVU467
1409:Drivers/STM32F4xx_HAL_Driver/Src/stm32f4xx_hal_hcd.c **** 
 1452              		.loc 1 1409 29 is_stmt 0 view .LVU468
 1453 02c2 2C22     		movs	r2, #44
 1454 02c4 02FB0842 		mla	r2, r2, r8, r4
 1455 02c8 D365     		str	r3, [r2, #92]
1412:Drivers/STM32F4xx_HAL_Driver/Src/stm32f4xx_hal_hcd.c ****     {
 1456              		.loc 1 1412 5 is_stmt 1 view .LVU469
1412:Drivers/STM32F4xx_HAL_Driver/Src/stm32f4xx_hal_hcd.c ****     {
 1457              		.loc 1 1412 25 is_stmt 0 view .LVU470
 1458 02ca BB68     		ldr	r3, [r7, #8]
1412:Drivers/STM32F4xx_HAL_Driver/Src/stm32f4xx_hal_hcd.c ****     {
 1459              		.loc 1 1412 8 view .LVU471
 1460 02cc 5906     		lsls	r1, r3, #25
 1461 02ce 04D5     		bpl	.L138
1414:Drivers/STM32F4xx_HAL_Driver/Src/stm32f4xx_hal_hcd.c ****       __HAL_HCD_CLEAR_HC_INT(ch_num, USB_OTG_HCINT_NYET);
 1462              		.loc 1 1414 7 is_stmt 1 view .LVU472
1414:Drivers/STM32F4xx_HAL_Driver/Src/stm32f4xx_hal_hcd.c ****       __HAL_HCD_CLEAR_HC_INT(ch_num, USB_OTG_HCINT_NYET);
 1463              		.loc 1 1414 32 is_stmt 0 view .LVU473
 1464 02d0 0123     		movs	r3, #1
 1465 02d2 82F83D30 		strb	r3, [r2, #61]
ARM GAS  /var/folders/lp/x54gwt890xv47sdkqj1k04q40000gn/T//cctevgvi.s 			page 61


1415:Drivers/STM32F4xx_HAL_Driver/Src/stm32f4xx_hal_hcd.c ****     }
 1466              		.loc 1 1415 7 is_stmt 1 view .LVU474
 1467 02d6 4023     		movs	r3, #64
 1468 02d8 BB60     		str	r3, [r7, #8]
 1469              	.L138:
1417:Drivers/STM32F4xx_HAL_Driver/Src/stm32f4xx_hal_hcd.c ****     hhcd->hc[ch_num].state = HC_XFRC;
 1470              		.loc 1 1417 5 view .LVU475
1418:Drivers/STM32F4xx_HAL_Driver/Src/stm32f4xx_hal_hcd.c ****     (void)USB_HC_Halt(hhcd->Instance, (uint8_t)ch_num);
 1471              		.loc 1 1418 28 is_stmt 0 view .LVU476
 1472 02da 2C23     		movs	r3, #44
 1473 02dc 03FB0843 		mla	r3, r3, r8, r4
1417:Drivers/STM32F4xx_HAL_Driver/Src/stm32f4xx_hal_hcd.c ****     hhcd->hc[ch_num].state = HC_XFRC;
 1474              		.loc 1 1417 5 view .LVU477
 1475 02e0 0122     		movs	r2, #1
 1476 02e2 BA60     		str	r2, [r7, #8]
1418:Drivers/STM32F4xx_HAL_Driver/Src/stm32f4xx_hal_hcd.c ****     (void)USB_HC_Halt(hhcd->Instance, (uint8_t)ch_num);
 1477              		.loc 1 1418 5 is_stmt 1 view .LVU478
1419:Drivers/STM32F4xx_HAL_Driver/Src/stm32f4xx_hal_hcd.c ****   }
 1478              		.loc 1 1419 11 is_stmt 0 view .LVU479
 1479 02e4 4146     		mov	r1, r8
1418:Drivers/STM32F4xx_HAL_Driver/Src/stm32f4xx_hal_hcd.c ****     (void)USB_HC_Halt(hhcd->Instance, (uint8_t)ch_num);
 1480              		.loc 1 1418 28 view .LVU480
 1481 02e6 83F86120 		strb	r2, [r3, #97]
1419:Drivers/STM32F4xx_HAL_Driver/Src/stm32f4xx_hal_hcd.c ****   }
 1482              		.loc 1 1419 5 is_stmt 1 view .LVU481
1419:Drivers/STM32F4xx_HAL_Driver/Src/stm32f4xx_hal_hcd.c ****   }
 1483              		.loc 1 1419 11 is_stmt 0 view .LVU482
 1484 02ea FFF7FEFF 		bl	USB_HC_Halt
 1485              	.LVL93:
 1486              	.LBE31:
 1487              	.LBE54:
 602:Drivers/STM32F4xx_HAL_Driver/Src/stm32f4xx_hal_hcd.c ****     }
 1488              		.loc 1 602 7 view .LVU483
 1489 02ee 2068     		ldr	r0, [r4]
 1490 02f0 A268     		ldr	r2, [r4, #8]
 1491              	.LBB55:
 1492              	.LBB32:
 1493 02f2 5EE7     		b	.L100
 1494              	.LVL94:
 1495              	.L109:
 602:Drivers/STM32F4xx_HAL_Driver/Src/stm32f4xx_hal_hcd.c ****     }
 1496              		.loc 1 602 7 view .LVU484
 1497              	.LBE32:
 1498              	.LBE55:
 1499              	.LBB56:
 1500              	.LBB16:
1283:Drivers/STM32F4xx_HAL_Driver/Src/stm32f4xx_hal_hcd.c ****   {
 1501              		.loc 1 1283 8 is_stmt 1 view .LVU485
1283:Drivers/STM32F4xx_HAL_Driver/Src/stm32f4xx_hal_hcd.c ****   {
 1502              		.loc 1 1283 28 is_stmt 0 view .LVU486
 1503 02f4 BB68     		ldr	r3, [r7, #8]
1283:Drivers/STM32F4xx_HAL_Driver/Src/stm32f4xx_hal_hcd.c ****   {
 1504              		.loc 1 1283 11 view .LVU487
 1505 02f6 13F00203 		ands	r3, r3, #2
 1506 02fa 00F0C780 		beq	.L117
1285:Drivers/STM32F4xx_HAL_Driver/Src/stm32f4xx_hal_hcd.c ****     {
 1507              		.loc 1 1285 5 is_stmt 1 view .LVU488
ARM GAS  /var/folders/lp/x54gwt890xv47sdkqj1k04q40000gn/T//cctevgvi.s 			page 62


1285:Drivers/STM32F4xx_HAL_Driver/Src/stm32f4xx_hal_hcd.c ****     {
 1508              		.loc 1 1285 25 is_stmt 0 view .LVU489
 1509 02fe 2C23     		movs	r3, #44
 1510 0300 03FB0843 		mla	r3, r3, r8, r4
 1511 0304 93F86120 		ldrb	r2, [r3, #97]	@ zero_extendqisi2
 1512 0308 531E     		subs	r3, r2, #1
 1513 030a 072B     		cmp	r3, #7
 1514 030c 3CD8     		bhi	.L118
 1515 030e DFE803F0 		tbb	[pc, r3]
 1516              	.L120:
 1517 0312 34       		.byte	(.L124-.L120)/2
 1518 0313 3B       		.byte	(.L118-.L120)/2
 1519 0314 24       		.byte	(.L123-.L120)/2
 1520 0315 3B       		.byte	(.L118-.L120)/2
 1521 0316 1D       		.byte	(.L122-.L120)/2
 1522 0317 04       		.byte	(.L119-.L120)/2
 1523 0318 41       		.byte	(.L121-.L120)/2
 1524 0319 04       		.byte	(.L119-.L120)/2
 1525              		.p2align 1
 1526              	.L119:
1296:Drivers/STM32F4xx_HAL_Driver/Src/stm32f4xx_hal_hcd.c ****       if (hhcd->hc[ch_num].ErrCnt > 2U)
 1527              		.loc 1 1296 7 is_stmt 1 view .LVU490
1296:Drivers/STM32F4xx_HAL_Driver/Src/stm32f4xx_hal_hcd.c ****       if (hhcd->hc[ch_num].ErrCnt > 2U)
 1528              		.loc 1 1296 23 is_stmt 0 view .LVU491
 1529 031a 2C22     		movs	r2, #44
 1530 031c 02FB0842 		mla	r2, r2, r8, r4
1296:Drivers/STM32F4xx_HAL_Driver/Src/stm32f4xx_hal_hcd.c ****       if (hhcd->hc[ch_num].ErrCnt > 2U)
 1531              		.loc 1 1296 30 view .LVU492
 1532 0320 D36D     		ldr	r3, [r2, #92]
 1533 0322 0133     		adds	r3, r3, #1
1297:Drivers/STM32F4xx_HAL_Driver/Src/stm32f4xx_hal_hcd.c ****       {
 1534              		.loc 1 1297 10 view .LVU493
 1535 0324 022B     		cmp	r3, #2
1296:Drivers/STM32F4xx_HAL_Driver/Src/stm32f4xx_hal_hcd.c ****       if (hhcd->hc[ch_num].ErrCnt > 2U)
 1536              		.loc 1 1296 30 view .LVU494
 1537 0326 D365     		str	r3, [r2, #92]
1297:Drivers/STM32F4xx_HAL_Driver/Src/stm32f4xx_hal_hcd.c ****       {
 1538              		.loc 1 1297 7 is_stmt 1 view .LVU495
1297:Drivers/STM32F4xx_HAL_Driver/Src/stm32f4xx_hal_hcd.c ****       {
 1539              		.loc 1 1297 10 is_stmt 0 view .LVU496
 1540 0328 40F29581 		bls	.L126
 1541              	.L128:
1299:Drivers/STM32F4xx_HAL_Driver/Src/stm32f4xx_hal_hcd.c ****         hhcd->hc[ch_num].urb_state = URB_ERROR;
 1542              		.loc 1 1299 33 view .LVU497
 1543 032c 2C23     		movs	r3, #44
 1544 032e 03FB0843 		mla	r3, r3, r8, r4
1300:Drivers/STM32F4xx_HAL_Driver/Src/stm32f4xx_hal_hcd.c ****       }
 1545              		.loc 1 1300 36 view .LVU498
 1546 0332 0422     		movs	r2, #4
1299:Drivers/STM32F4xx_HAL_Driver/Src/stm32f4xx_hal_hcd.c ****         hhcd->hc[ch_num].urb_state = URB_ERROR;
 1547              		.loc 1 1299 33 view .LVU499
 1548 0334 D965     		str	r1, [r3, #92]
1300:Drivers/STM32F4xx_HAL_Driver/Src/stm32f4xx_hal_hcd.c ****       }
 1549              		.loc 1 1300 36 view .LVU500
 1550 0336 83F86020 		strb	r2, [r3, #96]
 1551              	.L125:
1331:Drivers/STM32F4xx_HAL_Driver/Src/stm32f4xx_hal_hcd.c ****     __HAL_HCD_CLEAR_HC_INT(ch_num, USB_OTG_HCINT_CHH);
ARM GAS  /var/folders/lp/x54gwt890xv47sdkqj1k04q40000gn/T//cctevgvi.s 			page 63


 1552              		.loc 1 1331 5 is_stmt 1 view .LVU501
1332:Drivers/STM32F4xx_HAL_Driver/Src/stm32f4xx_hal_hcd.c **** 
 1553              		.loc 1 1332 5 view .LVU502
 1554 033a 0223     		movs	r3, #2
1337:Drivers/STM32F4xx_HAL_Driver/Src/stm32f4xx_hal_hcd.c **** #endif /* USE_HAL_HCD_REGISTER_CALLBACKS */
 1555              		.loc 1 1337 5 is_stmt 0 view .LVU503
 1556 033c 2046     		mov	r0, r4
 1557 033e 4146     		mov	r1, r8
1332:Drivers/STM32F4xx_HAL_Driver/Src/stm32f4xx_hal_hcd.c **** 
 1558              		.loc 1 1332 5 view .LVU504
 1559 0340 BB60     		str	r3, [r7, #8]
1337:Drivers/STM32F4xx_HAL_Driver/Src/stm32f4xx_hal_hcd.c **** #endif /* USE_HAL_HCD_REGISTER_CALLBACKS */
 1560              		.loc 1 1337 5 is_stmt 1 view .LVU505
 1561 0342 FFF7FEFF 		bl	HAL_HCD_HC_NotifyURBChange_Callback
 1562              	.LVL95:
 1563              	.LBE16:
 1564              	.LBE56:
 602:Drivers/STM32F4xx_HAL_Driver/Src/stm32f4xx_hal_hcd.c ****     }
 1565              		.loc 1 602 7 is_stmt 0 view .LVU506
 1566 0346 2068     		ldr	r0, [r4]
 1567 0348 A268     		ldr	r2, [r4, #8]
 1568              	.LBB57:
 1569              	.LBB17:
 1570 034a 32E7     		b	.L100
 1571              	.L122:
1291:Drivers/STM32F4xx_HAL_Driver/Src/stm32f4xx_hal_hcd.c ****     }
 1572              		.loc 1 1291 7 is_stmt 1 view .LVU507
1291:Drivers/STM32F4xx_HAL_Driver/Src/stm32f4xx_hal_hcd.c ****     }
 1573              		.loc 1 1291 34 is_stmt 0 view .LVU508
 1574 034c 2C23     		movs	r3, #44
 1575 034e 03FB0843 		mla	r3, r3, r8, r4
 1576 0352 0521     		movs	r1, #5
 1577 0354 83F86010 		strb	r1, [r3, #96]
 1578 0358 EFE7     		b	.L125
 1579              	.L123:
1315:Drivers/STM32F4xx_HAL_Driver/Src/stm32f4xx_hal_hcd.c **** 
 1580              		.loc 1 1315 7 is_stmt 1 view .LVU509
1315:Drivers/STM32F4xx_HAL_Driver/Src/stm32f4xx_hal_hcd.c **** 
 1581              		.loc 1 1315 35 is_stmt 0 view .LVU510
 1582 035a 2C23     		movs	r3, #44
 1583 035c 03FB0843 		mla	r3, r3, r8, r4
 1584 0360 0222     		movs	r2, #2
 1585 0362 83F86020 		strb	r2, [r3, #96]
1318:Drivers/STM32F4xx_HAL_Driver/Src/stm32f4xx_hal_hcd.c ****       tmpreg &= ~USB_OTG_HCCHAR_CHDIS;
 1586              		.loc 1 1318 7 is_stmt 1 view .LVU511
1318:Drivers/STM32F4xx_HAL_Driver/Src/stm32f4xx_hal_hcd.c ****       tmpreg &= ~USB_OTG_HCCHAR_CHDIS;
 1587              		.loc 1 1318 14 is_stmt 0 view .LVU512
 1588 0366 5AF80B30 		ldr	r3, [r10, fp]
 1589              	.LVL96:
1319:Drivers/STM32F4xx_HAL_Driver/Src/stm32f4xx_hal_hcd.c ****       tmpreg |= USB_OTG_HCCHAR_CHENA;
 1590              		.loc 1 1319 7 is_stmt 1 view .LVU513
1319:Drivers/STM32F4xx_HAL_Driver/Src/stm32f4xx_hal_hcd.c ****       tmpreg |= USB_OTG_HCCHAR_CHENA;
 1591              		.loc 1 1319 14 is_stmt 0 view .LVU514
 1592 036a 23F08043 		bic	r3, r3, #1073741824
 1593              	.LVL97:
1320:Drivers/STM32F4xx_HAL_Driver/Src/stm32f4xx_hal_hcd.c ****       USBx_HC(ch_num)->HCCHAR = tmpreg;
 1594              		.loc 1 1320 7 is_stmt 1 view .LVU515
ARM GAS  /var/folders/lp/x54gwt890xv47sdkqj1k04q40000gn/T//cctevgvi.s 			page 64


1320:Drivers/STM32F4xx_HAL_Driver/Src/stm32f4xx_hal_hcd.c ****       USBx_HC(ch_num)->HCCHAR = tmpreg;
 1595              		.loc 1 1320 14 is_stmt 0 view .LVU516
 1596 036e 43F00043 		orr	r3, r3, #-2147483648
 1597              	.LVL98:
1321:Drivers/STM32F4xx_HAL_Driver/Src/stm32f4xx_hal_hcd.c ****     }
 1598              		.loc 1 1321 7 is_stmt 1 view .LVU517
1321:Drivers/STM32F4xx_HAL_Driver/Src/stm32f4xx_hal_hcd.c ****     }
 1599              		.loc 1 1321 31 is_stmt 0 view .LVU518
 1600 0372 4AF80B30 		str	r3, [r10, fp]
 1601              	.L127:
1300:Drivers/STM32F4xx_HAL_Driver/Src/stm32f4xx_hal_hcd.c ****       }
 1602              		.loc 1 1300 36 view .LVU519
 1603 0376 0222     		movs	r2, #2
 1604 0378 DFE7     		b	.L125
 1605              	.LVL99:
 1606              	.L124:
1287:Drivers/STM32F4xx_HAL_Driver/Src/stm32f4xx_hal_hcd.c ****     }
 1607              		.loc 1 1287 7 is_stmt 1 view .LVU520
1287:Drivers/STM32F4xx_HAL_Driver/Src/stm32f4xx_hal_hcd.c ****     }
 1608              		.loc 1 1287 34 is_stmt 0 view .LVU521
 1609 037a 2C23     		movs	r3, #44
 1610 037c 03FB0843 		mla	r3, r3, r8, r4
 1611 0380 0121     		movs	r1, #1
 1612 0382 83F86010 		strb	r1, [r3, #96]
 1613 0386 D8E7     		b	.L125
 1614              	.L118:
1337:Drivers/STM32F4xx_HAL_Driver/Src/stm32f4xx_hal_hcd.c **** #endif /* USE_HAL_HCD_REGISTER_CALLBACKS */
 1615              		.loc 1 1337 5 view .LVU522
 1616 0388 2C23     		movs	r3, #44
 1617 038a 03FB0843 		mla	r3, r3, r8, r4
 1618 038e 93F86020 		ldrb	r2, [r3, #96]	@ zero_extendqisi2
 1619 0392 D2E7     		b	.L125
 1620              	.L121:
1325:Drivers/STM32F4xx_HAL_Driver/Src/stm32f4xx_hal_hcd.c ****       hhcd->hc[ch_num].urb_state = URB_ERROR;
 1621              		.loc 1 1325 7 is_stmt 1 view .LVU523
1325:Drivers/STM32F4xx_HAL_Driver/Src/stm32f4xx_hal_hcd.c ****       hhcd->hc[ch_num].urb_state = URB_ERROR;
 1622              		.loc 1 1325 23 is_stmt 0 view .LVU524
 1623 0394 2C23     		movs	r3, #44
 1624 0396 03FB0843 		mla	r3, r3, r8, r4
1325:Drivers/STM32F4xx_HAL_Driver/Src/stm32f4xx_hal_hcd.c ****       hhcd->hc[ch_num].urb_state = URB_ERROR;
 1625              		.loc 1 1325 30 view .LVU525
 1626 039a D96D     		ldr	r1, [r3, #92]
 1627 039c 0131     		adds	r1, r1, #1
1326:Drivers/STM32F4xx_HAL_Driver/Src/stm32f4xx_hal_hcd.c ****     }
 1628              		.loc 1 1326 7 is_stmt 1 view .LVU526
 1629 039e C5E7     		b	.L128
 1630              	.LVL100:
 1631              	.L230:
1326:Drivers/STM32F4xx_HAL_Driver/Src/stm32f4xx_hal_hcd.c ****     }
 1632              		.loc 1 1326 7 is_stmt 0 view .LVU527
 1633              	.LBE17:
 1634              	.LBE57:
 1635              	.LBB58:
 1636              	.LBB33:
1387:Drivers/STM32F4xx_HAL_Driver/Src/stm32f4xx_hal_hcd.c ****     hhcd->hc[ch_num].state = HC_XACTERR;
 1637              		.loc 1 1387 5 is_stmt 1 view .LVU528
1388:Drivers/STM32F4xx_HAL_Driver/Src/stm32f4xx_hal_hcd.c ****     (void)USB_HC_Halt(hhcd->Instance, (uint8_t)ch_num);
ARM GAS  /var/folders/lp/x54gwt890xv47sdkqj1k04q40000gn/T//cctevgvi.s 			page 65


 1638              		.loc 1 1388 28 is_stmt 0 view .LVU529
 1639 03a0 2C23     		movs	r3, #44
 1640 03a2 03FB0843 		mla	r3, r3, r8, r4
1387:Drivers/STM32F4xx_HAL_Driver/Src/stm32f4xx_hal_hcd.c ****     hhcd->hc[ch_num].state = HC_XACTERR;
 1641              		.loc 1 1387 5 view .LVU530
 1642 03a6 0422     		movs	r2, #4
 1643 03a8 BA60     		str	r2, [r7, #8]
1388:Drivers/STM32F4xx_HAL_Driver/Src/stm32f4xx_hal_hcd.c ****     (void)USB_HC_Halt(hhcd->Instance, (uint8_t)ch_num);
 1644              		.loc 1 1388 5 is_stmt 1 view .LVU531
1388:Drivers/STM32F4xx_HAL_Driver/Src/stm32f4xx_hal_hcd.c ****     (void)USB_HC_Halt(hhcd->Instance, (uint8_t)ch_num);
 1645              		.loc 1 1388 28 is_stmt 0 view .LVU532
 1646 03aa 0622     		movs	r2, #6
 1647 03ac 83F86120 		strb	r2, [r3, #97]
1389:Drivers/STM32F4xx_HAL_Driver/Src/stm32f4xx_hal_hcd.c ****   }
 1648              		.loc 1 1389 5 is_stmt 1 view .LVU533
1389:Drivers/STM32F4xx_HAL_Driver/Src/stm32f4xx_hal_hcd.c ****   }
 1649              		.loc 1 1389 11 is_stmt 0 view .LVU534
 1650 03b0 4146     		mov	r1, r8
 1651 03b2 FFF7FEFF 		bl	USB_HC_Halt
 1652              	.LVL101:
 1653              	.LBE33:
 1654              	.LBE58:
 602:Drivers/STM32F4xx_HAL_Driver/Src/stm32f4xx_hal_hcd.c ****     }
 1655              		.loc 1 602 7 view .LVU535
 1656 03b6 2068     		ldr	r0, [r4]
 1657 03b8 A268     		ldr	r2, [r4, #8]
 1658              	.LBB59:
 1659              	.LBB34:
 1660 03ba FAE6     		b	.L100
 1661              	.LVL102:
 1662              	.L228:
 602:Drivers/STM32F4xx_HAL_Driver/Src/stm32f4xx_hal_hcd.c ****     }
 1663              		.loc 1 602 7 view .LVU536
 1664              	.LBE34:
 1665              	.LBE59:
 1666              	.LBB60:
 1667              	.LBB18:
1233:Drivers/STM32F4xx_HAL_Driver/Src/stm32f4xx_hal_hcd.c ****     __HAL_HCD_CLEAR_HC_INT(ch_num, USB_OTG_HCINT_FRMOR);
 1668              		.loc 1 1233 5 is_stmt 1 view .LVU537
1233:Drivers/STM32F4xx_HAL_Driver/Src/stm32f4xx_hal_hcd.c ****     __HAL_HCD_CLEAR_HC_INT(ch_num, USB_OTG_HCINT_FRMOR);
 1669              		.loc 1 1233 11 is_stmt 0 view .LVU538
 1670 03bc 2068     		ldr	r0, [r4]
 1671 03be 4146     		mov	r1, r8
 1672 03c0 FFF7FEFF 		bl	USB_HC_Halt
 1673              	.LVL103:
1234:Drivers/STM32F4xx_HAL_Driver/Src/stm32f4xx_hal_hcd.c ****   }
 1674              		.loc 1 1234 5 is_stmt 1 view .LVU539
 1675 03c4 4FF40073 		mov	r3, #512
 1676 03c8 BB60     		str	r3, [r7, #8]
 1677              	.LBE18:
 1678              	.LBE60:
 602:Drivers/STM32F4xx_HAL_Driver/Src/stm32f4xx_hal_hcd.c ****     }
 1679              		.loc 1 602 7 is_stmt 0 view .LVU540
 1680 03ca 2068     		ldr	r0, [r4]
 1681 03cc A268     		ldr	r2, [r4, #8]
 1682              	.LBB61:
 1683              	.LBB19:
ARM GAS  /var/folders/lp/x54gwt890xv47sdkqj1k04q40000gn/T//cctevgvi.s 			page 66


 1684 03ce F0E6     		b	.L100
 1685              	.L226:
1194:Drivers/STM32F4xx_HAL_Driver/Src/stm32f4xx_hal_hcd.c ****     hhcd->hc[ch_num].state = HC_XACTERR;
 1686              		.loc 1 1194 5 is_stmt 1 view .LVU541
1195:Drivers/STM32F4xx_HAL_Driver/Src/stm32f4xx_hal_hcd.c ****     (void)USB_HC_Halt(hhcd->Instance, (uint8_t)ch_num);
 1687              		.loc 1 1195 28 is_stmt 0 view .LVU542
 1688 03d0 2C23     		movs	r3, #44
 1689 03d2 03FB0843 		mla	r3, r3, r8, r4
1194:Drivers/STM32F4xx_HAL_Driver/Src/stm32f4xx_hal_hcd.c ****     hhcd->hc[ch_num].state = HC_XACTERR;
 1690              		.loc 1 1194 5 view .LVU543
 1691 03d6 0422     		movs	r2, #4
 1692              	.L219:
1222:Drivers/STM32F4xx_HAL_Driver/Src/stm32f4xx_hal_hcd.c ****     hhcd->hc[ch_num].state = HC_XACTERR;
 1693              		.loc 1 1222 5 view .LVU544
 1694 03d8 BA60     		str	r2, [r7, #8]
1223:Drivers/STM32F4xx_HAL_Driver/Src/stm32f4xx_hal_hcd.c ****     (void)USB_HC_Halt(hhcd->Instance, (uint8_t)ch_num);
 1695              		.loc 1 1223 5 is_stmt 1 view .LVU545
1223:Drivers/STM32F4xx_HAL_Driver/Src/stm32f4xx_hal_hcd.c ****     (void)USB_HC_Halt(hhcd->Instance, (uint8_t)ch_num);
 1696              		.loc 1 1223 28 is_stmt 0 view .LVU546
 1697 03da 0622     		movs	r2, #6
 1698 03dc 83F86120 		strb	r2, [r3, #97]
1224:Drivers/STM32F4xx_HAL_Driver/Src/stm32f4xx_hal_hcd.c ****   }
 1699              		.loc 1 1224 5 is_stmt 1 view .LVU547
1224:Drivers/STM32F4xx_HAL_Driver/Src/stm32f4xx_hal_hcd.c ****   }
 1700              		.loc 1 1224 11 is_stmt 0 view .LVU548
 1701 03e0 4146     		mov	r1, r8
 1702 03e2 FFF7FEFF 		bl	USB_HC_Halt
 1703              	.LVL104:
 1704 03e6 8AE6     		b	.L103
 1705              	.L105:
1208:Drivers/STM32F4xx_HAL_Driver/Src/stm32f4xx_hal_hcd.c ****   {
 1706              		.loc 1 1208 8 is_stmt 1 view .LVU549
1208:Drivers/STM32F4xx_HAL_Driver/Src/stm32f4xx_hal_hcd.c ****   {
 1707              		.loc 1 1208 28 is_stmt 0 view .LVU550
 1708 03e8 BB68     		ldr	r3, [r7, #8]
1208:Drivers/STM32F4xx_HAL_Driver/Src/stm32f4xx_hal_hcd.c ****   {
 1709              		.loc 1 1208 11 view .LVU551
 1710 03ea 1907     		lsls	r1, r3, #28
 1711 03ec 00F1AC80 		bmi	.L235
1214:Drivers/STM32F4xx_HAL_Driver/Src/stm32f4xx_hal_hcd.c ****   {
 1712              		.loc 1 1214 8 is_stmt 1 view .LVU552
1214:Drivers/STM32F4xx_HAL_Driver/Src/stm32f4xx_hal_hcd.c ****   {
 1713              		.loc 1 1214 28 is_stmt 0 view .LVU553
 1714 03f0 BB68     		ldr	r3, [r7, #8]
1214:Drivers/STM32F4xx_HAL_Driver/Src/stm32f4xx_hal_hcd.c ****   {
 1715              		.loc 1 1214 11 view .LVU554
 1716 03f2 5A05     		lsls	r2, r3, #21
 1717 03f4 00F1BF80 		bmi	.L236
1220:Drivers/STM32F4xx_HAL_Driver/Src/stm32f4xx_hal_hcd.c ****   {
 1718              		.loc 1 1220 8 is_stmt 1 view .LVU555
1220:Drivers/STM32F4xx_HAL_Driver/Src/stm32f4xx_hal_hcd.c ****   {
 1719              		.loc 1 1220 28 is_stmt 0 view .LVU556
 1720 03f8 BB68     		ldr	r3, [r7, #8]
1220:Drivers/STM32F4xx_HAL_Driver/Src/stm32f4xx_hal_hcd.c ****   {
 1721              		.loc 1 1220 11 view .LVU557
 1722 03fa 1B06     		lsls	r3, r3, #24
 1723 03fc 7FF57FAE 		bpl	.L103
ARM GAS  /var/folders/lp/x54gwt890xv47sdkqj1k04q40000gn/T//cctevgvi.s 			page 67


1222:Drivers/STM32F4xx_HAL_Driver/Src/stm32f4xx_hal_hcd.c ****     hhcd->hc[ch_num].state = HC_XACTERR;
 1724              		.loc 1 1222 5 is_stmt 1 view .LVU558
1223:Drivers/STM32F4xx_HAL_Driver/Src/stm32f4xx_hal_hcd.c ****     (void)USB_HC_Halt(hhcd->Instance, (uint8_t)ch_num);
 1725              		.loc 1 1223 28 is_stmt 0 view .LVU559
 1726 0400 2C23     		movs	r3, #44
 1727 0402 03FB0843 		mla	r3, r3, r8, r4
1222:Drivers/STM32F4xx_HAL_Driver/Src/stm32f4xx_hal_hcd.c ****     hhcd->hc[ch_num].state = HC_XACTERR;
 1728              		.loc 1 1222 5 view .LVU560
 1729 0406 8022     		movs	r2, #128
 1730 0408 E6E7     		b	.L219
 1731              	.L227:
1200:Drivers/STM32F4xx_HAL_Driver/Src/stm32f4xx_hal_hcd.c ****     hhcd->hc[ch_num].state = HC_BBLERR;
 1732              		.loc 1 1200 5 is_stmt 1 view .LVU561
1201:Drivers/STM32F4xx_HAL_Driver/Src/stm32f4xx_hal_hcd.c ****     (void)USB_HC_Halt(hhcd->Instance, (uint8_t)ch_num);
 1733              		.loc 1 1201 28 is_stmt 0 view .LVU562
 1734 040a 2C23     		movs	r3, #44
 1735 040c 03FB0843 		mla	r3, r3, r8, r4
1200:Drivers/STM32F4xx_HAL_Driver/Src/stm32f4xx_hal_hcd.c ****     hhcd->hc[ch_num].state = HC_BBLERR;
 1736              		.loc 1 1200 5 view .LVU563
 1737 0410 4FF48072 		mov	r2, #256
 1738 0414 BA60     		str	r2, [r7, #8]
1201:Drivers/STM32F4xx_HAL_Driver/Src/stm32f4xx_hal_hcd.c ****     (void)USB_HC_Halt(hhcd->Instance, (uint8_t)ch_num);
 1739              		.loc 1 1201 5 is_stmt 1 view .LVU564
1201:Drivers/STM32F4xx_HAL_Driver/Src/stm32f4xx_hal_hcd.c ****     (void)USB_HC_Halt(hhcd->Instance, (uint8_t)ch_num);
 1740              		.loc 1 1201 28 is_stmt 0 view .LVU565
 1741 0416 0722     		movs	r2, #7
 1742 0418 83F86120 		strb	r2, [r3, #97]
1202:Drivers/STM32F4xx_HAL_Driver/Src/stm32f4xx_hal_hcd.c ****   }
 1743              		.loc 1 1202 5 is_stmt 1 view .LVU566
1202:Drivers/STM32F4xx_HAL_Driver/Src/stm32f4xx_hal_hcd.c ****   }
 1744              		.loc 1 1202 11 is_stmt 0 view .LVU567
 1745 041c 4146     		mov	r1, r8
 1746 041e FFF7FEFF 		bl	USB_HC_Halt
 1747              	.LVL105:
 1748 0422 6CE6     		b	.L103
 1749              	.L110:
1244:Drivers/STM32F4xx_HAL_Driver/Src/stm32f4xx_hal_hcd.c ****     hhcd->hc[ch_num].ErrCnt = 0U;
 1750              		.loc 1 1244 5 is_stmt 1 view .LVU568
1244:Drivers/STM32F4xx_HAL_Driver/Src/stm32f4xx_hal_hcd.c ****     hhcd->hc[ch_num].ErrCnt = 0U;
 1751              		.loc 1 1244 28 is_stmt 0 view .LVU569
 1752 0424 2C23     		movs	r3, #44
 1753 0426 03FB0843 		mla	r3, r3, r8, r4
 1754 042a 0122     		movs	r2, #1
1245:Drivers/STM32F4xx_HAL_Driver/Src/stm32f4xx_hal_hcd.c ****     __HAL_HCD_CLEAR_HC_INT(ch_num, USB_OTG_HCINT_XFRC);
 1755              		.loc 1 1245 29 view .LVU570
 1756 042c D965     		str	r1, [r3, #92]
1244:Drivers/STM32F4xx_HAL_Driver/Src/stm32f4xx_hal_hcd.c ****     hhcd->hc[ch_num].ErrCnt = 0U;
 1757              		.loc 1 1244 28 view .LVU571
 1758 042e 83F86120 		strb	r2, [r3, #97]
1245:Drivers/STM32F4xx_HAL_Driver/Src/stm32f4xx_hal_hcd.c ****     __HAL_HCD_CLEAR_HC_INT(ch_num, USB_OTG_HCINT_XFRC);
 1759              		.loc 1 1245 5 is_stmt 1 view .LVU572
1246:Drivers/STM32F4xx_HAL_Driver/Src/stm32f4xx_hal_hcd.c **** 
 1760              		.loc 1 1246 5 view .LVU573
 1761 0432 BA60     		str	r2, [r7, #8]
1248:Drivers/STM32F4xx_HAL_Driver/Src/stm32f4xx_hal_hcd.c ****         (hhcd->hc[ch_num].ep_type == EP_TYPE_BULK))
 1762              		.loc 1 1248 5 view .LVU574
 1763 0434 93F83F30 		ldrb	r3, [r3, #63]	@ zero_extendqisi2
ARM GAS  /var/folders/lp/x54gwt890xv47sdkqj1k04q40000gn/T//cctevgvi.s 			page 68


 1764 0438 032B     		cmp	r3, #3
 1765 043a 3FF6AFAE 		bhi	.L115
 1766 043e 01A2     		adr	r2, .L159
 1767 0440 52F823F0 		ldr	pc, [r2, r3, lsl #2]
 1768              		.p2align 2
 1769              	.L159:
 1770 0444 C5010000 		.word	.L114+1
 1771 0448 75010000 		.word	.L112+1
 1772 044c C5010000 		.word	.L114+1
 1773 0450 75010000 		.word	.L112+1
 1774              	.LVL106:
 1775              		.p2align 1
 1776              	.L233:
1248:Drivers/STM32F4xx_HAL_Driver/Src/stm32f4xx_hal_hcd.c ****         (hhcd->hc[ch_num].ep_type == EP_TYPE_BULK))
 1777              		.loc 1 1248 5 is_stmt 0 view .LVU575
 1778              	.LBE19:
 1779              	.LBE61:
 1780              	.LBB62:
 1781              	.LBB51:
1579:Drivers/STM32F4xx_HAL_Driver/Src/stm32f4xx_hal_hcd.c **** 
 1782              		.loc 1 1579 10 view .LVU576
 1783 0454 C7F30A12 		ubfx	r2, r7, #4, #11
1585:Drivers/STM32F4xx_HAL_Driver/Src/stm32f4xx_hal_hcd.c ****       {
 1784              		.loc 1 1585 7 is_stmt 1 view .LVU577
1585:Drivers/STM32F4xx_HAL_Driver/Src/stm32f4xx_hal_hcd.c ****       {
 1785              		.loc 1 1585 10 is_stmt 0 view .LVU578
 1786 0458 002A     		cmp	r2, #0
 1787 045a 3FF423AF 		beq	.L93
1577:Drivers/STM32F4xx_HAL_Driver/Src/stm32f4xx_hal_hcd.c ****   pktsts = (GrxstspReg & USB_OTG_GRXSTSP_PKTSTS) >> 17;
 1788              		.loc 1 1577 10 view .LVU579
 1789 045e 07F00F07 		and	r7, r7, #15
 1790              	.LVL107:
1585:Drivers/STM32F4xx_HAL_Driver/Src/stm32f4xx_hal_hcd.c ****       {
 1791              		.loc 1 1585 45 discriminator 1 view .LVU580
 1792 0462 4FF02C08 		mov	r8, #44
 1793 0466 08FB0748 		mla	r8, r8, r7, r4
 1794 046a D8F84410 		ldr	r1, [r8, #68]
1585:Drivers/STM32F4xx_HAL_Driver/Src/stm32f4xx_hal_hcd.c ****       {
 1795              		.loc 1 1585 25 discriminator 1 view .LVU581
 1796 046e 0029     		cmp	r1, #0
 1797 0470 3FF418AF 		beq	.L93
1587:Drivers/STM32F4xx_HAL_Driver/Src/stm32f4xx_hal_hcd.c ****         {
 1798              		.loc 1 1587 9 is_stmt 1 view .LVU582
1587:Drivers/STM32F4xx_HAL_Driver/Src/stm32f4xx_hal_hcd.c ****         {
 1799              		.loc 1 1587 42 is_stmt 0 view .LVU583
 1800 0474 D8F85030 		ldr	r3, [r8, #80]
1587:Drivers/STM32F4xx_HAL_Driver/Src/stm32f4xx_hal_hcd.c ****         {
 1801              		.loc 1 1587 12 view .LVU584
 1802 0478 D8F84C00 		ldr	r0, [r8, #76]
1587:Drivers/STM32F4xx_HAL_Driver/Src/stm32f4xx_hal_hcd.c ****         {
 1803              		.loc 1 1587 42 view .LVU585
 1804 047c 1344     		add	r3, r3, r2
1587:Drivers/STM32F4xx_HAL_Driver/Src/stm32f4xx_hal_hcd.c ****         {
 1805              		.loc 1 1587 12 view .LVU586
 1806 047e 8342     		cmp	r3, r0
 1807 0480 40F2BE80 		bls	.L237
1611:Drivers/STM32F4xx_HAL_Driver/Src/stm32f4xx_hal_hcd.c ****         }
ARM GAS  /var/folders/lp/x54gwt890xv47sdkqj1k04q40000gn/T//cctevgvi.s 			page 69


 1808              		.loc 1 1611 11 is_stmt 1 view .LVU587
1611:Drivers/STM32F4xx_HAL_Driver/Src/stm32f4xx_hal_hcd.c ****         }
 1809              		.loc 1 1611 38 is_stmt 0 view .LVU588
 1810 0484 0423     		movs	r3, #4
 1811 0486 88F86030 		strb	r3, [r8, #96]
 1812 048a 0BE7     		b	.L93
 1813              	.LVL108:
 1814              	.L117:
1611:Drivers/STM32F4xx_HAL_Driver/Src/stm32f4xx_hal_hcd.c ****         }
 1815              		.loc 1 1611 38 view .LVU589
 1816              	.LBE51:
 1817              	.LBE62:
 1818              	.LBB63:
 1819              	.LBB20:
1340:Drivers/STM32F4xx_HAL_Driver/Src/stm32f4xx_hal_hcd.c ****   {
 1820              		.loc 1 1340 8 is_stmt 1 view .LVU590
1340:Drivers/STM32F4xx_HAL_Driver/Src/stm32f4xx_hal_hcd.c ****   {
 1821              		.loc 1 1340 28 is_stmt 0 view .LVU591
 1822 048c B968     		ldr	r1, [r7, #8]
1233:Drivers/STM32F4xx_HAL_Driver/Src/stm32f4xx_hal_hcd.c ****     __HAL_HCD_CLEAR_HC_INT(ch_num, USB_OTG_HCINT_FRMOR);
 1823              		.loc 1 1233 27 view .LVU592
 1824 048e 2268     		ldr	r2, [r4]
1340:Drivers/STM32F4xx_HAL_Driver/Src/stm32f4xx_hal_hcd.c ****   {
 1825              		.loc 1 1340 11 view .LVU593
 1826 0490 C906     		lsls	r1, r1, #27
1233:Drivers/STM32F4xx_HAL_Driver/Src/stm32f4xx_hal_hcd.c ****     __HAL_HCD_CLEAR_HC_INT(ch_num, USB_OTG_HCINT_FRMOR);
 1827              		.loc 1 1233 27 view .LVU594
 1828 0492 1046     		mov	r0, r2
1340:Drivers/STM32F4xx_HAL_Driver/Src/stm32f4xx_hal_hcd.c ****   {
 1829              		.loc 1 1340 11 view .LVU595
 1830 0494 22D5     		bpl	.L223
1342:Drivers/STM32F4xx_HAL_Driver/Src/stm32f4xx_hal_hcd.c ****     {
 1831              		.loc 1 1342 5 is_stmt 1 view .LVU596
1342:Drivers/STM32F4xx_HAL_Driver/Src/stm32f4xx_hal_hcd.c ****     {
 1832              		.loc 1 1342 25 is_stmt 0 view .LVU597
 1833 0496 4FF02C0C 		mov	ip, #44
 1834 049a 0CFB084C 		mla	ip, ip, r8, r4
 1835 049e 9CF83F10 		ldrb	r1, [ip, #63]	@ zero_extendqisi2
1342:Drivers/STM32F4xx_HAL_Driver/Src/stm32f4xx_hal_hcd.c ****     {
 1836              		.loc 1 1342 8 view .LVU598
 1837 04a2 0329     		cmp	r1, #3
 1838 04a4 00F0C880 		beq	.L238
1347:Drivers/STM32F4xx_HAL_Driver/Src/stm32f4xx_hal_hcd.c ****              (hhcd->hc[ch_num].ep_type == EP_TYPE_BULK))
 1839              		.loc 1 1347 10 is_stmt 1 view .LVU599
1347:Drivers/STM32F4xx_HAL_Driver/Src/stm32f4xx_hal_hcd.c ****              (hhcd->hc[ch_num].ep_type == EP_TYPE_BULK))
 1840              		.loc 1 1347 13 is_stmt 0 view .LVU600
 1841 04a8 11F0FD01 		ands	r1, r1, #253
 1842 04ac 05D1     		bne	.L130
1350:Drivers/STM32F4xx_HAL_Driver/Src/stm32f4xx_hal_hcd.c **** 
 1843              		.loc 1 1350 7 is_stmt 1 view .LVU601
1352:Drivers/STM32F4xx_HAL_Driver/Src/stm32f4xx_hal_hcd.c ****       {
 1844              		.loc 1 1352 10 is_stmt 0 view .LVU602
 1845 04ae 2369     		ldr	r3, [r4, #16]
1350:Drivers/STM32F4xx_HAL_Driver/Src/stm32f4xx_hal_hcd.c **** 
 1846              		.loc 1 1350 31 view .LVU603
 1847 04b0 CCF85C10 		str	r1, [ip, #92]
1352:Drivers/STM32F4xx_HAL_Driver/Src/stm32f4xx_hal_hcd.c ****       {
ARM GAS  /var/folders/lp/x54gwt890xv47sdkqj1k04q40000gn/T//cctevgvi.s 			page 70


 1848              		.loc 1 1352 7 is_stmt 1 view .LVU604
1352:Drivers/STM32F4xx_HAL_Driver/Src/stm32f4xx_hal_hcd.c ****       {
 1849              		.loc 1 1352 10 is_stmt 0 view .LVU605
 1850 04b4 002B     		cmp	r3, #0
 1851 04b6 00F0C680 		beq	.L239
 1852              	.L130:
1362:Drivers/STM32F4xx_HAL_Driver/Src/stm32f4xx_hal_hcd.c ****   }
 1853              		.loc 1 1362 5 is_stmt 1 view .LVU606
 1854 04ba 1023     		movs	r3, #16
 1855              	.LBE20:
 1856              	.LBE63:
 602:Drivers/STM32F4xx_HAL_Driver/Src/stm32f4xx_hal_hcd.c ****     }
 1857              		.loc 1 602 7 is_stmt 0 view .LVU607
 1858 04bc 1046     		mov	r0, r2
 1859              	.LBB64:
 1860              	.LBB21:
1362:Drivers/STM32F4xx_HAL_Driver/Src/stm32f4xx_hal_hcd.c ****   }
 1861              		.loc 1 1362 5 view .LVU608
 1862 04be BB60     		str	r3, [r7, #8]
 1863 04c0 A268     		ldr	r2, [r4, #8]
 1864 04c2 76E6     		b	.L100
 1865              	.L229:
1273:Drivers/STM32F4xx_HAL_Driver/Src/stm32f4xx_hal_hcd.c ****       {
 1866              		.loc 1 1273 7 is_stmt 1 view .LVU609
1273:Drivers/STM32F4xx_HAL_Driver/Src/stm32f4xx_hal_hcd.c ****       {
 1867              		.loc 1 1273 29 is_stmt 0 view .LVU610
 1868 04c4 2C23     		movs	r3, #44
 1869 04c6 03FB0843 		mla	r3, r3, r8, r4
1273:Drivers/STM32F4xx_HAL_Driver/Src/stm32f4xx_hal_hcd.c ****       {
 1870              		.loc 1 1273 57 view .LVU611
 1871 04ca B3F84010 		ldrh	r1, [r3, #64]
1273:Drivers/STM32F4xx_HAL_Driver/Src/stm32f4xx_hal_hcd.c ****       {
 1872              		.loc 1 1273 39 view .LVU612
 1873 04ce 9A6C     		ldr	r2, [r3, #72]
 1874 04d0 B2FBF1F2 		udiv	r2, r2, r1
1273:Drivers/STM32F4xx_HAL_Driver/Src/stm32f4xx_hal_hcd.c ****       {
 1875              		.loc 1 1273 10 view .LVU613
 1876 04d4 D007     		lsls	r0, r2, #31
 1877 04d6 3FF564AE 		bmi	.L222
 1878              	.LVL109:
 1879              	.L221:
1273:Drivers/STM32F4xx_HAL_Driver/Src/stm32f4xx_hal_hcd.c ****       {
 1880              		.loc 1 1273 10 view .LVU614
 1881              	.LBE21:
 1882              	.LBE64:
 602:Drivers/STM32F4xx_HAL_Driver/Src/stm32f4xx_hal_hcd.c ****     }
 1883              		.loc 1 602 7 view .LVU615
 1884 04da 2068     		ldr	r0, [r4]
 1885              	.L223:
 602:Drivers/STM32F4xx_HAL_Driver/Src/stm32f4xx_hal_hcd.c ****     }
 1886              		.loc 1 602 7 view .LVU616
 1887 04dc A268     		ldr	r2, [r4, #8]
 1888              	.LBB65:
 1889              	.LBB35:
 1890 04de 68E6     		b	.L100
 1891              	.LVL110:
 1892              	.L137:
ARM GAS  /var/folders/lp/x54gwt890xv47sdkqj1k04q40000gn/T//cctevgvi.s 			page 71


1421:Drivers/STM32F4xx_HAL_Driver/Src/stm32f4xx_hal_hcd.c ****   {
 1893              		.loc 1 1421 8 is_stmt 1 view .LVU617
1421:Drivers/STM32F4xx_HAL_Driver/Src/stm32f4xx_hal_hcd.c ****   {
 1894              		.loc 1 1421 28 is_stmt 0 view .LVU618
 1895 04e0 BB68     		ldr	r3, [r7, #8]
1421:Drivers/STM32F4xx_HAL_Driver/Src/stm32f4xx_hal_hcd.c ****   {
 1896              		.loc 1 1421 11 view .LVU619
 1897 04e2 5B06     		lsls	r3, r3, #25
 1898 04e4 54D4     		bmi	.L240
1429:Drivers/STM32F4xx_HAL_Driver/Src/stm32f4xx_hal_hcd.c ****   {
 1899              		.loc 1 1429 8 is_stmt 1 view .LVU620
1429:Drivers/STM32F4xx_HAL_Driver/Src/stm32f4xx_hal_hcd.c ****   {
 1900              		.loc 1 1429 28 is_stmt 0 view .LVU621
 1901 04e6 BB68     		ldr	r3, [r7, #8]
1429:Drivers/STM32F4xx_HAL_Driver/Src/stm32f4xx_hal_hcd.c ****   {
 1902              		.loc 1 1429 11 view .LVU622
 1903 04e8 13F00803 		ands	r3, r3, #8
 1904 04ec 7AD1     		bne	.L241
1435:Drivers/STM32F4xx_HAL_Driver/Src/stm32f4xx_hal_hcd.c ****   {
 1905              		.loc 1 1435 8 is_stmt 1 view .LVU623
1435:Drivers/STM32F4xx_HAL_Driver/Src/stm32f4xx_hal_hcd.c ****   {
 1906              		.loc 1 1435 28 is_stmt 0 view .LVU624
 1907 04ee B968     		ldr	r1, [r7, #8]
1435:Drivers/STM32F4xx_HAL_Driver/Src/stm32f4xx_hal_hcd.c ****   {
 1908              		.loc 1 1435 11 view .LVU625
 1909 04f0 C906     		lsls	r1, r1, #27
 1910 04f2 5FD5     		bpl	.L141
1437:Drivers/STM32F4xx_HAL_Driver/Src/stm32f4xx_hal_hcd.c ****     hhcd->hc[ch_num].state = HC_NAK;
 1911              		.loc 1 1437 5 is_stmt 1 view .LVU626
1437:Drivers/STM32F4xx_HAL_Driver/Src/stm32f4xx_hal_hcd.c ****     hhcd->hc[ch_num].state = HC_NAK;
 1912              		.loc 1 1437 29 is_stmt 0 view .LVU627
 1913 04f4 2C22     		movs	r2, #44
 1914 04f6 02FB0842 		mla	r2, r2, r8, r4
1438:Drivers/STM32F4xx_HAL_Driver/Src/stm32f4xx_hal_hcd.c **** 
 1915              		.loc 1 1438 28 view .LVU628
 1916 04fa 0321     		movs	r1, #3
1437:Drivers/STM32F4xx_HAL_Driver/Src/stm32f4xx_hal_hcd.c ****     hhcd->hc[ch_num].state = HC_NAK;
 1917              		.loc 1 1437 29 view .LVU629
 1918 04fc D365     		str	r3, [r2, #92]
1438:Drivers/STM32F4xx_HAL_Driver/Src/stm32f4xx_hal_hcd.c **** 
 1919              		.loc 1 1438 5 is_stmt 1 view .LVU630
1440:Drivers/STM32F4xx_HAL_Driver/Src/stm32f4xx_hal_hcd.c ****     {
 1920              		.loc 1 1440 8 is_stmt 0 view .LVU631
 1921 04fe 92F83D30 		ldrb	r3, [r2, #61]	@ zero_extendqisi2
1438:Drivers/STM32F4xx_HAL_Driver/Src/stm32f4xx_hal_hcd.c **** 
 1922              		.loc 1 1438 28 view .LVU632
 1923 0502 82F86110 		strb	r1, [r2, #97]
1440:Drivers/STM32F4xx_HAL_Driver/Src/stm32f4xx_hal_hcd.c ****     {
 1924              		.loc 1 1440 5 is_stmt 1 view .LVU633
1440:Drivers/STM32F4xx_HAL_Driver/Src/stm32f4xx_hal_hcd.c ****     {
 1925              		.loc 1 1440 8 is_stmt 0 view .LVU634
 1926 0506 33B9     		cbnz	r3, .L142
1442:Drivers/STM32F4xx_HAL_Driver/Src/stm32f4xx_hal_hcd.c ****       {
 1927              		.loc 1 1442 7 is_stmt 1 view .LVU635
1442:Drivers/STM32F4xx_HAL_Driver/Src/stm32f4xx_hal_hcd.c ****       {
 1928              		.loc 1 1442 27 is_stmt 0 view .LVU636
 1929 0508 1346     		mov	r3, r2
ARM GAS  /var/folders/lp/x54gwt890xv47sdkqj1k04q40000gn/T//cctevgvi.s 			page 72


1442:Drivers/STM32F4xx_HAL_Driver/Src/stm32f4xx_hal_hcd.c ****       {
 1930              		.loc 1 1442 10 view .LVU637
 1931 050a 92F83C20 		ldrb	r2, [r2, #60]	@ zero_extendqisi2
 1932 050e 12B9     		cbnz	r2, .L142
1444:Drivers/STM32F4xx_HAL_Driver/Src/stm32f4xx_hal_hcd.c ****       }
 1933              		.loc 1 1444 9 is_stmt 1 view .LVU638
1444:Drivers/STM32F4xx_HAL_Driver/Src/stm32f4xx_hal_hcd.c ****       }
 1934              		.loc 1 1444 34 is_stmt 0 view .LVU639
 1935 0510 0122     		movs	r2, #1
 1936 0512 83F83D20 		strb	r2, [r3, #61]
 1937              	.L142:
1448:Drivers/STM32F4xx_HAL_Driver/Src/stm32f4xx_hal_hcd.c ****     __HAL_HCD_CLEAR_HC_INT(ch_num, USB_OTG_HCINT_NAK);
 1938              		.loc 1 1448 5 is_stmt 1 view .LVU640
1448:Drivers/STM32F4xx_HAL_Driver/Src/stm32f4xx_hal_hcd.c ****     __HAL_HCD_CLEAR_HC_INT(ch_num, USB_OTG_HCINT_NAK);
 1939              		.loc 1 1448 11 is_stmt 0 view .LVU641
 1940 0516 4146     		mov	r1, r8
 1941 0518 FFF7FEFF 		bl	USB_HC_Halt
 1942              	.LVL111:
1449:Drivers/STM32F4xx_HAL_Driver/Src/stm32f4xx_hal_hcd.c ****   }
 1943              		.loc 1 1449 5 is_stmt 1 view .LVU642
 1944 051c 1023     		movs	r3, #16
 1945 051e BB60     		str	r3, [r7, #8]
 1946              	.LBE35:
 1947              	.LBE65:
 602:Drivers/STM32F4xx_HAL_Driver/Src/stm32f4xx_hal_hcd.c ****     }
 1948              		.loc 1 602 7 is_stmt 0 view .LVU643
 1949 0520 2068     		ldr	r0, [r4]
 1950 0522 A268     		ldr	r2, [r4, #8]
 1951              	.LBB66:
 1952              	.LBB36:
 1953 0524 45E6     		b	.L100
 1954              	.L234:
1404:Drivers/STM32F4xx_HAL_Driver/Src/stm32f4xx_hal_hcd.c ****     (void)USB_HC_Halt(hhcd->Instance, (uint8_t)ch_num);
 1955              		.loc 1 1404 5 is_stmt 1 view .LVU644
 1956 0526 4FF40073 		mov	r3, #512
1405:Drivers/STM32F4xx_HAL_Driver/Src/stm32f4xx_hal_hcd.c ****   }
 1957              		.loc 1 1405 11 is_stmt 0 view .LVU645
 1958 052a 4146     		mov	r1, r8
1404:Drivers/STM32F4xx_HAL_Driver/Src/stm32f4xx_hal_hcd.c ****     (void)USB_HC_Halt(hhcd->Instance, (uint8_t)ch_num);
 1959              		.loc 1 1404 5 view .LVU646
 1960 052c BB60     		str	r3, [r7, #8]
1405:Drivers/STM32F4xx_HAL_Driver/Src/stm32f4xx_hal_hcd.c ****   }
 1961              		.loc 1 1405 5 is_stmt 1 view .LVU647
1405:Drivers/STM32F4xx_HAL_Driver/Src/stm32f4xx_hal_hcd.c ****   }
 1962              		.loc 1 1405 11 is_stmt 0 view .LVU648
 1963 052e FFF7FEFF 		bl	USB_HC_Halt
 1964              	.LVL112:
 1965              	.LBE36:
 1966              	.LBE66:
 602:Drivers/STM32F4xx_HAL_Driver/Src/stm32f4xx_hal_hcd.c ****     }
 1967              		.loc 1 602 7 view .LVU649
 1968 0532 2068     		ldr	r0, [r4]
 1969 0534 A268     		ldr	r2, [r4, #8]
 1970              	.LBB67:
 1971              	.LBB37:
 1972 0536 3CE6     		b	.L100
 1973              	.LVL113:
ARM GAS  /var/folders/lp/x54gwt890xv47sdkqj1k04q40000gn/T//cctevgvi.s 			page 73


 1974              	.L231:
 602:Drivers/STM32F4xx_HAL_Driver/Src/stm32f4xx_hal_hcd.c ****     }
 1975              		.loc 1 602 7 view .LVU650
 1976              	.LBE37:
 1977              	.LBE67:
 1978              	.LBB68:
 1979              	.LBB47:
1653:Drivers/STM32F4xx_HAL_Driver/Src/stm32f4xx_hal_hcd.c **** #endif /* USE_HAL_HCD_REGISTER_CALLBACKS */
 1980              		.loc 1 1653 7 is_stmt 1 view .LVU651
 1981 0538 2046     		mov	r0, r4
 1982 053a FFF7FEFF 		bl	HAL_HCD_Connect_Callback
 1983              	.LVL114:
 1984 053e 7EE6     		b	.L81
 1985              	.L83:
1696:Drivers/STM32F4xx_HAL_Driver/Src/stm32f4xx_hal_hcd.c **** #endif /* USE_HAL_HCD_REGISTER_CALLBACKS */
 1986              		.loc 1 1696 7 view .LVU652
 1987 0540 2046     		mov	r0, r4
 1988 0542 FFF7FEFF 		bl	HAL_HCD_PortDisabled_Callback
 1989              	.LVL115:
 1990 0546 97E6     		b	.L82
 1991              	.LVL116:
 1992              	.L235:
1696:Drivers/STM32F4xx_HAL_Driver/Src/stm32f4xx_hal_hcd.c **** #endif /* USE_HAL_HCD_REGISTER_CALLBACKS */
 1993              		.loc 1 1696 7 is_stmt 0 view .LVU653
 1994              	.LBE47:
 1995              	.LBE68:
 1996              	.LBB69:
 1997              	.LBB22:
1210:Drivers/STM32F4xx_HAL_Driver/Src/stm32f4xx_hal_hcd.c ****     hhcd->hc[ch_num].state = HC_STALL;
 1998              		.loc 1 1210 5 is_stmt 1 view .LVU654
1211:Drivers/STM32F4xx_HAL_Driver/Src/stm32f4xx_hal_hcd.c ****     (void)USB_HC_Halt(hhcd->Instance, (uint8_t)ch_num);
 1999              		.loc 1 1211 28 is_stmt 0 view .LVU655
 2000 0548 2C23     		movs	r3, #44
 2001 054a 03FB0843 		mla	r3, r3, r8, r4
1210:Drivers/STM32F4xx_HAL_Driver/Src/stm32f4xx_hal_hcd.c ****     hhcd->hc[ch_num].state = HC_STALL;
 2002              		.loc 1 1210 5 view .LVU656
 2003 054e 0822     		movs	r2, #8
 2004 0550 BA60     		str	r2, [r7, #8]
1211:Drivers/STM32F4xx_HAL_Driver/Src/stm32f4xx_hal_hcd.c ****     (void)USB_HC_Halt(hhcd->Instance, (uint8_t)ch_num);
 2005              		.loc 1 1211 5 is_stmt 1 view .LVU657
1211:Drivers/STM32F4xx_HAL_Driver/Src/stm32f4xx_hal_hcd.c ****     (void)USB_HC_Halt(hhcd->Instance, (uint8_t)ch_num);
 2006              		.loc 1 1211 28 is_stmt 0 view .LVU658
 2007 0552 0522     		movs	r2, #5
 2008 0554 83F86120 		strb	r2, [r3, #97]
1212:Drivers/STM32F4xx_HAL_Driver/Src/stm32f4xx_hal_hcd.c ****   }
 2009              		.loc 1 1212 5 is_stmt 1 view .LVU659
1212:Drivers/STM32F4xx_HAL_Driver/Src/stm32f4xx_hal_hcd.c ****   }
 2010              		.loc 1 1212 11 is_stmt 0 view .LVU660
 2011 0558 4146     		mov	r1, r8
 2012 055a FFF7FEFF 		bl	USB_HC_Halt
 2013              	.LVL117:
 2014 055e CEE5     		b	.L103
 2015              	.LVL118:
 2016              	.L232:
1212:Drivers/STM32F4xx_HAL_Driver/Src/stm32f4xx_hal_hcd.c ****   }
 2017              		.loc 1 1212 11 view .LVU661
 2018              	.LBE22:
ARM GAS  /var/folders/lp/x54gwt890xv47sdkqj1k04q40000gn/T//cctevgvi.s 			page 74


 2019              	.LBE69:
 2020              	.LBB70:
 2021              	.LBB48:
1668:Drivers/STM32F4xx_HAL_Driver/Src/stm32f4xx_hal_hcd.c ****         {
 2022              		.loc 1 1668 9 is_stmt 1 view .LVU662
1668:Drivers/STM32F4xx_HAL_Driver/Src/stm32f4xx_hal_hcd.c ****         {
 2023              		.loc 1 1668 20 is_stmt 0 view .LVU663
 2024 0560 029B     		ldr	r3, [sp, #8]
1670:Drivers/STM32F4xx_HAL_Driver/Src/stm32f4xx_hal_hcd.c ****         }
 2025              		.loc 1 1670 41 view .LVU664
 2026 0562 2068     		ldr	r0, [r4]
1668:Drivers/STM32F4xx_HAL_Driver/Src/stm32f4xx_hal_hcd.c ****         {
 2027              		.loc 1 1668 20 view .LVU665
 2028 0564 03F4C023 		and	r3, r3, #393216
1668:Drivers/STM32F4xx_HAL_Driver/Src/stm32f4xx_hal_hcd.c ****         {
 2029              		.loc 1 1668 12 view .LVU666
 2030 0568 B3F5802F 		cmp	r3, #262144
1670:Drivers/STM32F4xx_HAL_Driver/Src/stm32f4xx_hal_hcd.c ****         }
 2031              		.loc 1 1670 11 is_stmt 1 view .LVU667
1674:Drivers/STM32F4xx_HAL_Driver/Src/stm32f4xx_hal_hcd.c ****         }
 2032              		.loc 1 1674 11 view .LVU668
1674:Drivers/STM32F4xx_HAL_Driver/Src/stm32f4xx_hal_hcd.c ****         }
 2033              		.loc 1 1674 17 is_stmt 0 view .LVU669
 2034 056c 18BF     		it	ne
 2035 056e 0121     		movne	r1, #1
 2036 0570 FFF7FEFF 		bl	USB_InitFSLSPClkSel
 2037              	.LVL119:
 2038 0574 7DE6     		b	.L86
 2039              	.LVL120:
 2040              	.L236:
1674:Drivers/STM32F4xx_HAL_Driver/Src/stm32f4xx_hal_hcd.c ****         }
 2041              		.loc 1 1674 17 view .LVU670
 2042              	.LBE48:
 2043              	.LBE70:
 2044              	.LBB71:
 2045              	.LBB23:
1216:Drivers/STM32F4xx_HAL_Driver/Src/stm32f4xx_hal_hcd.c ****     hhcd->hc[ch_num].state = HC_DATATGLERR;
 2046              		.loc 1 1216 5 is_stmt 1 view .LVU671
1217:Drivers/STM32F4xx_HAL_Driver/Src/stm32f4xx_hal_hcd.c ****     (void)USB_HC_Halt(hhcd->Instance, (uint8_t)ch_num);
 2047              		.loc 1 1217 28 is_stmt 0 view .LVU672
 2048 0576 2C23     		movs	r3, #44
 2049 0578 03FB0843 		mla	r3, r3, r8, r4
1216:Drivers/STM32F4xx_HAL_Driver/Src/stm32f4xx_hal_hcd.c ****     hhcd->hc[ch_num].state = HC_DATATGLERR;
 2050              		.loc 1 1216 5 view .LVU673
 2051 057c 4FF48062 		mov	r2, #1024
 2052 0580 BA60     		str	r2, [r7, #8]
1217:Drivers/STM32F4xx_HAL_Driver/Src/stm32f4xx_hal_hcd.c ****     (void)USB_HC_Halt(hhcd->Instance, (uint8_t)ch_num);
 2053              		.loc 1 1217 5 is_stmt 1 view .LVU674
1217:Drivers/STM32F4xx_HAL_Driver/Src/stm32f4xx_hal_hcd.c ****     (void)USB_HC_Halt(hhcd->Instance, (uint8_t)ch_num);
 2054              		.loc 1 1217 28 is_stmt 0 view .LVU675
 2055 0582 0822     		movs	r2, #8
 2056 0584 83F86120 		strb	r2, [r3, #97]
1218:Drivers/STM32F4xx_HAL_Driver/Src/stm32f4xx_hal_hcd.c ****   }
 2057              		.loc 1 1218 5 is_stmt 1 view .LVU676
1218:Drivers/STM32F4xx_HAL_Driver/Src/stm32f4xx_hal_hcd.c ****   }
 2058              		.loc 1 1218 11 is_stmt 0 view .LVU677
 2059 0588 4146     		mov	r1, r8
ARM GAS  /var/folders/lp/x54gwt890xv47sdkqj1k04q40000gn/T//cctevgvi.s 			page 75


 2060 058a FFF7FEFF 		bl	USB_HC_Halt
 2061              	.LVL121:
 2062 058e B6E5     		b	.L103
 2063              	.LVL122:
 2064              	.L240:
1218:Drivers/STM32F4xx_HAL_Driver/Src/stm32f4xx_hal_hcd.c ****   }
 2065              		.loc 1 1218 11 view .LVU678
 2066              	.LBE23:
 2067              	.LBE71:
 2068              	.LBB72:
 2069              	.LBB38:
1423:Drivers/STM32F4xx_HAL_Driver/Src/stm32f4xx_hal_hcd.c ****     hhcd->hc[ch_num].do_ping = 1U;
 2070              		.loc 1 1423 5 is_stmt 1 view .LVU679
1423:Drivers/STM32F4xx_HAL_Driver/Src/stm32f4xx_hal_hcd.c ****     hhcd->hc[ch_num].do_ping = 1U;
 2071              		.loc 1 1423 28 is_stmt 0 view .LVU680
 2072 0590 2C23     		movs	r3, #44
 2073 0592 03FB0843 		mla	r3, r3, r8, r4
 2074 0596 0422     		movs	r2, #4
 2075 0598 83F86120 		strb	r2, [r3, #97]
1424:Drivers/STM32F4xx_HAL_Driver/Src/stm32f4xx_hal_hcd.c ****     hhcd->hc[ch_num].ErrCnt = 0U;
 2076              		.loc 1 1424 5 is_stmt 1 view .LVU681
1424:Drivers/STM32F4xx_HAL_Driver/Src/stm32f4xx_hal_hcd.c ****     hhcd->hc[ch_num].ErrCnt = 0U;
 2077              		.loc 1 1424 30 is_stmt 0 view .LVU682
 2078 059c 0122     		movs	r2, #1
1425:Drivers/STM32F4xx_HAL_Driver/Src/stm32f4xx_hal_hcd.c ****     (void)USB_HC_Halt(hhcd->Instance, (uint8_t)ch_num);
 2079              		.loc 1 1425 29 view .LVU683
 2080 059e D965     		str	r1, [r3, #92]
1424:Drivers/STM32F4xx_HAL_Driver/Src/stm32f4xx_hal_hcd.c ****     hhcd->hc[ch_num].ErrCnt = 0U;
 2081              		.loc 1 1424 30 view .LVU684
 2082 05a0 83F83D20 		strb	r2, [r3, #61]
1425:Drivers/STM32F4xx_HAL_Driver/Src/stm32f4xx_hal_hcd.c ****     (void)USB_HC_Halt(hhcd->Instance, (uint8_t)ch_num);
 2083              		.loc 1 1425 5 is_stmt 1 view .LVU685
1426:Drivers/STM32F4xx_HAL_Driver/Src/stm32f4xx_hal_hcd.c ****     __HAL_HCD_CLEAR_HC_INT(ch_num, USB_OTG_HCINT_NYET);
 2084              		.loc 1 1426 5 view .LVU686
1426:Drivers/STM32F4xx_HAL_Driver/Src/stm32f4xx_hal_hcd.c ****     __HAL_HCD_CLEAR_HC_INT(ch_num, USB_OTG_HCINT_NYET);
 2085              		.loc 1 1426 11 is_stmt 0 view .LVU687
 2086 05a4 4146     		mov	r1, r8
 2087 05a6 FFF7FEFF 		bl	USB_HC_Halt
 2088              	.LVL123:
1427:Drivers/STM32F4xx_HAL_Driver/Src/stm32f4xx_hal_hcd.c ****   }
 2089              		.loc 1 1427 5 is_stmt 1 view .LVU688
 2090 05aa 4023     		movs	r3, #64
 2091 05ac BB60     		str	r3, [r7, #8]
 2092              	.LBE38:
 2093              	.LBE72:
 602:Drivers/STM32F4xx_HAL_Driver/Src/stm32f4xx_hal_hcd.c ****     }
 2094              		.loc 1 602 7 is_stmt 0 view .LVU689
 2095 05ae 2068     		ldr	r0, [r4]
 2096 05b0 A268     		ldr	r2, [r4, #8]
 2097              	.LBB73:
 2098              	.LBB39:
 2099 05b2 FEE5     		b	.L100
 2100              	.L141:
1451:Drivers/STM32F4xx_HAL_Driver/Src/stm32f4xx_hal_hcd.c ****   {
 2101              		.loc 1 1451 8 is_stmt 1 view .LVU690
1451:Drivers/STM32F4xx_HAL_Driver/Src/stm32f4xx_hal_hcd.c ****   {
 2102              		.loc 1 1451 28 is_stmt 0 view .LVU691
ARM GAS  /var/folders/lp/x54gwt890xv47sdkqj1k04q40000gn/T//cctevgvi.s 			page 76


 2103 05b4 BB68     		ldr	r3, [r7, #8]
1451:Drivers/STM32F4xx_HAL_Driver/Src/stm32f4xx_hal_hcd.c ****   {
 2104              		.loc 1 1451 11 view .LVU692
 2105 05b6 1906     		lsls	r1, r3, #24
 2106 05b8 59D5     		bpl	.L143
1453:Drivers/STM32F4xx_HAL_Driver/Src/stm32f4xx_hal_hcd.c ****     {
 2107              		.loc 1 1453 5 is_stmt 1 view .LVU693
1453:Drivers/STM32F4xx_HAL_Driver/Src/stm32f4xx_hal_hcd.c ****     {
 2108              		.loc 1 1453 8 is_stmt 0 view .LVU694
 2109 05ba 2369     		ldr	r3, [r4, #16]
 2110 05bc 002B     		cmp	r3, #0
 2111 05be 00F0AB80 		beq	.L242
1460:Drivers/STM32F4xx_HAL_Driver/Src/stm32f4xx_hal_hcd.c ****       if (hhcd->hc[ch_num].ErrCnt > 2U)
 2112              		.loc 1 1460 7 is_stmt 1 view .LVU695
1460:Drivers/STM32F4xx_HAL_Driver/Src/stm32f4xx_hal_hcd.c ****       if (hhcd->hc[ch_num].ErrCnt > 2U)
 2113              		.loc 1 1460 23 is_stmt 0 view .LVU696
 2114 05c2 2C23     		movs	r3, #44
 2115 05c4 03FB0843 		mla	r3, r3, r8, r4
1460:Drivers/STM32F4xx_HAL_Driver/Src/stm32f4xx_hal_hcd.c ****       if (hhcd->hc[ch_num].ErrCnt > 2U)
 2116              		.loc 1 1460 30 view .LVU697
 2117 05c8 DA6D     		ldr	r2, [r3, #92]
 2118 05ca 0132     		adds	r2, r2, #1
1461:Drivers/STM32F4xx_HAL_Driver/Src/stm32f4xx_hal_hcd.c ****       {
 2119              		.loc 1 1461 10 view .LVU698
 2120 05cc 022A     		cmp	r2, #2
1460:Drivers/STM32F4xx_HAL_Driver/Src/stm32f4xx_hal_hcd.c ****       if (hhcd->hc[ch_num].ErrCnt > 2U)
 2121              		.loc 1 1460 30 view .LVU699
 2122 05ce DA65     		str	r2, [r3, #92]
1461:Drivers/STM32F4xx_HAL_Driver/Src/stm32f4xx_hal_hcd.c ****       {
 2123              		.loc 1 1461 7 is_stmt 1 view .LVU700
1461:Drivers/STM32F4xx_HAL_Driver/Src/stm32f4xx_hal_hcd.c ****       {
 2124              		.loc 1 1461 10 is_stmt 0 view .LVU701
 2125 05d0 00F2AC80 		bhi	.L243
1474:Drivers/STM32F4xx_HAL_Driver/Src/stm32f4xx_hal_hcd.c ****       }
 2126              		.loc 1 1474 9 is_stmt 1 view .LVU702
1474:Drivers/STM32F4xx_HAL_Driver/Src/stm32f4xx_hal_hcd.c ****       }
 2127              		.loc 1 1474 36 is_stmt 0 view .LVU703
 2128 05d4 0222     		movs	r2, #2
 2129 05d6 83F86020 		strb	r2, [r3, #96]
 2130              	.L145:
1477:Drivers/STM32F4xx_HAL_Driver/Src/stm32f4xx_hal_hcd.c ****   }
 2131              		.loc 1 1477 5 is_stmt 1 view .LVU704
 2132 05da 8023     		movs	r3, #128
 2133 05dc BB60     		str	r3, [r7, #8]
 2134              	.LBE39:
 2135              	.LBE73:
 602:Drivers/STM32F4xx_HAL_Driver/Src/stm32f4xx_hal_hcd.c ****     }
 2136              		.loc 1 602 7 is_stmt 0 view .LVU705
 2137 05de 2068     		ldr	r0, [r4]
 2138 05e0 A268     		ldr	r2, [r4, #8]
 2139              	.LBB74:
 2140              	.LBB40:
 2141 05e2 E6E5     		b	.L100
 2142              	.L241:
1431:Drivers/STM32F4xx_HAL_Driver/Src/stm32f4xx_hal_hcd.c ****     hhcd->hc[ch_num].state = HC_STALL;
 2143              		.loc 1 1431 5 is_stmt 1 view .LVU706
1432:Drivers/STM32F4xx_HAL_Driver/Src/stm32f4xx_hal_hcd.c ****     (void)USB_HC_Halt(hhcd->Instance, (uint8_t)ch_num);
ARM GAS  /var/folders/lp/x54gwt890xv47sdkqj1k04q40000gn/T//cctevgvi.s 			page 77


 2144              		.loc 1 1432 28 is_stmt 0 view .LVU707
 2145 05e4 2C23     		movs	r3, #44
 2146 05e6 03FB0843 		mla	r3, r3, r8, r4
1431:Drivers/STM32F4xx_HAL_Driver/Src/stm32f4xx_hal_hcd.c ****     hhcd->hc[ch_num].state = HC_STALL;
 2147              		.loc 1 1431 5 view .LVU708
 2148 05ea 0822     		movs	r2, #8
 2149 05ec BA60     		str	r2, [r7, #8]
1432:Drivers/STM32F4xx_HAL_Driver/Src/stm32f4xx_hal_hcd.c ****     (void)USB_HC_Halt(hhcd->Instance, (uint8_t)ch_num);
 2150              		.loc 1 1432 5 is_stmt 1 view .LVU709
1432:Drivers/STM32F4xx_HAL_Driver/Src/stm32f4xx_hal_hcd.c ****     (void)USB_HC_Halt(hhcd->Instance, (uint8_t)ch_num);
 2151              		.loc 1 1432 28 is_stmt 0 view .LVU710
 2152 05ee 0522     		movs	r2, #5
 2153 05f0 83F86120 		strb	r2, [r3, #97]
1433:Drivers/STM32F4xx_HAL_Driver/Src/stm32f4xx_hal_hcd.c ****   }
 2154              		.loc 1 1433 5 is_stmt 1 view .LVU711
1433:Drivers/STM32F4xx_HAL_Driver/Src/stm32f4xx_hal_hcd.c ****   }
 2155              		.loc 1 1433 11 is_stmt 0 view .LVU712
 2156 05f4 4146     		mov	r1, r8
 2157 05f6 FFF7FEFF 		bl	USB_HC_Halt
 2158              	.LVL124:
 2159              	.LBE40:
 2160              	.LBE74:
 602:Drivers/STM32F4xx_HAL_Driver/Src/stm32f4xx_hal_hcd.c ****     }
 2161              		.loc 1 602 7 view .LVU713
 2162 05fa 2068     		ldr	r0, [r4]
 2163 05fc A268     		ldr	r2, [r4, #8]
 2164              	.LBB75:
 2165              	.LBB41:
 2166 05fe D8E5     		b	.L100
 2167              	.LVL125:
 2168              	.L237:
 602:Drivers/STM32F4xx_HAL_Driver/Src/stm32f4xx_hal_hcd.c ****     }
 2169              		.loc 1 602 7 view .LVU714
 2170              	.LBE41:
 2171              	.LBE75:
 2172              	.LBB76:
 2173              	.LBB52:
1589:Drivers/STM32F4xx_HAL_Driver/Src/stm32f4xx_hal_hcd.c ****                                hhcd->hc[ch_num].xfer_buff, (uint16_t)pktcnt);
 2174              		.loc 1 1589 11 is_stmt 1 view .LVU715
1589:Drivers/STM32F4xx_HAL_Driver/Src/stm32f4xx_hal_hcd.c ****                                hhcd->hc[ch_num].xfer_buff, (uint16_t)pktcnt);
 2175              		.loc 1 1589 17 is_stmt 0 view .LVU716
 2176 0600 3046     		mov	r0, r6
 2177 0602 0192     		str	r2, [sp, #4]
 2178 0604 FFF7FEFF 		bl	USB_ReadPacket
 2179              	.LVL126:
1593:Drivers/STM32F4xx_HAL_Driver/Src/stm32f4xx_hal_hcd.c ****           hhcd->hc[ch_num].xfer_count += pktcnt;
 2180              		.loc 1 1593 11 is_stmt 1 view .LVU717
1593:Drivers/STM32F4xx_HAL_Driver/Src/stm32f4xx_hal_hcd.c ****           hhcd->hc[ch_num].xfer_count += pktcnt;
 2181              		.loc 1 1593 38 is_stmt 0 view .LVU718
 2182 0608 019A     		ldr	r2, [sp, #4]
 2183 060a D8F84430 		ldr	r3, [r8, #68]
1599:Drivers/STM32F4xx_HAL_Driver/Src/stm32f4xx_hal_hcd.c ****           {
 2184              		.loc 1 1599 32 view .LVU719
 2185 060e B8F84000 		ldrh	r0, [r8, #64]
1593:Drivers/STM32F4xx_HAL_Driver/Src/stm32f4xx_hal_hcd.c ****           hhcd->hc[ch_num].xfer_count += pktcnt;
 2186              		.loc 1 1593 38 view .LVU720
 2187 0612 1344     		add	r3, r3, r2
ARM GAS  /var/folders/lp/x54gwt890xv47sdkqj1k04q40000gn/T//cctevgvi.s 			page 78


1597:Drivers/STM32F4xx_HAL_Driver/Src/stm32f4xx_hal_hcd.c **** 
 2188              		.loc 1 1597 29 view .LVU721
 2189 0614 06F5A066 		add	r6, r6, #1280
 2190              	.LVL127:
1593:Drivers/STM32F4xx_HAL_Driver/Src/stm32f4xx_hal_hcd.c ****           hhcd->hc[ch_num].xfer_count += pktcnt;
 2191              		.loc 1 1593 38 view .LVU722
 2192 0618 C8F84430 		str	r3, [r8, #68]
1594:Drivers/STM32F4xx_HAL_Driver/Src/stm32f4xx_hal_hcd.c **** 
 2193              		.loc 1 1594 11 is_stmt 1 view .LVU723
1594:Drivers/STM32F4xx_HAL_Driver/Src/stm32f4xx_hal_hcd.c **** 
 2194              		.loc 1 1594 39 is_stmt 0 view .LVU724
 2195 061c D8F85030 		ldr	r3, [r8, #80]
1597:Drivers/STM32F4xx_HAL_Driver/Src/stm32f4xx_hal_hcd.c **** 
 2196              		.loc 1 1597 29 view .LVU725
 2197 0620 06EB4711 		add	r1, r6, r7, lsl #5
1594:Drivers/STM32F4xx_HAL_Driver/Src/stm32f4xx_hal_hcd.c **** 
 2198              		.loc 1 1594 39 view .LVU726
 2199 0624 1344     		add	r3, r3, r2
1599:Drivers/STM32F4xx_HAL_Driver/Src/stm32f4xx_hal_hcd.c ****           {
 2200              		.loc 1 1599 14 view .LVU727
 2201 0626 8242     		cmp	r2, r0
1594:Drivers/STM32F4xx_HAL_Driver/Src/stm32f4xx_hal_hcd.c **** 
 2202              		.loc 1 1594 39 view .LVU728
 2203 0628 C8F85030 		str	r3, [r8, #80]
1597:Drivers/STM32F4xx_HAL_Driver/Src/stm32f4xx_hal_hcd.c **** 
 2204              		.loc 1 1597 11 is_stmt 1 view .LVU729
1597:Drivers/STM32F4xx_HAL_Driver/Src/stm32f4xx_hal_hcd.c **** 
 2205              		.loc 1 1597 44 is_stmt 0 view .LVU730
 2206 062c 0969     		ldr	r1, [r1, #16]
 2207              	.LVL128:
1599:Drivers/STM32F4xx_HAL_Driver/Src/stm32f4xx_hal_hcd.c ****           {
 2208              		.loc 1 1599 11 is_stmt 1 view .LVU731
1597:Drivers/STM32F4xx_HAL_Driver/Src/stm32f4xx_hal_hcd.c **** 
 2209              		.loc 1 1597 29 is_stmt 0 view .LVU732
 2210 062e 4FEA4713 		lsl	r3, r7, #5
1599:Drivers/STM32F4xx_HAL_Driver/Src/stm32f4xx_hal_hcd.c ****           {
 2211              		.loc 1 1599 14 view .LVU733
 2212 0632 51D0     		beq	.L96
 2213              	.L218:
1599:Drivers/STM32F4xx_HAL_Driver/Src/stm32f4xx_hal_hcd.c ****           {
 2214              		.loc 1 1599 14 view .LVU734
 2215              	.LBE52:
 2216              	.LBE76:
 581:Drivers/STM32F4xx_HAL_Driver/Src/stm32f4xx_hal_hcd.c ****     }
 2217              		.loc 1 581 7 view .LVU735
 2218 0634 2668     		ldr	r6, [r4]
 2219              	.LVL129:
 581:Drivers/STM32F4xx_HAL_Driver/Src/stm32f4xx_hal_hcd.c ****     }
 2220              		.loc 1 581 7 view .LVU736
 2221 0636 35E6     		b	.L93
 2222              	.LVL130:
 2223              	.L238:
 2224              	.LBB77:
 2225              	.LBB24:
1344:Drivers/STM32F4xx_HAL_Driver/Src/stm32f4xx_hal_hcd.c ****       (void)USB_HC_Halt(hhcd->Instance, (uint8_t)ch_num);
 2226              		.loc 1 1344 7 is_stmt 1 view .LVU737
1344:Drivers/STM32F4xx_HAL_Driver/Src/stm32f4xx_hal_hcd.c ****       (void)USB_HC_Halt(hhcd->Instance, (uint8_t)ch_num);
ARM GAS  /var/folders/lp/x54gwt890xv47sdkqj1k04q40000gn/T//cctevgvi.s 			page 79


 2227              		.loc 1 1344 31 is_stmt 0 view .LVU738
 2228 0638 CCF85C30 		str	r3, [ip, #92]
1345:Drivers/STM32F4xx_HAL_Driver/Src/stm32f4xx_hal_hcd.c ****     }
 2229              		.loc 1 1345 7 is_stmt 1 view .LVU739
1345:Drivers/STM32F4xx_HAL_Driver/Src/stm32f4xx_hal_hcd.c ****     }
 2230              		.loc 1 1345 13 is_stmt 0 view .LVU740
 2231 063c 4146     		mov	r1, r8
 2232 063e FFF7FEFF 		bl	USB_HC_Halt
 2233              	.LVL131:
 2234 0642 2268     		ldr	r2, [r4]
 2235 0644 39E7     		b	.L130
 2236              	.L239:
1354:Drivers/STM32F4xx_HAL_Driver/Src/stm32f4xx_hal_hcd.c ****         (void)USB_HC_Halt(hhcd->Instance, (uint8_t)ch_num);
 2237              		.loc 1 1354 9 is_stmt 1 view .LVU741
1354:Drivers/STM32F4xx_HAL_Driver/Src/stm32f4xx_hal_hcd.c ****         (void)USB_HC_Halt(hhcd->Instance, (uint8_t)ch_num);
 2238              		.loc 1 1354 32 is_stmt 0 view .LVU742
 2239 0646 0323     		movs	r3, #3
1355:Drivers/STM32F4xx_HAL_Driver/Src/stm32f4xx_hal_hcd.c ****       }
 2240              		.loc 1 1355 15 view .LVU743
 2241 0648 4146     		mov	r1, r8
1354:Drivers/STM32F4xx_HAL_Driver/Src/stm32f4xx_hal_hcd.c ****         (void)USB_HC_Halt(hhcd->Instance, (uint8_t)ch_num);
 2242              		.loc 1 1354 32 view .LVU744
 2243 064a 8CF86130 		strb	r3, [ip, #97]
1355:Drivers/STM32F4xx_HAL_Driver/Src/stm32f4xx_hal_hcd.c ****       }
 2244              		.loc 1 1355 9 is_stmt 1 view .LVU745
1355:Drivers/STM32F4xx_HAL_Driver/Src/stm32f4xx_hal_hcd.c ****       }
 2245              		.loc 1 1355 15 is_stmt 0 view .LVU746
 2246 064e FFF7FEFF 		bl	USB_HC_Halt
 2247              	.LVL132:
 2248 0652 2268     		ldr	r2, [r4]
 2249 0654 31E7     		b	.L130
 2250              	.L126:
1304:Drivers/STM32F4xx_HAL_Driver/Src/stm32f4xx_hal_hcd.c **** 
 2251              		.loc 1 1304 9 is_stmt 1 view .LVU747
1304:Drivers/STM32F4xx_HAL_Driver/Src/stm32f4xx_hal_hcd.c **** 
 2252              		.loc 1 1304 36 is_stmt 0 view .LVU748
 2253 0656 0223     		movs	r3, #2
 2254 0658 82F86030 		strb	r3, [r2, #96]
1307:Drivers/STM32F4xx_HAL_Driver/Src/stm32f4xx_hal_hcd.c ****         tmpreg &= ~USB_OTG_HCCHAR_CHDIS;
 2255              		.loc 1 1307 9 is_stmt 1 view .LVU749
1307:Drivers/STM32F4xx_HAL_Driver/Src/stm32f4xx_hal_hcd.c ****         tmpreg &= ~USB_OTG_HCCHAR_CHDIS;
 2256              		.loc 1 1307 16 is_stmt 0 view .LVU750
 2257 065c 5AF80B30 		ldr	r3, [r10, fp]
 2258              	.LVL133:
1308:Drivers/STM32F4xx_HAL_Driver/Src/stm32f4xx_hal_hcd.c ****         tmpreg |= USB_OTG_HCCHAR_CHENA;
 2259              		.loc 1 1308 9 is_stmt 1 view .LVU751
1308:Drivers/STM32F4xx_HAL_Driver/Src/stm32f4xx_hal_hcd.c ****         tmpreg |= USB_OTG_HCCHAR_CHENA;
 2260              		.loc 1 1308 16 is_stmt 0 view .LVU752
 2261 0660 23F08043 		bic	r3, r3, #1073741824
 2262              	.LVL134:
1309:Drivers/STM32F4xx_HAL_Driver/Src/stm32f4xx_hal_hcd.c ****         USBx_HC(ch_num)->HCCHAR = tmpreg;
 2263              		.loc 1 1309 9 is_stmt 1 view .LVU753
1309:Drivers/STM32F4xx_HAL_Driver/Src/stm32f4xx_hal_hcd.c ****         USBx_HC(ch_num)->HCCHAR = tmpreg;
 2264              		.loc 1 1309 16 is_stmt 0 view .LVU754
 2265 0664 43F00043 		orr	r3, r3, #-2147483648
 2266              	.LVL135:
1310:Drivers/STM32F4xx_HAL_Driver/Src/stm32f4xx_hal_hcd.c ****       }
ARM GAS  /var/folders/lp/x54gwt890xv47sdkqj1k04q40000gn/T//cctevgvi.s 			page 80


 2267              		.loc 1 1310 9 is_stmt 1 view .LVU755
1310:Drivers/STM32F4xx_HAL_Driver/Src/stm32f4xx_hal_hcd.c ****       }
 2268              		.loc 1 1310 33 is_stmt 0 view .LVU756
 2269 0668 4AF80B30 		str	r3, [r10, fp]
 2270 066c 83E6     		b	.L127
 2271              	.LVL136:
 2272              	.L143:
1310:Drivers/STM32F4xx_HAL_Driver/Src/stm32f4xx_hal_hcd.c ****       }
 2273              		.loc 1 1310 33 view .LVU757
 2274              	.LBE24:
 2275              	.LBE77:
 2276              	.LBB78:
 2277              	.LBB42:
1479:Drivers/STM32F4xx_HAL_Driver/Src/stm32f4xx_hal_hcd.c ****   {
 2278              		.loc 1 1479 8 is_stmt 1 view .LVU758
1479:Drivers/STM32F4xx_HAL_Driver/Src/stm32f4xx_hal_hcd.c ****   {
 2279              		.loc 1 1479 28 is_stmt 0 view .LVU759
 2280 066e BB68     		ldr	r3, [r7, #8]
1479:Drivers/STM32F4xx_HAL_Driver/Src/stm32f4xx_hal_hcd.c ****   {
 2281              		.loc 1 1479 11 view .LVU760
 2282 0670 5B05     		lsls	r3, r3, #21
 2283 0672 42D4     		bmi	.L244
1485:Drivers/STM32F4xx_HAL_Driver/Src/stm32f4xx_hal_hcd.c ****   {
 2284              		.loc 1 1485 8 is_stmt 1 view .LVU761
1485:Drivers/STM32F4xx_HAL_Driver/Src/stm32f4xx_hal_hcd.c ****   {
 2285              		.loc 1 1485 28 is_stmt 0 view .LVU762
 2286 0674 BB68     		ldr	r3, [r7, #8]
1485:Drivers/STM32F4xx_HAL_Driver/Src/stm32f4xx_hal_hcd.c ****   {
 2287              		.loc 1 1485 11 view .LVU763
 2288 0676 9907     		lsls	r1, r3, #30
 2289 0678 7FF59BAD 		bpl	.L100
1487:Drivers/STM32F4xx_HAL_Driver/Src/stm32f4xx_hal_hcd.c ****     {
 2290              		.loc 1 1487 5 is_stmt 1 view .LVU764
1487:Drivers/STM32F4xx_HAL_Driver/Src/stm32f4xx_hal_hcd.c ****     {
 2291              		.loc 1 1487 25 is_stmt 0 view .LVU765
 2292 067c 2C23     		movs	r3, #44
 2293 067e 03FB0843 		mla	r3, r3, r8, r4
 2294 0682 93F86130 		ldrb	r3, [r3, #97]	@ zero_extendqisi2
 2295 0686 013B     		subs	r3, r3, #1
 2296 0688 072B     		cmp	r3, #7
 2297 068a 0BD8     		bhi	.L148
 2298 068c DFE803F0 		tbb	[pc, r3]
 2299              	.L150:
 2300 0690 64       		.byte	(.L154-.L150)/2
 2301 0691 0A       		.byte	(.L148-.L150)/2
 2302 0692 04       		.byte	(.L152-.L150)/2
 2303 0693 04       		.byte	(.L152-.L150)/2
 2304 0694 85       		.byte	(.L151-.L150)/2
 2305 0695 16       		.byte	(.L149-.L150)/2
 2306 0696 0A       		.byte	(.L148-.L150)/2
 2307 0697 16       		.byte	(.L149-.L150)/2
 2308              		.p2align 1
 2309              	.L152:
1515:Drivers/STM32F4xx_HAL_Driver/Src/stm32f4xx_hal_hcd.c ****     }
 2310              		.loc 1 1515 7 is_stmt 1 view .LVU766
1515:Drivers/STM32F4xx_HAL_Driver/Src/stm32f4xx_hal_hcd.c ****     }
 2311              		.loc 1 1515 35 is_stmt 0 view .LVU767
ARM GAS  /var/folders/lp/x54gwt890xv47sdkqj1k04q40000gn/T//cctevgvi.s 			page 81


 2312 0698 2C23     		movs	r3, #44
 2313 069a 03FB0843 		mla	r3, r3, r8, r4
 2314 069e 0222     		movs	r2, #2
 2315 06a0 83F86020 		strb	r2, [r3, #96]
 2316              	.L148:
1546:Drivers/STM32F4xx_HAL_Driver/Src/stm32f4xx_hal_hcd.c **** 
 2317              		.loc 1 1546 5 is_stmt 1 view .LVU768
1551:Drivers/STM32F4xx_HAL_Driver/Src/stm32f4xx_hal_hcd.c **** #endif /* USE_HAL_HCD_REGISTER_CALLBACKS */
 2318              		.loc 1 1551 5 is_stmt 0 view .LVU769
 2319 06a4 2C23     		movs	r3, #44
 2320 06a6 03FB0843 		mla	r3, r3, r8, r4
1546:Drivers/STM32F4xx_HAL_Driver/Src/stm32f4xx_hal_hcd.c **** 
 2321              		.loc 1 1546 5 view .LVU770
 2322 06aa 0222     		movs	r2, #2
 2323 06ac BA60     		str	r2, [r7, #8]
1551:Drivers/STM32F4xx_HAL_Driver/Src/stm32f4xx_hal_hcd.c **** #endif /* USE_HAL_HCD_REGISTER_CALLBACKS */
 2324              		.loc 1 1551 5 is_stmt 1 view .LVU771
 2325 06ae 93F86020 		ldrb	r2, [r3, #96]	@ zero_extendqisi2
 2326 06b2 4146     		mov	r1, r8
 2327 06b4 2046     		mov	r0, r4
 2328 06b6 FFF7FEFF 		bl	HAL_HCD_HC_NotifyURBChange_Callback
 2329              	.LVL137:
 2330 06ba 0EE7     		b	.L221
 2331              	.L149:
1524:Drivers/STM32F4xx_HAL_Driver/Src/stm32f4xx_hal_hcd.c ****       if (hhcd->hc[ch_num].ErrCnt > 2U)
 2332              		.loc 1 1524 7 view .LVU772
1524:Drivers/STM32F4xx_HAL_Driver/Src/stm32f4xx_hal_hcd.c ****       if (hhcd->hc[ch_num].ErrCnt > 2U)
 2333              		.loc 1 1524 23 is_stmt 0 view .LVU773
 2334 06bc 2C22     		movs	r2, #44
 2335 06be 02FB0842 		mla	r2, r2, r8, r4
1524:Drivers/STM32F4xx_HAL_Driver/Src/stm32f4xx_hal_hcd.c ****       if (hhcd->hc[ch_num].ErrCnt > 2U)
 2336              		.loc 1 1524 30 view .LVU774
 2337 06c2 D36D     		ldr	r3, [r2, #92]
 2338 06c4 0133     		adds	r3, r3, #1
1525:Drivers/STM32F4xx_HAL_Driver/Src/stm32f4xx_hal_hcd.c ****       {
 2339              		.loc 1 1525 10 view .LVU775
 2340 06c6 022B     		cmp	r3, #2
1524:Drivers/STM32F4xx_HAL_Driver/Src/stm32f4xx_hal_hcd.c ****       if (hhcd->hc[ch_num].ErrCnt > 2U)
 2341              		.loc 1 1524 30 view .LVU776
 2342 06c8 D365     		str	r3, [r2, #92]
1525:Drivers/STM32F4xx_HAL_Driver/Src/stm32f4xx_hal_hcd.c ****       {
 2343              		.loc 1 1525 7 is_stmt 1 view .LVU777
1525:Drivers/STM32F4xx_HAL_Driver/Src/stm32f4xx_hal_hcd.c ****       {
 2344              		.loc 1 1525 10 is_stmt 0 view .LVU778
 2345 06ca 39D9     		bls	.L156
1527:Drivers/STM32F4xx_HAL_Driver/Src/stm32f4xx_hal_hcd.c ****         hhcd->hc[ch_num].urb_state = URB_ERROR;
 2346              		.loc 1 1527 9 is_stmt 1 view .LVU779
1527:Drivers/STM32F4xx_HAL_Driver/Src/stm32f4xx_hal_hcd.c ****         hhcd->hc[ch_num].urb_state = URB_ERROR;
 2347              		.loc 1 1527 33 is_stmt 0 view .LVU780
 2348 06cc 0023     		movs	r3, #0
 2349 06ce D365     		str	r3, [r2, #92]
1528:Drivers/STM32F4xx_HAL_Driver/Src/stm32f4xx_hal_hcd.c ****       }
 2350              		.loc 1 1528 9 is_stmt 1 view .LVU781
1528:Drivers/STM32F4xx_HAL_Driver/Src/stm32f4xx_hal_hcd.c ****       }
 2351              		.loc 1 1528 36 is_stmt 0 view .LVU782
 2352 06d0 0423     		movs	r3, #4
 2353 06d2 82F86030 		strb	r3, [r2, #96]
ARM GAS  /var/folders/lp/x54gwt890xv47sdkqj1k04q40000gn/T//cctevgvi.s 			page 82


 2354 06d6 E5E7     		b	.L148
 2355              	.LVL138:
 2356              	.L96:
1528:Drivers/STM32F4xx_HAL_Driver/Src/stm32f4xx_hal_hcd.c ****       }
 2357              		.loc 1 1528 36 view .LVU783
 2358              	.LBE42:
 2359              	.LBE78:
 2360              	.LBB79:
 2361              	.LBB53:
1599:Drivers/STM32F4xx_HAL_Driver/Src/stm32f4xx_hal_hcd.c ****           {
 2362              		.loc 1 1599 55 discriminator 1 view .LVU784
 2363 06d8 334A     		ldr	r2, .L245
 2364 06da 0A40     		ands	r2, r2, r1
 2365 06dc 002A     		cmp	r2, #0
 2366 06de A9D0     		beq	.L218
1602:Drivers/STM32F4xx_HAL_Driver/Src/stm32f4xx_hal_hcd.c ****             tmpreg &= ~USB_OTG_HCCHAR_CHDIS;
 2367              		.loc 1 1602 13 is_stmt 1 view .LVU785
1602:Drivers/STM32F4xx_HAL_Driver/Src/stm32f4xx_hal_hcd.c ****             tmpreg &= ~USB_OTG_HCCHAR_CHDIS;
 2368              		.loc 1 1602 20 is_stmt 0 view .LVU786
 2369 06e0 F258     		ldr	r2, [r6, r3]
 2370              	.LVL139:
1603:Drivers/STM32F4xx_HAL_Driver/Src/stm32f4xx_hal_hcd.c ****             tmpreg |= USB_OTG_HCCHAR_CHENA;
 2371              		.loc 1 1603 13 is_stmt 1 view .LVU787
1603:Drivers/STM32F4xx_HAL_Driver/Src/stm32f4xx_hal_hcd.c ****             tmpreg |= USB_OTG_HCCHAR_CHENA;
 2372              		.loc 1 1603 20 is_stmt 0 view .LVU788
 2373 06e2 22F08042 		bic	r2, r2, #1073741824
 2374              	.LVL140:
1604:Drivers/STM32F4xx_HAL_Driver/Src/stm32f4xx_hal_hcd.c ****             USBx_HC(ch_num)->HCCHAR = tmpreg;
 2375              		.loc 1 1604 13 is_stmt 1 view .LVU789
1604:Drivers/STM32F4xx_HAL_Driver/Src/stm32f4xx_hal_hcd.c ****             USBx_HC(ch_num)->HCCHAR = tmpreg;
 2376              		.loc 1 1604 20 is_stmt 0 view .LVU790
 2377 06e6 42F00042 		orr	r2, r2, #-2147483648
 2378              	.LVL141:
1605:Drivers/STM32F4xx_HAL_Driver/Src/stm32f4xx_hal_hcd.c ****             hhcd->hc[ch_num].toggle_in ^= 1U;
 2379              		.loc 1 1605 13 is_stmt 1 view .LVU791
1605:Drivers/STM32F4xx_HAL_Driver/Src/stm32f4xx_hal_hcd.c ****             hhcd->hc[ch_num].toggle_in ^= 1U;
 2380              		.loc 1 1605 37 is_stmt 0 view .LVU792
 2381 06ea F250     		str	r2, [r6, r3]
1606:Drivers/STM32F4xx_HAL_Driver/Src/stm32f4xx_hal_hcd.c ****           }
 2382              		.loc 1 1606 13 is_stmt 1 view .LVU793
1606:Drivers/STM32F4xx_HAL_Driver/Src/stm32f4xx_hal_hcd.c ****           }
 2383              		.loc 1 1606 40 is_stmt 0 view .LVU794
 2384 06ec 98F85430 		ldrb	r3, [r8, #84]	@ zero_extendqisi2
 2385 06f0 83F00103 		eor	r3, r3, #1
 2386 06f4 88F85430 		strb	r3, [r8, #84]
 2387 06f8 9CE7     		b	.L218
 2388              	.LVL142:
 2389              	.L244:
1606:Drivers/STM32F4xx_HAL_Driver/Src/stm32f4xx_hal_hcd.c ****           }
 2390              		.loc 1 1606 40 view .LVU795
 2391              	.LBE53:
 2392              	.LBE79:
 2393              	.LBB80:
 2394              	.LBB43:
1481:Drivers/STM32F4xx_HAL_Driver/Src/stm32f4xx_hal_hcd.c ****     (void)USB_HC_Halt(hhcd->Instance, (uint8_t)ch_num);
 2395              		.loc 1 1481 5 is_stmt 1 view .LVU796
1481:Drivers/STM32F4xx_HAL_Driver/Src/stm32f4xx_hal_hcd.c ****     (void)USB_HC_Halt(hhcd->Instance, (uint8_t)ch_num);
ARM GAS  /var/folders/lp/x54gwt890xv47sdkqj1k04q40000gn/T//cctevgvi.s 			page 83


 2396              		.loc 1 1481 28 is_stmt 0 view .LVU797
 2397 06fa 2C23     		movs	r3, #44
 2398 06fc 03FB0843 		mla	r3, r3, r8, r4
 2399 0700 0822     		movs	r2, #8
 2400 0702 83F86120 		strb	r2, [r3, #97]
1482:Drivers/STM32F4xx_HAL_Driver/Src/stm32f4xx_hal_hcd.c ****     __HAL_HCD_CLEAR_HC_INT(ch_num, USB_OTG_HCINT_DTERR);
 2401              		.loc 1 1482 5 is_stmt 1 view .LVU798
1482:Drivers/STM32F4xx_HAL_Driver/Src/stm32f4xx_hal_hcd.c ****     __HAL_HCD_CLEAR_HC_INT(ch_num, USB_OTG_HCINT_DTERR);
 2402              		.loc 1 1482 11 is_stmt 0 view .LVU799
 2403 0706 4146     		mov	r1, r8
 2404 0708 FFF7FEFF 		bl	USB_HC_Halt
 2405              	.LVL143:
1483:Drivers/STM32F4xx_HAL_Driver/Src/stm32f4xx_hal_hcd.c ****   }
 2406              		.loc 1 1483 5 is_stmt 1 view .LVU800
 2407 070c 4FF48063 		mov	r3, #1024
 2408 0710 BB60     		str	r3, [r7, #8]
 2409              	.LBE43:
 2410              	.LBE80:
 602:Drivers/STM32F4xx_HAL_Driver/Src/stm32f4xx_hal_hcd.c ****     }
 2411              		.loc 1 602 7 is_stmt 0 view .LVU801
 2412 0712 2068     		ldr	r0, [r4]
 2413 0714 A268     		ldr	r2, [r4, #8]
 2414              	.LBB81:
 2415              	.LBB44:
 2416 0716 4CE5     		b	.L100
 2417              	.L242:
1455:Drivers/STM32F4xx_HAL_Driver/Src/stm32f4xx_hal_hcd.c ****       (void)USB_HC_Halt(hhcd->Instance, (uint8_t)ch_num);
 2418              		.loc 1 1455 7 is_stmt 1 view .LVU802
1455:Drivers/STM32F4xx_HAL_Driver/Src/stm32f4xx_hal_hcd.c ****       (void)USB_HC_Halt(hhcd->Instance, (uint8_t)ch_num);
 2419              		.loc 1 1455 30 is_stmt 0 view .LVU803
 2420 0718 2C23     		movs	r3, #44
 2421 071a 03FB0843 		mla	r3, r3, r8, r4
 2422 071e 0622     		movs	r2, #6
1456:Drivers/STM32F4xx_HAL_Driver/Src/stm32f4xx_hal_hcd.c ****     }
 2423              		.loc 1 1456 13 view .LVU804
 2424 0720 4146     		mov	r1, r8
1455:Drivers/STM32F4xx_HAL_Driver/Src/stm32f4xx_hal_hcd.c ****       (void)USB_HC_Halt(hhcd->Instance, (uint8_t)ch_num);
 2425              		.loc 1 1455 30 view .LVU805
 2426 0722 83F86120 		strb	r2, [r3, #97]
1456:Drivers/STM32F4xx_HAL_Driver/Src/stm32f4xx_hal_hcd.c ****     }
 2427              		.loc 1 1456 7 is_stmt 1 view .LVU806
1456:Drivers/STM32F4xx_HAL_Driver/Src/stm32f4xx_hal_hcd.c ****     }
 2428              		.loc 1 1456 13 is_stmt 0 view .LVU807
 2429 0726 FFF7FEFF 		bl	USB_HC_Halt
 2430              	.LVL144:
 2431 072a 56E7     		b	.L145
 2432              	.L243:
1463:Drivers/STM32F4xx_HAL_Driver/Src/stm32f4xx_hal_hcd.c ****         hhcd->hc[ch_num].urb_state = URB_ERROR;
 2433              		.loc 1 1463 9 is_stmt 1 view .LVU808
1464:Drivers/STM32F4xx_HAL_Driver/Src/stm32f4xx_hal_hcd.c **** 
 2434              		.loc 1 1464 36 is_stmt 0 view .LVU809
 2435 072c 0422     		movs	r2, #4
1463:Drivers/STM32F4xx_HAL_Driver/Src/stm32f4xx_hal_hcd.c ****         hhcd->hc[ch_num].urb_state = URB_ERROR;
 2436              		.loc 1 1463 33 view .LVU810
 2437 072e 0020     		movs	r0, #0
 2438 0730 D865     		str	r0, [r3, #92]
1464:Drivers/STM32F4xx_HAL_Driver/Src/stm32f4xx_hal_hcd.c **** 
ARM GAS  /var/folders/lp/x54gwt890xv47sdkqj1k04q40000gn/T//cctevgvi.s 			page 84


 2439              		.loc 1 1464 9 is_stmt 1 view .LVU811
1469:Drivers/STM32F4xx_HAL_Driver/Src/stm32f4xx_hal_hcd.c **** #endif /* USE_HAL_HCD_REGISTER_CALLBACKS */
 2440              		.loc 1 1469 9 view .LVU812
 2441 0732 4146     		mov	r1, r8
1464:Drivers/STM32F4xx_HAL_Driver/Src/stm32f4xx_hal_hcd.c **** 
 2442              		.loc 1 1464 36 is_stmt 0 view .LVU813
 2443 0734 83F86020 		strb	r2, [r3, #96]
1469:Drivers/STM32F4xx_HAL_Driver/Src/stm32f4xx_hal_hcd.c **** #endif /* USE_HAL_HCD_REGISTER_CALLBACKS */
 2444              		.loc 1 1469 9 view .LVU814
 2445 0738 2046     		mov	r0, r4
 2446 073a FFF7FEFF 		bl	HAL_HCD_HC_NotifyURBChange_Callback
 2447              	.LVL145:
 2448 073e 4CE7     		b	.L145
 2449              	.L156:
1532:Drivers/STM32F4xx_HAL_Driver/Src/stm32f4xx_hal_hcd.c **** 
 2450              		.loc 1 1532 9 is_stmt 1 view .LVU815
1532:Drivers/STM32F4xx_HAL_Driver/Src/stm32f4xx_hal_hcd.c **** 
 2451              		.loc 1 1532 36 is_stmt 0 view .LVU816
 2452 0740 0223     		movs	r3, #2
 2453 0742 82F86030 		strb	r3, [r2, #96]
1535:Drivers/STM32F4xx_HAL_Driver/Src/stm32f4xx_hal_hcd.c ****         tmpreg &= ~USB_OTG_HCCHAR_CHDIS;
 2454              		.loc 1 1535 9 is_stmt 1 view .LVU817
1535:Drivers/STM32F4xx_HAL_Driver/Src/stm32f4xx_hal_hcd.c ****         tmpreg &= ~USB_OTG_HCCHAR_CHDIS;
 2455              		.loc 1 1535 16 is_stmt 0 view .LVU818
 2456 0746 5AF80B30 		ldr	r3, [r10, fp]
 2457              	.LVL146:
1536:Drivers/STM32F4xx_HAL_Driver/Src/stm32f4xx_hal_hcd.c ****         tmpreg |= USB_OTG_HCCHAR_CHENA;
 2458              		.loc 1 1536 9 is_stmt 1 view .LVU819
1536:Drivers/STM32F4xx_HAL_Driver/Src/stm32f4xx_hal_hcd.c ****         tmpreg |= USB_OTG_HCCHAR_CHENA;
 2459              		.loc 1 1536 16 is_stmt 0 view .LVU820
 2460 074a 23F08043 		bic	r3, r3, #1073741824
 2461              	.LVL147:
1537:Drivers/STM32F4xx_HAL_Driver/Src/stm32f4xx_hal_hcd.c ****         USBx_HC(ch_num)->HCCHAR = tmpreg;
 2462              		.loc 1 1537 9 is_stmt 1 view .LVU821
1537:Drivers/STM32F4xx_HAL_Driver/Src/stm32f4xx_hal_hcd.c ****         USBx_HC(ch_num)->HCCHAR = tmpreg;
 2463              		.loc 1 1537 16 is_stmt 0 view .LVU822
 2464 074e 43F00043 		orr	r3, r3, #-2147483648
 2465              	.LVL148:
1538:Drivers/STM32F4xx_HAL_Driver/Src/stm32f4xx_hal_hcd.c ****       }
 2466              		.loc 1 1538 9 is_stmt 1 view .LVU823
1538:Drivers/STM32F4xx_HAL_Driver/Src/stm32f4xx_hal_hcd.c ****       }
 2467              		.loc 1 1538 33 is_stmt 0 view .LVU824
 2468 0752 4AF80B30 		str	r3, [r10, fp]
 2469 0756 A5E7     		b	.L148
 2470              	.LVL149:
 2471              	.L154:
1489:Drivers/STM32F4xx_HAL_Driver/Src/stm32f4xx_hal_hcd.c ****       if ((hhcd->hc[ch_num].ep_type == EP_TYPE_BULK) ||
 2472              		.loc 1 1489 7 is_stmt 1 view .LVU825
1489:Drivers/STM32F4xx_HAL_Driver/Src/stm32f4xx_hal_hcd.c ****       if ((hhcd->hc[ch_num].ep_type == EP_TYPE_BULK) ||
 2473              		.loc 1 1489 35 is_stmt 0 view .LVU826
 2474 0758 2C23     		movs	r3, #44
 2475 075a 03FB0843 		mla	r3, r3, r8, r4
 2476 075e 0122     		movs	r2, #1
 2477 0760 83F86020 		strb	r2, [r3, #96]
1490:Drivers/STM32F4xx_HAL_Driver/Src/stm32f4xx_hal_hcd.c ****           (hhcd->hc[ch_num].ep_type == EP_TYPE_INTR))
 2478              		.loc 1 1490 7 is_stmt 1 view .LVU827
1490:Drivers/STM32F4xx_HAL_Driver/Src/stm32f4xx_hal_hcd.c ****           (hhcd->hc[ch_num].ep_type == EP_TYPE_INTR))
ARM GAS  /var/folders/lp/x54gwt890xv47sdkqj1k04q40000gn/T//cctevgvi.s 			page 85


 2479              		.loc 1 1490 54 is_stmt 0 view .LVU828
 2480 0764 93F83F20 		ldrb	r2, [r3, #63]	@ zero_extendqisi2
1490:Drivers/STM32F4xx_HAL_Driver/Src/stm32f4xx_hal_hcd.c ****           (hhcd->hc[ch_num].ep_type == EP_TYPE_INTR))
 2481              		.loc 1 1490 10 view .LVU829
 2482 0768 023A     		subs	r2, r2, #2
 2483 076a 012A     		cmp	r2, #1
 2484 076c 9AD8     		bhi	.L148
1493:Drivers/STM32F4xx_HAL_Driver/Src/stm32f4xx_hal_hcd.c ****         {
 2485              		.loc 1 1493 9 is_stmt 1 view .LVU830
1493:Drivers/STM32F4xx_HAL_Driver/Src/stm32f4xx_hal_hcd.c ****         {
 2486              		.loc 1 1493 23 is_stmt 0 view .LVU831
 2487 076e 2269     		ldr	r2, [r4, #16]
1493:Drivers/STM32F4xx_HAL_Driver/Src/stm32f4xx_hal_hcd.c ****         {
 2488              		.loc 1 1493 12 view .LVU832
 2489 0770 62B1     		cbz	r2, .L220
1498:Drivers/STM32F4xx_HAL_Driver/Src/stm32f4xx_hal_hcd.c ****         {
 2490              		.loc 1 1498 9 is_stmt 1 view .LVU833
1498:Drivers/STM32F4xx_HAL_Driver/Src/stm32f4xx_hal_hcd.c ****         {
 2491              		.loc 1 1498 12 is_stmt 0 view .LVU834
 2492 0772 012A     		cmp	r2, #1
 2493 0774 96D1     		bne	.L148
1498:Drivers/STM32F4xx_HAL_Driver/Src/stm32f4xx_hal_hcd.c ****         {
 2494              		.loc 1 1498 63 discriminator 1 view .LVU835
 2495 0776 DA6C     		ldr	r2, [r3, #76]
1498:Drivers/STM32F4xx_HAL_Driver/Src/stm32f4xx_hal_hcd.c ****         {
 2496              		.loc 1 1498 43 discriminator 1 view .LVU836
 2497 0778 002A     		cmp	r2, #0
 2498 077a 93D0     		beq	.L148
1500:Drivers/STM32F4xx_HAL_Driver/Src/stm32f4xx_hal_hcd.c **** 
 2499              		.loc 1 1500 11 is_stmt 1 view .LVU837
1500:Drivers/STM32F4xx_HAL_Driver/Src/stm32f4xx_hal_hcd.c **** 
 2500              		.loc 1 1500 70 is_stmt 0 view .LVU838
 2501 077c B3F84010 		ldrh	r1, [r3, #64]
 2502              	.LVL150:
1502:Drivers/STM32F4xx_HAL_Driver/Src/stm32f4xx_hal_hcd.c ****           {
 2503              		.loc 1 1502 11 is_stmt 1 view .LVU839
1500:Drivers/STM32F4xx_HAL_Driver/Src/stm32f4xx_hal_hcd.c **** 
 2504              		.loc 1 1500 82 is_stmt 0 view .LVU840
 2505 0780 013A     		subs	r2, r2, #1
 2506              	.LVL151:
1500:Drivers/STM32F4xx_HAL_Driver/Src/stm32f4xx_hal_hcd.c **** 
 2507              		.loc 1 1500 82 view .LVU841
 2508 0782 0A44     		add	r2, r2, r1
1500:Drivers/STM32F4xx_HAL_Driver/Src/stm32f4xx_hal_hcd.c **** 
 2509              		.loc 1 1500 23 view .LVU842
 2510 0784 B2FBF1F2 		udiv	r2, r2, r1
1502:Drivers/STM32F4xx_HAL_Driver/Src/stm32f4xx_hal_hcd.c ****           {
 2511              		.loc 1 1502 14 view .LVU843
 2512 0788 D207     		lsls	r2, r2, #31
 2513 078a 8BD5     		bpl	.L148
 2514              	.LVL152:
 2515              	.L220:
1504:Drivers/STM32F4xx_HAL_Driver/Src/stm32f4xx_hal_hcd.c ****           }
 2516              		.loc 1 1504 13 is_stmt 1 view .LVU844
1504:Drivers/STM32F4xx_HAL_Driver/Src/stm32f4xx_hal_hcd.c ****           }
 2517              		.loc 1 1504 41 is_stmt 0 view .LVU845
 2518 078c 93F85520 		ldrb	r2, [r3, #85]	@ zero_extendqisi2
ARM GAS  /var/folders/lp/x54gwt890xv47sdkqj1k04q40000gn/T//cctevgvi.s 			page 86


 2519 0790 82F00102 		eor	r2, r2, #1
 2520 0794 83F85520 		strb	r2, [r3, #85]
 2521 0798 84E7     		b	.L148
 2522              	.L151:
1519:Drivers/STM32F4xx_HAL_Driver/Src/stm32f4xx_hal_hcd.c ****     }
 2523              		.loc 1 1519 7 is_stmt 1 view .LVU846
1519:Drivers/STM32F4xx_HAL_Driver/Src/stm32f4xx_hal_hcd.c ****     }
 2524              		.loc 1 1519 35 is_stmt 0 view .LVU847
 2525 079a 2C23     		movs	r3, #44
 2526 079c 03FB0843 		mla	r3, r3, r8, r4
 2527 07a0 0522     		movs	r2, #5
 2528 07a2 83F86020 		strb	r2, [r3, #96]
 2529 07a6 7DE7     		b	.L148
 2530              	.L246:
 2531              		.align	2
 2532              	.L245:
 2533 07a8 0000F81F 		.word	536346624
 2534              	.LBE44:
 2535              	.LBE81:
 2536              		.cfi_endproc
 2537              	.LFE242:
 2539              		.section	.text.HAL_HCD_Start,"ax",%progbits
 2540              		.align	1
 2541              		.p2align 2,,3
 2542              		.global	HAL_HCD_Start
 2543              		.syntax unified
 2544              		.thumb
 2545              		.thumb_func
 2547              	HAL_HCD_Start:
 2548              	.LVL153:
 2549              	.LFB250:
1026:Drivers/STM32F4xx_HAL_Driver/Src/stm32f4xx_hal_hcd.c ****   __HAL_LOCK(hhcd);
 2550              		.loc 1 1026 1 is_stmt 1 view -0
 2551              		.cfi_startproc
 2552              		@ args = 0, pretend = 0, frame = 0
 2553              		@ frame_needed = 0, uses_anonymous_args = 0
1027:Drivers/STM32F4xx_HAL_Driver/Src/stm32f4xx_hal_hcd.c ****   /* Enable port power */
 2554              		.loc 1 1027 3 view .LVU849
1027:Drivers/STM32F4xx_HAL_Driver/Src/stm32f4xx_hal_hcd.c ****   /* Enable port power */
 2555              		.loc 1 1027 3 view .LVU850
 2556 0000 90F8F832 		ldrb	r3, [r0, #760]	@ zero_extendqisi2
 2557 0004 012B     		cmp	r3, #1
 2558 0006 0FD0     		beq	.L249
1027:Drivers/STM32F4xx_HAL_Driver/Src/stm32f4xx_hal_hcd.c ****   /* Enable port power */
 2559              		.loc 1 1027 3 discriminator 2 view .LVU851
1026:Drivers/STM32F4xx_HAL_Driver/Src/stm32f4xx_hal_hcd.c ****   __HAL_LOCK(hhcd);
 2560              		.loc 1 1026 1 is_stmt 0 view .LVU852
 2561 0008 10B5     		push	{r4, lr}
 2562              		.cfi_def_cfa_offset 8
 2563              		.cfi_offset 4, -8
 2564              		.cfi_offset 14, -4
 2565 000a 0446     		mov	r4, r0
1027:Drivers/STM32F4xx_HAL_Driver/Src/stm32f4xx_hal_hcd.c ****   /* Enable port power */
 2566              		.loc 1 1027 3 discriminator 2 view .LVU853
 2567 000c 0121     		movs	r1, #1
1029:Drivers/STM32F4xx_HAL_Driver/Src/stm32f4xx_hal_hcd.c **** 
 2568              		.loc 1 1029 9 view .LVU854
ARM GAS  /var/folders/lp/x54gwt890xv47sdkqj1k04q40000gn/T//cctevgvi.s 			page 87


 2569 000e 0068     		ldr	r0, [r0]
 2570              	.LVL154:
1027:Drivers/STM32F4xx_HAL_Driver/Src/stm32f4xx_hal_hcd.c ****   /* Enable port power */
 2571              		.loc 1 1027 3 discriminator 2 view .LVU855
 2572 0010 84F8F812 		strb	r1, [r4, #760]
1027:Drivers/STM32F4xx_HAL_Driver/Src/stm32f4xx_hal_hcd.c ****   /* Enable port power */
 2573              		.loc 1 1027 3 is_stmt 1 discriminator 2 view .LVU856
1029:Drivers/STM32F4xx_HAL_Driver/Src/stm32f4xx_hal_hcd.c **** 
 2574              		.loc 1 1029 3 view .LVU857
1029:Drivers/STM32F4xx_HAL_Driver/Src/stm32f4xx_hal_hcd.c **** 
 2575              		.loc 1 1029 9 is_stmt 0 view .LVU858
 2576 0014 FFF7FEFF 		bl	USB_DriveVbus
 2577              	.LVL155:
1032:Drivers/STM32F4xx_HAL_Driver/Src/stm32f4xx_hal_hcd.c ****   __HAL_UNLOCK(hhcd);
 2578              		.loc 1 1032 3 is_stmt 1 view .LVU859
 2579 0018 2068     		ldr	r0, [r4]
 2580 001a FFF7FEFF 		bl	USB_EnableGlobalInt
 2581              	.LVL156:
1033:Drivers/STM32F4xx_HAL_Driver/Src/stm32f4xx_hal_hcd.c **** 
 2582              		.loc 1 1033 3 view .LVU860
1033:Drivers/STM32F4xx_HAL_Driver/Src/stm32f4xx_hal_hcd.c **** 
 2583              		.loc 1 1033 3 view .LVU861
 2584 001e 0023     		movs	r3, #0
 2585 0020 84F8F832 		strb	r3, [r4, #760]
1033:Drivers/STM32F4xx_HAL_Driver/Src/stm32f4xx_hal_hcd.c **** 
 2586              		.loc 1 1033 3 view .LVU862
1035:Drivers/STM32F4xx_HAL_Driver/Src/stm32f4xx_hal_hcd.c **** }
 2587              		.loc 1 1035 3 view .LVU863
1035:Drivers/STM32F4xx_HAL_Driver/Src/stm32f4xx_hal_hcd.c **** }
 2588              		.loc 1 1035 10 is_stmt 0 view .LVU864
 2589 0024 1846     		mov	r0, r3
1036:Drivers/STM32F4xx_HAL_Driver/Src/stm32f4xx_hal_hcd.c **** 
 2590              		.loc 1 1036 1 view .LVU865
 2591 0026 10BD     		pop	{r4, pc}
 2592              	.LVL157:
 2593              	.L249:
 2594              		.cfi_def_cfa_offset 0
 2595              		.cfi_restore 4
 2596              		.cfi_restore 14
1027:Drivers/STM32F4xx_HAL_Driver/Src/stm32f4xx_hal_hcd.c ****   /* Enable port power */
 2597              		.loc 1 1027 3 discriminator 1 view .LVU866
 2598 0028 0220     		movs	r0, #2
 2599              	.LVL158:
1036:Drivers/STM32F4xx_HAL_Driver/Src/stm32f4xx_hal_hcd.c **** 
 2600              		.loc 1 1036 1 view .LVU867
 2601 002a 7047     		bx	lr
 2602              		.cfi_endproc
 2603              	.LFE250:
 2605              		.section	.text.HAL_HCD_Stop,"ax",%progbits
 2606              		.align	1
 2607              		.p2align 2,,3
 2608              		.global	HAL_HCD_Stop
 2609              		.syntax unified
 2610              		.thumb
 2611              		.thumb_func
 2613              	HAL_HCD_Stop:
 2614              	.LVL159:
ARM GAS  /var/folders/lp/x54gwt890xv47sdkqj1k04q40000gn/T//cctevgvi.s 			page 88


 2615              	.LFB251:
1045:Drivers/STM32F4xx_HAL_Driver/Src/stm32f4xx_hal_hcd.c ****   __HAL_LOCK(hhcd);
 2616              		.loc 1 1045 1 is_stmt 1 view -0
 2617              		.cfi_startproc
 2618              		@ args = 0, pretend = 0, frame = 0
 2619              		@ frame_needed = 0, uses_anonymous_args = 0
1046:Drivers/STM32F4xx_HAL_Driver/Src/stm32f4xx_hal_hcd.c ****   (void)USB_StopHost(hhcd->Instance);
 2620              		.loc 1 1046 3 view .LVU869
1046:Drivers/STM32F4xx_HAL_Driver/Src/stm32f4xx_hal_hcd.c ****   (void)USB_StopHost(hhcd->Instance);
 2621              		.loc 1 1046 3 view .LVU870
 2622 0000 90F8F832 		ldrb	r3, [r0, #760]	@ zero_extendqisi2
 2623 0004 012B     		cmp	r3, #1
 2624 0006 0CD0     		beq	.L256
1046:Drivers/STM32F4xx_HAL_Driver/Src/stm32f4xx_hal_hcd.c ****   (void)USB_StopHost(hhcd->Instance);
 2625              		.loc 1 1046 3 discriminator 2 view .LVU871
1045:Drivers/STM32F4xx_HAL_Driver/Src/stm32f4xx_hal_hcd.c ****   __HAL_LOCK(hhcd);
 2626              		.loc 1 1045 1 is_stmt 0 view .LVU872
 2627 0008 10B5     		push	{r4, lr}
 2628              		.cfi_def_cfa_offset 8
 2629              		.cfi_offset 4, -8
 2630              		.cfi_offset 14, -4
 2631 000a 0446     		mov	r4, r0
1046:Drivers/STM32F4xx_HAL_Driver/Src/stm32f4xx_hal_hcd.c ****   (void)USB_StopHost(hhcd->Instance);
 2632              		.loc 1 1046 3 discriminator 2 view .LVU873
 2633 000c 0123     		movs	r3, #1
1047:Drivers/STM32F4xx_HAL_Driver/Src/stm32f4xx_hal_hcd.c ****   __HAL_UNLOCK(hhcd);
 2634              		.loc 1 1047 9 view .LVU874
 2635 000e 0068     		ldr	r0, [r0]
 2636              	.LVL160:
1046:Drivers/STM32F4xx_HAL_Driver/Src/stm32f4xx_hal_hcd.c ****   (void)USB_StopHost(hhcd->Instance);
 2637              		.loc 1 1046 3 discriminator 2 view .LVU875
 2638 0010 84F8F832 		strb	r3, [r4, #760]
1046:Drivers/STM32F4xx_HAL_Driver/Src/stm32f4xx_hal_hcd.c ****   (void)USB_StopHost(hhcd->Instance);
 2639              		.loc 1 1046 3 is_stmt 1 discriminator 2 view .LVU876
1047:Drivers/STM32F4xx_HAL_Driver/Src/stm32f4xx_hal_hcd.c ****   __HAL_UNLOCK(hhcd);
 2640              		.loc 1 1047 3 view .LVU877
1047:Drivers/STM32F4xx_HAL_Driver/Src/stm32f4xx_hal_hcd.c ****   __HAL_UNLOCK(hhcd);
 2641              		.loc 1 1047 9 is_stmt 0 view .LVU878
 2642 0014 FFF7FEFF 		bl	USB_StopHost
 2643              	.LVL161:
1048:Drivers/STM32F4xx_HAL_Driver/Src/stm32f4xx_hal_hcd.c **** 
 2644              		.loc 1 1048 3 is_stmt 1 view .LVU879
1048:Drivers/STM32F4xx_HAL_Driver/Src/stm32f4xx_hal_hcd.c **** 
 2645              		.loc 1 1048 3 view .LVU880
 2646 0018 0023     		movs	r3, #0
 2647 001a 84F8F832 		strb	r3, [r4, #760]
1048:Drivers/STM32F4xx_HAL_Driver/Src/stm32f4xx_hal_hcd.c **** 
 2648              		.loc 1 1048 3 view .LVU881
1050:Drivers/STM32F4xx_HAL_Driver/Src/stm32f4xx_hal_hcd.c **** }
 2649              		.loc 1 1050 3 view .LVU882
1050:Drivers/STM32F4xx_HAL_Driver/Src/stm32f4xx_hal_hcd.c **** }
 2650              		.loc 1 1050 10 is_stmt 0 view .LVU883
 2651 001e 1846     		mov	r0, r3
1051:Drivers/STM32F4xx_HAL_Driver/Src/stm32f4xx_hal_hcd.c **** 
 2652              		.loc 1 1051 1 view .LVU884
 2653 0020 10BD     		pop	{r4, pc}
 2654              	.LVL162:
ARM GAS  /var/folders/lp/x54gwt890xv47sdkqj1k04q40000gn/T//cctevgvi.s 			page 89


 2655              	.L256:
 2656              		.cfi_def_cfa_offset 0
 2657              		.cfi_restore 4
 2658              		.cfi_restore 14
1046:Drivers/STM32F4xx_HAL_Driver/Src/stm32f4xx_hal_hcd.c ****   (void)USB_StopHost(hhcd->Instance);
 2659              		.loc 1 1046 3 discriminator 1 view .LVU885
 2660 0022 0220     		movs	r0, #2
 2661              	.LVL163:
1051:Drivers/STM32F4xx_HAL_Driver/Src/stm32f4xx_hal_hcd.c **** 
 2662              		.loc 1 1051 1 view .LVU886
 2663 0024 7047     		bx	lr
 2664              		.cfi_endproc
 2665              	.LFE251:
 2667 0026 00BF     		.section	.text.HAL_HCD_ResetPort,"ax",%progbits
 2668              		.align	1
 2669              		.p2align 2,,3
 2670              		.global	HAL_HCD_ResetPort
 2671              		.syntax unified
 2672              		.thumb
 2673              		.thumb_func
 2675              	HAL_HCD_ResetPort:
 2676              	.LVL164:
 2677              	.LFB252:
1059:Drivers/STM32F4xx_HAL_Driver/Src/stm32f4xx_hal_hcd.c ****   return (USB_ResetPort(hhcd->Instance));
 2678              		.loc 1 1059 1 is_stmt 1 view -0
 2679              		.cfi_startproc
 2680              		@ args = 0, pretend = 0, frame = 0
 2681              		@ frame_needed = 0, uses_anonymous_args = 0
 2682              		@ link register save eliminated.
1060:Drivers/STM32F4xx_HAL_Driver/Src/stm32f4xx_hal_hcd.c **** }
 2683              		.loc 1 1060 3 view .LVU888
1060:Drivers/STM32F4xx_HAL_Driver/Src/stm32f4xx_hal_hcd.c **** }
 2684              		.loc 1 1060 11 is_stmt 0 view .LVU889
 2685 0000 0068     		ldr	r0, [r0]
 2686              	.LVL165:
1060:Drivers/STM32F4xx_HAL_Driver/Src/stm32f4xx_hal_hcd.c **** }
 2687              		.loc 1 1060 11 view .LVU890
 2688 0002 FFF7FEBF 		b	USB_ResetPort
 2689              	.LVL166:
 2690              		.cfi_endproc
 2691              	.LFE252:
 2693 0006 00BF     		.section	.text.HAL_HCD_GetState,"ax",%progbits
 2694              		.align	1
 2695              		.p2align 2,,3
 2696              		.global	HAL_HCD_GetState
 2697              		.syntax unified
 2698              		.thumb
 2699              		.thumb_func
 2701              	HAL_HCD_GetState:
 2702              	.LVL167:
 2703              	.LFB253:
1088:Drivers/STM32F4xx_HAL_Driver/Src/stm32f4xx_hal_hcd.c ****   return hhcd->State;
 2704              		.loc 1 1088 1 is_stmt 1 view -0
 2705              		.cfi_startproc
 2706              		@ args = 0, pretend = 0, frame = 0
 2707              		@ frame_needed = 0, uses_anonymous_args = 0
 2708              		@ link register save eliminated.
ARM GAS  /var/folders/lp/x54gwt890xv47sdkqj1k04q40000gn/T//cctevgvi.s 			page 90


1089:Drivers/STM32F4xx_HAL_Driver/Src/stm32f4xx_hal_hcd.c **** }
 2709              		.loc 1 1089 3 view .LVU892
1089:Drivers/STM32F4xx_HAL_Driver/Src/stm32f4xx_hal_hcd.c **** }
 2710              		.loc 1 1089 14 is_stmt 0 view .LVU893
 2711 0000 90F8F902 		ldrb	r0, [r0, #761]	@ zero_extendqisi2
 2712              	.LVL168:
1090:Drivers/STM32F4xx_HAL_Driver/Src/stm32f4xx_hal_hcd.c **** 
 2713              		.loc 1 1090 1 view .LVU894
 2714 0004 7047     		bx	lr
 2715              		.cfi_endproc
 2716              	.LFE253:
 2718 0006 00BF     		.section	.text.HAL_HCD_HC_GetURBState,"ax",%progbits
 2719              		.align	1
 2720              		.p2align 2,,3
 2721              		.global	HAL_HCD_HC_GetURBState
 2722              		.syntax unified
 2723              		.thumb
 2724              		.thumb_func
 2726              	HAL_HCD_HC_GetURBState:
 2727              	.LVL169:
 2728              	.LFB254:
1107:Drivers/STM32F4xx_HAL_Driver/Src/stm32f4xx_hal_hcd.c ****   return hhcd->hc[chnum].urb_state;
 2729              		.loc 1 1107 1 is_stmt 1 view -0
 2730              		.cfi_startproc
 2731              		@ args = 0, pretend = 0, frame = 0
 2732              		@ frame_needed = 0, uses_anonymous_args = 0
 2733              		@ link register save eliminated.
1108:Drivers/STM32F4xx_HAL_Driver/Src/stm32f4xx_hal_hcd.c **** }
 2734              		.loc 1 1108 3 view .LVU896
1108:Drivers/STM32F4xx_HAL_Driver/Src/stm32f4xx_hal_hcd.c **** }
 2735              		.loc 1 1108 25 is_stmt 0 view .LVU897
 2736 0000 2C23     		movs	r3, #44
 2737 0002 03FB0100 		mla	r0, r3, r1, r0
 2738              	.LVL170:
1109:Drivers/STM32F4xx_HAL_Driver/Src/stm32f4xx_hal_hcd.c **** 
 2739              		.loc 1 1109 1 view .LVU898
 2740 0006 90F86000 		ldrb	r0, [r0, #96]	@ zero_extendqisi2
 2741 000a 7047     		bx	lr
 2742              		.cfi_endproc
 2743              	.LFE254:
 2745              		.section	.text.HAL_HCD_HC_GetXferCount,"ax",%progbits
 2746              		.align	1
 2747              		.p2align 2,,3
 2748              		.global	HAL_HCD_HC_GetXferCount
 2749              		.syntax unified
 2750              		.thumb
 2751              		.thumb_func
 2753              	HAL_HCD_HC_GetXferCount:
 2754              	.LVL171:
 2755              	.LFB255:
1120:Drivers/STM32F4xx_HAL_Driver/Src/stm32f4xx_hal_hcd.c ****   return hhcd->hc[chnum].xfer_count;
 2756              		.loc 1 1120 1 is_stmt 1 view -0
 2757              		.cfi_startproc
 2758              		@ args = 0, pretend = 0, frame = 0
 2759              		@ frame_needed = 0, uses_anonymous_args = 0
 2760              		@ link register save eliminated.
1121:Drivers/STM32F4xx_HAL_Driver/Src/stm32f4xx_hal_hcd.c **** }
ARM GAS  /var/folders/lp/x54gwt890xv47sdkqj1k04q40000gn/T//cctevgvi.s 			page 91


 2761              		.loc 1 1121 3 view .LVU900
1121:Drivers/STM32F4xx_HAL_Driver/Src/stm32f4xx_hal_hcd.c **** }
 2762              		.loc 1 1121 25 is_stmt 0 view .LVU901
 2763 0000 2C23     		movs	r3, #44
 2764 0002 03FB0100 		mla	r0, r3, r1, r0
 2765              	.LVL172:
1122:Drivers/STM32F4xx_HAL_Driver/Src/stm32f4xx_hal_hcd.c **** 
 2766              		.loc 1 1122 1 view .LVU902
 2767 0006 006D     		ldr	r0, [r0, #80]
 2768 0008 7047     		bx	lr
 2769              		.cfi_endproc
 2770              	.LFE255:
 2772 000a 00BF     		.section	.text.HAL_HCD_HC_GetState,"ax",%progbits
 2773              		.align	1
 2774              		.p2align 2,,3
 2775              		.global	HAL_HCD_HC_GetState
 2776              		.syntax unified
 2777              		.thumb
 2778              		.thumb_func
 2780              	HAL_HCD_HC_GetState:
 2781              	.LVL173:
 2782              	.LFB256:
1142:Drivers/STM32F4xx_HAL_Driver/Src/stm32f4xx_hal_hcd.c ****   return hhcd->hc[chnum].state;
 2783              		.loc 1 1142 1 is_stmt 1 view -0
 2784              		.cfi_startproc
 2785              		@ args = 0, pretend = 0, frame = 0
 2786              		@ frame_needed = 0, uses_anonymous_args = 0
 2787              		@ link register save eliminated.
1143:Drivers/STM32F4xx_HAL_Driver/Src/stm32f4xx_hal_hcd.c **** }
 2788              		.loc 1 1143 3 view .LVU904
1143:Drivers/STM32F4xx_HAL_Driver/Src/stm32f4xx_hal_hcd.c **** }
 2789              		.loc 1 1143 25 is_stmt 0 view .LVU905
 2790 0000 2C23     		movs	r3, #44
 2791 0002 03FB0100 		mla	r0, r3, r1, r0
 2792              	.LVL174:
1144:Drivers/STM32F4xx_HAL_Driver/Src/stm32f4xx_hal_hcd.c **** 
 2793              		.loc 1 1144 1 view .LVU906
 2794 0006 90F86100 		ldrb	r0, [r0, #97]	@ zero_extendqisi2
 2795 000a 7047     		bx	lr
 2796              		.cfi_endproc
 2797              	.LFE256:
 2799              		.section	.text.HAL_HCD_GetCurrentFrame,"ax",%progbits
 2800              		.align	1
 2801              		.p2align 2,,3
 2802              		.global	HAL_HCD_GetCurrentFrame
 2803              		.syntax unified
 2804              		.thumb
 2805              		.thumb_func
 2807              	HAL_HCD_GetCurrentFrame:
 2808              	.LVL175:
 2809              	.LFB257:
1152:Drivers/STM32F4xx_HAL_Driver/Src/stm32f4xx_hal_hcd.c ****   return (USB_GetCurrentFrame(hhcd->Instance));
 2810              		.loc 1 1152 1 is_stmt 1 view -0
 2811              		.cfi_startproc
 2812              		@ args = 0, pretend = 0, frame = 0
 2813              		@ frame_needed = 0, uses_anonymous_args = 0
 2814              		@ link register save eliminated.
ARM GAS  /var/folders/lp/x54gwt890xv47sdkqj1k04q40000gn/T//cctevgvi.s 			page 92


1153:Drivers/STM32F4xx_HAL_Driver/Src/stm32f4xx_hal_hcd.c **** }
 2815              		.loc 1 1153 3 view .LVU908
1153:Drivers/STM32F4xx_HAL_Driver/Src/stm32f4xx_hal_hcd.c **** }
 2816              		.loc 1 1153 11 is_stmt 0 view .LVU909
 2817 0000 0068     		ldr	r0, [r0]
 2818              	.LVL176:
1153:Drivers/STM32F4xx_HAL_Driver/Src/stm32f4xx_hal_hcd.c **** }
 2819              		.loc 1 1153 11 view .LVU910
 2820 0002 FFF7FEBF 		b	USB_GetCurrentFrame
 2821              	.LVL177:
 2822              		.cfi_endproc
 2823              	.LFE257:
 2825 0006 00BF     		.section	.text.HAL_HCD_GetCurrentSpeed,"ax",%progbits
 2826              		.align	1
 2827              		.p2align 2,,3
 2828              		.global	HAL_HCD_GetCurrentSpeed
 2829              		.syntax unified
 2830              		.thumb
 2831              		.thumb_func
 2833              	HAL_HCD_GetCurrentSpeed:
 2834              	.LVL178:
 2835              	.LFB258:
1162:Drivers/STM32F4xx_HAL_Driver/Src/stm32f4xx_hal_hcd.c ****   return (USB_GetHostSpeed(hhcd->Instance));
 2836              		.loc 1 1162 1 is_stmt 1 view -0
 2837              		.cfi_startproc
 2838              		@ args = 0, pretend = 0, frame = 0
 2839              		@ frame_needed = 0, uses_anonymous_args = 0
 2840              		@ link register save eliminated.
1163:Drivers/STM32F4xx_HAL_Driver/Src/stm32f4xx_hal_hcd.c **** }
 2841              		.loc 1 1163 3 view .LVU912
1163:Drivers/STM32F4xx_HAL_Driver/Src/stm32f4xx_hal_hcd.c **** }
 2842              		.loc 1 1163 11 is_stmt 0 view .LVU913
 2843 0000 0068     		ldr	r0, [r0]
 2844              	.LVL179:
1163:Drivers/STM32F4xx_HAL_Driver/Src/stm32f4xx_hal_hcd.c **** }
 2845              		.loc 1 1163 11 view .LVU914
 2846 0002 FFF7FEBF 		b	USB_GetHostSpeed
 2847              	.LVL180:
 2848              		.cfi_endproc
 2849              	.LFE258:
 2851 0006 00BF     		.text
 2852              	.Letext0:
 2853              		.file 2 "/Users/jr/Library/Application Support/Code/User/globalStorage/bmd.stm32-for-vscode/@xpack
 2854              		.file 3 "/Users/jr/Library/Application Support/Code/User/globalStorage/bmd.stm32-for-vscode/@xpack
 2855              		.file 4 "Drivers/CMSIS/Device/ST/STM32F4xx/Include/stm32f407xx.h"
 2856              		.file 5 "Drivers/STM32F4xx_HAL_Driver/Inc/stm32f4xx_hal_def.h"
 2857              		.file 6 "Drivers/STM32F4xx_HAL_Driver/Inc/stm32f4xx_ll_usb.h"
 2858              		.file 7 "Drivers/STM32F4xx_HAL_Driver/Inc/stm32f4xx_hal_hcd.h"
ARM GAS  /var/folders/lp/x54gwt890xv47sdkqj1k04q40000gn/T//cctevgvi.s 			page 93


DEFINED SYMBOLS
                            *ABS*:00000000 stm32f4xx_hal_hcd.c
/var/folders/lp/x54gwt890xv47sdkqj1k04q40000gn/T//cctevgvi.s:21     .text.HAL_HCD_HC_Init:00000000 $t
/var/folders/lp/x54gwt890xv47sdkqj1k04q40000gn/T//cctevgvi.s:28     .text.HAL_HCD_HC_Init:00000000 HAL_HCD_HC_Init
/var/folders/lp/x54gwt890xv47sdkqj1k04q40000gn/T//cctevgvi.s:143    .text.HAL_HCD_HC_Halt:00000000 $t
/var/folders/lp/x54gwt890xv47sdkqj1k04q40000gn/T//cctevgvi.s:150    .text.HAL_HCD_HC_Halt:00000000 HAL_HCD_HC_Halt
/var/folders/lp/x54gwt890xv47sdkqj1k04q40000gn/T//cctevgvi.s:206    .text.HAL_HCD_MspInit:00000000 $t
/var/folders/lp/x54gwt890xv47sdkqj1k04q40000gn/T//cctevgvi.s:213    .text.HAL_HCD_MspInit:00000000 HAL_HCD_MspInit
/var/folders/lp/x54gwt890xv47sdkqj1k04q40000gn/T//cctevgvi.s:228    .text.HAL_HCD_Init:00000000 $t
/var/folders/lp/x54gwt890xv47sdkqj1k04q40000gn/T//cctevgvi.s:235    .text.HAL_HCD_Init:00000000 HAL_HCD_Init
/var/folders/lp/x54gwt890xv47sdkqj1k04q40000gn/T//cctevgvi.s:375    .text.HAL_HCD_MspDeInit:00000000 $t
/var/folders/lp/x54gwt890xv47sdkqj1k04q40000gn/T//cctevgvi.s:382    .text.HAL_HCD_MspDeInit:00000000 HAL_HCD_MspDeInit
/var/folders/lp/x54gwt890xv47sdkqj1k04q40000gn/T//cctevgvi.s:394    .text.HAL_HCD_DeInit:00000000 $t
/var/folders/lp/x54gwt890xv47sdkqj1k04q40000gn/T//cctevgvi.s:401    .text.HAL_HCD_DeInit:00000000 HAL_HCD_DeInit
/var/folders/lp/x54gwt890xv47sdkqj1k04q40000gn/T//cctevgvi.s:451    .text.HAL_HCD_HC_SubmitRequest:00000000 $t
/var/folders/lp/x54gwt890xv47sdkqj1k04q40000gn/T//cctevgvi.s:458    .text.HAL_HCD_HC_SubmitRequest:00000000 HAL_HCD_HC_SubmitRequest
/var/folders/lp/x54gwt890xv47sdkqj1k04q40000gn/T//cctevgvi.s:508    .text.HAL_HCD_HC_SubmitRequest:0000003c $d
/var/folders/lp/x54gwt890xv47sdkqj1k04q40000gn/T//cctevgvi.s:512    .text.HAL_HCD_HC_SubmitRequest:00000040 $t
/var/folders/lp/x54gwt890xv47sdkqj1k04q40000gn/T//cctevgvi.s:654    .text.HAL_HCD_WKUP_IRQHandler:00000000 $t
/var/folders/lp/x54gwt890xv47sdkqj1k04q40000gn/T//cctevgvi.s:661    .text.HAL_HCD_WKUP_IRQHandler:00000000 HAL_HCD_WKUP_IRQHandler
/var/folders/lp/x54gwt890xv47sdkqj1k04q40000gn/T//cctevgvi.s:676    .text.HAL_HCD_SOF_Callback:00000000 $t
/var/folders/lp/x54gwt890xv47sdkqj1k04q40000gn/T//cctevgvi.s:683    .text.HAL_HCD_SOF_Callback:00000000 HAL_HCD_SOF_Callback
/var/folders/lp/x54gwt890xv47sdkqj1k04q40000gn/T//cctevgvi.s:695    .text.HAL_HCD_Connect_Callback:00000000 $t
/var/folders/lp/x54gwt890xv47sdkqj1k04q40000gn/T//cctevgvi.s:702    .text.HAL_HCD_Connect_Callback:00000000 HAL_HCD_Connect_Callback
/var/folders/lp/x54gwt890xv47sdkqj1k04q40000gn/T//cctevgvi.s:714    .text.HAL_HCD_Disconnect_Callback:00000000 $t
/var/folders/lp/x54gwt890xv47sdkqj1k04q40000gn/T//cctevgvi.s:721    .text.HAL_HCD_Disconnect_Callback:00000000 HAL_HCD_Disconnect_Callback
/var/folders/lp/x54gwt890xv47sdkqj1k04q40000gn/T//cctevgvi.s:733    .text.HAL_HCD_PortEnabled_Callback:00000000 $t
/var/folders/lp/x54gwt890xv47sdkqj1k04q40000gn/T//cctevgvi.s:740    .text.HAL_HCD_PortEnabled_Callback:00000000 HAL_HCD_PortEnabled_Callback
/var/folders/lp/x54gwt890xv47sdkqj1k04q40000gn/T//cctevgvi.s:752    .text.HAL_HCD_PortDisabled_Callback:00000000 $t
/var/folders/lp/x54gwt890xv47sdkqj1k04q40000gn/T//cctevgvi.s:759    .text.HAL_HCD_PortDisabled_Callback:00000000 HAL_HCD_PortDisabled_Callback
/var/folders/lp/x54gwt890xv47sdkqj1k04q40000gn/T//cctevgvi.s:771    .text.HAL_HCD_HC_NotifyURBChange_Callback:00000000 $t
/var/folders/lp/x54gwt890xv47sdkqj1k04q40000gn/T//cctevgvi.s:778    .text.HAL_HCD_HC_NotifyURBChange_Callback:00000000 HAL_HCD_HC_NotifyURBChange_Callback
/var/folders/lp/x54gwt890xv47sdkqj1k04q40000gn/T//cctevgvi.s:795    .text.HAL_HCD_IRQHandler:00000000 $t
/var/folders/lp/x54gwt890xv47sdkqj1k04q40000gn/T//cctevgvi.s:802    .text.HAL_HCD_IRQHandler:00000000 HAL_HCD_IRQHandler
/var/folders/lp/x54gwt890xv47sdkqj1k04q40000gn/T//cctevgvi.s:1097   .text.HAL_HCD_IRQHandler:00000142 $d
/var/folders/lp/x54gwt890xv47sdkqj1k04q40000gn/T//cctevgvi.s:1102   .text.HAL_HCD_IRQHandler:00000146 $t
/var/folders/lp/x54gwt890xv47sdkqj1k04q40000gn/T//cctevgvi.s:1517   .text.HAL_HCD_IRQHandler:00000312 $d
/var/folders/lp/x54gwt890xv47sdkqj1k04q40000gn/T//cctevgvi.s:1525   .text.HAL_HCD_IRQHandler:0000031a $t
/var/folders/lp/x54gwt890xv47sdkqj1k04q40000gn/T//cctevgvi.s:1770   .text.HAL_HCD_IRQHandler:00000444 $d
/var/folders/lp/x54gwt890xv47sdkqj1k04q40000gn/T//cctevgvi.s:1775   .text.HAL_HCD_IRQHandler:00000454 $t
/var/folders/lp/x54gwt890xv47sdkqj1k04q40000gn/T//cctevgvi.s:2300   .text.HAL_HCD_IRQHandler:00000690 $d
/var/folders/lp/x54gwt890xv47sdkqj1k04q40000gn/T//cctevgvi.s:2308   .text.HAL_HCD_IRQHandler:00000698 $t
/var/folders/lp/x54gwt890xv47sdkqj1k04q40000gn/T//cctevgvi.s:2533   .text.HAL_HCD_IRQHandler:000007a8 $d
/var/folders/lp/x54gwt890xv47sdkqj1k04q40000gn/T//cctevgvi.s:2540   .text.HAL_HCD_Start:00000000 $t
/var/folders/lp/x54gwt890xv47sdkqj1k04q40000gn/T//cctevgvi.s:2547   .text.HAL_HCD_Start:00000000 HAL_HCD_Start
/var/folders/lp/x54gwt890xv47sdkqj1k04q40000gn/T//cctevgvi.s:2606   .text.HAL_HCD_Stop:00000000 $t
/var/folders/lp/x54gwt890xv47sdkqj1k04q40000gn/T//cctevgvi.s:2613   .text.HAL_HCD_Stop:00000000 HAL_HCD_Stop
/var/folders/lp/x54gwt890xv47sdkqj1k04q40000gn/T//cctevgvi.s:2668   .text.HAL_HCD_ResetPort:00000000 $t
/var/folders/lp/x54gwt890xv47sdkqj1k04q40000gn/T//cctevgvi.s:2675   .text.HAL_HCD_ResetPort:00000000 HAL_HCD_ResetPort
/var/folders/lp/x54gwt890xv47sdkqj1k04q40000gn/T//cctevgvi.s:2694   .text.HAL_HCD_GetState:00000000 $t
/var/folders/lp/x54gwt890xv47sdkqj1k04q40000gn/T//cctevgvi.s:2701   .text.HAL_HCD_GetState:00000000 HAL_HCD_GetState
/var/folders/lp/x54gwt890xv47sdkqj1k04q40000gn/T//cctevgvi.s:2719   .text.HAL_HCD_HC_GetURBState:00000000 $t
/var/folders/lp/x54gwt890xv47sdkqj1k04q40000gn/T//cctevgvi.s:2726   .text.HAL_HCD_HC_GetURBState:00000000 HAL_HCD_HC_GetURBState
/var/folders/lp/x54gwt890xv47sdkqj1k04q40000gn/T//cctevgvi.s:2746   .text.HAL_HCD_HC_GetXferCount:00000000 $t
/var/folders/lp/x54gwt890xv47sdkqj1k04q40000gn/T//cctevgvi.s:2753   .text.HAL_HCD_HC_GetXferCount:00000000 HAL_HCD_HC_GetXferCount
/var/folders/lp/x54gwt890xv47sdkqj1k04q40000gn/T//cctevgvi.s:2773   .text.HAL_HCD_HC_GetState:00000000 $t
/var/folders/lp/x54gwt890xv47sdkqj1k04q40000gn/T//cctevgvi.s:2780   .text.HAL_HCD_HC_GetState:00000000 HAL_HCD_HC_GetState
ARM GAS  /var/folders/lp/x54gwt890xv47sdkqj1k04q40000gn/T//cctevgvi.s 			page 94


/var/folders/lp/x54gwt890xv47sdkqj1k04q40000gn/T//cctevgvi.s:2800   .text.HAL_HCD_GetCurrentFrame:00000000 $t
/var/folders/lp/x54gwt890xv47sdkqj1k04q40000gn/T//cctevgvi.s:2807   .text.HAL_HCD_GetCurrentFrame:00000000 HAL_HCD_GetCurrentFrame
/var/folders/lp/x54gwt890xv47sdkqj1k04q40000gn/T//cctevgvi.s:2826   .text.HAL_HCD_GetCurrentSpeed:00000000 $t
/var/folders/lp/x54gwt890xv47sdkqj1k04q40000gn/T//cctevgvi.s:2833   .text.HAL_HCD_GetCurrentSpeed:00000000 HAL_HCD_GetCurrentSpeed

UNDEFINED SYMBOLS
USB_HC_Init
USB_HC_Halt
USB_DisableGlobalInt
USB_CoreInit
USB_SetCurrentMode
USB_HostInit
USB_HC_StartXfer
USB_GetMode
USB_ReadInterrupts
USB_HC_ReadInterrupt
USB_FlushTxFifo
USB_FlushRxFifo
USB_InitFSLSPClkSel
USB_ReadPacket
USB_DriveVbus
USB_EnableGlobalInt
USB_StopHost
USB_ResetPort
USB_GetCurrentFrame
USB_GetHostSpeed
