ARM GAS  /var/folders/lp/x54gwt890xv47sdkqj1k04q40000gn/T//ccVxfEIa.s 			page 1


   1              		.cpu cortex-m4
   2              		.arch armv7e-m
   3              		.fpu fpv4-sp-d16
   4              		.eabi_attribute 27, 1
   5              		.eabi_attribute 28, 1
   6              		.eabi_attribute 20, 1
   7              		.eabi_attribute 21, 1
   8              		.eabi_attribute 23, 3
   9              		.eabi_attribute 24, 1
  10              		.eabi_attribute 25, 1
  11              		.eabi_attribute 26, 1
  12              		.eabi_attribute 30, 2
  13              		.eabi_attribute 34, 1
  14              		.eabi_attribute 18, 4
  15              		.file	"stm32f4_discovery_accelerometer.c"
  16              		.text
  17              	.Ltext0:
  18              		.cfi_sections	.debug_frame
  19              		.file 1 "Drivers/BSP/STM32F4-Discovery/stm32f4_discovery_accelerometer.c"
  20              		.section	.text.BSP_ACCELERO_Init,"ax",%progbits
  21              		.align	1
  22              		.p2align 2,,3
  23              		.global	BSP_ACCELERO_Init
  24              		.syntax unified
  25              		.thumb
  26              		.thumb_func
  28              	BSP_ACCELERO_Init:
  29              	.LFB235:
   1:Drivers/BSP/STM32F4-Discovery/stm32f4_discovery_accelerometer.c **** /**
   2:Drivers/BSP/STM32F4-Discovery/stm32f4_discovery_accelerometer.c ****   ******************************************************************************
   3:Drivers/BSP/STM32F4-Discovery/stm32f4_discovery_accelerometer.c ****   * @file    stm32f4_discovery_accelerometer.c
   4:Drivers/BSP/STM32F4-Discovery/stm32f4_discovery_accelerometer.c ****   * @author  MCD Application Team
   5:Drivers/BSP/STM32F4-Discovery/stm32f4_discovery_accelerometer.c ****   * @brief   This file provides a set of functions needed to manage the
   6:Drivers/BSP/STM32F4-Discovery/stm32f4_discovery_accelerometer.c ****   *          MEMS accelerometers available on STM32F4-Discovery Kit.
   7:Drivers/BSP/STM32F4-Discovery/stm32f4_discovery_accelerometer.c ****   ******************************************************************************
   8:Drivers/BSP/STM32F4-Discovery/stm32f4_discovery_accelerometer.c ****   * @attention
   9:Drivers/BSP/STM32F4-Discovery/stm32f4_discovery_accelerometer.c ****   *
  10:Drivers/BSP/STM32F4-Discovery/stm32f4_discovery_accelerometer.c ****   * Copyright (c) 2017 STMicroelectronics.
  11:Drivers/BSP/STM32F4-Discovery/stm32f4_discovery_accelerometer.c ****   * All rights reserved.
  12:Drivers/BSP/STM32F4-Discovery/stm32f4_discovery_accelerometer.c ****   *
  13:Drivers/BSP/STM32F4-Discovery/stm32f4_discovery_accelerometer.c ****   * This software is licensed under terms that can be found in the LICENSE file
  14:Drivers/BSP/STM32F4-Discovery/stm32f4_discovery_accelerometer.c ****   * in the root directory of this software component.
  15:Drivers/BSP/STM32F4-Discovery/stm32f4_discovery_accelerometer.c ****   * If no LICENSE file comes with this software, it is provided AS-IS.
  16:Drivers/BSP/STM32F4-Discovery/stm32f4_discovery_accelerometer.c ****   *
  17:Drivers/BSP/STM32F4-Discovery/stm32f4_discovery_accelerometer.c ****   ******************************************************************************
  18:Drivers/BSP/STM32F4-Discovery/stm32f4_discovery_accelerometer.c ****   */
  19:Drivers/BSP/STM32F4-Discovery/stm32f4_discovery_accelerometer.c **** 
  20:Drivers/BSP/STM32F4-Discovery/stm32f4_discovery_accelerometer.c **** /* Includes ------------------------------------------------------------------*/
  21:Drivers/BSP/STM32F4-Discovery/stm32f4_discovery_accelerometer.c **** #include "stm32f4_discovery_accelerometer.h"
  22:Drivers/BSP/STM32F4-Discovery/stm32f4_discovery_accelerometer.c **** 
  23:Drivers/BSP/STM32F4-Discovery/stm32f4_discovery_accelerometer.c **** /** @addtogroup BSP 
  24:Drivers/BSP/STM32F4-Discovery/stm32f4_discovery_accelerometer.c ****   * @{
  25:Drivers/BSP/STM32F4-Discovery/stm32f4_discovery_accelerometer.c ****   */
  26:Drivers/BSP/STM32F4-Discovery/stm32f4_discovery_accelerometer.c **** 
  27:Drivers/BSP/STM32F4-Discovery/stm32f4_discovery_accelerometer.c **** /** @addtogroup STM32F4_DISCOVERY
  28:Drivers/BSP/STM32F4-Discovery/stm32f4_discovery_accelerometer.c ****   * @{
  29:Drivers/BSP/STM32F4-Discovery/stm32f4_discovery_accelerometer.c ****   */ 
ARM GAS  /var/folders/lp/x54gwt890xv47sdkqj1k04q40000gn/T//ccVxfEIa.s 			page 2


  30:Drivers/BSP/STM32F4-Discovery/stm32f4_discovery_accelerometer.c **** 
  31:Drivers/BSP/STM32F4-Discovery/stm32f4_discovery_accelerometer.c **** /** @defgroup STM32F4_DISCOVERY_ACCELEROMETER STM32F4 DISCOVERY ACCELEROMETER
  32:Drivers/BSP/STM32F4-Discovery/stm32f4_discovery_accelerometer.c ****   * @brief  This file includes the motion sensor driver for ACCELEROMETER motion sensor 
  33:Drivers/BSP/STM32F4-Discovery/stm32f4_discovery_accelerometer.c ****   *         devices.
  34:Drivers/BSP/STM32F4-Discovery/stm32f4_discovery_accelerometer.c ****   * @{
  35:Drivers/BSP/STM32F4-Discovery/stm32f4_discovery_accelerometer.c ****   */
  36:Drivers/BSP/STM32F4-Discovery/stm32f4_discovery_accelerometer.c **** 
  37:Drivers/BSP/STM32F4-Discovery/stm32f4_discovery_accelerometer.c **** /** @defgroup STM32F4_DISCOVERY_ACCELEROMETER_Private_TypesDefinitions STM32F4 DISCOVERY ACCELEROME
  38:Drivers/BSP/STM32F4-Discovery/stm32f4_discovery_accelerometer.c ****   * @{
  39:Drivers/BSP/STM32F4-Discovery/stm32f4_discovery_accelerometer.c ****   */
  40:Drivers/BSP/STM32F4-Discovery/stm32f4_discovery_accelerometer.c **** /**
  41:Drivers/BSP/STM32F4-Discovery/stm32f4_discovery_accelerometer.c ****   * @}
  42:Drivers/BSP/STM32F4-Discovery/stm32f4_discovery_accelerometer.c ****   */
  43:Drivers/BSP/STM32F4-Discovery/stm32f4_discovery_accelerometer.c **** 
  44:Drivers/BSP/STM32F4-Discovery/stm32f4_discovery_accelerometer.c **** /** @defgroup STM32F4_DISCOVERY_ACCELEROMETER_Private_Defines STM32F4 DISCOVERY ACCELEROMETER Priva
  45:Drivers/BSP/STM32F4-Discovery/stm32f4_discovery_accelerometer.c ****   * @{
  46:Drivers/BSP/STM32F4-Discovery/stm32f4_discovery_accelerometer.c ****   */
  47:Drivers/BSP/STM32F4-Discovery/stm32f4_discovery_accelerometer.c **** /**
  48:Drivers/BSP/STM32F4-Discovery/stm32f4_discovery_accelerometer.c ****   * @}
  49:Drivers/BSP/STM32F4-Discovery/stm32f4_discovery_accelerometer.c ****   */
  50:Drivers/BSP/STM32F4-Discovery/stm32f4_discovery_accelerometer.c **** 
  51:Drivers/BSP/STM32F4-Discovery/stm32f4_discovery_accelerometer.c **** /** @defgroup STM32F4_DISCOVERY_ACCELEROMETER_Private_Macros STM32F4 DISCOVERY ACCELEROMETER Privat
  52:Drivers/BSP/STM32F4-Discovery/stm32f4_discovery_accelerometer.c ****   * @{
  53:Drivers/BSP/STM32F4-Discovery/stm32f4_discovery_accelerometer.c ****   */
  54:Drivers/BSP/STM32F4-Discovery/stm32f4_discovery_accelerometer.c **** /**
  55:Drivers/BSP/STM32F4-Discovery/stm32f4_discovery_accelerometer.c ****   * @}
  56:Drivers/BSP/STM32F4-Discovery/stm32f4_discovery_accelerometer.c ****   */ 
  57:Drivers/BSP/STM32F4-Discovery/stm32f4_discovery_accelerometer.c ****   
  58:Drivers/BSP/STM32F4-Discovery/stm32f4_discovery_accelerometer.c **** /** @defgroup STM32F4_DISCOVERY_ACCELEROMETER_Private_Variables STM32F4 DISCOVERY ACCELEROMETER Pri
  59:Drivers/BSP/STM32F4-Discovery/stm32f4_discovery_accelerometer.c ****   * @{
  60:Drivers/BSP/STM32F4-Discovery/stm32f4_discovery_accelerometer.c ****   */ 
  61:Drivers/BSP/STM32F4-Discovery/stm32f4_discovery_accelerometer.c **** static ACCELERO_DrvTypeDef *AcceleroDrv;
  62:Drivers/BSP/STM32F4-Discovery/stm32f4_discovery_accelerometer.c **** /**
  63:Drivers/BSP/STM32F4-Discovery/stm32f4_discovery_accelerometer.c ****   * @}
  64:Drivers/BSP/STM32F4-Discovery/stm32f4_discovery_accelerometer.c ****   */
  65:Drivers/BSP/STM32F4-Discovery/stm32f4_discovery_accelerometer.c **** 
  66:Drivers/BSP/STM32F4-Discovery/stm32f4_discovery_accelerometer.c **** /** @defgroup STM32F4_DISCOVERY_ACCELEROMETER_Private_FunctionPrototypes STM32F4 DISCOVERY ACCELERO
  67:Drivers/BSP/STM32F4-Discovery/stm32f4_discovery_accelerometer.c ****   * @{
  68:Drivers/BSP/STM32F4-Discovery/stm32f4_discovery_accelerometer.c ****   */
  69:Drivers/BSP/STM32F4-Discovery/stm32f4_discovery_accelerometer.c **** /**
  70:Drivers/BSP/STM32F4-Discovery/stm32f4_discovery_accelerometer.c ****   * @}
  71:Drivers/BSP/STM32F4-Discovery/stm32f4_discovery_accelerometer.c ****   */
  72:Drivers/BSP/STM32F4-Discovery/stm32f4_discovery_accelerometer.c **** 
  73:Drivers/BSP/STM32F4-Discovery/stm32f4_discovery_accelerometer.c **** /** @defgroup STM32F4_DISCOVERY_ACCELEROMETER_Private_Functions STM32F4 DISCOVERY ACCELEROMETER Pri
  74:Drivers/BSP/STM32F4-Discovery/stm32f4_discovery_accelerometer.c ****   * @{
  75:Drivers/BSP/STM32F4-Discovery/stm32f4_discovery_accelerometer.c ****   */
  76:Drivers/BSP/STM32F4-Discovery/stm32f4_discovery_accelerometer.c **** 
  77:Drivers/BSP/STM32F4-Discovery/stm32f4_discovery_accelerometer.c **** /**
  78:Drivers/BSP/STM32F4-Discovery/stm32f4_discovery_accelerometer.c ****   * @brief  Setx Accelerometer Initialization.
  79:Drivers/BSP/STM32F4-Discovery/stm32f4_discovery_accelerometer.c ****   * @retval ACCELERO_OK if no problem during initialization
  80:Drivers/BSP/STM32F4-Discovery/stm32f4_discovery_accelerometer.c ****   */
  81:Drivers/BSP/STM32F4-Discovery/stm32f4_discovery_accelerometer.c **** uint8_t BSP_ACCELERO_Init(void)
  82:Drivers/BSP/STM32F4-Discovery/stm32f4_discovery_accelerometer.c **** { 
  30              		.loc 1 82 1 view -0
  31              		.cfi_startproc
  32              		@ args = 0, pretend = 0, frame = 0
  33              		@ frame_needed = 0, uses_anonymous_args = 0
ARM GAS  /var/folders/lp/x54gwt890xv47sdkqj1k04q40000gn/T//ccVxfEIa.s 			page 3


  83:Drivers/BSP/STM32F4-Discovery/stm32f4_discovery_accelerometer.c ****   uint8_t ret = ACCELERO_ERROR;
  34              		.loc 1 83 3 view .LVU1
  35              	.LVL0:
  84:Drivers/BSP/STM32F4-Discovery/stm32f4_discovery_accelerometer.c ****   uint16_t ctrl = 0x0000;
  36              		.loc 1 84 3 view .LVU2
  85:Drivers/BSP/STM32F4-Discovery/stm32f4_discovery_accelerometer.c ****   LIS302DL_InitTypeDef         lis302dl_initstruct;
  37              		.loc 1 85 3 view .LVU3
  86:Drivers/BSP/STM32F4-Discovery/stm32f4_discovery_accelerometer.c ****   LIS302DL_FilterConfigTypeDef lis302dl_filter = {0,0,0};
  38              		.loc 1 86 3 view .LVU4
  87:Drivers/BSP/STM32F4-Discovery/stm32f4_discovery_accelerometer.c ****   LIS3DSH_InitTypeDef          l1s3dsh_InitStruct;
  39              		.loc 1 87 3 view .LVU5
  88:Drivers/BSP/STM32F4-Discovery/stm32f4_discovery_accelerometer.c **** 
  89:Drivers/BSP/STM32F4-Discovery/stm32f4_discovery_accelerometer.c ****   if(Lis302dlDrv.ReadID() == I_AM_LIS302DL)
  40              		.loc 1 89 3 view .LVU6
  82:Drivers/BSP/STM32F4-Discovery/stm32f4_discovery_accelerometer.c ****   uint8_t ret = ACCELERO_ERROR;
  41              		.loc 1 82 1 is_stmt 0 view .LVU7
  42 0000 38B5     		push	{r3, r4, r5, lr}
  43              		.cfi_def_cfa_offset 16
  44              		.cfi_offset 3, -16
  45              		.cfi_offset 4, -12
  46              		.cfi_offset 5, -8
  47              		.cfi_offset 14, -4
  48              		.loc 1 89 17 view .LVU8
  49 0002 0E4C     		ldr	r4, .L10
  50              		.loc 1 89 6 view .LVU9
  51 0004 A368     		ldr	r3, [r4, #8]
  52 0006 9847     		blx	r3
  53              	.LVL1:
  54              		.loc 1 89 5 discriminator 1 view .LVU10
  55 0008 3B28     		cmp	r0, #59
  56 000a 0DD0     		beq	.L8
  90:Drivers/BSP/STM32F4-Discovery/stm32f4_discovery_accelerometer.c ****   {
  91:Drivers/BSP/STM32F4-Discovery/stm32f4_discovery_accelerometer.c ****     /* Initialize the accelerometer driver structure */
  92:Drivers/BSP/STM32F4-Discovery/stm32f4_discovery_accelerometer.c ****     AcceleroDrv = &Lis302dlDrv;
  93:Drivers/BSP/STM32F4-Discovery/stm32f4_discovery_accelerometer.c **** 
  94:Drivers/BSP/STM32F4-Discovery/stm32f4_discovery_accelerometer.c ****     /* Set configuration of LIS302DL MEMS Accelerometer *********************/
  95:Drivers/BSP/STM32F4-Discovery/stm32f4_discovery_accelerometer.c ****     lis302dl_initstruct.Power_Mode = LIS302DL_LOWPOWERMODE_ACTIVE;
  96:Drivers/BSP/STM32F4-Discovery/stm32f4_discovery_accelerometer.c ****     lis302dl_initstruct.Output_DataRate = LIS302DL_DATARATE_100;
  97:Drivers/BSP/STM32F4-Discovery/stm32f4_discovery_accelerometer.c ****     lis302dl_initstruct.Axes_Enable = LIS302DL_XYZ_ENABLE;
  98:Drivers/BSP/STM32F4-Discovery/stm32f4_discovery_accelerometer.c ****     lis302dl_initstruct.Full_Scale = LIS302DL_FULLSCALE_2_3;
  99:Drivers/BSP/STM32F4-Discovery/stm32f4_discovery_accelerometer.c ****     lis302dl_initstruct.Self_Test = LIS302DL_SELFTEST_NORMAL;
 100:Drivers/BSP/STM32F4-Discovery/stm32f4_discovery_accelerometer.c ****     
 101:Drivers/BSP/STM32F4-Discovery/stm32f4_discovery_accelerometer.c ****     /* Configure MEMS: data rate, power mode, full scale, self test and axes */
 102:Drivers/BSP/STM32F4-Discovery/stm32f4_discovery_accelerometer.c ****     ctrl = (uint16_t) (lis302dl_initstruct.Output_DataRate | lis302dl_initstruct.Power_Mode | \
 103:Drivers/BSP/STM32F4-Discovery/stm32f4_discovery_accelerometer.c ****                        lis302dl_initstruct.Full_Scale | lis302dl_initstruct.Self_Test | \
 104:Drivers/BSP/STM32F4-Discovery/stm32f4_discovery_accelerometer.c ****                        lis302dl_initstruct.Axes_Enable);
 105:Drivers/BSP/STM32F4-Discovery/stm32f4_discovery_accelerometer.c ****     
 106:Drivers/BSP/STM32F4-Discovery/stm32f4_discovery_accelerometer.c ****     /* Configure the accelerometer main parameters */
 107:Drivers/BSP/STM32F4-Discovery/stm32f4_discovery_accelerometer.c ****     AcceleroDrv->Init(ctrl);
 108:Drivers/BSP/STM32F4-Discovery/stm32f4_discovery_accelerometer.c ****     
 109:Drivers/BSP/STM32F4-Discovery/stm32f4_discovery_accelerometer.c ****     /* MEMS High Pass Filter configuration */
 110:Drivers/BSP/STM32F4-Discovery/stm32f4_discovery_accelerometer.c ****     lis302dl_filter.HighPassFilter_Data_Selection = LIS302DL_FILTEREDDATASELECTION_OUTPUTREGISTER;
 111:Drivers/BSP/STM32F4-Discovery/stm32f4_discovery_accelerometer.c ****     lis302dl_filter.HighPassFilter_CutOff_Frequency = LIS302DL_HIGHPASSFILTER_LEVEL_1;
 112:Drivers/BSP/STM32F4-Discovery/stm32f4_discovery_accelerometer.c ****     lis302dl_filter.HighPassFilter_Interrupt = LIS302DL_HIGHPASSFILTERINTERRUPT_1_2;
 113:Drivers/BSP/STM32F4-Discovery/stm32f4_discovery_accelerometer.c ****     
 114:Drivers/BSP/STM32F4-Discovery/stm32f4_discovery_accelerometer.c ****     /* Configure MEMS high pass filter cut-off level, interrupt and data selection bits */         
 115:Drivers/BSP/STM32F4-Discovery/stm32f4_discovery_accelerometer.c ****     ctrl = (uint8_t)(lis302dl_filter.HighPassFilter_Data_Selection | \
ARM GAS  /var/folders/lp/x54gwt890xv47sdkqj1k04q40000gn/T//ccVxfEIa.s 			page 4


 116:Drivers/BSP/STM32F4-Discovery/stm32f4_discovery_accelerometer.c ****                      lis302dl_filter.HighPassFilter_CutOff_Frequency | \
 117:Drivers/BSP/STM32F4-Discovery/stm32f4_discovery_accelerometer.c ****                      lis302dl_filter.HighPassFilter_Interrupt);
 118:Drivers/BSP/STM32F4-Discovery/stm32f4_discovery_accelerometer.c **** 
 119:Drivers/BSP/STM32F4-Discovery/stm32f4_discovery_accelerometer.c ****     /* Configure the accelerometer LPF main parameters */
 120:Drivers/BSP/STM32F4-Discovery/stm32f4_discovery_accelerometer.c ****     AcceleroDrv->FilterConfig(ctrl);
 121:Drivers/BSP/STM32F4-Discovery/stm32f4_discovery_accelerometer.c **** 
 122:Drivers/BSP/STM32F4-Discovery/stm32f4_discovery_accelerometer.c ****     ret = ACCELERO_OK;
 123:Drivers/BSP/STM32F4-Discovery/stm32f4_discovery_accelerometer.c ****   }
 124:Drivers/BSP/STM32F4-Discovery/stm32f4_discovery_accelerometer.c ****   else if(Lis3dshDrv.ReadID() == I_AM_LIS3DSH)
  57              		.loc 1 124 8 is_stmt 1 view .LVU11
  58              		.loc 1 124 21 is_stmt 0 view .LVU12
  59 000c 0C4C     		ldr	r4, .L10+4
  60              		.loc 1 124 11 view .LVU13
  61 000e A368     		ldr	r3, [r4, #8]
  62 0010 9847     		blx	r3
  63              	.LVL2:
  64              		.loc 1 124 10 discriminator 1 view .LVU14
  65 0012 3F28     		cmp	r0, #63
  66 0014 01D0     		beq	.L9
 125:Drivers/BSP/STM32F4-Discovery/stm32f4_discovery_accelerometer.c ****   {
 126:Drivers/BSP/STM32F4-Discovery/stm32f4_discovery_accelerometer.c ****     /* Initialize the accelerometer driver structure */
 127:Drivers/BSP/STM32F4-Discovery/stm32f4_discovery_accelerometer.c ****     AcceleroDrv = &Lis3dshDrv;
 128:Drivers/BSP/STM32F4-Discovery/stm32f4_discovery_accelerometer.c **** 
 129:Drivers/BSP/STM32F4-Discovery/stm32f4_discovery_accelerometer.c ****     /* Set configuration of LIS3DSH MEMS Accelerometer **********************/
 130:Drivers/BSP/STM32F4-Discovery/stm32f4_discovery_accelerometer.c ****     l1s3dsh_InitStruct.Output_DataRate = LIS3DSH_DATARATE_100;
 131:Drivers/BSP/STM32F4-Discovery/stm32f4_discovery_accelerometer.c ****     l1s3dsh_InitStruct.Axes_Enable = LIS3DSH_XYZ_ENABLE;
 132:Drivers/BSP/STM32F4-Discovery/stm32f4_discovery_accelerometer.c ****     l1s3dsh_InitStruct.SPI_Wire = LIS3DSH_SERIALINTERFACE_4WIRE;
 133:Drivers/BSP/STM32F4-Discovery/stm32f4_discovery_accelerometer.c ****     l1s3dsh_InitStruct.Self_Test = LIS3DSH_SELFTEST_NORMAL;
 134:Drivers/BSP/STM32F4-Discovery/stm32f4_discovery_accelerometer.c ****     l1s3dsh_InitStruct.Full_Scale = LIS3DSH_FULLSCALE_2;
 135:Drivers/BSP/STM32F4-Discovery/stm32f4_discovery_accelerometer.c ****     l1s3dsh_InitStruct.Filter_BW = LIS3DSH_FILTER_BW_800;
 136:Drivers/BSP/STM32F4-Discovery/stm32f4_discovery_accelerometer.c ****     
 137:Drivers/BSP/STM32F4-Discovery/stm32f4_discovery_accelerometer.c ****     /* Configure MEMS: power mode(ODR) and axes enable */
 138:Drivers/BSP/STM32F4-Discovery/stm32f4_discovery_accelerometer.c ****     ctrl = (uint16_t) (l1s3dsh_InitStruct.Output_DataRate | \
 139:Drivers/BSP/STM32F4-Discovery/stm32f4_discovery_accelerometer.c ****                        l1s3dsh_InitStruct.Axes_Enable);
 140:Drivers/BSP/STM32F4-Discovery/stm32f4_discovery_accelerometer.c ****     
 141:Drivers/BSP/STM32F4-Discovery/stm32f4_discovery_accelerometer.c ****     /* Configure MEMS: full scale and self test */
 142:Drivers/BSP/STM32F4-Discovery/stm32f4_discovery_accelerometer.c ****     ctrl |= (uint16_t) ((l1s3dsh_InitStruct.SPI_Wire    | \
 143:Drivers/BSP/STM32F4-Discovery/stm32f4_discovery_accelerometer.c ****                          l1s3dsh_InitStruct.Self_Test   | \
 144:Drivers/BSP/STM32F4-Discovery/stm32f4_discovery_accelerometer.c ****                          l1s3dsh_InitStruct.Full_Scale  | \
 145:Drivers/BSP/STM32F4-Discovery/stm32f4_discovery_accelerometer.c ****                          l1s3dsh_InitStruct.Filter_BW) << 8);
 146:Drivers/BSP/STM32F4-Discovery/stm32f4_discovery_accelerometer.c **** 
 147:Drivers/BSP/STM32F4-Discovery/stm32f4_discovery_accelerometer.c ****     /* Configure the accelerometer main parameters */
 148:Drivers/BSP/STM32F4-Discovery/stm32f4_discovery_accelerometer.c ****     AcceleroDrv->Init(ctrl);
 149:Drivers/BSP/STM32F4-Discovery/stm32f4_discovery_accelerometer.c ****     
 150:Drivers/BSP/STM32F4-Discovery/stm32f4_discovery_accelerometer.c ****     ret = ACCELERO_OK;
 151:Drivers/BSP/STM32F4-Discovery/stm32f4_discovery_accelerometer.c ****   }
 152:Drivers/BSP/STM32F4-Discovery/stm32f4_discovery_accelerometer.c **** 
 153:Drivers/BSP/STM32F4-Discovery/stm32f4_discovery_accelerometer.c ****   else
 154:Drivers/BSP/STM32F4-Discovery/stm32f4_discovery_accelerometer.c ****   {
 155:Drivers/BSP/STM32F4-Discovery/stm32f4_discovery_accelerometer.c ****     ret = ACCELERO_ERROR;
  67              		.loc 1 155 9 view .LVU15
  68 0016 0120     		movs	r0, #1
  69              	.LVL3:
 156:Drivers/BSP/STM32F4-Discovery/stm32f4_discovery_accelerometer.c ****   }
 157:Drivers/BSP/STM32F4-Discovery/stm32f4_discovery_accelerometer.c ****   return ret;
  70              		.loc 1 157 3 is_stmt 1 view .LVU16
 158:Drivers/BSP/STM32F4-Discovery/stm32f4_discovery_accelerometer.c **** }
ARM GAS  /var/folders/lp/x54gwt890xv47sdkqj1k04q40000gn/T//ccVxfEIa.s 			page 5


  71              		.loc 1 158 1 is_stmt 0 view .LVU17
  72 0018 38BD     		pop	{r3, r4, r5, pc}
  73              	.LVL4:
  74              	.L9:
 127:Drivers/BSP/STM32F4-Discovery/stm32f4_discovery_accelerometer.c **** 
  75              		.loc 1 127 5 is_stmt 1 view .LVU18
 127:Drivers/BSP/STM32F4-Discovery/stm32f4_discovery_accelerometer.c **** 
  76              		.loc 1 127 17 is_stmt 0 view .LVU19
  77 001a 0A4A     		ldr	r2, .L10+8
 148:Drivers/BSP/STM32F4-Discovery/stm32f4_discovery_accelerometer.c ****     
  78              		.loc 1 148 5 view .LVU20
  79 001c 2368     		ldr	r3, [r4]
 127:Drivers/BSP/STM32F4-Discovery/stm32f4_discovery_accelerometer.c **** 
  80              		.loc 1 127 17 view .LVU21
  81 001e 1460     		str	r4, [r2]
 130:Drivers/BSP/STM32F4-Discovery/stm32f4_discovery_accelerometer.c ****     l1s3dsh_InitStruct.Axes_Enable = LIS3DSH_XYZ_ENABLE;
  82              		.loc 1 130 5 is_stmt 1 view .LVU22
  83              	.LVL5:
 131:Drivers/BSP/STM32F4-Discovery/stm32f4_discovery_accelerometer.c ****     l1s3dsh_InitStruct.SPI_Wire = LIS3DSH_SERIALINTERFACE_4WIRE;
  84              		.loc 1 131 5 view .LVU23
 132:Drivers/BSP/STM32F4-Discovery/stm32f4_discovery_accelerometer.c ****     l1s3dsh_InitStruct.Self_Test = LIS3DSH_SELFTEST_NORMAL;
  85              		.loc 1 132 5 view .LVU24
 133:Drivers/BSP/STM32F4-Discovery/stm32f4_discovery_accelerometer.c ****     l1s3dsh_InitStruct.Full_Scale = LIS3DSH_FULLSCALE_2;
  86              		.loc 1 133 5 view .LVU25
 134:Drivers/BSP/STM32F4-Discovery/stm32f4_discovery_accelerometer.c ****     l1s3dsh_InitStruct.Filter_BW = LIS3DSH_FILTER_BW_800;
  87              		.loc 1 134 5 view .LVU26
 135:Drivers/BSP/STM32F4-Discovery/stm32f4_discovery_accelerometer.c ****     
  88              		.loc 1 135 5 view .LVU27
 138:Drivers/BSP/STM32F4-Discovery/stm32f4_discovery_accelerometer.c ****                        l1s3dsh_InitStruct.Axes_Enable);
  89              		.loc 1 138 5 view .LVU28
 142:Drivers/BSP/STM32F4-Discovery/stm32f4_discovery_accelerometer.c ****                          l1s3dsh_InitStruct.Self_Test   | \
  90              		.loc 1 142 5 view .LVU29
 148:Drivers/BSP/STM32F4-Discovery/stm32f4_discovery_accelerometer.c ****     
  91              		.loc 1 148 5 view .LVU30
  92 0020 6720     		movs	r0, #103
  93 0022 9847     		blx	r3
  94              	.LVL6:
 150:Drivers/BSP/STM32F4-Discovery/stm32f4_discovery_accelerometer.c ****   }
  95              		.loc 1 150 5 view .LVU31
  96              	.L3:
 122:Drivers/BSP/STM32F4-Discovery/stm32f4_discovery_accelerometer.c ****   }
  97              		.loc 1 122 9 is_stmt 0 view .LVU32
  98 0024 0020     		movs	r0, #0
  99              	.LVL7:
 157:Drivers/BSP/STM32F4-Discovery/stm32f4_discovery_accelerometer.c **** }
 100              		.loc 1 157 3 is_stmt 1 view .LVU33
 101              		.loc 1 158 1 is_stmt 0 view .LVU34
 102 0026 38BD     		pop	{r3, r4, r5, pc}
 103              	.LVL8:
 104              	.L8:
  92:Drivers/BSP/STM32F4-Discovery/stm32f4_discovery_accelerometer.c **** 
 105              		.loc 1 92 5 is_stmt 1 view .LVU35
  92:Drivers/BSP/STM32F4-Discovery/stm32f4_discovery_accelerometer.c **** 
 106              		.loc 1 92 17 is_stmt 0 view .LVU36
 107 0028 064D     		ldr	r5, .L10+8
 107:Drivers/BSP/STM32F4-Discovery/stm32f4_discovery_accelerometer.c ****     
 108              		.loc 1 107 5 view .LVU37
ARM GAS  /var/folders/lp/x54gwt890xv47sdkqj1k04q40000gn/T//ccVxfEIa.s 			page 6


 109 002a 2368     		ldr	r3, [r4]
  92:Drivers/BSP/STM32F4-Discovery/stm32f4_discovery_accelerometer.c **** 
 110              		.loc 1 92 17 view .LVU38
 111 002c 2C60     		str	r4, [r5]
  95:Drivers/BSP/STM32F4-Discovery/stm32f4_discovery_accelerometer.c ****     lis302dl_initstruct.Output_DataRate = LIS302DL_DATARATE_100;
 112              		.loc 1 95 5 is_stmt 1 view .LVU39
 113              	.LVL9:
  96:Drivers/BSP/STM32F4-Discovery/stm32f4_discovery_accelerometer.c ****     lis302dl_initstruct.Axes_Enable = LIS302DL_XYZ_ENABLE;
 114              		.loc 1 96 5 view .LVU40
  97:Drivers/BSP/STM32F4-Discovery/stm32f4_discovery_accelerometer.c ****     lis302dl_initstruct.Full_Scale = LIS302DL_FULLSCALE_2_3;
 115              		.loc 1 97 5 view .LVU41
  98:Drivers/BSP/STM32F4-Discovery/stm32f4_discovery_accelerometer.c ****     lis302dl_initstruct.Self_Test = LIS302DL_SELFTEST_NORMAL;
 116              		.loc 1 98 5 view .LVU42
  99:Drivers/BSP/STM32F4-Discovery/stm32f4_discovery_accelerometer.c ****     
 117              		.loc 1 99 5 view .LVU43
 102:Drivers/BSP/STM32F4-Discovery/stm32f4_discovery_accelerometer.c ****                        lis302dl_initstruct.Full_Scale | lis302dl_initstruct.Self_Test | \
 118              		.loc 1 102 5 view .LVU44
 107:Drivers/BSP/STM32F4-Discovery/stm32f4_discovery_accelerometer.c ****     
 119              		.loc 1 107 5 view .LVU45
 120 002e 4720     		movs	r0, #71
 121 0030 9847     		blx	r3
 122              	.LVL10:
 110:Drivers/BSP/STM32F4-Discovery/stm32f4_discovery_accelerometer.c ****     lis302dl_filter.HighPassFilter_CutOff_Frequency = LIS302DL_HIGHPASSFILTER_LEVEL_1;
 123              		.loc 1 110 5 view .LVU46
 111:Drivers/BSP/STM32F4-Discovery/stm32f4_discovery_accelerometer.c ****     lis302dl_filter.HighPassFilter_Interrupt = LIS302DL_HIGHPASSFILTERINTERRUPT_1_2;
 124              		.loc 1 111 5 view .LVU47
 112:Drivers/BSP/STM32F4-Discovery/stm32f4_discovery_accelerometer.c ****     
 125              		.loc 1 112 5 view .LVU48
 115:Drivers/BSP/STM32F4-Discovery/stm32f4_discovery_accelerometer.c ****                      lis302dl_filter.HighPassFilter_CutOff_Frequency | \
 126              		.loc 1 115 5 view .LVU49
 120:Drivers/BSP/STM32F4-Discovery/stm32f4_discovery_accelerometer.c **** 
 127              		.loc 1 120 5 view .LVU50
 120:Drivers/BSP/STM32F4-Discovery/stm32f4_discovery_accelerometer.c **** 
 128              		.loc 1 120 16 is_stmt 0 view .LVU51
 129 0032 2B68     		ldr	r3, [r5]
 120:Drivers/BSP/STM32F4-Discovery/stm32f4_discovery_accelerometer.c **** 
 130              		.loc 1 120 5 view .LVU52
 131 0034 2D20     		movs	r0, #45
 132 0036 9B6A     		ldr	r3, [r3, #40]
 133 0038 9847     		blx	r3
 134              	.LVL11:
 122:Drivers/BSP/STM32F4-Discovery/stm32f4_discovery_accelerometer.c ****   }
 135              		.loc 1 122 5 is_stmt 1 view .LVU53
 122:Drivers/BSP/STM32F4-Discovery/stm32f4_discovery_accelerometer.c ****   }
 136              		.loc 1 122 5 is_stmt 0 view .LVU54
 137 003a F3E7     		b	.L3
 138              	.L11:
 139              		.align	2
 140              	.L10:
 141 003c 00000000 		.word	Lis302dlDrv
 142 0040 00000000 		.word	Lis3dshDrv
 143 0044 00000000 		.word	AcceleroDrv
 144              		.cfi_endproc
 145              	.LFE235:
 147              		.section	.text.BSP_ACCELERO_ReadID,"ax",%progbits
 148              		.align	1
 149              		.p2align 2,,3
ARM GAS  /var/folders/lp/x54gwt890xv47sdkqj1k04q40000gn/T//ccVxfEIa.s 			page 7


 150              		.global	BSP_ACCELERO_ReadID
 151              		.syntax unified
 152              		.thumb
 153              		.thumb_func
 155              	BSP_ACCELERO_ReadID:
 156              	.LFB236:
 159:Drivers/BSP/STM32F4-Discovery/stm32f4_discovery_accelerometer.c **** 
 160:Drivers/BSP/STM32F4-Discovery/stm32f4_discovery_accelerometer.c **** /**
 161:Drivers/BSP/STM32F4-Discovery/stm32f4_discovery_accelerometer.c ****   * @brief  Read ID of Accelerometer component.
 162:Drivers/BSP/STM32F4-Discovery/stm32f4_discovery_accelerometer.c ****   * @retval ID
 163:Drivers/BSP/STM32F4-Discovery/stm32f4_discovery_accelerometer.c ****   */
 164:Drivers/BSP/STM32F4-Discovery/stm32f4_discovery_accelerometer.c **** uint8_t BSP_ACCELERO_ReadID(void)
 165:Drivers/BSP/STM32F4-Discovery/stm32f4_discovery_accelerometer.c **** {
 157              		.loc 1 165 1 is_stmt 1 view -0
 158              		.cfi_startproc
 159              		@ args = 0, pretend = 0, frame = 0
 160              		@ frame_needed = 0, uses_anonymous_args = 0
 161              		@ link register save eliminated.
 166:Drivers/BSP/STM32F4-Discovery/stm32f4_discovery_accelerometer.c ****   uint8_t id = 0x00;
 162              		.loc 1 166 3 view .LVU56
 163              	.LVL12:
 167:Drivers/BSP/STM32F4-Discovery/stm32f4_discovery_accelerometer.c **** 
 168:Drivers/BSP/STM32F4-Discovery/stm32f4_discovery_accelerometer.c ****   if(AcceleroDrv->ReadID != NULL)
 164              		.loc 1 168 3 view .LVU57
 165              		.loc 1 168 17 is_stmt 0 view .LVU58
 166 0000 024B     		ldr	r3, .L14
 167 0002 1B68     		ldr	r3, [r3]
 168 0004 9868     		ldr	r0, [r3, #8]
 169              		.loc 1 168 5 view .LVU59
 170 0006 00B1     		cbz	r0, .L13
 169:Drivers/BSP/STM32F4-Discovery/stm32f4_discovery_accelerometer.c ****   {
 170:Drivers/BSP/STM32F4-Discovery/stm32f4_discovery_accelerometer.c ****     id = AcceleroDrv->ReadID();
 171              		.loc 1 170 5 is_stmt 1 view .LVU60
 172              		.loc 1 170 10 is_stmt 0 view .LVU61
 173 0008 0047     		bx	r0
 174              	.LVL13:
 175              	.L13:
 171:Drivers/BSP/STM32F4-Discovery/stm32f4_discovery_accelerometer.c ****   }  
 172:Drivers/BSP/STM32F4-Discovery/stm32f4_discovery_accelerometer.c ****   return id;
 176              		.loc 1 172 3 is_stmt 1 view .LVU62
 173:Drivers/BSP/STM32F4-Discovery/stm32f4_discovery_accelerometer.c **** }
 177              		.loc 1 173 1 is_stmt 0 view .LVU63
 178 000a 7047     		bx	lr
 179              	.L15:
 180              		.align	2
 181              	.L14:
 182 000c 00000000 		.word	AcceleroDrv
 183              		.cfi_endproc
 184              	.LFE236:
 186              		.section	.text.BSP_ACCELERO_Reset,"ax",%progbits
 187              		.align	1
 188              		.p2align 2,,3
 189              		.global	BSP_ACCELERO_Reset
 190              		.syntax unified
 191              		.thumb
 192              		.thumb_func
 194              	BSP_ACCELERO_Reset:
ARM GAS  /var/folders/lp/x54gwt890xv47sdkqj1k04q40000gn/T//ccVxfEIa.s 			page 8


 195              	.LFB237:
 174:Drivers/BSP/STM32F4-Discovery/stm32f4_discovery_accelerometer.c **** 
 175:Drivers/BSP/STM32F4-Discovery/stm32f4_discovery_accelerometer.c **** /**
 176:Drivers/BSP/STM32F4-Discovery/stm32f4_discovery_accelerometer.c ****   * @brief  Reboot memory content of Accelerometer.
 177:Drivers/BSP/STM32F4-Discovery/stm32f4_discovery_accelerometer.c ****   */
 178:Drivers/BSP/STM32F4-Discovery/stm32f4_discovery_accelerometer.c **** void BSP_ACCELERO_Reset(void)
 179:Drivers/BSP/STM32F4-Discovery/stm32f4_discovery_accelerometer.c **** {
 196              		.loc 1 179 1 is_stmt 1 view -0
 197              		.cfi_startproc
 198              		@ args = 0, pretend = 0, frame = 0
 199              		@ frame_needed = 0, uses_anonymous_args = 0
 200              		@ link register save eliminated.
 180:Drivers/BSP/STM32F4-Discovery/stm32f4_discovery_accelerometer.c ****   if(AcceleroDrv->Reset != NULL)
 201              		.loc 1 180 3 view .LVU65
 202              		.loc 1 180 17 is_stmt 0 view .LVU66
 203 0000 024B     		ldr	r3, .L18
 204 0002 1B68     		ldr	r3, [r3]
 205 0004 DB68     		ldr	r3, [r3, #12]
 206              		.loc 1 180 5 view .LVU67
 207 0006 03B1     		cbz	r3, .L16
 181:Drivers/BSP/STM32F4-Discovery/stm32f4_discovery_accelerometer.c ****   {
 182:Drivers/BSP/STM32F4-Discovery/stm32f4_discovery_accelerometer.c ****     AcceleroDrv->Reset();
 208              		.loc 1 182 5 is_stmt 1 view .LVU68
 209 0008 1847     		bx	r3	@ indirect register sibling call
 210              	.LVL14:
 211              	.L16:
 183:Drivers/BSP/STM32F4-Discovery/stm32f4_discovery_accelerometer.c ****   }
 184:Drivers/BSP/STM32F4-Discovery/stm32f4_discovery_accelerometer.c **** }
 212              		.loc 1 184 1 is_stmt 0 view .LVU69
 213 000a 7047     		bx	lr
 214              	.L19:
 215              		.align	2
 216              	.L18:
 217 000c 00000000 		.word	AcceleroDrv
 218              		.cfi_endproc
 219              	.LFE237:
 221              		.section	.text.BSP_ACCELERO_Click_ITConfig,"ax",%progbits
 222              		.align	1
 223              		.p2align 2,,3
 224              		.global	BSP_ACCELERO_Click_ITConfig
 225              		.syntax unified
 226              		.thumb
 227              		.thumb_func
 229              	BSP_ACCELERO_Click_ITConfig:
 230              	.LFB238:
 185:Drivers/BSP/STM32F4-Discovery/stm32f4_discovery_accelerometer.c **** 
 186:Drivers/BSP/STM32F4-Discovery/stm32f4_discovery_accelerometer.c **** /**
 187:Drivers/BSP/STM32F4-Discovery/stm32f4_discovery_accelerometer.c ****   * @brief  Configure Accelerometer click IT. 
 188:Drivers/BSP/STM32F4-Discovery/stm32f4_discovery_accelerometer.c ****   */
 189:Drivers/BSP/STM32F4-Discovery/stm32f4_discovery_accelerometer.c **** void BSP_ACCELERO_Click_ITConfig(void)
 190:Drivers/BSP/STM32F4-Discovery/stm32f4_discovery_accelerometer.c **** {
 231              		.loc 1 190 1 is_stmt 1 view -0
 232              		.cfi_startproc
 233              		@ args = 0, pretend = 0, frame = 0
 234              		@ frame_needed = 0, uses_anonymous_args = 0
 235              		@ link register save eliminated.
 191:Drivers/BSP/STM32F4-Discovery/stm32f4_discovery_accelerometer.c ****   if(AcceleroDrv->ConfigIT != NULL)
ARM GAS  /var/folders/lp/x54gwt890xv47sdkqj1k04q40000gn/T//ccVxfEIa.s 			page 9


 236              		.loc 1 191 3 view .LVU71
 237              		.loc 1 191 17 is_stmt 0 view .LVU72
 238 0000 024B     		ldr	r3, .L22
 239 0002 1B68     		ldr	r3, [r3]
 240 0004 5B69     		ldr	r3, [r3, #20]
 241              		.loc 1 191 5 view .LVU73
 242 0006 03B1     		cbz	r3, .L20
 192:Drivers/BSP/STM32F4-Discovery/stm32f4_discovery_accelerometer.c ****   {
 193:Drivers/BSP/STM32F4-Discovery/stm32f4_discovery_accelerometer.c ****     AcceleroDrv->ConfigIT();
 243              		.loc 1 193 5 is_stmt 1 view .LVU74
 244 0008 1847     		bx	r3	@ indirect register sibling call
 245              	.LVL15:
 246              	.L20:
 194:Drivers/BSP/STM32F4-Discovery/stm32f4_discovery_accelerometer.c ****   }
 195:Drivers/BSP/STM32F4-Discovery/stm32f4_discovery_accelerometer.c **** }
 247              		.loc 1 195 1 is_stmt 0 view .LVU75
 248 000a 7047     		bx	lr
 249              	.L23:
 250              		.align	2
 251              	.L22:
 252 000c 00000000 		.word	AcceleroDrv
 253              		.cfi_endproc
 254              	.LFE238:
 256              		.section	.text.BSP_ACCELERO_Click_ITClear,"ax",%progbits
 257              		.align	1
 258              		.p2align 2,,3
 259              		.global	BSP_ACCELERO_Click_ITClear
 260              		.syntax unified
 261              		.thumb
 262              		.thumb_func
 264              	BSP_ACCELERO_Click_ITClear:
 265              	.LFB239:
 196:Drivers/BSP/STM32F4-Discovery/stm32f4_discovery_accelerometer.c **** 
 197:Drivers/BSP/STM32F4-Discovery/stm32f4_discovery_accelerometer.c **** /**
 198:Drivers/BSP/STM32F4-Discovery/stm32f4_discovery_accelerometer.c ****   * @brief  Clear Accelerometer click IT.
 199:Drivers/BSP/STM32F4-Discovery/stm32f4_discovery_accelerometer.c ****   */
 200:Drivers/BSP/STM32F4-Discovery/stm32f4_discovery_accelerometer.c **** void BSP_ACCELERO_Click_ITClear(void)
 201:Drivers/BSP/STM32F4-Discovery/stm32f4_discovery_accelerometer.c **** {
 266              		.loc 1 201 1 is_stmt 1 view -0
 267              		.cfi_startproc
 268              		@ args = 0, pretend = 0, frame = 0
 269              		@ frame_needed = 0, uses_anonymous_args = 0
 270              		@ link register save eliminated.
 202:Drivers/BSP/STM32F4-Discovery/stm32f4_discovery_accelerometer.c ****   if(AcceleroDrv->ClearIT != NULL)
 271              		.loc 1 202 3 view .LVU77
 272              		.loc 1 202 17 is_stmt 0 view .LVU78
 273 0000 024B     		ldr	r3, .L26
 274 0002 1B68     		ldr	r3, [r3]
 275 0004 5B6A     		ldr	r3, [r3, #36]
 276              		.loc 1 202 5 view .LVU79
 277 0006 03B1     		cbz	r3, .L24
 203:Drivers/BSP/STM32F4-Discovery/stm32f4_discovery_accelerometer.c ****   {
 204:Drivers/BSP/STM32F4-Discovery/stm32f4_discovery_accelerometer.c ****     AcceleroDrv->ClearIT();
 278              		.loc 1 204 5 is_stmt 1 view .LVU80
 279 0008 1847     		bx	r3	@ indirect register sibling call
 280              	.LVL16:
 281              	.L24:
ARM GAS  /var/folders/lp/x54gwt890xv47sdkqj1k04q40000gn/T//ccVxfEIa.s 			page 10


 205:Drivers/BSP/STM32F4-Discovery/stm32f4_discovery_accelerometer.c ****   }
 206:Drivers/BSP/STM32F4-Discovery/stm32f4_discovery_accelerometer.c **** }
 282              		.loc 1 206 1 is_stmt 0 view .LVU81
 283 000a 7047     		bx	lr
 284              	.L27:
 285              		.align	2
 286              	.L26:
 287 000c 00000000 		.word	AcceleroDrv
 288              		.cfi_endproc
 289              	.LFE239:
 291              		.section	.text.BSP_ACCELERO_GetXYZ,"ax",%progbits
 292              		.align	1
 293              		.p2align 2,,3
 294              		.global	BSP_ACCELERO_GetXYZ
 295              		.syntax unified
 296              		.thumb
 297              		.thumb_func
 299              	BSP_ACCELERO_GetXYZ:
 300              	.LVL17:
 301              	.LFB240:
 207:Drivers/BSP/STM32F4-Discovery/stm32f4_discovery_accelerometer.c **** 
 208:Drivers/BSP/STM32F4-Discovery/stm32f4_discovery_accelerometer.c **** /**
 209:Drivers/BSP/STM32F4-Discovery/stm32f4_discovery_accelerometer.c ****   * @brief  Get XYZ axes acceleration.
 210:Drivers/BSP/STM32F4-Discovery/stm32f4_discovery_accelerometer.c ****   * @param  pDataXYZ: Pointer to 3 angular acceleration axes.  
 211:Drivers/BSP/STM32F4-Discovery/stm32f4_discovery_accelerometer.c ****   *                   pDataXYZ[0] = X axis, pDataXYZ[1] = Y axis, pDataXYZ[2] = Z axis
 212:Drivers/BSP/STM32F4-Discovery/stm32f4_discovery_accelerometer.c ****   */
 213:Drivers/BSP/STM32F4-Discovery/stm32f4_discovery_accelerometer.c **** void BSP_ACCELERO_GetXYZ(int16_t *pDataXYZ)
 214:Drivers/BSP/STM32F4-Discovery/stm32f4_discovery_accelerometer.c **** {
 302              		.loc 1 214 1 is_stmt 1 view -0
 303              		.cfi_startproc
 304              		@ args = 0, pretend = 0, frame = 0
 305              		@ frame_needed = 0, uses_anonymous_args = 0
 215:Drivers/BSP/STM32F4-Discovery/stm32f4_discovery_accelerometer.c ****   int16_t SwitchXY = 0;
 306              		.loc 1 215 3 view .LVU83
 216:Drivers/BSP/STM32F4-Discovery/stm32f4_discovery_accelerometer.c ****   
 217:Drivers/BSP/STM32F4-Discovery/stm32f4_discovery_accelerometer.c ****   if(AcceleroDrv->GetXYZ != NULL)
 307              		.loc 1 217 3 view .LVU84
 214:Drivers/BSP/STM32F4-Discovery/stm32f4_discovery_accelerometer.c ****   int16_t SwitchXY = 0;
 308              		.loc 1 214 1 is_stmt 0 view .LVU85
 309 0000 38B5     		push	{r3, r4, r5, lr}
 310              		.cfi_def_cfa_offset 16
 311              		.cfi_offset 3, -16
 312              		.cfi_offset 4, -12
 313              		.cfi_offset 5, -8
 314              		.cfi_offset 14, -4
 315              		.loc 1 217 17 view .LVU86
 316 0002 094D     		ldr	r5, .L34
 317 0004 2B68     		ldr	r3, [r5]
 318 0006 1B6B     		ldr	r3, [r3, #48]
 319              		.loc 1 217 5 view .LVU87
 320 0008 2BB1     		cbz	r3, .L28
 321 000a 0446     		mov	r4, r0
 218:Drivers/BSP/STM32F4-Discovery/stm32f4_discovery_accelerometer.c ****   {   
 219:Drivers/BSP/STM32F4-Discovery/stm32f4_discovery_accelerometer.c ****     AcceleroDrv->GetXYZ(pDataXYZ);
 322              		.loc 1 219 5 is_stmt 1 view .LVU88
 323 000c 9847     		blx	r3
 324              	.LVL18:
ARM GAS  /var/folders/lp/x54gwt890xv47sdkqj1k04q40000gn/T//ccVxfEIa.s 			page 11


 220:Drivers/BSP/STM32F4-Discovery/stm32f4_discovery_accelerometer.c ****     
 221:Drivers/BSP/STM32F4-Discovery/stm32f4_discovery_accelerometer.c ****     /* Switch X and Y Axes in case of LIS302DL MEMS */
 222:Drivers/BSP/STM32F4-Discovery/stm32f4_discovery_accelerometer.c ****     if(AcceleroDrv == &Lis302dlDrv)
 325              		.loc 1 222 5 view .LVU89
 326              		.loc 1 222 7 is_stmt 0 view .LVU90
 327 000e 074B     		ldr	r3, .L34+4
 328 0010 2A68     		ldr	r2, [r5]
 329 0012 9A42     		cmp	r2, r3
 330 0014 00D0     		beq	.L33
 331              	.LVL19:
 332              	.L28:
 223:Drivers/BSP/STM32F4-Discovery/stm32f4_discovery_accelerometer.c ****     { 
 224:Drivers/BSP/STM32F4-Discovery/stm32f4_discovery_accelerometer.c ****       SwitchXY  = pDataXYZ[0];
 225:Drivers/BSP/STM32F4-Discovery/stm32f4_discovery_accelerometer.c ****       pDataXYZ[0] = pDataXYZ[1];
 226:Drivers/BSP/STM32F4-Discovery/stm32f4_discovery_accelerometer.c ****       /* Invert Y Axis to be compliant with LIS3DSH MEMS */
 227:Drivers/BSP/STM32F4-Discovery/stm32f4_discovery_accelerometer.c ****       pDataXYZ[1] = -SwitchXY;
 228:Drivers/BSP/STM32F4-Discovery/stm32f4_discovery_accelerometer.c ****     } 
 229:Drivers/BSP/STM32F4-Discovery/stm32f4_discovery_accelerometer.c ****   }
 230:Drivers/BSP/STM32F4-Discovery/stm32f4_discovery_accelerometer.c **** }
 333              		.loc 1 230 1 view .LVU91
 334 0016 38BD     		pop	{r3, r4, r5, pc}
 335              	.LVL20:
 336              	.L33:
 224:Drivers/BSP/STM32F4-Discovery/stm32f4_discovery_accelerometer.c ****       pDataXYZ[0] = pDataXYZ[1];
 337              		.loc 1 224 7 is_stmt 1 view .LVU92
 224:Drivers/BSP/STM32F4-Discovery/stm32f4_discovery_accelerometer.c ****       pDataXYZ[0] = pDataXYZ[1];
 338              		.loc 1 224 17 is_stmt 0 view .LVU93
 339 0018 B4F90030 		ldrsh	r3, [r4]
 340              	.LVL21:
 225:Drivers/BSP/STM32F4-Discovery/stm32f4_discovery_accelerometer.c ****       /* Invert Y Axis to be compliant with LIS3DSH MEMS */
 341              		.loc 1 225 7 is_stmt 1 view .LVU94
 225:Drivers/BSP/STM32F4-Discovery/stm32f4_discovery_accelerometer.c ****       /* Invert Y Axis to be compliant with LIS3DSH MEMS */
 342              		.loc 1 225 19 is_stmt 0 view .LVU95
 343 001c 6288     		ldrh	r2, [r4, #2]
 344 001e 2280     		strh	r2, [r4]	@ movhi
 345              	.LVL22:
 227:Drivers/BSP/STM32F4-Discovery/stm32f4_discovery_accelerometer.c ****     } 
 346              		.loc 1 227 7 is_stmt 1 view .LVU96
 227:Drivers/BSP/STM32F4-Discovery/stm32f4_discovery_accelerometer.c ****     } 
 347              		.loc 1 227 19 is_stmt 0 view .LVU97
 348 0020 5B42     		rsbs	r3, r3, #0
 349              	.LVL23:
 227:Drivers/BSP/STM32F4-Discovery/stm32f4_discovery_accelerometer.c ****     } 
 350              		.loc 1 227 19 view .LVU98
 351 0022 6380     		strh	r3, [r4, #2]	@ movhi
 352              		.loc 1 230 1 view .LVU99
 353 0024 38BD     		pop	{r3, r4, r5, pc}
 354              	.LVL24:
 355              	.L35:
 356              		.loc 1 230 1 view .LVU100
 357 0026 00BF     		.align	2
 358              	.L34:
 359 0028 00000000 		.word	AcceleroDrv
 360 002c 00000000 		.word	Lis302dlDrv
 361              		.cfi_endproc
 362              	.LFE240:
 364              		.section	.bss.AcceleroDrv,"aw",%nobits
ARM GAS  /var/folders/lp/x54gwt890xv47sdkqj1k04q40000gn/T//ccVxfEIa.s 			page 12


 365              		.align	2
 368              	AcceleroDrv:
 369 0000 00000000 		.space	4
 370              		.text
 371              	.Letext0:
 372              		.file 2 "/Users/jr/Library/Application Support/Code/User/globalStorage/bmd.stm32-for-vscode/@xpack
 373              		.file 3 "/Users/jr/Library/Application Support/Code/User/globalStorage/bmd.stm32-for-vscode/@xpack
 374              		.file 4 "Drivers/BSP/STM32F4-Discovery/../Components/lis302dl/../Common/accelero.h"
 375              		.file 5 "Drivers/BSP/STM32F4-Discovery/../Components/lis302dl/lis302dl.h"
 376              		.file 6 "Drivers/BSP/STM32F4-Discovery/../Components/lis3dsh/lis3dsh.h"
 377              		.file 7 "Drivers/BSP/STM32F4-Discovery/stm32f4_discovery_accelerometer.h"
ARM GAS  /var/folders/lp/x54gwt890xv47sdkqj1k04q40000gn/T//ccVxfEIa.s 			page 13

