Archive member included to satisfy reference by file (symbol)

/Users/johannes/Library/Application Support/Code/User/globalStorage/bmd.stm32-for-vscode/@xpack-dev-tools/arm-none-eabi-gcc/11.2.1-1.2.2/.content/bin/../lib/gcc/arm-none-eabi/11.2.1/../../../../arm-none-eabi/lib/thumb/v7e-m+fp/hard/libc_nano.a(lib_a-atexit.o)
                              /Users/johannes/Library/Application Support/Code/User/globalStorage/bmd.stm32-for-vscode/@xpack-dev-tools/arm-none-eabi-gcc/11.2.1-1.2.2/.content/bin/../lib/gcc/arm-none-eabi/11.2.1/../../../../arm-none-eabi/lib/thumb/v7e-m+fp/hard/crt0.o (atexit)
/Users/johannes/Library/Application Support/Code/User/globalStorage/bmd.stm32-for-vscode/@xpack-dev-tools/arm-none-eabi-gcc/11.2.1-1.2.2/.content/bin/../lib/gcc/arm-none-eabi/11.2.1/../../../../arm-none-eabi/lib/thumb/v7e-m+fp/hard/libc_nano.a(lib_a-atoi.o)
                              build/console.o (atoi)
/Users/johannes/Library/Application Support/Code/User/globalStorage/bmd.stm32-for-vscode/@xpack-dev-tools/arm-none-eabi-gcc/11.2.1-1.2.2/.content/bin/../lib/gcc/arm-none-eabi/11.2.1/../../../../arm-none-eabi/lib/thumb/v7e-m+fp/hard/libc_nano.a(lib_a-exit.o)
                              /Users/johannes/Library/Application Support/Code/User/globalStorage/bmd.stm32-for-vscode/@xpack-dev-tools/arm-none-eabi-gcc/11.2.1-1.2.2/.content/bin/../lib/gcc/arm-none-eabi/11.2.1/../../../../arm-none-eabi/lib/thumb/v7e-m+fp/hard/crt0.o (exit)
/Users/johannes/Library/Application Support/Code/User/globalStorage/bmd.stm32-for-vscode/@xpack-dev-tools/arm-none-eabi-gcc/11.2.1-1.2.2/.content/bin/../lib/gcc/arm-none-eabi/11.2.1/../../../../arm-none-eabi/lib/thumb/v7e-m+fp/hard/libc_nano.a(lib_a-fini.o)
                              /Users/johannes/Library/Application Support/Code/User/globalStorage/bmd.stm32-for-vscode/@xpack-dev-tools/arm-none-eabi-gcc/11.2.1-1.2.2/.content/bin/../lib/gcc/arm-none-eabi/11.2.1/../../../../arm-none-eabi/lib/thumb/v7e-m+fp/hard/crt0.o (__libc_fini_array)
/Users/johannes/Library/Application Support/Code/User/globalStorage/bmd.stm32-for-vscode/@xpack-dev-tools/arm-none-eabi-gcc/11.2.1-1.2.2/.content/bin/../lib/gcc/arm-none-eabi/11.2.1/../../../../arm-none-eabi/lib/thumb/v7e-m+fp/hard/libc_nano.a(lib_a-impure.o)
                              /Users/johannes/Library/Application Support/Code/User/globalStorage/bmd.stm32-for-vscode/@xpack-dev-tools/arm-none-eabi-gcc/11.2.1-1.2.2/.content/bin/../lib/gcc/arm-none-eabi/11.2.1/../../../../arm-none-eabi/lib/thumb/v7e-m+fp/hard/libc_nano.a(lib_a-exit.o) (_global_impure_ptr)
/Users/johannes/Library/Application Support/Code/User/globalStorage/bmd.stm32-for-vscode/@xpack-dev-tools/arm-none-eabi-gcc/11.2.1-1.2.2/.content/bin/../lib/gcc/arm-none-eabi/11.2.1/../../../../arm-none-eabi/lib/thumb/v7e-m+fp/hard/libc_nano.a(lib_a-init.o)
                              /Users/johannes/Library/Application Support/Code/User/globalStorage/bmd.stm32-for-vscode/@xpack-dev-tools/arm-none-eabi-gcc/11.2.1-1.2.2/.content/bin/../lib/gcc/arm-none-eabi/11.2.1/../../../../arm-none-eabi/lib/thumb/v7e-m+fp/hard/crt0.o (__libc_init_array)
/Users/johannes/Library/Application Support/Code/User/globalStorage/bmd.stm32-for-vscode/@xpack-dev-tools/arm-none-eabi-gcc/11.2.1-1.2.2/.content/bin/../lib/gcc/arm-none-eabi/11.2.1/../../../../arm-none-eabi/lib/thumb/v7e-m+fp/hard/libc_nano.a(lib_a-malloc.o)
                              build/usbh_MIDI.o (malloc)
/Users/johannes/Library/Application Support/Code/User/globalStorage/bmd.stm32-for-vscode/@xpack-dev-tools/arm-none-eabi-gcc/11.2.1-1.2.2/.content/bin/../lib/gcc/arm-none-eabi/11.2.1/../../../../arm-none-eabi/lib/thumb/v7e-m+fp/hard/libc_nano.a(lib_a-memcpy-stub.o)
                              build/SEGGER_RTT.o (memcpy)
/Users/johannes/Library/Application Support/Code/User/globalStorage/bmd.stm32-for-vscode/@xpack-dev-tools/arm-none-eabi-gcc/11.2.1-1.2.2/.content/bin/../lib/gcc/arm-none-eabi/11.2.1/../../../../arm-none-eabi/lib/thumb/v7e-m+fp/hard/libc_nano.a(lib_a-memset.o)
                              /Users/johannes/Library/Application Support/Code/User/globalStorage/bmd.stm32-for-vscode/@xpack-dev-tools/arm-none-eabi-gcc/11.2.1-1.2.2/.content/bin/../lib/gcc/arm-none-eabi/11.2.1/../../../../arm-none-eabi/lib/thumb/v7e-m+fp/hard/crt0.o (memset)
/Users/johannes/Library/Application Support/Code/User/globalStorage/bmd.stm32-for-vscode/@xpack-dev-tools/arm-none-eabi-gcc/11.2.1-1.2.2/.content/bin/../lib/gcc/arm-none-eabi/11.2.1/../../../../arm-none-eabi/lib/thumb/v7e-m+fp/hard/libc_nano.a(lib_a-nano-freer.o)
                              /Users/johannes/Library/Application Support/Code/User/globalStorage/bmd.stm32-for-vscode/@xpack-dev-tools/arm-none-eabi-gcc/11.2.1-1.2.2/.content/bin/../lib/gcc/arm-none-eabi/11.2.1/../../../../arm-none-eabi/lib/thumb/v7e-m+fp/hard/libc_nano.a(lib_a-malloc.o) (_free_r)
/Users/johannes/Library/Application Support/Code/User/globalStorage/bmd.stm32-for-vscode/@xpack-dev-tools/arm-none-eabi-gcc/11.2.1-1.2.2/.content/bin/../lib/gcc/arm-none-eabi/11.2.1/../../../../arm-none-eabi/lib/thumb/v7e-m+fp/hard/libc_nano.a(lib_a-nano-mallocr.o)
                              /Users/johannes/Library/Application Support/Code/User/globalStorage/bmd.stm32-for-vscode/@xpack-dev-tools/arm-none-eabi-gcc/11.2.1-1.2.2/.content/bin/../lib/gcc/arm-none-eabi/11.2.1/../../../../arm-none-eabi/lib/thumb/v7e-m+fp/hard/libc_nano.a(lib_a-malloc.o) (_malloc_r)
/Users/johannes/Library/Application Support/Code/User/globalStorage/bmd.stm32-for-vscode/@xpack-dev-tools/arm-none-eabi-gcc/11.2.1-1.2.2/.content/bin/../lib/gcc/arm-none-eabi/11.2.1/../../../../arm-none-eabi/lib/thumb/v7e-m+fp/hard/libc_nano.a(lib_a-sbrkr.o)
                              /Users/johannes/Library/Application Support/Code/User/globalStorage/bmd.stm32-for-vscode/@xpack-dev-tools/arm-none-eabi-gcc/11.2.1-1.2.2/.content/bin/../lib/gcc/arm-none-eabi/11.2.1/../../../../arm-none-eabi/lib/thumb/v7e-m+fp/hard/libc_nano.a(lib_a-nano-mallocr.o) (_sbrk_r)
/Users/johannes/Library/Application Support/Code/User/globalStorage/bmd.stm32-for-vscode/@xpack-dev-tools/arm-none-eabi-gcc/11.2.1-1.2.2/.content/bin/../lib/gcc/arm-none-eabi/11.2.1/../../../../arm-none-eabi/lib/thumb/v7e-m+fp/hard/libc_nano.a(lib_a-strlen.o)
                              build/SEGGER_RTT.o (strlen)
/Users/johannes/Library/Application Support/Code/User/globalStorage/bmd.stm32-for-vscode/@xpack-dev-tools/arm-none-eabi-gcc/11.2.1-1.2.2/.content/bin/../lib/gcc/arm-none-eabi/11.2.1/../../../../arm-none-eabi/lib/thumb/v7e-m+fp/hard/libc_nano.a(lib_a-strtol.o)
                              /Users/johannes/Library/Application Support/Code/User/globalStorage/bmd.stm32-for-vscode/@xpack-dev-tools/arm-none-eabi-gcc/11.2.1-1.2.2/.content/bin/../lib/gcc/arm-none-eabi/11.2.1/../../../../arm-none-eabi/lib/thumb/v7e-m+fp/hard/libc_nano.a(lib_a-atoi.o) (_strtol_r)
/Users/johannes/Library/Application Support/Code/User/globalStorage/bmd.stm32-for-vscode/@xpack-dev-tools/arm-none-eabi-gcc/11.2.1-1.2.2/.content/bin/../lib/gcc/arm-none-eabi/11.2.1/../../../../arm-none-eabi/lib/thumb/v7e-m+fp/hard/libc_nano.a(lib_a-__atexit.o)
                              /Users/johannes/Library/Application Support/Code/User/globalStorage/bmd.stm32-for-vscode/@xpack-dev-tools/arm-none-eabi-gcc/11.2.1-1.2.2/.content/bin/../lib/gcc/arm-none-eabi/11.2.1/../../../../arm-none-eabi/lib/thumb/v7e-m+fp/hard/libc_nano.a(lib_a-atexit.o) (__register_exitproc)
/Users/johannes/Library/Application Support/Code/User/globalStorage/bmd.stm32-for-vscode/@xpack-dev-tools/arm-none-eabi-gcc/11.2.1-1.2.2/.content/bin/../lib/gcc/arm-none-eabi/11.2.1/../../../../arm-none-eabi/lib/thumb/v7e-m+fp/hard/libc_nano.a(lib_a-__call_atexit.o)
                              /Users/johannes/Library/Application Support/Code/User/globalStorage/bmd.stm32-for-vscode/@xpack-dev-tools/arm-none-eabi-gcc/11.2.1-1.2.2/.content/bin/../lib/gcc/arm-none-eabi/11.2.1/../../../../arm-none-eabi/lib/thumb/v7e-m+fp/hard/libc_nano.a(lib_a-__atexit.o) (__call_exitprocs)
/Users/johannes/Library/Application Support/Code/User/globalStorage/bmd.stm32-for-vscode/@xpack-dev-tools/arm-none-eabi-gcc/11.2.1-1.2.2/.content/bin/../lib/gcc/arm-none-eabi/11.2.1/../../../../arm-none-eabi/lib/thumb/v7e-m+fp/hard/libc_nano.a(lib_a-ctype_.o)
                              /Users/johannes/Library/Application Support/Code/User/globalStorage/bmd.stm32-for-vscode/@xpack-dev-tools/arm-none-eabi-gcc/11.2.1-1.2.2/.content/bin/../lib/gcc/arm-none-eabi/11.2.1/../../../../arm-none-eabi/lib/thumb/v7e-m+fp/hard/libc_nano.a(lib_a-strtol.o) (_ctype_)
/Users/johannes/Library/Application Support/Code/User/globalStorage/bmd.stm32-for-vscode/@xpack-dev-tools/arm-none-eabi-gcc/11.2.1-1.2.2/.content/bin/../lib/gcc/arm-none-eabi/11.2.1/../../../../arm-none-eabi/lib/thumb/v7e-m+fp/hard/libc_nano.a(lib_a-errno.o)
                              /Users/johannes/Library/Application Support/Code/User/globalStorage/bmd.stm32-for-vscode/@xpack-dev-tools/arm-none-eabi-gcc/11.2.1-1.2.2/.content/bin/../lib/gcc/arm-none-eabi/11.2.1/../../../../arm-none-eabi/lib/thumb/v7e-m+fp/hard/libc_nano.a(lib_a-strtol.o) (__errno)
/Users/johannes/Library/Application Support/Code/User/globalStorage/bmd.stm32-for-vscode/@xpack-dev-tools/arm-none-eabi-gcc/11.2.1-1.2.2/.content/bin/../lib/gcc/arm-none-eabi/11.2.1/../../../../arm-none-eabi/lib/thumb/v7e-m+fp/hard/libc_nano.a(lib_a-mlock.o)
                              /Users/johannes/Library/Application Support/Code/User/globalStorage/bmd.stm32-for-vscode/@xpack-dev-tools/arm-none-eabi-gcc/11.2.1-1.2.2/.content/bin/../lib/gcc/arm-none-eabi/11.2.1/../../../../arm-none-eabi/lib/thumb/v7e-m+fp/hard/libc_nano.a(lib_a-nano-freer.o) (__malloc_lock)
/Users/johannes/Library/Application Support/Code/User/globalStorage/bmd.stm32-for-vscode/@xpack-dev-tools/arm-none-eabi-gcc/11.2.1-1.2.2/.content/bin/../lib/gcc/arm-none-eabi/11.2.1/../../../../arm-none-eabi/lib/thumb/v7e-m+fp/hard/libc_nano.a(lib_a-reent.o)
                              /Users/johannes/Library/Application Support/Code/User/globalStorage/bmd.stm32-for-vscode/@xpack-dev-tools/arm-none-eabi-gcc/11.2.1-1.2.2/.content/bin/../lib/gcc/arm-none-eabi/11.2.1/../../../../arm-none-eabi/lib/thumb/v7e-m+fp/hard/libc_nano.a(lib_a-sbrkr.o) (errno)
/Users/johannes/Library/Application Support/Code/User/globalStorage/bmd.stm32-for-vscode/@xpack-dev-tools/arm-none-eabi-gcc/11.2.1-1.2.2/.content/bin/../lib/gcc/arm-none-eabi/11.2.1/../../../../arm-none-eabi/lib/thumb/v7e-m+fp/hard/libm.a(lib_a-sf_lrint.o)
                              build/stereo_delay.o (lrintf)
/Users/johannes/Library/Application Support/Code/User/globalStorage/bmd.stm32-for-vscode/@xpack-dev-tools/arm-none-eabi-gcc/11.2.1-1.2.2/.content/bin/../lib/gcc/arm-none-eabi/11.2.1/../../../../arm-none-eabi/lib/thumb/v7e-m+fp/hard/libnosys.a(sbrk.o)
                              /Users/johannes/Library/Application Support/Code/User/globalStorage/bmd.stm32-for-vscode/@xpack-dev-tools/arm-none-eabi-gcc/11.2.1-1.2.2/.content/bin/../lib/gcc/arm-none-eabi/11.2.1/../../../../arm-none-eabi/lib/thumb/v7e-m+fp/hard/libc_nano.a(lib_a-sbrkr.o) (_sbrk)
/Users/johannes/Library/Application Support/Code/User/globalStorage/bmd.stm32-for-vscode/@xpack-dev-tools/arm-none-eabi-gcc/11.2.1-1.2.2/.content/bin/../lib/gcc/arm-none-eabi/11.2.1/../../../../arm-none-eabi/lib/thumb/v7e-m+fp/hard/libnosys.a(_exit.o)
                              /Users/johannes/Library/Application Support/Code/User/globalStorage/bmd.stm32-for-vscode/@xpack-dev-tools/arm-none-eabi-gcc/11.2.1-1.2.2/.content/bin/../lib/gcc/arm-none-eabi/11.2.1/../../../../arm-none-eabi/lib/thumb/v7e-m+fp/hard/libc_nano.a(lib_a-exit.o) (_exit)
/Users/johannes/Library/Application Support/Code/User/globalStorage/bmd.stm32-for-vscode/@xpack-dev-tools/arm-none-eabi-gcc/11.2.1-1.2.2/.content/bin/../lib/gcc/arm-none-eabi/11.2.1/thumb/v7e-m+fp/hard/libgcc.a(_arm_muldf3.o)
                              build/filters.o (__aeabi_dmul)
/Users/johannes/Library/Application Support/Code/User/globalStorage/bmd.stm32-for-vscode/@xpack-dev-tools/arm-none-eabi-gcc/11.2.1-1.2.2/.content/bin/../lib/gcc/arm-none-eabi/11.2.1/thumb/v7e-m+fp/hard/libgcc.a(_arm_addsubdf3.o)
                              build/ADSR_envelope.o (__aeabi_f2d)
/Users/johannes/Library/Application Support/Code/User/globalStorage/bmd.stm32-for-vscode/@xpack-dev-tools/arm-none-eabi-gcc/11.2.1-1.2.2/.content/bin/../lib/gcc/arm-none-eabi/11.2.1/thumb/v7e-m+fp/hard/libgcc.a(_arm_cmpdf2.o)
                              build/ADSR_envelope.o (__aeabi_dcmple)
/Users/johannes/Library/Application Support/Code/User/globalStorage/bmd.stm32-for-vscode/@xpack-dev-tools/arm-none-eabi-gcc/11.2.1-1.2.2/.content/bin/../lib/gcc/arm-none-eabi/11.2.1/thumb/v7e-m+fp/hard/libgcc.a(_arm_truncdfsf2.o)
                              build/filters.o (__aeabi_d2f)
/Users/johannes/Library/Application Support/Code/User/globalStorage/bmd.stm32-for-vscode/@xpack-dev-tools/arm-none-eabi-gcc/11.2.1-1.2.2/.content/bin/../lib/gcc/arm-none-eabi/11.2.1/thumb/v7e-m+fp/hard/libgcc.a(_aeabi_ldivmod.o)
                              build/stm32f4xx_hal_rcc.o (__aeabi_ldivmod)
/Users/johannes/Library/Application Support/Code/User/globalStorage/bmd.stm32-for-vscode/@xpack-dev-tools/arm-none-eabi-gcc/11.2.1-1.2.2/.content/bin/../lib/gcc/arm-none-eabi/11.2.1/thumb/v7e-m+fp/hard/libgcc.a(_aeabi_uldivmod.o)
                              build/stm32f4xx_hal_rcc.o (__aeabi_uldivmod)
/Users/johannes/Library/Application Support/Code/User/globalStorage/bmd.stm32-for-vscode/@xpack-dev-tools/arm-none-eabi-gcc/11.2.1-1.2.2/.content/bin/../lib/gcc/arm-none-eabi/11.2.1/thumb/v7e-m+fp/hard/libgcc.a(_udivmoddi4.o)
                              /Users/johannes/Library/Application Support/Code/User/globalStorage/bmd.stm32-for-vscode/@xpack-dev-tools/arm-none-eabi-gcc/11.2.1-1.2.2/.content/bin/../lib/gcc/arm-none-eabi/11.2.1/thumb/v7e-m+fp/hard/libgcc.a(_aeabi_ldivmod.o) (__udivmoddi4)
/Users/johannes/Library/Application Support/Code/User/globalStorage/bmd.stm32-for-vscode/@xpack-dev-tools/arm-none-eabi-gcc/11.2.1-1.2.2/.content/bin/../lib/gcc/arm-none-eabi/11.2.1/thumb/v7e-m+fp/hard/libgcc.a(_dvmd_tls.o)
                              /Users/johannes/Library/Application Support/Code/User/globalStorage/bmd.stm32-for-vscode/@xpack-dev-tools/arm-none-eabi-gcc/11.2.1-1.2.2/.content/bin/../lib/gcc/arm-none-eabi/11.2.1/thumb/v7e-m+fp/hard/libgcc.a(_aeabi_ldivmod.o) (__aeabi_ldiv0)

Discarded input sections

 .text          0x0000000000000000        0x0 /Users/johannes/Library/Application Support/Code/User/globalStorage/bmd.stm32-for-vscode/@xpack-dev-tools/arm-none-eabi-gcc/11.2.1-1.2.2/.content/bin/../lib/gcc/arm-none-eabi/11.2.1/thumb/v7e-m+fp/hard/crti.o
 .data          0x0000000000000000        0x0 /Users/johannes/Library/Application Support/Code/User/globalStorage/bmd.stm32-for-vscode/@xpack-dev-tools/arm-none-eabi-gcc/11.2.1-1.2.2/.content/bin/../lib/gcc/arm-none-eabi/11.2.1/thumb/v7e-m+fp/hard/crti.o
 .bss           0x0000000000000000        0x0 /Users/johannes/Library/Application Support/Code/User/globalStorage/bmd.stm32-for-vscode/@xpack-dev-tools/arm-none-eabi-gcc/11.2.1-1.2.2/.content/bin/../lib/gcc/arm-none-eabi/11.2.1/thumb/v7e-m+fp/hard/crti.o
 .text          0x0000000000000000        0x0 /Users/johannes/Library/Application Support/Code/User/globalStorage/bmd.stm32-for-vscode/@xpack-dev-tools/arm-none-eabi-gcc/11.2.1-1.2.2/.content/bin/../lib/gcc/arm-none-eabi/11.2.1/thumb/v7e-m+fp/hard/crtbegin.o
 .data          0x0000000000000000        0x0 /Users/johannes/Library/Application Support/Code/User/globalStorage/bmd.stm32-for-vscode/@xpack-dev-tools/arm-none-eabi-gcc/11.2.1-1.2.2/.content/bin/../lib/gcc/arm-none-eabi/11.2.1/thumb/v7e-m+fp/hard/crtbegin.o
 .bss           0x0000000000000000        0x0 /Users/johannes/Library/Application Support/Code/User/globalStorage/bmd.stm32-for-vscode/@xpack-dev-tools/arm-none-eabi-gcc/11.2.1-1.2.2/.content/bin/../lib/gcc/arm-none-eabi/11.2.1/thumb/v7e-m+fp/hard/crtbegin.o
 .rodata.all_implied_fbits
                0x0000000000000000       0x24 /Users/johannes/Library/Application Support/Code/User/globalStorage/bmd.stm32-for-vscode/@xpack-dev-tools/arm-none-eabi-gcc/11.2.1-1.2.2/.content/bin/../lib/gcc/arm-none-eabi/11.2.1/thumb/v7e-m+fp/hard/crtbegin.o
 .data.__dso_handle
                0x0000000000000000        0x4 /Users/johannes/Library/Application Support/Code/User/globalStorage/bmd.stm32-for-vscode/@xpack-dev-tools/arm-none-eabi-gcc/11.2.1-1.2.2/.content/bin/../lib/gcc/arm-none-eabi/11.2.1/thumb/v7e-m+fp/hard/crtbegin.o
 .text          0x0000000000000000       0x70 /Users/johannes/Library/Application Support/Code/User/globalStorage/bmd.stm32-for-vscode/@xpack-dev-tools/arm-none-eabi-gcc/11.2.1-1.2.2/.content/bin/../lib/gcc/arm-none-eabi/11.2.1/../../../../arm-none-eabi/lib/thumb/v7e-m+fp/hard/crt0.o
 .data          0x0000000000000000        0x0 /Users/johannes/Library/Application Support/Code/User/globalStorage/bmd.stm32-for-vscode/@xpack-dev-tools/arm-none-eabi-gcc/11.2.1-1.2.2/.content/bin/../lib/gcc/arm-none-eabi/11.2.1/../../../../arm-none-eabi/lib/thumb/v7e-m+fp/hard/crt0.o
 .bss           0x0000000000000000        0x0 /Users/johannes/Library/Application Support/Code/User/globalStorage/bmd.stm32-for-vscode/@xpack-dev-tools/arm-none-eabi-gcc/11.2.1-1.2.2/.content/bin/../lib/gcc/arm-none-eabi/11.2.1/../../../../arm-none-eabi/lib/thumb/v7e-m+fp/hard/crt0.o
 .ARM.extab     0x0000000000000000        0x0 /Users/johannes/Library/Application Support/Code/User/globalStorage/bmd.stm32-for-vscode/@xpack-dev-tools/arm-none-eabi-gcc/11.2.1-1.2.2/.content/bin/../lib/gcc/arm-none-eabi/11.2.1/../../../../arm-none-eabi/lib/thumb/v7e-m+fp/hard/crt0.o
 .ARM.exidx     0x0000000000000000       0x10 /Users/johannes/Library/Application Support/Code/User/globalStorage/bmd.stm32-for-vscode/@xpack-dev-tools/arm-none-eabi-gcc/11.2.1-1.2.2/.content/bin/../lib/gcc/arm-none-eabi/11.2.1/../../../../arm-none-eabi/lib/thumb/v7e-m+fp/hard/crt0.o
 .ARM.attributes
                0x0000000000000000       0x1c /Users/johannes/Library/Application Support/Code/User/globalStorage/bmd.stm32-for-vscode/@xpack-dev-tools/arm-none-eabi-gcc/11.2.1-1.2.2/.content/bin/../lib/gcc/arm-none-eabi/11.2.1/../../../../arm-none-eabi/lib/thumb/v7e-m+fp/hard/crt0.o
 .text          0x0000000000000000        0x0 build/ADSR_envelope.o
 .data          0x0000000000000000        0x0 build/ADSR_envelope.o
 .bss           0x0000000000000000        0x0 build/ADSR_envelope.o
 .text.ADSR_setAttackTime
                0x0000000000000000       0x68 build/ADSR_envelope.o
 .text.ADSR_setDecayTime
                0x0000000000000000       0x68 build/ADSR_envelope.o
 .text.ADSR_setSustainLevel
                0x0000000000000000        0x8 build/ADSR_envelope.o
 .text.ADSR_setReleaseTime
                0x0000000000000000       0x68 build/ADSR_envelope.o
 .text.ADSR_calculateMultiplier
                0x0000000000000000       0x5c build/ADSR_envelope.o
 .text.ADSR_setAllTimes
                0x0000000000000000       0xec build/ADSR_envelope.o
 .text.ADSR_setTarget
                0x0000000000000000       0x30 build/ADSR_envelope.o
 .text.ADSR_setValue
                0x0000000000000000       0x14 build/ADSR_envelope.o
 .text.ADSR_getState
                0x0000000000000000        0x4 build/ADSR_envelope.o
 .text          0x0000000000000000        0x0 build/MIDI_application.o
 .data          0x0000000000000000        0x0 build/MIDI_application.o
 .bss           0x0000000000000000        0x0 build/MIDI_application.o
 .text.ProcessReceivedMidiDatas
                0x0000000000000000       0x6c build/MIDI_application.o
 .text          0x0000000000000000        0x0 build/MIDI_event.o
 .data          0x0000000000000000        0x0 build/MIDI_event.o
 .bss           0x0000000000000000        0x0 build/MIDI_event.o
 .text.allNotesOff
                0x0000000000000000       0x1c build/MIDI_event.o
 .text          0x0000000000000000        0x0 build/SEGGER_RTT.o
 .data          0x0000000000000000        0x0 build/SEGGER_RTT.o
 .bss           0x0000000000000000        0x0 build/SEGGER_RTT.o
 .text.SEGGER_RTT_ReadUpBufferNoLock
                0x0000000000000000      0x148 build/SEGGER_RTT.o
 .text.SEGGER_RTT_ReadNoLock
                0x0000000000000000      0x134 build/SEGGER_RTT.o
 .text.SEGGER_RTT_ReadUpBuffer
                0x0000000000000000      0x160 build/SEGGER_RTT.o
 .text.SEGGER_RTT_Read
                0x0000000000000000      0x144 build/SEGGER_RTT.o
 .text.SEGGER_RTT_WriteWithOverwriteNoLock
                0x0000000000000000       0xdc build/SEGGER_RTT.o
 .text.SEGGER_RTT_WriteDownBufferNoLock
                0x0000000000000000      0x150 build/SEGGER_RTT.o
 .text.SEGGER_RTT_WriteNoLock
                0x0000000000000000      0x1c8 build/SEGGER_RTT.o
 .text.SEGGER_RTT_WriteDownBuffer
                0x0000000000000000      0x204 build/SEGGER_RTT.o
 .text.SEGGER_RTT_Write
                0x0000000000000000      0x278 build/SEGGER_RTT.o
 .text.SEGGER_RTT_PutCharSkipNoLock
                0x0000000000000000       0x44 build/SEGGER_RTT.o
 .text.SEGGER_RTT_PutCharSkip
                0x0000000000000000       0xe0 build/SEGGER_RTT.o
 .text.SEGGER_RTT_PutChar
                0x0000000000000000       0xf8 build/SEGGER_RTT.o
 .text.SEGGER_RTT_GetKey
                0x0000000000000000      0x12c build/SEGGER_RTT.o
 .text.SEGGER_RTT_WaitKey
                0x0000000000000000      0x138 build/SEGGER_RTT.o
 .text.SEGGER_RTT_HasKey
                0x0000000000000000       0x9c build/SEGGER_RTT.o
 .text.SEGGER_RTT_HasData
                0x0000000000000000       0x18 build/SEGGER_RTT.o
 .text.SEGGER_RTT_HasDataUp
                0x0000000000000000       0x18 build/SEGGER_RTT.o
 .text.SEGGER_RTT_AllocDownBuffer
                0x0000000000000000      0x100 build/SEGGER_RTT.o
 .text.SEGGER_RTT_AllocUpBuffer
                0x0000000000000000      0x124 build/SEGGER_RTT.o
 .text.SEGGER_RTT_ConfigDownBuffer
                0x0000000000000000       0xe4 build/SEGGER_RTT.o
 .text.SEGGER_RTT_SetNameUpBuffer
                0x0000000000000000       0xb4 build/SEGGER_RTT.o
 .text.SEGGER_RTT_SetNameDownBuffer
                0x0000000000000000       0xb4 build/SEGGER_RTT.o
 .text.SEGGER_RTT_SetFlagsUpBuffer
                0x0000000000000000       0xb4 build/SEGGER_RTT.o
 .text.SEGGER_RTT_SetFlagsDownBuffer
                0x0000000000000000       0xb4 build/SEGGER_RTT.o
 .text.SEGGER_RTT_Init
                0x0000000000000000       0x8c build/SEGGER_RTT.o
 .text.SEGGER_RTT_SetTerminal
                0x0000000000000000      0x1a8 build/SEGGER_RTT.o
 .text.SEGGER_RTT_TerminalOut
                0x0000000000000000      0x530 build/SEGGER_RTT.o
 .text.SEGGER_RTT_GetAvailWriteSpace
                0x0000000000000000       0x20 build/SEGGER_RTT.o
 .text.SEGGER_RTT_GetBytesInBuffer
                0x0000000000000000       0x20 build/SEGGER_RTT.o
 .bss._ActiveTerminal
                0x0000000000000000        0x1 build/SEGGER_RTT.o
 .rodata._aTerminalId
                0x0000000000000000       0x10 build/SEGGER_RTT.o
 .text          0x0000000000000000        0x0 build/SEGGER_RTT_printf.o
 .data          0x0000000000000000        0x0 build/SEGGER_RTT_printf.o
 .bss           0x0000000000000000        0x0 build/SEGGER_RTT_printf.o
 .text._PrintUnsigned
                0x0000000000000000      0x1a4 build/SEGGER_RTT_printf.o
 .text.SEGGER_RTT_vprintf
                0x0000000000000000      0x494 build/SEGGER_RTT_printf.o
 .text.SEGGER_RTT_printf
                0x0000000000000000       0x20 build/SEGGER_RTT_printf.o
 .rodata._aV2C.0
                0x0000000000000000       0x10 build/SEGGER_RTT_printf.o
 .debug_info    0x0000000000000000      0x9c4 build/SEGGER_RTT_printf.o
 .debug_abbrev  0x0000000000000000      0x2a8 build/SEGGER_RTT_printf.o
 .debug_loclists
                0x0000000000000000      0xa26 build/SEGGER_RTT_printf.o
 .debug_aranges
                0x0000000000000000       0x30 build/SEGGER_RTT_printf.o
 .debug_rnglists
                0x0000000000000000      0x11e build/SEGGER_RTT_printf.o
 .debug_line    0x0000000000000000      0xbe4 build/SEGGER_RTT_printf.o
 .debug_str     0x0000000000000000      0x315 build/SEGGER_RTT_printf.o
 .comment       0x0000000000000000       0x3a build/SEGGER_RTT_printf.o
 .debug_frame   0x0000000000000000       0xa0 build/SEGGER_RTT_printf.o
 .ARM.attributes
                0x0000000000000000       0x34 build/SEGGER_RTT_printf.o
 .text          0x0000000000000000        0x0 build/audio.o
 .data          0x0000000000000000        0x0 build/audio.o
 .bss           0x0000000000000000        0x0 build/audio.o
 .text.OpSetFreq
                0x0000000000000000       0x14 build/audio.o
 .text.audioBlock
                0x0000000000000000      0x1f8 build/audio.o
 .rodata.pbend  0x0000000000000000     0x1000 build/audio.o
 .text          0x0000000000000000        0x0 build/bitcrusher.o
 .data          0x0000000000000000        0x0 build/bitcrusher.o
 .bss           0x0000000000000000        0x0 build/bitcrusher.o
 .text.decimator
                0x0000000000000000       0x70 build/bitcrusher.o
 .bss.cnt       0x0000000000000000        0x4 build/bitcrusher.o
 .bss.value.0   0x0000000000000000        0x4 build/bitcrusher.o
 .debug_info    0x0000000000000000      0x13c build/bitcrusher.o
 .debug_abbrev  0x0000000000000000       0xd9 build/bitcrusher.o
 .debug_loclists
                0x0000000000000000       0x8a build/bitcrusher.o
 .debug_aranges
                0x0000000000000000       0x20 build/bitcrusher.o
 .debug_rnglists
                0x0000000000000000       0x13 build/bitcrusher.o
 .debug_line    0x0000000000000000      0x21d build/bitcrusher.o
 .debug_str     0x0000000000000000      0x201 build/bitcrusher.o
 .comment       0x0000000000000000       0x3a build/bitcrusher.o
 .debug_frame   0x0000000000000000       0x20 build/bitcrusher.o
 .ARM.attributes
                0x0000000000000000       0x34 build/bitcrusher.o
 .text          0x0000000000000000        0x0 build/console.o
 .data          0x0000000000000000        0x0 build/console.o
 .bss           0x0000000000000000        0x0 build/console.o
 .rodata.ConsoleInit.str1.4
                0x0000000000000000       0x4f build/console.o
 .text.ConsoleInit
                0x0000000000000000       0x40 build/console.o
 .rodata.ConsoleProcess.str1.4
                0x0000000000000000       0x23 build/console.o
 .text.ConsoleProcess
                0x0000000000000000      0x310 build/console.o
 .text.ConsoleReceiveParamInt16
                0x0000000000000000      0x17c build/console.o
 .text.ConsoleReceiveParamHexUint16
                0x0000000000000000       0x90 build/console.o
 .text.ConsoleSendParamHexUint16
                0x0000000000000000       0x58 build/console.o
 .text.ConsoleSendParamHexUint8
                0x0000000000000000       0x3c build/console.o
 .text.ConsoleSendParamInt16
                0x0000000000000000       0x80 build/console.o
 .text.ConsoleSendParamInt32
                0x0000000000000000       0x90 build/console.o
 .text.ConsoleSendString
                0x0000000000000000        0xc build/console.o
 .text.ConsoleSendLine
                0x0000000000000000       0x14 build/console.o
 .bss.mReceiveBuffer
                0x0000000000000000      0x100 build/console.o
 .bss.mReceiveBufferNeedsChecking
                0x0000000000000000        0x1 build/console.o
 .bss.mReceivedSoFar
                0x0000000000000000        0x4 build/console.o
 .debug_info    0x0000000000000000      0xeba build/console.o
 .debug_abbrev  0x0000000000000000      0x398 build/console.o
 .debug_loclists
                0x0000000000000000      0xca6 build/console.o
 .debug_aranges
                0x0000000000000000       0x68 build/console.o
 .debug_rnglists
                0x0000000000000000      0x142 build/console.o
 .debug_line    0x0000000000000000      0xdc8 build/console.o
 .debug_str     0x0000000000000000      0x631 build/console.o
 .comment       0x0000000000000000       0x3a build/console.o
 .debug_frame   0x0000000000000000      0x164 build/console.o
 .ARM.attributes
                0x0000000000000000       0x34 build/console.o
 .text          0x0000000000000000        0x0 build/consoleCommands.o
 .data          0x0000000000000000        0x0 build/consoleCommands.o
 .bss           0x0000000000000000        0x0 build/consoleCommands.o
 .text.ConsoleCommandComment
                0x0000000000000000        0x4 build/consoleCommands.o
 .text.ConsoleCommandParamSaw2
                0x0000000000000000       0x24 build/consoleCommands.o
 .text.ConsoleCommandParamSaw1
                0x0000000000000000       0x24 build/consoleCommands.o
 .rodata.ConsoleCommandVer.str1.4
                0x0000000000000000       0x27 build/consoleCommands.o
 .text.ConsoleCommandVer
                0x0000000000000000       0x1c build/consoleCommands.o
 .rodata.ConsoleCommandHelp.str1.4
                0x0000000000000000        0x4 build/consoleCommands.o
 .text.ConsoleCommandHelp
                0x0000000000000000       0x3c build/consoleCommands.o
 .text.ConsoleCommandsGetTable
                0x0000000000000000        0x8 build/consoleCommands.o
 .rodata.str1.4
                0x0000000000000000       0x1d build/consoleCommands.o
 .rodata.mConsoleCommandTable
                0x0000000000000000      0x1b0 build/consoleCommands.o
 .debug_info    0x0000000000000000      0x434 build/consoleCommands.o
 .debug_abbrev  0x0000000000000000      0x1b6 build/consoleCommands.o
 .debug_loclists
                0x0000000000000000       0xa1 build/consoleCommands.o
 .debug_aranges
                0x0000000000000000       0x48 build/consoleCommands.o
 .debug_rnglists
                0x0000000000000000       0x31 build/consoleCommands.o
 .debug_line    0x0000000000000000      0x335 build/consoleCommands.o
 .debug_str     0x0000000000000000      0x3eb build/consoleCommands.o
 .comment       0x0000000000000000       0x3a build/consoleCommands.o
 .debug_frame   0x0000000000000000       0xa0 build/consoleCommands.o
 .ARM.attributes
                0x0000000000000000       0x34 build/consoleCommands.o
 .text          0x0000000000000000        0x0 build/consoleIo.o
 .data          0x0000000000000000        0x0 build/consoleIo.o
 .bss           0x0000000000000000        0x0 build/consoleIo.o
 .text.ConsoleIoInit
                0x0000000000000000        0x4 build/consoleIo.o
 .text.ConsoleIoReceive
                0x0000000000000000       0x24 build/consoleIo.o
 .rodata.ConsoleIoSendString.str1.4
                0x0000000000000000        0x3 build/consoleIo.o
 .text.ConsoleIoSendString
                0x0000000000000000       0x14 build/consoleIo.o
 .debug_info    0x0000000000000000      0x1f4 build/consoleIo.o
 .debug_abbrev  0x0000000000000000      0x11d build/consoleIo.o
 .debug_loclists
                0x0000000000000000       0xa3 build/consoleIo.o
 .debug_aranges
                0x0000000000000000       0x30 build/consoleIo.o
 .debug_rnglists
                0x0000000000000000       0x1f build/consoleIo.o
 .debug_line    0x0000000000000000      0x285 build/consoleIo.o
 .debug_str     0x0000000000000000      0x289 build/consoleIo.o
 .comment       0x0000000000000000       0x3a build/consoleIo.o
 .debug_frame   0x0000000000000000       0x54 build/consoleIo.o
 .ARM.attributes
                0x0000000000000000       0x34 build/consoleIo.o
 .text          0x0000000000000000        0x0 build/filters.o
 .data          0x0000000000000000        0x0 build/filters.o
 .bss           0x0000000000000000        0x0 build/filters.o
 .text.freq_to_g
                0x0000000000000000       0x58 build/filters.o
 .text          0x0000000000000000        0x0 build/gpio.o
 .data          0x0000000000000000        0x0 build/gpio.o
 .bss           0x0000000000000000        0x0 build/gpio.o
 .text          0x0000000000000000        0x0 build/helper_functions.o
 .data          0x0000000000000000        0x0 build/helper_functions.o
 .bss           0x0000000000000000        0x0 build/helper_functions.o
 .text.clip     0x0000000000000000       0x20 build/helper_functions.o
 .text          0x0000000000000000        0x0 build/i2c.o
 .data          0x0000000000000000        0x0 build/i2c.o
 .bss           0x0000000000000000        0x0 build/i2c.o
 .text          0x0000000000000000        0x0 build/i2s.o
 .data          0x0000000000000000        0x0 build/i2s.o
 .bss           0x0000000000000000        0x0 build/i2s.o
 .text.HAL_I2S_MspDeInit
                0x0000000000000000       0x3c build/i2s.o
 .text          0x0000000000000000        0x0 build/ladder_filter.o
 .data          0x0000000000000000        0x0 build/ladder_filter.o
 .bss           0x0000000000000000        0x0 build/ladder_filter.o
 .text          0x0000000000000000        0x0 build/lut_tan.o
 .data          0x0000000000000000        0x0 build/lut_tan.o
 .bss           0x0000000000000000        0x0 build/lut_tan.o
 .text          0x0000000000000000        0x0 build/main.o
 .data          0x0000000000000000        0x0 build/main.o
 .bss           0x0000000000000000        0x0 build/main.o
 .text          0x0000000000000000        0x0 build/oscillators.o
 .data          0x0000000000000000        0x0 build/oscillators.o
 .bss           0x0000000000000000        0x0 build/oscillators.o
 .text.osc_Sine
                0x0000000000000000       0x78 build/oscillators.o
 .text.osc_FM2OP
                0x0000000000000000      0x118 build/oscillators.o
 .rodata.lut_sine
                0x0000000000000000     0x1004 build/oscillators.o
 .text          0x0000000000000000        0x0 build/spi.o
 .data          0x0000000000000000        0x0 build/spi.o
 .bss           0x0000000000000000        0x0 build/spi.o
 .text.HAL_SPI_MspDeInit
                0x0000000000000000       0x28 build/spi.o
 .text          0x0000000000000000        0x0 build/stereo_delay.o
 .data          0x0000000000000000        0x0 build/stereo_delay.o
 .bss           0x0000000000000000        0x0 build/stereo_delay.o
 .text.Delay_time_set
                0x0000000000000000       0x44 build/stereo_delay.o
 .text.DelayFeedback_set
                0x0000000000000000       0x20 build/stereo_delay.o
 .text.DelayWet_set
                0x0000000000000000       0x20 build/stereo_delay.o
 .text          0x0000000000000000        0x0 build/stm32f4xx_hal_msp.o
 .data          0x0000000000000000        0x0 build/stm32f4xx_hal_msp.o
 .bss           0x0000000000000000        0x0 build/stm32f4xx_hal_msp.o
 .text          0x0000000000000000        0x0 build/stm32f4xx_it.o
 .data          0x0000000000000000        0x0 build/stm32f4xx_it.o
 .bss           0x0000000000000000        0x0 build/stm32f4xx_it.o
 .text          0x0000000000000000        0x0 build/system_stm32f4xx.o
 .data          0x0000000000000000        0x0 build/system_stm32f4xx.o
 .bss           0x0000000000000000        0x0 build/system_stm32f4xx.o
 .text.SystemCoreClockUpdate
                0x0000000000000000       0x70 build/system_stm32f4xx.o
 .text          0x0000000000000000        0x0 build/usbh_MIDI.o
 .data          0x0000000000000000        0x0 build/usbh_MIDI.o
 .bss           0x0000000000000000        0x0 build/usbh_MIDI.o
 .text.USBH_MIDI_Transmit
                0x0000000000000000       0x20 build/usbh_MIDI.o
 .text.USBH_MIDI_ReceiveCallback
                0x0000000000000000        0x4 build/usbh_MIDI.o
 .text          0x0000000000000000        0x0 build/usbh_conf.o
 .data          0x0000000000000000        0x0 build/usbh_conf.o
 .bss           0x0000000000000000        0x0 build/usbh_conf.o
 .text.HAL_HCD_MspDeInit
                0x0000000000000000       0x1c build/usbh_conf.o
 .text.USBH_LL_DeInit
                0x0000000000000000       0x10 build/usbh_conf.o
 .text.USBH_LL_GetToggle
                0x0000000000000000       0x20 build/usbh_conf.o
 .text          0x0000000000000000        0x0 build/cs43l22.o
 .data          0x0000000000000000        0x0 build/cs43l22.o
 .bss           0x0000000000000000        0x0 build/cs43l22.o
 .text          0x0000000000000000        0x0 build/lis302dl.o
 .data          0x0000000000000000        0x0 build/lis302dl.o
 .bss           0x0000000000000000        0x0 build/lis302dl.o
 .text.LIS302DL_DeInit
                0x0000000000000000        0x4 build/lis302dl.o
 .text.LIS302DL_Init
                0x0000000000000000       0x24 build/lis302dl.o
 .text.LIS302DL_ReadID
                0x0000000000000000       0x24 build/lis302dl.o
 .text.LIS302DL_FilterConfig
                0x0000000000000000       0x38 build/lis302dl.o
 .text.LIS302DL_Click_IntClear
                0x0000000000000000       0x28 build/lis302dl.o
 .text.LIS302DL_RebootCmd
                0x0000000000000000       0x30 build/lis302dl.o
 .text.LIS302DL_ReadACC
                0x0000000000000000       0x4c build/lis302dl.o
 .text.LIS302DL_Click_IntConfig
                0x0000000000000000       0xc4 build/lis302dl.o
 .text.LIS302DL_InterruptConfig
                0x0000000000000000       0x38 build/lis302dl.o
 .text.LIS302DL_LowpowerCmd
                0x0000000000000000       0x30 build/lis302dl.o
 .text.LIS302DL_DataRateCmd
                0x0000000000000000       0x30 build/lis302dl.o
 .text.LIS302DL_FullScaleCmd
                0x0000000000000000       0x30 build/lis302dl.o
 .data.Lis302dlDrv
                0x0000000000000000       0x34 build/lis302dl.o
 .debug_info    0x0000000000000000      0x8d6 build/lis302dl.o
 .debug_abbrev  0x0000000000000000      0x291 build/lis302dl.o
 .debug_loclists
                0x0000000000000000      0x109 build/lis302dl.o
 .debug_aranges
                0x0000000000000000       0x78 build/lis302dl.o
 .debug_rnglists
                0x0000000000000000       0x62 build/lis302dl.o
 .debug_line    0x0000000000000000      0x550 build/lis302dl.o
 .debug_str     0x0000000000000000      0x4d0 build/lis302dl.o
 .comment       0x0000000000000000       0x3a build/lis302dl.o
 .debug_frame   0x0000000000000000      0x174 build/lis302dl.o
 .ARM.attributes
                0x0000000000000000       0x34 build/lis302dl.o
 .text          0x0000000000000000        0x0 build/lis3dsh.o
 .data          0x0000000000000000        0x0 build/lis3dsh.o
 .bss           0x0000000000000000        0x0 build/lis3dsh.o
 .text.LIS3DSH_DeInit
                0x0000000000000000        0x4 build/lis3dsh.o
 .text.LIS3DSH_Init
                0x0000000000000000       0x38 build/lis3dsh.o
 .text.LIS3DSH_ReadID
                0x0000000000000000       0x24 build/lis3dsh.o
 .text.LIS3DSH_RebootCmd
                0x0000000000000000       0x30 build/lis3dsh.o
 .text.LIS3DSH_ReadACC
                0x0000000000000000       0xe8 build/lis3dsh.o
 .text.LIS3DSH_Click_IntConfig
                0x0000000000000000      0x104 build/lis3dsh.o
 .text.LIS3DSH_InterruptConfig
                0x0000000000000000       0x50 build/lis3dsh.o
 .text.LIS3DSH_ODR_LowpowerCmd
                0x0000000000000000       0x30 build/lis3dsh.o
 .text.LIS3DSH_DataRateCmd
                0x0000000000000000       0x30 build/lis3dsh.o
 .text.LIS3DSH_FullScaleCmd
                0x0000000000000000       0x30 build/lis3dsh.o
 .data.Lis3dshDrv
                0x0000000000000000       0x34 build/lis3dsh.o
 .rodata.CSWTCH.14
                0x0000000000000000       0x64 build/lis3dsh.o
 .debug_info    0x0000000000000000      0x980 build/lis3dsh.o
 .debug_abbrev  0x0000000000000000      0x27c build/lis3dsh.o
 .debug_loclists
                0x0000000000000000      0x17f build/lis3dsh.o
 .debug_aranges
                0x0000000000000000       0x68 build/lis3dsh.o
 .debug_rnglists
                0x0000000000000000       0x4b build/lis3dsh.o
 .debug_line    0x0000000000000000      0x547 build/lis3dsh.o
 .debug_str     0x0000000000000000      0x4f9 build/lis3dsh.o
 .comment       0x0000000000000000       0x3a build/lis3dsh.o
 .debug_frame   0x0000000000000000      0x138 build/lis3dsh.o
 .ARM.attributes
                0x0000000000000000       0x34 build/lis3dsh.o
 .text          0x0000000000000000        0x0 build/stm32f4_discovery.o
 .data          0x0000000000000000        0x0 build/stm32f4_discovery.o
 .bss           0x0000000000000000        0x0 build/stm32f4_discovery.o
 .text.SPIx_Init.part.0
                0x0000000000000000       0x90 build/stm32f4_discovery.o
 .text.BSP_GetVersion
                0x0000000000000000        0x8 build/stm32f4_discovery.o
 .text.BSP_LED_Init
                0x0000000000000000       0xb4 build/stm32f4_discovery.o
 .text.BSP_LED_On
                0x0000000000000000       0x1c build/stm32f4_discovery.o
 .text.BSP_LED_Off
                0x0000000000000000       0x1c build/stm32f4_discovery.o
 .text.BSP_LED_Toggle
                0x0000000000000000       0x18 build/stm32f4_discovery.o
 .text.BSP_PB_Init
                0x0000000000000000       0x88 build/stm32f4_discovery.o
 .text.BSP_PB_GetState
                0x0000000000000000       0x14 build/stm32f4_discovery.o
 .text.ACCELERO_IO_Init
                0x0000000000000000       0x64 build/stm32f4_discovery.o
 .text.ACCELERO_IO_ITConfig
                0x0000000000000000       0x54 build/stm32f4_discovery.o
 .text.ACCELERO_IO_Write
                0x0000000000000000       0xf8 build/stm32f4_discovery.o
 .text.ACCELERO_IO_Read
                0x0000000000000000      0x198 build/stm32f4_discovery.o
 .bss.SpiHandle
                0x0000000000000000       0x58 build/stm32f4_discovery.o
 .data.BUTTON_PORT
                0x0000000000000000        0x4 build/stm32f4_discovery.o
 .data.GPIO_PORT
                0x0000000000000000       0x10 build/stm32f4_discovery.o
 .data.SpixTimeout
                0x0000000000000000        0x4 build/stm32f4_discovery.o
 .rodata.BUTTON_IRQn
                0x0000000000000000        0x1 build/stm32f4_discovery.o
 .rodata.BUTTON_PIN
                0x0000000000000000        0x2 build/stm32f4_discovery.o
 .rodata.GPIO_PIN
                0x0000000000000000        0x8 build/stm32f4_discovery.o
 .text          0x0000000000000000        0x0 build/stm32f4_discovery_accelerometer.o
 .data          0x0000000000000000        0x0 build/stm32f4_discovery_accelerometer.o
 .bss           0x0000000000000000        0x0 build/stm32f4_discovery_accelerometer.o
 .text.BSP_ACCELERO_Init
                0x0000000000000000       0x4c build/stm32f4_discovery_accelerometer.o
 .text.BSP_ACCELERO_ReadID
                0x0000000000000000       0x10 build/stm32f4_discovery_accelerometer.o
 .text.BSP_ACCELERO_Reset
                0x0000000000000000       0x10 build/stm32f4_discovery_accelerometer.o
 .text.BSP_ACCELERO_Click_ITConfig
                0x0000000000000000       0x10 build/stm32f4_discovery_accelerometer.o
 .text.BSP_ACCELERO_Click_ITClear
                0x0000000000000000       0x10 build/stm32f4_discovery_accelerometer.o
 .text.BSP_ACCELERO_GetXYZ
                0x0000000000000000       0x30 build/stm32f4_discovery_accelerometer.o
 .bss.AcceleroDrv
                0x0000000000000000        0x4 build/stm32f4_discovery_accelerometer.o
 .debug_info    0x0000000000000000      0x45f build/stm32f4_discovery_accelerometer.o
 .debug_abbrev  0x0000000000000000      0x192 build/stm32f4_discovery_accelerometer.o
 .debug_loclists
                0x0000000000000000      0x22e build/stm32f4_discovery_accelerometer.o
 .debug_aranges
                0x0000000000000000       0x48 build/stm32f4_discovery_accelerometer.o
 .debug_rnglists
                0x0000000000000000       0x31 build/stm32f4_discovery_accelerometer.o
 .debug_line    0x0000000000000000      0x45b build/stm32f4_discovery_accelerometer.o
 .debug_str     0x0000000000000000      0x4ac build/stm32f4_discovery_accelerometer.o
 .comment       0x0000000000000000       0x3a build/stm32f4_discovery_accelerometer.o
 .debug_frame   0x0000000000000000       0x88 build/stm32f4_discovery_accelerometer.o
 .ARM.attributes
                0x0000000000000000       0x34 build/stm32f4_discovery_accelerometer.o
 .text          0x0000000000000000        0x0 build/stm32f4_discovery_audio.o
 .data          0x0000000000000000        0x0 build/stm32f4_discovery_audio.o
 .bss           0x0000000000000000        0x0 build/stm32f4_discovery_audio.o
 .text.BSP_AUDIO_OUT_ChangeBuffer
                0x0000000000000000       0x10 build/stm32f4_discovery_audio.o
 .text.BSP_AUDIO_OUT_Pause
                0x0000000000000000       0x28 build/stm32f4_discovery_audio.o
 .text.BSP_AUDIO_OUT_Resume
                0x0000000000000000       0x28 build/stm32f4_discovery_audio.o
 .text.BSP_AUDIO_OUT_Stop
                0x0000000000000000       0x44 build/stm32f4_discovery_audio.o
 .text.BSP_AUDIO_OUT_SetVolume
                0x0000000000000000       0x1c build/stm32f4_discovery_audio.o
 .text.BSP_AUDIO_OUT_SetMute
                0x0000000000000000       0x1c build/stm32f4_discovery_audio.o
 .text.BSP_AUDIO_OUT_SetOutputMode
                0x0000000000000000       0x1c build/stm32f4_discovery_audio.o
 .text.BSP_AUDIO_OUT_SetFrequency
                0x0000000000000000       0x44 build/stm32f4_discovery_audio.o
 .text.BSP_AUDIO_OUT_MspDeInit
                0x0000000000000000       0x5c build/stm32f4_discovery_audio.o
 .text.BSP_AUDIO_OUT_TransferComplete_CallBack
                0x0000000000000000        0x4 build/stm32f4_discovery_audio.o
 .text.BSP_AUDIO_OUT_HalfTransfer_CallBack
                0x0000000000000000        0x4 build/stm32f4_discovery_audio.o
 .text.BSP_AUDIO_OUT_Error_CallBack
                0x0000000000000000        0x4 build/stm32f4_discovery_audio.o
 .text.BSP_AUDIO_IN_Record
                0x0000000000000000       0x18 build/stm32f4_discovery_audio.o
 .text.BSP_AUDIO_IN_Stop
                0x0000000000000000       0x10 build/stm32f4_discovery_audio.o
 .text.BSP_AUDIO_IN_Pause
                0x0000000000000000       0x10 build/stm32f4_discovery_audio.o
 .text.BSP_AUDIO_IN_Resume
                0x0000000000000000       0x10 build/stm32f4_discovery_audio.o
 .text.BSP_AUDIO_IN_SetVolume
                0x0000000000000000        0xc build/stm32f4_discovery_audio.o
 .text.BSP_AUDIO_IN_PDMToPCM
                0x0000000000000000       0x70 build/stm32f4_discovery_audio.o
 .text.BSP_AUDIO_IN_ClockConfig
                0x0000000000000000       0x40 build/stm32f4_discovery_audio.o
 .text.BSP_AUDIO_IN_MspInit
                0x0000000000000000      0x100 build/stm32f4_discovery_audio.o
 .text.BSP_AUDIO_IN_Init
                0x0000000000000000       0xec build/stm32f4_discovery_audio.o
 .text.BSP_AUDIO_IN_MspDeInit
                0x0000000000000000       0x54 build/stm32f4_discovery_audio.o
 .text.BSP_AUDIO_IN_HalfTransfer_CallBack
                0x0000000000000000        0x4 build/stm32f4_discovery_audio.o
 .text.HAL_I2S_RxHalfCpltCallback
                0x0000000000000000        0x8 build/stm32f4_discovery_audio.o
 .bss.PDM_FilterConfig
                0x0000000000000000        0xc build/stm32f4_discovery_audio.o
 .bss.PDM_FilterHandler
                0x0000000000000000       0x98 build/stm32f4_discovery_audio.o
 .bss.hdma_i2sRx.0
                0x0000000000000000       0x60 build/stm32f4_discovery_audio.o
 .data.AudioInVolume
                0x0000000000000000        0x2 build/stm32f4_discovery_audio.o
 .rodata.I2SFreq
                0x0000000000000000       0x20 build/stm32f4_discovery_audio.o
 .text          0x0000000000000000        0x0 build/stm32f4xx_hal.o
 .data          0x0000000000000000        0x0 build/stm32f4xx_hal.o
 .bss           0x0000000000000000        0x0 build/stm32f4xx_hal.o
 .text.HAL_MspInit
                0x0000000000000000        0x4 build/stm32f4xx_hal.o
 .text.HAL_MspDeInit
                0x0000000000000000        0x4 build/stm32f4xx_hal.o
 .text.HAL_DeInit
                0x0000000000000000       0x2c build/stm32f4xx_hal.o
 .text.HAL_GetTickPrio
                0x0000000000000000        0xc build/stm32f4xx_hal.o
 .text.HAL_SetTickFreq
                0x0000000000000000       0x28 build/stm32f4xx_hal.o
 .text.HAL_GetTickFreq
                0x0000000000000000        0xc build/stm32f4xx_hal.o
 .text.HAL_SuspendTick
                0x0000000000000000       0x10 build/stm32f4xx_hal.o
 .text.HAL_ResumeTick
                0x0000000000000000       0x10 build/stm32f4xx_hal.o
 .text.HAL_GetHalVersion
                0x0000000000000000        0x8 build/stm32f4xx_hal.o
 .text.HAL_GetREVID
                0x0000000000000000        0xc build/stm32f4xx_hal.o
 .text.HAL_GetDEVID
                0x0000000000000000       0x10 build/stm32f4xx_hal.o
 .text.HAL_DBGMCU_EnableDBGSleepMode
                0x0000000000000000       0x10 build/stm32f4xx_hal.o
 .text.HAL_DBGMCU_DisableDBGSleepMode
                0x0000000000000000       0x10 build/stm32f4xx_hal.o
 .text.HAL_DBGMCU_EnableDBGStopMode
                0x0000000000000000       0x10 build/stm32f4xx_hal.o
 .text.HAL_DBGMCU_DisableDBGStopMode
                0x0000000000000000       0x10 build/stm32f4xx_hal.o
 .text.HAL_DBGMCU_EnableDBGStandbyMode
                0x0000000000000000       0x10 build/stm32f4xx_hal.o
 .text.HAL_DBGMCU_DisableDBGStandbyMode
                0x0000000000000000       0x10 build/stm32f4xx_hal.o
 .text.HAL_EnableCompensationCell
                0x0000000000000000       0x10 build/stm32f4xx_hal.o
 .text.HAL_DisableCompensationCell
                0x0000000000000000       0x10 build/stm32f4xx_hal.o
 .text.HAL_GetUIDw0
                0x0000000000000000        0xc build/stm32f4xx_hal.o
 .text.HAL_GetUIDw1
                0x0000000000000000        0xc build/stm32f4xx_hal.o
 .text.HAL_GetUIDw2
                0x0000000000000000        0xc build/stm32f4xx_hal.o
 .text          0x0000000000000000        0x0 build/stm32f4xx_hal_cortex.o
 .data          0x0000000000000000        0x0 build/stm32f4xx_hal_cortex.o
 .bss           0x0000000000000000        0x0 build/stm32f4xx_hal_cortex.o
 .text.HAL_NVIC_DisableIRQ
                0x0000000000000000       0x24 build/stm32f4xx_hal_cortex.o
 .text.HAL_NVIC_SystemReset
                0x0000000000000000       0x24 build/stm32f4xx_hal_cortex.o
 .text.HAL_MPU_Disable
                0x0000000000000000       0x1c build/stm32f4xx_hal_cortex.o
 .text.HAL_MPU_Enable
                0x0000000000000000       0x20 build/stm32f4xx_hal_cortex.o
 .text.HAL_MPU_ConfigRegion
                0x0000000000000000       0x64 build/stm32f4xx_hal_cortex.o
 .text.HAL_NVIC_GetPriorityGrouping
                0x0000000000000000       0x10 build/stm32f4xx_hal_cortex.o
 .text.HAL_NVIC_GetPriority
                0x0000000000000000       0x68 build/stm32f4xx_hal_cortex.o
 .text.HAL_NVIC_SetPendingIRQ
                0x0000000000000000       0x1c build/stm32f4xx_hal_cortex.o
 .text.HAL_NVIC_GetPendingIRQ
                0x0000000000000000       0x24 build/stm32f4xx_hal_cortex.o
 .text.HAL_NVIC_ClearPendingIRQ
                0x0000000000000000       0x1c build/stm32f4xx_hal_cortex.o
 .text.HAL_NVIC_GetActive
                0x0000000000000000       0x24 build/stm32f4xx_hal_cortex.o
 .text.HAL_SYSTICK_CLKSourceConfig
                0x0000000000000000       0x18 build/stm32f4xx_hal_cortex.o
 .text.HAL_SYSTICK_Callback
                0x0000000000000000        0x4 build/stm32f4xx_hal_cortex.o
 .text.HAL_SYSTICK_IRQHandler
                0x0000000000000000        0x8 build/stm32f4xx_hal_cortex.o
 .text          0x0000000000000000        0x0 build/stm32f4xx_hal_dma.o
 .data          0x0000000000000000        0x0 build/stm32f4xx_hal_dma.o
 .bss           0x0000000000000000        0x0 build/stm32f4xx_hal_dma.o
 .text.HAL_DMA_Start
                0x0000000000000000       0x5c build/stm32f4xx_hal_dma.o
 .text.HAL_DMA_Abort
                0x0000000000000000       0x94 build/stm32f4xx_hal_dma.o
 .text.HAL_DMA_Abort_IT
                0x0000000000000000       0x24 build/stm32f4xx_hal_dma.o
 .text.HAL_DMA_PollForTransfer
                0x0000000000000000      0x1a0 build/stm32f4xx_hal_dma.o
 .text.HAL_DMA_RegisterCallback
                0x0000000000000000       0x5c build/stm32f4xx_hal_dma.o
 .text.HAL_DMA_UnRegisterCallback
                0x0000000000000000       0x70 build/stm32f4xx_hal_dma.o
 .text.HAL_DMA_GetState
                0x0000000000000000        0x8 build/stm32f4xx_hal_dma.o
 .text.HAL_DMA_GetError
                0x0000000000000000        0x4 build/stm32f4xx_hal_dma.o
 .text          0x0000000000000000        0x0 build/stm32f4xx_hal_dma_ex.o
 .data          0x0000000000000000        0x0 build/stm32f4xx_hal_dma_ex.o
 .bss           0x0000000000000000        0x0 build/stm32f4xx_hal_dma_ex.o
 .text.HAL_DMAEx_MultiBufferStart
                0x0000000000000000       0x64 build/stm32f4xx_hal_dma_ex.o
 .text.HAL_DMAEx_MultiBufferStart_IT
                0x0000000000000000      0x47c build/stm32f4xx_hal_dma_ex.o
 .text.HAL_DMAEx_ChangeMemory
                0x0000000000000000       0x10 build/stm32f4xx_hal_dma_ex.o
 .debug_info    0x0000000000000000      0x581 build/stm32f4xx_hal_dma_ex.o
 .debug_abbrev  0x0000000000000000      0x1b7 build/stm32f4xx_hal_dma_ex.o
 .debug_loclists
                0x0000000000000000      0x5c9 build/stm32f4xx_hal_dma_ex.o
 .debug_aranges
                0x0000000000000000       0x30 build/stm32f4xx_hal_dma_ex.o
 .debug_rnglists
                0x0000000000000000       0x38 build/stm32f4xx_hal_dma_ex.o
 .debug_line    0x0000000000000000      0x70b build/stm32f4xx_hal_dma_ex.o
 .debug_str     0x0000000000000000      0x574 build/stm32f4xx_hal_dma_ex.o
 .comment       0x0000000000000000       0x3a build/stm32f4xx_hal_dma_ex.o
 .debug_frame   0x0000000000000000       0x8c build/stm32f4xx_hal_dma_ex.o
 .ARM.attributes
                0x0000000000000000       0x34 build/stm32f4xx_hal_dma_ex.o
 .text          0x0000000000000000        0x0 build/stm32f4xx_hal_exti.o
 .data          0x0000000000000000        0x0 build/stm32f4xx_hal_exti.o
 .bss           0x0000000000000000        0x0 build/stm32f4xx_hal_exti.o
 .text.HAL_EXTI_SetConfigLine
                0x0000000000000000       0xb8 build/stm32f4xx_hal_exti.o
 .text.HAL_EXTI_GetConfigLine
                0x0000000000000000       0xa0 build/stm32f4xx_hal_exti.o
 .text.HAL_EXTI_ClearConfigLine
                0x0000000000000000       0x70 build/stm32f4xx_hal_exti.o
 .text.HAL_EXTI_RegisterCallback
                0x0000000000000000        0xc build/stm32f4xx_hal_exti.o
 .text.HAL_EXTI_GetHandle
                0x0000000000000000        0xc build/stm32f4xx_hal_exti.o
 .text.HAL_EXTI_IRQHandler
                0x0000000000000000       0x2c build/stm32f4xx_hal_exti.o
 .text.HAL_EXTI_GetPending
                0x0000000000000000       0x1c build/stm32f4xx_hal_exti.o
 .text.HAL_EXTI_ClearPending
                0x0000000000000000       0x14 build/stm32f4xx_hal_exti.o
 .text.HAL_EXTI_GenerateSWI
                0x0000000000000000       0x14 build/stm32f4xx_hal_exti.o
 .debug_info    0x0000000000000000      0x56c build/stm32f4xx_hal_exti.o
 .debug_abbrev  0x0000000000000000      0x1f1 build/stm32f4xx_hal_exti.o
 .debug_loclists
                0x0000000000000000      0x338 build/stm32f4xx_hal_exti.o
 .debug_aranges
                0x0000000000000000       0x60 build/stm32f4xx_hal_exti.o
 .debug_rnglists
                0x0000000000000000       0x45 build/stm32f4xx_hal_exti.o
 .debug_line    0x0000000000000000      0x687 build/stm32f4xx_hal_exti.o
 .debug_str     0x0000000000000000      0x40c build/stm32f4xx_hal_exti.o
 .comment       0x0000000000000000       0x3a build/stm32f4xx_hal_exti.o
 .debug_frame   0x0000000000000000       0xe0 build/stm32f4xx_hal_exti.o
 .ARM.attributes
                0x0000000000000000       0x34 build/stm32f4xx_hal_exti.o
 .text          0x0000000000000000        0x0 build/stm32f4xx_hal_flash.o
 .data          0x0000000000000000        0x0 build/stm32f4xx_hal_flash.o
 .bss           0x0000000000000000        0x0 build/stm32f4xx_hal_flash.o
 .text.FLASH_SetErrorCode
                0x0000000000000000       0x78 build/stm32f4xx_hal_flash.o
 .text.HAL_FLASH_Program
                0x0000000000000000      0x144 build/stm32f4xx_hal_flash.o
 .text.HAL_FLASH_Program_IT
                0x0000000000000000       0xc0 build/stm32f4xx_hal_flash.o
 .text.HAL_FLASH_EndOfOperationCallback
                0x0000000000000000        0x4 build/stm32f4xx_hal_flash.o
 .text.HAL_FLASH_OperationErrorCallback
                0x0000000000000000        0x4 build/stm32f4xx_hal_flash.o
 .text.HAL_FLASH_IRQHandler
                0x0000000000000000       0xcc build/stm32f4xx_hal_flash.o
 .text.HAL_FLASH_Unlock
                0x0000000000000000       0x28 build/stm32f4xx_hal_flash.o
 .text.HAL_FLASH_Lock
                0x0000000000000000       0x14 build/stm32f4xx_hal_flash.o
 .text.HAL_FLASH_OB_Unlock
                0x0000000000000000       0x24 build/stm32f4xx_hal_flash.o
 .text.HAL_FLASH_OB_Lock
                0x0000000000000000       0x14 build/stm32f4xx_hal_flash.o
 .text.HAL_FLASH_OB_Launch
                0x0000000000000000       0x58 build/stm32f4xx_hal_flash.o
 .text.HAL_FLASH_GetError
                0x0000000000000000        0xc build/stm32f4xx_hal_flash.o
 .text.FLASH_WaitForLastOperation
                0x0000000000000000       0x5c build/stm32f4xx_hal_flash.o
 .bss.pFlash    0x0000000000000000       0x20 build/stm32f4xx_hal_flash.o
 .debug_info    0x0000000000000000      0x8a1 build/stm32f4xx_hal_flash.o
 .debug_abbrev  0x0000000000000000      0x35c build/stm32f4xx_hal_flash.o
 .debug_loclists
                0x0000000000000000      0x3fd build/stm32f4xx_hal_flash.o
 .debug_aranges
                0x0000000000000000       0x78 build/stm32f4xx_hal_flash.o
 .debug_rnglists
                0x0000000000000000       0xfc build/stm32f4xx_hal_flash.o
 .debug_line    0x0000000000000000      0xb1c build/stm32f4xx_hal_flash.o
 .debug_str     0x0000000000000000      0x575 build/stm32f4xx_hal_flash.o
 .comment       0x0000000000000000       0x3a build/stm32f4xx_hal_flash.o
 .debug_frame   0x0000000000000000      0x150 build/stm32f4xx_hal_flash.o
 .ARM.attributes
                0x0000000000000000       0x34 build/stm32f4xx_hal_flash.o
 .text          0x0000000000000000        0x0 build/stm32f4xx_hal_flash_ex.o
 .data          0x0000000000000000        0x0 build/stm32f4xx_hal_flash_ex.o
 .bss           0x0000000000000000        0x0 build/stm32f4xx_hal_flash_ex.o
 .text.HAL_FLASHEx_Erase_IT
                0x0000000000000000       0xb0 build/stm32f4xx_hal_flash_ex.o
 .text.HAL_FLASHEx_OBProgram
                0x0000000000000000       0xc0 build/stm32f4xx_hal_flash_ex.o
 .text.HAL_FLASHEx_OBGetConfig
                0x0000000000000000       0x38 build/stm32f4xx_hal_flash_ex.o
 .text.FLASH_Erase_Sector
                0x0000000000000000       0x3c build/stm32f4xx_hal_flash_ex.o
 .text.FLASH_FlushCaches
                0x0000000000000000       0x58 build/stm32f4xx_hal_flash_ex.o
 .text.HAL_FLASHEx_Erase
                0x0000000000000000       0xf0 build/stm32f4xx_hal_flash_ex.o
 .debug_info    0x0000000000000000      0x947 build/stm32f4xx_hal_flash_ex.o
 .debug_abbrev  0x0000000000000000      0x347 build/stm32f4xx_hal_flash_ex.o
 .debug_loclists
                0x0000000000000000      0x331 build/stm32f4xx_hal_flash_ex.o
 .debug_aranges
                0x0000000000000000       0x48 build/stm32f4xx_hal_flash_ex.o
 .debug_rnglists
                0x0000000000000000       0xd3 build/stm32f4xx_hal_flash_ex.o
 .debug_line    0x0000000000000000      0x866 build/stm32f4xx_hal_flash_ex.o
 .debug_str     0x0000000000000000      0x5c5 build/stm32f4xx_hal_flash_ex.o
 .comment       0x0000000000000000       0x3a build/stm32f4xx_hal_flash_ex.o
 .debug_frame   0x0000000000000000       0xac build/stm32f4xx_hal_flash_ex.o
 .ARM.attributes
                0x0000000000000000       0x34 build/stm32f4xx_hal_flash_ex.o
 .text          0x0000000000000000        0x0 build/stm32f4xx_hal_flash_ramfunc.o
 .data          0x0000000000000000        0x0 build/stm32f4xx_hal_flash_ramfunc.o
 .bss           0x0000000000000000        0x0 build/stm32f4xx_hal_flash_ramfunc.o
 .debug_info    0x0000000000000000       0x6c build/stm32f4xx_hal_flash_ramfunc.o
 .debug_abbrev  0x0000000000000000       0x26 build/stm32f4xx_hal_flash_ramfunc.o
 .debug_aranges
                0x0000000000000000       0x18 build/stm32f4xx_hal_flash_ramfunc.o
 .debug_line    0x0000000000000000       0x1d build/stm32f4xx_hal_flash_ramfunc.o
 .debug_str     0x0000000000000000      0x1e5 build/stm32f4xx_hal_flash_ramfunc.o
 .comment       0x0000000000000000       0x3a build/stm32f4xx_hal_flash_ramfunc.o
 .ARM.attributes
                0x0000000000000000       0x34 build/stm32f4xx_hal_flash_ramfunc.o
 .text          0x0000000000000000        0x0 build/stm32f4xx_hal_gpio.o
 .data          0x0000000000000000        0x0 build/stm32f4xx_hal_gpio.o
 .bss           0x0000000000000000        0x0 build/stm32f4xx_hal_gpio.o
 .text.HAL_GPIO_ReadPin
                0x0000000000000000        0xc build/stm32f4xx_hal_gpio.o
 .text.HAL_GPIO_TogglePin
                0x0000000000000000       0x14 build/stm32f4xx_hal_gpio.o
 .text.HAL_GPIO_LockPin
                0x0000000000000000       0x2c build/stm32f4xx_hal_gpio.o
 .text.HAL_GPIO_EXTI_Callback
                0x0000000000000000        0x4 build/stm32f4xx_hal_gpio.o
 .text.HAL_GPIO_EXTI_IRQHandler
                0x0000000000000000       0x18 build/stm32f4xx_hal_gpio.o
 .text          0x0000000000000000        0x0 build/stm32f4xx_hal_hcd.o
 .data          0x0000000000000000        0x0 build/stm32f4xx_hal_hcd.o
 .bss           0x0000000000000000        0x0 build/stm32f4xx_hal_hcd.o
 .text.HAL_HCD_MspInit
                0x0000000000000000        0x4 build/stm32f4xx_hal_hcd.o
 .text.HAL_HCD_MspDeInit
                0x0000000000000000        0x4 build/stm32f4xx_hal_hcd.o
 .text.HAL_HCD_DeInit
                0x0000000000000000       0x24 build/stm32f4xx_hal_hcd.o
 .text.HAL_HCD_WKUP_IRQHandler
                0x0000000000000000        0x4 build/stm32f4xx_hal_hcd.o
 .text.HAL_HCD_SOF_Callback
                0x0000000000000000        0x4 build/stm32f4xx_hal_hcd.o
 .text.HAL_HCD_Connect_Callback
                0x0000000000000000        0x4 build/stm32f4xx_hal_hcd.o
 .text.HAL_HCD_Disconnect_Callback
                0x0000000000000000        0x4 build/stm32f4xx_hal_hcd.o
 .text.HAL_HCD_PortEnabled_Callback
                0x0000000000000000        0x4 build/stm32f4xx_hal_hcd.o
 .text.HAL_HCD_PortDisabled_Callback
                0x0000000000000000        0x4 build/stm32f4xx_hal_hcd.o
 .text.HAL_HCD_HC_NotifyURBChange_Callback
                0x0000000000000000        0x4 build/stm32f4xx_hal_hcd.o
 .text.HAL_HCD_GetState
                0x0000000000000000        0x8 build/stm32f4xx_hal_hcd.o
 .text.HAL_HCD_HC_GetState
                0x0000000000000000        0xc build/stm32f4xx_hal_hcd.o
 .text          0x0000000000000000        0x0 build/stm32f4xx_hal_i2c.o
 .data          0x0000000000000000        0x0 build/stm32f4xx_hal_i2c.o
 .bss           0x0000000000000000        0x0 build/stm32f4xx_hal_i2c.o
 .text.HAL_I2C_MspInit
                0x0000000000000000        0x4 build/stm32f4xx_hal_i2c.o
 .text.HAL_I2C_MspDeInit
                0x0000000000000000        0x4 build/stm32f4xx_hal_i2c.o
 .text.HAL_I2C_Master_Transmit
                0x0000000000000000      0x320 build/stm32f4xx_hal_i2c.o
 .text.HAL_I2C_Master_Receive
                0x0000000000000000      0x4e0 build/stm32f4xx_hal_i2c.o
 .text.HAL_I2C_Slave_Transmit
                0x0000000000000000      0x234 build/stm32f4xx_hal_i2c.o
 .text.HAL_I2C_Slave_Receive
                0x0000000000000000      0x220 build/stm32f4xx_hal_i2c.o
 .text.HAL_I2C_Master_Transmit_IT
                0x0000000000000000       0xe0 build/stm32f4xx_hal_i2c.o
 .text.HAL_I2C_Master_Receive_IT
                0x0000000000000000       0xe8 build/stm32f4xx_hal_i2c.o
 .text.HAL_I2C_Slave_Transmit_IT
                0x0000000000000000       0x74 build/stm32f4xx_hal_i2c.o
 .text.HAL_I2C_Slave_Receive_IT
                0x0000000000000000       0x74 build/stm32f4xx_hal_i2c.o
 .text.HAL_I2C_Master_Transmit_DMA
                0x0000000000000000      0x160 build/stm32f4xx_hal_i2c.o
 .text.HAL_I2C_Master_Receive_DMA
                0x0000000000000000      0x15c build/stm32f4xx_hal_i2c.o
 .text.HAL_I2C_Slave_Transmit_DMA
                0x0000000000000000       0xe0 build/stm32f4xx_hal_i2c.o
 .text.HAL_I2C_Slave_Receive_DMA
                0x0000000000000000       0xe4 build/stm32f4xx_hal_i2c.o
 .text.HAL_I2C_Mem_Write_IT
                0x0000000000000000       0xf0 build/stm32f4xx_hal_i2c.o
 .text.HAL_I2C_Mem_Read_IT
                0x0000000000000000       0xec build/stm32f4xx_hal_i2c.o
 .text.HAL_I2C_Mem_Write_DMA
                0x0000000000000000      0x1b8 build/stm32f4xx_hal_i2c.o
 .text.HAL_I2C_Mem_Read_DMA
                0x0000000000000000      0x1f8 build/stm32f4xx_hal_i2c.o
 .text.HAL_I2C_IsDeviceReady
                0x0000000000000000      0x20c build/stm32f4xx_hal_i2c.o
 .text.HAL_I2C_Master_Seq_Transmit_IT
                0x0000000000000000       0xf4 build/stm32f4xx_hal_i2c.o
 .text.HAL_I2C_Master_Seq_Transmit_DMA
                0x0000000000000000      0x1b8 build/stm32f4xx_hal_i2c.o
 .text.HAL_I2C_Master_Seq_Receive_IT
                0x0000000000000000      0x130 build/stm32f4xx_hal_i2c.o
 .text.HAL_I2C_Master_Seq_Receive_DMA
                0x0000000000000000      0x21c build/stm32f4xx_hal_i2c.o
 .text.HAL_I2C_Slave_Seq_Transmit_IT
                0x0000000000000000       0x84 build/stm32f4xx_hal_i2c.o
 .text.HAL_I2C_Slave_Seq_Transmit_DMA
                0x0000000000000000      0x198 build/stm32f4xx_hal_i2c.o
 .text.HAL_I2C_Slave_Seq_Receive_IT
                0x0000000000000000       0x84 build/stm32f4xx_hal_i2c.o
 .text.HAL_I2C_Slave_Seq_Receive_DMA
                0x0000000000000000      0x19c build/stm32f4xx_hal_i2c.o
 .text.HAL_I2C_EnableListen_IT
                0x0000000000000000       0x38 build/stm32f4xx_hal_i2c.o
 .text.HAL_I2C_DisableListen_IT
                0x0000000000000000       0x44 build/stm32f4xx_hal_i2c.o
 .text.HAL_I2C_MasterTxCpltCallback
                0x0000000000000000        0x4 build/stm32f4xx_hal_i2c.o
 .text.HAL_I2C_MasterRxCpltCallback
                0x0000000000000000        0x4 build/stm32f4xx_hal_i2c.o
 .text.HAL_I2C_SlaveTxCpltCallback
                0x0000000000000000        0x4 build/stm32f4xx_hal_i2c.o
 .text.HAL_I2C_SlaveRxCpltCallback
                0x0000000000000000        0x4 build/stm32f4xx_hal_i2c.o
 .text.HAL_I2C_AddrCallback
                0x0000000000000000        0x4 build/stm32f4xx_hal_i2c.o
 .text.HAL_I2C_ListenCpltCallback
                0x0000000000000000        0x4 build/stm32f4xx_hal_i2c.o
 .text.HAL_I2C_MemTxCpltCallback
                0x0000000000000000        0x4 build/stm32f4xx_hal_i2c.o
 .text.I2C_MemoryTransmit_TXE_BTF
                0x0000000000000000       0xbc build/stm32f4xx_hal_i2c.o
 .text.HAL_I2C_MemRxCpltCallback
                0x0000000000000000        0x4 build/stm32f4xx_hal_i2c.o
 .text.HAL_I2C_ErrorCallback
                0x0000000000000000        0x4 build/stm32f4xx_hal_i2c.o
 .text.I2C_DMAError
                0x0000000000000000       0x48 build/stm32f4xx_hal_i2c.o
 .text.I2C_DMAXferCplt
                0x0000000000000000      0x110 build/stm32f4xx_hal_i2c.o
 .text.HAL_I2C_AbortCpltCallback
                0x0000000000000000        0x4 build/stm32f4xx_hal_i2c.o
 .text.I2C_DMAAbort
                0x0000000000000000       0xf4 build/stm32f4xx_hal_i2c.o
 .text.I2C_ITError
                0x0000000000000000      0x16c build/stm32f4xx_hal_i2c.o
 .text.HAL_I2C_Master_Abort_IT
                0x0000000000000000       0x54 build/stm32f4xx_hal_i2c.o
 .text.HAL_I2C_EV_IRQHandler
                0x0000000000000000      0x984 build/stm32f4xx_hal_i2c.o
 .text.HAL_I2C_ER_IRQHandler
                0x0000000000000000      0x168 build/stm32f4xx_hal_i2c.o
 .text.HAL_I2C_GetMode
                0x0000000000000000        0x8 build/stm32f4xx_hal_i2c.o
 .text.HAL_I2C_GetError
                0x0000000000000000        0x4 build/stm32f4xx_hal_i2c.o
 .text          0x0000000000000000        0x0 build/stm32f4xx_hal_i2c_ex.o
 .data          0x0000000000000000        0x0 build/stm32f4xx_hal_i2c_ex.o
 .bss           0x0000000000000000        0x0 build/stm32f4xx_hal_i2c_ex.o
 .debug_info    0x0000000000000000       0x6c build/stm32f4xx_hal_i2c_ex.o
 .debug_abbrev  0x0000000000000000       0x26 build/stm32f4xx_hal_i2c_ex.o
 .debug_aranges
                0x0000000000000000       0x18 build/stm32f4xx_hal_i2c_ex.o
 .debug_line    0x0000000000000000       0x1d build/stm32f4xx_hal_i2c_ex.o
 .debug_str     0x0000000000000000      0x1de build/stm32f4xx_hal_i2c_ex.o
 .comment       0x0000000000000000       0x3a build/stm32f4xx_hal_i2c_ex.o
 .ARM.attributes
                0x0000000000000000       0x34 build/stm32f4xx_hal_i2c_ex.o
 .text          0x0000000000000000        0x0 build/stm32f4xx_hal_i2s.o
 .data          0x0000000000000000        0x0 build/stm32f4xx_hal_i2s.o
 .bss           0x0000000000000000        0x0 build/stm32f4xx_hal_i2s.o
 .text.HAL_I2S_MspInit
                0x0000000000000000        0x4 build/stm32f4xx_hal_i2s.o
 .text.HAL_I2S_MspDeInit
                0x0000000000000000        0x4 build/stm32f4xx_hal_i2s.o
 .text.HAL_I2S_DeInit
                0x0000000000000000       0x30 build/stm32f4xx_hal_i2s.o
 .text.HAL_I2S_Transmit
                0x0000000000000000      0x180 build/stm32f4xx_hal_i2s.o
 .text.HAL_I2S_Receive
                0x0000000000000000      0x12c build/stm32f4xx_hal_i2s.o
 .text.HAL_I2S_Transmit_IT
                0x0000000000000000       0x7c build/stm32f4xx_hal_i2s.o
 .text.HAL_I2S_Receive_IT
                0x0000000000000000       0x7c build/stm32f4xx_hal_i2s.o
 .text.HAL_I2S_Receive_DMA
                0x0000000000000000       0xec build/stm32f4xx_hal_i2s.o
 .text.HAL_I2S_DMAPause
                0x0000000000000000       0x94 build/stm32f4xx_hal_i2s.o
 .text.HAL_I2S_DMAResume
                0x0000000000000000       0xb0 build/stm32f4xx_hal_i2s.o
 .text.HAL_I2S_DMAStop
                0x0000000000000000      0x230 build/stm32f4xx_hal_i2s.o
 .text.HAL_I2S_IRQHandler
                0x0000000000000000        0x4 build/stm32f4xx_hal_i2s.o
 .text.HAL_I2S_TxHalfCpltCallback
                0x0000000000000000        0x4 build/stm32f4xx_hal_i2s.o
 .text.HAL_I2S_TxCpltCallback
                0x0000000000000000        0x4 build/stm32f4xx_hal_i2s.o
 .text.HAL_I2S_RxHalfCpltCallback
                0x0000000000000000        0x4 build/stm32f4xx_hal_i2s.o
 .text.I2S_DMARxHalfCplt
                0x0000000000000000        0xc build/stm32f4xx_hal_i2s.o
 .text.HAL_I2S_RxCpltCallback
                0x0000000000000000        0x4 build/stm32f4xx_hal_i2s.o
 .text.I2S_DMARxCplt
                0x0000000000000000       0x24 build/stm32f4xx_hal_i2s.o
 .text.HAL_I2S_ErrorCallback
                0x0000000000000000        0x4 build/stm32f4xx_hal_i2s.o
 .text.HAL_I2S_GetError
                0x0000000000000000        0x4 build/stm32f4xx_hal_i2s.o
 .text          0x0000000000000000        0x0 build/stm32f4xx_hal_i2s_ex.o
 .data          0x0000000000000000        0x0 build/stm32f4xx_hal_i2s_ex.o
 .bss           0x0000000000000000        0x0 build/stm32f4xx_hal_i2s_ex.o
 .text.I2SEx_TxRxDMAError
                0x0000000000000000       0x48 build/stm32f4xx_hal_i2s_ex.o
 .text.HAL_I2SEx_TransmitReceive
                0x0000000000000000      0x318 build/stm32f4xx_hal_i2s_ex.o
 .text.HAL_I2SEx_TransmitReceive_IT
                0x0000000000000000      0x134 build/stm32f4xx_hal_i2s_ex.o
 .text.HAL_I2SEx_TransmitReceive_DMA
                0x0000000000000000      0x1a4 build/stm32f4xx_hal_i2s_ex.o
 .text.HAL_I2SEx_TxRxHalfCpltCallback
                0x0000000000000000        0x4 build/stm32f4xx_hal_i2s_ex.o
 .text.I2SEx_TxRxDMAHalfCplt
                0x0000000000000000        0xc build/stm32f4xx_hal_i2s_ex.o
 .text.I2SEx_TxRxDMACplt
                0x0000000000000000       0x74 build/stm32f4xx_hal_i2s_ex.o
 .text          0x0000000000000000        0x0 build/stm32f4xx_hal_pwr.o
 .data          0x0000000000000000        0x0 build/stm32f4xx_hal_pwr.o
 .bss           0x0000000000000000        0x0 build/stm32f4xx_hal_pwr.o
 .text.HAL_PWR_DeInit
                0x0000000000000000       0x18 build/stm32f4xx_hal_pwr.o
 .text.HAL_PWR_EnableBkUpAccess
                0x0000000000000000       0x1c build/stm32f4xx_hal_pwr.o
 .text.HAL_PWR_DisableBkUpAccess
                0x0000000000000000       0x1c build/stm32f4xx_hal_pwr.o
 .text.HAL_PWR_ConfigPVD
                0x0000000000000000       0x78 build/stm32f4xx_hal_pwr.o
 .text.HAL_PWR_EnablePVD
                0x0000000000000000        0xc build/stm32f4xx_hal_pwr.o
 .text.HAL_PWR_DisablePVD
                0x0000000000000000        0xc build/stm32f4xx_hal_pwr.o
 .text.HAL_PWR_EnableWakeUpPin
                0x0000000000000000       0x10 build/stm32f4xx_hal_pwr.o
 .text.HAL_PWR_DisableWakeUpPin
                0x0000000000000000       0x10 build/stm32f4xx_hal_pwr.o
 .text.HAL_PWR_EnterSLEEPMode
                0x0000000000000000       0x20 build/stm32f4xx_hal_pwr.o
 .text.HAL_PWR_EnterSTOPMode
                0x0000000000000000       0x40 build/stm32f4xx_hal_pwr.o
 .text.HAL_PWR_EnterSTANDBYMode
                0x0000000000000000       0x20 build/stm32f4xx_hal_pwr.o
 .text.HAL_PWR_PVDCallback
                0x0000000000000000        0x4 build/stm32f4xx_hal_pwr.o
 .text.HAL_PWR_PVD_IRQHandler
                0x0000000000000000       0x1c build/stm32f4xx_hal_pwr.o
 .text.HAL_PWR_EnableSleepOnExit
                0x0000000000000000       0x10 build/stm32f4xx_hal_pwr.o
 .text.HAL_PWR_DisableSleepOnExit
                0x0000000000000000       0x10 build/stm32f4xx_hal_pwr.o
 .text.HAL_PWR_EnableSEVOnPend
                0x0000000000000000       0x10 build/stm32f4xx_hal_pwr.o
 .text.HAL_PWR_DisableSEVOnPend
                0x0000000000000000       0x10 build/stm32f4xx_hal_pwr.o
 .debug_info    0x0000000000000000      0x712 build/stm32f4xx_hal_pwr.o
 .debug_abbrev  0x0000000000000000      0x19f build/stm32f4xx_hal_pwr.o
 .debug_loclists
                0x0000000000000000       0x68 build/stm32f4xx_hal_pwr.o
 .debug_aranges
                0x0000000000000000       0xa0 build/stm32f4xx_hal_pwr.o
 .debug_rnglists
                0x0000000000000000       0x73 build/stm32f4xx_hal_pwr.o
 .debug_line    0x0000000000000000      0x4ff build/stm32f4xx_hal_pwr.o
 .debug_str     0x0000000000000000      0x56c build/stm32f4xx_hal_pwr.o
 .comment       0x0000000000000000       0x3a build/stm32f4xx_hal_pwr.o
 .debug_frame   0x0000000000000000      0x150 build/stm32f4xx_hal_pwr.o
 .ARM.attributes
                0x0000000000000000       0x34 build/stm32f4xx_hal_pwr.o
 .text          0x0000000000000000        0x0 build/stm32f4xx_hal_pwr_ex.o
 .data          0x0000000000000000        0x0 build/stm32f4xx_hal_pwr_ex.o
 .bss           0x0000000000000000        0x0 build/stm32f4xx_hal_pwr_ex.o
 .text.HAL_PWREx_EnableBkUpReg
                0x0000000000000000       0x38 build/stm32f4xx_hal_pwr_ex.o
 .text.HAL_PWREx_DisableBkUpReg
                0x0000000000000000       0x38 build/stm32f4xx_hal_pwr_ex.o
 .text.HAL_PWREx_EnableFlashPowerDown
                0x0000000000000000        0xc build/stm32f4xx_hal_pwr_ex.o
 .text.HAL_PWREx_DisableFlashPowerDown
                0x0000000000000000        0xc build/stm32f4xx_hal_pwr_ex.o
 .text.HAL_PWREx_GetVoltageRange
                0x0000000000000000       0x10 build/stm32f4xx_hal_pwr_ex.o
 .text.HAL_PWREx_ControlVoltageScaling
                0x0000000000000000       0x64 build/stm32f4xx_hal_pwr_ex.o
 .debug_info    0x0000000000000000      0x3e0 build/stm32f4xx_hal_pwr_ex.o
 .debug_abbrev  0x0000000000000000      0x196 build/stm32f4xx_hal_pwr_ex.o
 .debug_loclists
                0x0000000000000000       0x77 build/stm32f4xx_hal_pwr_ex.o
 .debug_aranges
                0x0000000000000000       0x48 build/stm32f4xx_hal_pwr_ex.o
 .debug_rnglists
                0x0000000000000000       0x4c build/stm32f4xx_hal_pwr_ex.o
 .debug_line    0x0000000000000000      0x3d2 build/stm32f4xx_hal_pwr_ex.o
 .debug_str     0x0000000000000000      0x41d build/stm32f4xx_hal_pwr_ex.o
 .comment       0x0000000000000000       0x3a build/stm32f4xx_hal_pwr_ex.o
 .debug_frame   0x0000000000000000       0xa0 build/stm32f4xx_hal_pwr_ex.o
 .ARM.attributes
                0x0000000000000000       0x34 build/stm32f4xx_hal_pwr_ex.o
 .text          0x0000000000000000        0x0 build/stm32f4xx_hal_rcc.o
 .data          0x0000000000000000        0x0 build/stm32f4xx_hal_rcc.o
 .bss           0x0000000000000000        0x0 build/stm32f4xx_hal_rcc.o
 .text.HAL_RCC_DeInit
                0x0000000000000000        0x4 build/stm32f4xx_hal_rcc.o
 .text.HAL_RCC_MCOConfig
                0x0000000000000000       0xa0 build/stm32f4xx_hal_rcc.o
 .text.HAL_RCC_EnableCSS
                0x0000000000000000        0xc build/stm32f4xx_hal_rcc.o
 .text.HAL_RCC_DisableCSS
                0x0000000000000000        0xc build/stm32f4xx_hal_rcc.o
 .text.HAL_RCC_GetHCLKFreq
                0x0000000000000000        0xc build/stm32f4xx_hal_rcc.o
 .text.HAL_RCC_GetPCLK2Freq
                0x0000000000000000       0x20 build/stm32f4xx_hal_rcc.o
 .text.HAL_RCC_GetOscConfig
                0x0000000000000000       0x8c build/stm32f4xx_hal_rcc.o
 .text.HAL_RCC_GetClockConfig
                0x0000000000000000       0x44 build/stm32f4xx_hal_rcc.o
 .text.HAL_RCC_CSSCallback
                0x0000000000000000        0x4 build/stm32f4xx_hal_rcc.o
 .text.HAL_RCC_NMI_IRQHandler
                0x0000000000000000       0x1c build/stm32f4xx_hal_rcc.o
 .text          0x0000000000000000        0x0 build/stm32f4xx_hal_rcc_ex.o
 .data          0x0000000000000000        0x0 build/stm32f4xx_hal_rcc_ex.o
 .bss           0x0000000000000000        0x0 build/stm32f4xx_hal_rcc_ex.o
 .text.HAL_RCCEx_EnablePLLI2S
                0x0000000000000000       0x64 build/stm32f4xx_hal_rcc_ex.o
 .text.HAL_RCCEx_DisablePLLI2S
                0x0000000000000000       0x34 build/stm32f4xx_hal_rcc_ex.o
 .text.HAL_RCC_DeInit
                0x0000000000000000      0x124 build/stm32f4xx_hal_rcc_ex.o
 .text          0x0000000000000000        0x0 build/stm32f4xx_hal_spi.o
 .data          0x0000000000000000        0x0 build/stm32f4xx_hal_spi.o
 .bss           0x0000000000000000        0x0 build/stm32f4xx_hal_spi.o
 .text.SPI_AbortRx_ISR
                0x0000000000000000       0x60 build/stm32f4xx_hal_spi.o
 .text.SPI_AbortTx_ISR
                0x0000000000000000       0x1c build/stm32f4xx_hal_spi.o
 .text.SPI_WaitFlagStateUntilTimeout.constprop.0
                0x0000000000000000       0xbc build/stm32f4xx_hal_spi.o
 .text.SPI_EndRxTransaction
                0x0000000000000000       0x78 build/stm32f4xx_hal_spi.o
 .text.HAL_SPI_MspInit
                0x0000000000000000        0x4 build/stm32f4xx_hal_spi.o
 .text.HAL_SPI_MspDeInit
                0x0000000000000000        0x4 build/stm32f4xx_hal_spi.o
 .text.HAL_SPI_DeInit
                0x0000000000000000       0x2c build/stm32f4xx_hal_spi.o
 .text.HAL_SPI_Transmit
                0x0000000000000000      0x244 build/stm32f4xx_hal_spi.o
 .text.HAL_SPI_TransmitReceive
                0x0000000000000000      0x30c build/stm32f4xx_hal_spi.o
 .text.HAL_SPI_Receive
                0x0000000000000000      0x1cc build/stm32f4xx_hal_spi.o
 .text.HAL_SPI_Transmit_IT
                0x0000000000000000       0xa8 build/stm32f4xx_hal_spi.o
 .text.HAL_SPI_TransmitReceive_IT
                0x0000000000000000       0xd8 build/stm32f4xx_hal_spi.o
 .text.HAL_SPI_Receive_IT
                0x0000000000000000       0xd0 build/stm32f4xx_hal_spi.o
 .text.HAL_SPI_Transmit_DMA
                0x0000000000000000       0xcc build/stm32f4xx_hal_spi.o
 .text.HAL_SPI_TransmitReceive_DMA
                0x0000000000000000      0x10c build/stm32f4xx_hal_spi.o
 .text.HAL_SPI_Receive_DMA
                0x0000000000000000       0xf0 build/stm32f4xx_hal_spi.o
 .text.HAL_SPI_Abort
                0x0000000000000000      0x134 build/stm32f4xx_hal_spi.o
 .text.HAL_SPI_DMAPause
                0x0000000000000000       0x28 build/stm32f4xx_hal_spi.o
 .text.HAL_SPI_DMAResume
                0x0000000000000000       0x28 build/stm32f4xx_hal_spi.o
 .text.HAL_SPI_DMAStop
                0x0000000000000000       0x44 build/stm32f4xx_hal_spi.o
 .text.HAL_SPI_TxCpltCallback
                0x0000000000000000        0x4 build/stm32f4xx_hal_spi.o
 .text.HAL_SPI_RxCpltCallback
                0x0000000000000000        0x4 build/stm32f4xx_hal_spi.o
 .text.HAL_SPI_TxRxCpltCallback
                0x0000000000000000        0x4 build/stm32f4xx_hal_spi.o
 .text.HAL_SPI_TxHalfCpltCallback
                0x0000000000000000        0x4 build/stm32f4xx_hal_spi.o
 .text.SPI_DMAHalfTransmitCplt
                0x0000000000000000        0xc build/stm32f4xx_hal_spi.o
 .text.HAL_SPI_RxHalfCpltCallback
                0x0000000000000000        0x4 build/stm32f4xx_hal_spi.o
 .text.SPI_DMAHalfReceiveCplt
                0x0000000000000000        0xc build/stm32f4xx_hal_spi.o
 .text.HAL_SPI_TxRxHalfCpltCallback
                0x0000000000000000        0x4 build/stm32f4xx_hal_spi.o
 .text.SPI_DMAHalfTransmitReceiveCplt
                0x0000000000000000        0xc build/stm32f4xx_hal_spi.o
 .text.HAL_SPI_ErrorCallback
                0x0000000000000000        0x4 build/stm32f4xx_hal_spi.o
 .text.SPI_CloseTx_ISR
                0x0000000000000000       0xd0 build/stm32f4xx_hal_spi.o
 .text.SPI_TxISR_8BIT
                0x0000000000000000       0x24 build/stm32f4xx_hal_spi.o
 .text.SPI_TxISR_16BIT
                0x0000000000000000       0x2c build/stm32f4xx_hal_spi.o
 .text.SPI_RxISR_8BIT
                0x0000000000000000       0x74 build/stm32f4xx_hal_spi.o
 .text.SPI_CloseRxTx_ISR
                0x0000000000000000       0xec build/stm32f4xx_hal_spi.o
 .text.SPI_2linesTxISR_8BIT
                0x0000000000000000       0x34 build/stm32f4xx_hal_spi.o
 .text.SPI_2linesRxISR_8BIT
                0x0000000000000000       0x34 build/stm32f4xx_hal_spi.o
 .text.SPI_2linesTxISR_16BIT
                0x0000000000000000       0x38 build/stm32f4xx_hal_spi.o
 .text.SPI_2linesRxISR_16BIT
                0x0000000000000000       0x38 build/stm32f4xx_hal_spi.o
 .text.SPI_DMAError
                0x0000000000000000       0x24 build/stm32f4xx_hal_spi.o
 .text.SPI_DMATransmitCplt
                0x0000000000000000       0xc0 build/stm32f4xx_hal_spi.o
 .text.SPI_DMAReceiveCplt
                0x0000000000000000      0x160 build/stm32f4xx_hal_spi.o
 .text.SPI_DMATransmitReceiveCplt
                0x0000000000000000       0xa8 build/stm32f4xx_hal_spi.o
 .text.HAL_SPI_IRQHandler
                0x0000000000000000      0x104 build/stm32f4xx_hal_spi.o
 .text.SPI_DMAAbortOnError
                0x0000000000000000       0x10 build/stm32f4xx_hal_spi.o
 .text.SPI_RxISR_16BIT
                0x0000000000000000       0x70 build/stm32f4xx_hal_spi.o
 .text.HAL_SPI_AbortCpltCallback
                0x0000000000000000        0x4 build/stm32f4xx_hal_spi.o
 .text.HAL_SPI_Abort_IT
                0x0000000000000000      0x15c build/stm32f4xx_hal_spi.o
 .text.SPI_DMARxAbortCallback
                0x0000000000000000       0xc4 build/stm32f4xx_hal_spi.o
 .text.SPI_DMATxAbortCallback
                0x0000000000000000       0x8c build/stm32f4xx_hal_spi.o
 .text.HAL_SPI_GetState
                0x0000000000000000        0x8 build/stm32f4xx_hal_spi.o
 .text.HAL_SPI_GetError
                0x0000000000000000        0x4 build/stm32f4xx_hal_spi.o
 .text          0x0000000000000000        0x0 build/stm32f4xx_hal_tim.o
 .data          0x0000000000000000        0x0 build/stm32f4xx_hal_tim.o
 .bss           0x0000000000000000        0x0 build/stm32f4xx_hal_tim.o
 .debug_info    0x0000000000000000       0x6c build/stm32f4xx_hal_tim.o
 .debug_abbrev  0x0000000000000000       0x26 build/stm32f4xx_hal_tim.o
 .debug_aranges
                0x0000000000000000       0x18 build/stm32f4xx_hal_tim.o
 .debug_line    0x0000000000000000       0x1d build/stm32f4xx_hal_tim.o
 .debug_str     0x0000000000000000      0x1db build/stm32f4xx_hal_tim.o
 .comment       0x0000000000000000       0x3a build/stm32f4xx_hal_tim.o
 .ARM.attributes
                0x0000000000000000       0x34 build/stm32f4xx_hal_tim.o
 .text          0x0000000000000000        0x0 build/stm32f4xx_hal_tim_ex.o
 .data          0x0000000000000000        0x0 build/stm32f4xx_hal_tim_ex.o
 .bss           0x0000000000000000        0x0 build/stm32f4xx_hal_tim_ex.o
 .debug_info    0x0000000000000000       0x6c build/stm32f4xx_hal_tim_ex.o
 .debug_abbrev  0x0000000000000000       0x26 build/stm32f4xx_hal_tim_ex.o
 .debug_aranges
                0x0000000000000000       0x18 build/stm32f4xx_hal_tim_ex.o
 .debug_line    0x0000000000000000       0x1d build/stm32f4xx_hal_tim_ex.o
 .debug_str     0x0000000000000000      0x1de build/stm32f4xx_hal_tim_ex.o
 .comment       0x0000000000000000       0x3a build/stm32f4xx_hal_tim_ex.o
 .ARM.attributes
                0x0000000000000000       0x34 build/stm32f4xx_hal_tim_ex.o
 .text          0x0000000000000000        0x0 build/stm32f4xx_ll_usb.o
 .data          0x0000000000000000        0x0 build/stm32f4xx_ll_usb.o
 .bss           0x0000000000000000        0x0 build/stm32f4xx_ll_usb.o
 .text.USB_SetTurnaroundTime
                0x0000000000000000       0xf4 build/stm32f4xx_ll_usb.o
 .text.USB_DevInit
                0x0000000000000000      0x234 build/stm32f4xx_ll_usb.o
 .text.USB_SetDevSpeed
                0x0000000000000000       0x10 build/stm32f4xx_ll_usb.o
 .text.USB_GetDevSpeed
                0x0000000000000000       0x18 build/stm32f4xx_ll_usb.o
 .text.USB_ActivateEndpoint
                0x0000000000000000       0x98 build/stm32f4xx_ll_usb.o
 .text.USB_ActivateDedicatedEndpoint
                0x0000000000000000       0x98 build/stm32f4xx_ll_usb.o
 .text.USB_DeactivateEndpoint
                0x0000000000000000       0xc4 build/stm32f4xx_ll_usb.o
 .text.USB_DeactivateDedicatedEndpoint
                0x0000000000000000       0x9c build/stm32f4xx_ll_usb.o
 .text.USB_EPStartXfer
                0x0000000000000000      0x218 build/stm32f4xx_ll_usb.o
 .text.USB_EP0StartXfer
                0x0000000000000000      0x158 build/stm32f4xx_ll_usb.o
 .text.USB_EPStopXfer
                0x0000000000000000       0x88 build/stm32f4xx_ll_usb.o
 .text.USB_WritePacket
                0x0000000000000000       0x2c build/stm32f4xx_ll_usb.o
 .text.USB_EPSetStall
                0x0000000000000000       0x5c build/stm32f4xx_ll_usb.o
 .text.USB_EPClearStall
                0x0000000000000000       0x58 build/stm32f4xx_ll_usb.o
 .text.USB_StopDevice
                0x0000000000000000      0x120 build/stm32f4xx_ll_usb.o
 .text.USB_SetDevAddress
                0x0000000000000000       0x20 build/stm32f4xx_ll_usb.o
 .text.USB_DevConnect
                0x0000000000000000       0x20 build/stm32f4xx_ll_usb.o
 .text.USB_DevDisconnect
                0x0000000000000000       0x20 build/stm32f4xx_ll_usb.o
 .text.USB_ReadDevAllOutEpInterrupt
                0x0000000000000000       0x10 build/stm32f4xx_ll_usb.o
 .text.USB_ReadDevAllInEpInterrupt
                0x0000000000000000       0x10 build/stm32f4xx_ll_usb.o
 .text.USB_ReadDevOutEPInterrupt
                0x0000000000000000       0x14 build/stm32f4xx_ll_usb.o
 .text.USB_ReadDevInEPInterrupt
                0x0000000000000000       0x20 build/stm32f4xx_ll_usb.o
 .text.USB_ClearInterrupts
                0x0000000000000000        0x8 build/stm32f4xx_ll_usb.o
 .text.USB_ActivateSetup
                0x0000000000000000       0x24 build/stm32f4xx_ll_usb.o
 .text.USB_EP0_OutStart
                0x0000000000000000       0x58 build/stm32f4xx_ll_usb.o
 .text.USB_DoPing
                0x0000000000000000       0x24 build/stm32f4xx_ll_usb.o
 .text.USB_ActivateRemoteWakeup
                0x0000000000000000       0x18 build/stm32f4xx_ll_usb.o
 .text.USB_DeActivateRemoteWakeup
                0x0000000000000000       0x14 build/stm32f4xx_ll_usb.o
 .text          0x0000000000000000        0x0 build/usbh_cdc.o
 .data          0x0000000000000000        0x0 build/usbh_cdc.o
 .bss           0x0000000000000000        0x0 build/usbh_cdc.o
 .text.USBH_CDC_SOFProcess
                0x0000000000000000        0x4 build/usbh_cdc.o
 .text.USBH_CDC_InterfaceDeInit
                0x0000000000000000       0x70 build/usbh_cdc.o
 .text.USBH_CDC_InterfaceInit
                0x0000000000000000      0x15c build/usbh_cdc.o
 .text.USBH_CDC_ClassRequest
                0x0000000000000000       0x30 build/usbh_cdc.o
 .text.USBH_CDC_Stop
                0x0000000000000000       0x34 build/usbh_cdc.o
 .text.USBH_CDC_SetLineCoding
                0x0000000000000000       0x18 build/usbh_cdc.o
 .text.USBH_CDC_GetLineCoding
                0x0000000000000000       0x30 build/usbh_cdc.o
 .text.USBH_CDC_GetLastReceivedDataSize
                0x0000000000000000       0x1c build/usbh_cdc.o
 .text.USBH_CDC_Transmit
                0x0000000000000000       0x24 build/usbh_cdc.o
 .text.USBH_CDC_Receive
                0x0000000000000000       0x28 build/usbh_cdc.o
 .text.USBH_CDC_TransmitCallback
                0x0000000000000000        0x4 build/usbh_cdc.o
 .text.USBH_CDC_ReceiveCallback
                0x0000000000000000        0x4 build/usbh_cdc.o
 .text.USBH_CDC_LineCodingChanged
                0x0000000000000000        0x4 build/usbh_cdc.o
 .text.USBH_CDC_Process
                0x0000000000000000      0x194 build/usbh_cdc.o
 .rodata.str1.4
                0x0000000000000000        0x4 build/usbh_cdc.o
 .data.CDC_Class
                0x0000000000000000       0x20 build/usbh_cdc.o
 .debug_info    0x0000000000000000     0x18cd build/usbh_cdc.o
 .debug_abbrev  0x0000000000000000      0x432 build/usbh_cdc.o
 .debug_loclists
                0x0000000000000000      0x50d build/usbh_cdc.o
 .debug_aranges
                0x0000000000000000       0x78 build/usbh_cdc.o
 .debug_rnglists
                0x0000000000000000       0xbd build/usbh_cdc.o
 .debug_line    0x0000000000000000      0xb90 build/usbh_cdc.o
 .debug_str     0x0000000000000000     0x1155 build/usbh_cdc.o
 .comment       0x0000000000000000       0x3a build/usbh_cdc.o
 .debug_frame   0x0000000000000000      0x150 build/usbh_cdc.o
 .ARM.attributes
                0x0000000000000000       0x34 build/usbh_cdc.o
 .text          0x0000000000000000        0x0 build/usbh_core.o
 .data          0x0000000000000000        0x0 build/usbh_core.o
 .bss           0x0000000000000000        0x0 build/usbh_core.o
 .text.USBH_DeInit
                0x0000000000000000       0x4c build/usbh_core.o
 .text.USBH_GetActiveClass
                0x0000000000000000        0x8 build/usbh_core.o
 .text.USBH_FindInterfaceIndex
                0x0000000000000000       0xd0 build/usbh_core.o
 .text.USBH_Stop
                0x0000000000000000       0x24 build/usbh_core.o
 .text.USBH_ReEnumerate
                0x0000000000000000       0x70 build/usbh_core.o
 .text.USBH_IsPortEnabled
                0x0000000000000000        0x8 build/usbh_core.o
 .text          0x0000000000000000        0x0 build/usbh_ctlreq.o
 .data          0x0000000000000000        0x0 build/usbh_ctlreq.o
 .bss           0x0000000000000000        0x0 build/usbh_ctlreq.o
 .text.USBH_GetDescriptor
                0x0000000000000000      0x1dc build/usbh_ctlreq.o
 .text.USBH_SetInterface
                0x0000000000000000      0x1a8 build/usbh_ctlreq.o
 .text.USBH_GetNextDesc
                0x0000000000000000        0xc build/usbh_ctlreq.o
 .text.USBH_CtlReq
                0x0000000000000000      0x198 build/usbh_ctlreq.o
 .text          0x0000000000000000        0x0 build/usbh_ioreq.o
 .data          0x0000000000000000        0x0 build/usbh_ioreq.o
 .bss           0x0000000000000000        0x0 build/usbh_ioreq.o
 .text.USBH_InterruptReceiveData
                0x0000000000000000       0x20 build/usbh_ioreq.o
 .text.USBH_InterruptSendData
                0x0000000000000000       0x24 build/usbh_ioreq.o
 .text.USBH_IsocReceiveData
                0x0000000000000000       0x20 build/usbh_ioreq.o
 .text.USBH_IsocSendData
                0x0000000000000000       0x24 build/usbh_ioreq.o
 .text          0x0000000000000000        0x0 build/usbh_pipes.o
 .data          0x0000000000000000        0x0 build/usbh_pipes.o
 .bss           0x0000000000000000        0x0 build/usbh_pipes.o
 .text          0x0000000000000000       0x14 build/startup_stm32f407xx.o
 .data          0x0000000000000000        0x0 build/startup_stm32f407xx.o
 .bss           0x0000000000000000        0x0 build/startup_stm32f407xx.o
 .text          0x0000000000000000        0x0 /Users/johannes/Library/Application Support/Code/User/globalStorage/bmd.stm32-for-vscode/@xpack-dev-tools/arm-none-eabi-gcc/11.2.1-1.2.2/.content/bin/../lib/gcc/arm-none-eabi/11.2.1/../../../../arm-none-eabi/lib/thumb/v7e-m+fp/hard/libc_nano.a(lib_a-atexit.o)
 .data          0x0000000000000000        0x0 /Users/johannes/Library/Application Support/Code/User/globalStorage/bmd.stm32-for-vscode/@xpack-dev-tools/arm-none-eabi-gcc/11.2.1-1.2.2/.content/bin/../lib/gcc/arm-none-eabi/11.2.1/../../../../arm-none-eabi/lib/thumb/v7e-m+fp/hard/libc_nano.a(lib_a-atexit.o)
 .bss           0x0000000000000000        0x0 /Users/johannes/Library/Application Support/Code/User/globalStorage/bmd.stm32-for-vscode/@xpack-dev-tools/arm-none-eabi-gcc/11.2.1-1.2.2/.content/bin/../lib/gcc/arm-none-eabi/11.2.1/../../../../arm-none-eabi/lib/thumb/v7e-m+fp/hard/libc_nano.a(lib_a-atexit.o)
 .text.atexit   0x0000000000000000        0xc /Users/johannes/Library/Application Support/Code/User/globalStorage/bmd.stm32-for-vscode/@xpack-dev-tools/arm-none-eabi-gcc/11.2.1-1.2.2/.content/bin/../lib/gcc/arm-none-eabi/11.2.1/../../../../arm-none-eabi/lib/thumb/v7e-m+fp/hard/libc_nano.a(lib_a-atexit.o)
 .comment       0x0000000000000000       0x3a /Users/johannes/Library/Application Support/Code/User/globalStorage/bmd.stm32-for-vscode/@xpack-dev-tools/arm-none-eabi-gcc/11.2.1-1.2.2/.content/bin/../lib/gcc/arm-none-eabi/11.2.1/../../../../arm-none-eabi/lib/thumb/v7e-m+fp/hard/libc_nano.a(lib_a-atexit.o)
 .ARM.attributes
                0x0000000000000000       0x34 /Users/johannes/Library/Application Support/Code/User/globalStorage/bmd.stm32-for-vscode/@xpack-dev-tools/arm-none-eabi-gcc/11.2.1-1.2.2/.content/bin/../lib/gcc/arm-none-eabi/11.2.1/../../../../arm-none-eabi/lib/thumb/v7e-m+fp/hard/libc_nano.a(lib_a-atexit.o)
 .text          0x0000000000000000        0x0 /Users/johannes/Library/Application Support/Code/User/globalStorage/bmd.stm32-for-vscode/@xpack-dev-tools/arm-none-eabi-gcc/11.2.1-1.2.2/.content/bin/../lib/gcc/arm-none-eabi/11.2.1/../../../../arm-none-eabi/lib/thumb/v7e-m+fp/hard/libc_nano.a(lib_a-atoi.o)
 .data          0x0000000000000000        0x0 /Users/johannes/Library/Application Support/Code/User/globalStorage/bmd.stm32-for-vscode/@xpack-dev-tools/arm-none-eabi-gcc/11.2.1-1.2.2/.content/bin/../lib/gcc/arm-none-eabi/11.2.1/../../../../arm-none-eabi/lib/thumb/v7e-m+fp/hard/libc_nano.a(lib_a-atoi.o)
 .bss           0x0000000000000000        0x0 /Users/johannes/Library/Application Support/Code/User/globalStorage/bmd.stm32-for-vscode/@xpack-dev-tools/arm-none-eabi-gcc/11.2.1-1.2.2/.content/bin/../lib/gcc/arm-none-eabi/11.2.1/../../../../arm-none-eabi/lib/thumb/v7e-m+fp/hard/libc_nano.a(lib_a-atoi.o)
 .text.atoi     0x0000000000000000        0x8 /Users/johannes/Library/Application Support/Code/User/globalStorage/bmd.stm32-for-vscode/@xpack-dev-tools/arm-none-eabi-gcc/11.2.1-1.2.2/.content/bin/../lib/gcc/arm-none-eabi/11.2.1/../../../../arm-none-eabi/lib/thumb/v7e-m+fp/hard/libc_nano.a(lib_a-atoi.o)
 .text._atoi_r  0x0000000000000000        0x8 /Users/johannes/Library/Application Support/Code/User/globalStorage/bmd.stm32-for-vscode/@xpack-dev-tools/arm-none-eabi-gcc/11.2.1-1.2.2/.content/bin/../lib/gcc/arm-none-eabi/11.2.1/../../../../arm-none-eabi/lib/thumb/v7e-m+fp/hard/libc_nano.a(lib_a-atoi.o)
 .comment       0x0000000000000000       0x3a /Users/johannes/Library/Application Support/Code/User/globalStorage/bmd.stm32-for-vscode/@xpack-dev-tools/arm-none-eabi-gcc/11.2.1-1.2.2/.content/bin/../lib/gcc/arm-none-eabi/11.2.1/../../../../arm-none-eabi/lib/thumb/v7e-m+fp/hard/libc_nano.a(lib_a-atoi.o)
 .ARM.attributes
                0x0000000000000000       0x34 /Users/johannes/Library/Application Support/Code/User/globalStorage/bmd.stm32-for-vscode/@xpack-dev-tools/arm-none-eabi-gcc/11.2.1-1.2.2/.content/bin/../lib/gcc/arm-none-eabi/11.2.1/../../../../arm-none-eabi/lib/thumb/v7e-m+fp/hard/libc_nano.a(lib_a-atoi.o)
 .text          0x0000000000000000        0x0 /Users/johannes/Library/Application Support/Code/User/globalStorage/bmd.stm32-for-vscode/@xpack-dev-tools/arm-none-eabi-gcc/11.2.1-1.2.2/.content/bin/../lib/gcc/arm-none-eabi/11.2.1/../../../../arm-none-eabi/lib/thumb/v7e-m+fp/hard/libc_nano.a(lib_a-exit.o)
 .data          0x0000000000000000        0x0 /Users/johannes/Library/Application Support/Code/User/globalStorage/bmd.stm32-for-vscode/@xpack-dev-tools/arm-none-eabi-gcc/11.2.1-1.2.2/.content/bin/../lib/gcc/arm-none-eabi/11.2.1/../../../../arm-none-eabi/lib/thumb/v7e-m+fp/hard/libc_nano.a(lib_a-exit.o)
 .bss           0x0000000000000000        0x0 /Users/johannes/Library/Application Support/Code/User/globalStorage/bmd.stm32-for-vscode/@xpack-dev-tools/arm-none-eabi-gcc/11.2.1-1.2.2/.content/bin/../lib/gcc/arm-none-eabi/11.2.1/../../../../arm-none-eabi/lib/thumb/v7e-m+fp/hard/libc_nano.a(lib_a-exit.o)
 .text.exit     0x0000000000000000       0x28 /Users/johannes/Library/Application Support/Code/User/globalStorage/bmd.stm32-for-vscode/@xpack-dev-tools/arm-none-eabi-gcc/11.2.1-1.2.2/.content/bin/../lib/gcc/arm-none-eabi/11.2.1/../../../../arm-none-eabi/lib/thumb/v7e-m+fp/hard/libc_nano.a(lib_a-exit.o)
 .comment       0x0000000000000000       0x3a /Users/johannes/Library/Application Support/Code/User/globalStorage/bmd.stm32-for-vscode/@xpack-dev-tools/arm-none-eabi-gcc/11.2.1-1.2.2/.content/bin/../lib/gcc/arm-none-eabi/11.2.1/../../../../arm-none-eabi/lib/thumb/v7e-m+fp/hard/libc_nano.a(lib_a-exit.o)
 .ARM.attributes
                0x0000000000000000       0x34 /Users/johannes/Library/Application Support/Code/User/globalStorage/bmd.stm32-for-vscode/@xpack-dev-tools/arm-none-eabi-gcc/11.2.1-1.2.2/.content/bin/../lib/gcc/arm-none-eabi/11.2.1/../../../../arm-none-eabi/lib/thumb/v7e-m+fp/hard/libc_nano.a(lib_a-exit.o)
 .text          0x0000000000000000        0x0 /Users/johannes/Library/Application Support/Code/User/globalStorage/bmd.stm32-for-vscode/@xpack-dev-tools/arm-none-eabi-gcc/11.2.1-1.2.2/.content/bin/../lib/gcc/arm-none-eabi/11.2.1/../../../../arm-none-eabi/lib/thumb/v7e-m+fp/hard/libc_nano.a(lib_a-fini.o)
 .data          0x0000000000000000        0x0 /Users/johannes/Library/Application Support/Code/User/globalStorage/bmd.stm32-for-vscode/@xpack-dev-tools/arm-none-eabi-gcc/11.2.1-1.2.2/.content/bin/../lib/gcc/arm-none-eabi/11.2.1/../../../../arm-none-eabi/lib/thumb/v7e-m+fp/hard/libc_nano.a(lib_a-fini.o)
 .bss           0x0000000000000000        0x0 /Users/johannes/Library/Application Support/Code/User/globalStorage/bmd.stm32-for-vscode/@xpack-dev-tools/arm-none-eabi-gcc/11.2.1-1.2.2/.content/bin/../lib/gcc/arm-none-eabi/11.2.1/../../../../arm-none-eabi/lib/thumb/v7e-m+fp/hard/libc_nano.a(lib_a-fini.o)
 .text.__libc_fini_array
                0x0000000000000000       0x28 /Users/johannes/Library/Application Support/Code/User/globalStorage/bmd.stm32-for-vscode/@xpack-dev-tools/arm-none-eabi-gcc/11.2.1-1.2.2/.content/bin/../lib/gcc/arm-none-eabi/11.2.1/../../../../arm-none-eabi/lib/thumb/v7e-m+fp/hard/libc_nano.a(lib_a-fini.o)
 .comment       0x0000000000000000       0x3a /Users/johannes/Library/Application Support/Code/User/globalStorage/bmd.stm32-for-vscode/@xpack-dev-tools/arm-none-eabi-gcc/11.2.1-1.2.2/.content/bin/../lib/gcc/arm-none-eabi/11.2.1/../../../../arm-none-eabi/lib/thumb/v7e-m+fp/hard/libc_nano.a(lib_a-fini.o)
 .ARM.attributes
                0x0000000000000000       0x34 /Users/johannes/Library/Application Support/Code/User/globalStorage/bmd.stm32-for-vscode/@xpack-dev-tools/arm-none-eabi-gcc/11.2.1-1.2.2/.content/bin/../lib/gcc/arm-none-eabi/11.2.1/../../../../arm-none-eabi/lib/thumb/v7e-m+fp/hard/libc_nano.a(lib_a-fini.o)
 .text          0x0000000000000000        0x0 /Users/johannes/Library/Application Support/Code/User/globalStorage/bmd.stm32-for-vscode/@xpack-dev-tools/arm-none-eabi-gcc/11.2.1-1.2.2/.content/bin/../lib/gcc/arm-none-eabi/11.2.1/../../../../arm-none-eabi/lib/thumb/v7e-m+fp/hard/libc_nano.a(lib_a-impure.o)
 .data          0x0000000000000000        0x0 /Users/johannes/Library/Application Support/Code/User/globalStorage/bmd.stm32-for-vscode/@xpack-dev-tools/arm-none-eabi-gcc/11.2.1-1.2.2/.content/bin/../lib/gcc/arm-none-eabi/11.2.1/../../../../arm-none-eabi/lib/thumb/v7e-m+fp/hard/libc_nano.a(lib_a-impure.o)
 .bss           0x0000000000000000        0x0 /Users/johannes/Library/Application Support/Code/User/globalStorage/bmd.stm32-for-vscode/@xpack-dev-tools/arm-none-eabi-gcc/11.2.1-1.2.2/.content/bin/../lib/gcc/arm-none-eabi/11.2.1/../../../../arm-none-eabi/lib/thumb/v7e-m+fp/hard/libc_nano.a(lib_a-impure.o)
 .rodata._global_impure_ptr
                0x0000000000000000        0x4 /Users/johannes/Library/Application Support/Code/User/globalStorage/bmd.stm32-for-vscode/@xpack-dev-tools/arm-none-eabi-gcc/11.2.1-1.2.2/.content/bin/../lib/gcc/arm-none-eabi/11.2.1/../../../../arm-none-eabi/lib/thumb/v7e-m+fp/hard/libc_nano.a(lib_a-impure.o)
 .text          0x0000000000000000        0x0 /Users/johannes/Library/Application Support/Code/User/globalStorage/bmd.stm32-for-vscode/@xpack-dev-tools/arm-none-eabi-gcc/11.2.1-1.2.2/.content/bin/../lib/gcc/arm-none-eabi/11.2.1/../../../../arm-none-eabi/lib/thumb/v7e-m+fp/hard/libc_nano.a(lib_a-init.o)
 .data          0x0000000000000000        0x0 /Users/johannes/Library/Application Support/Code/User/globalStorage/bmd.stm32-for-vscode/@xpack-dev-tools/arm-none-eabi-gcc/11.2.1-1.2.2/.content/bin/../lib/gcc/arm-none-eabi/11.2.1/../../../../arm-none-eabi/lib/thumb/v7e-m+fp/hard/libc_nano.a(lib_a-init.o)
 .bss           0x0000000000000000        0x0 /Users/johannes/Library/Application Support/Code/User/globalStorage/bmd.stm32-for-vscode/@xpack-dev-tools/arm-none-eabi-gcc/11.2.1-1.2.2/.content/bin/../lib/gcc/arm-none-eabi/11.2.1/../../../../arm-none-eabi/lib/thumb/v7e-m+fp/hard/libc_nano.a(lib_a-init.o)
 .text          0x0000000000000000        0x0 /Users/johannes/Library/Application Support/Code/User/globalStorage/bmd.stm32-for-vscode/@xpack-dev-tools/arm-none-eabi-gcc/11.2.1-1.2.2/.content/bin/../lib/gcc/arm-none-eabi/11.2.1/../../../../arm-none-eabi/lib/thumb/v7e-m+fp/hard/libc_nano.a(lib_a-malloc.o)
 .data          0x0000000000000000        0x0 /Users/johannes/Library/Application Support/Code/User/globalStorage/bmd.stm32-for-vscode/@xpack-dev-tools/arm-none-eabi-gcc/11.2.1-1.2.2/.content/bin/../lib/gcc/arm-none-eabi/11.2.1/../../../../arm-none-eabi/lib/thumb/v7e-m+fp/hard/libc_nano.a(lib_a-malloc.o)
 .bss           0x0000000000000000        0x0 /Users/johannes/Library/Application Support/Code/User/globalStorage/bmd.stm32-for-vscode/@xpack-dev-tools/arm-none-eabi-gcc/11.2.1-1.2.2/.content/bin/../lib/gcc/arm-none-eabi/11.2.1/../../../../arm-none-eabi/lib/thumb/v7e-m+fp/hard/libc_nano.a(lib_a-malloc.o)
 .text          0x0000000000000000        0x0 /Users/johannes/Library/Application Support/Code/User/globalStorage/bmd.stm32-for-vscode/@xpack-dev-tools/arm-none-eabi-gcc/11.2.1-1.2.2/.content/bin/../lib/gcc/arm-none-eabi/11.2.1/../../../../arm-none-eabi/lib/thumb/v7e-m+fp/hard/libc_nano.a(lib_a-memcpy-stub.o)
 .data          0x0000000000000000        0x0 /Users/johannes/Library/Application Support/Code/User/globalStorage/bmd.stm32-for-vscode/@xpack-dev-tools/arm-none-eabi-gcc/11.2.1-1.2.2/.content/bin/../lib/gcc/arm-none-eabi/11.2.1/../../../../arm-none-eabi/lib/thumb/v7e-m+fp/hard/libc_nano.a(lib_a-memcpy-stub.o)
 .bss           0x0000000000000000        0x0 /Users/johannes/Library/Application Support/Code/User/globalStorage/bmd.stm32-for-vscode/@xpack-dev-tools/arm-none-eabi-gcc/11.2.1-1.2.2/.content/bin/../lib/gcc/arm-none-eabi/11.2.1/../../../../arm-none-eabi/lib/thumb/v7e-m+fp/hard/libc_nano.a(lib_a-memcpy-stub.o)
 .text          0x0000000000000000        0x0 /Users/johannes/Library/Application Support/Code/User/globalStorage/bmd.stm32-for-vscode/@xpack-dev-tools/arm-none-eabi-gcc/11.2.1-1.2.2/.content/bin/../lib/gcc/arm-none-eabi/11.2.1/../../../../arm-none-eabi/lib/thumb/v7e-m+fp/hard/libc_nano.a(lib_a-memset.o)
 .data          0x0000000000000000        0x0 /Users/johannes/Library/Application Support/Code/User/globalStorage/bmd.stm32-for-vscode/@xpack-dev-tools/arm-none-eabi-gcc/11.2.1-1.2.2/.content/bin/../lib/gcc/arm-none-eabi/11.2.1/../../../../arm-none-eabi/lib/thumb/v7e-m+fp/hard/libc_nano.a(lib_a-memset.o)
 .bss           0x0000000000000000        0x0 /Users/johannes/Library/Application Support/Code/User/globalStorage/bmd.stm32-for-vscode/@xpack-dev-tools/arm-none-eabi-gcc/11.2.1-1.2.2/.content/bin/../lib/gcc/arm-none-eabi/11.2.1/../../../../arm-none-eabi/lib/thumb/v7e-m+fp/hard/libc_nano.a(lib_a-memset.o)
 .text          0x0000000000000000        0x0 /Users/johannes/Library/Application Support/Code/User/globalStorage/bmd.stm32-for-vscode/@xpack-dev-tools/arm-none-eabi-gcc/11.2.1-1.2.2/.content/bin/../lib/gcc/arm-none-eabi/11.2.1/../../../../arm-none-eabi/lib/thumb/v7e-m+fp/hard/libc_nano.a(lib_a-nano-freer.o)
 .data          0x0000000000000000        0x0 /Users/johannes/Library/Application Support/Code/User/globalStorage/bmd.stm32-for-vscode/@xpack-dev-tools/arm-none-eabi-gcc/11.2.1-1.2.2/.content/bin/../lib/gcc/arm-none-eabi/11.2.1/../../../../arm-none-eabi/lib/thumb/v7e-m+fp/hard/libc_nano.a(lib_a-nano-freer.o)
 .bss           0x0000000000000000        0x0 /Users/johannes/Library/Application Support/Code/User/globalStorage/bmd.stm32-for-vscode/@xpack-dev-tools/arm-none-eabi-gcc/11.2.1-1.2.2/.content/bin/../lib/gcc/arm-none-eabi/11.2.1/../../../../arm-none-eabi/lib/thumb/v7e-m+fp/hard/libc_nano.a(lib_a-nano-freer.o)
 .text          0x0000000000000000        0x0 /Users/johannes/Library/Application Support/Code/User/globalStorage/bmd.stm32-for-vscode/@xpack-dev-tools/arm-none-eabi-gcc/11.2.1-1.2.2/.content/bin/../lib/gcc/arm-none-eabi/11.2.1/../../../../arm-none-eabi/lib/thumb/v7e-m+fp/hard/libc_nano.a(lib_a-nano-mallocr.o)
 .data          0x0000000000000000        0x0 /Users/johannes/Library/Application Support/Code/User/globalStorage/bmd.stm32-for-vscode/@xpack-dev-tools/arm-none-eabi-gcc/11.2.1-1.2.2/.content/bin/../lib/gcc/arm-none-eabi/11.2.1/../../../../arm-none-eabi/lib/thumb/v7e-m+fp/hard/libc_nano.a(lib_a-nano-mallocr.o)
 .bss           0x0000000000000000        0x0 /Users/johannes/Library/Application Support/Code/User/globalStorage/bmd.stm32-for-vscode/@xpack-dev-tools/arm-none-eabi-gcc/11.2.1-1.2.2/.content/bin/../lib/gcc/arm-none-eabi/11.2.1/../../../../arm-none-eabi/lib/thumb/v7e-m+fp/hard/libc_nano.a(lib_a-nano-mallocr.o)
 .text          0x0000000000000000        0x0 /Users/johannes/Library/Application Support/Code/User/globalStorage/bmd.stm32-for-vscode/@xpack-dev-tools/arm-none-eabi-gcc/11.2.1-1.2.2/.content/bin/../lib/gcc/arm-none-eabi/11.2.1/../../../../arm-none-eabi/lib/thumb/v7e-m+fp/hard/libc_nano.a(lib_a-sbrkr.o)
 .data          0x0000000000000000        0x0 /Users/johannes/Library/Application Support/Code/User/globalStorage/bmd.stm32-for-vscode/@xpack-dev-tools/arm-none-eabi-gcc/11.2.1-1.2.2/.content/bin/../lib/gcc/arm-none-eabi/11.2.1/../../../../arm-none-eabi/lib/thumb/v7e-m+fp/hard/libc_nano.a(lib_a-sbrkr.o)
 .bss           0x0000000000000000        0x0 /Users/johannes/Library/Application Support/Code/User/globalStorage/bmd.stm32-for-vscode/@xpack-dev-tools/arm-none-eabi-gcc/11.2.1-1.2.2/.content/bin/../lib/gcc/arm-none-eabi/11.2.1/../../../../arm-none-eabi/lib/thumb/v7e-m+fp/hard/libc_nano.a(lib_a-sbrkr.o)
 .data          0x0000000000000000        0x0 /Users/johannes/Library/Application Support/Code/User/globalStorage/bmd.stm32-for-vscode/@xpack-dev-tools/arm-none-eabi-gcc/11.2.1-1.2.2/.content/bin/../lib/gcc/arm-none-eabi/11.2.1/../../../../arm-none-eabi/lib/thumb/v7e-m+fp/hard/libc_nano.a(lib_a-strlen.o)
 .bss           0x0000000000000000        0x0 /Users/johannes/Library/Application Support/Code/User/globalStorage/bmd.stm32-for-vscode/@xpack-dev-tools/arm-none-eabi-gcc/11.2.1-1.2.2/.content/bin/../lib/gcc/arm-none-eabi/11.2.1/../../../../arm-none-eabi/lib/thumb/v7e-m+fp/hard/libc_nano.a(lib_a-strlen.o)
 .text          0x0000000000000000        0x0 /Users/johannes/Library/Application Support/Code/User/globalStorage/bmd.stm32-for-vscode/@xpack-dev-tools/arm-none-eabi-gcc/11.2.1-1.2.2/.content/bin/../lib/gcc/arm-none-eabi/11.2.1/../../../../arm-none-eabi/lib/thumb/v7e-m+fp/hard/libc_nano.a(lib_a-strtol.o)
 .data          0x0000000000000000        0x0 /Users/johannes/Library/Application Support/Code/User/globalStorage/bmd.stm32-for-vscode/@xpack-dev-tools/arm-none-eabi-gcc/11.2.1-1.2.2/.content/bin/../lib/gcc/arm-none-eabi/11.2.1/../../../../arm-none-eabi/lib/thumb/v7e-m+fp/hard/libc_nano.a(lib_a-strtol.o)
 .bss           0x0000000000000000        0x0 /Users/johannes/Library/Application Support/Code/User/globalStorage/bmd.stm32-for-vscode/@xpack-dev-tools/arm-none-eabi-gcc/11.2.1-1.2.2/.content/bin/../lib/gcc/arm-none-eabi/11.2.1/../../../../arm-none-eabi/lib/thumb/v7e-m+fp/hard/libc_nano.a(lib_a-strtol.o)
 .text._strtol_l.constprop.0
                0x0000000000000000      0x104 /Users/johannes/Library/Application Support/Code/User/globalStorage/bmd.stm32-for-vscode/@xpack-dev-tools/arm-none-eabi-gcc/11.2.1-1.2.2/.content/bin/../lib/gcc/arm-none-eabi/11.2.1/../../../../arm-none-eabi/lib/thumb/v7e-m+fp/hard/libc_nano.a(lib_a-strtol.o)
 .text._strtol_r
                0x0000000000000000        0x4 /Users/johannes/Library/Application Support/Code/User/globalStorage/bmd.stm32-for-vscode/@xpack-dev-tools/arm-none-eabi-gcc/11.2.1-1.2.2/.content/bin/../lib/gcc/arm-none-eabi/11.2.1/../../../../arm-none-eabi/lib/thumb/v7e-m+fp/hard/libc_nano.a(lib_a-strtol.o)
 .text.strtol_l
                0x0000000000000000       0x14 /Users/johannes/Library/Application Support/Code/User/globalStorage/bmd.stm32-for-vscode/@xpack-dev-tools/arm-none-eabi-gcc/11.2.1-1.2.2/.content/bin/../lib/gcc/arm-none-eabi/11.2.1/../../../../arm-none-eabi/lib/thumb/v7e-m+fp/hard/libc_nano.a(lib_a-strtol.o)
 .text.strtol   0x0000000000000000       0x14 /Users/johannes/Library/Application Support/Code/User/globalStorage/bmd.stm32-for-vscode/@xpack-dev-tools/arm-none-eabi-gcc/11.2.1-1.2.2/.content/bin/../lib/gcc/arm-none-eabi/11.2.1/../../../../arm-none-eabi/lib/thumb/v7e-m+fp/hard/libc_nano.a(lib_a-strtol.o)
 .comment       0x0000000000000000       0x3a /Users/johannes/Library/Application Support/Code/User/globalStorage/bmd.stm32-for-vscode/@xpack-dev-tools/arm-none-eabi-gcc/11.2.1-1.2.2/.content/bin/../lib/gcc/arm-none-eabi/11.2.1/../../../../arm-none-eabi/lib/thumb/v7e-m+fp/hard/libc_nano.a(lib_a-strtol.o)
 .ARM.attributes
                0x0000000000000000       0x34 /Users/johannes/Library/Application Support/Code/User/globalStorage/bmd.stm32-for-vscode/@xpack-dev-tools/arm-none-eabi-gcc/11.2.1-1.2.2/.content/bin/../lib/gcc/arm-none-eabi/11.2.1/../../../../arm-none-eabi/lib/thumb/v7e-m+fp/hard/libc_nano.a(lib_a-strtol.o)
 .text          0x0000000000000000        0x0 /Users/johannes/Library/Application Support/Code/User/globalStorage/bmd.stm32-for-vscode/@xpack-dev-tools/arm-none-eabi-gcc/11.2.1-1.2.2/.content/bin/../lib/gcc/arm-none-eabi/11.2.1/../../../../arm-none-eabi/lib/thumb/v7e-m+fp/hard/libc_nano.a(lib_a-__atexit.o)
 .data          0x0000000000000000        0x0 /Users/johannes/Library/Application Support/Code/User/globalStorage/bmd.stm32-for-vscode/@xpack-dev-tools/arm-none-eabi-gcc/11.2.1-1.2.2/.content/bin/../lib/gcc/arm-none-eabi/11.2.1/../../../../arm-none-eabi/lib/thumb/v7e-m+fp/hard/libc_nano.a(lib_a-__atexit.o)
 .bss           0x0000000000000000        0x0 /Users/johannes/Library/Application Support/Code/User/globalStorage/bmd.stm32-for-vscode/@xpack-dev-tools/arm-none-eabi-gcc/11.2.1-1.2.2/.content/bin/../lib/gcc/arm-none-eabi/11.2.1/../../../../arm-none-eabi/lib/thumb/v7e-m+fp/hard/libc_nano.a(lib_a-__atexit.o)
 .text.__register_exitproc
                0x0000000000000000       0x9c /Users/johannes/Library/Application Support/Code/User/globalStorage/bmd.stm32-for-vscode/@xpack-dev-tools/arm-none-eabi-gcc/11.2.1-1.2.2/.content/bin/../lib/gcc/arm-none-eabi/11.2.1/../../../../arm-none-eabi/lib/thumb/v7e-m+fp/hard/libc_nano.a(lib_a-__atexit.o)
 .bss._global_atexit0
                0x0000000000000000       0x8c /Users/johannes/Library/Application Support/Code/User/globalStorage/bmd.stm32-for-vscode/@xpack-dev-tools/arm-none-eabi-gcc/11.2.1-1.2.2/.content/bin/../lib/gcc/arm-none-eabi/11.2.1/../../../../arm-none-eabi/lib/thumb/v7e-m+fp/hard/libc_nano.a(lib_a-__atexit.o)
 .data.__atexit_dummy
                0x0000000000000000        0x4 /Users/johannes/Library/Application Support/Code/User/globalStorage/bmd.stm32-for-vscode/@xpack-dev-tools/arm-none-eabi-gcc/11.2.1-1.2.2/.content/bin/../lib/gcc/arm-none-eabi/11.2.1/../../../../arm-none-eabi/lib/thumb/v7e-m+fp/hard/libc_nano.a(lib_a-__atexit.o)
 .comment       0x0000000000000000       0x3a /Users/johannes/Library/Application Support/Code/User/globalStorage/bmd.stm32-for-vscode/@xpack-dev-tools/arm-none-eabi-gcc/11.2.1-1.2.2/.content/bin/../lib/gcc/arm-none-eabi/11.2.1/../../../../arm-none-eabi/lib/thumb/v7e-m+fp/hard/libc_nano.a(lib_a-__atexit.o)
 .ARM.attributes
                0x0000000000000000       0x34 /Users/johannes/Library/Application Support/Code/User/globalStorage/bmd.stm32-for-vscode/@xpack-dev-tools/arm-none-eabi-gcc/11.2.1-1.2.2/.content/bin/../lib/gcc/arm-none-eabi/11.2.1/../../../../arm-none-eabi/lib/thumb/v7e-m+fp/hard/libc_nano.a(lib_a-__atexit.o)
 .text          0x0000000000000000        0x0 /Users/johannes/Library/Application Support/Code/User/globalStorage/bmd.stm32-for-vscode/@xpack-dev-tools/arm-none-eabi-gcc/11.2.1-1.2.2/.content/bin/../lib/gcc/arm-none-eabi/11.2.1/../../../../arm-none-eabi/lib/thumb/v7e-m+fp/hard/libc_nano.a(lib_a-__call_atexit.o)
 .data          0x0000000000000000        0x0 /Users/johannes/Library/Application Support/Code/User/globalStorage/bmd.stm32-for-vscode/@xpack-dev-tools/arm-none-eabi-gcc/11.2.1-1.2.2/.content/bin/../lib/gcc/arm-none-eabi/11.2.1/../../../../arm-none-eabi/lib/thumb/v7e-m+fp/hard/libc_nano.a(lib_a-__call_atexit.o)
 .bss           0x0000000000000000        0x0 /Users/johannes/Library/Application Support/Code/User/globalStorage/bmd.stm32-for-vscode/@xpack-dev-tools/arm-none-eabi-gcc/11.2.1-1.2.2/.content/bin/../lib/gcc/arm-none-eabi/11.2.1/../../../../arm-none-eabi/lib/thumb/v7e-m+fp/hard/libc_nano.a(lib_a-__call_atexit.o)
 .text.__call_exitprocs
                0x0000000000000000       0xa4 /Users/johannes/Library/Application Support/Code/User/globalStorage/bmd.stm32-for-vscode/@xpack-dev-tools/arm-none-eabi-gcc/11.2.1-1.2.2/.content/bin/../lib/gcc/arm-none-eabi/11.2.1/../../../../arm-none-eabi/lib/thumb/v7e-m+fp/hard/libc_nano.a(lib_a-__call_atexit.o)
 .bss._global_atexit
                0x0000000000000000        0x4 /Users/johannes/Library/Application Support/Code/User/globalStorage/bmd.stm32-for-vscode/@xpack-dev-tools/arm-none-eabi-gcc/11.2.1-1.2.2/.content/bin/../lib/gcc/arm-none-eabi/11.2.1/../../../../arm-none-eabi/lib/thumb/v7e-m+fp/hard/libc_nano.a(lib_a-__call_atexit.o)
 .comment       0x0000000000000000       0x3a /Users/johannes/Library/Application Support/Code/User/globalStorage/bmd.stm32-for-vscode/@xpack-dev-tools/arm-none-eabi-gcc/11.2.1-1.2.2/.content/bin/../lib/gcc/arm-none-eabi/11.2.1/../../../../arm-none-eabi/lib/thumb/v7e-m+fp/hard/libc_nano.a(lib_a-__call_atexit.o)
 .ARM.attributes
                0x0000000000000000       0x34 /Users/johannes/Library/Application Support/Code/User/globalStorage/bmd.stm32-for-vscode/@xpack-dev-tools/arm-none-eabi-gcc/11.2.1-1.2.2/.content/bin/../lib/gcc/arm-none-eabi/11.2.1/../../../../arm-none-eabi/lib/thumb/v7e-m+fp/hard/libc_nano.a(lib_a-__call_atexit.o)
 .text          0x0000000000000000        0x0 /Users/johannes/Library/Application Support/Code/User/globalStorage/bmd.stm32-for-vscode/@xpack-dev-tools/arm-none-eabi-gcc/11.2.1-1.2.2/.content/bin/../lib/gcc/arm-none-eabi/11.2.1/../../../../arm-none-eabi/lib/thumb/v7e-m+fp/hard/libc_nano.a(lib_a-ctype_.o)
 .data          0x0000000000000000        0x0 /Users/johannes/Library/Application Support/Code/User/globalStorage/bmd.stm32-for-vscode/@xpack-dev-tools/arm-none-eabi-gcc/11.2.1-1.2.2/.content/bin/../lib/gcc/arm-none-eabi/11.2.1/../../../../arm-none-eabi/lib/thumb/v7e-m+fp/hard/libc_nano.a(lib_a-ctype_.o)
 .bss           0x0000000000000000        0x0 /Users/johannes/Library/Application Support/Code/User/globalStorage/bmd.stm32-for-vscode/@xpack-dev-tools/arm-none-eabi-gcc/11.2.1-1.2.2/.content/bin/../lib/gcc/arm-none-eabi/11.2.1/../../../../arm-none-eabi/lib/thumb/v7e-m+fp/hard/libc_nano.a(lib_a-ctype_.o)
 .rodata._ctype_
                0x0000000000000000      0x101 /Users/johannes/Library/Application Support/Code/User/globalStorage/bmd.stm32-for-vscode/@xpack-dev-tools/arm-none-eabi-gcc/11.2.1-1.2.2/.content/bin/../lib/gcc/arm-none-eabi/11.2.1/../../../../arm-none-eabi/lib/thumb/v7e-m+fp/hard/libc_nano.a(lib_a-ctype_.o)
 .comment       0x0000000000000000       0x3a /Users/johannes/Library/Application Support/Code/User/globalStorage/bmd.stm32-for-vscode/@xpack-dev-tools/arm-none-eabi-gcc/11.2.1-1.2.2/.content/bin/../lib/gcc/arm-none-eabi/11.2.1/../../../../arm-none-eabi/lib/thumb/v7e-m+fp/hard/libc_nano.a(lib_a-ctype_.o)
 .ARM.attributes
                0x0000000000000000       0x34 /Users/johannes/Library/Application Support/Code/User/globalStorage/bmd.stm32-for-vscode/@xpack-dev-tools/arm-none-eabi-gcc/11.2.1-1.2.2/.content/bin/../lib/gcc/arm-none-eabi/11.2.1/../../../../arm-none-eabi/lib/thumb/v7e-m+fp/hard/libc_nano.a(lib_a-ctype_.o)
 .text          0x0000000000000000        0x0 /Users/johannes/Library/Application Support/Code/User/globalStorage/bmd.stm32-for-vscode/@xpack-dev-tools/arm-none-eabi-gcc/11.2.1-1.2.2/.content/bin/../lib/gcc/arm-none-eabi/11.2.1/../../../../arm-none-eabi/lib/thumb/v7e-m+fp/hard/libc_nano.a(lib_a-errno.o)
 .data          0x0000000000000000        0x0 /Users/johannes/Library/Application Support/Code/User/globalStorage/bmd.stm32-for-vscode/@xpack-dev-tools/arm-none-eabi-gcc/11.2.1-1.2.2/.content/bin/../lib/gcc/arm-none-eabi/11.2.1/../../../../arm-none-eabi/lib/thumb/v7e-m+fp/hard/libc_nano.a(lib_a-errno.o)
 .bss           0x0000000000000000        0x0 /Users/johannes/Library/Application Support/Code/User/globalStorage/bmd.stm32-for-vscode/@xpack-dev-tools/arm-none-eabi-gcc/11.2.1-1.2.2/.content/bin/../lib/gcc/arm-none-eabi/11.2.1/../../../../arm-none-eabi/lib/thumb/v7e-m+fp/hard/libc_nano.a(lib_a-errno.o)
 .text.__errno  0x0000000000000000        0xc /Users/johannes/Library/Application Support/Code/User/globalStorage/bmd.stm32-for-vscode/@xpack-dev-tools/arm-none-eabi-gcc/11.2.1-1.2.2/.content/bin/../lib/gcc/arm-none-eabi/11.2.1/../../../../arm-none-eabi/lib/thumb/v7e-m+fp/hard/libc_nano.a(lib_a-errno.o)
 .comment       0x0000000000000000       0x3a /Users/johannes/Library/Application Support/Code/User/globalStorage/bmd.stm32-for-vscode/@xpack-dev-tools/arm-none-eabi-gcc/11.2.1-1.2.2/.content/bin/../lib/gcc/arm-none-eabi/11.2.1/../../../../arm-none-eabi/lib/thumb/v7e-m+fp/hard/libc_nano.a(lib_a-errno.o)
 .ARM.attributes
                0x0000000000000000       0x34 /Users/johannes/Library/Application Support/Code/User/globalStorage/bmd.stm32-for-vscode/@xpack-dev-tools/arm-none-eabi-gcc/11.2.1-1.2.2/.content/bin/../lib/gcc/arm-none-eabi/11.2.1/../../../../arm-none-eabi/lib/thumb/v7e-m+fp/hard/libc_nano.a(lib_a-errno.o)
 .text          0x0000000000000000        0x0 /Users/johannes/Library/Application Support/Code/User/globalStorage/bmd.stm32-for-vscode/@xpack-dev-tools/arm-none-eabi-gcc/11.2.1-1.2.2/.content/bin/../lib/gcc/arm-none-eabi/11.2.1/../../../../arm-none-eabi/lib/thumb/v7e-m+fp/hard/libc_nano.a(lib_a-mlock.o)
 .data          0x0000000000000000        0x0 /Users/johannes/Library/Application Support/Code/User/globalStorage/bmd.stm32-for-vscode/@xpack-dev-tools/arm-none-eabi-gcc/11.2.1-1.2.2/.content/bin/../lib/gcc/arm-none-eabi/11.2.1/../../../../arm-none-eabi/lib/thumb/v7e-m+fp/hard/libc_nano.a(lib_a-mlock.o)
 .bss           0x0000000000000000        0x0 /Users/johannes/Library/Application Support/Code/User/globalStorage/bmd.stm32-for-vscode/@xpack-dev-tools/arm-none-eabi-gcc/11.2.1-1.2.2/.content/bin/../lib/gcc/arm-none-eabi/11.2.1/../../../../arm-none-eabi/lib/thumb/v7e-m+fp/hard/libc_nano.a(lib_a-mlock.o)
 .text          0x0000000000000000        0x0 /Users/johannes/Library/Application Support/Code/User/globalStorage/bmd.stm32-for-vscode/@xpack-dev-tools/arm-none-eabi-gcc/11.2.1-1.2.2/.content/bin/../lib/gcc/arm-none-eabi/11.2.1/../../../../arm-none-eabi/lib/thumb/v7e-m+fp/hard/libc_nano.a(lib_a-reent.o)
 .data          0x0000000000000000        0x0 /Users/johannes/Library/Application Support/Code/User/globalStorage/bmd.stm32-for-vscode/@xpack-dev-tools/arm-none-eabi-gcc/11.2.1-1.2.2/.content/bin/../lib/gcc/arm-none-eabi/11.2.1/../../../../arm-none-eabi/lib/thumb/v7e-m+fp/hard/libc_nano.a(lib_a-reent.o)
 .bss           0x0000000000000000        0x0 /Users/johannes/Library/Application Support/Code/User/globalStorage/bmd.stm32-for-vscode/@xpack-dev-tools/arm-none-eabi-gcc/11.2.1-1.2.2/.content/bin/../lib/gcc/arm-none-eabi/11.2.1/../../../../arm-none-eabi/lib/thumb/v7e-m+fp/hard/libc_nano.a(lib_a-reent.o)
 .text.cleanup_glue
                0x0000000000000000       0x1a /Users/johannes/Library/Application Support/Code/User/globalStorage/bmd.stm32-for-vscode/@xpack-dev-tools/arm-none-eabi-gcc/11.2.1-1.2.2/.content/bin/../lib/gcc/arm-none-eabi/11.2.1/../../../../arm-none-eabi/lib/thumb/v7e-m+fp/hard/libc_nano.a(lib_a-reent.o)
 .text._reclaim_reent
                0x0000000000000000       0xb8 /Users/johannes/Library/Application Support/Code/User/globalStorage/bmd.stm32-for-vscode/@xpack-dev-tools/arm-none-eabi-gcc/11.2.1-1.2.2/.content/bin/../lib/gcc/arm-none-eabi/11.2.1/../../../../arm-none-eabi/lib/thumb/v7e-m+fp/hard/libc_nano.a(lib_a-reent.o)
 .text          0x0000000000000000        0x0 /Users/johannes/Library/Application Support/Code/User/globalStorage/bmd.stm32-for-vscode/@xpack-dev-tools/arm-none-eabi-gcc/11.2.1-1.2.2/.content/bin/../lib/gcc/arm-none-eabi/11.2.1/../../../../arm-none-eabi/lib/thumb/v7e-m+fp/hard/libm.a(lib_a-sf_lrint.o)
 .data          0x0000000000000000        0x0 /Users/johannes/Library/Application Support/Code/User/globalStorage/bmd.stm32-for-vscode/@xpack-dev-tools/arm-none-eabi-gcc/11.2.1-1.2.2/.content/bin/../lib/gcc/arm-none-eabi/11.2.1/../../../../arm-none-eabi/lib/thumb/v7e-m+fp/hard/libm.a(lib_a-sf_lrint.o)
 .bss           0x0000000000000000        0x0 /Users/johannes/Library/Application Support/Code/User/globalStorage/bmd.stm32-for-vscode/@xpack-dev-tools/arm-none-eabi-gcc/11.2.1-1.2.2/.content/bin/../lib/gcc/arm-none-eabi/11.2.1/../../../../arm-none-eabi/lib/thumb/v7e-m+fp/hard/libm.a(lib_a-sf_lrint.o)
 .text.lrintf   0x0000000000000000       0x9c /Users/johannes/Library/Application Support/Code/User/globalStorage/bmd.stm32-for-vscode/@xpack-dev-tools/arm-none-eabi-gcc/11.2.1-1.2.2/.content/bin/../lib/gcc/arm-none-eabi/11.2.1/../../../../arm-none-eabi/lib/thumb/v7e-m+fp/hard/libm.a(lib_a-sf_lrint.o)
 .ARM.extab.text.lrintf
                0x0000000000000000        0x0 /Users/johannes/Library/Application Support/Code/User/globalStorage/bmd.stm32-for-vscode/@xpack-dev-tools/arm-none-eabi-gcc/11.2.1-1.2.2/.content/bin/../lib/gcc/arm-none-eabi/11.2.1/../../../../arm-none-eabi/lib/thumb/v7e-m+fp/hard/libm.a(lib_a-sf_lrint.o)
 .ARM.exidx.text.lrintf
                0x0000000000000000        0x8 /Users/johannes/Library/Application Support/Code/User/globalStorage/bmd.stm32-for-vscode/@xpack-dev-tools/arm-none-eabi-gcc/11.2.1-1.2.2/.content/bin/../lib/gcc/arm-none-eabi/11.2.1/../../../../arm-none-eabi/lib/thumb/v7e-m+fp/hard/libm.a(lib_a-sf_lrint.o)
 .rodata.TWO23  0x0000000000000000        0x8 /Users/johannes/Library/Application Support/Code/User/globalStorage/bmd.stm32-for-vscode/@xpack-dev-tools/arm-none-eabi-gcc/11.2.1-1.2.2/.content/bin/../lib/gcc/arm-none-eabi/11.2.1/../../../../arm-none-eabi/lib/thumb/v7e-m+fp/hard/libm.a(lib_a-sf_lrint.o)
 .comment       0x0000000000000000       0x3a /Users/johannes/Library/Application Support/Code/User/globalStorage/bmd.stm32-for-vscode/@xpack-dev-tools/arm-none-eabi-gcc/11.2.1-1.2.2/.content/bin/../lib/gcc/arm-none-eabi/11.2.1/../../../../arm-none-eabi/lib/thumb/v7e-m+fp/hard/libm.a(lib_a-sf_lrint.o)
 .ARM.attributes
                0x0000000000000000       0x34 /Users/johannes/Library/Application Support/Code/User/globalStorage/bmd.stm32-for-vscode/@xpack-dev-tools/arm-none-eabi-gcc/11.2.1-1.2.2/.content/bin/../lib/gcc/arm-none-eabi/11.2.1/../../../../arm-none-eabi/lib/thumb/v7e-m+fp/hard/libm.a(lib_a-sf_lrint.o)
 .text          0x0000000000000000        0x0 /Users/johannes/Library/Application Support/Code/User/globalStorage/bmd.stm32-for-vscode/@xpack-dev-tools/arm-none-eabi-gcc/11.2.1-1.2.2/.content/bin/../lib/gcc/arm-none-eabi/11.2.1/../../../../arm-none-eabi/lib/thumb/v7e-m+fp/hard/libnosys.a(sbrk.o)
 .data          0x0000000000000000        0x0 /Users/johannes/Library/Application Support/Code/User/globalStorage/bmd.stm32-for-vscode/@xpack-dev-tools/arm-none-eabi-gcc/11.2.1-1.2.2/.content/bin/../lib/gcc/arm-none-eabi/11.2.1/../../../../arm-none-eabi/lib/thumb/v7e-m+fp/hard/libnosys.a(sbrk.o)
 .bss           0x0000000000000000        0x0 /Users/johannes/Library/Application Support/Code/User/globalStorage/bmd.stm32-for-vscode/@xpack-dev-tools/arm-none-eabi-gcc/11.2.1-1.2.2/.content/bin/../lib/gcc/arm-none-eabi/11.2.1/../../../../arm-none-eabi/lib/thumb/v7e-m+fp/hard/libnosys.a(sbrk.o)
 .ARM.extab.text._sbrk
                0x0000000000000000        0x0 /Users/johannes/Library/Application Support/Code/User/globalStorage/bmd.stm32-for-vscode/@xpack-dev-tools/arm-none-eabi-gcc/11.2.1-1.2.2/.content/bin/../lib/gcc/arm-none-eabi/11.2.1/../../../../arm-none-eabi/lib/thumb/v7e-m+fp/hard/libnosys.a(sbrk.o)
 .text          0x0000000000000000        0x0 /Users/johannes/Library/Application Support/Code/User/globalStorage/bmd.stm32-for-vscode/@xpack-dev-tools/arm-none-eabi-gcc/11.2.1-1.2.2/.content/bin/../lib/gcc/arm-none-eabi/11.2.1/../../../../arm-none-eabi/lib/thumb/v7e-m+fp/hard/libnosys.a(_exit.o)
 .data          0x0000000000000000        0x0 /Users/johannes/Library/Application Support/Code/User/globalStorage/bmd.stm32-for-vscode/@xpack-dev-tools/arm-none-eabi-gcc/11.2.1-1.2.2/.content/bin/../lib/gcc/arm-none-eabi/11.2.1/../../../../arm-none-eabi/lib/thumb/v7e-m+fp/hard/libnosys.a(_exit.o)
 .bss           0x0000000000000000        0x0 /Users/johannes/Library/Application Support/Code/User/globalStorage/bmd.stm32-for-vscode/@xpack-dev-tools/arm-none-eabi-gcc/11.2.1-1.2.2/.content/bin/../lib/gcc/arm-none-eabi/11.2.1/../../../../arm-none-eabi/lib/thumb/v7e-m+fp/hard/libnosys.a(_exit.o)
 .text._exit    0x0000000000000000        0x4 /Users/johannes/Library/Application Support/Code/User/globalStorage/bmd.stm32-for-vscode/@xpack-dev-tools/arm-none-eabi-gcc/11.2.1-1.2.2/.content/bin/../lib/gcc/arm-none-eabi/11.2.1/../../../../arm-none-eabi/lib/thumb/v7e-m+fp/hard/libnosys.a(_exit.o)
 .ARM.extab.text._exit
                0x0000000000000000        0x0 /Users/johannes/Library/Application Support/Code/User/globalStorage/bmd.stm32-for-vscode/@xpack-dev-tools/arm-none-eabi-gcc/11.2.1-1.2.2/.content/bin/../lib/gcc/arm-none-eabi/11.2.1/../../../../arm-none-eabi/lib/thumb/v7e-m+fp/hard/libnosys.a(_exit.o)
 .ARM.exidx.text._exit
                0x0000000000000000        0x8 /Users/johannes/Library/Application Support/Code/User/globalStorage/bmd.stm32-for-vscode/@xpack-dev-tools/arm-none-eabi-gcc/11.2.1-1.2.2/.content/bin/../lib/gcc/arm-none-eabi/11.2.1/../../../../arm-none-eabi/lib/thumb/v7e-m+fp/hard/libnosys.a(_exit.o)
 .comment       0x0000000000000000       0x3a /Users/johannes/Library/Application Support/Code/User/globalStorage/bmd.stm32-for-vscode/@xpack-dev-tools/arm-none-eabi-gcc/11.2.1-1.2.2/.content/bin/../lib/gcc/arm-none-eabi/11.2.1/../../../../arm-none-eabi/lib/thumb/v7e-m+fp/hard/libnosys.a(_exit.o)
 .ARM.attributes
                0x0000000000000000       0x34 /Users/johannes/Library/Application Support/Code/User/globalStorage/bmd.stm32-for-vscode/@xpack-dev-tools/arm-none-eabi-gcc/11.2.1-1.2.2/.content/bin/../lib/gcc/arm-none-eabi/11.2.1/../../../../arm-none-eabi/lib/thumb/v7e-m+fp/hard/libnosys.a(_exit.o)
 .data          0x0000000000000000        0x0 /Users/johannes/Library/Application Support/Code/User/globalStorage/bmd.stm32-for-vscode/@xpack-dev-tools/arm-none-eabi-gcc/11.2.1-1.2.2/.content/bin/../lib/gcc/arm-none-eabi/11.2.1/thumb/v7e-m+fp/hard/libgcc.a(_arm_muldf3.o)
 .bss           0x0000000000000000        0x0 /Users/johannes/Library/Application Support/Code/User/globalStorage/bmd.stm32-for-vscode/@xpack-dev-tools/arm-none-eabi-gcc/11.2.1-1.2.2/.content/bin/../lib/gcc/arm-none-eabi/11.2.1/thumb/v7e-m+fp/hard/libgcc.a(_arm_muldf3.o)
 .data          0x0000000000000000        0x0 /Users/johannes/Library/Application Support/Code/User/globalStorage/bmd.stm32-for-vscode/@xpack-dev-tools/arm-none-eabi-gcc/11.2.1-1.2.2/.content/bin/../lib/gcc/arm-none-eabi/11.2.1/thumb/v7e-m+fp/hard/libgcc.a(_arm_addsubdf3.o)
 .bss           0x0000000000000000        0x0 /Users/johannes/Library/Application Support/Code/User/globalStorage/bmd.stm32-for-vscode/@xpack-dev-tools/arm-none-eabi-gcc/11.2.1-1.2.2/.content/bin/../lib/gcc/arm-none-eabi/11.2.1/thumb/v7e-m+fp/hard/libgcc.a(_arm_addsubdf3.o)
 .data          0x0000000000000000        0x0 /Users/johannes/Library/Application Support/Code/User/globalStorage/bmd.stm32-for-vscode/@xpack-dev-tools/arm-none-eabi-gcc/11.2.1-1.2.2/.content/bin/../lib/gcc/arm-none-eabi/11.2.1/thumb/v7e-m+fp/hard/libgcc.a(_arm_cmpdf2.o)
 .bss           0x0000000000000000        0x0 /Users/johannes/Library/Application Support/Code/User/globalStorage/bmd.stm32-for-vscode/@xpack-dev-tools/arm-none-eabi-gcc/11.2.1-1.2.2/.content/bin/../lib/gcc/arm-none-eabi/11.2.1/thumb/v7e-m+fp/hard/libgcc.a(_arm_cmpdf2.o)
 .data          0x0000000000000000        0x0 /Users/johannes/Library/Application Support/Code/User/globalStorage/bmd.stm32-for-vscode/@xpack-dev-tools/arm-none-eabi-gcc/11.2.1-1.2.2/.content/bin/../lib/gcc/arm-none-eabi/11.2.1/thumb/v7e-m+fp/hard/libgcc.a(_arm_truncdfsf2.o)
 .bss           0x0000000000000000        0x0 /Users/johannes/Library/Application Support/Code/User/globalStorage/bmd.stm32-for-vscode/@xpack-dev-tools/arm-none-eabi-gcc/11.2.1-1.2.2/.content/bin/../lib/gcc/arm-none-eabi/11.2.1/thumb/v7e-m+fp/hard/libgcc.a(_arm_truncdfsf2.o)
 .text          0x0000000000000000       0xa0 /Users/johannes/Library/Application Support/Code/User/globalStorage/bmd.stm32-for-vscode/@xpack-dev-tools/arm-none-eabi-gcc/11.2.1-1.2.2/.content/bin/../lib/gcc/arm-none-eabi/11.2.1/thumb/v7e-m+fp/hard/libgcc.a(_aeabi_ldivmod.o)
 .data          0x0000000000000000        0x0 /Users/johannes/Library/Application Support/Code/User/globalStorage/bmd.stm32-for-vscode/@xpack-dev-tools/arm-none-eabi-gcc/11.2.1-1.2.2/.content/bin/../lib/gcc/arm-none-eabi/11.2.1/thumb/v7e-m+fp/hard/libgcc.a(_aeabi_ldivmod.o)
 .bss           0x0000000000000000        0x0 /Users/johannes/Library/Application Support/Code/User/globalStorage/bmd.stm32-for-vscode/@xpack-dev-tools/arm-none-eabi-gcc/11.2.1-1.2.2/.content/bin/../lib/gcc/arm-none-eabi/11.2.1/thumb/v7e-m+fp/hard/libgcc.a(_aeabi_ldivmod.o)
 .ARM.attributes
                0x0000000000000000       0x1e /Users/johannes/Library/Application Support/Code/User/globalStorage/bmd.stm32-for-vscode/@xpack-dev-tools/arm-none-eabi-gcc/11.2.1-1.2.2/.content/bin/../lib/gcc/arm-none-eabi/11.2.1/thumb/v7e-m+fp/hard/libgcc.a(_aeabi_ldivmod.o)
 .data          0x0000000000000000        0x0 /Users/johannes/Library/Application Support/Code/User/globalStorage/bmd.stm32-for-vscode/@xpack-dev-tools/arm-none-eabi-gcc/11.2.1-1.2.2/.content/bin/../lib/gcc/arm-none-eabi/11.2.1/thumb/v7e-m+fp/hard/libgcc.a(_aeabi_uldivmod.o)
 .bss           0x0000000000000000        0x0 /Users/johannes/Library/Application Support/Code/User/globalStorage/bmd.stm32-for-vscode/@xpack-dev-tools/arm-none-eabi-gcc/11.2.1-1.2.2/.content/bin/../lib/gcc/arm-none-eabi/11.2.1/thumb/v7e-m+fp/hard/libgcc.a(_aeabi_uldivmod.o)
 .text          0x0000000000000000        0x0 /Users/johannes/Library/Application Support/Code/User/globalStorage/bmd.stm32-for-vscode/@xpack-dev-tools/arm-none-eabi-gcc/11.2.1-1.2.2/.content/bin/../lib/gcc/arm-none-eabi/11.2.1/thumb/v7e-m+fp/hard/libgcc.a(_udivmoddi4.o)
 .data          0x0000000000000000        0x0 /Users/johannes/Library/Application Support/Code/User/globalStorage/bmd.stm32-for-vscode/@xpack-dev-tools/arm-none-eabi-gcc/11.2.1-1.2.2/.content/bin/../lib/gcc/arm-none-eabi/11.2.1/thumb/v7e-m+fp/hard/libgcc.a(_udivmoddi4.o)
 .bss           0x0000000000000000        0x0 /Users/johannes/Library/Application Support/Code/User/globalStorage/bmd.stm32-for-vscode/@xpack-dev-tools/arm-none-eabi-gcc/11.2.1-1.2.2/.content/bin/../lib/gcc/arm-none-eabi/11.2.1/thumb/v7e-m+fp/hard/libgcc.a(_udivmoddi4.o)
 .ARM.extab.text.__udivmoddi4
                0x0000000000000000        0x0 /Users/johannes/Library/Application Support/Code/User/globalStorage/bmd.stm32-for-vscode/@xpack-dev-tools/arm-none-eabi-gcc/11.2.1-1.2.2/.content/bin/../lib/gcc/arm-none-eabi/11.2.1/thumb/v7e-m+fp/hard/libgcc.a(_udivmoddi4.o)
 .data          0x0000000000000000        0x0 /Users/johannes/Library/Application Support/Code/User/globalStorage/bmd.stm32-for-vscode/@xpack-dev-tools/arm-none-eabi-gcc/11.2.1-1.2.2/.content/bin/../lib/gcc/arm-none-eabi/11.2.1/thumb/v7e-m+fp/hard/libgcc.a(_dvmd_tls.o)
 .bss           0x0000000000000000        0x0 /Users/johannes/Library/Application Support/Code/User/globalStorage/bmd.stm32-for-vscode/@xpack-dev-tools/arm-none-eabi-gcc/11.2.1-1.2.2/.content/bin/../lib/gcc/arm-none-eabi/11.2.1/thumb/v7e-m+fp/hard/libgcc.a(_dvmd_tls.o)
 .text          0x0000000000000000        0x0 /Users/johannes/Library/Application Support/Code/User/globalStorage/bmd.stm32-for-vscode/@xpack-dev-tools/arm-none-eabi-gcc/11.2.1-1.2.2/.content/bin/../lib/gcc/arm-none-eabi/11.2.1/thumb/v7e-m+fp/hard/crtend.o
 .data          0x0000000000000000        0x0 /Users/johannes/Library/Application Support/Code/User/globalStorage/bmd.stm32-for-vscode/@xpack-dev-tools/arm-none-eabi-gcc/11.2.1-1.2.2/.content/bin/../lib/gcc/arm-none-eabi/11.2.1/thumb/v7e-m+fp/hard/crtend.o
 .bss           0x0000000000000000        0x0 /Users/johannes/Library/Application Support/Code/User/globalStorage/bmd.stm32-for-vscode/@xpack-dev-tools/arm-none-eabi-gcc/11.2.1-1.2.2/.content/bin/../lib/gcc/arm-none-eabi/11.2.1/thumb/v7e-m+fp/hard/crtend.o
 .rodata.all_implied_fbits
                0x0000000000000000       0x24 /Users/johannes/Library/Application Support/Code/User/globalStorage/bmd.stm32-for-vscode/@xpack-dev-tools/arm-none-eabi-gcc/11.2.1-1.2.2/.content/bin/../lib/gcc/arm-none-eabi/11.2.1/thumb/v7e-m+fp/hard/crtend.o
 .eh_frame      0x0000000000000000        0x4 /Users/johannes/Library/Application Support/Code/User/globalStorage/bmd.stm32-for-vscode/@xpack-dev-tools/arm-none-eabi-gcc/11.2.1-1.2.2/.content/bin/../lib/gcc/arm-none-eabi/11.2.1/thumb/v7e-m+fp/hard/crtend.o
 .comment       0x0000000000000000       0x3a /Users/johannes/Library/Application Support/Code/User/globalStorage/bmd.stm32-for-vscode/@xpack-dev-tools/arm-none-eabi-gcc/11.2.1-1.2.2/.content/bin/../lib/gcc/arm-none-eabi/11.2.1/thumb/v7e-m+fp/hard/crtend.o
 .ARM.attributes
                0x0000000000000000       0x34 /Users/johannes/Library/Application Support/Code/User/globalStorage/bmd.stm32-for-vscode/@xpack-dev-tools/arm-none-eabi-gcc/11.2.1-1.2.2/.content/bin/../lib/gcc/arm-none-eabi/11.2.1/thumb/v7e-m+fp/hard/crtend.o
 .text          0x0000000000000000        0x0 /Users/johannes/Library/Application Support/Code/User/globalStorage/bmd.stm32-for-vscode/@xpack-dev-tools/arm-none-eabi-gcc/11.2.1-1.2.2/.content/bin/../lib/gcc/arm-none-eabi/11.2.1/thumb/v7e-m+fp/hard/crtn.o
 .data          0x0000000000000000        0x0 /Users/johannes/Library/Application Support/Code/User/globalStorage/bmd.stm32-for-vscode/@xpack-dev-tools/arm-none-eabi-gcc/11.2.1-1.2.2/.content/bin/../lib/gcc/arm-none-eabi/11.2.1/thumb/v7e-m+fp/hard/crtn.o
 .bss           0x0000000000000000        0x0 /Users/johannes/Library/Application Support/Code/User/globalStorage/bmd.stm32-for-vscode/@xpack-dev-tools/arm-none-eabi-gcc/11.2.1-1.2.2/.content/bin/../lib/gcc/arm-none-eabi/11.2.1/thumb/v7e-m+fp/hard/crtn.o

Memory Configuration

Name             Origin             Length             Attributes
RAM              0x0000000020000000 0x0000000000020000 xrw
CCMRAM           0x0000000010000000 0x0000000000010000 xrw
FLASH            0x0000000008000000 0x0000000000100000 xr
*default*        0x0000000000000000 0xffffffffffffffff

Linker script and memory map

LOAD /Users/johannes/Library/Application Support/Code/User/globalStorage/bmd.stm32-for-vscode/@xpack-dev-tools/arm-none-eabi-gcc/11.2.1-1.2.2/.content/bin/../lib/gcc/arm-none-eabi/11.2.1/thumb/v7e-m+fp/hard/crti.o
LOAD /Users/johannes/Library/Application Support/Code/User/globalStorage/bmd.stm32-for-vscode/@xpack-dev-tools/arm-none-eabi-gcc/11.2.1-1.2.2/.content/bin/../lib/gcc/arm-none-eabi/11.2.1/thumb/v7e-m+fp/hard/crtbegin.o
LOAD /Users/johannes/Library/Application Support/Code/User/globalStorage/bmd.stm32-for-vscode/@xpack-dev-tools/arm-none-eabi-gcc/11.2.1-1.2.2/.content/bin/../lib/gcc/arm-none-eabi/11.2.1/../../../../arm-none-eabi/lib/thumb/v7e-m+fp/hard/crt0.o
LOAD build/ADSR_envelope.o
LOAD build/MIDI_application.o
LOAD build/MIDI_event.o
LOAD build/SEGGER_RTT.o
LOAD build/SEGGER_RTT_printf.o
LOAD build/audio.o
LOAD build/bitcrusher.o
LOAD build/console.o
LOAD build/consoleCommands.o
LOAD build/consoleIo.o
LOAD build/filters.o
LOAD build/gpio.o
LOAD build/helper_functions.o
LOAD build/i2c.o
LOAD build/i2s.o
LOAD build/ladder_filter.o
LOAD build/lut_tan.o
LOAD build/main.o
LOAD build/oscillators.o
LOAD build/spi.o
LOAD build/stereo_delay.o
LOAD build/stm32f4xx_hal_msp.o
LOAD build/stm32f4xx_it.o
LOAD build/system_stm32f4xx.o
LOAD build/usbh_MIDI.o
LOAD build/usbh_conf.o
LOAD build/cs43l22.o
LOAD build/lis302dl.o
LOAD build/lis3dsh.o
LOAD build/stm32f4_discovery.o
LOAD build/stm32f4_discovery_accelerometer.o
LOAD build/stm32f4_discovery_audio.o
LOAD build/stm32f4xx_hal.o
LOAD build/stm32f4xx_hal_cortex.o
LOAD build/stm32f4xx_hal_dma.o
LOAD build/stm32f4xx_hal_dma_ex.o
LOAD build/stm32f4xx_hal_exti.o
LOAD build/stm32f4xx_hal_flash.o
LOAD build/stm32f4xx_hal_flash_ex.o
LOAD build/stm32f4xx_hal_flash_ramfunc.o
LOAD build/stm32f4xx_hal_gpio.o
LOAD build/stm32f4xx_hal_hcd.o
LOAD build/stm32f4xx_hal_i2c.o
LOAD build/stm32f4xx_hal_i2c_ex.o
LOAD build/stm32f4xx_hal_i2s.o
LOAD build/stm32f4xx_hal_i2s_ex.o
LOAD build/stm32f4xx_hal_pwr.o
LOAD build/stm32f4xx_hal_pwr_ex.o
LOAD build/stm32f4xx_hal_rcc.o
LOAD build/stm32f4xx_hal_rcc_ex.o
LOAD build/stm32f4xx_hal_spi.o
LOAD build/stm32f4xx_hal_tim.o
LOAD build/stm32f4xx_hal_tim_ex.o
LOAD build/stm32f4xx_ll_usb.o
LOAD build/usbh_cdc.o
LOAD build/usbh_core.o
LOAD build/usbh_ctlreq.o
LOAD build/usbh_ioreq.o
LOAD build/usbh_pipes.o
LOAD build/startup_stm32f407xx.o
LOAD /Users/johannes/Library/Application Support/Code/User/globalStorage/bmd.stm32-for-vscode/@xpack-dev-tools/arm-none-eabi-gcc/11.2.1-1.2.2/.content/bin/../lib/gcc/arm-none-eabi/11.2.1/../../../../arm-none-eabi/lib/thumb/v7e-m+fp/hard/libc_nano.a
LOAD /Users/johannes/Library/Application Support/Code/User/globalStorage/bmd.stm32-for-vscode/@xpack-dev-tools/arm-none-eabi-gcc/11.2.1-1.2.2/.content/bin/../lib/gcc/arm-none-eabi/11.2.1/../../../../arm-none-eabi/lib/thumb/v7e-m+fp/hard/libm.a
LOAD /Users/johannes/Library/Application Support/Code/User/globalStorage/bmd.stm32-for-vscode/@xpack-dev-tools/arm-none-eabi-gcc/11.2.1-1.2.2/.content/bin/../lib/gcc/arm-none-eabi/11.2.1/../../../../arm-none-eabi/lib/thumb/v7e-m+fp/hard/libnosys.a
START GROUP
LOAD /Users/johannes/Library/Application Support/Code/User/globalStorage/bmd.stm32-for-vscode/@xpack-dev-tools/arm-none-eabi-gcc/11.2.1-1.2.2/.content/bin/../lib/gcc/arm-none-eabi/11.2.1/thumb/v7e-m+fp/hard/libgcc.a
LOAD /Users/johannes/Library/Application Support/Code/User/globalStorage/bmd.stm32-for-vscode/@xpack-dev-tools/arm-none-eabi-gcc/11.2.1-1.2.2/.content/bin/../lib/gcc/arm-none-eabi/11.2.1/../../../../arm-none-eabi/lib/thumb/v7e-m+fp/hard/libc_nano.a
END GROUP
START GROUP
LOAD /Users/johannes/Library/Application Support/Code/User/globalStorage/bmd.stm32-for-vscode/@xpack-dev-tools/arm-none-eabi-gcc/11.2.1-1.2.2/.content/bin/../lib/gcc/arm-none-eabi/11.2.1/thumb/v7e-m+fp/hard/libgcc.a
LOAD /Users/johannes/Library/Application Support/Code/User/globalStorage/bmd.stm32-for-vscode/@xpack-dev-tools/arm-none-eabi-gcc/11.2.1-1.2.2/.content/bin/../lib/gcc/arm-none-eabi/11.2.1/../../../../arm-none-eabi/lib/thumb/v7e-m+fp/hard/libc_nano.a
END GROUP
LOAD /Users/johannes/Library/Application Support/Code/User/globalStorage/bmd.stm32-for-vscode/@xpack-dev-tools/arm-none-eabi-gcc/11.2.1-1.2.2/.content/bin/../lib/gcc/arm-none-eabi/11.2.1/thumb/v7e-m+fp/hard/crtend.o
LOAD /Users/johannes/Library/Application Support/Code/User/globalStorage/bmd.stm32-for-vscode/@xpack-dev-tools/arm-none-eabi-gcc/11.2.1-1.2.2/.content/bin/../lib/gcc/arm-none-eabi/11.2.1/thumb/v7e-m+fp/hard/crtn.o
                0x0000000020020000                _estack = (ORIGIN (RAM) + LENGTH (RAM))
                0x0000000000000200                _Min_Heap_Size = 0x200
                0x0000000000000400                _Min_Stack_Size = 0x400

.isr_vector     0x0000000008000000      0x188
                0x0000000008000000                . = ALIGN (0x4)
 *(.isr_vector)
 .isr_vector    0x0000000008000000      0x188 build/startup_stm32f407xx.o
                0x0000000008000000                g_pfnVectors
                0x0000000008000188                . = ALIGN (0x4)

.text           0x0000000008000188     0x80a8
                0x0000000008000188                . = ALIGN (0x4)
 *(.text)
 .text          0x0000000008000188       0x10 /Users/johannes/Library/Application Support/Code/User/globalStorage/bmd.stm32-for-vscode/@xpack-dev-tools/arm-none-eabi-gcc/11.2.1-1.2.2/.content/bin/../lib/gcc/arm-none-eabi/11.2.1/../../../../arm-none-eabi/lib/thumb/v7e-m+fp/hard/libc_nano.a(lib_a-strlen.o)
                0x0000000008000188                strlen
 .text          0x0000000008000198      0x254 /Users/johannes/Library/Application Support/Code/User/globalStorage/bmd.stm32-for-vscode/@xpack-dev-tools/arm-none-eabi-gcc/11.2.1-1.2.2/.content/bin/../lib/gcc/arm-none-eabi/11.2.1/thumb/v7e-m+fp/hard/libgcc.a(_arm_muldf3.o)
                0x0000000008000198                __aeabi_dmul
                0x0000000008000198                __muldf3
 .text          0x00000000080003ec      0x378 /Users/johannes/Library/Application Support/Code/User/globalStorage/bmd.stm32-for-vscode/@xpack-dev-tools/arm-none-eabi-gcc/11.2.1-1.2.2/.content/bin/../lib/gcc/arm-none-eabi/11.2.1/thumb/v7e-m+fp/hard/libgcc.a(_arm_addsubdf3.o)
                0x00000000080003ec                __aeabi_drsub
                0x00000000080003f4                __subdf3
                0x00000000080003f4                __aeabi_dsub
                0x00000000080003f8                __aeabi_dadd
                0x00000000080003f8                __adddf3
                0x0000000008000670                __aeabi_ui2d
                0x0000000008000670                __floatunsidf
                0x0000000008000690                __floatsidf
                0x0000000008000690                __aeabi_i2d
                0x00000000080006b4                __extendsfdf2
                0x00000000080006b4                __aeabi_f2d
                0x00000000080006f8                __aeabi_ul2d
                0x00000000080006f8                __floatundidf
                0x0000000008000708                __aeabi_l2d
                0x0000000008000708                __floatdidf
 .text          0x0000000008000764      0x110 /Users/johannes/Library/Application Support/Code/User/globalStorage/bmd.stm32-for-vscode/@xpack-dev-tools/arm-none-eabi-gcc/11.2.1-1.2.2/.content/bin/../lib/gcc/arm-none-eabi/11.2.1/thumb/v7e-m+fp/hard/libgcc.a(_arm_cmpdf2.o)
                0x0000000008000764                __gedf2
                0x0000000008000764                __gtdf2
                0x000000000800076c                __ledf2
                0x000000000800076c                __ltdf2
                0x0000000008000774                __cmpdf2
                0x0000000008000774                __eqdf2
                0x0000000008000774                __nedf2
                0x00000000080007f0                __aeabi_cdrcmple
                0x0000000008000800                __aeabi_cdcmple
                0x0000000008000800                __aeabi_cdcmpeq
                0x0000000008000810                __aeabi_dcmpeq
                0x0000000008000824                __aeabi_dcmplt
                0x0000000008000838                __aeabi_dcmple
                0x000000000800084c                __aeabi_dcmpge
                0x0000000008000860                __aeabi_dcmpgt
 .text          0x0000000008000874       0xa0 /Users/johannes/Library/Application Support/Code/User/globalStorage/bmd.stm32-for-vscode/@xpack-dev-tools/arm-none-eabi-gcc/11.2.1-1.2.2/.content/bin/../lib/gcc/arm-none-eabi/11.2.1/thumb/v7e-m+fp/hard/libgcc.a(_arm_truncdfsf2.o)
                0x0000000008000874                __aeabi_d2f
                0x0000000008000874                __truncdfsf2
 .text          0x0000000008000914       0x30 /Users/johannes/Library/Application Support/Code/User/globalStorage/bmd.stm32-for-vscode/@xpack-dev-tools/arm-none-eabi-gcc/11.2.1-1.2.2/.content/bin/../lib/gcc/arm-none-eabi/11.2.1/thumb/v7e-m+fp/hard/libgcc.a(_aeabi_uldivmod.o)
                0x0000000008000914                __aeabi_uldivmod
 .text          0x0000000008000944        0x4 /Users/johannes/Library/Application Support/Code/User/globalStorage/bmd.stm32-for-vscode/@xpack-dev-tools/arm-none-eabi-gcc/11.2.1-1.2.2/.content/bin/../lib/gcc/arm-none-eabi/11.2.1/thumb/v7e-m+fp/hard/libgcc.a(_dvmd_tls.o)
                0x0000000008000944                __aeabi_ldiv0
                0x0000000008000944                __aeabi_idiv0
 *(.text*)
 .text.__do_global_dtors_aux
                0x0000000008000948       0x24 /Users/johannes/Library/Application Support/Code/User/globalStorage/bmd.stm32-for-vscode/@xpack-dev-tools/arm-none-eabi-gcc/11.2.1-1.2.2/.content/bin/../lib/gcc/arm-none-eabi/11.2.1/thumb/v7e-m+fp/hard/crtbegin.o
 .text.frame_dummy
                0x000000000800096c       0x1c /Users/johannes/Library/Application Support/Code/User/globalStorage/bmd.stm32-for-vscode/@xpack-dev-tools/arm-none-eabi-gcc/11.2.1-1.2.2/.content/bin/../lib/gcc/arm-none-eabi/11.2.1/thumb/v7e-m+fp/hard/crtbegin.o
 .text.ADSR_init
                0x0000000008000988      0x10c build/ADSR_envelope.o
                0x0000000008000988                ADSR_init
 .text.ADSR_keyOn
                0x0000000008000a94       0x14 build/ADSR_envelope.o
                0x0000000008000a94                ADSR_keyOn
 .text.ADSR_keyOff
                0x0000000008000aa8        0xc build/ADSR_envelope.o
                0x0000000008000aa8                ADSR_keyOff
 *fill*         0x0000000008000ab4        0x4 
 .text.ADSR_compute
                0x0000000008000ab8       0xdc build/ADSR_envelope.o
                0x0000000008000ab8                ADSR_compute
 .text.MIDI_Application
                0x0000000008000b94       0x3c build/MIDI_application.o
                0x0000000008000b94                MIDI_Application
 .text.USBH_MIDI_ReceiveCallback
                0x0000000008000bd0       0x7c build/MIDI_application.o
                0x0000000008000bd0                USBH_MIDI_ReceiveCallback
 .text.MIDI_eventInit
                0x0000000008000c4c       0x10 build/MIDI_event.o
                0x0000000008000c4c                MIDI_eventInit
 .text.ProcessMIDI
                0x0000000008000c5c      0x11c build/MIDI_event.o
                0x0000000008000c5c                ProcessMIDI
 .text.USBH_UserProcess_callback
                0x0000000008000d78       0x78 build/MIDI_event.o
                0x0000000008000d78                USBH_UserProcess_callback
 .text.SEGGER_RTT_WriteString
                0x0000000008000df0      0x280 build/SEGGER_RTT.o
                0x0000000008000df0                SEGGER_RTT_WriteString
 .text.SEGGER_RTT_ConfigUpBuffer
                0x0000000008001070       0xec build/SEGGER_RTT.o
                0x0000000008001070                SEGGER_RTT_ConfigUpBuffer
 .text.audioBlock.constprop.0
                0x000000000800115c      0x1f0 build/audio.o
 .text.AUDIO_Init
                0x000000000800134c       0xc0 build/audio.o
                0x000000000800134c                AUDIO_Init
 .text.BSP_AUDIO_OUT_HalfTransfer_CallBack
                0x000000000800140c        0xc build/audio.o
                0x000000000800140c                BSP_AUDIO_OUT_HalfTransfer_CallBack
 .text.BSP_AUDIO_OUT_TransferComplete_CallBack
                0x0000000008001418        0xc build/audio.o
                0x0000000008001418                BSP_AUDIO_OUT_TransferComplete_CallBack
 .text.BSP_AUDIO_OUT_Error_CallBack
                0x0000000008001424        0x4 build/audio.o
                0x0000000008001424                BSP_AUDIO_OUT_Error_CallBack
 .text.DMA1_Stream7_IRQHandler
                0x0000000008001428        0xc build/audio.o
                0x0000000008001428                DMA1_Stream7_IRQHandler
 .text.DMA1_Stream3_IRQHandler
                0x0000000008001434        0xc build/audio.o
                0x0000000008001434                DMA1_Stream3_IRQHandler
 .text.SVF_LP_init
                0x0000000008001440       0x24 build/filters.o
                0x0000000008001440                SVF_LP_init
 .text.SVF_LP_compute
                0x0000000008001464       0x58 build/filters.o
                0x0000000008001464                SVF_LP_compute
 .text.MX_GPIO_Init
                0x00000000080014bc      0x194 build/gpio.o
                0x00000000080014bc                MX_GPIO_Init
 .text.interp_lin_lut
                0x0000000008001650       0x50 build/helper_functions.o
                0x0000000008001650                interp_lin_lut
 .text.MX_I2C1_Init
                0x00000000080016a0       0x3c build/i2c.o
                0x00000000080016a0                MX_I2C1_Init
 .text.HAL_I2C_MspInit
                0x00000000080016dc       0x70 build/i2c.o
                0x00000000080016dc                HAL_I2C_MspInit
 .text.HAL_I2C_MspDeInit
                0x000000000800174c       0x38 build/i2c.o
                0x000000000800174c                HAL_I2C_MspDeInit
 .text.MX_I2S3_Init
                0x0000000008001784       0x3c build/i2s.o
                0x0000000008001784                MX_I2S3_Init
 .text.HAL_I2S_MspInit
                0x00000000080017c0       0xbc build/i2s.o
                0x00000000080017c0                HAL_I2S_MspInit
 .text.MoogLP_init
                0x000000000800187c       0x18 build/ladder_filter.o
                0x000000000800187c                MoogLP_init
 *fill*         0x0000000008001894        0x4 
 .text.MoogLP_compute
                0x0000000008001898      0x1a8 build/ladder_filter.o
                0x0000000008001898                MoogLP_compute
 .text.SystemClock_Config
                0x0000000008001a40       0xa8 build/main.o
                0x0000000008001a40                SystemClock_Config
 .text.startup.main
                0x0000000008001ae8       0x70 build/main.o
                0x0000000008001ae8                main
 .text.Error_Handler
                0x0000000008001b58        0x4 build/main.o
                0x0000000008001b58                Error_Handler
 .text.osc_init
                0x0000000008001b5c       0x28 build/oscillators.o
                0x0000000008001b5c                osc_init
 .text.osc_polyblepSaw
                0x0000000008001b84       0xb8 build/oscillators.o
                0x0000000008001b84                osc_polyblepSaw
 .text.osc_polyblepRect
                0x0000000008001c3c      0x14c build/oscillators.o
                0x0000000008001c3c                osc_polyblepRect
 .text.MX_SPI1_Init
                0x0000000008001d88       0x44 build/spi.o
                0x0000000008001d88                MX_SPI1_Init
 *fill*         0x0000000008001dcc        0x4 
 .text.HAL_SPI_MspInit
                0x0000000008001dd0       0x78 build/spi.o
                0x0000000008001dd0                HAL_SPI_MspInit
 .text.Delay_init
                0x0000000008001e48       0x40 build/stereo_delay.o
                0x0000000008001e48                Delay_init
 .text.pingpongDelay_compute
                0x0000000008001e88      0x15c build/stereo_delay.o
                0x0000000008001e88                pingpongDelay_compute
 .text.HAL_MspInit
                0x0000000008001fe4       0x3c build/stm32f4xx_hal_msp.o
                0x0000000008001fe4                HAL_MspInit
 .text.NMI_Handler
                0x0000000008002020        0x4 build/stm32f4xx_it.o
                0x0000000008002020                NMI_Handler
 .text.HardFault_Handler
                0x0000000008002024        0x4 build/stm32f4xx_it.o
                0x0000000008002024                HardFault_Handler
 .text.MemManage_Handler
                0x0000000008002028        0x4 build/stm32f4xx_it.o
                0x0000000008002028                MemManage_Handler
 .text.BusFault_Handler
                0x000000000800202c        0x4 build/stm32f4xx_it.o
                0x000000000800202c                BusFault_Handler
 .text.UsageFault_Handler
                0x0000000008002030        0x4 build/stm32f4xx_it.o
                0x0000000008002030                UsageFault_Handler
 .text.SVC_Handler
                0x0000000008002034        0x4 build/stm32f4xx_it.o
                0x0000000008002034                SVC_Handler
 .text.DebugMon_Handler
                0x0000000008002038        0x4 build/stm32f4xx_it.o
                0x0000000008002038                DebugMon_Handler
 .text.PendSV_Handler
                0x000000000800203c        0x4 build/stm32f4xx_it.o
                0x000000000800203c                PendSV_Handler
 .text.SysTick_Handler
                0x0000000008002040        0x4 build/stm32f4xx_it.o
                0x0000000008002040                SysTick_Handler
 .text.OTG_FS_IRQHandler
                0x0000000008002044        0xc build/stm32f4xx_it.o
                0x0000000008002044                OTG_FS_IRQHandler
 .text.SystemInit
                0x0000000008002050       0x14 build/system_stm32f4xx.o
                0x0000000008002050                SystemInit
 .text.USBH_MIDI_ClassRequest
                0x0000000008002064       0x10 build/usbh_MIDI.o
 .text.USBH_MIDI_SOFProcess
                0x0000000008002074        0x4 build/usbh_MIDI.o
 .text.USBH_MIDI_InterfaceDeInit
                0x0000000008002078       0x58 build/usbh_MIDI.o
 .text.USBH_MIDI_InterfaceInit
                0x00000000080020d0       0xe4 build/usbh_MIDI.o
 .text.USBH_MIDI_Stop
                0x00000000080021b4       0x2c build/usbh_MIDI.o
                0x00000000080021b4                USBH_MIDI_Stop
 .text.USBH_MIDI_GetLastReceivedDataSize
                0x00000000080021e0       0x1c build/usbh_MIDI.o
                0x00000000080021e0                USBH_MIDI_GetLastReceivedDataSize
 .text.USBH_MIDI_Receive
                0x00000000080021fc       0x24 build/usbh_MIDI.o
                0x00000000080021fc                USBH_MIDI_Receive
 .text.USBH_MIDI_TransmitCallback
                0x0000000008002220        0x4 build/usbh_MIDI.o
                0x0000000008002220                USBH_MIDI_TransmitCallback
 .text.USBH_MIDI_Process
                0x0000000008002224       0xfc build/usbh_MIDI.o
 .text.HAL_HCD_MspInit
                0x0000000008002320       0xc8 build/usbh_conf.o
                0x0000000008002320                HAL_HCD_MspInit
 .text.HAL_HCD_SOF_Callback
                0x00000000080023e8        0x8 build/usbh_conf.o
                0x00000000080023e8                HAL_HCD_SOF_Callback
 .text.HAL_HCD_Connect_Callback
                0x00000000080023f0        0x8 build/usbh_conf.o
                0x00000000080023f0                HAL_HCD_Connect_Callback
 .text.HAL_HCD_Disconnect_Callback
                0x00000000080023f8        0x8 build/usbh_conf.o
                0x00000000080023f8                HAL_HCD_Disconnect_Callback
 .text.HAL_HCD_PortEnabled_Callback
                0x0000000008002400        0x8 build/usbh_conf.o
                0x0000000008002400                HAL_HCD_PortEnabled_Callback
 .text.HAL_HCD_PortDisabled_Callback
                0x0000000008002408        0x8 build/usbh_conf.o
                0x0000000008002408                HAL_HCD_PortDisabled_Callback
 .text.HAL_HCD_HC_NotifyURBChange_Callback
                0x0000000008002410        0x4 build/usbh_conf.o
                0x0000000008002410                HAL_HCD_HC_NotifyURBChange_Callback
 .text.USBH_LL_Init
                0x0000000008002414       0x54 build/usbh_conf.o
                0x0000000008002414                USBH_LL_Init
 .text.USBH_LL_Start
                0x0000000008002468       0x10 build/usbh_conf.o
                0x0000000008002468                USBH_LL_Start
 .text.USBH_LL_Stop
                0x0000000008002478       0x10 build/usbh_conf.o
                0x0000000008002478                USBH_LL_Stop
 .text.USBH_LL_GetSpeed
                0x0000000008002488       0x14 build/usbh_conf.o
                0x0000000008002488                USBH_LL_GetSpeed
 .text.USBH_LL_ResetPort
                0x000000000800249c       0x10 build/usbh_conf.o
                0x000000000800249c                USBH_LL_ResetPort
 .text.USBH_LL_GetLastXferSize
                0x00000000080024ac        0x8 build/usbh_conf.o
                0x00000000080024ac                USBH_LL_GetLastXferSize
 .text.USBH_LL_OpenPipe
                0x00000000080024b4       0x24 build/usbh_conf.o
                0x00000000080024b4                USBH_LL_OpenPipe
 .text.USBH_LL_ClosePipe
                0x00000000080024d8       0x10 build/usbh_conf.o
                0x00000000080024d8                USBH_LL_ClosePipe
 .text.USBH_LL_SubmitURB
                0x00000000080024e8       0x28 build/usbh_conf.o
                0x00000000080024e8                USBH_LL_SubmitURB
 .text.USBH_LL_GetURBState
                0x0000000008002510        0x8 build/usbh_conf.o
                0x0000000008002510                USBH_LL_GetURBState
 .text.USBH_LL_DriverVBUS
                0x0000000008002518       0x30 build/usbh_conf.o
                0x0000000008002518                USBH_LL_DriverVBUS
 .text.USBH_LL_SetToggle
                0x0000000008002548       0x24 build/usbh_conf.o
                0x0000000008002548                USBH_LL_SetToggle
 .text.USBH_Delay
                0x000000000800256c        0x4 build/usbh_conf.o
                0x000000000800256c                USBH_Delay
 .text.cs43l22_SetFrequency
                0x0000000008002570        0x4 build/cs43l22.o
                0x0000000008002570                cs43l22_SetFrequency
 .text.cs43l22_Reset
                0x0000000008002574        0x4 build/cs43l22.o
                0x0000000008002574                cs43l22_Reset
 .text.cs43l22_SetVolume
                0x0000000008002578       0x58 build/cs43l22.o
                0x0000000008002578                cs43l22_SetVolume
 .text.cs43l22_DeInit
                0x00000000080025d0        0x4 build/cs43l22.o
                0x00000000080025d0                cs43l22_DeInit
 .text.cs43l22_ReadID
                0x00000000080025d4       0x18 build/cs43l22.o
                0x00000000080025d4                cs43l22_ReadID
 .text.cs43l22_SetMute
                0x00000000080025ec       0x5c build/cs43l22.o
                0x00000000080025ec                cs43l22_SetMute
 .text.cs43l22_SetOutputMode
                0x0000000008002648       0x64 build/cs43l22.o
                0x0000000008002648                cs43l22_SetOutputMode
 .text.cs43l22_Pause
                0x00000000080026ac       0x38 build/cs43l22.o
                0x00000000080026ac                cs43l22_Pause
 .text.cs43l22_Stop
                0x00000000080026e4       0x4c build/cs43l22.o
                0x00000000080026e4                cs43l22_Stop
 .text.cs43l22_Resume
                0x0000000008002730       0x60 build/cs43l22.o
                0x0000000008002730                cs43l22_Resume
 .text.cs43l22_Play
                0x0000000008002790       0x5c build/cs43l22.o
                0x0000000008002790                cs43l22_Play
 .text.cs43l22_Init
                0x00000000080027ec      0x10c build/cs43l22.o
                0x00000000080027ec                cs43l22_Init
 .text.I2Cx_Init.part.0
                0x00000000080028f8       0xb4 build/stm32f4_discovery.o
 .text.AUDIO_IO_Init
                0x00000000080029ac       0x74 build/stm32f4_discovery.o
                0x00000000080029ac                AUDIO_IO_Init
 .text.AUDIO_IO_DeInit
                0x0000000008002a20        0x4 build/stm32f4_discovery.o
                0x0000000008002a20                AUDIO_IO_DeInit
 .text.AUDIO_IO_Write
                0x0000000008002a24       0x4c build/stm32f4_discovery.o
                0x0000000008002a24                AUDIO_IO_Write
 .text.AUDIO_IO_Read
                0x0000000008002a70       0x58 build/stm32f4_discovery.o
                0x0000000008002a70                AUDIO_IO_Read
 .text.BSP_AUDIO_OUT_Play
                0x0000000008002ac8       0x44 build/stm32f4_discovery_audio.o
                0x0000000008002ac8                BSP_AUDIO_OUT_Play
 *fill*         0x0000000008002b0c        0x4 
 .text.BSP_AUDIO_OUT_ClockConfig
                0x0000000008002b10       0xb4 build/stm32f4_discovery_audio.o
                0x0000000008002b10                BSP_AUDIO_OUT_ClockConfig
 .text.BSP_AUDIO_OUT_MspInit
                0x0000000008002bc4      0x124 build/stm32f4_discovery_audio.o
                0x0000000008002bc4                BSP_AUDIO_OUT_MspInit
 .text.BSP_AUDIO_OUT_Init
                0x0000000008002ce8       0x9c build/stm32f4_discovery_audio.o
                0x0000000008002ce8                BSP_AUDIO_OUT_Init
 .text.HAL_I2S_TxCpltCallback
                0x0000000008002d84       0x18 build/stm32f4_discovery_audio.o
                0x0000000008002d84                HAL_I2S_TxCpltCallback
 .text.HAL_I2S_TxHalfCpltCallback
                0x0000000008002d9c       0x18 build/stm32f4_discovery_audio.o
                0x0000000008002d9c                HAL_I2S_TxHalfCpltCallback
 .text.BSP_AUDIO_IN_TransferComplete_CallBack
                0x0000000008002db4        0x4 build/stm32f4_discovery_audio.o
                0x0000000008002db4                BSP_AUDIO_IN_TransferComplete_CallBack
 .text.HAL_I2S_RxCpltCallback
                0x0000000008002db8        0x8 build/stm32f4_discovery_audio.o
                0x0000000008002db8                HAL_I2S_RxCpltCallback
 .text.BSP_AUDIO_IN_Error_Callback
                0x0000000008002dc0        0x4 build/stm32f4_discovery_audio.o
                0x0000000008002dc0                BSP_AUDIO_IN_Error_Callback
 .text.HAL_I2S_ErrorCallback
                0x0000000008002dc4       0x2c build/stm32f4_discovery_audio.o
                0x0000000008002dc4                HAL_I2S_ErrorCallback
 .text.HAL_InitTick
                0x0000000008002df0       0x48 build/stm32f4xx_hal.o
                0x0000000008002df0                HAL_InitTick
 .text.HAL_Init
                0x0000000008002e38       0x34 build/stm32f4xx_hal.o
                0x0000000008002e38                HAL_Init
 .text.HAL_IncTick
                0x0000000008002e6c       0x18 build/stm32f4xx_hal.o
                0x0000000008002e6c                HAL_IncTick
 .text.HAL_GetTick
                0x0000000008002e84        0xc build/stm32f4xx_hal.o
                0x0000000008002e84                HAL_GetTick
 .text.HAL_Delay
                0x0000000008002e90       0x24 build/stm32f4xx_hal.o
                0x0000000008002e90                HAL_Delay
 .text.HAL_NVIC_SetPriorityGrouping
                0x0000000008002eb4       0x24 build/stm32f4xx_hal_cortex.o
                0x0000000008002eb4                HAL_NVIC_SetPriorityGrouping
 .text.HAL_NVIC_SetPriority
                0x0000000008002ed8       0x7c build/stm32f4xx_hal_cortex.o
                0x0000000008002ed8                HAL_NVIC_SetPriority
 .text.HAL_NVIC_EnableIRQ
                0x0000000008002f54       0x1c build/stm32f4xx_hal_cortex.o
                0x0000000008002f54                HAL_NVIC_EnableIRQ
 .text.HAL_SYSTICK_Config
                0x0000000008002f70       0x34 build/stm32f4xx_hal_cortex.o
                0x0000000008002f70                HAL_SYSTICK_Config
 .text.HAL_DMA_Init
                0x0000000008002fa4      0x130 build/stm32f4xx_hal_dma.o
                0x0000000008002fa4                HAL_DMA_Init
 .text.HAL_DMA_DeInit
                0x00000000080030d4       0x80 build/stm32f4xx_hal_dma.o
                0x00000000080030d4                HAL_DMA_DeInit
 .text.HAL_DMA_Start_IT
                0x0000000008003154       0x80 build/stm32f4xx_hal_dma.o
                0x0000000008003154                HAL_DMA_Start_IT
 .text.HAL_DMA_IRQHandler
                0x00000000080031d4      0x1ac build/stm32f4xx_hal_dma.o
                0x00000000080031d4                HAL_DMA_IRQHandler
 .text.HAL_GPIO_Init
                0x0000000008003380      0x244 build/stm32f4xx_hal_gpio.o
                0x0000000008003380                HAL_GPIO_Init
 .text.HAL_GPIO_DeInit
                0x00000000080035c4      0x174 build/stm32f4xx_hal_gpio.o
                0x00000000080035c4                HAL_GPIO_DeInit
 .text.HAL_GPIO_WritePin
                0x0000000008003738        0x8 build/stm32f4xx_hal_gpio.o
                0x0000000008003738                HAL_GPIO_WritePin
 .text.HAL_HCD_HC_Init
                0x0000000008003740       0x80 build/stm32f4xx_hal_hcd.o
                0x0000000008003740                HAL_HCD_HC_Init
 .text.HAL_HCD_HC_Halt
                0x00000000080037c0       0x24 build/stm32f4xx_hal_hcd.o
                0x00000000080037c0                HAL_HCD_HC_Halt
 .text.HAL_HCD_Init
                0x00000000080037e4       0xa4 build/stm32f4xx_hal_hcd.o
                0x00000000080037e4                HAL_HCD_Init
 .text.HAL_HCD_HC_SubmitRequest
                0x0000000008003888       0xd0 build/stm32f4xx_hal_hcd.o
                0x0000000008003888                HAL_HCD_HC_SubmitRequest
 .text.HAL_HCD_IRQHandler
                0x0000000008003958      0x788 build/stm32f4xx_hal_hcd.o
                0x0000000008003958                HAL_HCD_IRQHandler
 .text.HAL_HCD_Start
                0x00000000080040e0       0x2c build/stm32f4xx_hal_hcd.o
                0x00000000080040e0                HAL_HCD_Start
 .text.HAL_HCD_Stop
                0x000000000800410c       0x24 build/stm32f4xx_hal_hcd.o
                0x000000000800410c                HAL_HCD_Stop
 .text.HAL_HCD_ResetPort
                0x0000000008004130        0x8 build/stm32f4xx_hal_hcd.o
                0x0000000008004130                HAL_HCD_ResetPort
 .text.HAL_HCD_HC_GetURBState
                0x0000000008004138        0xc build/stm32f4xx_hal_hcd.o
                0x0000000008004138                HAL_HCD_HC_GetURBState
 .text.HAL_HCD_HC_GetXferCount
                0x0000000008004144        0xc build/stm32f4xx_hal_hcd.o
                0x0000000008004144                HAL_HCD_HC_GetXferCount
 .text.HAL_HCD_GetCurrentFrame
                0x0000000008004150        0x8 build/stm32f4xx_hal_hcd.o
                0x0000000008004150                HAL_HCD_GetCurrentFrame
 .text.HAL_HCD_GetCurrentSpeed
                0x0000000008004158        0x8 build/stm32f4xx_hal_hcd.o
                0x0000000008004158                HAL_HCD_GetCurrentSpeed
 .text.I2C_RequestMemoryWrite
                0x0000000008004160      0x1e8 build/stm32f4xx_hal_i2c.o
 .text.I2C_RequestMemoryRead
                0x0000000008004348      0x2ac build/stm32f4xx_hal_i2c.o
 .text.HAL_I2C_Init
                0x00000000080045f4      0x190 build/stm32f4xx_hal_i2c.o
                0x00000000080045f4                HAL_I2C_Init
 .text.HAL_I2C_DeInit
                0x0000000008004784       0x34 build/stm32f4xx_hal_i2c.o
                0x0000000008004784                HAL_I2C_DeInit
 .text.HAL_I2C_Mem_Write
                0x00000000080047b8      0x1e4 build/stm32f4xx_hal_i2c.o
                0x00000000080047b8                HAL_I2C_Mem_Write
 .text.HAL_I2C_Mem_Read
                0x000000000800499c      0x35c build/stm32f4xx_hal_i2c.o
                0x000000000800499c                HAL_I2C_Mem_Read
 .text.HAL_I2C_GetState
                0x0000000008004cf8        0x8 build/stm32f4xx_hal_i2c.o
                0x0000000008004cf8                HAL_I2C_GetState
 .text.HAL_I2S_Init
                0x0000000008004d00      0x148 build/stm32f4xx_hal_i2s.o
                0x0000000008004d00                HAL_I2S_Init
 .text.HAL_I2S_Transmit_DMA
                0x0000000008004e48       0xc4 build/stm32f4xx_hal_i2s.o
                0x0000000008004e48                HAL_I2S_Transmit_DMA
 .text.I2S_DMATxHalfCplt
                0x0000000008004f0c        0xc build/stm32f4xx_hal_i2s.o
 .text.I2S_DMATxCplt
                0x0000000008004f18       0x24 build/stm32f4xx_hal_i2s.o
 .text.I2S_IRQHandler
                0x0000000008004f3c      0x108 build/stm32f4xx_hal_i2s.o
 .text.I2S_DMAError
                0x0000000008005044       0x2c build/stm32f4xx_hal_i2s.o
 .text.HAL_I2S_GetState
                0x0000000008005070        0x8 build/stm32f4xx_hal_i2s.o
                0x0000000008005070                HAL_I2S_GetState
 .text.HAL_I2SEx_TxRxCpltCallback
                0x0000000008005078        0x4 build/stm32f4xx_hal_i2s_ex.o
                0x0000000008005078                HAL_I2SEx_TxRxCpltCallback
 .text.HAL_I2SEx_FullDuplex_IRQHandler
                0x000000000800507c      0x25c build/stm32f4xx_hal_i2s_ex.o
                0x000000000800507c                HAL_I2SEx_FullDuplex_IRQHandler
 .text.HAL_RCC_OscConfig
                0x00000000080052d8      0x3c8 build/stm32f4xx_hal_rcc.o
                0x00000000080052d8                HAL_RCC_OscConfig
 .text.HAL_RCC_GetSysClockFreq
                0x00000000080056a0       0x68 build/stm32f4xx_hal_rcc.o
                0x00000000080056a0                HAL_RCC_GetSysClockFreq
 .text.HAL_RCC_ClockConfig
                0x0000000008005708      0x13c build/stm32f4xx_hal_rcc.o
                0x0000000008005708                HAL_RCC_ClockConfig
 .text.HAL_RCC_GetPCLK1Freq
                0x0000000008005844       0x20 build/stm32f4xx_hal_rcc.o
                0x0000000008005844                HAL_RCC_GetPCLK1Freq
 .text.HAL_RCCEx_PeriphCLKConfig
                0x0000000008005864      0x140 build/stm32f4xx_hal_rcc_ex.o
                0x0000000008005864                HAL_RCCEx_PeriphCLKConfig
 .text.HAL_RCCEx_GetPeriphCLKConfig
                0x00000000080059a4       0x30 build/stm32f4xx_hal_rcc_ex.o
                0x00000000080059a4                HAL_RCCEx_GetPeriphCLKConfig
 .text.HAL_RCCEx_GetPeriphCLKFreq
                0x00000000080059d4       0x4c build/stm32f4xx_hal_rcc_ex.o
                0x00000000080059d4                HAL_RCCEx_GetPeriphCLKFreq
 .text.HAL_SPI_Init
                0x0000000008005a20       0xc4 build/stm32f4xx_hal_spi.o
                0x0000000008005a20                HAL_SPI_Init
 .text.USB_CoreInit
                0x0000000008005ae4      0x104 build/stm32f4xx_ll_usb.o
                0x0000000008005ae4                USB_CoreInit
 .text.USB_EnableGlobalInt
                0x0000000008005be8       0x10 build/stm32f4xx_ll_usb.o
                0x0000000008005be8                USB_EnableGlobalInt
 .text.USB_DisableGlobalInt
                0x0000000008005bf8       0x10 build/stm32f4xx_ll_usb.o
                0x0000000008005bf8                USB_DisableGlobalInt
 .text.USB_SetCurrentMode
                0x0000000008005c08       0x70 build/stm32f4xx_ll_usb.o
                0x0000000008005c08                USB_SetCurrentMode
 .text.USB_FlushTxFifo
                0x0000000008005c78       0x54 build/stm32f4xx_ll_usb.o
                0x0000000008005c78                USB_FlushTxFifo
 .text.USB_FlushRxFifo
                0x0000000008005ccc       0x50 build/stm32f4xx_ll_usb.o
                0x0000000008005ccc                USB_FlushRxFifo
 .text.USB_ReadPacket
                0x0000000008005d1c       0x4c build/stm32f4xx_ll_usb.o
                0x0000000008005d1c                USB_ReadPacket
 .text.USB_ReadInterrupts
                0x0000000008005d68        0x8 build/stm32f4xx_ll_usb.o
                0x0000000008005d68                USB_ReadInterrupts
 .text.USB_GetMode
                0x0000000008005d70        0x8 build/stm32f4xx_ll_usb.o
                0x0000000008005d70                USB_GetMode
 .text.USB_HostInit
                0x0000000008005d78      0x188 build/stm32f4xx_ll_usb.o
                0x0000000008005d78                USB_HostInit
 .text.USB_InitFSLSPClkSel
                0x0000000008005f00       0x3c build/stm32f4xx_ll_usb.o
                0x0000000008005f00                USB_InitFSLSPClkSel
 .text.USB_ResetPort
                0x0000000008005f3c       0x40 build/stm32f4xx_ll_usb.o
                0x0000000008005f3c                USB_ResetPort
 .text.USB_DriveVbus
                0x0000000008005f7c       0x48 build/stm32f4xx_ll_usb.o
                0x0000000008005f7c                USB_DriveVbus
 .text.USB_GetHostSpeed
                0x0000000008005fc4       0x18 build/stm32f4xx_ll_usb.o
                0x0000000008005fc4                USB_GetHostSpeed
 .text.USB_GetCurrentFrame
                0x0000000008005fdc        0xc build/stm32f4xx_ll_usb.o
                0x0000000008005fdc                USB_GetCurrentFrame
 .text.USB_HC_Init
                0x0000000008005fe8      0x120 build/stm32f4xx_ll_usb.o
                0x0000000008005fe8                USB_HC_Init
 .text.USB_HC_StartXfer
                0x0000000008006108      0x18c build/stm32f4xx_ll_usb.o
                0x0000000008006108                USB_HC_StartXfer
 .text.USB_HC_ReadInterrupt
                0x0000000008006294        0xc build/stm32f4xx_ll_usb.o
                0x0000000008006294                USB_HC_ReadInterrupt
 .text.USB_HC_Halt
                0x00000000080062a0       0xc8 build/stm32f4xx_ll_usb.o
                0x00000000080062a0                USB_HC_Halt
 .text.USB_StopHost
                0x0000000008006368      0x1e4 build/stm32f4xx_ll_usb.o
                0x0000000008006368                USB_StopHost
 .text.USBH_Init
                0x000000000800654c       0x60 build/usbh_core.o
                0x000000000800654c                USBH_Init
 .text.USBH_RegisterClass
                0x00000000080065ac       0x1c build/usbh_core.o
                0x00000000080065ac                USBH_RegisterClass
 .text.USBH_SelectInterface
                0x00000000080065c8       0x14 build/usbh_core.o
                0x00000000080065c8                USBH_SelectInterface
 .text.USBH_FindInterface
                0x00000000080065dc      0x50c build/usbh_core.o
                0x00000000080065dc                USBH_FindInterface
 .text.USBH_Start
                0x0000000008006ae8       0x14 build/usbh_core.o
                0x0000000008006ae8                USBH_Start
 .text.USBH_Process
                0x0000000008006afc      0x334 build/usbh_core.o
                0x0000000008006afc                USBH_Process
 .text.USBH_LL_SetTimer
                0x0000000008006e30        0x8 build/usbh_core.o
                0x0000000008006e30                USBH_LL_SetTimer
 .text.USBH_LL_IncTimer
                0x0000000008006e38       0x20 build/usbh_core.o
                0x0000000008006e38                USBH_LL_IncTimer
 .text.USBH_LL_PortEnabled
                0x0000000008006e58        0x8 build/usbh_core.o
                0x0000000008006e58                USBH_LL_PortEnabled
 .text.USBH_LL_PortDisabled
                0x0000000008006e60        0x8 build/usbh_core.o
                0x0000000008006e60                USBH_LL_PortDisabled
 .text.USBH_LL_Connect
                0x0000000008006e68       0x2c build/usbh_core.o
                0x0000000008006e68                USBH_LL_Connect
 .text.USBH_LL_Disconnect
                0x0000000008006e94       0x38 build/usbh_core.o
                0x0000000008006e94                USBH_LL_Disconnect
 .text.USBH_CtlReq.part.0
                0x0000000008006ecc      0x188 build/usbh_ctlreq.o
 .text.USBH_Get_DevDesc
                0x0000000008007054      0x1f8 build/usbh_ctlreq.o
                0x0000000008007054                USBH_Get_DevDesc
 .text.USBH_Get_CfgDesc
                0x000000000800724c      0x154 build/usbh_ctlreq.o
                0x000000000800724c                USBH_Get_CfgDesc
 .text.USBH_Get_StringDesc
                0x00000000080073a0       0x78 build/usbh_ctlreq.o
                0x00000000080073a0                USBH_Get_StringDesc
 .text.USBH_SetAddress
                0x0000000008007418      0x1a8 build/usbh_ctlreq.o
                0x0000000008007418                USBH_SetAddress
 .text.USBH_SetCfg
                0x00000000080075c0      0x1a8 build/usbh_ctlreq.o
                0x00000000080075c0                USBH_SetCfg
 .text.USBH_SetFeature
                0x0000000008007768      0x1a8 build/usbh_ctlreq.o
                0x0000000008007768                USBH_SetFeature
 .text.USBH_ClrFeature
                0x0000000008007910      0x1a8 build/usbh_ctlreq.o
                0x0000000008007910                USBH_ClrFeature
 .text.USBH_CtlSendSetup
                0x0000000008007ab8       0x24 build/usbh_ioreq.o
                0x0000000008007ab8                USBH_CtlSendSetup
 .text.USBH_CtlSendData
                0x0000000008007adc       0x30 build/usbh_ioreq.o
                0x0000000008007adc                USBH_CtlSendData
 .text.USBH_CtlReceiveData
                0x0000000008007b0c       0x20 build/usbh_ioreq.o
                0x0000000008007b0c                USBH_CtlReceiveData
 .text.USBH_BulkSendData
                0x0000000008007b2c       0x30 build/usbh_ioreq.o
                0x0000000008007b2c                USBH_BulkSendData
 .text.USBH_BulkReceiveData
                0x0000000008007b5c       0x20 build/usbh_ioreq.o
                0x0000000008007b5c                USBH_BulkReceiveData
 .text.USBH_OpenPipe
                0x0000000008007b7c       0x20 build/usbh_pipes.o
                0x0000000008007b7c                USBH_OpenPipe
 .text.USBH_ClosePipe
                0x0000000008007b9c        0xc build/usbh_pipes.o
                0x0000000008007b9c                USBH_ClosePipe
 .text.USBH_AllocPipe
                0x0000000008007ba8       0xa8 build/usbh_pipes.o
                0x0000000008007ba8                USBH_AllocPipe
 .text.USBH_FreePipe
                0x0000000008007c50       0x18 build/usbh_pipes.o
                0x0000000008007c50                USBH_FreePipe
 .text.Reset_Handler
                0x0000000008007c68       0x50 build/startup_stm32f407xx.o
                0x0000000008007c68                Reset_Handler
 .text.Default_Handler
                0x0000000008007cb8        0x2 build/startup_stm32f407xx.o
                0x0000000008007cb8                DMA2_Stream6_IRQHandler
                0x0000000008007cb8                HASH_RNG_IRQHandler
                0x0000000008007cb8                EXTI2_IRQHandler
                0x0000000008007cb8                TIM8_CC_IRQHandler
                0x0000000008007cb8                TIM1_CC_IRQHandler
                0x0000000008007cb8                DMA2_Stream5_IRQHandler
                0x0000000008007cb8                DMA1_Stream5_IRQHandler
                0x0000000008007cb8                PVD_IRQHandler
                0x0000000008007cb8                SDIO_IRQHandler
                0x0000000008007cb8                TAMP_STAMP_IRQHandler
                0x0000000008007cb8                CAN2_RX1_IRQHandler
                0x0000000008007cb8                EXTI3_IRQHandler
                0x0000000008007cb8                TIM8_TRG_COM_TIM14_IRQHandler
                0x0000000008007cb8                TIM1_UP_TIM10_IRQHandler
                0x0000000008007cb8                TIM8_UP_TIM13_IRQHandler
                0x0000000008007cb8                I2C3_ER_IRQHandler
                0x0000000008007cb8                EXTI0_IRQHandler
                0x0000000008007cb8                I2C2_EV_IRQHandler
                0x0000000008007cb8                DMA1_Stream2_IRQHandler
                0x0000000008007cb8                CAN1_RX0_IRQHandler
                0x0000000008007cb8                FPU_IRQHandler
                0x0000000008007cb8                OTG_HS_WKUP_IRQHandler
                0x0000000008007cb8                CAN2_SCE_IRQHandler
                0x0000000008007cb8                DMA2_Stream2_IRQHandler
                0x0000000008007cb8                SPI1_IRQHandler
                0x0000000008007cb8                TIM6_DAC_IRQHandler
                0x0000000008007cb8                TIM1_BRK_TIM9_IRQHandler
                0x0000000008007cb8                DCMI_IRQHandler
                0x0000000008007cb8                CAN2_RX0_IRQHandler
                0x0000000008007cb8                DMA2_Stream3_IRQHandler
                0x0000000008007cb8                USART6_IRQHandler
                0x0000000008007cb8                USART3_IRQHandler
                0x0000000008007cb8                CAN1_RX1_IRQHandler
                0x0000000008007cb8                UART5_IRQHandler
                0x0000000008007cb8                DMA2_Stream0_IRQHandler
                0x0000000008007cb8                TIM4_IRQHandler
                0x0000000008007cb8                I2C1_EV_IRQHandler
                0x0000000008007cb8                DMA1_Stream6_IRQHandler
                0x0000000008007cb8                DMA1_Stream1_IRQHandler
                0x0000000008007cb8                UART4_IRQHandler
                0x0000000008007cb8                TIM3_IRQHandler
                0x0000000008007cb8                RCC_IRQHandler
                0x0000000008007cb8                TIM8_BRK_TIM12_IRQHandler
                0x0000000008007cb8                Default_Handler
                0x0000000008007cb8                EXTI15_10_IRQHandler
                0x0000000008007cb8                ADC_IRQHandler
                0x0000000008007cb8                TIM7_IRQHandler
                0x0000000008007cb8                CAN2_TX_IRQHandler
                0x0000000008007cb8                TIM5_IRQHandler
                0x0000000008007cb8                DMA2_Stream7_IRQHandler
                0x0000000008007cb8                I2C3_EV_IRQHandler
                0x0000000008007cb8                EXTI9_5_IRQHandler
                0x0000000008007cb8                RTC_WKUP_IRQHandler
                0x0000000008007cb8                ETH_WKUP_IRQHandler
                0x0000000008007cb8                SPI2_IRQHandler
                0x0000000008007cb8                OTG_HS_EP1_IN_IRQHandler
                0x0000000008007cb8                DMA1_Stream0_IRQHandler
                0x0000000008007cb8                CAN1_TX_IRQHandler
                0x0000000008007cb8                EXTI4_IRQHandler
                0x0000000008007cb8                FSMC_IRQHandler
                0x0000000008007cb8                ETH_IRQHandler
                0x0000000008007cb8                OTG_HS_EP1_OUT_IRQHandler
                0x0000000008007cb8                WWDG_IRQHandler
                0x0000000008007cb8                TIM2_IRQHandler
                0x0000000008007cb8                OTG_FS_WKUP_IRQHandler
                0x0000000008007cb8                TIM1_TRG_COM_TIM11_IRQHandler
                0x0000000008007cb8                OTG_HS_IRQHandler
                0x0000000008007cb8                EXTI1_IRQHandler
                0x0000000008007cb8                USART2_IRQHandler
                0x0000000008007cb8                I2C2_ER_IRQHandler
                0x0000000008007cb8                DMA2_Stream1_IRQHandler
                0x0000000008007cb8                CAN1_SCE_IRQHandler
                0x0000000008007cb8                FLASH_IRQHandler
                0x0000000008007cb8                DMA2_Stream4_IRQHandler
                0x0000000008007cb8                USART1_IRQHandler
                0x0000000008007cb8                SPI3_IRQHandler
                0x0000000008007cb8                DMA1_Stream4_IRQHandler
                0x0000000008007cb8                I2C1_ER_IRQHandler
                0x0000000008007cb8                RTC_Alarm_IRQHandler
 *fill*         0x0000000008007cba        0x2 
 .text.__libc_init_array
                0x0000000008007cbc       0x48 /Users/johannes/Library/Application Support/Code/User/globalStorage/bmd.stm32-for-vscode/@xpack-dev-tools/arm-none-eabi-gcc/11.2.1-1.2.2/.content/bin/../lib/gcc/arm-none-eabi/11.2.1/../../../../arm-none-eabi/lib/thumb/v7e-m+fp/hard/libc_nano.a(lib_a-init.o)
                0x0000000008007cbc                __libc_init_array
 .text.malloc   0x0000000008007d04       0x10 /Users/johannes/Library/Application Support/Code/User/globalStorage/bmd.stm32-for-vscode/@xpack-dev-tools/arm-none-eabi-gcc/11.2.1-1.2.2/.content/bin/../lib/gcc/arm-none-eabi/11.2.1/../../../../arm-none-eabi/lib/thumb/v7e-m+fp/hard/libc_nano.a(lib_a-malloc.o)
                0x0000000008007d04                malloc
 .text.free     0x0000000008007d14       0x10 /Users/johannes/Library/Application Support/Code/User/globalStorage/bmd.stm32-for-vscode/@xpack-dev-tools/arm-none-eabi-gcc/11.2.1-1.2.2/.content/bin/../lib/gcc/arm-none-eabi/11.2.1/../../../../arm-none-eabi/lib/thumb/v7e-m+fp/hard/libc_nano.a(lib_a-malloc.o)
                0x0000000008007d14                free
 .text.memcpy   0x0000000008007d24       0x1c /Users/johannes/Library/Application Support/Code/User/globalStorage/bmd.stm32-for-vscode/@xpack-dev-tools/arm-none-eabi-gcc/11.2.1-1.2.2/.content/bin/../lib/gcc/arm-none-eabi/11.2.1/../../../../arm-none-eabi/lib/thumb/v7e-m+fp/hard/libc_nano.a(lib_a-memcpy-stub.o)
                0x0000000008007d24                memcpy
 .text.memset   0x0000000008007d40       0x10 /Users/johannes/Library/Application Support/Code/User/globalStorage/bmd.stm32-for-vscode/@xpack-dev-tools/arm-none-eabi-gcc/11.2.1-1.2.2/.content/bin/../lib/gcc/arm-none-eabi/11.2.1/../../../../arm-none-eabi/lib/thumb/v7e-m+fp/hard/libc_nano.a(lib_a-memset.o)
                0x0000000008007d40                memset
 .text._free_r  0x0000000008007d50       0x98 /Users/johannes/Library/Application Support/Code/User/globalStorage/bmd.stm32-for-vscode/@xpack-dev-tools/arm-none-eabi-gcc/11.2.1-1.2.2/.content/bin/../lib/gcc/arm-none-eabi/11.2.1/../../../../arm-none-eabi/lib/thumb/v7e-m+fp/hard/libc_nano.a(lib_a-nano-freer.o)
                0x0000000008007d50                _free_r
 .text.sbrk_aligned
                0x0000000008007de8       0x40 /Users/johannes/Library/Application Support/Code/User/globalStorage/bmd.stm32-for-vscode/@xpack-dev-tools/arm-none-eabi-gcc/11.2.1-1.2.2/.content/bin/../lib/gcc/arm-none-eabi/11.2.1/../../../../arm-none-eabi/lib/thumb/v7e-m+fp/hard/libc_nano.a(lib_a-nano-mallocr.o)
 .text._malloc_r
                0x0000000008007e28       0xe8 /Users/johannes/Library/Application Support/Code/User/globalStorage/bmd.stm32-for-vscode/@xpack-dev-tools/arm-none-eabi-gcc/11.2.1-1.2.2/.content/bin/../lib/gcc/arm-none-eabi/11.2.1/../../../../arm-none-eabi/lib/thumb/v7e-m+fp/hard/libc_nano.a(lib_a-nano-mallocr.o)
                0x0000000008007e28                _malloc_r
 .text._sbrk_r  0x0000000008007f10       0x20 /Users/johannes/Library/Application Support/Code/User/globalStorage/bmd.stm32-for-vscode/@xpack-dev-tools/arm-none-eabi-gcc/11.2.1-1.2.2/.content/bin/../lib/gcc/arm-none-eabi/11.2.1/../../../../arm-none-eabi/lib/thumb/v7e-m+fp/hard/libc_nano.a(lib_a-sbrkr.o)
                0x0000000008007f10                _sbrk_r
 .text.__malloc_lock
                0x0000000008007f30        0x2 /Users/johannes/Library/Application Support/Code/User/globalStorage/bmd.stm32-for-vscode/@xpack-dev-tools/arm-none-eabi-gcc/11.2.1-1.2.2/.content/bin/../lib/gcc/arm-none-eabi/11.2.1/../../../../arm-none-eabi/lib/thumb/v7e-m+fp/hard/libc_nano.a(lib_a-mlock.o)
                0x0000000008007f30                __malloc_lock
 .text.__malloc_unlock
                0x0000000008007f32        0x2 /Users/johannes/Library/Application Support/Code/User/globalStorage/bmd.stm32-for-vscode/@xpack-dev-tools/arm-none-eabi-gcc/11.2.1-1.2.2/.content/bin/../lib/gcc/arm-none-eabi/11.2.1/../../../../arm-none-eabi/lib/thumb/v7e-m+fp/hard/libc_nano.a(lib_a-mlock.o)
                0x0000000008007f32                __malloc_unlock
 .text._sbrk    0x0000000008007f34       0x1c /Users/johannes/Library/Application Support/Code/User/globalStorage/bmd.stm32-for-vscode/@xpack-dev-tools/arm-none-eabi-gcc/11.2.1-1.2.2/.content/bin/../lib/gcc/arm-none-eabi/11.2.1/../../../../arm-none-eabi/lib/thumb/v7e-m+fp/hard/libnosys.a(sbrk.o)
                0x0000000008007f34                _sbrk
 .text.__udivmoddi4
                0x0000000008007f50      0x2c8 /Users/johannes/Library/Application Support/Code/User/globalStorage/bmd.stm32-for-vscode/@xpack-dev-tools/arm-none-eabi-gcc/11.2.1-1.2.2/.content/bin/../lib/gcc/arm-none-eabi/11.2.1/thumb/v7e-m+fp/hard/libgcc.a(_udivmoddi4.o)
                0x0000000008007f50                __udivmoddi4
 *(.glue_7)
 .glue_7        0x0000000008008218        0x0 linker stubs
 *(.glue_7t)
 .glue_7t       0x0000000008008218        0x0 linker stubs
 *(.eh_frame)
 .eh_frame      0x0000000008008218        0x0 /Users/johannes/Library/Application Support/Code/User/globalStorage/bmd.stm32-for-vscode/@xpack-dev-tools/arm-none-eabi-gcc/11.2.1-1.2.2/.content/bin/../lib/gcc/arm-none-eabi/11.2.1/thumb/v7e-m+fp/hard/crtbegin.o
 *(.init)
 .init          0x0000000008008218        0x4 /Users/johannes/Library/Application Support/Code/User/globalStorage/bmd.stm32-for-vscode/@xpack-dev-tools/arm-none-eabi-gcc/11.2.1-1.2.2/.content/bin/../lib/gcc/arm-none-eabi/11.2.1/thumb/v7e-m+fp/hard/crti.o
                0x0000000008008218                _init
 .init          0x000000000800821c        0x8 /Users/johannes/Library/Application Support/Code/User/globalStorage/bmd.stm32-for-vscode/@xpack-dev-tools/arm-none-eabi-gcc/11.2.1-1.2.2/.content/bin/../lib/gcc/arm-none-eabi/11.2.1/thumb/v7e-m+fp/hard/crtn.o
 *(.fini)
 .fini          0x0000000008008224        0x4 /Users/johannes/Library/Application Support/Code/User/globalStorage/bmd.stm32-for-vscode/@xpack-dev-tools/arm-none-eabi-gcc/11.2.1-1.2.2/.content/bin/../lib/gcc/arm-none-eabi/11.2.1/thumb/v7e-m+fp/hard/crti.o
                0x0000000008008224                _fini
 .fini          0x0000000008008228        0x8 /Users/johannes/Library/Application Support/Code/User/globalStorage/bmd.stm32-for-vscode/@xpack-dev-tools/arm-none-eabi-gcc/11.2.1-1.2.2/.content/bin/../lib/gcc/arm-none-eabi/11.2.1/thumb/v7e-m+fp/hard/crtn.o
                0x0000000008008230                . = ALIGN (0x4)
                0x0000000008008230                _etext = .

.vfp11_veneer   0x0000000008008230        0x0
 .vfp11_veneer  0x0000000008008230        0x0 linker stubs

.v4_bx          0x0000000008008230        0x0
 .v4_bx         0x0000000008008230        0x0 linker stubs

.iplt           0x0000000008008230        0x0
 .iplt          0x0000000008008230        0x0 /Users/johannes/Library/Application Support/Code/User/globalStorage/bmd.stm32-for-vscode/@xpack-dev-tools/arm-none-eabi-gcc/11.2.1-1.2.2/.content/bin/../lib/gcc/arm-none-eabi/11.2.1/thumb/v7e-m+fp/hard/crtbegin.o

.rodata         0x0000000008008230     0x32a0
                0x0000000008008230                . = ALIGN (0x4)
 *(.rodata)
 *(.rodata*)
 .rodata.log_lut
                0x0000000008008230     0x1004 build/ADSR_envelope.o
                0x0000000008008230                log_lut
 .rodata.SEGGER_RTT_ReadUpBufferNoLock.str1.4
                0x0000000008009234        0x9 build/SEGGER_RTT.o
 *fill*         0x000000000800923d        0x3 
 .rodata.mtof   0x0000000008009240      0x200 build/audio.o
                0x0000000008009240                mtof
 .rodata.tan_lut
                0x0000000008009440     0x2004 build/lut_tan.o
                0x0000000008009440                tan_lut
 .rodata.main.str1.4
                0x000000000800b444       0x23 build/main.o
 *fill*         0x000000000800b467        0x1 
 .rodata.AHBPrescTable
                0x000000000800b468       0x10 build/system_stm32f4xx.o
                0x000000000800b468                AHBPrescTable
 .rodata.APBPrescTable
                0x000000000800b478        0x8 build/system_stm32f4xx.o
                0x000000000800b478                APBPrescTable
 .rodata.str1.4
                0x000000000800b480        0x5 build/usbh_MIDI.o
 *fill*         0x000000000800b485        0x3 
 .rodata.I2SPLLN
                0x000000000800b488       0x20 build/stm32f4_discovery_audio.o
                0x000000000800b488                I2SPLLN
 .rodata.I2SPLLR
                0x000000000800b4a8       0x20 build/stm32f4_discovery_audio.o
                0x000000000800b4a8                I2SPLLR
 .rodata.flagBitshiftOffset.0
                0x000000000800b4c8        0x8 build/stm32f4xx_hal_dma.o
                0x000000000800b4d0                . = ALIGN (0x4)

.ARM.extab
 *(.ARM.extab* .gnu.linkonce.armextab.*)

.ARM            0x000000000800b4d0        0x8
                0x000000000800b4d0                __exidx_start = .
 *(.ARM.exidx*)
 .ARM.exidx.text._sbrk
                0x000000000800b4d0        0x8 /Users/johannes/Library/Application Support/Code/User/globalStorage/bmd.stm32-for-vscode/@xpack-dev-tools/arm-none-eabi-gcc/11.2.1-1.2.2/.content/bin/../lib/gcc/arm-none-eabi/11.2.1/../../../../arm-none-eabi/lib/thumb/v7e-m+fp/hard/libnosys.a(sbrk.o)
 .ARM.exidx.text.__udivmoddi4
                0x000000000800b4d8        0x0 /Users/johannes/Library/Application Support/Code/User/globalStorage/bmd.stm32-for-vscode/@xpack-dev-tools/arm-none-eabi-gcc/11.2.1-1.2.2/.content/bin/../lib/gcc/arm-none-eabi/11.2.1/thumb/v7e-m+fp/hard/libgcc.a(_udivmoddi4.o)
                                          0x8 (size before relaxing)
                0x000000000800b4d8                __exidx_end = .

.rel.dyn        0x000000000800b4d8        0x0
 .rel.iplt      0x000000000800b4d8        0x0 /Users/johannes/Library/Application Support/Code/User/globalStorage/bmd.stm32-for-vscode/@xpack-dev-tools/arm-none-eabi-gcc/11.2.1-1.2.2/.content/bin/../lib/gcc/arm-none-eabi/11.2.1/thumb/v7e-m+fp/hard/crtbegin.o

.preinit_array  0x000000000800b4d8        0x0
                0x000000000800b4d8                PROVIDE (__preinit_array_start = .)
 *(.preinit_array*)
                0x000000000800b4d8                PROVIDE (__preinit_array_end = .)

.init_array     0x000000000800b4d8        0x4
                0x000000000800b4d8                PROVIDE (__init_array_start = .)
 *(SORT_BY_NAME(.init_array.*))
 *(.init_array*)
 .init_array    0x000000000800b4d8        0x4 /Users/johannes/Library/Application Support/Code/User/globalStorage/bmd.stm32-for-vscode/@xpack-dev-tools/arm-none-eabi-gcc/11.2.1-1.2.2/.content/bin/../lib/gcc/arm-none-eabi/11.2.1/thumb/v7e-m+fp/hard/crtbegin.o
                0x000000000800b4dc                PROVIDE (__init_array_end = .)

.fini_array     0x000000000800b4dc        0x4
                0x000000000800b4dc                PROVIDE (__fini_array_start = .)
 *(SORT_BY_NAME(.fini_array.*))
 *(.fini_array*)
 .fini_array    0x000000000800b4dc        0x4 /Users/johannes/Library/Application Support/Code/User/globalStorage/bmd.stm32-for-vscode/@xpack-dev-tools/arm-none-eabi-gcc/11.2.1-1.2.2/.content/bin/../lib/gcc/arm-none-eabi/11.2.1/thumb/v7e-m+fp/hard/crtbegin.o
                0x000000000800b4e0                PROVIDE (__fini_array_end = .)
                0x000000000800b4e0                _sidata = LOADADDR (.data)

.data           0x0000000020000000       0xd0 load address 0x000000000800b4e0
                0x0000000020000000                . = ALIGN (0x4)
                0x0000000020000000                _sdata = .
 *(.data)
 *(.data*)
 .data.delay_wet
                0x0000000020000000        0x4 build/stereo_delay.o
 .data.feedback
                0x0000000020000004        0x4 build/stereo_delay.o
 .data.SystemCoreClock
                0x0000000020000008        0x4 build/system_stm32f4xx.o
                0x0000000020000008                SystemCoreClock
 .data.MIDI_Class
                0x000000002000000c       0x20 build/usbh_MIDI.o
                0x000000002000000c                MIDI_Class
 .data.Is_cs43l22_Stop
                0x000000002000002c        0x1 build/cs43l22.o
 *fill*         0x000000002000002d        0x3 
 .data.cs43l22_drv
                0x0000000020000030       0x30 build/cs43l22.o
                0x0000000020000030                cs43l22_drv
 .data.I2cxTimeout
                0x0000000020000060        0x4 build/stm32f4_discovery.o
                0x0000000020000060                I2cxTimeout
 .data.uwTickFreq
                0x0000000020000064        0x1 build/stm32f4xx_hal.o
                0x0000000020000064                uwTickFreq
 *fill*         0x0000000020000065        0x3 
 .data.uwTickPrio
                0x0000000020000068        0x4 build/stm32f4xx_hal.o
                0x0000000020000068                uwTickPrio
 .data._impure_ptr
                0x000000002000006c        0x4 /Users/johannes/Library/Application Support/Code/User/globalStorage/bmd.stm32-for-vscode/@xpack-dev-tools/arm-none-eabi-gcc/11.2.1-1.2.2/.content/bin/../lib/gcc/arm-none-eabi/11.2.1/../../../../arm-none-eabi/lib/thumb/v7e-m+fp/hard/libc_nano.a(lib_a-impure.o)
                0x000000002000006c                _impure_ptr
 .data.impure_data
                0x0000000020000070       0x60 /Users/johannes/Library/Application Support/Code/User/globalStorage/bmd.stm32-for-vscode/@xpack-dev-tools/arm-none-eabi-gcc/11.2.1-1.2.2/.content/bin/../lib/gcc/arm-none-eabi/11.2.1/../../../../arm-none-eabi/lib/thumb/v7e-m+fp/hard/libc_nano.a(lib_a-impure.o)
                0x00000000200000d0                . = ALIGN (0x4)
                0x00000000200000d0                _edata = .
                0x000000000800b5b0                _siccmram = LOADADDR (.ccmram)

.igot.plt       0x00000000200000d0        0x0 load address 0x000000000800b5b0
 .igot.plt      0x00000000200000d0        0x0 /Users/johannes/Library/Application Support/Code/User/globalStorage/bmd.stm32-for-vscode/@xpack-dev-tools/arm-none-eabi-gcc/11.2.1-1.2.2/.content/bin/../lib/gcc/arm-none-eabi/11.2.1/thumb/v7e-m+fp/hard/crtbegin.o

.ccmram         0x0000000010000000      0x140 load address 0x000000000800b5b0
                0x0000000010000000                . = ALIGN (0x4)
                0x0000000010000000                _sccmram = .
 *(.ccmram)
 .ccmram        0x0000000010000000       0x50 build/ADSR_envelope.o
                0x0000000010000000                adsr_filt
                0x0000000010000028                adsr_amp
 .ccmram        0x0000000010000050       0x40 build/MIDI_application.o
                0x0000000010000050                MIDI_RX_Buffer
 .ccmram        0x0000000010000090        0x4 build/MIDI_event.o
                0x0000000010000090                pitchbend
                0x0000000010000092                currentPitch
                0x0000000010000093                velocity
 .ccmram        0x0000000010000094        0x8 build/audio.o
 .ccmram        0x000000001000009c       0x28 build/filters.o
                0x000000001000009c                lp_R
                0x00000000100000b0                lp_L
 .ccmram        0x00000000100000c4       0x18 build/ladder_filter.o
                0x00000000100000c4                Moog_filter
 .ccmram        0x00000000100000dc       0x54 build/oscillators.o
                0x00000000100000dc                osc1
                0x00000000100000f8                osc2
                0x0000000010000114                sub_osc
 .ccmram        0x0000000010000130       0x10 build/stereo_delay.o
 *(.ccmram*)
                0x0000000010000140                . = ALIGN (0x4)
                0x0000000010000140                _eccmram = .
                0x0000000010000140                . = ALIGN (0x4)

.bss            0x00000000200000d0    0x16914
                0x00000000200000d0                _sbss = .
                0x00000000200000d0                __bss_start__ = _sbss
 *(.bss)
 *(.bss*)
 .bss.completed.1
                0x00000000200000d0        0x1 /Users/johannes/Library/Application Support/Code/User/globalStorage/bmd.stm32-for-vscode/@xpack-dev-tools/arm-none-eabi-gcc/11.2.1-1.2.2/.content/bin/../lib/gcc/arm-none-eabi/11.2.1/thumb/v7e-m+fp/hard/crtbegin.o
 *fill*         0x00000000200000d1        0x3 
 .bss.object.0  0x00000000200000d4       0x18 /Users/johannes/Library/Application Support/Code/User/globalStorage/bmd.stm32-for-vscode/@xpack-dev-tools/arm-none-eabi-gcc/11.2.1-1.2.2/.content/bin/../lib/gcc/arm-none-eabi/11.2.1/thumb/v7e-m+fp/hard/crtbegin.o
 .bss.Appli_state
                0x00000000200000ec        0x1 build/MIDI_event.o
                0x00000000200000ec                Appli_state
 *fill*         0x00000000200000ed        0x3 
 .bss.hUSBHost  0x00000000200000f0      0x61c build/MIDI_event.o
                0x00000000200000f0                hUSBHost
 .bss.notesCount
                0x000000002000070c        0x1 build/MIDI_event.o
                0x000000002000070c                notesCount
 *fill*         0x000000002000070d        0x3 
 .bss.notes_Active
                0x0000000020000710       0x80 build/MIDI_event.o
                0x0000000020000710                notes_Active
 .bss._SEGGER_RTT
                0x0000000020000790       0xa8 build/SEGGER_RTT.o
                0x0000000020000790                _SEGGER_RTT
 .bss._acDownBuffer
                0x0000000020000838       0x10 build/SEGGER_RTT.o
 .bss._acUpBuffer
                0x0000000020000848      0x400 build/SEGGER_RTT.o
 .bss.audioBuffer
                0x0000000020000c48       0x80 build/audio.o
                0x0000000020000c48                audioBuffer
 .bss.hi2c1     0x0000000020000cc8       0x54 build/i2c.o
                0x0000000020000cc8                hi2c1
 .bss.hi2s3     0x0000000020000d1c       0x48 build/i2s.o
                0x0000000020000d1c                hi2s3
 .bss.hspi1     0x0000000020000d64       0x58 build/spi.o
                0x0000000020000d64                hspi1
 .bss.delaylineL
                0x0000000020000dbc     0xabe0 build/stereo_delay.o
 .bss.delaylineR
                0x000000002000b99c     0xabe0 build/stereo_delay.o
 *fill*         0x000000002001657c        0x4 
 .bss.hHCD      0x0000000020016580      0x304 build/usbh_conf.o
                0x0000000020016580                hHCD
 .bss.OutputDev
                0x0000000020016884        0x1 build/cs43l22.o
                0x0000000020016884                OutputDev
 *fill*         0x0000000020016885        0x3 
 .bss.I2cHandle
                0x0000000020016888       0x54 build/stm32f4_discovery.o
 .bss.hAudioInI2s
                0x00000000200168dc       0x48 build/stm32f4_discovery_audio.o
                0x00000000200168dc                hAudioInI2s
 .bss.hAudioOutI2s
                0x0000000020016924       0x48 build/stm32f4_discovery_audio.o
                0x0000000020016924                hAudioOutI2s
 .bss.hdma_i2sTx.1
                0x000000002001696c       0x60 build/stm32f4_discovery_audio.o
 .bss.pAudioDrv
                0x00000000200169cc        0x4 build/stm32f4_discovery_audio.o
 .bss.uwTick    0x00000000200169d0        0x4 build/stm32f4xx_hal.o
                0x00000000200169d0                uwTick
 .bss.__malloc_free_list
                0x00000000200169d4        0x4 /Users/johannes/Library/Application Support/Code/User/globalStorage/bmd.stm32-for-vscode/@xpack-dev-tools/arm-none-eabi-gcc/11.2.1-1.2.2/.content/bin/../lib/gcc/arm-none-eabi/11.2.1/../../../../arm-none-eabi/lib/thumb/v7e-m+fp/hard/libc_nano.a(lib_a-nano-mallocr.o)
                0x00000000200169d4                __malloc_free_list
 .bss.__malloc_sbrk_start
                0x00000000200169d8        0x4 /Users/johannes/Library/Application Support/Code/User/globalStorage/bmd.stm32-for-vscode/@xpack-dev-tools/arm-none-eabi-gcc/11.2.1-1.2.2/.content/bin/../lib/gcc/arm-none-eabi/11.2.1/../../../../arm-none-eabi/lib/thumb/v7e-m+fp/hard/libc_nano.a(lib_a-nano-mallocr.o)
                0x00000000200169d8                __malloc_sbrk_start
 .bss.errno     0x00000000200169dc        0x4 /Users/johannes/Library/Application Support/Code/User/globalStorage/bmd.stm32-for-vscode/@xpack-dev-tools/arm-none-eabi-gcc/11.2.1-1.2.2/.content/bin/../lib/gcc/arm-none-eabi/11.2.1/../../../../arm-none-eabi/lib/thumb/v7e-m+fp/hard/libc_nano.a(lib_a-reent.o)
                0x00000000200169dc                errno
 .bss.heap_end.0
                0x00000000200169e0        0x4 /Users/johannes/Library/Application Support/Code/User/globalStorage/bmd.stm32-for-vscode/@xpack-dev-tools/arm-none-eabi-gcc/11.2.1-1.2.2/.content/bin/../lib/gcc/arm-none-eabi/11.2.1/../../../../arm-none-eabi/lib/thumb/v7e-m+fp/hard/libnosys.a(sbrk.o)
 *(COMMON)
                0x00000000200169e4                . = ALIGN (0x4)
                0x00000000200169e4                _ebss = .
                0x00000000200169e4                __bss_end__ = _ebss

._user_heap_stack
                0x00000000200169e4      0x604
                0x00000000200169e8                . = ALIGN (0x8)
 *fill*         0x00000000200169e4        0x4 
                0x00000000200169e8                PROVIDE (end = .)
                [!provide]                        PROVIDE (_end = .)
                0x0000000020016be8                . = (. + _Min_Heap_Size)
 *fill*         0x00000000200169e8      0x200 
                0x0000000020016fe8                . = (. + _Min_Stack_Size)
 *fill*         0x0000000020016be8      0x400 
                0x0000000020016fe8                . = ALIGN (0x8)

/DISCARD/
 libc.a(*)
 libm.a(*)
 libgcc.a(*)

.ARM.attributes
                0x0000000000000000       0x30
 *(.ARM.attributes)
 .ARM.attributes
                0x0000000000000000       0x1e /Users/johannes/Library/Application Support/Code/User/globalStorage/bmd.stm32-for-vscode/@xpack-dev-tools/arm-none-eabi-gcc/11.2.1-1.2.2/.content/bin/../lib/gcc/arm-none-eabi/11.2.1/thumb/v7e-m+fp/hard/crti.o
 .ARM.attributes
                0x000000000000001e       0x34 /Users/johannes/Library/Application Support/Code/User/globalStorage/bmd.stm32-for-vscode/@xpack-dev-tools/arm-none-eabi-gcc/11.2.1-1.2.2/.content/bin/../lib/gcc/arm-none-eabi/11.2.1/thumb/v7e-m+fp/hard/crtbegin.o
 .ARM.attributes
                0x0000000000000052       0x34 build/ADSR_envelope.o
 .ARM.attributes
                0x0000000000000086       0x34 build/MIDI_application.o
 .ARM.attributes
                0x00000000000000ba       0x34 build/MIDI_event.o
 .ARM.attributes
                0x00000000000000ee       0x34 build/SEGGER_RTT.o
 .ARM.attributes
                0x0000000000000122       0x34 build/audio.o
 .ARM.attributes
                0x0000000000000156       0x34 build/filters.o
 .ARM.attributes
                0x000000000000018a       0x34 build/gpio.o
 .ARM.attributes
                0x00000000000001be       0x34 build/helper_functions.o
 .ARM.attributes
                0x00000000000001f2       0x34 build/i2c.o
 .ARM.attributes
                0x0000000000000226       0x34 build/i2s.o
 .ARM.attributes
                0x000000000000025a       0x34 build/ladder_filter.o
 .ARM.attributes
                0x000000000000028e       0x34 build/lut_tan.o
 .ARM.attributes
                0x00000000000002c2       0x34 build/main.o
 .ARM.attributes
                0x00000000000002f6       0x34 build/oscillators.o
 .ARM.attributes
                0x000000000000032a       0x34 build/spi.o
 .ARM.attributes
                0x000000000000035e       0x34 build/stereo_delay.o
 .ARM.attributes
                0x0000000000000392       0x34 build/stm32f4xx_hal_msp.o
 .ARM.attributes
                0x00000000000003c6       0x34 build/stm32f4xx_it.o
 .ARM.attributes
                0x00000000000003fa       0x34 build/system_stm32f4xx.o
 .ARM.attributes
                0x000000000000042e       0x34 build/usbh_MIDI.o
 .ARM.attributes
                0x0000000000000462       0x34 build/usbh_conf.o
 .ARM.attributes
                0x0000000000000496       0x34 build/cs43l22.o
 .ARM.attributes
                0x00000000000004ca       0x34 build/stm32f4_discovery.o
 .ARM.attributes
                0x00000000000004fe       0x34 build/stm32f4_discovery_audio.o
 .ARM.attributes
                0x0000000000000532       0x34 build/stm32f4xx_hal.o
 .ARM.attributes
                0x0000000000000566       0x34 build/stm32f4xx_hal_cortex.o
 .ARM.attributes
                0x000000000000059a       0x34 build/stm32f4xx_hal_dma.o
 .ARM.attributes
                0x00000000000005ce       0x34 build/stm32f4xx_hal_gpio.o
 .ARM.attributes
                0x0000000000000602       0x34 build/stm32f4xx_hal_hcd.o
 .ARM.attributes
                0x0000000000000636       0x34 build/stm32f4xx_hal_i2c.o
 .ARM.attributes
                0x000000000000066a       0x34 build/stm32f4xx_hal_i2s.o
 .ARM.attributes
                0x000000000000069e       0x34 build/stm32f4xx_hal_i2s_ex.o
 .ARM.attributes
                0x00000000000006d2       0x34 build/stm32f4xx_hal_rcc.o
 .ARM.attributes
                0x0000000000000706       0x34 build/stm32f4xx_hal_rcc_ex.o
 .ARM.attributes
                0x000000000000073a       0x34 build/stm32f4xx_hal_spi.o
 .ARM.attributes
                0x000000000000076e       0x34 build/stm32f4xx_ll_usb.o
 .ARM.attributes
                0x00000000000007a2       0x34 build/usbh_core.o
 .ARM.attributes
                0x00000000000007d6       0x34 build/usbh_ctlreq.o
 .ARM.attributes
                0x000000000000080a       0x34 build/usbh_ioreq.o
 .ARM.attributes
                0x000000000000083e       0x34 build/usbh_pipes.o
 .ARM.attributes
                0x0000000000000872       0x21 build/startup_stm32f407xx.o
 .ARM.attributes
                0x0000000000000893       0x34 /Users/johannes/Library/Application Support/Code/User/globalStorage/bmd.stm32-for-vscode/@xpack-dev-tools/arm-none-eabi-gcc/11.2.1-1.2.2/.content/bin/../lib/gcc/arm-none-eabi/11.2.1/../../../../arm-none-eabi/lib/thumb/v7e-m+fp/hard/libc_nano.a(lib_a-impure.o)
 .ARM.attributes
                0x00000000000008c7       0x34 /Users/johannes/Library/Application Support/Code/User/globalStorage/bmd.stm32-for-vscode/@xpack-dev-tools/arm-none-eabi-gcc/11.2.1-1.2.2/.content/bin/../lib/gcc/arm-none-eabi/11.2.1/../../../../arm-none-eabi/lib/thumb/v7e-m+fp/hard/libc_nano.a(lib_a-init.o)
 .ARM.attributes
                0x00000000000008fb       0x34 /Users/johannes/Library/Application Support/Code/User/globalStorage/bmd.stm32-for-vscode/@xpack-dev-tools/arm-none-eabi-gcc/11.2.1-1.2.2/.content/bin/../lib/gcc/arm-none-eabi/11.2.1/../../../../arm-none-eabi/lib/thumb/v7e-m+fp/hard/libc_nano.a(lib_a-malloc.o)
 .ARM.attributes
                0x000000000000092f       0x34 /Users/johannes/Library/Application Support/Code/User/globalStorage/bmd.stm32-for-vscode/@xpack-dev-tools/arm-none-eabi-gcc/11.2.1-1.2.2/.content/bin/../lib/gcc/arm-none-eabi/11.2.1/../../../../arm-none-eabi/lib/thumb/v7e-m+fp/hard/libc_nano.a(lib_a-memcpy-stub.o)
 .ARM.attributes
                0x0000000000000963       0x34 /Users/johannes/Library/Application Support/Code/User/globalStorage/bmd.stm32-for-vscode/@xpack-dev-tools/arm-none-eabi-gcc/11.2.1-1.2.2/.content/bin/../lib/gcc/arm-none-eabi/11.2.1/../../../../arm-none-eabi/lib/thumb/v7e-m+fp/hard/libc_nano.a(lib_a-memset.o)
 .ARM.attributes
                0x0000000000000997       0x34 /Users/johannes/Library/Application Support/Code/User/globalStorage/bmd.stm32-for-vscode/@xpack-dev-tools/arm-none-eabi-gcc/11.2.1-1.2.2/.content/bin/../lib/gcc/arm-none-eabi/11.2.1/../../../../arm-none-eabi/lib/thumb/v7e-m+fp/hard/libc_nano.a(lib_a-nano-freer.o)
 .ARM.attributes
                0x00000000000009cb       0x34 /Users/johannes/Library/Application Support/Code/User/globalStorage/bmd.stm32-for-vscode/@xpack-dev-tools/arm-none-eabi-gcc/11.2.1-1.2.2/.content/bin/../lib/gcc/arm-none-eabi/11.2.1/../../../../arm-none-eabi/lib/thumb/v7e-m+fp/hard/libc_nano.a(lib_a-nano-mallocr.o)
 .ARM.attributes
                0x00000000000009ff       0x34 /Users/johannes/Library/Application Support/Code/User/globalStorage/bmd.stm32-for-vscode/@xpack-dev-tools/arm-none-eabi-gcc/11.2.1-1.2.2/.content/bin/../lib/gcc/arm-none-eabi/11.2.1/../../../../arm-none-eabi/lib/thumb/v7e-m+fp/hard/libc_nano.a(lib_a-sbrkr.o)
 .ARM.attributes
                0x0000000000000a33       0x17 /Users/johannes/Library/Application Support/Code/User/globalStorage/bmd.stm32-for-vscode/@xpack-dev-tools/arm-none-eabi-gcc/11.2.1-1.2.2/.content/bin/../lib/gcc/arm-none-eabi/11.2.1/../../../../arm-none-eabi/lib/thumb/v7e-m+fp/hard/libc_nano.a(lib_a-strlen.o)
 .ARM.attributes
                0x0000000000000a4a       0x34 /Users/johannes/Library/Application Support/Code/User/globalStorage/bmd.stm32-for-vscode/@xpack-dev-tools/arm-none-eabi-gcc/11.2.1-1.2.2/.content/bin/../lib/gcc/arm-none-eabi/11.2.1/../../../../arm-none-eabi/lib/thumb/v7e-m+fp/hard/libc_nano.a(lib_a-mlock.o)
 .ARM.attributes
                0x0000000000000a7e       0x34 /Users/johannes/Library/Application Support/Code/User/globalStorage/bmd.stm32-for-vscode/@xpack-dev-tools/arm-none-eabi-gcc/11.2.1-1.2.2/.content/bin/../lib/gcc/arm-none-eabi/11.2.1/../../../../arm-none-eabi/lib/thumb/v7e-m+fp/hard/libc_nano.a(lib_a-reent.o)
 .ARM.attributes
                0x0000000000000ab2       0x34 /Users/johannes/Library/Application Support/Code/User/globalStorage/bmd.stm32-for-vscode/@xpack-dev-tools/arm-none-eabi-gcc/11.2.1-1.2.2/.content/bin/../lib/gcc/arm-none-eabi/11.2.1/../../../../arm-none-eabi/lib/thumb/v7e-m+fp/hard/libnosys.a(sbrk.o)
 .ARM.attributes
                0x0000000000000ae6       0x1e /Users/johannes/Library/Application Support/Code/User/globalStorage/bmd.stm32-for-vscode/@xpack-dev-tools/arm-none-eabi-gcc/11.2.1-1.2.2/.content/bin/../lib/gcc/arm-none-eabi/11.2.1/thumb/v7e-m+fp/hard/libgcc.a(_arm_muldf3.o)
 .ARM.attributes
                0x0000000000000b04       0x1e /Users/johannes/Library/Application Support/Code/User/globalStorage/bmd.stm32-for-vscode/@xpack-dev-tools/arm-none-eabi-gcc/11.2.1-1.2.2/.content/bin/../lib/gcc/arm-none-eabi/11.2.1/thumb/v7e-m+fp/hard/libgcc.a(_arm_addsubdf3.o)
 .ARM.attributes
                0x0000000000000b22       0x1e /Users/johannes/Library/Application Support/Code/User/globalStorage/bmd.stm32-for-vscode/@xpack-dev-tools/arm-none-eabi-gcc/11.2.1-1.2.2/.content/bin/../lib/gcc/arm-none-eabi/11.2.1/thumb/v7e-m+fp/hard/libgcc.a(_arm_cmpdf2.o)
 .ARM.attributes
                0x0000000000000b40       0x1e /Users/johannes/Library/Application Support/Code/User/globalStorage/bmd.stm32-for-vscode/@xpack-dev-tools/arm-none-eabi-gcc/11.2.1-1.2.2/.content/bin/../lib/gcc/arm-none-eabi/11.2.1/thumb/v7e-m+fp/hard/libgcc.a(_arm_truncdfsf2.o)
 .ARM.attributes
                0x0000000000000b5e       0x1e /Users/johannes/Library/Application Support/Code/User/globalStorage/bmd.stm32-for-vscode/@xpack-dev-tools/arm-none-eabi-gcc/11.2.1-1.2.2/.content/bin/../lib/gcc/arm-none-eabi/11.2.1/thumb/v7e-m+fp/hard/libgcc.a(_aeabi_uldivmod.o)
 .ARM.attributes
                0x0000000000000b7c       0x34 /Users/johannes/Library/Application Support/Code/User/globalStorage/bmd.stm32-for-vscode/@xpack-dev-tools/arm-none-eabi-gcc/11.2.1-1.2.2/.content/bin/../lib/gcc/arm-none-eabi/11.2.1/thumb/v7e-m+fp/hard/libgcc.a(_udivmoddi4.o)
 .ARM.attributes
                0x0000000000000bb0       0x1e /Users/johannes/Library/Application Support/Code/User/globalStorage/bmd.stm32-for-vscode/@xpack-dev-tools/arm-none-eabi-gcc/11.2.1-1.2.2/.content/bin/../lib/gcc/arm-none-eabi/11.2.1/thumb/v7e-m+fp/hard/libgcc.a(_dvmd_tls.o)
 .ARM.attributes
                0x0000000000000bce       0x1e /Users/johannes/Library/Application Support/Code/User/globalStorage/bmd.stm32-for-vscode/@xpack-dev-tools/arm-none-eabi-gcc/11.2.1-1.2.2/.content/bin/../lib/gcc/arm-none-eabi/11.2.1/thumb/v7e-m+fp/hard/crtn.o
OUTPUT(build/stm32f407g_MES_Minisynth.elf elf32-littlearm)
LOAD linker stubs
LOAD /Users/johannes/Library/Application Support/Code/User/globalStorage/bmd.stm32-for-vscode/@xpack-dev-tools/arm-none-eabi-gcc/11.2.1-1.2.2/.content/bin/../lib/gcc/arm-none-eabi/11.2.1/../../../../arm-none-eabi/lib/thumb/v7e-m+fp/hard/libc.a
LOAD /Users/johannes/Library/Application Support/Code/User/globalStorage/bmd.stm32-for-vscode/@xpack-dev-tools/arm-none-eabi-gcc/11.2.1-1.2.2/.content/bin/../lib/gcc/arm-none-eabi/11.2.1/../../../../arm-none-eabi/lib/thumb/v7e-m+fp/hard/libm.a
LOAD /Users/johannes/Library/Application Support/Code/User/globalStorage/bmd.stm32-for-vscode/@xpack-dev-tools/arm-none-eabi-gcc/11.2.1-1.2.2/.content/bin/../lib/gcc/arm-none-eabi/11.2.1/thumb/v7e-m+fp/hard/libgcc.a

.comment        0x0000000000000000       0x39
 .comment       0x0000000000000000       0x39 /Users/johannes/Library/Application Support/Code/User/globalStorage/bmd.stm32-for-vscode/@xpack-dev-tools/arm-none-eabi-gcc/11.2.1-1.2.2/.content/bin/../lib/gcc/arm-none-eabi/11.2.1/thumb/v7e-m+fp/hard/crtbegin.o
                                         0x3a (size before relaxing)
 .comment       0x0000000000000039       0x3a build/ADSR_envelope.o
 .comment       0x0000000000000039       0x3a build/MIDI_application.o
 .comment       0x0000000000000039       0x3a build/MIDI_event.o
 .comment       0x0000000000000039       0x3a build/SEGGER_RTT.o
 .comment       0x0000000000000039       0x3a build/audio.o
 .comment       0x0000000000000039       0x3a build/filters.o
 .comment       0x0000000000000039       0x3a build/gpio.o
 .comment       0x0000000000000039       0x3a build/helper_functions.o
 .comment       0x0000000000000039       0x3a build/i2c.o
 .comment       0x0000000000000039       0x3a build/i2s.o
 .comment       0x0000000000000039       0x3a build/ladder_filter.o
 .comment       0x0000000000000039       0x3a build/lut_tan.o
 .comment       0x0000000000000039       0x3a build/main.o
 .comment       0x0000000000000039       0x3a build/oscillators.o
 .comment       0x0000000000000039       0x3a build/spi.o
 .comment       0x0000000000000039       0x3a build/stereo_delay.o
 .comment       0x0000000000000039       0x3a build/stm32f4xx_hal_msp.o
 .comment       0x0000000000000039       0x3a build/stm32f4xx_it.o
 .comment       0x0000000000000039       0x3a build/system_stm32f4xx.o
 .comment       0x0000000000000039       0x3a build/usbh_MIDI.o
 .comment       0x0000000000000039       0x3a build/usbh_conf.o
 .comment       0x0000000000000039       0x3a build/cs43l22.o
 .comment       0x0000000000000039       0x3a build/stm32f4_discovery.o
 .comment       0x0000000000000039       0x3a build/stm32f4_discovery_audio.o
 .comment       0x0000000000000039       0x3a build/stm32f4xx_hal.o
 .comment       0x0000000000000039       0x3a build/stm32f4xx_hal_cortex.o
 .comment       0x0000000000000039       0x3a build/stm32f4xx_hal_dma.o
 .comment       0x0000000000000039       0x3a build/stm32f4xx_hal_gpio.o
 .comment       0x0000000000000039       0x3a build/stm32f4xx_hal_hcd.o
 .comment       0x0000000000000039       0x3a build/stm32f4xx_hal_i2c.o
 .comment       0x0000000000000039       0x3a build/stm32f4xx_hal_i2s.o
 .comment       0x0000000000000039       0x3a build/stm32f4xx_hal_i2s_ex.o
 .comment       0x0000000000000039       0x3a build/stm32f4xx_hal_rcc.o
 .comment       0x0000000000000039       0x3a build/stm32f4xx_hal_rcc_ex.o
 .comment       0x0000000000000039       0x3a build/stm32f4xx_hal_spi.o
 .comment       0x0000000000000039       0x3a build/stm32f4xx_ll_usb.o
 .comment       0x0000000000000039       0x3a build/usbh_core.o
 .comment       0x0000000000000039       0x3a build/usbh_ctlreq.o
 .comment       0x0000000000000039       0x3a build/usbh_ioreq.o
 .comment       0x0000000000000039       0x3a build/usbh_pipes.o
 .comment       0x0000000000000039       0x3a /Users/johannes/Library/Application Support/Code/User/globalStorage/bmd.stm32-for-vscode/@xpack-dev-tools/arm-none-eabi-gcc/11.2.1-1.2.2/.content/bin/../lib/gcc/arm-none-eabi/11.2.1/../../../../arm-none-eabi/lib/thumb/v7e-m+fp/hard/libc_nano.a(lib_a-impure.o)
 .comment       0x0000000000000039       0x3a /Users/johannes/Library/Application Support/Code/User/globalStorage/bmd.stm32-for-vscode/@xpack-dev-tools/arm-none-eabi-gcc/11.2.1-1.2.2/.content/bin/../lib/gcc/arm-none-eabi/11.2.1/../../../../arm-none-eabi/lib/thumb/v7e-m+fp/hard/libc_nano.a(lib_a-init.o)
 .comment       0x0000000000000039       0x3a /Users/johannes/Library/Application Support/Code/User/globalStorage/bmd.stm32-for-vscode/@xpack-dev-tools/arm-none-eabi-gcc/11.2.1-1.2.2/.content/bin/../lib/gcc/arm-none-eabi/11.2.1/../../../../arm-none-eabi/lib/thumb/v7e-m+fp/hard/libc_nano.a(lib_a-malloc.o)
 .comment       0x0000000000000039       0x3a /Users/johannes/Library/Application Support/Code/User/globalStorage/bmd.stm32-for-vscode/@xpack-dev-tools/arm-none-eabi-gcc/11.2.1-1.2.2/.content/bin/../lib/gcc/arm-none-eabi/11.2.1/../../../../arm-none-eabi/lib/thumb/v7e-m+fp/hard/libc_nano.a(lib_a-memcpy-stub.o)
 .comment       0x0000000000000039       0x3a /Users/johannes/Library/Application Support/Code/User/globalStorage/bmd.stm32-for-vscode/@xpack-dev-tools/arm-none-eabi-gcc/11.2.1-1.2.2/.content/bin/../lib/gcc/arm-none-eabi/11.2.1/../../../../arm-none-eabi/lib/thumb/v7e-m+fp/hard/libc_nano.a(lib_a-memset.o)
 .comment       0x0000000000000039       0x3a /Users/johannes/Library/Application Support/Code/User/globalStorage/bmd.stm32-for-vscode/@xpack-dev-tools/arm-none-eabi-gcc/11.2.1-1.2.2/.content/bin/../lib/gcc/arm-none-eabi/11.2.1/../../../../arm-none-eabi/lib/thumb/v7e-m+fp/hard/libc_nano.a(lib_a-nano-freer.o)
 .comment       0x0000000000000039       0x3a /Users/johannes/Library/Application Support/Code/User/globalStorage/bmd.stm32-for-vscode/@xpack-dev-tools/arm-none-eabi-gcc/11.2.1-1.2.2/.content/bin/../lib/gcc/arm-none-eabi/11.2.1/../../../../arm-none-eabi/lib/thumb/v7e-m+fp/hard/libc_nano.a(lib_a-nano-mallocr.o)
 .comment       0x0000000000000039       0x3a /Users/johannes/Library/Application Support/Code/User/globalStorage/bmd.stm32-for-vscode/@xpack-dev-tools/arm-none-eabi-gcc/11.2.1-1.2.2/.content/bin/../lib/gcc/arm-none-eabi/11.2.1/../../../../arm-none-eabi/lib/thumb/v7e-m+fp/hard/libc_nano.a(lib_a-sbrkr.o)
 .comment       0x0000000000000039       0x3a /Users/johannes/Library/Application Support/Code/User/globalStorage/bmd.stm32-for-vscode/@xpack-dev-tools/arm-none-eabi-gcc/11.2.1-1.2.2/.content/bin/../lib/gcc/arm-none-eabi/11.2.1/../../../../arm-none-eabi/lib/thumb/v7e-m+fp/hard/libc_nano.a(lib_a-mlock.o)
 .comment       0x0000000000000039       0x3a /Users/johannes/Library/Application Support/Code/User/globalStorage/bmd.stm32-for-vscode/@xpack-dev-tools/arm-none-eabi-gcc/11.2.1-1.2.2/.content/bin/../lib/gcc/arm-none-eabi/11.2.1/../../../../arm-none-eabi/lib/thumb/v7e-m+fp/hard/libc_nano.a(lib_a-reent.o)
 .comment       0x0000000000000039       0x3a /Users/johannes/Library/Application Support/Code/User/globalStorage/bmd.stm32-for-vscode/@xpack-dev-tools/arm-none-eabi-gcc/11.2.1-1.2.2/.content/bin/../lib/gcc/arm-none-eabi/11.2.1/../../../../arm-none-eabi/lib/thumb/v7e-m+fp/hard/libnosys.a(sbrk.o)
 .comment       0x0000000000000039       0x3a /Users/johannes/Library/Application Support/Code/User/globalStorage/bmd.stm32-for-vscode/@xpack-dev-tools/arm-none-eabi-gcc/11.2.1-1.2.2/.content/bin/../lib/gcc/arm-none-eabi/11.2.1/thumb/v7e-m+fp/hard/libgcc.a(_udivmoddi4.o)

.debug_info     0x0000000000000000    0x2a487
 .debug_info    0x0000000000000000      0xb4d build/ADSR_envelope.o
 .debug_info    0x0000000000000b4d      0xdfb build/MIDI_application.o
 .debug_info    0x0000000000001948      0xfb7 build/MIDI_event.o
 .debug_info    0x00000000000028ff     0x3cf2 build/SEGGER_RTT.o
 .debug_info    0x00000000000065f1      0xf5d build/audio.o
 .debug_info    0x000000000000754e      0x26a build/filters.o
 .debug_info    0x00000000000077b8      0x5b4 build/gpio.o
 .debug_info    0x0000000000007d6c      0x195 build/helper_functions.o
 .debug_info    0x0000000000007f01      0x9f4 build/i2c.o
 .debug_info    0x00000000000088f5      0xaf2 build/i2s.o
 .debug_info    0x00000000000093e7      0x345 build/ladder_filter.o
 .debug_info    0x000000000000972c       0x58 build/lut_tan.o
 .debug_info    0x0000000000009784      0xf94 build/main.o
 .debug_info    0x000000000000a718      0x6a7 build/oscillators.o
 .debug_info    0x000000000000adbf      0x9b1 build/spi.o
 .debug_info    0x000000000000b770      0x419 build/stereo_delay.o
 .debug_info    0x000000000000bb89      0x29c build/stm32f4xx_hal_msp.o
 .debug_info    0x000000000000be25      0x659 build/stm32f4xx_it.o
 .debug_info    0x000000000000c47e      0x527 build/system_stm32f4xx.o
 .debug_info    0x000000000000c9a5     0x1241 build/usbh_MIDI.o
 .debug_info    0x000000000000dbe6     0x1d88 build/usbh_conf.o
 .debug_info    0x000000000000f96e     0x1b4f build/cs43l22.o
 .debug_info    0x00000000000114bd     0x1f8b build/stm32f4_discovery.o
 .debug_info    0x0000000000013448     0x1f03 build/stm32f4_discovery_audio.o
 .debug_info    0x000000000001534b      0xa1c build/stm32f4xx_hal.o
 .debug_info    0x0000000000015d67      0xf7e build/stm32f4xx_hal_cortex.o
 .debug_info    0x0000000000016ce5      0xb1e build/stm32f4xx_hal_dma.o
 .debug_info    0x0000000000017803      0x708 build/stm32f4xx_hal_gpio.o
 .debug_info    0x0000000000017f0b     0x1533 build/stm32f4xx_hal_hcd.o
 .debug_info    0x000000000001943e     0x43c3 build/stm32f4xx_hal_i2c.o
 .debug_info    0x000000000001d801     0x1263 build/stm32f4xx_hal_i2s.o
 .debug_info    0x000000000001ea64      0xe74 build/stm32f4xx_hal_i2s_ex.o
 .debug_info    0x000000000001f8d8      0xad3 build/stm32f4xx_hal_rcc.o
 .debug_info    0x00000000000203ab      0x651 build/stm32f4xx_hal_rcc_ex.o
 .debug_info    0x00000000000209fc     0x24df build/stm32f4xx_hal_spi.o
 .debug_info    0x0000000000022edb     0x2263 build/stm32f4xx_ll_usb.o
 .debug_info    0x000000000002513e     0x15ff build/usbh_core.o
 .debug_info    0x000000000002673d     0x2434 build/usbh_ctlreq.o
 .debug_info    0x0000000000028b71      0xe3f build/usbh_ioreq.o
 .debug_info    0x00000000000299b0      0xab4 build/usbh_pipes.o
 .debug_info    0x000000000002a464       0x23 build/startup_stm32f407xx.o

.debug_abbrev   0x0000000000000000     0x6fb8
 .debug_abbrev  0x0000000000000000      0x260 build/ADSR_envelope.o
 .debug_abbrev  0x0000000000000260      0x348 build/MIDI_application.o
 .debug_abbrev  0x00000000000005a8      0x34d build/MIDI_event.o
 .debug_abbrev  0x00000000000008f5      0x34d build/SEGGER_RTT.o
 .debug_abbrev  0x0000000000000c42      0x348 build/audio.o
 .debug_abbrev  0x0000000000000f8a      0x183 build/filters.o
 .debug_abbrev  0x000000000000110d      0x16d build/gpio.o
 .debug_abbrev  0x000000000000127a       0xa5 build/helper_functions.o
 .debug_abbrev  0x000000000000131f      0x227 build/i2c.o
 .debug_abbrev  0x0000000000001546      0x224 build/i2s.o
 .debug_abbrev  0x000000000000176a      0x1e5 build/ladder_filter.o
 .debug_abbrev  0x000000000000194f       0x48 build/lut_tan.o
 .debug_abbrev  0x0000000000001997      0x359 build/main.o
 .debug_abbrev  0x0000000000001cf0      0x240 build/oscillators.o
 .debug_abbrev  0x0000000000001f30      0x229 build/spi.o
 .debug_abbrev  0x0000000000002159      0x205 build/stereo_delay.o
 .debug_abbrev  0x000000000000235e      0x107 build/stm32f4xx_hal_msp.o
 .debug_abbrev  0x0000000000002465      0x1e5 build/stm32f4xx_it.o
 .debug_abbrev  0x000000000000264a      0x11e build/system_stm32f4xx.o
 .debug_abbrev  0x0000000000002768      0x42b build/usbh_MIDI.o
 .debug_abbrev  0x0000000000002b93      0x3e5 build/usbh_conf.o
 .debug_abbrev  0x0000000000002f78      0x3a0 build/cs43l22.o
 .debug_abbrev  0x0000000000003318      0x446 build/stm32f4_discovery.o
 .debug_abbrev  0x000000000000375e      0x422 build/stm32f4_discovery_audio.o
 .debug_abbrev  0x0000000000003b80      0x282 build/stm32f4xx_hal.o
 .debug_abbrev  0x0000000000003e02      0x381 build/stm32f4xx_hal_cortex.o
 .debug_abbrev  0x0000000000004183      0x335 build/stm32f4xx_hal_dma.o
 .debug_abbrev  0x00000000000044b8      0x213 build/stm32f4xx_hal_gpio.o
 .debug_abbrev  0x00000000000046cb      0x34b build/stm32f4xx_hal_hcd.o
 .debug_abbrev  0x0000000000004a16      0x424 build/stm32f4xx_hal_i2c.o
 .debug_abbrev  0x0000000000004e3a      0x320 build/stm32f4xx_hal_i2s.o
 .debug_abbrev  0x000000000000515a      0x37e build/stm32f4xx_hal_i2s_ex.o
 .debug_abbrev  0x00000000000054d8      0x34e build/stm32f4xx_hal_rcc.o
 .debug_abbrev  0x0000000000005826      0x1c1 build/stm32f4xx_hal_rcc_ex.o
 .debug_abbrev  0x00000000000059e7      0x3c2 build/stm32f4xx_hal_spi.o
 .debug_abbrev  0x0000000000005da9      0x435 build/stm32f4xx_ll_usb.o
 .debug_abbrev  0x00000000000061de      0x46b build/usbh_core.o
 .debug_abbrev  0x0000000000006649      0x428 build/usbh_ctlreq.o
 .debug_abbrev  0x0000000000006a71      0x25b build/usbh_ioreq.o
 .debug_abbrev  0x0000000000006ccc      0x2da build/usbh_pipes.o
 .debug_abbrev  0x0000000000006fa6       0x12 build/startup_stm32f407xx.o

.debug_loclists
                0x0000000000000000    0x19fd4
 .debug_loclists
                0x0000000000000000      0x41e build/ADSR_envelope.o
 .debug_loclists
                0x000000000000041e      0x14c build/MIDI_application.o
 .debug_loclists
                0x000000000000056a      0x15d build/MIDI_event.o
 .debug_loclists
                0x00000000000006c7     0x6047 build/SEGGER_RTT.o
 .debug_loclists
                0x000000000000670e      0x408 build/audio.o
 .debug_loclists
                0x0000000000006b16       0x6c build/filters.o
 .debug_loclists
                0x0000000000006b82       0xc8 build/helper_functions.o
 .debug_loclists
                0x0000000000006c4a       0x3a build/i2c.o
 .debug_loclists
                0x0000000000006c84       0x3b build/i2s.o
 .debug_loclists
                0x0000000000006cbf      0x1cb build/ladder_filter.o
 .debug_loclists
                0x0000000000006e8a      0x4a2 build/oscillators.o
 .debug_loclists
                0x000000000000732c       0x3a build/spi.o
 .debug_loclists
                0x0000000000007366      0x172 build/stereo_delay.o
 .debug_loclists
                0x00000000000074d8       0xcb build/system_stm32f4xx.o
 .debug_loclists
                0x00000000000075a3      0x404 build/usbh_MIDI.o
 .debug_loclists
                0x00000000000079a7      0x36e build/usbh_conf.o
 .debug_loclists
                0x0000000000007d15      0xc6f build/cs43l22.o
 .debug_loclists
                0x0000000000008984      0x3c9 build/stm32f4_discovery.o
 .debug_loclists
                0x0000000000008d4d      0x749 build/stm32f4_discovery_audio.o
 .debug_loclists
                0x0000000000009496       0xe2 build/stm32f4xx_hal.o
 .debug_loclists
                0x0000000000009578      0x4a3 build/stm32f4xx_hal_cortex.o
 .debug_loclists
                0x0000000000009a1b      0x6c4 build/stm32f4xx_hal_dma.o
 .debug_loclists
                0x000000000000a0df      0x37e build/stm32f4xx_hal_gpio.o
 .debug_loclists
                0x000000000000a45d      0xb6e build/stm32f4xx_hal_hcd.o
 .debug_loclists
                0x000000000000afcb     0x3780 build/stm32f4xx_hal_i2c.o
 .debug_loclists
                0x000000000000e74b      0xbd0 build/stm32f4xx_hal_i2s.o
 .debug_loclists
                0x000000000000f31b      0x7b9 build/stm32f4xx_hal_i2s_ex.o
 .debug_loclists
                0x000000000000fad4      0x356 build/stm32f4xx_hal_rcc.o
 .debug_loclists
                0x000000000000fe2a      0x22a build/stm32f4xx_hal_rcc_ex.o
 .debug_loclists
                0x0000000000010054     0x1a09 build/stm32f4xx_hal_spi.o
 .debug_loclists
                0x0000000000011a5d     0x1ea3 build/stm32f4xx_ll_usb.o
 .debug_loclists
                0x0000000000013900     0x191b build/usbh_core.o
 .debug_loclists
                0x000000000001521b     0x483f build/usbh_ctlreq.o
 .debug_loclists
                0x0000000000019a5a      0x394 build/usbh_ioreq.o
 .debug_loclists
                0x0000000000019dee      0x1e6 build/usbh_pipes.o

.debug_aranges  0x0000000000000000     0x13a8
 .debug_aranges
                0x0000000000000000       0x80 build/ADSR_envelope.o
 .debug_aranges
                0x0000000000000080       0x30 build/MIDI_application.o
 .debug_aranges
                0x00000000000000b0       0x38 build/MIDI_event.o
 .debug_aranges
                0x00000000000000e8      0x110 build/SEGGER_RTT.o
 .debug_aranges
                0x00000000000001f8       0x60 build/audio.o
 .debug_aranges
                0x0000000000000258       0x30 build/filters.o
 .debug_aranges
                0x0000000000000288       0x20 build/gpio.o
 .debug_aranges
                0x00000000000002a8       0x28 build/helper_functions.o
 .debug_aranges
                0x00000000000002d0       0x30 build/i2c.o
 .debug_aranges
                0x0000000000000300       0x30 build/i2s.o
 .debug_aranges
                0x0000000000000330       0x28 build/ladder_filter.o
 .debug_aranges
                0x0000000000000358       0x18 build/lut_tan.o
 .debug_aranges
                0x0000000000000370       0x30 build/main.o
 .debug_aranges
                0x00000000000003a0       0x40 build/oscillators.o
 .debug_aranges
                0x00000000000003e0       0x30 build/spi.o
 .debug_aranges
                0x0000000000000410       0x40 build/stereo_delay.o
 .debug_aranges
                0x0000000000000450       0x20 build/stm32f4xx_hal_msp.o
 .debug_aranges
                0x0000000000000470       0x58 build/stm32f4xx_it.o
 .debug_aranges
                0x00000000000004c8       0x28 build/system_stm32f4xx.o
 .debug_aranges
                0x00000000000004f0       0x68 build/usbh_MIDI.o
 .debug_aranges
                0x0000000000000558       0xd0 build/usbh_conf.o
 .debug_aranges
                0x0000000000000628       0x78 build/cs43l22.o
 .debug_aranges
                0x00000000000006a0       0xa0 build/stm32f4_discovery.o
 .debug_aranges
                0x0000000000000740      0x100 build/stm32f4_discovery_audio.o
 .debug_aranges
                0x0000000000000840       0xe8 build/stm32f4xx_hal.o
 .debug_aranges
                0x0000000000000928       0xa8 build/stm32f4xx_hal_cortex.o
 .debug_aranges
                0x00000000000009d0       0x78 build/stm32f4xx_hal_dma.o
 .debug_aranges
                0x0000000000000a48       0x58 build/stm32f4xx_hal_gpio.o
 .debug_aranges
                0x0000000000000aa0       0xa8 build/stm32f4xx_hal_hcd.o
 .debug_aranges
                0x0000000000000b48      0x188 build/stm32f4xx_hal_i2c.o
 .debug_aranges
                0x0000000000000cd0       0xc0 build/stm32f4xx_hal_i2s.o
 .debug_aranges
                0x0000000000000d90       0x58 build/stm32f4xx_hal_i2s_ex.o
 .debug_aranges
                0x0000000000000de8       0x88 build/stm32f4xx_hal_rcc.o
 .debug_aranges
                0x0000000000000e70       0x48 build/stm32f4xx_hal_rcc_ex.o
 .debug_aranges
                0x0000000000000eb8      0x178 build/stm32f4xx_hal_spi.o
 .debug_aranges
                0x0000000000001030      0x198 build/stm32f4xx_ll_usb.o
 .debug_aranges
                0x00000000000011c8       0xa8 build/usbh_core.o
 .debug_aranges
                0x0000000000001270       0x78 build/usbh_ctlreq.o
 .debug_aranges
                0x00000000000012e8       0x60 build/usbh_ioreq.o
 .debug_aranges
                0x0000000000001348       0x38 build/usbh_pipes.o
 .debug_aranges
                0x0000000000001380       0x28 build/startup_stm32f407xx.o

.debug_rnglists
                0x0000000000000000     0x2fa5
 .debug_rnglists
                0x0000000000000000      0x16f build/ADSR_envelope.o
 .debug_rnglists
                0x000000000000016f       0x2e build/MIDI_application.o
 .debug_rnglists
                0x000000000000019d       0x70 build/MIDI_event.o
 .debug_rnglists
                0x000000000000020d      0x730 build/SEGGER_RTT.o
 .debug_rnglists
                0x000000000000093d      0x112 build/audio.o
 .debug_rnglists
                0x0000000000000a4f       0x1f build/filters.o
 .debug_rnglists
                0x0000000000000a6e       0x2f build/gpio.o
 .debug_rnglists
                0x0000000000000a9d       0x19 build/helper_functions.o
 .debug_rnglists
                0x0000000000000ab6       0x2e build/i2c.o
 .debug_rnglists
                0x0000000000000ae4       0x38 build/i2s.o
 .debug_rnglists
                0x0000000000000b1c       0x49 build/ladder_filter.o
 .debug_rnglists
                0x0000000000000b65       0x44 build/main.o
 .debug_rnglists
                0x0000000000000ba9      0x105 build/oscillators.o
 .debug_rnglists
                0x0000000000000cae       0x31 build/spi.o
 .debug_rnglists
                0x0000000000000cdf       0x48 build/stereo_delay.o
 .debug_rnglists
                0x0000000000000d27       0x1f build/stm32f4xx_hal_msp.o
 .debug_rnglists
                0x0000000000000d46       0x3d build/stm32f4xx_it.o
 .debug_rnglists
                0x0000000000000d83       0x19 build/system_stm32f4xx.o
 .debug_rnglists
                0x0000000000000d9c       0xb4 build/usbh_MIDI.o
 .debug_rnglists
                0x0000000000000e50       0xc2 build/usbh_conf.o
 .debug_rnglists
                0x0000000000000f12       0xe1 build/cs43l22.o
 .debug_rnglists
                0x0000000000000ff3      0x2b1 build/stm32f4_discovery.o
 .debug_rnglists
                0x00000000000012a4      0x129 build/stm32f4_discovery_audio.o
 .debug_rnglists
                0x00000000000013cd       0xa9 build/stm32f4xx_hal.o
 .debug_rnglists
                0x0000000000001476       0xee build/stm32f4xx_hal_cortex.o
 .debug_rnglists
                0x0000000000001564       0x9f build/stm32f4xx_hal_dma.o
 .debug_rnglists
                0x0000000000001603       0x4b build/stm32f4xx_hal_gpio.o
 .debug_rnglists
                0x000000000000164e      0x13d build/stm32f4xx_hal_hcd.o
 .debug_rnglists
                0x000000000000178b      0x8f4 build/stm32f4xx_hal_i2c.o
 .debug_rnglists
                0x000000000000207f      0x146 build/stm32f4xx_hal_i2s.o
 .debug_rnglists
                0x00000000000021c5       0xa6 build/stm32f4xx_hal_i2s_ex.o
 .debug_rnglists
                0x000000000000226b       0xcf build/stm32f4xx_hal_rcc.o
 .debug_rnglists
                0x000000000000233a       0x3f build/stm32f4xx_hal_rcc_ex.o
 .debug_rnglists
                0x0000000000002379      0x2f1 build/stm32f4xx_hal_spi.o
 .debug_rnglists
                0x000000000000266a      0x216 build/stm32f4xx_ll_usb.o
 .debug_rnglists
                0x0000000000002880       0xd8 build/usbh_core.o
 .debug_rnglists
                0x0000000000002958      0x5bb build/usbh_ctlreq.o
 .debug_rnglists
                0x0000000000002f13       0x43 build/usbh_ioreq.o
 .debug_rnglists
                0x0000000000002f56       0x36 build/usbh_pipes.o
 .debug_rnglists
                0x0000000000002f8c       0x19 build/startup_stm32f407xx.o

.debug_line     0x0000000000000000    0x2440c
 .debug_line    0x0000000000000000      0x7e0 build/ADSR_envelope.o
 .debug_line    0x00000000000007e0      0x465 build/MIDI_application.o
 .debug_line    0x0000000000000c45      0x50f build/MIDI_event.o
 .debug_line    0x0000000000001154     0x520b build/SEGGER_RTT.o
 .debug_line    0x000000000000635f      0x7ce build/audio.o
 .debug_line    0x0000000000006b2d      0x2c2 build/filters.o
 .debug_line    0x0000000000006def      0x369 build/gpio.o
 .debug_line    0x0000000000007158      0x245 build/helper_functions.o
 .debug_line    0x000000000000739d      0x391 build/i2c.o
 .debug_line    0x000000000000772e      0x410 build/i2s.o
 .debug_line    0x0000000000007b3e      0x3ca build/ladder_filter.o
 .debug_line    0x0000000000007f08       0x33 build/lut_tan.o
 .debug_line    0x0000000000007f3b      0x4f7 build/main.o
 .debug_line    0x0000000000008432      0x6fd build/oscillators.o
 .debug_line    0x0000000000008b2f      0x3a2 build/spi.o
 .debug_line    0x0000000000008ed1      0x4c4 build/stereo_delay.o
 .debug_line    0x0000000000009395      0x262 build/stm32f4xx_hal_msp.o
 .debug_line    0x00000000000095f7      0x35e build/stm32f4xx_it.o
 .debug_line    0x0000000000009955      0x2e4 build/system_stm32f4xx.o
 .debug_line    0x0000000000009c39      0x892 build/usbh_MIDI.o
 .debug_line    0x000000000000a4cb      0x6e3 build/usbh_conf.o
 .debug_line    0x000000000000abae      0x98c build/cs43l22.o
 .debug_line    0x000000000000b53a      0xbfc build/stm32f4_discovery.o
 .debug_line    0x000000000000c136      0xf71 build/stm32f4_discovery_audio.o
 .debug_line    0x000000000000d0a7      0x658 build/stm32f4xx_hal.o
 .debug_line    0x000000000000d6ff      0x8c2 build/stm32f4xx_hal_cortex.o
 .debug_line    0x000000000000dfc1     0x100f build/stm32f4xx_hal_dma.o
 .debug_line    0x000000000000efd0      0x856 build/stm32f4xx_hal_gpio.o
 .debug_line    0x000000000000f826     0x115b build/stm32f4xx_hal_hcd.o
 .debug_line    0x0000000000010981     0x646f build/stm32f4xx_hal_i2c.o
 .debug_line    0x0000000000016df0     0x1532 build/stm32f4xx_hal_i2s.o
 .debug_line    0x0000000000018322      0xf8c build/stm32f4xx_hal_i2s_ex.o
 .debug_line    0x00000000000192ae      0xc8d build/stm32f4xx_hal_rcc.o
 .debug_line    0x0000000000019f3b      0x78b build/stm32f4xx_hal_rcc_ex.o
 .debug_line    0x000000000001a6c6     0x2eae build/stm32f4xx_hal_spi.o
 .debug_line    0x000000000001d574     0x29c8 build/stm32f4xx_ll_usb.o
 .debug_line    0x000000000001ff3c     0x10be build/usbh_core.o
 .debug_line    0x0000000000020ffa     0x2be0 build/usbh_ctlreq.o
 .debug_line    0x0000000000023bda      0x3de build/usbh_ioreq.o
 .debug_line    0x0000000000023fb8      0x3de build/usbh_pipes.o
 .debug_line    0x0000000000024396       0x76 build/startup_stm32f407xx.o

.debug_str      0x0000000000000000     0x69e7
 .debug_str     0x0000000000000000      0x347 build/ADSR_envelope.o
                                        0x3ad (size before relaxing)
 .debug_str     0x0000000000000347      0xa1c build/MIDI_application.o
                                        0xc8e (size before relaxing)
 .debug_str     0x0000000000000d63       0xac build/MIDI_event.o
                                        0xd06 (size before relaxing)
 .debug_str     0x0000000000000e0f      0x4eb build/SEGGER_RTT.o
                                        0x6ef (size before relaxing)
 .debug_str     0x00000000000012fa      0x5fa build/audio.o
                                        0x909 (size before relaxing)
 .debug_str     0x00000000000018f4       0x6b build/filters.o
                                        0x26c (size before relaxing)
 .debug_str     0x000000000000195f      0x159 build/gpio.o
                                        0x3c9 (size before relaxing)
 .debug_str     0x0000000000001ab8       0x4e build/helper_functions.o
                                        0x249 (size before relaxing)
 .debug_str     0x0000000000001b06      0x303 build/i2c.o
                                        0x8e7 (size before relaxing)
 .debug_str     0x0000000000001e09       0xef build/i2s.o
                                        0x8cf (size before relaxing)
 .debug_str     0x0000000000001ef8       0x34 build/ladder_filter.o
                                        0x28c (size before relaxing)
 .debug_str     0x0000000000001f2c       0x13 build/lut_tan.o
                                        0x144 (size before relaxing)
 .debug_str     0x0000000000001f3f      0x1c7 build/main.o
                                        0xd59 (size before relaxing)
 .debug_str     0x0000000000002106       0x4a build/oscillators.o
                                        0x29a (size before relaxing)
 .debug_str     0x0000000000002150      0x18f build/spi.o
                                        0x844 (size before relaxing)
 .debug_str     0x00000000000022df       0xda build/stereo_delay.o
                                        0x357 (size before relaxing)
 .debug_str     0x00000000000023b9       0x46 build/stm32f4xx_hal_msp.o
                                        0x315 (size before relaxing)
 .debug_str     0x00000000000023ff      0x430 build/stm32f4xx_it.o
                                        0x6cb (size before relaxing)
 .debug_str     0x000000000000282f       0xd8 build/system_stm32f4xx.o
                                        0x3a0 (size before relaxing)
 .debug_str     0x0000000000002907      0x39c build/usbh_MIDI.o
                                        0xdc8 (size before relaxing)
 .debug_str     0x0000000000002ca3      0x8af build/usbh_conf.o
                                       0x18da (size before relaxing)
 .debug_str     0x0000000000003552      0x19c build/cs43l22.o
                                        0x410 (size before relaxing)
 .debug_str     0x00000000000036ee      0x315 build/stm32f4_discovery.o
                                       0x131a (size before relaxing)
 .debug_str     0x0000000000003a03      0x582 build/stm32f4_discovery_audio.o
                                       0x14a7 (size before relaxing)
 .debug_str     0x0000000000003f85      0x31b build/stm32f4xx_hal.o
                                        0xb8f (size before relaxing)
 .debug_str     0x00000000000042a0      0x423 build/stm32f4xx_hal_cortex.o
                                        0xc57 (size before relaxing)
 .debug_str     0x00000000000046c3      0x2ce build/stm32f4xx_hal_dma.o
                                        0x7a1 (size before relaxing)
 .debug_str     0x0000000000004991       0xf3 build/stm32f4xx_hal_gpio.o
                                        0x50b (size before relaxing)
 .debug_str     0x0000000000004a84      0x34f build/stm32f4xx_hal_hcd.o
                                        0xb7d (size before relaxing)
 .debug_str     0x0000000000004dd3      0x84c build/stm32f4xx_hal_i2c.o
                                       0x105b (size before relaxing)
 .debug_str     0x000000000000561f      0x1aa build/stm32f4xx_hal_i2s.o
                                        0x97b (size before relaxing)
 .debug_str     0x00000000000057c9      0x1be build/stm32f4xx_hal_i2s_ex.o
                                        0x89c (size before relaxing)
 .debug_str     0x0000000000005987      0x181 build/stm32f4xx_hal_rcc.o
                                        0x731 (size before relaxing)
 .debug_str     0x0000000000005b08       0xbe build/stm32f4xx_hal_rcc_ex.o
                                        0x4f2 (size before relaxing)
 .debug_str     0x0000000000005bc6      0x4b8 build/stm32f4xx_hal_spi.o
                                        0xc25 (size before relaxing)
 .debug_str     0x000000000000607e      0x50e build/stm32f4xx_ll_usb.o
                                        0xcca (size before relaxing)
 .debug_str     0x000000000000658c      0x16e build/usbh_core.o
                                        0xcf2 (size before relaxing)
 .debug_str     0x00000000000066fa      0x1df build/usbh_ctlreq.o
                                        0xca6 (size before relaxing)
 .debug_str     0x00000000000068d9       0x94 build/usbh_ioreq.o
                                        0xadb (size before relaxing)
 .debug_str     0x000000000000696d       0x55 build/usbh_pipes.o
                                        0xa71 (size before relaxing)
 .debug_str     0x00000000000069c2       0x25 build/startup_stm32f407xx.o
                                         0x9c (size before relaxing)

.debug_frame    0x0000000000000000     0x3f64
 .debug_frame   0x0000000000000000      0x214 build/ADSR_envelope.o
 .debug_frame   0x0000000000000214       0x7c build/MIDI_application.o
 .debug_frame   0x0000000000000290       0x94 build/MIDI_event.o
 .debug_frame   0x0000000000000324      0x4a0 build/SEGGER_RTT.o
 .debug_frame   0x00000000000007c4      0x158 build/audio.o
 .debug_frame   0x000000000000091c       0x4c build/filters.o
 .debug_frame   0x0000000000000968       0x3c build/gpio.o
 .debug_frame   0x00000000000009a4       0x30 build/helper_functions.o
 .debug_frame   0x00000000000009d4       0x70 build/i2c.o
 .debug_frame   0x0000000000000a44       0x74 build/i2s.o
 .debug_frame   0x0000000000000ab8       0x4c build/ladder_filter.o
 .debug_frame   0x0000000000000b04       0x58 build/main.o
 .debug_frame   0x0000000000000b5c       0x90 build/oscillators.o
 .debug_frame   0x0000000000000bec       0x60 build/spi.o
 .debug_frame   0x0000000000000c4c       0x98 build/stereo_delay.o
 .debug_frame   0x0000000000000ce4       0x28 build/stm32f4xx_hal_msp.o
 .debug_frame   0x0000000000000d0c       0xb0 build/stm32f4xx_it.o
 .debug_frame   0x0000000000000dbc       0x30 build/system_stm32f4xx.o
 .debug_frame   0x0000000000000dec      0x114 build/usbh_MIDI.o
 .debug_frame   0x0000000000000f00      0x1f8 build/usbh_conf.o
 .debug_frame   0x00000000000010f8      0x158 build/cs43l22.o
 .debug_frame   0x0000000000001250      0x22c build/stm32f4_discovery.o
 .debug_frame   0x000000000000147c      0x37c build/stm32f4_discovery_audio.o
 .debug_frame   0x00000000000017f8      0x1f4 build/stm32f4xx_hal.o
 .debug_frame   0x00000000000019ec      0x164 build/stm32f4xx_hal_cortex.o
 .debug_frame   0x0000000000001b50      0x194 build/stm32f4xx_hal_dma.o
 .debug_frame   0x0000000000001ce4       0xe0 build/stm32f4xx_hal_gpio.o
 .debug_frame   0x0000000000001dc4      0x23c build/stm32f4xx_hal_hcd.o
 .debug_frame   0x0000000000002000      0x868 build/stm32f4xx_hal_i2c.o
 .debug_frame   0x0000000000002868      0x31c build/stm32f4xx_hal_i2s.o
 .debug_frame   0x0000000000002b84      0x11c build/stm32f4xx_hal_i2s_ex.o
 .debug_frame   0x0000000000002ca0      0x18c build/stm32f4xx_hal_rcc.o
 .debug_frame   0x0000000000002e2c       0xb8 build/stm32f4xx_hal_rcc_ex.o
 .debug_frame   0x0000000000002ee4      0x63c build/stm32f4xx_hal_spi.o
 .debug_frame   0x0000000000003520      0x4e4 build/stm32f4xx_ll_usb.o
 .debug_frame   0x0000000000003a04      0x18c build/usbh_core.o
 .debug_frame   0x0000000000003b90      0x23c build/usbh_ctlreq.o
 .debug_frame   0x0000000000003dcc      0x130 build/usbh_ioreq.o
 .debug_frame   0x0000000000003efc       0x68 build/usbh_pipes.o

.debug_line_str
                0x0000000000000000       0x8d
 .debug_line_str
                0x0000000000000000       0x8d build/startup_stm32f407xx.o
                                         0xa3 (size before relaxing)

Cross Reference Table

Symbol                                            File
ACCELERO_IO_ITConfig                              build/stm32f4_discovery.o
                                                  build/lis3dsh.o
                                                  build/lis302dl.o
ACCELERO_IO_Init                                  build/stm32f4_discovery.o
                                                  build/lis3dsh.o
                                                  build/lis302dl.o
ACCELERO_IO_Read                                  build/stm32f4_discovery.o
                                                  build/lis3dsh.o
                                                  build/lis302dl.o
ACCELERO_IO_Write                                 build/stm32f4_discovery.o
                                                  build/lis3dsh.o
                                                  build/lis302dl.o
ADC_IRQHandler                                    build/startup_stm32f407xx.o
ADSR_calculateMultiplier                          build/ADSR_envelope.o
ADSR_compute                                      build/ADSR_envelope.o
                                                  build/audio.o
ADSR_getState                                     build/ADSR_envelope.o
ADSR_init                                         build/ADSR_envelope.o
                                                  build/audio.o
ADSR_keyOff                                       build/ADSR_envelope.o
                                                  build/MIDI_event.o
ADSR_keyOn                                        build/ADSR_envelope.o
                                                  build/MIDI_event.o
ADSR_setAllTimes                                  build/ADSR_envelope.o
ADSR_setAttackTime                                build/ADSR_envelope.o
ADSR_setDecayTime                                 build/ADSR_envelope.o
ADSR_setReleaseTime                               build/ADSR_envelope.o
ADSR_setSustainLevel                              build/ADSR_envelope.o
ADSR_setTarget                                    build/ADSR_envelope.o
ADSR_setValue                                     build/ADSR_envelope.o
AHBPrescTable                                     build/system_stm32f4xx.o
                                                  build/stm32f4xx_hal_rcc.o
APBPrescTable                                     build/system_stm32f4xx.o
                                                  build/stm32f4xx_hal_rcc.o
AUDIO_IO_DeInit                                   build/stm32f4_discovery.o
                                                  build/cs43l22.o
AUDIO_IO_Init                                     build/stm32f4_discovery.o
                                                  build/cs43l22.o
AUDIO_IO_Read                                     build/stm32f4_discovery.o
                                                  build/cs43l22.o
AUDIO_IO_Write                                    build/stm32f4_discovery.o
                                                  build/cs43l22.o
AUDIO_Init                                        build/audio.o
                                                  build/main.o
Appli_state                                       build/MIDI_event.o
                                                  build/MIDI_application.o
AudioInVolume                                     build/stm32f4_discovery_audio.o
BSP_ACCELERO_Click_ITClear                        build/stm32f4_discovery_accelerometer.o
BSP_ACCELERO_Click_ITConfig                       build/stm32f4_discovery_accelerometer.o
BSP_ACCELERO_GetXYZ                               build/stm32f4_discovery_accelerometer.o
BSP_ACCELERO_Init                                 build/stm32f4_discovery_accelerometer.o
BSP_ACCELERO_ReadID                               build/stm32f4_discovery_accelerometer.o
BSP_ACCELERO_Reset                                build/stm32f4_discovery_accelerometer.o
BSP_AUDIO_IN_ClockConfig                          build/stm32f4_discovery_audio.o
BSP_AUDIO_IN_Error_Callback                       build/stm32f4_discovery_audio.o
BSP_AUDIO_IN_HalfTransfer_CallBack                build/stm32f4_discovery_audio.o
BSP_AUDIO_IN_Init                                 build/stm32f4_discovery_audio.o
BSP_AUDIO_IN_MspDeInit                            build/stm32f4_discovery_audio.o
BSP_AUDIO_IN_MspInit                              build/stm32f4_discovery_audio.o
BSP_AUDIO_IN_PDMToPCM                             build/stm32f4_discovery_audio.o
BSP_AUDIO_IN_Pause                                build/stm32f4_discovery_audio.o
BSP_AUDIO_IN_Record                               build/stm32f4_discovery_audio.o
BSP_AUDIO_IN_Resume                               build/stm32f4_discovery_audio.o
BSP_AUDIO_IN_SetVolume                            build/stm32f4_discovery_audio.o
BSP_AUDIO_IN_Stop                                 build/stm32f4_discovery_audio.o
BSP_AUDIO_IN_TransferComplete_CallBack            build/stm32f4_discovery_audio.o
BSP_AUDIO_OUT_ChangeBuffer                        build/stm32f4_discovery_audio.o
BSP_AUDIO_OUT_ClockConfig                         build/stm32f4_discovery_audio.o
BSP_AUDIO_OUT_Error_CallBack                      build/audio.o
BSP_AUDIO_OUT_HalfTransfer_CallBack               build/audio.o
BSP_AUDIO_OUT_Init                                build/stm32f4_discovery_audio.o
                                                  build/audio.o
BSP_AUDIO_OUT_MspDeInit                           build/stm32f4_discovery_audio.o
BSP_AUDIO_OUT_MspInit                             build/stm32f4_discovery_audio.o
BSP_AUDIO_OUT_Pause                               build/stm32f4_discovery_audio.o
BSP_AUDIO_OUT_Play                                build/stm32f4_discovery_audio.o
                                                  build/audio.o
BSP_AUDIO_OUT_Resume                              build/stm32f4_discovery_audio.o
BSP_AUDIO_OUT_SetFrequency                        build/stm32f4_discovery_audio.o
BSP_AUDIO_OUT_SetMute                             build/stm32f4_discovery_audio.o
BSP_AUDIO_OUT_SetOutputMode                       build/stm32f4_discovery_audio.o
BSP_AUDIO_OUT_SetVolume                           build/stm32f4_discovery_audio.o
BSP_AUDIO_OUT_Stop                                build/stm32f4_discovery_audio.o
BSP_AUDIO_OUT_TransferComplete_CallBack           build/audio.o
BSP_GetVersion                                    build/stm32f4_discovery.o
BSP_LED_Init                                      build/stm32f4_discovery.o
BSP_LED_Off                                       build/stm32f4_discovery.o
BSP_LED_On                                        build/stm32f4_discovery.o
BSP_LED_Toggle                                    build/stm32f4_discovery.o
BSP_PB_GetState                                   build/stm32f4_discovery.o
BSP_PB_Init                                       build/stm32f4_discovery.o
BUTTON_IRQn                                       build/stm32f4_discovery.o
BUTTON_PIN                                        build/stm32f4_discovery.o
BUTTON_PORT                                       build/stm32f4_discovery.o
BusFault_Handler                                  build/stm32f4xx_it.o
CAN1_RX0_IRQHandler                               build/startup_stm32f407xx.o
CAN1_RX1_IRQHandler                               build/startup_stm32f407xx.o
CAN1_SCE_IRQHandler                               build/startup_stm32f407xx.o
CAN1_TX_IRQHandler                                build/startup_stm32f407xx.o
CAN2_RX0_IRQHandler                               build/startup_stm32f407xx.o
CAN2_RX1_IRQHandler                               build/startup_stm32f407xx.o
CAN2_SCE_IRQHandler                               build/startup_stm32f407xx.o
CAN2_TX_IRQHandler                                build/startup_stm32f407xx.o
CDC_Class                                         build/usbh_cdc.o
ConsoleCommandsGetTable                           build/consoleCommands.o
                                                  build/console.o
ConsoleInit                                       build/console.o
ConsoleIoInit                                     build/consoleIo.o
                                                  build/console.o
ConsoleIoReceive                                  build/consoleIo.o
                                                  build/console.o
ConsoleIoSendString                               build/consoleIo.o
                                                  build/consoleCommands.o
                                                  build/console.o
ConsoleProcess                                    build/console.o
ConsoleReceiveParamHexUint16                      build/console.o
ConsoleReceiveParamInt16                          build/console.o
                                                  build/consoleCommands.o
ConsoleSendLine                                   build/console.o
ConsoleSendParamHexUint16                         build/console.o
ConsoleSendParamHexUint8                          build/console.o
ConsoleSendParamInt16                             build/console.o
ConsoleSendParamInt32                             build/console.o
ConsoleSendString                                 build/console.o
DCMI_IRQHandler                                   build/startup_stm32f407xx.o
DMA1_Stream0_IRQHandler                           build/startup_stm32f407xx.o
DMA1_Stream1_IRQHandler                           build/startup_stm32f407xx.o
DMA1_Stream2_IRQHandler                           build/startup_stm32f407xx.o
DMA1_Stream3_IRQHandler                           build/audio.o
DMA1_Stream4_IRQHandler                           build/startup_stm32f407xx.o
DMA1_Stream5_IRQHandler                           build/startup_stm32f407xx.o
DMA1_Stream6_IRQHandler                           build/startup_stm32f407xx.o
DMA1_Stream7_IRQHandler                           build/audio.o
DMA2_Stream0_IRQHandler                           build/startup_stm32f407xx.o
DMA2_Stream1_IRQHandler                           build/startup_stm32f407xx.o
DMA2_Stream2_IRQHandler                           build/startup_stm32f407xx.o
DMA2_Stream3_IRQHandler                           build/startup_stm32f407xx.o
DMA2_Stream4_IRQHandler                           build/startup_stm32f407xx.o
DMA2_Stream5_IRQHandler                           build/startup_stm32f407xx.o
DMA2_Stream6_IRQHandler                           build/startup_stm32f407xx.o
DMA2_Stream7_IRQHandler                           build/startup_stm32f407xx.o
DebugMon_Handler                                  build/stm32f4xx_it.o
Default_Handler                                   build/startup_stm32f407xx.o
DelayFeedback_set                                 build/stereo_delay.o
DelayWet_set                                      build/stereo_delay.o
Delay_init                                        build/stereo_delay.o
                                                  build/audio.o
Delay_time_set                                    build/stereo_delay.o
ETH_IRQHandler                                    build/startup_stm32f407xx.o
ETH_WKUP_IRQHandler                               build/startup_stm32f407xx.o
EXTI0_IRQHandler                                  build/startup_stm32f407xx.o
EXTI15_10_IRQHandler                              build/startup_stm32f407xx.o
EXTI1_IRQHandler                                  build/startup_stm32f407xx.o
EXTI2_IRQHandler                                  build/startup_stm32f407xx.o
EXTI3_IRQHandler                                  build/startup_stm32f407xx.o
EXTI4_IRQHandler                                  build/startup_stm32f407xx.o
EXTI9_5_IRQHandler                                build/startup_stm32f407xx.o
Error_Handler                                     build/main.o
                                                  build/spi.o
                                                  build/i2s.o
                                                  build/i2c.o
FLASH_Erase_Sector                                build/stm32f4xx_hal_flash_ex.o
                                                  build/stm32f4xx_hal_flash.o
FLASH_FlushCaches                                 build/stm32f4xx_hal_flash_ex.o
                                                  build/stm32f4xx_hal_flash.o
FLASH_IRQHandler                                  build/startup_stm32f407xx.o
FLASH_WaitForLastOperation                        build/stm32f4xx_hal_flash.o
                                                  build/stm32f4xx_hal_flash_ex.o
FPU_IRQHandler                                    build/startup_stm32f407xx.o
FSMC_IRQHandler                                   build/startup_stm32f407xx.o
GPIO_PIN                                          build/stm32f4_discovery.o
GPIO_PORT                                         build/stm32f4_discovery.o
HAL_DBGMCU_DisableDBGSleepMode                    build/stm32f4xx_hal.o
HAL_DBGMCU_DisableDBGStandbyMode                  build/stm32f4xx_hal.o
HAL_DBGMCU_DisableDBGStopMode                     build/stm32f4xx_hal.o
HAL_DBGMCU_EnableDBGSleepMode                     build/stm32f4xx_hal.o
HAL_DBGMCU_EnableDBGStandbyMode                   build/stm32f4xx_hal.o
HAL_DBGMCU_EnableDBGStopMode                      build/stm32f4xx_hal.o
HAL_DMAEx_ChangeMemory                            build/stm32f4xx_hal_dma_ex.o
HAL_DMAEx_MultiBufferStart                        build/stm32f4xx_hal_dma_ex.o
HAL_DMAEx_MultiBufferStart_IT                     build/stm32f4xx_hal_dma_ex.o
HAL_DMA_Abort                                     build/stm32f4xx_hal_dma.o
                                                  build/stm32f4xx_hal_spi.o
                                                  build/stm32f4xx_hal_i2s.o
HAL_DMA_Abort_IT                                  build/stm32f4xx_hal_dma.o
                                                  build/stm32f4xx_hal_spi.o
                                                  build/stm32f4xx_hal_i2c.o
HAL_DMA_DeInit                                    build/stm32f4xx_hal_dma.o
                                                  build/stm32f4_discovery_audio.o
HAL_DMA_GetError                                  build/stm32f4xx_hal_dma.o
                                                  build/stm32f4xx_hal_i2c.o
HAL_DMA_GetState                                  build/stm32f4xx_hal_dma.o
                                                  build/stm32f4xx_hal_i2c.o
HAL_DMA_IRQHandler                                build/stm32f4xx_hal_dma.o
                                                  build/audio.o
HAL_DMA_Init                                      build/stm32f4xx_hal_dma.o
                                                  build/stm32f4_discovery_audio.o
HAL_DMA_PollForTransfer                           build/stm32f4xx_hal_dma.o
HAL_DMA_RegisterCallback                          build/stm32f4xx_hal_dma.o
HAL_DMA_Start                                     build/stm32f4xx_hal_dma.o
HAL_DMA_Start_IT                                  build/stm32f4xx_hal_dma.o
                                                  build/stm32f4xx_hal_spi.o
                                                  build/stm32f4xx_hal_i2s_ex.o
                                                  build/stm32f4xx_hal_i2s.o
                                                  build/stm32f4xx_hal_i2c.o
HAL_DMA_UnRegisterCallback                        build/stm32f4xx_hal_dma.o
HAL_DeInit                                        build/stm32f4xx_hal.o
HAL_Delay                                         build/stm32f4xx_hal.o
                                                  build/stm32f4xx_ll_usb.o
                                                  build/stm32f4_discovery_audio.o
                                                  build/stm32f4_discovery.o
                                                  build/usbh_conf.o
HAL_DisableCompensationCell                       build/stm32f4xx_hal.o
HAL_EXTI_ClearConfigLine                          build/stm32f4xx_hal_exti.o
HAL_EXTI_ClearPending                             build/stm32f4xx_hal_exti.o
HAL_EXTI_GenerateSWI                              build/stm32f4xx_hal_exti.o
HAL_EXTI_GetConfigLine                            build/stm32f4xx_hal_exti.o
HAL_EXTI_GetHandle                                build/stm32f4xx_hal_exti.o
HAL_EXTI_GetPending                               build/stm32f4xx_hal_exti.o
HAL_EXTI_IRQHandler                               build/stm32f4xx_hal_exti.o
HAL_EXTI_RegisterCallback                         build/stm32f4xx_hal_exti.o
HAL_EXTI_SetConfigLine                            build/stm32f4xx_hal_exti.o
HAL_EnableCompensationCell                        build/stm32f4xx_hal.o
HAL_FLASHEx_Erase                                 build/stm32f4xx_hal_flash_ex.o
HAL_FLASHEx_Erase_IT                              build/stm32f4xx_hal_flash_ex.o
HAL_FLASHEx_OBGetConfig                           build/stm32f4xx_hal_flash_ex.o
HAL_FLASHEx_OBProgram                             build/stm32f4xx_hal_flash_ex.o
HAL_FLASH_EndOfOperationCallback                  build/stm32f4xx_hal_flash.o
HAL_FLASH_GetError                                build/stm32f4xx_hal_flash.o
HAL_FLASH_IRQHandler                              build/stm32f4xx_hal_flash.o
HAL_FLASH_Lock                                    build/stm32f4xx_hal_flash.o
HAL_FLASH_OB_Launch                               build/stm32f4xx_hal_flash.o
HAL_FLASH_OB_Lock                                 build/stm32f4xx_hal_flash.o
HAL_FLASH_OB_Unlock                               build/stm32f4xx_hal_flash.o
HAL_FLASH_OperationErrorCallback                  build/stm32f4xx_hal_flash.o
HAL_FLASH_Program                                 build/stm32f4xx_hal_flash.o
HAL_FLASH_Program_IT                              build/stm32f4xx_hal_flash.o
HAL_FLASH_Unlock                                  build/stm32f4xx_hal_flash.o
HAL_GPIO_DeInit                                   build/stm32f4xx_hal_gpio.o
                                                  build/stm32f4_discovery_audio.o
                                                  build/spi.o
                                                  build/i2s.o
                                                  build/i2c.o
HAL_GPIO_EXTI_Callback                            build/stm32f4xx_hal_gpio.o
HAL_GPIO_EXTI_IRQHandler                          build/stm32f4xx_hal_gpio.o
HAL_GPIO_Init                                     build/stm32f4xx_hal_gpio.o
                                                  build/stm32f4xx_hal_rcc.o
                                                  build/stm32f4_discovery_audio.o
                                                  build/stm32f4_discovery.o
                                                  build/usbh_conf.o
                                                  build/spi.o
                                                  build/i2s.o
                                                  build/i2c.o
                                                  build/gpio.o
HAL_GPIO_LockPin                                  build/stm32f4xx_hal_gpio.o
HAL_GPIO_ReadPin                                  build/stm32f4xx_hal_gpio.o
                                                  build/stm32f4_discovery.o
HAL_GPIO_TogglePin                                build/stm32f4xx_hal_gpio.o
                                                  build/stm32f4_discovery.o
HAL_GPIO_WritePin                                 build/stm32f4xx_hal_gpio.o
                                                  build/stm32f4_discovery_audio.o
                                                  build/stm32f4_discovery.o
                                                  build/usbh_conf.o
                                                  build/gpio.o
                                                  build/MIDI_event.o
                                                  build/MIDI_application.o
HAL_GetDEVID                                      build/stm32f4xx_hal.o
HAL_GetHalVersion                                 build/stm32f4xx_hal.o
HAL_GetREVID                                      build/stm32f4xx_hal.o
HAL_GetTick                                       build/stm32f4xx_hal.o
                                                  build/stm32f4xx_hal_spi.o
                                                  build/stm32f4xx_hal_rcc_ex.o
                                                  build/stm32f4xx_hal_rcc.o
                                                  build/stm32f4xx_hal_pwr_ex.o
                                                  build/stm32f4xx_hal_i2s_ex.o
                                                  build/stm32f4xx_hal_i2s.o
                                                  build/stm32f4xx_hal_i2c.o
                                                  build/stm32f4xx_hal_flash.o
                                                  build/stm32f4xx_hal_dma.o
HAL_GetTickFreq                                   build/stm32f4xx_hal.o
HAL_GetTickPrio                                   build/stm32f4xx_hal.o
HAL_GetUIDw0                                      build/stm32f4xx_hal.o
HAL_GetUIDw1                                      build/stm32f4xx_hal.o
HAL_GetUIDw2                                      build/stm32f4xx_hal.o
HAL_HCD_Connect_Callback                          build/usbh_conf.o
HAL_HCD_DeInit                                    build/stm32f4xx_hal_hcd.o
                                                  build/usbh_conf.o
HAL_HCD_Disconnect_Callback                       build/usbh_conf.o
HAL_HCD_GetCurrentFrame                           build/stm32f4xx_hal_hcd.o
                                                  build/usbh_conf.o
HAL_HCD_GetCurrentSpeed                           build/stm32f4xx_hal_hcd.o
                                                  build/usbh_conf.o
HAL_HCD_GetState                                  build/stm32f4xx_hal_hcd.o
HAL_HCD_HC_GetState                               build/stm32f4xx_hal_hcd.o
HAL_HCD_HC_GetURBState                            build/stm32f4xx_hal_hcd.o
                                                  build/usbh_conf.o
HAL_HCD_HC_GetXferCount                           build/stm32f4xx_hal_hcd.o
                                                  build/usbh_conf.o
HAL_HCD_HC_Halt                                   build/stm32f4xx_hal_hcd.o
                                                  build/usbh_conf.o
HAL_HCD_HC_Init                                   build/stm32f4xx_hal_hcd.o
                                                  build/usbh_conf.o
HAL_HCD_HC_NotifyURBChange_Callback               build/usbh_conf.o
HAL_HCD_HC_SubmitRequest                          build/stm32f4xx_hal_hcd.o
                                                  build/usbh_conf.o
HAL_HCD_IRQHandler                                build/stm32f4xx_hal_hcd.o
                                                  build/stm32f4xx_it.o
HAL_HCD_Init                                      build/stm32f4xx_hal_hcd.o
                                                  build/usbh_conf.o
HAL_HCD_MspDeInit                                 build/usbh_conf.o
HAL_HCD_MspInit                                   build/usbh_conf.o
HAL_HCD_PortDisabled_Callback                     build/usbh_conf.o
HAL_HCD_PortEnabled_Callback                      build/usbh_conf.o
HAL_HCD_ResetPort                                 build/stm32f4xx_hal_hcd.o
                                                  build/usbh_conf.o
HAL_HCD_SOF_Callback                              build/usbh_conf.o
HAL_HCD_Start                                     build/stm32f4xx_hal_hcd.o
                                                  build/usbh_conf.o
HAL_HCD_Stop                                      build/stm32f4xx_hal_hcd.o
                                                  build/usbh_conf.o
HAL_HCD_WKUP_IRQHandler                           build/stm32f4xx_hal_hcd.o
HAL_I2C_AbortCpltCallback                         build/stm32f4xx_hal_i2c.o
HAL_I2C_AddrCallback                              build/stm32f4xx_hal_i2c.o
HAL_I2C_DeInit                                    build/stm32f4xx_hal_i2c.o
                                                  build/stm32f4_discovery.o
HAL_I2C_DisableListen_IT                          build/stm32f4xx_hal_i2c.o
HAL_I2C_ER_IRQHandler                             build/stm32f4xx_hal_i2c.o
HAL_I2C_EV_IRQHandler                             build/stm32f4xx_hal_i2c.o
HAL_I2C_EnableListen_IT                           build/stm32f4xx_hal_i2c.o
HAL_I2C_ErrorCallback                             build/stm32f4xx_hal_i2c.o
HAL_I2C_GetError                                  build/stm32f4xx_hal_i2c.o
HAL_I2C_GetMode                                   build/stm32f4xx_hal_i2c.o
HAL_I2C_GetState                                  build/stm32f4xx_hal_i2c.o
                                                  build/stm32f4_discovery.o
HAL_I2C_Init                                      build/stm32f4xx_hal_i2c.o
                                                  build/stm32f4_discovery.o
                                                  build/i2c.o
HAL_I2C_IsDeviceReady                             build/stm32f4xx_hal_i2c.o
HAL_I2C_ListenCpltCallback                        build/stm32f4xx_hal_i2c.o
HAL_I2C_MasterRxCpltCallback                      build/stm32f4xx_hal_i2c.o
HAL_I2C_MasterTxCpltCallback                      build/stm32f4xx_hal_i2c.o
HAL_I2C_Master_Abort_IT                           build/stm32f4xx_hal_i2c.o
HAL_I2C_Master_Receive                            build/stm32f4xx_hal_i2c.o
HAL_I2C_Master_Receive_DMA                        build/stm32f4xx_hal_i2c.o
HAL_I2C_Master_Receive_IT                         build/stm32f4xx_hal_i2c.o
HAL_I2C_Master_Seq_Receive_DMA                    build/stm32f4xx_hal_i2c.o
HAL_I2C_Master_Seq_Receive_IT                     build/stm32f4xx_hal_i2c.o
HAL_I2C_Master_Seq_Transmit_DMA                   build/stm32f4xx_hal_i2c.o
HAL_I2C_Master_Seq_Transmit_IT                    build/stm32f4xx_hal_i2c.o
HAL_I2C_Master_Transmit                           build/stm32f4xx_hal_i2c.o
HAL_I2C_Master_Transmit_DMA                       build/stm32f4xx_hal_i2c.o
HAL_I2C_Master_Transmit_IT                        build/stm32f4xx_hal_i2c.o
HAL_I2C_MemRxCpltCallback                         build/stm32f4xx_hal_i2c.o
HAL_I2C_MemTxCpltCallback                         build/stm32f4xx_hal_i2c.o
HAL_I2C_Mem_Read                                  build/stm32f4xx_hal_i2c.o
                                                  build/stm32f4_discovery.o
HAL_I2C_Mem_Read_DMA                              build/stm32f4xx_hal_i2c.o
HAL_I2C_Mem_Read_IT                               build/stm32f4xx_hal_i2c.o
HAL_I2C_Mem_Write                                 build/stm32f4xx_hal_i2c.o
                                                  build/stm32f4_discovery.o
HAL_I2C_Mem_Write_DMA                             build/stm32f4xx_hal_i2c.o
HAL_I2C_Mem_Write_IT                              build/stm32f4xx_hal_i2c.o
HAL_I2C_MspDeInit                                 build/i2c.o
HAL_I2C_MspInit                                   build/i2c.o
HAL_I2C_SlaveRxCpltCallback                       build/stm32f4xx_hal_i2c.o
HAL_I2C_SlaveTxCpltCallback                       build/stm32f4xx_hal_i2c.o
HAL_I2C_Slave_Receive                             build/stm32f4xx_hal_i2c.o
HAL_I2C_Slave_Receive_DMA                         build/stm32f4xx_hal_i2c.o
HAL_I2C_Slave_Receive_IT                          build/stm32f4xx_hal_i2c.o
HAL_I2C_Slave_Seq_Receive_DMA                     build/stm32f4xx_hal_i2c.o
HAL_I2C_Slave_Seq_Receive_IT                      build/stm32f4xx_hal_i2c.o
HAL_I2C_Slave_Seq_Transmit_DMA                    build/stm32f4xx_hal_i2c.o
HAL_I2C_Slave_Seq_Transmit_IT                     build/stm32f4xx_hal_i2c.o
HAL_I2C_Slave_Transmit                            build/stm32f4xx_hal_i2c.o
HAL_I2C_Slave_Transmit_DMA                        build/stm32f4xx_hal_i2c.o
HAL_I2C_Slave_Transmit_IT                         build/stm32f4xx_hal_i2c.o
HAL_I2SEx_FullDuplex_IRQHandler                   build/stm32f4xx_hal_i2s_ex.o
                                                  build/stm32f4xx_hal_i2s.o
HAL_I2SEx_TransmitReceive                         build/stm32f4xx_hal_i2s_ex.o
HAL_I2SEx_TransmitReceive_DMA                     build/stm32f4xx_hal_i2s_ex.o
HAL_I2SEx_TransmitReceive_IT                      build/stm32f4xx_hal_i2s_ex.o
HAL_I2SEx_TxRxCpltCallback                        build/stm32f4xx_hal_i2s_ex.o
HAL_I2SEx_TxRxHalfCpltCallback                    build/stm32f4xx_hal_i2s_ex.o
HAL_I2S_DMAPause                                  build/stm32f4xx_hal_i2s.o
                                                  build/stm32f4_discovery_audio.o
HAL_I2S_DMAResume                                 build/stm32f4xx_hal_i2s.o
                                                  build/stm32f4_discovery_audio.o
HAL_I2S_DMAStop                                   build/stm32f4xx_hal_i2s.o
                                                  build/stm32f4_discovery_audio.o
HAL_I2S_DeInit                                    build/stm32f4xx_hal_i2s.o
HAL_I2S_ErrorCallback                             build/stm32f4_discovery_audio.o
                                                  build/stm32f4xx_hal_i2s_ex.o
HAL_I2S_GetError                                  build/stm32f4xx_hal_i2s.o
HAL_I2S_GetState                                  build/stm32f4xx_hal_i2s.o
                                                  build/stm32f4_discovery_audio.o
HAL_I2S_IRQHandler                                build/stm32f4xx_hal_i2s.o
HAL_I2S_Init                                      build/stm32f4xx_hal_i2s.o
                                                  build/stm32f4_discovery_audio.o
                                                  build/i2s.o
HAL_I2S_MspDeInit                                 build/i2s.o
HAL_I2S_MspInit                                   build/i2s.o
HAL_I2S_Receive                                   build/stm32f4xx_hal_i2s.o
HAL_I2S_Receive_DMA                               build/stm32f4xx_hal_i2s.o
                                                  build/stm32f4_discovery_audio.o
HAL_I2S_Receive_IT                                build/stm32f4xx_hal_i2s.o
HAL_I2S_RxCpltCallback                            build/stm32f4_discovery_audio.o
HAL_I2S_RxHalfCpltCallback                        build/stm32f4_discovery_audio.o
HAL_I2S_Transmit                                  build/stm32f4xx_hal_i2s.o
HAL_I2S_Transmit_DMA                              build/stm32f4xx_hal_i2s.o
                                                  build/stm32f4_discovery_audio.o
HAL_I2S_Transmit_IT                               build/stm32f4xx_hal_i2s.o
HAL_I2S_TxCpltCallback                            build/stm32f4_discovery_audio.o
HAL_I2S_TxHalfCpltCallback                        build/stm32f4_discovery_audio.o
HAL_IncTick                                       build/stm32f4xx_hal.o
                                                  build/stm32f4xx_it.o
HAL_Init                                          build/stm32f4xx_hal.o
                                                  build/main.o
HAL_InitTick                                      build/stm32f4xx_hal.o
                                                  build/stm32f4xx_hal_rcc_ex.o
                                                  build/stm32f4xx_hal_rcc.o
HAL_MPU_ConfigRegion                              build/stm32f4xx_hal_cortex.o
HAL_MPU_Disable                                   build/stm32f4xx_hal_cortex.o
HAL_MPU_Enable                                    build/stm32f4xx_hal_cortex.o
HAL_MspDeInit                                     build/stm32f4xx_hal.o
HAL_MspInit                                       build/stm32f4xx_hal_msp.o
HAL_NVIC_ClearPendingIRQ                          build/stm32f4xx_hal_cortex.o
HAL_NVIC_DisableIRQ                               build/stm32f4xx_hal_cortex.o
                                                  build/stm32f4_discovery_audio.o
HAL_NVIC_EnableIRQ                                build/stm32f4xx_hal_cortex.o
                                                  build/stm32f4_discovery_audio.o
                                                  build/stm32f4_discovery.o
                                                  build/usbh_conf.o
HAL_NVIC_GetActive                                build/stm32f4xx_hal_cortex.o
HAL_NVIC_GetPendingIRQ                            build/stm32f4xx_hal_cortex.o
HAL_NVIC_GetPriority                              build/stm32f4xx_hal_cortex.o
HAL_NVIC_GetPriorityGrouping                      build/stm32f4xx_hal_cortex.o
HAL_NVIC_SetPendingIRQ                            build/stm32f4xx_hal_cortex.o
HAL_NVIC_SetPriority                              build/stm32f4xx_hal_cortex.o
                                                  build/stm32f4xx_hal.o
                                                  build/stm32f4_discovery_audio.o
                                                  build/stm32f4_discovery.o
                                                  build/usbh_conf.o
HAL_NVIC_SetPriorityGrouping                      build/stm32f4xx_hal_cortex.o
                                                  build/stm32f4xx_hal.o
                                                  build/stm32f4xx_hal_msp.o
HAL_NVIC_SystemReset                              build/stm32f4xx_hal_cortex.o
HAL_PWREx_ControlVoltageScaling                   build/stm32f4xx_hal_pwr_ex.o
HAL_PWREx_DisableBkUpReg                          build/stm32f4xx_hal_pwr_ex.o
HAL_PWREx_DisableFlashPowerDown                   build/stm32f4xx_hal_pwr_ex.o
HAL_PWREx_EnableBkUpReg                           build/stm32f4xx_hal_pwr_ex.o
HAL_PWREx_EnableFlashPowerDown                    build/stm32f4xx_hal_pwr_ex.o
HAL_PWREx_GetVoltageRange                         build/stm32f4xx_hal_pwr_ex.o
HAL_PWR_ConfigPVD                                 build/stm32f4xx_hal_pwr.o
HAL_PWR_DeInit                                    build/stm32f4xx_hal_pwr.o
HAL_PWR_DisableBkUpAccess                         build/stm32f4xx_hal_pwr.o
HAL_PWR_DisablePVD                                build/stm32f4xx_hal_pwr.o
HAL_PWR_DisableSEVOnPend                          build/stm32f4xx_hal_pwr.o
HAL_PWR_DisableSleepOnExit                        build/stm32f4xx_hal_pwr.o
HAL_PWR_DisableWakeUpPin                          build/stm32f4xx_hal_pwr.o
HAL_PWR_EnableBkUpAccess                          build/stm32f4xx_hal_pwr.o
HAL_PWR_EnablePVD                                 build/stm32f4xx_hal_pwr.o
HAL_PWR_EnableSEVOnPend                           build/stm32f4xx_hal_pwr.o
HAL_PWR_EnableSleepOnExit                         build/stm32f4xx_hal_pwr.o
HAL_PWR_EnableWakeUpPin                           build/stm32f4xx_hal_pwr.o
HAL_PWR_EnterSLEEPMode                            build/stm32f4xx_hal_pwr.o
HAL_PWR_EnterSTANDBYMode                          build/stm32f4xx_hal_pwr.o
HAL_PWR_EnterSTOPMode                             build/stm32f4xx_hal_pwr.o
HAL_PWR_PVDCallback                               build/stm32f4xx_hal_pwr.o
HAL_PWR_PVD_IRQHandler                            build/stm32f4xx_hal_pwr.o
HAL_RCCEx_DisablePLLI2S                           build/stm32f4xx_hal_rcc_ex.o
HAL_RCCEx_EnablePLLI2S                            build/stm32f4xx_hal_rcc_ex.o
HAL_RCCEx_GetPeriphCLKConfig                      build/stm32f4xx_hal_rcc_ex.o
                                                  build/stm32f4_discovery_audio.o
HAL_RCCEx_GetPeriphCLKFreq                        build/stm32f4xx_hal_rcc_ex.o
                                                  build/stm32f4xx_hal_i2s.o
HAL_RCCEx_PeriphCLKConfig                         build/stm32f4xx_hal_rcc_ex.o
                                                  build/stm32f4_discovery_audio.o
                                                  build/i2s.o
HAL_RCC_CSSCallback                               build/stm32f4xx_hal_rcc.o
HAL_RCC_ClockConfig                               build/stm32f4xx_hal_rcc.o
                                                  build/main.o
HAL_RCC_DeInit                                    build/stm32f4xx_hal_rcc_ex.o
                                                  build/stm32f4xx_hal_rcc.o
HAL_RCC_DisableCSS                                build/stm32f4xx_hal_rcc.o
HAL_RCC_EnableCSS                                 build/stm32f4xx_hal_rcc.o
HAL_RCC_GetClockConfig                            build/stm32f4xx_hal_rcc.o
HAL_RCC_GetHCLKFreq                               build/stm32f4xx_hal_rcc.o
HAL_RCC_GetOscConfig                              build/stm32f4xx_hal_rcc.o
HAL_RCC_GetPCLK1Freq                              build/stm32f4xx_hal_rcc.o
                                                  build/stm32f4xx_hal_i2c.o
HAL_RCC_GetPCLK2Freq                              build/stm32f4xx_hal_rcc.o
HAL_RCC_GetSysClockFreq                           build/stm32f4xx_hal_rcc.o
HAL_RCC_MCOConfig                                 build/stm32f4xx_hal_rcc.o
HAL_RCC_NMI_IRQHandler                            build/stm32f4xx_hal_rcc.o
HAL_RCC_OscConfig                                 build/stm32f4xx_hal_rcc.o
                                                  build/main.o
HAL_ResumeTick                                    build/stm32f4xx_hal.o
HAL_SPI_Abort                                     build/stm32f4xx_hal_spi.o
HAL_SPI_AbortCpltCallback                         build/stm32f4xx_hal_spi.o
HAL_SPI_Abort_IT                                  build/stm32f4xx_hal_spi.o
HAL_SPI_DMAPause                                  build/stm32f4xx_hal_spi.o
HAL_SPI_DMAResume                                 build/stm32f4xx_hal_spi.o
HAL_SPI_DMAStop                                   build/stm32f4xx_hal_spi.o
HAL_SPI_DeInit                                    build/stm32f4xx_hal_spi.o
                                                  build/stm32f4_discovery.o
HAL_SPI_ErrorCallback                             build/stm32f4xx_hal_spi.o
HAL_SPI_GetError                                  build/stm32f4xx_hal_spi.o
HAL_SPI_GetState                                  build/stm32f4xx_hal_spi.o
                                                  build/stm32f4_discovery.o
HAL_SPI_IRQHandler                                build/stm32f4xx_hal_spi.o
HAL_SPI_Init                                      build/stm32f4xx_hal_spi.o
                                                  build/stm32f4_discovery.o
                                                  build/spi.o
HAL_SPI_MspDeInit                                 build/spi.o
HAL_SPI_MspInit                                   build/spi.o
HAL_SPI_Receive                                   build/stm32f4xx_hal_spi.o
HAL_SPI_Receive_DMA                               build/stm32f4xx_hal_spi.o
HAL_SPI_Receive_IT                                build/stm32f4xx_hal_spi.o
HAL_SPI_RxCpltCallback                            build/stm32f4xx_hal_spi.o
HAL_SPI_RxHalfCpltCallback                        build/stm32f4xx_hal_spi.o
HAL_SPI_Transmit                                  build/stm32f4xx_hal_spi.o
HAL_SPI_TransmitReceive                           build/stm32f4xx_hal_spi.o
                                                  build/stm32f4_discovery.o
HAL_SPI_TransmitReceive_DMA                       build/stm32f4xx_hal_spi.o
HAL_SPI_TransmitReceive_IT                        build/stm32f4xx_hal_spi.o
HAL_SPI_Transmit_DMA                              build/stm32f4xx_hal_spi.o
HAL_SPI_Transmit_IT                               build/stm32f4xx_hal_spi.o
HAL_SPI_TxCpltCallback                            build/stm32f4xx_hal_spi.o
HAL_SPI_TxHalfCpltCallback                        build/stm32f4xx_hal_spi.o
HAL_SPI_TxRxCpltCallback                          build/stm32f4xx_hal_spi.o
HAL_SPI_TxRxHalfCpltCallback                      build/stm32f4xx_hal_spi.o
HAL_SYSTICK_CLKSourceConfig                       build/stm32f4xx_hal_cortex.o
HAL_SYSTICK_Callback                              build/stm32f4xx_hal_cortex.o
HAL_SYSTICK_Config                                build/stm32f4xx_hal_cortex.o
                                                  build/stm32f4xx_hal.o
HAL_SYSTICK_IRQHandler                            build/stm32f4xx_hal_cortex.o
HAL_SetTickFreq                                   build/stm32f4xx_hal.o
HAL_SuspendTick                                   build/stm32f4xx_hal.o
HASH_RNG_IRQHandler                               build/startup_stm32f407xx.o
HardFault_Handler                                 build/stm32f4xx_it.o
I2C1_ER_IRQHandler                                build/startup_stm32f407xx.o
I2C1_EV_IRQHandler                                build/startup_stm32f407xx.o
I2C2_ER_IRQHandler                                build/startup_stm32f407xx.o
I2C2_EV_IRQHandler                                build/startup_stm32f407xx.o
I2C3_ER_IRQHandler                                build/startup_stm32f407xx.o
I2C3_EV_IRQHandler                                build/startup_stm32f407xx.o
I2SFreq                                           build/stm32f4_discovery_audio.o
I2SPLLN                                           build/stm32f4_discovery_audio.o
I2SPLLR                                           build/stm32f4_discovery_audio.o
I2cxTimeout                                       build/stm32f4_discovery.o
LIS302DL_Click_IntClear                           build/lis302dl.o
LIS302DL_Click_IntConfig                          build/lis302dl.o
LIS302DL_DataRateCmd                              build/lis302dl.o
LIS302DL_DeInit                                   build/lis302dl.o
LIS302DL_FilterConfig                             build/lis302dl.o
LIS302DL_FullScaleCmd                             build/lis302dl.o
LIS302DL_Init                                     build/lis302dl.o
LIS302DL_InterruptConfig                          build/lis302dl.o
LIS302DL_LowpowerCmd                              build/lis302dl.o
LIS302DL_ReadACC                                  build/lis302dl.o
LIS302DL_ReadID                                   build/lis302dl.o
LIS302DL_RebootCmd                                build/lis302dl.o
LIS3DSH_Click_IntConfig                           build/lis3dsh.o
LIS3DSH_DataRateCmd                               build/lis3dsh.o
LIS3DSH_DeInit                                    build/lis3dsh.o
LIS3DSH_FullScaleCmd                              build/lis3dsh.o
LIS3DSH_Init                                      build/lis3dsh.o
LIS3DSH_InterruptConfig                           build/lis3dsh.o
LIS3DSH_ODR_LowpowerCmd                           build/lis3dsh.o
LIS3DSH_ReadACC                                   build/lis3dsh.o
LIS3DSH_ReadID                                    build/lis3dsh.o
LIS3DSH_RebootCmd                                 build/lis3dsh.o
Lis302dlDrv                                       build/lis302dl.o
                                                  build/stm32f4_discovery_accelerometer.o
Lis3dshDrv                                        build/lis3dsh.o
                                                  build/stm32f4_discovery_accelerometer.o
MIDI_Application                                  build/MIDI_application.o
                                                  build/main.o
MIDI_Class                                        build/usbh_MIDI.o
                                                  build/main.o
MIDI_RX_Buffer                                    build/MIDI_application.o
MIDI_eventInit                                    build/MIDI_event.o
                                                  build/main.o
MX_GPIO_Init                                      build/gpio.o
                                                  build/main.o
MX_I2C1_Init                                      build/i2c.o
                                                  build/main.o
MX_I2S3_Init                                      build/i2s.o
                                                  build/main.o
MX_SPI1_Init                                      build/spi.o
                                                  build/main.o
MemManage_Handler                                 build/stm32f4xx_it.o
MoogLP_compute                                    build/ladder_filter.o
                                                  build/audio.o
MoogLP_init                                       build/ladder_filter.o
                                                  build/audio.o
Moog_filter                                       build/ladder_filter.o
                                                  build/audio.o
NMI_Handler                                       build/stm32f4xx_it.o
OTG_FS_IRQHandler                                 build/stm32f4xx_it.o
OTG_FS_WKUP_IRQHandler                            build/startup_stm32f407xx.o
OTG_HS_EP1_IN_IRQHandler                          build/startup_stm32f407xx.o
OTG_HS_EP1_OUT_IRQHandler                         build/startup_stm32f407xx.o
OTG_HS_IRQHandler                                 build/startup_stm32f407xx.o
OTG_HS_WKUP_IRQHandler                            build/startup_stm32f407xx.o
OpSetFreq                                         build/audio.o
OutputDev                                         build/cs43l22.o
PDM_Filter                                        build/stm32f4_discovery_audio.o
PDM_FilterConfig                                  build/stm32f4_discovery_audio.o
PDM_FilterHandler                                 build/stm32f4_discovery_audio.o
PDM_Filter_Init                                   build/stm32f4_discovery_audio.o
PDM_Filter_setConfig                              build/stm32f4_discovery_audio.o
PVD_IRQHandler                                    build/startup_stm32f407xx.o
PendSV_Handler                                    build/stm32f4xx_it.o
ProcessMIDI                                       build/MIDI_event.o
                                                  build/MIDI_application.o
ProcessReceivedMidiDatas                          build/MIDI_application.o
RCC_IRQHandler                                    build/startup_stm32f407xx.o
RTC_Alarm_IRQHandler                              build/startup_stm32f407xx.o
RTC_WKUP_IRQHandler                               build/startup_stm32f407xx.o
Reset_Handler                                     build/startup_stm32f407xx.o
SDIO_IRQHandler                                   build/startup_stm32f407xx.o
SEGGER_RTT_AllocDownBuffer                        build/SEGGER_RTT.o
SEGGER_RTT_AllocUpBuffer                          build/SEGGER_RTT.o
SEGGER_RTT_ConfigDownBuffer                       build/SEGGER_RTT.o
SEGGER_RTT_ConfigUpBuffer                         build/SEGGER_RTT.o
                                                  build/main.o
SEGGER_RTT_GetAvailWriteSpace                     build/SEGGER_RTT.o
SEGGER_RTT_GetBytesInBuffer                       build/SEGGER_RTT.o
SEGGER_RTT_GetKey                                 build/SEGGER_RTT.o
SEGGER_RTT_HasData                                build/SEGGER_RTT.o
SEGGER_RTT_HasDataUp                              build/SEGGER_RTT.o
SEGGER_RTT_HasKey                                 build/SEGGER_RTT.o
SEGGER_RTT_Init                                   build/SEGGER_RTT.o
SEGGER_RTT_PutChar                                build/SEGGER_RTT.o
SEGGER_RTT_PutCharSkip                            build/SEGGER_RTT.o
SEGGER_RTT_PutCharSkipNoLock                      build/SEGGER_RTT.o
SEGGER_RTT_Read                                   build/SEGGER_RTT.o
SEGGER_RTT_ReadNoLock                             build/SEGGER_RTT.o
SEGGER_RTT_ReadUpBuffer                           build/SEGGER_RTT.o
SEGGER_RTT_ReadUpBufferNoLock                     build/SEGGER_RTT.o
SEGGER_RTT_SetFlagsDownBuffer                     build/SEGGER_RTT.o
SEGGER_RTT_SetFlagsUpBuffer                       build/SEGGER_RTT.o
SEGGER_RTT_SetNameDownBuffer                      build/SEGGER_RTT.o
SEGGER_RTT_SetNameUpBuffer                        build/SEGGER_RTT.o
SEGGER_RTT_SetTerminal                            build/SEGGER_RTT.o
SEGGER_RTT_TerminalOut                            build/SEGGER_RTT.o
SEGGER_RTT_WaitKey                                build/SEGGER_RTT.o
                                                  build/consoleIo.o
SEGGER_RTT_Write                                  build/SEGGER_RTT.o
                                                  build/SEGGER_RTT_printf.o
SEGGER_RTT_WriteDownBuffer                        build/SEGGER_RTT.o
SEGGER_RTT_WriteDownBufferNoLock                  build/SEGGER_RTT.o
SEGGER_RTT_WriteNoLock                            build/SEGGER_RTT.o
SEGGER_RTT_WriteString                            build/SEGGER_RTT.o
                                                  build/main.o
SEGGER_RTT_WriteWithOverwriteNoLock               build/SEGGER_RTT.o
SEGGER_RTT_printf                                 build/SEGGER_RTT_printf.o
                                                  build/consoleIo.o
SEGGER_RTT_vprintf                                build/SEGGER_RTT_printf.o
SPI1_IRQHandler                                   build/startup_stm32f407xx.o
SPI2_IRQHandler                                   build/startup_stm32f407xx.o
SPI3_IRQHandler                                   build/startup_stm32f407xx.o
SVC_Handler                                       build/stm32f4xx_it.o
SVF_LP_compute                                    build/filters.o
                                                  build/stereo_delay.o
SVF_LP_init                                       build/filters.o
                                                  build/stereo_delay.o
SpixTimeout                                       build/stm32f4_discovery.o
SysTick_Handler                                   build/stm32f4xx_it.o
SystemClock_Config                                build/main.o
SystemCoreClock                                   build/system_stm32f4xx.o
                                                  build/stm32f4xx_hal_spi.o
                                                  build/stm32f4xx_hal_rcc_ex.o
                                                  build/stm32f4xx_hal_rcc.o
                                                  build/stm32f4xx_hal_i2c.o
                                                  build/stm32f4xx_hal_dma.o
                                                  build/stm32f4xx_hal.o
SystemCoreClockUpdate                             build/system_stm32f4xx.o
SystemInit                                        build/system_stm32f4xx.o
                                                  build/startup_stm32f407xx.o
TAMP_STAMP_IRQHandler                             build/startup_stm32f407xx.o
TIM1_BRK_TIM9_IRQHandler                          build/startup_stm32f407xx.o
TIM1_CC_IRQHandler                                build/startup_stm32f407xx.o
TIM1_TRG_COM_TIM11_IRQHandler                     build/startup_stm32f407xx.o
TIM1_UP_TIM10_IRQHandler                          build/startup_stm32f407xx.o
TIM2_IRQHandler                                   build/startup_stm32f407xx.o
TIM3_IRQHandler                                   build/startup_stm32f407xx.o
TIM4_IRQHandler                                   build/startup_stm32f407xx.o
TIM5_IRQHandler                                   build/startup_stm32f407xx.o
TIM6_DAC_IRQHandler                               build/startup_stm32f407xx.o
TIM7_IRQHandler                                   build/startup_stm32f407xx.o
TIM8_BRK_TIM12_IRQHandler                         build/startup_stm32f407xx.o
TIM8_CC_IRQHandler                                build/startup_stm32f407xx.o
TIM8_TRG_COM_TIM14_IRQHandler                     build/startup_stm32f407xx.o
TIM8_UP_TIM13_IRQHandler                          build/startup_stm32f407xx.o
UART4_IRQHandler                                  build/startup_stm32f407xx.o
UART5_IRQHandler                                  build/startup_stm32f407xx.o
USART1_IRQHandler                                 build/startup_stm32f407xx.o
USART2_IRQHandler                                 build/startup_stm32f407xx.o
USART3_IRQHandler                                 build/startup_stm32f407xx.o
USART6_IRQHandler                                 build/startup_stm32f407xx.o
USBH_AllocPipe                                    build/usbh_pipes.o
                                                  build/usbh_core.o
                                                  build/usbh_cdc.o
                                                  build/usbh_MIDI.o
USBH_BulkReceiveData                              build/usbh_ioreq.o
                                                  build/usbh_cdc.o
                                                  build/usbh_MIDI.o
USBH_BulkSendData                                 build/usbh_ioreq.o
                                                  build/usbh_cdc.o
                                                  build/usbh_MIDI.o
USBH_CDC_GetLastReceivedDataSize                  build/usbh_cdc.o
USBH_CDC_GetLineCoding                            build/usbh_cdc.o
USBH_CDC_LineCodingChanged                        build/usbh_cdc.o
USBH_CDC_Receive                                  build/usbh_cdc.o
USBH_CDC_ReceiveCallback                          build/usbh_cdc.o
USBH_CDC_SetLineCoding                            build/usbh_cdc.o
USBH_CDC_Stop                                     build/usbh_cdc.o
USBH_CDC_Transmit                                 build/usbh_cdc.o
USBH_CDC_TransmitCallback                         build/usbh_cdc.o
USBH_ClosePipe                                    build/usbh_pipes.o
                                                  build/usbh_cdc.o
                                                  build/usbh_MIDI.o
USBH_ClrFeature                                   build/usbh_ctlreq.o
                                                  build/usbh_cdc.o
                                                  build/usbh_MIDI.o
USBH_CtlReceiveData                               build/usbh_ioreq.o
                                                  build/usbh_ctlreq.o
USBH_CtlReq                                       build/usbh_ctlreq.o
                                                  build/usbh_cdc.o
USBH_CtlSendData                                  build/usbh_ioreq.o
                                                  build/usbh_ctlreq.o
USBH_CtlSendSetup                                 build/usbh_ioreq.o
                                                  build/usbh_ctlreq.o
USBH_DeInit                                       build/usbh_core.o
USBH_Delay                                        build/usbh_conf.o
                                                  build/usbh_core.o
USBH_FindInterface                                build/usbh_core.o
                                                  build/usbh_cdc.o
                                                  build/usbh_MIDI.o
USBH_FindInterfaceIndex                           build/usbh_core.o
USBH_FreePipe                                     build/usbh_pipes.o
                                                  build/usbh_core.o
                                                  build/usbh_cdc.o
                                                  build/usbh_MIDI.o
USBH_GetActiveClass                               build/usbh_core.o
USBH_GetDescriptor                                build/usbh_ctlreq.o
USBH_GetNextDesc                                  build/usbh_ctlreq.o
USBH_Get_CfgDesc                                  build/usbh_ctlreq.o
                                                  build/usbh_core.o
USBH_Get_DevDesc                                  build/usbh_ctlreq.o
                                                  build/usbh_core.o
USBH_Get_StringDesc                               build/usbh_ctlreq.o
                                                  build/usbh_core.o
USBH_Init                                         build/usbh_core.o
                                                  build/main.o
USBH_InterruptReceiveData                         build/usbh_ioreq.o
USBH_InterruptSendData                            build/usbh_ioreq.o
USBH_IsPortEnabled                                build/usbh_core.o
USBH_IsocReceiveData                              build/usbh_ioreq.o
USBH_IsocSendData                                 build/usbh_ioreq.o
USBH_LL_ClosePipe                                 build/usbh_conf.o
                                                  build/usbh_pipes.o
USBH_LL_Connect                                   build/usbh_core.o
                                                  build/usbh_conf.o
USBH_LL_DeInit                                    build/usbh_conf.o
USBH_LL_Disconnect                                build/usbh_core.o
                                                  build/usbh_conf.o
USBH_LL_DriverVBUS                                build/usbh_conf.o
                                                  build/usbh_core.o
USBH_LL_GetLastXferSize                           build/usbh_conf.o
                                                  build/usbh_cdc.o
                                                  build/usbh_MIDI.o
USBH_LL_GetSpeed                                  build/usbh_conf.o
                                                  build/usbh_core.o
USBH_LL_GetToggle                                 build/usbh_conf.o
USBH_LL_GetURBState                               build/usbh_conf.o
                                                  build/usbh_ctlreq.o
                                                  build/usbh_cdc.o
                                                  build/usbh_MIDI.o
USBH_LL_IncTimer                                  build/usbh_core.o
                                                  build/usbh_conf.o
USBH_LL_Init                                      build/usbh_conf.o
                                                  build/usbh_core.o
USBH_LL_OpenPipe                                  build/usbh_conf.o
                                                  build/usbh_pipes.o
USBH_LL_PortDisabled                              build/usbh_core.o
                                                  build/usbh_conf.o
USBH_LL_PortEnabled                               build/usbh_core.o
                                                  build/usbh_conf.o
USBH_LL_ResetPort                                 build/usbh_conf.o
                                                  build/usbh_core.o
USBH_LL_SetTimer                                  build/usbh_core.o
                                                  build/usbh_conf.o
USBH_LL_SetToggle                                 build/usbh_conf.o
                                                  build/usbh_cdc.o
                                                  build/usbh_MIDI.o
USBH_LL_Start                                     build/usbh_conf.o
                                                  build/usbh_core.o
USBH_LL_Stop                                      build/usbh_conf.o
                                                  build/usbh_ctlreq.o
                                                  build/usbh_core.o
USBH_LL_SubmitURB                                 build/usbh_conf.o
                                                  build/usbh_ioreq.o
USBH_MIDI_GetLastReceivedDataSize                 build/usbh_MIDI.o
                                                  build/MIDI_application.o
USBH_MIDI_Receive                                 build/usbh_MIDI.o
                                                  build/MIDI_application.o
USBH_MIDI_ReceiveCallback                         build/MIDI_application.o
USBH_MIDI_Stop                                    build/usbh_MIDI.o
                                                  build/MIDI_application.o
USBH_MIDI_Transmit                                build/usbh_MIDI.o
USBH_MIDI_TransmitCallback                        build/usbh_MIDI.o
USBH_OpenPipe                                     build/usbh_pipes.o
                                                  build/usbh_core.o
                                                  build/usbh_cdc.o
                                                  build/usbh_MIDI.o
USBH_Process                                      build/usbh_core.o
                                                  build/main.o
USBH_ReEnumerate                                  build/usbh_core.o
USBH_RegisterClass                                build/usbh_core.o
                                                  build/main.o
USBH_SelectInterface                              build/usbh_core.o
                                                  build/usbh_cdc.o
                                                  build/usbh_MIDI.o
USBH_SetAddress                                   build/usbh_ctlreq.o
                                                  build/usbh_core.o
USBH_SetCfg                                       build/usbh_ctlreq.o
                                                  build/usbh_core.o
USBH_SetFeature                                   build/usbh_ctlreq.o
                                                  build/usbh_core.o
USBH_SetInterface                                 build/usbh_ctlreq.o
USBH_Start                                        build/usbh_core.o
                                                  build/main.o
USBH_Stop                                         build/usbh_core.o
USBH_UserProcess_callback                         build/MIDI_event.o
                                                  build/main.o
USB_ActivateDedicatedEndpoint                     build/stm32f4xx_ll_usb.o
USB_ActivateEndpoint                              build/stm32f4xx_ll_usb.o
USB_ActivateRemoteWakeup                          build/stm32f4xx_ll_usb.o
USB_ActivateSetup                                 build/stm32f4xx_ll_usb.o
USB_ClearInterrupts                               build/stm32f4xx_ll_usb.o
USB_CoreInit                                      build/stm32f4xx_ll_usb.o
                                                  build/stm32f4xx_hal_hcd.o
USB_DeActivateRemoteWakeup                        build/stm32f4xx_ll_usb.o
USB_DeactivateDedicatedEndpoint                   build/stm32f4xx_ll_usb.o
USB_DeactivateEndpoint                            build/stm32f4xx_ll_usb.o
USB_DevConnect                                    build/stm32f4xx_ll_usb.o
USB_DevDisconnect                                 build/stm32f4xx_ll_usb.o
USB_DevInit                                       build/stm32f4xx_ll_usb.o
USB_DisableGlobalInt                              build/stm32f4xx_ll_usb.o
                                                  build/stm32f4xx_hal_hcd.o
USB_DoPing                                        build/stm32f4xx_ll_usb.o
USB_DriveVbus                                     build/stm32f4xx_ll_usb.o
                                                  build/stm32f4xx_hal_hcd.o
USB_EP0StartXfer                                  build/stm32f4xx_ll_usb.o
USB_EP0_OutStart                                  build/stm32f4xx_ll_usb.o
USB_EPClearStall                                  build/stm32f4xx_ll_usb.o
USB_EPSetStall                                    build/stm32f4xx_ll_usb.o
USB_EPStartXfer                                   build/stm32f4xx_ll_usb.o
USB_EPStopXfer                                    build/stm32f4xx_ll_usb.o
USB_EnableGlobalInt                               build/stm32f4xx_ll_usb.o
                                                  build/stm32f4xx_hal_hcd.o
USB_FlushRxFifo                                   build/stm32f4xx_ll_usb.o
                                                  build/stm32f4xx_hal_hcd.o
USB_FlushTxFifo                                   build/stm32f4xx_ll_usb.o
                                                  build/stm32f4xx_hal_hcd.o
USB_GetCurrentFrame                               build/stm32f4xx_ll_usb.o
                                                  build/stm32f4xx_hal_hcd.o
USB_GetDevSpeed                                   build/stm32f4xx_ll_usb.o
USB_GetHostSpeed                                  build/stm32f4xx_ll_usb.o
                                                  build/stm32f4xx_hal_hcd.o
USB_GetMode                                       build/stm32f4xx_ll_usb.o
                                                  build/stm32f4xx_hal_hcd.o
USB_HC_Halt                                       build/stm32f4xx_ll_usb.o
                                                  build/stm32f4xx_hal_hcd.o
USB_HC_Init                                       build/stm32f4xx_ll_usb.o
                                                  build/stm32f4xx_hal_hcd.o
USB_HC_ReadInterrupt                              build/stm32f4xx_ll_usb.o
                                                  build/stm32f4xx_hal_hcd.o
USB_HC_StartXfer                                  build/stm32f4xx_ll_usb.o
                                                  build/stm32f4xx_hal_hcd.o
USB_HostInit                                      build/stm32f4xx_ll_usb.o
                                                  build/stm32f4xx_hal_hcd.o
USB_InitFSLSPClkSel                               build/stm32f4xx_ll_usb.o
                                                  build/stm32f4xx_hal_hcd.o
USB_ReadDevAllInEpInterrupt                       build/stm32f4xx_ll_usb.o
USB_ReadDevAllOutEpInterrupt                      build/stm32f4xx_ll_usb.o
USB_ReadDevInEPInterrupt                          build/stm32f4xx_ll_usb.o
USB_ReadDevOutEPInterrupt                         build/stm32f4xx_ll_usb.o
USB_ReadInterrupts                                build/stm32f4xx_ll_usb.o
                                                  build/stm32f4xx_hal_hcd.o
USB_ReadPacket                                    build/stm32f4xx_ll_usb.o
                                                  build/stm32f4xx_hal_hcd.o
USB_ResetPort                                     build/stm32f4xx_ll_usb.o
                                                  build/stm32f4xx_hal_hcd.o
USB_SetCurrentMode                                build/stm32f4xx_ll_usb.o
                                                  build/stm32f4xx_hal_hcd.o
USB_SetDevAddress                                 build/stm32f4xx_ll_usb.o
USB_SetDevSpeed                                   build/stm32f4xx_ll_usb.o
USB_SetTurnaroundTime                             build/stm32f4xx_ll_usb.o
USB_StopDevice                                    build/stm32f4xx_ll_usb.o
USB_StopHost                                      build/stm32f4xx_ll_usb.o
                                                  build/stm32f4xx_hal_hcd.o
USB_WritePacket                                   build/stm32f4xx_ll_usb.o
UsageFault_Handler                                build/stm32f4xx_it.o
WWDG_IRQHandler                                   build/startup_stm32f407xx.o
_SEGGER_RTT                                       build/SEGGER_RTT.o
__adddf3                                          /Users/johannes/Library/Application Support/Code/User/globalStorage/bmd.stm32-for-vscode/@xpack-dev-tools/arm-none-eabi-gcc/11.2.1-1.2.2/.content/bin/../lib/gcc/arm-none-eabi/11.2.1/thumb/v7e-m+fp/hard/libgcc.a(_arm_addsubdf3.o)
__aeabi_cdcmpeq                                   /Users/johannes/Library/Application Support/Code/User/globalStorage/bmd.stm32-for-vscode/@xpack-dev-tools/arm-none-eabi-gcc/11.2.1-1.2.2/.content/bin/../lib/gcc/arm-none-eabi/11.2.1/thumb/v7e-m+fp/hard/libgcc.a(_arm_cmpdf2.o)
__aeabi_cdcmple                                   /Users/johannes/Library/Application Support/Code/User/globalStorage/bmd.stm32-for-vscode/@xpack-dev-tools/arm-none-eabi-gcc/11.2.1-1.2.2/.content/bin/../lib/gcc/arm-none-eabi/11.2.1/thumb/v7e-m+fp/hard/libgcc.a(_arm_cmpdf2.o)
__aeabi_cdrcmple                                  /Users/johannes/Library/Application Support/Code/User/globalStorage/bmd.stm32-for-vscode/@xpack-dev-tools/arm-none-eabi-gcc/11.2.1-1.2.2/.content/bin/../lib/gcc/arm-none-eabi/11.2.1/thumb/v7e-m+fp/hard/libgcc.a(_arm_cmpdf2.o)
__aeabi_d2f                                       /Users/johannes/Library/Application Support/Code/User/globalStorage/bmd.stm32-for-vscode/@xpack-dev-tools/arm-none-eabi-gcc/11.2.1-1.2.2/.content/bin/../lib/gcc/arm-none-eabi/11.2.1/thumb/v7e-m+fp/hard/libgcc.a(_arm_truncdfsf2.o)
                                                  build/ladder_filter.o
                                                  build/filters.o
__aeabi_dadd                                      /Users/johannes/Library/Application Support/Code/User/globalStorage/bmd.stm32-for-vscode/@xpack-dev-tools/arm-none-eabi-gcc/11.2.1-1.2.2/.content/bin/../lib/gcc/arm-none-eabi/11.2.1/thumb/v7e-m+fp/hard/libgcc.a(_arm_addsubdf3.o)
__aeabi_dcmpeq                                    /Users/johannes/Library/Application Support/Code/User/globalStorage/bmd.stm32-for-vscode/@xpack-dev-tools/arm-none-eabi-gcc/11.2.1-1.2.2/.content/bin/../lib/gcc/arm-none-eabi/11.2.1/thumb/v7e-m+fp/hard/libgcc.a(_arm_cmpdf2.o)
__aeabi_dcmpge                                    /Users/johannes/Library/Application Support/Code/User/globalStorage/bmd.stm32-for-vscode/@xpack-dev-tools/arm-none-eabi-gcc/11.2.1-1.2.2/.content/bin/../lib/gcc/arm-none-eabi/11.2.1/thumb/v7e-m+fp/hard/libgcc.a(_arm_cmpdf2.o)
__aeabi_dcmpgt                                    /Users/johannes/Library/Application Support/Code/User/globalStorage/bmd.stm32-for-vscode/@xpack-dev-tools/arm-none-eabi-gcc/11.2.1-1.2.2/.content/bin/../lib/gcc/arm-none-eabi/11.2.1/thumb/v7e-m+fp/hard/libgcc.a(_arm_cmpdf2.o)
__aeabi_dcmple                                    /Users/johannes/Library/Application Support/Code/User/globalStorage/bmd.stm32-for-vscode/@xpack-dev-tools/arm-none-eabi-gcc/11.2.1-1.2.2/.content/bin/../lib/gcc/arm-none-eabi/11.2.1/thumb/v7e-m+fp/hard/libgcc.a(_arm_cmpdf2.o)
                                                  build/ADSR_envelope.o
__aeabi_dcmplt                                    /Users/johannes/Library/Application Support/Code/User/globalStorage/bmd.stm32-for-vscode/@xpack-dev-tools/arm-none-eabi-gcc/11.2.1-1.2.2/.content/bin/../lib/gcc/arm-none-eabi/11.2.1/thumb/v7e-m+fp/hard/libgcc.a(_arm_cmpdf2.o)
__aeabi_dmul                                      /Users/johannes/Library/Application Support/Code/User/globalStorage/bmd.stm32-for-vscode/@xpack-dev-tools/arm-none-eabi-gcc/11.2.1-1.2.2/.content/bin/../lib/gcc/arm-none-eabi/11.2.1/thumb/v7e-m+fp/hard/libgcc.a(_arm_muldf3.o)
                                                  build/ladder_filter.o
                                                  build/filters.o
__aeabi_drsub                                     /Users/johannes/Library/Application Support/Code/User/globalStorage/bmd.stm32-for-vscode/@xpack-dev-tools/arm-none-eabi-gcc/11.2.1-1.2.2/.content/bin/../lib/gcc/arm-none-eabi/11.2.1/thumb/v7e-m+fp/hard/libgcc.a(_arm_addsubdf3.o)
__aeabi_dsub                                      /Users/johannes/Library/Application Support/Code/User/globalStorage/bmd.stm32-for-vscode/@xpack-dev-tools/arm-none-eabi-gcc/11.2.1-1.2.2/.content/bin/../lib/gcc/arm-none-eabi/11.2.1/thumb/v7e-m+fp/hard/libgcc.a(_arm_addsubdf3.o)
__aeabi_f2d                                       /Users/johannes/Library/Application Support/Code/User/globalStorage/bmd.stm32-for-vscode/@xpack-dev-tools/arm-none-eabi-gcc/11.2.1-1.2.2/.content/bin/../lib/gcc/arm-none-eabi/11.2.1/thumb/v7e-m+fp/hard/libgcc.a(_arm_addsubdf3.o)
                                                  build/ladder_filter.o
                                                  build/filters.o
                                                  build/ADSR_envelope.o
__aeabi_i2d                                       /Users/johannes/Library/Application Support/Code/User/globalStorage/bmd.stm32-for-vscode/@xpack-dev-tools/arm-none-eabi-gcc/11.2.1-1.2.2/.content/bin/../lib/gcc/arm-none-eabi/11.2.1/thumb/v7e-m+fp/hard/libgcc.a(_arm_addsubdf3.o)
__aeabi_idiv0                                     /Users/johannes/Library/Application Support/Code/User/globalStorage/bmd.stm32-for-vscode/@xpack-dev-tools/arm-none-eabi-gcc/11.2.1-1.2.2/.content/bin/../lib/gcc/arm-none-eabi/11.2.1/thumb/v7e-m+fp/hard/libgcc.a(_dvmd_tls.o)
__aeabi_l2d                                       /Users/johannes/Library/Application Support/Code/User/globalStorage/bmd.stm32-for-vscode/@xpack-dev-tools/arm-none-eabi-gcc/11.2.1-1.2.2/.content/bin/../lib/gcc/arm-none-eabi/11.2.1/thumb/v7e-m+fp/hard/libgcc.a(_arm_addsubdf3.o)
__aeabi_ldiv0                                     /Users/johannes/Library/Application Support/Code/User/globalStorage/bmd.stm32-for-vscode/@xpack-dev-tools/arm-none-eabi-gcc/11.2.1-1.2.2/.content/bin/../lib/gcc/arm-none-eabi/11.2.1/thumb/v7e-m+fp/hard/libgcc.a(_dvmd_tls.o)
                                                  /Users/johannes/Library/Application Support/Code/User/globalStorage/bmd.stm32-for-vscode/@xpack-dev-tools/arm-none-eabi-gcc/11.2.1-1.2.2/.content/bin/../lib/gcc/arm-none-eabi/11.2.1/thumb/v7e-m+fp/hard/libgcc.a(_aeabi_uldivmod.o)
                                                  /Users/johannes/Library/Application Support/Code/User/globalStorage/bmd.stm32-for-vscode/@xpack-dev-tools/arm-none-eabi-gcc/11.2.1-1.2.2/.content/bin/../lib/gcc/arm-none-eabi/11.2.1/thumb/v7e-m+fp/hard/libgcc.a(_aeabi_ldivmod.o)
__aeabi_ldivmod                                   /Users/johannes/Library/Application Support/Code/User/globalStorage/bmd.stm32-for-vscode/@xpack-dev-tools/arm-none-eabi-gcc/11.2.1-1.2.2/.content/bin/../lib/gcc/arm-none-eabi/11.2.1/thumb/v7e-m+fp/hard/libgcc.a(_aeabi_ldivmod.o)
                                                  build/stm32f4xx_hal_rcc.o
__aeabi_ui2d                                      /Users/johannes/Library/Application Support/Code/User/globalStorage/bmd.stm32-for-vscode/@xpack-dev-tools/arm-none-eabi-gcc/11.2.1-1.2.2/.content/bin/../lib/gcc/arm-none-eabi/11.2.1/thumb/v7e-m+fp/hard/libgcc.a(_arm_addsubdf3.o)
__aeabi_ul2d                                      /Users/johannes/Library/Application Support/Code/User/globalStorage/bmd.stm32-for-vscode/@xpack-dev-tools/arm-none-eabi-gcc/11.2.1-1.2.2/.content/bin/../lib/gcc/arm-none-eabi/11.2.1/thumb/v7e-m+fp/hard/libgcc.a(_arm_addsubdf3.o)
__aeabi_uldivmod                                  /Users/johannes/Library/Application Support/Code/User/globalStorage/bmd.stm32-for-vscode/@xpack-dev-tools/arm-none-eabi-gcc/11.2.1-1.2.2/.content/bin/../lib/gcc/arm-none-eabi/11.2.1/thumb/v7e-m+fp/hard/libgcc.a(_aeabi_uldivmod.o)
                                                  build/stm32f4xx_hal_rcc.o
__atexit_dummy                                    /Users/johannes/Library/Application Support/Code/User/globalStorage/bmd.stm32-for-vscode/@xpack-dev-tools/arm-none-eabi-gcc/11.2.1-1.2.2/.content/bin/../lib/gcc/arm-none-eabi/11.2.1/../../../../arm-none-eabi/lib/thumb/v7e-m+fp/hard/libc_nano.a(lib_a-__atexit.o)
__bss_end__                                       /Users/johannes/Library/Application Support/Code/User/globalStorage/bmd.stm32-for-vscode/@xpack-dev-tools/arm-none-eabi-gcc/11.2.1-1.2.2/.content/bin/../lib/gcc/arm-none-eabi/11.2.1/../../../../arm-none-eabi/lib/thumb/v7e-m+fp/hard/crt0.o
__bss_start__                                     /Users/johannes/Library/Application Support/Code/User/globalStorage/bmd.stm32-for-vscode/@xpack-dev-tools/arm-none-eabi-gcc/11.2.1-1.2.2/.content/bin/../lib/gcc/arm-none-eabi/11.2.1/../../../../arm-none-eabi/lib/thumb/v7e-m+fp/hard/crt0.o
__call_exitprocs                                  /Users/johannes/Library/Application Support/Code/User/globalStorage/bmd.stm32-for-vscode/@xpack-dev-tools/arm-none-eabi-gcc/11.2.1-1.2.2/.content/bin/../lib/gcc/arm-none-eabi/11.2.1/../../../../arm-none-eabi/lib/thumb/v7e-m+fp/hard/libc_nano.a(lib_a-__call_atexit.o)
                                                  /Users/johannes/Library/Application Support/Code/User/globalStorage/bmd.stm32-for-vscode/@xpack-dev-tools/arm-none-eabi-gcc/11.2.1-1.2.2/.content/bin/../lib/gcc/arm-none-eabi/11.2.1/../../../../arm-none-eabi/lib/thumb/v7e-m+fp/hard/libc_nano.a(lib_a-__atexit.o)
                                                  /Users/johannes/Library/Application Support/Code/User/globalStorage/bmd.stm32-for-vscode/@xpack-dev-tools/arm-none-eabi-gcc/11.2.1-1.2.2/.content/bin/../lib/gcc/arm-none-eabi/11.2.1/../../../../arm-none-eabi/lib/thumb/v7e-m+fp/hard/libc_nano.a(lib_a-exit.o)
__cmpdf2                                          /Users/johannes/Library/Application Support/Code/User/globalStorage/bmd.stm32-for-vscode/@xpack-dev-tools/arm-none-eabi-gcc/11.2.1-1.2.2/.content/bin/../lib/gcc/arm-none-eabi/11.2.1/thumb/v7e-m+fp/hard/libgcc.a(_arm_cmpdf2.o)
__deregister_frame_info                           /Users/johannes/Library/Application Support/Code/User/globalStorage/bmd.stm32-for-vscode/@xpack-dev-tools/arm-none-eabi-gcc/11.2.1-1.2.2/.content/bin/../lib/gcc/arm-none-eabi/11.2.1/thumb/v7e-m+fp/hard/crtbegin.o
__dso_handle                                      /Users/johannes/Library/Application Support/Code/User/globalStorage/bmd.stm32-for-vscode/@xpack-dev-tools/arm-none-eabi-gcc/11.2.1-1.2.2/.content/bin/../lib/gcc/arm-none-eabi/11.2.1/thumb/v7e-m+fp/hard/crtbegin.o
__eqdf2                                           /Users/johannes/Library/Application Support/Code/User/globalStorage/bmd.stm32-for-vscode/@xpack-dev-tools/arm-none-eabi-gcc/11.2.1-1.2.2/.content/bin/../lib/gcc/arm-none-eabi/11.2.1/thumb/v7e-m+fp/hard/libgcc.a(_arm_cmpdf2.o)
__errno                                           /Users/johannes/Library/Application Support/Code/User/globalStorage/bmd.stm32-for-vscode/@xpack-dev-tools/arm-none-eabi-gcc/11.2.1-1.2.2/.content/bin/../lib/gcc/arm-none-eabi/11.2.1/../../../../arm-none-eabi/lib/thumb/v7e-m+fp/hard/libc_nano.a(lib_a-errno.o)
                                                  /Users/johannes/Library/Application Support/Code/User/globalStorage/bmd.stm32-for-vscode/@xpack-dev-tools/arm-none-eabi-gcc/11.2.1-1.2.2/.content/bin/../lib/gcc/arm-none-eabi/11.2.1/../../../../arm-none-eabi/lib/thumb/v7e-m+fp/hard/libc_nano.a(lib_a-strtol.o)
__extendsfdf2                                     /Users/johannes/Library/Application Support/Code/User/globalStorage/bmd.stm32-for-vscode/@xpack-dev-tools/arm-none-eabi-gcc/11.2.1-1.2.2/.content/bin/../lib/gcc/arm-none-eabi/11.2.1/thumb/v7e-m+fp/hard/libgcc.a(_arm_addsubdf3.o)
__fini_array_end                                  /Users/johannes/Library/Application Support/Code/User/globalStorage/bmd.stm32-for-vscode/@xpack-dev-tools/arm-none-eabi-gcc/11.2.1-1.2.2/.content/bin/../lib/gcc/arm-none-eabi/11.2.1/../../../../arm-none-eabi/lib/thumb/v7e-m+fp/hard/libc_nano.a(lib_a-fini.o)
__fini_array_start                                /Users/johannes/Library/Application Support/Code/User/globalStorage/bmd.stm32-for-vscode/@xpack-dev-tools/arm-none-eabi-gcc/11.2.1-1.2.2/.content/bin/../lib/gcc/arm-none-eabi/11.2.1/../../../../arm-none-eabi/lib/thumb/v7e-m+fp/hard/libc_nano.a(lib_a-fini.o)
__floatdidf                                       /Users/johannes/Library/Application Support/Code/User/globalStorage/bmd.stm32-for-vscode/@xpack-dev-tools/arm-none-eabi-gcc/11.2.1-1.2.2/.content/bin/../lib/gcc/arm-none-eabi/11.2.1/thumb/v7e-m+fp/hard/libgcc.a(_arm_addsubdf3.o)
__floatsidf                                       /Users/johannes/Library/Application Support/Code/User/globalStorage/bmd.stm32-for-vscode/@xpack-dev-tools/arm-none-eabi-gcc/11.2.1-1.2.2/.content/bin/../lib/gcc/arm-none-eabi/11.2.1/thumb/v7e-m+fp/hard/libgcc.a(_arm_addsubdf3.o)
__floatundidf                                     /Users/johannes/Library/Application Support/Code/User/globalStorage/bmd.stm32-for-vscode/@xpack-dev-tools/arm-none-eabi-gcc/11.2.1-1.2.2/.content/bin/../lib/gcc/arm-none-eabi/11.2.1/thumb/v7e-m+fp/hard/libgcc.a(_arm_addsubdf3.o)
__floatunsidf                                     /Users/johannes/Library/Application Support/Code/User/globalStorage/bmd.stm32-for-vscode/@xpack-dev-tools/arm-none-eabi-gcc/11.2.1-1.2.2/.content/bin/../lib/gcc/arm-none-eabi/11.2.1/thumb/v7e-m+fp/hard/libgcc.a(_arm_addsubdf3.o)
__gedf2                                           /Users/johannes/Library/Application Support/Code/User/globalStorage/bmd.stm32-for-vscode/@xpack-dev-tools/arm-none-eabi-gcc/11.2.1-1.2.2/.content/bin/../lib/gcc/arm-none-eabi/11.2.1/thumb/v7e-m+fp/hard/libgcc.a(_arm_cmpdf2.o)
__gtdf2                                           /Users/johannes/Library/Application Support/Code/User/globalStorage/bmd.stm32-for-vscode/@xpack-dev-tools/arm-none-eabi-gcc/11.2.1-1.2.2/.content/bin/../lib/gcc/arm-none-eabi/11.2.1/thumb/v7e-m+fp/hard/libgcc.a(_arm_cmpdf2.o)
__init_array_end                                  /Users/johannes/Library/Application Support/Code/User/globalStorage/bmd.stm32-for-vscode/@xpack-dev-tools/arm-none-eabi-gcc/11.2.1-1.2.2/.content/bin/../lib/gcc/arm-none-eabi/11.2.1/../../../../arm-none-eabi/lib/thumb/v7e-m+fp/hard/libc_nano.a(lib_a-init.o)
__init_array_start                                /Users/johannes/Library/Application Support/Code/User/globalStorage/bmd.stm32-for-vscode/@xpack-dev-tools/arm-none-eabi-gcc/11.2.1-1.2.2/.content/bin/../lib/gcc/arm-none-eabi/11.2.1/../../../../arm-none-eabi/lib/thumb/v7e-m+fp/hard/libc_nano.a(lib_a-init.o)
__ledf2                                           /Users/johannes/Library/Application Support/Code/User/globalStorage/bmd.stm32-for-vscode/@xpack-dev-tools/arm-none-eabi-gcc/11.2.1-1.2.2/.content/bin/../lib/gcc/arm-none-eabi/11.2.1/thumb/v7e-m+fp/hard/libgcc.a(_arm_cmpdf2.o)
__libc_fini_array                                 /Users/johannes/Library/Application Support/Code/User/globalStorage/bmd.stm32-for-vscode/@xpack-dev-tools/arm-none-eabi-gcc/11.2.1-1.2.2/.content/bin/../lib/gcc/arm-none-eabi/11.2.1/../../../../arm-none-eabi/lib/thumb/v7e-m+fp/hard/libc_nano.a(lib_a-fini.o)
                                                  /Users/johannes/Library/Application Support/Code/User/globalStorage/bmd.stm32-for-vscode/@xpack-dev-tools/arm-none-eabi-gcc/11.2.1-1.2.2/.content/bin/../lib/gcc/arm-none-eabi/11.2.1/../../../../arm-none-eabi/lib/thumb/v7e-m+fp/hard/crt0.o
__libc_init_array                                 /Users/johannes/Library/Application Support/Code/User/globalStorage/bmd.stm32-for-vscode/@xpack-dev-tools/arm-none-eabi-gcc/11.2.1-1.2.2/.content/bin/../lib/gcc/arm-none-eabi/11.2.1/../../../../arm-none-eabi/lib/thumb/v7e-m+fp/hard/libc_nano.a(lib_a-init.o)
                                                  build/startup_stm32f407xx.o
                                                  /Users/johannes/Library/Application Support/Code/User/globalStorage/bmd.stm32-for-vscode/@xpack-dev-tools/arm-none-eabi-gcc/11.2.1-1.2.2/.content/bin/../lib/gcc/arm-none-eabi/11.2.1/../../../../arm-none-eabi/lib/thumb/v7e-m+fp/hard/crt0.o
__ltdf2                                           /Users/johannes/Library/Application Support/Code/User/globalStorage/bmd.stm32-for-vscode/@xpack-dev-tools/arm-none-eabi-gcc/11.2.1-1.2.2/.content/bin/../lib/gcc/arm-none-eabi/11.2.1/thumb/v7e-m+fp/hard/libgcc.a(_arm_cmpdf2.o)
__malloc_free_list                                /Users/johannes/Library/Application Support/Code/User/globalStorage/bmd.stm32-for-vscode/@xpack-dev-tools/arm-none-eabi-gcc/11.2.1-1.2.2/.content/bin/../lib/gcc/arm-none-eabi/11.2.1/../../../../arm-none-eabi/lib/thumb/v7e-m+fp/hard/libc_nano.a(lib_a-nano-mallocr.o)
                                                  /Users/johannes/Library/Application Support/Code/User/globalStorage/bmd.stm32-for-vscode/@xpack-dev-tools/arm-none-eabi-gcc/11.2.1-1.2.2/.content/bin/../lib/gcc/arm-none-eabi/11.2.1/../../../../arm-none-eabi/lib/thumb/v7e-m+fp/hard/libc_nano.a(lib_a-nano-freer.o)
__malloc_lock                                     /Users/johannes/Library/Application Support/Code/User/globalStorage/bmd.stm32-for-vscode/@xpack-dev-tools/arm-none-eabi-gcc/11.2.1-1.2.2/.content/bin/../lib/gcc/arm-none-eabi/11.2.1/../../../../arm-none-eabi/lib/thumb/v7e-m+fp/hard/libc_nano.a(lib_a-mlock.o)
                                                  /Users/johannes/Library/Application Support/Code/User/globalStorage/bmd.stm32-for-vscode/@xpack-dev-tools/arm-none-eabi-gcc/11.2.1-1.2.2/.content/bin/../lib/gcc/arm-none-eabi/11.2.1/../../../../arm-none-eabi/lib/thumb/v7e-m+fp/hard/libc_nano.a(lib_a-nano-mallocr.o)
                                                  /Users/johannes/Library/Application Support/Code/User/globalStorage/bmd.stm32-for-vscode/@xpack-dev-tools/arm-none-eabi-gcc/11.2.1-1.2.2/.content/bin/../lib/gcc/arm-none-eabi/11.2.1/../../../../arm-none-eabi/lib/thumb/v7e-m+fp/hard/libc_nano.a(lib_a-nano-freer.o)
__malloc_sbrk_start                               /Users/johannes/Library/Application Support/Code/User/globalStorage/bmd.stm32-for-vscode/@xpack-dev-tools/arm-none-eabi-gcc/11.2.1-1.2.2/.content/bin/../lib/gcc/arm-none-eabi/11.2.1/../../../../arm-none-eabi/lib/thumb/v7e-m+fp/hard/libc_nano.a(lib_a-nano-mallocr.o)
__malloc_unlock                                   /Users/johannes/Library/Application Support/Code/User/globalStorage/bmd.stm32-for-vscode/@xpack-dev-tools/arm-none-eabi-gcc/11.2.1-1.2.2/.content/bin/../lib/gcc/arm-none-eabi/11.2.1/../../../../arm-none-eabi/lib/thumb/v7e-m+fp/hard/libc_nano.a(lib_a-mlock.o)
                                                  /Users/johannes/Library/Application Support/Code/User/globalStorage/bmd.stm32-for-vscode/@xpack-dev-tools/arm-none-eabi-gcc/11.2.1-1.2.2/.content/bin/../lib/gcc/arm-none-eabi/11.2.1/../../../../arm-none-eabi/lib/thumb/v7e-m+fp/hard/libc_nano.a(lib_a-nano-mallocr.o)
                                                  /Users/johannes/Library/Application Support/Code/User/globalStorage/bmd.stm32-for-vscode/@xpack-dev-tools/arm-none-eabi-gcc/11.2.1-1.2.2/.content/bin/../lib/gcc/arm-none-eabi/11.2.1/../../../../arm-none-eabi/lib/thumb/v7e-m+fp/hard/libc_nano.a(lib_a-nano-freer.o)
__muldf3                                          /Users/johannes/Library/Application Support/Code/User/globalStorage/bmd.stm32-for-vscode/@xpack-dev-tools/arm-none-eabi-gcc/11.2.1-1.2.2/.content/bin/../lib/gcc/arm-none-eabi/11.2.1/thumb/v7e-m+fp/hard/libgcc.a(_arm_muldf3.o)
__nedf2                                           /Users/johannes/Library/Application Support/Code/User/globalStorage/bmd.stm32-for-vscode/@xpack-dev-tools/arm-none-eabi-gcc/11.2.1-1.2.2/.content/bin/../lib/gcc/arm-none-eabi/11.2.1/thumb/v7e-m+fp/hard/libgcc.a(_arm_cmpdf2.o)
__on_exit_args                                    /Users/johannes/Library/Application Support/Code/User/globalStorage/bmd.stm32-for-vscode/@xpack-dev-tools/arm-none-eabi-gcc/11.2.1-1.2.2/.content/bin/../lib/gcc/arm-none-eabi/11.2.1/../../../../arm-none-eabi/lib/thumb/v7e-m+fp/hard/libc_nano.a(lib_a-__atexit.o)
__preinit_array_end                               /Users/johannes/Library/Application Support/Code/User/globalStorage/bmd.stm32-for-vscode/@xpack-dev-tools/arm-none-eabi-gcc/11.2.1-1.2.2/.content/bin/../lib/gcc/arm-none-eabi/11.2.1/../../../../arm-none-eabi/lib/thumb/v7e-m+fp/hard/libc_nano.a(lib_a-init.o)
__preinit_array_start                             /Users/johannes/Library/Application Support/Code/User/globalStorage/bmd.stm32-for-vscode/@xpack-dev-tools/arm-none-eabi-gcc/11.2.1-1.2.2/.content/bin/../lib/gcc/arm-none-eabi/11.2.1/../../../../arm-none-eabi/lib/thumb/v7e-m+fp/hard/libc_nano.a(lib_a-init.o)
__register_exitproc                               /Users/johannes/Library/Application Support/Code/User/globalStorage/bmd.stm32-for-vscode/@xpack-dev-tools/arm-none-eabi-gcc/11.2.1-1.2.2/.content/bin/../lib/gcc/arm-none-eabi/11.2.1/../../../../arm-none-eabi/lib/thumb/v7e-m+fp/hard/libc_nano.a(lib_a-__atexit.o)
                                                  /Users/johannes/Library/Application Support/Code/User/globalStorage/bmd.stm32-for-vscode/@xpack-dev-tools/arm-none-eabi-gcc/11.2.1-1.2.2/.content/bin/../lib/gcc/arm-none-eabi/11.2.1/../../../../arm-none-eabi/lib/thumb/v7e-m+fp/hard/libc_nano.a(lib_a-atexit.o)
__register_frame_info                             /Users/johannes/Library/Application Support/Code/User/globalStorage/bmd.stm32-for-vscode/@xpack-dev-tools/arm-none-eabi-gcc/11.2.1-1.2.2/.content/bin/../lib/gcc/arm-none-eabi/11.2.1/thumb/v7e-m+fp/hard/crtbegin.o
__sf_fake_stderr                                  /Users/johannes/Library/Application Support/Code/User/globalStorage/bmd.stm32-for-vscode/@xpack-dev-tools/arm-none-eabi-gcc/11.2.1-1.2.2/.content/bin/../lib/gcc/arm-none-eabi/11.2.1/../../../../arm-none-eabi/lib/thumb/v7e-m+fp/hard/libc_nano.a(lib_a-impure.o)
__sf_fake_stdin                                   /Users/johannes/Library/Application Support/Code/User/globalStorage/bmd.stm32-for-vscode/@xpack-dev-tools/arm-none-eabi-gcc/11.2.1-1.2.2/.content/bin/../lib/gcc/arm-none-eabi/11.2.1/../../../../arm-none-eabi/lib/thumb/v7e-m+fp/hard/libc_nano.a(lib_a-impure.o)
__sf_fake_stdout                                  /Users/johannes/Library/Application Support/Code/User/globalStorage/bmd.stm32-for-vscode/@xpack-dev-tools/arm-none-eabi-gcc/11.2.1-1.2.2/.content/bin/../lib/gcc/arm-none-eabi/11.2.1/../../../../arm-none-eabi/lib/thumb/v7e-m+fp/hard/libc_nano.a(lib_a-impure.o)
__stack                                           /Users/johannes/Library/Application Support/Code/User/globalStorage/bmd.stm32-for-vscode/@xpack-dev-tools/arm-none-eabi-gcc/11.2.1-1.2.2/.content/bin/../lib/gcc/arm-none-eabi/11.2.1/../../../../arm-none-eabi/lib/thumb/v7e-m+fp/hard/crt0.o
__subdf3                                          /Users/johannes/Library/Application Support/Code/User/globalStorage/bmd.stm32-for-vscode/@xpack-dev-tools/arm-none-eabi-gcc/11.2.1-1.2.2/.content/bin/../lib/gcc/arm-none-eabi/11.2.1/thumb/v7e-m+fp/hard/libgcc.a(_arm_addsubdf3.o)
__truncdfsf2                                      /Users/johannes/Library/Application Support/Code/User/globalStorage/bmd.stm32-for-vscode/@xpack-dev-tools/arm-none-eabi-gcc/11.2.1-1.2.2/.content/bin/../lib/gcc/arm-none-eabi/11.2.1/thumb/v7e-m+fp/hard/libgcc.a(_arm_truncdfsf2.o)
__udivmoddi4                                      /Users/johannes/Library/Application Support/Code/User/globalStorage/bmd.stm32-for-vscode/@xpack-dev-tools/arm-none-eabi-gcc/11.2.1-1.2.2/.content/bin/../lib/gcc/arm-none-eabi/11.2.1/thumb/v7e-m+fp/hard/libgcc.a(_udivmoddi4.o)
                                                  /Users/johannes/Library/Application Support/Code/User/globalStorage/bmd.stm32-for-vscode/@xpack-dev-tools/arm-none-eabi-gcc/11.2.1-1.2.2/.content/bin/../lib/gcc/arm-none-eabi/11.2.1/thumb/v7e-m+fp/hard/libgcc.a(_aeabi_uldivmod.o)
                                                  /Users/johannes/Library/Application Support/Code/User/globalStorage/bmd.stm32-for-vscode/@xpack-dev-tools/arm-none-eabi-gcc/11.2.1-1.2.2/.content/bin/../lib/gcc/arm-none-eabi/11.2.1/thumb/v7e-m+fp/hard/libgcc.a(_aeabi_ldivmod.o)
_atoi_r                                           /Users/johannes/Library/Application Support/Code/User/globalStorage/bmd.stm32-for-vscode/@xpack-dev-tools/arm-none-eabi-gcc/11.2.1-1.2.2/.content/bin/../lib/gcc/arm-none-eabi/11.2.1/../../../../arm-none-eabi/lib/thumb/v7e-m+fp/hard/libc_nano.a(lib_a-atoi.o)
_ctype_                                           /Users/johannes/Library/Application Support/Code/User/globalStorage/bmd.stm32-for-vscode/@xpack-dev-tools/arm-none-eabi-gcc/11.2.1-1.2.2/.content/bin/../lib/gcc/arm-none-eabi/11.2.1/../../../../arm-none-eabi/lib/thumb/v7e-m+fp/hard/libc_nano.a(lib_a-ctype_.o)
                                                  /Users/johannes/Library/Application Support/Code/User/globalStorage/bmd.stm32-for-vscode/@xpack-dev-tools/arm-none-eabi-gcc/11.2.1-1.2.2/.content/bin/../lib/gcc/arm-none-eabi/11.2.1/../../../../arm-none-eabi/lib/thumb/v7e-m+fp/hard/libc_nano.a(lib_a-strtol.o)
_ebss                                             build/startup_stm32f407xx.o
_edata                                            build/startup_stm32f407xx.o
_estack                                           build/startup_stm32f407xx.o
_exit                                             /Users/johannes/Library/Application Support/Code/User/globalStorage/bmd.stm32-for-vscode/@xpack-dev-tools/arm-none-eabi-gcc/11.2.1-1.2.2/.content/bin/../lib/gcc/arm-none-eabi/11.2.1/../../../../arm-none-eabi/lib/thumb/v7e-m+fp/hard/libnosys.a(_exit.o)
                                                  /Users/johannes/Library/Application Support/Code/User/globalStorage/bmd.stm32-for-vscode/@xpack-dev-tools/arm-none-eabi-gcc/11.2.1-1.2.2/.content/bin/../lib/gcc/arm-none-eabi/11.2.1/../../../../arm-none-eabi/lib/thumb/v7e-m+fp/hard/libc_nano.a(lib_a-exit.o)
_fini                                             /Users/johannes/Library/Application Support/Code/User/globalStorage/bmd.stm32-for-vscode/@xpack-dev-tools/arm-none-eabi-gcc/11.2.1-1.2.2/.content/bin/../lib/gcc/arm-none-eabi/11.2.1/thumb/v7e-m+fp/hard/crti.o
                                                  /Users/johannes/Library/Application Support/Code/User/globalStorage/bmd.stm32-for-vscode/@xpack-dev-tools/arm-none-eabi-gcc/11.2.1-1.2.2/.content/bin/../lib/gcc/arm-none-eabi/11.2.1/../../../../arm-none-eabi/lib/thumb/v7e-m+fp/hard/libc_nano.a(lib_a-fini.o)
_free_r                                           /Users/johannes/Library/Application Support/Code/User/globalStorage/bmd.stm32-for-vscode/@xpack-dev-tools/arm-none-eabi-gcc/11.2.1-1.2.2/.content/bin/../lib/gcc/arm-none-eabi/11.2.1/../../../../arm-none-eabi/lib/thumb/v7e-m+fp/hard/libc_nano.a(lib_a-nano-freer.o)
                                                  /Users/johannes/Library/Application Support/Code/User/globalStorage/bmd.stm32-for-vscode/@xpack-dev-tools/arm-none-eabi-gcc/11.2.1-1.2.2/.content/bin/../lib/gcc/arm-none-eabi/11.2.1/../../../../arm-none-eabi/lib/thumb/v7e-m+fp/hard/libc_nano.a(lib_a-reent.o)
                                                  /Users/johannes/Library/Application Support/Code/User/globalStorage/bmd.stm32-for-vscode/@xpack-dev-tools/arm-none-eabi-gcc/11.2.1-1.2.2/.content/bin/../lib/gcc/arm-none-eabi/11.2.1/../../../../arm-none-eabi/lib/thumb/v7e-m+fp/hard/libc_nano.a(lib_a-malloc.o)
_global_atexit                                    /Users/johannes/Library/Application Support/Code/User/globalStorage/bmd.stm32-for-vscode/@xpack-dev-tools/arm-none-eabi-gcc/11.2.1-1.2.2/.content/bin/../lib/gcc/arm-none-eabi/11.2.1/../../../../arm-none-eabi/lib/thumb/v7e-m+fp/hard/libc_nano.a(lib_a-__call_atexit.o)
                                                  /Users/johannes/Library/Application Support/Code/User/globalStorage/bmd.stm32-for-vscode/@xpack-dev-tools/arm-none-eabi-gcc/11.2.1-1.2.2/.content/bin/../lib/gcc/arm-none-eabi/11.2.1/../../../../arm-none-eabi/lib/thumb/v7e-m+fp/hard/libc_nano.a(lib_a-__atexit.o)
_global_impure_ptr                                /Users/johannes/Library/Application Support/Code/User/globalStorage/bmd.stm32-for-vscode/@xpack-dev-tools/arm-none-eabi-gcc/11.2.1-1.2.2/.content/bin/../lib/gcc/arm-none-eabi/11.2.1/../../../../arm-none-eabi/lib/thumb/v7e-m+fp/hard/libc_nano.a(lib_a-impure.o)
                                                  /Users/johannes/Library/Application Support/Code/User/globalStorage/bmd.stm32-for-vscode/@xpack-dev-tools/arm-none-eabi-gcc/11.2.1-1.2.2/.content/bin/../lib/gcc/arm-none-eabi/11.2.1/../../../../arm-none-eabi/lib/thumb/v7e-m+fp/hard/libc_nano.a(lib_a-exit.o)
_impure_ptr                                       /Users/johannes/Library/Application Support/Code/User/globalStorage/bmd.stm32-for-vscode/@xpack-dev-tools/arm-none-eabi-gcc/11.2.1-1.2.2/.content/bin/../lib/gcc/arm-none-eabi/11.2.1/../../../../arm-none-eabi/lib/thumb/v7e-m+fp/hard/libc_nano.a(lib_a-impure.o)
                                                  /Users/johannes/Library/Application Support/Code/User/globalStorage/bmd.stm32-for-vscode/@xpack-dev-tools/arm-none-eabi-gcc/11.2.1-1.2.2/.content/bin/../lib/gcc/arm-none-eabi/11.2.1/../../../../arm-none-eabi/lib/thumb/v7e-m+fp/hard/libc_nano.a(lib_a-reent.o)
                                                  /Users/johannes/Library/Application Support/Code/User/globalStorage/bmd.stm32-for-vscode/@xpack-dev-tools/arm-none-eabi-gcc/11.2.1-1.2.2/.content/bin/../lib/gcc/arm-none-eabi/11.2.1/../../../../arm-none-eabi/lib/thumb/v7e-m+fp/hard/libc_nano.a(lib_a-errno.o)
                                                  /Users/johannes/Library/Application Support/Code/User/globalStorage/bmd.stm32-for-vscode/@xpack-dev-tools/arm-none-eabi-gcc/11.2.1-1.2.2/.content/bin/../lib/gcc/arm-none-eabi/11.2.1/../../../../arm-none-eabi/lib/thumb/v7e-m+fp/hard/libc_nano.a(lib_a-strtol.o)
                                                  /Users/johannes/Library/Application Support/Code/User/globalStorage/bmd.stm32-for-vscode/@xpack-dev-tools/arm-none-eabi-gcc/11.2.1-1.2.2/.content/bin/../lib/gcc/arm-none-eabi/11.2.1/../../../../arm-none-eabi/lib/thumb/v7e-m+fp/hard/libc_nano.a(lib_a-malloc.o)
_init                                             /Users/johannes/Library/Application Support/Code/User/globalStorage/bmd.stm32-for-vscode/@xpack-dev-tools/arm-none-eabi-gcc/11.2.1-1.2.2/.content/bin/../lib/gcc/arm-none-eabi/11.2.1/thumb/v7e-m+fp/hard/crti.o
                                                  /Users/johannes/Library/Application Support/Code/User/globalStorage/bmd.stm32-for-vscode/@xpack-dev-tools/arm-none-eabi-gcc/11.2.1-1.2.2/.content/bin/../lib/gcc/arm-none-eabi/11.2.1/../../../../arm-none-eabi/lib/thumb/v7e-m+fp/hard/libc_nano.a(lib_a-init.o)
_mainCRTStartup                                   /Users/johannes/Library/Application Support/Code/User/globalStorage/bmd.stm32-for-vscode/@xpack-dev-tools/arm-none-eabi-gcc/11.2.1-1.2.2/.content/bin/../lib/gcc/arm-none-eabi/11.2.1/../../../../arm-none-eabi/lib/thumb/v7e-m+fp/hard/crt0.o
_malloc_r                                         /Users/johannes/Library/Application Support/Code/User/globalStorage/bmd.stm32-for-vscode/@xpack-dev-tools/arm-none-eabi-gcc/11.2.1-1.2.2/.content/bin/../lib/gcc/arm-none-eabi/11.2.1/../../../../arm-none-eabi/lib/thumb/v7e-m+fp/hard/libc_nano.a(lib_a-nano-mallocr.o)
                                                  /Users/johannes/Library/Application Support/Code/User/globalStorage/bmd.stm32-for-vscode/@xpack-dev-tools/arm-none-eabi-gcc/11.2.1-1.2.2/.content/bin/../lib/gcc/arm-none-eabi/11.2.1/../../../../arm-none-eabi/lib/thumb/v7e-m+fp/hard/libc_nano.a(lib_a-malloc.o)
_reclaim_reent                                    /Users/johannes/Library/Application Support/Code/User/globalStorage/bmd.stm32-for-vscode/@xpack-dev-tools/arm-none-eabi-gcc/11.2.1-1.2.2/.content/bin/../lib/gcc/arm-none-eabi/11.2.1/../../../../arm-none-eabi/lib/thumb/v7e-m+fp/hard/libc_nano.a(lib_a-reent.o)
_sbrk                                             /Users/johannes/Library/Application Support/Code/User/globalStorage/bmd.stm32-for-vscode/@xpack-dev-tools/arm-none-eabi-gcc/11.2.1-1.2.2/.content/bin/../lib/gcc/arm-none-eabi/11.2.1/../../../../arm-none-eabi/lib/thumb/v7e-m+fp/hard/libnosys.a(sbrk.o)
                                                  /Users/johannes/Library/Application Support/Code/User/globalStorage/bmd.stm32-for-vscode/@xpack-dev-tools/arm-none-eabi-gcc/11.2.1-1.2.2/.content/bin/../lib/gcc/arm-none-eabi/11.2.1/../../../../arm-none-eabi/lib/thumb/v7e-m+fp/hard/libc_nano.a(lib_a-sbrkr.o)
_sbrk_r                                           /Users/johannes/Library/Application Support/Code/User/globalStorage/bmd.stm32-for-vscode/@xpack-dev-tools/arm-none-eabi-gcc/11.2.1-1.2.2/.content/bin/../lib/gcc/arm-none-eabi/11.2.1/../../../../arm-none-eabi/lib/thumb/v7e-m+fp/hard/libc_nano.a(lib_a-sbrkr.o)
                                                  /Users/johannes/Library/Application Support/Code/User/globalStorage/bmd.stm32-for-vscode/@xpack-dev-tools/arm-none-eabi-gcc/11.2.1-1.2.2/.content/bin/../lib/gcc/arm-none-eabi/11.2.1/../../../../arm-none-eabi/lib/thumb/v7e-m+fp/hard/libc_nano.a(lib_a-nano-mallocr.o)
_sbss                                             build/startup_stm32f407xx.o
_sdata                                            build/startup_stm32f407xx.o
_sidata                                           build/startup_stm32f407xx.o
_stack_init                                       /Users/johannes/Library/Application Support/Code/User/globalStorage/bmd.stm32-for-vscode/@xpack-dev-tools/arm-none-eabi-gcc/11.2.1-1.2.2/.content/bin/../lib/gcc/arm-none-eabi/11.2.1/../../../../arm-none-eabi/lib/thumb/v7e-m+fp/hard/crt0.o
_start                                            /Users/johannes/Library/Application Support/Code/User/globalStorage/bmd.stm32-for-vscode/@xpack-dev-tools/arm-none-eabi-gcc/11.2.1-1.2.2/.content/bin/../lib/gcc/arm-none-eabi/11.2.1/../../../../arm-none-eabi/lib/thumb/v7e-m+fp/hard/crt0.o
_strtol_r                                         /Users/johannes/Library/Application Support/Code/User/globalStorage/bmd.stm32-for-vscode/@xpack-dev-tools/arm-none-eabi-gcc/11.2.1-1.2.2/.content/bin/../lib/gcc/arm-none-eabi/11.2.1/../../../../arm-none-eabi/lib/thumb/v7e-m+fp/hard/libc_nano.a(lib_a-strtol.o)
                                                  /Users/johannes/Library/Application Support/Code/User/globalStorage/bmd.stm32-for-vscode/@xpack-dev-tools/arm-none-eabi-gcc/11.2.1-1.2.2/.content/bin/../lib/gcc/arm-none-eabi/11.2.1/../../../../arm-none-eabi/lib/thumb/v7e-m+fp/hard/libc_nano.a(lib_a-atoi.o)
adsr_amp                                          build/ADSR_envelope.o
                                                  build/audio.o
                                                  build/MIDI_event.o
adsr_filt                                         build/ADSR_envelope.o
                                                  build/audio.o
                                                  build/MIDI_event.o
allNotesOff                                       build/MIDI_event.o
atexit                                            /Users/johannes/Library/Application Support/Code/User/globalStorage/bmd.stm32-for-vscode/@xpack-dev-tools/arm-none-eabi-gcc/11.2.1-1.2.2/.content/bin/../lib/gcc/arm-none-eabi/11.2.1/../../../../arm-none-eabi/lib/thumb/v7e-m+fp/hard/libc_nano.a(lib_a-atexit.o)
                                                  /Users/johannes/Library/Application Support/Code/User/globalStorage/bmd.stm32-for-vscode/@xpack-dev-tools/arm-none-eabi-gcc/11.2.1-1.2.2/.content/bin/../lib/gcc/arm-none-eabi/11.2.1/../../../../arm-none-eabi/lib/thumb/v7e-m+fp/hard/crt0.o
atoi                                              /Users/johannes/Library/Application Support/Code/User/globalStorage/bmd.stm32-for-vscode/@xpack-dev-tools/arm-none-eabi-gcc/11.2.1-1.2.2/.content/bin/../lib/gcc/arm-none-eabi/11.2.1/../../../../arm-none-eabi/lib/thumb/v7e-m+fp/hard/libc_nano.a(lib_a-atoi.o)
                                                  build/console.o
audioBlock                                        build/audio.o
audioBuffer                                       build/audio.o
cleanup_glue                                      /Users/johannes/Library/Application Support/Code/User/globalStorage/bmd.stm32-for-vscode/@xpack-dev-tools/arm-none-eabi-gcc/11.2.1-1.2.2/.content/bin/../lib/gcc/arm-none-eabi/11.2.1/../../../../arm-none-eabi/lib/thumb/v7e-m+fp/hard/libc_nano.a(lib_a-reent.o)
clip                                              build/helper_functions.o
cnt                                               build/bitcrusher.o
cs43l22_DeInit                                    build/cs43l22.o
cs43l22_Init                                      build/cs43l22.o
cs43l22_Pause                                     build/cs43l22.o
cs43l22_Play                                      build/cs43l22.o
cs43l22_ReadID                                    build/cs43l22.o
cs43l22_Reset                                     build/cs43l22.o
cs43l22_Resume                                    build/cs43l22.o
cs43l22_SetFrequency                              build/cs43l22.o
cs43l22_SetMute                                   build/cs43l22.o
cs43l22_SetOutputMode                             build/cs43l22.o
cs43l22_SetVolume                                 build/cs43l22.o
cs43l22_Stop                                      build/cs43l22.o
cs43l22_drv                                       build/cs43l22.o
                                                  build/stm32f4_discovery_audio.o
currentPitch                                      build/MIDI_event.o
                                                  build/audio.o
decimator                                         build/bitcrusher.o
end                                               /Users/johannes/Library/Application Support/Code/User/globalStorage/bmd.stm32-for-vscode/@xpack-dev-tools/arm-none-eabi-gcc/11.2.1-1.2.2/.content/bin/../lib/gcc/arm-none-eabi/11.2.1/../../../../arm-none-eabi/lib/thumb/v7e-m+fp/hard/libnosys.a(sbrk.o)
errno                                             /Users/johannes/Library/Application Support/Code/User/globalStorage/bmd.stm32-for-vscode/@xpack-dev-tools/arm-none-eabi-gcc/11.2.1-1.2.2/.content/bin/../lib/gcc/arm-none-eabi/11.2.1/../../../../arm-none-eabi/lib/thumb/v7e-m+fp/hard/libc_nano.a(lib_a-reent.o)
                                                  /Users/johannes/Library/Application Support/Code/User/globalStorage/bmd.stm32-for-vscode/@xpack-dev-tools/arm-none-eabi-gcc/11.2.1-1.2.2/.content/bin/../lib/gcc/arm-none-eabi/11.2.1/../../../../arm-none-eabi/lib/thumb/v7e-m+fp/hard/libc_nano.a(lib_a-sbrkr.o)
exit                                              /Users/johannes/Library/Application Support/Code/User/globalStorage/bmd.stm32-for-vscode/@xpack-dev-tools/arm-none-eabi-gcc/11.2.1-1.2.2/.content/bin/../lib/gcc/arm-none-eabi/11.2.1/../../../../arm-none-eabi/lib/thumb/v7e-m+fp/hard/libc_nano.a(lib_a-exit.o)
                                                  /Users/johannes/Library/Application Support/Code/User/globalStorage/bmd.stm32-for-vscode/@xpack-dev-tools/arm-none-eabi-gcc/11.2.1-1.2.2/.content/bin/../lib/gcc/arm-none-eabi/11.2.1/../../../../arm-none-eabi/lib/thumb/v7e-m+fp/hard/crt0.o
free                                              /Users/johannes/Library/Application Support/Code/User/globalStorage/bmd.stm32-for-vscode/@xpack-dev-tools/arm-none-eabi-gcc/11.2.1-1.2.2/.content/bin/../lib/gcc/arm-none-eabi/11.2.1/../../../../arm-none-eabi/lib/thumb/v7e-m+fp/hard/libc_nano.a(lib_a-malloc.o)
                                                  build/usbh_cdc.o
                                                  build/usbh_MIDI.o
freq_to_g                                         build/filters.o
g_pfnVectors                                      build/startup_stm32f407xx.o
hAudioInI2s                                       build/stm32f4_discovery_audio.o
                                                  build/audio.o
hAudioOutI2s                                      build/stm32f4_discovery_audio.o
                                                  build/audio.o
hHCD                                              build/usbh_conf.o
                                                  build/stm32f4xx_it.o
hUSBHost                                          build/MIDI_event.o
                                                  build/main.o
                                                  build/MIDI_application.o
hardware_init_hook                                /Users/johannes/Library/Application Support/Code/User/globalStorage/bmd.stm32-for-vscode/@xpack-dev-tools/arm-none-eabi-gcc/11.2.1-1.2.2/.content/bin/../lib/gcc/arm-none-eabi/11.2.1/../../../../arm-none-eabi/lib/thumb/v7e-m+fp/hard/crt0.o
hi2c1                                             build/i2c.o
hi2s3                                             build/i2s.o
hspi1                                             build/spi.o
interp_lin_lut                                    build/helper_functions.o
                                                  build/oscillators.o
                                                  build/ladder_filter.o
                                                  build/filters.o
                                                  build/ADSR_envelope.o
log_lut                                           build/ADSR_envelope.o
lp_L                                              build/filters.o
                                                  build/stereo_delay.o
lp_R                                              build/filters.o
                                                  build/stereo_delay.o
lrintf                                            /Users/johannes/Library/Application Support/Code/User/globalStorage/bmd.stm32-for-vscode/@xpack-dev-tools/arm-none-eabi-gcc/11.2.1-1.2.2/.content/bin/../lib/gcc/arm-none-eabi/11.2.1/../../../../arm-none-eabi/lib/thumb/v7e-m+fp/hard/libm.a(lib_a-sf_lrint.o)
                                                  build/stereo_delay.o
lut_sine                                          build/oscillators.o
mReceiveBuffer                                    build/console.o
mReceiveBufferNeedsChecking                       build/console.o
mReceivedSoFar                                    build/console.o
main                                              build/main.o
                                                  build/startup_stm32f407xx.o
                                                  /Users/johannes/Library/Application Support/Code/User/globalStorage/bmd.stm32-for-vscode/@xpack-dev-tools/arm-none-eabi-gcc/11.2.1-1.2.2/.content/bin/../lib/gcc/arm-none-eabi/11.2.1/../../../../arm-none-eabi/lib/thumb/v7e-m+fp/hard/crt0.o
malloc                                            /Users/johannes/Library/Application Support/Code/User/globalStorage/bmd.stm32-for-vscode/@xpack-dev-tools/arm-none-eabi-gcc/11.2.1-1.2.2/.content/bin/../lib/gcc/arm-none-eabi/11.2.1/../../../../arm-none-eabi/lib/thumb/v7e-m+fp/hard/libc_nano.a(lib_a-malloc.o)
                                                  /Users/johannes/Library/Application Support/Code/User/globalStorage/bmd.stm32-for-vscode/@xpack-dev-tools/arm-none-eabi-gcc/11.2.1-1.2.2/.content/bin/../lib/gcc/arm-none-eabi/11.2.1/../../../../arm-none-eabi/lib/thumb/v7e-m+fp/hard/libc_nano.a(lib_a-__atexit.o)
                                                  build/usbh_cdc.o
                                                  build/usbh_MIDI.o
memcpy                                            /Users/johannes/Library/Application Support/Code/User/globalStorage/bmd.stm32-for-vscode/@xpack-dev-tools/arm-none-eabi-gcc/11.2.1-1.2.2/.content/bin/../lib/gcc/arm-none-eabi/11.2.1/../../../../arm-none-eabi/lib/thumb/v7e-m+fp/hard/libc_nano.a(lib_a-memcpy-stub.o)
                                                  build/SEGGER_RTT.o
memset                                            /Users/johannes/Library/Application Support/Code/User/globalStorage/bmd.stm32-for-vscode/@xpack-dev-tools/arm-none-eabi-gcc/11.2.1-1.2.2/.content/bin/../lib/gcc/arm-none-eabi/11.2.1/../../../../arm-none-eabi/lib/thumb/v7e-m+fp/hard/libc_nano.a(lib_a-memset.o)
                                                  build/usbh_core.o
                                                  build/usbh_cdc.o
                                                  build/console.o
                                                  build/SEGGER_RTT.o
                                                  build/MIDI_event.o
                                                  /Users/johannes/Library/Application Support/Code/User/globalStorage/bmd.stm32-for-vscode/@xpack-dev-tools/arm-none-eabi-gcc/11.2.1-1.2.2/.content/bin/../lib/gcc/arm-none-eabi/11.2.1/../../../../arm-none-eabi/lib/thumb/v7e-m+fp/hard/crt0.o
mtof                                              build/audio.o
notesCount                                        build/MIDI_event.o
notes_Active                                      build/MIDI_event.o
osc1                                              build/oscillators.o
                                                  build/audio.o
osc2                                              build/oscillators.o
                                                  build/audio.o
osc_FM2OP                                         build/oscillators.o
osc_Sine                                          build/oscillators.o
osc_init                                          build/oscillators.o
                                                  build/audio.o
osc_polyblepRect                                  build/oscillators.o
                                                  build/audio.o
osc_polyblepSaw                                   build/oscillators.o
                                                  build/audio.o
pFlash                                            build/stm32f4xx_hal_flash.o
                                                  build/stm32f4xx_hal_flash_ex.o
pbend                                             build/audio.o
pingpongDelay_compute                             build/stereo_delay.o
                                                  build/audio.o
pitchbend                                         build/MIDI_event.o
saw1_freq                                         build/consoleCommands.o
saw2_freq                                         build/consoleCommands.o
software_init_hook                                /Users/johannes/Library/Application Support/Code/User/globalStorage/bmd.stm32-for-vscode/@xpack-dev-tools/arm-none-eabi-gcc/11.2.1-1.2.2/.content/bin/../lib/gcc/arm-none-eabi/11.2.1/../../../../arm-none-eabi/lib/thumb/v7e-m+fp/hard/crt0.o
strlen                                            /Users/johannes/Library/Application Support/Code/User/globalStorage/bmd.stm32-for-vscode/@xpack-dev-tools/arm-none-eabi-gcc/11.2.1-1.2.2/.content/bin/../lib/gcc/arm-none-eabi/11.2.1/../../../../arm-none-eabi/lib/thumb/v7e-m+fp/hard/libc_nano.a(lib_a-strlen.o)
                                                  build/SEGGER_RTT.o
strtol                                            /Users/johannes/Library/Application Support/Code/User/globalStorage/bmd.stm32-for-vscode/@xpack-dev-tools/arm-none-eabi-gcc/11.2.1-1.2.2/.content/bin/../lib/gcc/arm-none-eabi/11.2.1/../../../../arm-none-eabi/lib/thumb/v7e-m+fp/hard/libc_nano.a(lib_a-strtol.o)
                                                  /Users/johannes/Library/Application Support/Code/User/globalStorage/bmd.stm32-for-vscode/@xpack-dev-tools/arm-none-eabi-gcc/11.2.1-1.2.2/.content/bin/../lib/gcc/arm-none-eabi/11.2.1/../../../../arm-none-eabi/lib/thumb/v7e-m+fp/hard/libc_nano.a(lib_a-atoi.o)
strtol_l                                          /Users/johannes/Library/Application Support/Code/User/globalStorage/bmd.stm32-for-vscode/@xpack-dev-tools/arm-none-eabi-gcc/11.2.1-1.2.2/.content/bin/../lib/gcc/arm-none-eabi/11.2.1/../../../../arm-none-eabi/lib/thumb/v7e-m+fp/hard/libc_nano.a(lib_a-strtol.o)
sub_osc                                           build/oscillators.o
                                                  build/audio.o
tan_lut                                           build/lut_tan.o
                                                  build/ladder_filter.o
                                                  build/filters.o
uwTick                                            build/stm32f4xx_hal.o
uwTickFreq                                        build/stm32f4xx_hal.o
uwTickPrio                                        build/stm32f4xx_hal.o
                                                  build/stm32f4xx_hal_rcc_ex.o
                                                  build/stm32f4xx_hal_rcc.o
velocity                                          build/MIDI_event.o
