ARM GAS  /var/folders/0z/tsy30v1j4xl4_7kw94k978ww0000gn/T//cclxGFm1.s 			page 1


   1              		.cpu cortex-m4
   2              		.arch armv7e-m
   3              		.fpu fpv4-sp-d16
   4              		.eabi_attribute 27, 1
   5              		.eabi_attribute 28, 1
   6              		.eabi_attribute 23, 1
   7              		.eabi_attribute 24, 1
   8              		.eabi_attribute 25, 1
   9              		.eabi_attribute 26, 1
  10              		.eabi_attribute 30, 2
  11              		.eabi_attribute 34, 1
  12              		.eabi_attribute 18, 4
  13              		.file	"stm32f4_discovery_audio.c"
  14              		.text
  15              	.Ltext0:
  16              		.cfi_sections	.debug_frame
  17              		.section	.text.BSP_AUDIO_OUT_Play,"ax",%progbits
  18              		.align	1
  19              		.p2align 2,,3
  20              		.global	BSP_AUDIO_OUT_Play
  21              		.syntax unified
  22              		.thumb
  23              		.thumb_func
  25              	BSP_AUDIO_OUT_Play:
  26              	.LVL0:
  27              	.LFB131:
  28              		.file 1 "Drivers/BSP/STM32F4-Discovery/stm32f4_discovery_audio.c"
   1:Drivers/BSP/STM32F4-Discovery/stm32f4_discovery_audio.c **** /**
   2:Drivers/BSP/STM32F4-Discovery/stm32f4_discovery_audio.c ****   ******************************************************************************
   3:Drivers/BSP/STM32F4-Discovery/stm32f4_discovery_audio.c ****   * @file    stm32f4_discovery_audio.c
   4:Drivers/BSP/STM32F4-Discovery/stm32f4_discovery_audio.c ****   * @author  MCD Application Team
   5:Drivers/BSP/STM32F4-Discovery/stm32f4_discovery_audio.c ****   * @brief   This file provides the Audio driver for the STM32F4-Discovery 
   6:Drivers/BSP/STM32F4-Discovery/stm32f4_discovery_audio.c ****   *          board.  
   7:Drivers/BSP/STM32F4-Discovery/stm32f4_discovery_audio.c ****   ******************************************************************************
   8:Drivers/BSP/STM32F4-Discovery/stm32f4_discovery_audio.c ****   * @attention
   9:Drivers/BSP/STM32F4-Discovery/stm32f4_discovery_audio.c ****   *
  10:Drivers/BSP/STM32F4-Discovery/stm32f4_discovery_audio.c ****   * Copyright (c) 2017 STMicroelectronics.
  11:Drivers/BSP/STM32F4-Discovery/stm32f4_discovery_audio.c ****   * All rights reserved.
  12:Drivers/BSP/STM32F4-Discovery/stm32f4_discovery_audio.c ****   *
  13:Drivers/BSP/STM32F4-Discovery/stm32f4_discovery_audio.c ****   * This software is licensed under terms that can be found in the LICENSE file
  14:Drivers/BSP/STM32F4-Discovery/stm32f4_discovery_audio.c ****   * in the root directory of this software component.
  15:Drivers/BSP/STM32F4-Discovery/stm32f4_discovery_audio.c ****   * If no LICENSE file comes with this software, it is provided AS-IS.
  16:Drivers/BSP/STM32F4-Discovery/stm32f4_discovery_audio.c ****   *
  17:Drivers/BSP/STM32F4-Discovery/stm32f4_discovery_audio.c ****   ******************************************************************************
  18:Drivers/BSP/STM32F4-Discovery/stm32f4_discovery_audio.c ****   */
  19:Drivers/BSP/STM32F4-Discovery/stm32f4_discovery_audio.c **** 
  20:Drivers/BSP/STM32F4-Discovery/stm32f4_discovery_audio.c **** /*==============================================================================
  21:Drivers/BSP/STM32F4-Discovery/stm32f4_discovery_audio.c ****                                              User NOTES
  22:Drivers/BSP/STM32F4-Discovery/stm32f4_discovery_audio.c **** 1. How To use this driver:
  23:Drivers/BSP/STM32F4-Discovery/stm32f4_discovery_audio.c **** --------------------------
  24:Drivers/BSP/STM32F4-Discovery/stm32f4_discovery_audio.c ****    - This driver supports STM32F4xx devices on STM32F4-Discovery Kit:
  25:Drivers/BSP/STM32F4-Discovery/stm32f4_discovery_audio.c ****         a) to play an audio file (all functions names start by BSP_AUDIO_OUT_xxx)
  26:Drivers/BSP/STM32F4-Discovery/stm32f4_discovery_audio.c ****         b) to record an audio file through MP45DT02, ST MEMS (all functions names start by AUDIO_IN
  27:Drivers/BSP/STM32F4-Discovery/stm32f4_discovery_audio.c **** 
  28:Drivers/BSP/STM32F4-Discovery/stm32f4_discovery_audio.c **** a) PLAY A FILE:
  29:Drivers/BSP/STM32F4-Discovery/stm32f4_discovery_audio.c **** ==============
  30:Drivers/BSP/STM32F4-Discovery/stm32f4_discovery_audio.c ****    + Call the function BSP_AUDIO_OUT_Init(
ARM GAS  /var/folders/0z/tsy30v1j4xl4_7kw94k978ww0000gn/T//cclxGFm1.s 			page 2


  31:Drivers/BSP/STM32F4-Discovery/stm32f4_discovery_audio.c ****                                     OutputDevice: physical output mode (OUTPUT_DEVICE_SPEAKER, 
  32:Drivers/BSP/STM32F4-Discovery/stm32f4_discovery_audio.c ****                                                  OUTPUT_DEVICE_HEADPHONE, OUTPUT_DEVICE_AUTO or 
  33:Drivers/BSP/STM32F4-Discovery/stm32f4_discovery_audio.c ****                                                  OUTPUT_DEVICE_BOTH)
  34:Drivers/BSP/STM32F4-Discovery/stm32f4_discovery_audio.c ****                                     Volume: initial volume to be set (0 is min (mute), 100 is max (
  35:Drivers/BSP/STM32F4-Discovery/stm32f4_discovery_audio.c ****                                     AudioFreq: Audio frequency in Hz (8000, 16000, 22500, 32000 ...
  36:Drivers/BSP/STM32F4-Discovery/stm32f4_discovery_audio.c ****                                     this parameter is relative to the audio file/stream type.
  37:Drivers/BSP/STM32F4-Discovery/stm32f4_discovery_audio.c ****                                    )
  38:Drivers/BSP/STM32F4-Discovery/stm32f4_discovery_audio.c ****       This function configures all the hardware required for the audio application (codec, I2C, I2S
  39:Drivers/BSP/STM32F4-Discovery/stm32f4_discovery_audio.c ****       GPIOs, DMA and interrupt if needed). This function returns 0 if configuration is OK.
  40:Drivers/BSP/STM32F4-Discovery/stm32f4_discovery_audio.c ****       If the returned value is different from 0 or the function is stuck then the communication wit
  41:Drivers/BSP/STM32F4-Discovery/stm32f4_discovery_audio.c ****       the codec (try to un-plug the power or reset device in this case).
  42:Drivers/BSP/STM32F4-Discovery/stm32f4_discovery_audio.c ****       - OUTPUT_DEVICE_SPEAKER: only speaker will be set as output for the audio stream.
  43:Drivers/BSP/STM32F4-Discovery/stm32f4_discovery_audio.c ****       - OUTPUT_DEVICE_HEADPHONE: only headphones will be set as output for the audio stream.
  44:Drivers/BSP/STM32F4-Discovery/stm32f4_discovery_audio.c ****       - OUTPUT_DEVICE_AUTO: Selection of output device is made through external switch (implemented
  45:Drivers/BSP/STM32F4-Discovery/stm32f4_discovery_audio.c ****          into the audio jack on the discovery board). When the Headphone is connected it is used
  46:Drivers/BSP/STM32F4-Discovery/stm32f4_discovery_audio.c ****          as output. When the headphone is disconnected from the audio jack, the output is
  47:Drivers/BSP/STM32F4-Discovery/stm32f4_discovery_audio.c ****          automatically switched to Speaker.
  48:Drivers/BSP/STM32F4-Discovery/stm32f4_discovery_audio.c ****       - OUTPUT_DEVICE_BOTH: both Speaker and Headphone are used as outputs for the audio stream
  49:Drivers/BSP/STM32F4-Discovery/stm32f4_discovery_audio.c ****          at the same time.
  50:Drivers/BSP/STM32F4-Discovery/stm32f4_discovery_audio.c ****    + Call the function BSP_AUDIO_OUT_Play(
  51:Drivers/BSP/STM32F4-Discovery/stm32f4_discovery_audio.c ****                                   pBuffer: pointer to the audio data file address
  52:Drivers/BSP/STM32F4-Discovery/stm32f4_discovery_audio.c ****                                   Size: size of the buffer to be sent in Bytes
  53:Drivers/BSP/STM32F4-Discovery/stm32f4_discovery_audio.c ****                                  )
  54:Drivers/BSP/STM32F4-Discovery/stm32f4_discovery_audio.c ****       to start playing (for the first time) from the audio file/stream.
  55:Drivers/BSP/STM32F4-Discovery/stm32f4_discovery_audio.c ****    + Call the function BSP_AUDIO_OUT_Pause() to pause playing 
  56:Drivers/BSP/STM32F4-Discovery/stm32f4_discovery_audio.c ****    + Call the function BSP_AUDIO_OUT_Resume() to resume playing.
  57:Drivers/BSP/STM32F4-Discovery/stm32f4_discovery_audio.c ****        Note. After calling BSP_AUDIO_OUT_Pause() function for pause, only BSP_AUDIO_OUT_Resume() sh
  58:Drivers/BSP/STM32F4-Discovery/stm32f4_discovery_audio.c ****           for resume (it is not allowed to call BSP_AUDIO_OUT_Play() in this case).
  59:Drivers/BSP/STM32F4-Discovery/stm32f4_discovery_audio.c ****        Note. This function should be called only when the audio file is played or paused (not stopp
  60:Drivers/BSP/STM32F4-Discovery/stm32f4_discovery_audio.c ****    + For each mode, you may need to implement the relative callback functions into your code.
  61:Drivers/BSP/STM32F4-Discovery/stm32f4_discovery_audio.c ****       The Callback functions are named BSP_AUDIO_OUT_XXXCallBack() and only their prototypes are de
  62:Drivers/BSP/STM32F4-Discovery/stm32f4_discovery_audio.c ****       the stm32f4_discovery_audio.h file. (refer to the example for more details on the callbacks i
  63:Drivers/BSP/STM32F4-Discovery/stm32f4_discovery_audio.c ****    + To Stop playing, to modify the volume level, the frequency or to mute, use the functions
  64:Drivers/BSP/STM32F4-Discovery/stm32f4_discovery_audio.c ****        BSP_AUDIO_OUT_Stop(), BSP_AUDIO_OUT_SetVolume(), AUDIO_OUT_SetFrequency() BSP_AUDIO_OUT_SetO
  65:Drivers/BSP/STM32F4-Discovery/stm32f4_discovery_audio.c ****    + The driver API and the callback functions are at the end of the stm32f4_discovery_audio.h file
  66:Drivers/BSP/STM32F4-Discovery/stm32f4_discovery_audio.c ****    
  67:Drivers/BSP/STM32F4-Discovery/stm32f4_discovery_audio.c **** Driver architecture:
  68:Drivers/BSP/STM32F4-Discovery/stm32f4_discovery_audio.c **** --------------------
  69:Drivers/BSP/STM32F4-Discovery/stm32f4_discovery_audio.c ****    + This driver provide the High Audio Layer: consists of the function API exported in the stm32f4
  70:Drivers/BSP/STM32F4-Discovery/stm32f4_discovery_audio.c ****        (BSP_AUDIO_OUT_Init(), BSP_AUDIO_OUT_Play() ...)
  71:Drivers/BSP/STM32F4-Discovery/stm32f4_discovery_audio.c ****    + This driver provide also the Media Access Layer (MAL): which consists of functions allowing to
  72:Drivers/BSP/STM32F4-Discovery/stm32f4_discovery_audio.c ****        providing the audio file/stream. These functions are also included as local functions into
  73:Drivers/BSP/STM32F4-Discovery/stm32f4_discovery_audio.c ****        the stm32f4_discovery_audio.c file (I2S3_Init()...)
  74:Drivers/BSP/STM32F4-Discovery/stm32f4_discovery_audio.c **** 
  75:Drivers/BSP/STM32F4-Discovery/stm32f4_discovery_audio.c **** Known Limitations:
  76:Drivers/BSP/STM32F4-Discovery/stm32f4_discovery_audio.c **** -------------------
  77:Drivers/BSP/STM32F4-Discovery/stm32f4_discovery_audio.c ****    1- When using the Speaker, if the audio file quality is not high enough, the speaker output
  78:Drivers/BSP/STM32F4-Discovery/stm32f4_discovery_audio.c ****       may produce high and uncomfortable noise level. To avoid this issue, to use speaker
  79:Drivers/BSP/STM32F4-Discovery/stm32f4_discovery_audio.c ****       output properly, try to increase audio file sampling rate (typically higher than 48KHz).
  80:Drivers/BSP/STM32F4-Discovery/stm32f4_discovery_audio.c ****       This operation will lead to larger file size.
  81:Drivers/BSP/STM32F4-Discovery/stm32f4_discovery_audio.c ****    2- Communication with the audio codec (through I2C) may be corrupted if it is interrupted by som
  82:Drivers/BSP/STM32F4-Discovery/stm32f4_discovery_audio.c ****       user interrupt routines (in this case, interrupts could be disabled just before the start of 
  83:Drivers/BSP/STM32F4-Discovery/stm32f4_discovery_audio.c ****       communication then re-enabled when it is over). Note that this communication is only done at
  84:Drivers/BSP/STM32F4-Discovery/stm32f4_discovery_audio.c ****       the configuration phase (BSP_AUDIO_OUT_Init() or BSP_AUDIO_OUT_Stop()) and when Volume contro
  85:Drivers/BSP/STM32F4-Discovery/stm32f4_discovery_audio.c ****       performed (BSP_AUDIO_OUT_SetVolume() or BSP_AUDIO_OUT_SetMute()or BSP_AUDIO_OUT_SetOutputMode
  86:Drivers/BSP/STM32F4-Discovery/stm32f4_discovery_audio.c ****       When the audio data is played, no communication is required with the audio codec.
  87:Drivers/BSP/STM32F4-Discovery/stm32f4_discovery_audio.c ****    3- Parsing of audio file is not implemented (in order to determine audio file properties: Mono/S
ARM GAS  /var/folders/0z/tsy30v1j4xl4_7kw94k978ww0000gn/T//cclxGFm1.s 			page 3


  88:Drivers/BSP/STM32F4-Discovery/stm32f4_discovery_audio.c ****       File size, Audio Frequency, Audio Data header size ...). The configuration is fixed for the g
  89:Drivers/BSP/STM32F4-Discovery/stm32f4_discovery_audio.c ****    4- Supports only Stereo audio streaming. To play mono audio streams, each data should be sent tw
  90:Drivers/BSP/STM32F4-Discovery/stm32f4_discovery_audio.c ****       on the I2S or should be duplicated on the source buffer. Or convert the stream in stereo befo
  91:Drivers/BSP/STM32F4-Discovery/stm32f4_discovery_audio.c ****    5- Supports only 16-bits audio data size.
  92:Drivers/BSP/STM32F4-Discovery/stm32f4_discovery_audio.c **** 
  93:Drivers/BSP/STM32F4-Discovery/stm32f4_discovery_audio.c **** b) RECORD A FILE:
  94:Drivers/BSP/STM32F4-Discovery/stm32f4_discovery_audio.c **** ================
  95:Drivers/BSP/STM32F4-Discovery/stm32f4_discovery_audio.c ****    + Call the function BSP_AUDIO_IN_Init(
  96:Drivers/BSP/STM32F4-Discovery/stm32f4_discovery_audio.c ****                                     AudioFreq: Audio frequency in Hz (8000, 16000, 22500, 32000 ...
  97:Drivers/BSP/STM32F4-Discovery/stm32f4_discovery_audio.c ****                                     )
  98:Drivers/BSP/STM32F4-Discovery/stm32f4_discovery_audio.c ****       This function configures all the hardware required for the audio application (I2S, 
  99:Drivers/BSP/STM32F4-Discovery/stm32f4_discovery_audio.c ****       GPIOs, DMA and interrupt if needed). This function returns 0 if configuration is OK.
 100:Drivers/BSP/STM32F4-Discovery/stm32f4_discovery_audio.c **** 
 101:Drivers/BSP/STM32F4-Discovery/stm32f4_discovery_audio.c ****    + Call the function BSP_AUDIO_IN_Record(
 102:Drivers/BSP/STM32F4-Discovery/stm32f4_discovery_audio.c ****                             pbuf Main buffer pointer for the recorded data storing  
 103:Drivers/BSP/STM32F4-Discovery/stm32f4_discovery_audio.c ****                             size Current size of the recorded buffer
 104:Drivers/BSP/STM32F4-Discovery/stm32f4_discovery_audio.c ****                             )
 105:Drivers/BSP/STM32F4-Discovery/stm32f4_discovery_audio.c ****       to start recording from the microphone.
 106:Drivers/BSP/STM32F4-Discovery/stm32f4_discovery_audio.c **** 
 107:Drivers/BSP/STM32F4-Discovery/stm32f4_discovery_audio.c ****    + User needs to implement user callbacks to retrieve data saved in the record buffer
 108:Drivers/BSP/STM32F4-Discovery/stm32f4_discovery_audio.c ****       (AUDIO_IN_RxHalfCpltCallback/BSP_AUDIO_IN_ReceiveComplete_CallBack)
 109:Drivers/BSP/STM32F4-Discovery/stm32f4_discovery_audio.c **** 
 110:Drivers/BSP/STM32F4-Discovery/stm32f4_discovery_audio.c ****    + Call the function AUDIO_IN_STOP() to stop recording 
 111:Drivers/BSP/STM32F4-Discovery/stm32f4_discovery_audio.c **** 
 112:Drivers/BSP/STM32F4-Discovery/stm32f4_discovery_audio.c **** ==============================================================================*/
 113:Drivers/BSP/STM32F4-Discovery/stm32f4_discovery_audio.c **** 
 114:Drivers/BSP/STM32F4-Discovery/stm32f4_discovery_audio.c **** /* Includes ------------------------------------------------------------------*/
 115:Drivers/BSP/STM32F4-Discovery/stm32f4_discovery_audio.c **** #include "stm32f4_discovery_audio.h"
 116:Drivers/BSP/STM32F4-Discovery/stm32f4_discovery_audio.c **** 
 117:Drivers/BSP/STM32F4-Discovery/stm32f4_discovery_audio.c **** /** @addtogroup BSP
 118:Drivers/BSP/STM32F4-Discovery/stm32f4_discovery_audio.c ****   * @{
 119:Drivers/BSP/STM32F4-Discovery/stm32f4_discovery_audio.c ****   */
 120:Drivers/BSP/STM32F4-Discovery/stm32f4_discovery_audio.c ****   
 121:Drivers/BSP/STM32F4-Discovery/stm32f4_discovery_audio.c **** /** @addtogroup STM32F4_DISCOVERY
 122:Drivers/BSP/STM32F4-Discovery/stm32f4_discovery_audio.c ****   * @{
 123:Drivers/BSP/STM32F4-Discovery/stm32f4_discovery_audio.c ****   */
 124:Drivers/BSP/STM32F4-Discovery/stm32f4_discovery_audio.c **** 
 125:Drivers/BSP/STM32F4-Discovery/stm32f4_discovery_audio.c **** /** @defgroup STM32F4_DISCOVERY_AUDIO STM32F4 DISCOVERY AUDIO
 126:Drivers/BSP/STM32F4-Discovery/stm32f4_discovery_audio.c ****   * @brief This file includes the low layer audio driver available on STM32F4-Discovery
 127:Drivers/BSP/STM32F4-Discovery/stm32f4_discovery_audio.c ****   *        discovery board.
 128:Drivers/BSP/STM32F4-Discovery/stm32f4_discovery_audio.c ****   * @{
 129:Drivers/BSP/STM32F4-Discovery/stm32f4_discovery_audio.c ****   */ 
 130:Drivers/BSP/STM32F4-Discovery/stm32f4_discovery_audio.c **** 
 131:Drivers/BSP/STM32F4-Discovery/stm32f4_discovery_audio.c **** /** @defgroup STM32F4_DISCOVERY_AUDIO_Private_Types STM32F4 DISCOVERY AUDIO Private Types
 132:Drivers/BSP/STM32F4-Discovery/stm32f4_discovery_audio.c ****   * @{
 133:Drivers/BSP/STM32F4-Discovery/stm32f4_discovery_audio.c ****   */ 
 134:Drivers/BSP/STM32F4-Discovery/stm32f4_discovery_audio.c **** /**
 135:Drivers/BSP/STM32F4-Discovery/stm32f4_discovery_audio.c ****   * @}
 136:Drivers/BSP/STM32F4-Discovery/stm32f4_discovery_audio.c ****   */ 
 137:Drivers/BSP/STM32F4-Discovery/stm32f4_discovery_audio.c ****   
 138:Drivers/BSP/STM32F4-Discovery/stm32f4_discovery_audio.c **** /** @defgroup STM32F4_DISCOVERY_AUDIO_Private_Defines STM32F4 DISCOVERY AUDIO Private Defines
 139:Drivers/BSP/STM32F4-Discovery/stm32f4_discovery_audio.c ****   * @{
 140:Drivers/BSP/STM32F4-Discovery/stm32f4_discovery_audio.c ****   */ 
 141:Drivers/BSP/STM32F4-Discovery/stm32f4_discovery_audio.c **** /* These PLL parameters are valid when the f(VCO clock) = 1Mhz */
 142:Drivers/BSP/STM32F4-Discovery/stm32f4_discovery_audio.c **** const uint32_t I2SFreq[8] = {8000, 11025, 16000, 22050, 32000, 44100, 48000, 96000};
 143:Drivers/BSP/STM32F4-Discovery/stm32f4_discovery_audio.c **** const uint32_t I2SPLLN[8] = {256, 429, 213, 429, 426, 271, 258, 344};
 144:Drivers/BSP/STM32F4-Discovery/stm32f4_discovery_audio.c **** const uint32_t I2SPLLR[8] = {5, 4, 4, 4, 4, 6, 3, 1};
ARM GAS  /var/folders/0z/tsy30v1j4xl4_7kw94k978ww0000gn/T//cclxGFm1.s 			page 4


 145:Drivers/BSP/STM32F4-Discovery/stm32f4_discovery_audio.c **** /**
 146:Drivers/BSP/STM32F4-Discovery/stm32f4_discovery_audio.c ****   * @}
 147:Drivers/BSP/STM32F4-Discovery/stm32f4_discovery_audio.c ****   */ 
 148:Drivers/BSP/STM32F4-Discovery/stm32f4_discovery_audio.c **** 
 149:Drivers/BSP/STM32F4-Discovery/stm32f4_discovery_audio.c **** /** @defgroup STM32F4_DISCOVERY_AUDIO_Private_Macros STM32F4 DISCOVERY AUDIO Private Macros
 150:Drivers/BSP/STM32F4-Discovery/stm32f4_discovery_audio.c ****   * @{
 151:Drivers/BSP/STM32F4-Discovery/stm32f4_discovery_audio.c ****   */
 152:Drivers/BSP/STM32F4-Discovery/stm32f4_discovery_audio.c **** /**
 153:Drivers/BSP/STM32F4-Discovery/stm32f4_discovery_audio.c ****   * @}
 154:Drivers/BSP/STM32F4-Discovery/stm32f4_discovery_audio.c ****   */ 
 155:Drivers/BSP/STM32F4-Discovery/stm32f4_discovery_audio.c ****   
 156:Drivers/BSP/STM32F4-Discovery/stm32f4_discovery_audio.c **** /** @defgroup STM32F4_DISCOVERY_AUDIO_Private_Variables STM32F4 DISCOVERY AUDIO Private Variables
 157:Drivers/BSP/STM32F4-Discovery/stm32f4_discovery_audio.c ****   * @{
 158:Drivers/BSP/STM32F4-Discovery/stm32f4_discovery_audio.c ****   */
 159:Drivers/BSP/STM32F4-Discovery/stm32f4_discovery_audio.c **** /*##### PLAY #####*/
 160:Drivers/BSP/STM32F4-Discovery/stm32f4_discovery_audio.c **** static AUDIO_DrvTypeDef           *pAudioDrv;
 161:Drivers/BSP/STM32F4-Discovery/stm32f4_discovery_audio.c **** I2S_HandleTypeDef                 hAudioOutI2s;
 162:Drivers/BSP/STM32F4-Discovery/stm32f4_discovery_audio.c **** 
 163:Drivers/BSP/STM32F4-Discovery/stm32f4_discovery_audio.c **** /*### RECORDER ###*/
 164:Drivers/BSP/STM32F4-Discovery/stm32f4_discovery_audio.c **** I2S_HandleTypeDef                 hAudioInI2s;
 165:Drivers/BSP/STM32F4-Discovery/stm32f4_discovery_audio.c **** 
 166:Drivers/BSP/STM32F4-Discovery/stm32f4_discovery_audio.c **** /* PDM filters params */
 167:Drivers/BSP/STM32F4-Discovery/stm32f4_discovery_audio.c **** PDM_Filter_Handler_t  PDM_FilterHandler[2];
 168:Drivers/BSP/STM32F4-Discovery/stm32f4_discovery_audio.c **** PDM_Filter_Config_t   PDM_FilterConfig[2];
 169:Drivers/BSP/STM32F4-Discovery/stm32f4_discovery_audio.c **** 
 170:Drivers/BSP/STM32F4-Discovery/stm32f4_discovery_audio.c **** __IO uint16_t AudioInVolume = DEFAULT_AUDIO_IN_VOLUME;
 171:Drivers/BSP/STM32F4-Discovery/stm32f4_discovery_audio.c **** /**
 172:Drivers/BSP/STM32F4-Discovery/stm32f4_discovery_audio.c ****   * @}
 173:Drivers/BSP/STM32F4-Discovery/stm32f4_discovery_audio.c ****   */ 
 174:Drivers/BSP/STM32F4-Discovery/stm32f4_discovery_audio.c **** 
 175:Drivers/BSP/STM32F4-Discovery/stm32f4_discovery_audio.c **** /** @defgroup STM32F4_DISCOVERY_AUDIO_Private_Function_Prototypes STM32F4 DISCOVERY AUDIO Private F
 176:Drivers/BSP/STM32F4-Discovery/stm32f4_discovery_audio.c ****   * @{
 177:Drivers/BSP/STM32F4-Discovery/stm32f4_discovery_audio.c ****   */ 
 178:Drivers/BSP/STM32F4-Discovery/stm32f4_discovery_audio.c **** static uint8_t I2S3_Init(uint32_t AudioFreq);
 179:Drivers/BSP/STM32F4-Discovery/stm32f4_discovery_audio.c **** static uint8_t I2S2_Init(uint32_t AudioFreq);
 180:Drivers/BSP/STM32F4-Discovery/stm32f4_discovery_audio.c **** static void PDMDecoder_Init(uint32_t AudioFreq, uint32_t ChnlNbrIn, uint32_t ChnlNbrOut);
 181:Drivers/BSP/STM32F4-Discovery/stm32f4_discovery_audio.c **** /**
 182:Drivers/BSP/STM32F4-Discovery/stm32f4_discovery_audio.c ****   * @}
 183:Drivers/BSP/STM32F4-Discovery/stm32f4_discovery_audio.c ****   */ 
 184:Drivers/BSP/STM32F4-Discovery/stm32f4_discovery_audio.c **** 
 185:Drivers/BSP/STM32F4-Discovery/stm32f4_discovery_audio.c **** /** @defgroup STM32F4_DISCOVERY_AUDIO_OUT_Private_Functions STM32F4 DISCOVERY AUDIO OUT Private Fun
 186:Drivers/BSP/STM32F4-Discovery/stm32f4_discovery_audio.c ****   * @{
 187:Drivers/BSP/STM32F4-Discovery/stm32f4_discovery_audio.c ****   */ 
 188:Drivers/BSP/STM32F4-Discovery/stm32f4_discovery_audio.c **** 
 189:Drivers/BSP/STM32F4-Discovery/stm32f4_discovery_audio.c **** /**
 190:Drivers/BSP/STM32F4-Discovery/stm32f4_discovery_audio.c ****   * @brief  Configures the audio peripherals.
 191:Drivers/BSP/STM32F4-Discovery/stm32f4_discovery_audio.c ****   * @param  OutputDevice: OUTPUT_DEVICE_SPEAKER, OUTPUT_DEVICE_HEADPHONE,
 192:Drivers/BSP/STM32F4-Discovery/stm32f4_discovery_audio.c ****   *                       OUTPUT_DEVICE_BOTH or OUTPUT_DEVICE_AUTO .
 193:Drivers/BSP/STM32F4-Discovery/stm32f4_discovery_audio.c ****   * @param  Volume: Initial volume level (from 0 (Mute) to 100 (Max))
 194:Drivers/BSP/STM32F4-Discovery/stm32f4_discovery_audio.c ****   * @param  AudioFreq: Audio frequency used to play the audio stream.
 195:Drivers/BSP/STM32F4-Discovery/stm32f4_discovery_audio.c ****   * @retval AUDIO_OK if correct communication, else wrong communication
 196:Drivers/BSP/STM32F4-Discovery/stm32f4_discovery_audio.c ****   */
 197:Drivers/BSP/STM32F4-Discovery/stm32f4_discovery_audio.c **** uint8_t BSP_AUDIO_OUT_Init(uint16_t OutputDevice, uint8_t Volume, uint32_t AudioFreq)
 198:Drivers/BSP/STM32F4-Discovery/stm32f4_discovery_audio.c **** {    
 199:Drivers/BSP/STM32F4-Discovery/stm32f4_discovery_audio.c ****   uint8_t ret = AUDIO_OK;
 200:Drivers/BSP/STM32F4-Discovery/stm32f4_discovery_audio.c ****   
 201:Drivers/BSP/STM32F4-Discovery/stm32f4_discovery_audio.c ****   /* PLL clock is set depending by the AudioFreq (44.1khz vs 48khz groups) */ 
ARM GAS  /var/folders/0z/tsy30v1j4xl4_7kw94k978ww0000gn/T//cclxGFm1.s 			page 5


 202:Drivers/BSP/STM32F4-Discovery/stm32f4_discovery_audio.c ****   BSP_AUDIO_OUT_ClockConfig(&hAudioOutI2s, AudioFreq, NULL);
 203:Drivers/BSP/STM32F4-Discovery/stm32f4_discovery_audio.c ****   
 204:Drivers/BSP/STM32F4-Discovery/stm32f4_discovery_audio.c ****   /* I2S data transfer preparation:
 205:Drivers/BSP/STM32F4-Discovery/stm32f4_discovery_audio.c ****   Prepare the Media to be used for the audio transfer from memory to I2S peripheral */
 206:Drivers/BSP/STM32F4-Discovery/stm32f4_discovery_audio.c ****   hAudioOutI2s.Instance = I2S3;
 207:Drivers/BSP/STM32F4-Discovery/stm32f4_discovery_audio.c ****   if(HAL_I2S_GetState(&hAudioOutI2s) == HAL_I2S_STATE_RESET)
 208:Drivers/BSP/STM32F4-Discovery/stm32f4_discovery_audio.c ****   {
 209:Drivers/BSP/STM32F4-Discovery/stm32f4_discovery_audio.c ****     /* Init the I2S MSP: this __weak function can be redefined by the application*/
 210:Drivers/BSP/STM32F4-Discovery/stm32f4_discovery_audio.c ****     BSP_AUDIO_OUT_MspInit(&hAudioOutI2s, NULL);
 211:Drivers/BSP/STM32F4-Discovery/stm32f4_discovery_audio.c ****   }
 212:Drivers/BSP/STM32F4-Discovery/stm32f4_discovery_audio.c ****   
 213:Drivers/BSP/STM32F4-Discovery/stm32f4_discovery_audio.c ****   /* I2S data transfer preparation:
 214:Drivers/BSP/STM32F4-Discovery/stm32f4_discovery_audio.c ****   Prepare the Media to be used for the audio transfer from memory to I2S peripheral */
 215:Drivers/BSP/STM32F4-Discovery/stm32f4_discovery_audio.c ****   /* Configure the I2S peripheral */
 216:Drivers/BSP/STM32F4-Discovery/stm32f4_discovery_audio.c ****   if(I2S3_Init(AudioFreq) != AUDIO_OK)
 217:Drivers/BSP/STM32F4-Discovery/stm32f4_discovery_audio.c ****   {
 218:Drivers/BSP/STM32F4-Discovery/stm32f4_discovery_audio.c ****     ret = AUDIO_ERROR;
 219:Drivers/BSP/STM32F4-Discovery/stm32f4_discovery_audio.c ****   }
 220:Drivers/BSP/STM32F4-Discovery/stm32f4_discovery_audio.c ****   
 221:Drivers/BSP/STM32F4-Discovery/stm32f4_discovery_audio.c ****   if(ret == AUDIO_OK)
 222:Drivers/BSP/STM32F4-Discovery/stm32f4_discovery_audio.c ****   {
 223:Drivers/BSP/STM32F4-Discovery/stm32f4_discovery_audio.c ****     /* Retieve audio codec identifier */
 224:Drivers/BSP/STM32F4-Discovery/stm32f4_discovery_audio.c ****     if(((cs43l22_drv.ReadID(AUDIO_I2C_ADDRESS)) & CS43L22_ID_MASK) == CS43L22_ID)
 225:Drivers/BSP/STM32F4-Discovery/stm32f4_discovery_audio.c ****     {  
 226:Drivers/BSP/STM32F4-Discovery/stm32f4_discovery_audio.c ****       /* Initialize the audio driver structure */
 227:Drivers/BSP/STM32F4-Discovery/stm32f4_discovery_audio.c ****       pAudioDrv = &cs43l22_drv; 
 228:Drivers/BSP/STM32F4-Discovery/stm32f4_discovery_audio.c ****     }
 229:Drivers/BSP/STM32F4-Discovery/stm32f4_discovery_audio.c ****     else
 230:Drivers/BSP/STM32F4-Discovery/stm32f4_discovery_audio.c ****     {
 231:Drivers/BSP/STM32F4-Discovery/stm32f4_discovery_audio.c ****       ret = AUDIO_ERROR;
 232:Drivers/BSP/STM32F4-Discovery/stm32f4_discovery_audio.c ****     }
 233:Drivers/BSP/STM32F4-Discovery/stm32f4_discovery_audio.c ****   }
 234:Drivers/BSP/STM32F4-Discovery/stm32f4_discovery_audio.c ****   
 235:Drivers/BSP/STM32F4-Discovery/stm32f4_discovery_audio.c ****   if(ret == AUDIO_OK)
 236:Drivers/BSP/STM32F4-Discovery/stm32f4_discovery_audio.c ****   {
 237:Drivers/BSP/STM32F4-Discovery/stm32f4_discovery_audio.c ****     pAudioDrv->Init(AUDIO_I2C_ADDRESS, OutputDevice, Volume, AudioFreq);
 238:Drivers/BSP/STM32F4-Discovery/stm32f4_discovery_audio.c ****   }
 239:Drivers/BSP/STM32F4-Discovery/stm32f4_discovery_audio.c ****   
 240:Drivers/BSP/STM32F4-Discovery/stm32f4_discovery_audio.c ****   return ret;
 241:Drivers/BSP/STM32F4-Discovery/stm32f4_discovery_audio.c **** }
 242:Drivers/BSP/STM32F4-Discovery/stm32f4_discovery_audio.c **** 
 243:Drivers/BSP/STM32F4-Discovery/stm32f4_discovery_audio.c **** /**
 244:Drivers/BSP/STM32F4-Discovery/stm32f4_discovery_audio.c ****   * @brief  Starts playing audio stream from a data buffer for a determined size. 
 245:Drivers/BSP/STM32F4-Discovery/stm32f4_discovery_audio.c ****   * @param  pBuffer: Pointer to the buffer 
 246:Drivers/BSP/STM32F4-Discovery/stm32f4_discovery_audio.c ****   * @param  Size: Number of audio data BYTES.
 247:Drivers/BSP/STM32F4-Discovery/stm32f4_discovery_audio.c ****   * @retval AUDIO_OK if correct communication, else wrong communication
 248:Drivers/BSP/STM32F4-Discovery/stm32f4_discovery_audio.c ****   */
 249:Drivers/BSP/STM32F4-Discovery/stm32f4_discovery_audio.c **** uint8_t BSP_AUDIO_OUT_Play(uint16_t* pBuffer, uint32_t Size)
 250:Drivers/BSP/STM32F4-Discovery/stm32f4_discovery_audio.c **** {
  29              		.loc 1 250 1 view -0
  30              		.cfi_startproc
  31              		@ args = 0, pretend = 0, frame = 8
  32              		@ frame_needed = 0, uses_anonymous_args = 0
 251:Drivers/BSP/STM32F4-Discovery/stm32f4_discovery_audio.c ****   /* Call the audio Codec Play function */
 252:Drivers/BSP/STM32F4-Discovery/stm32f4_discovery_audio.c ****   if(pAudioDrv->Play(AUDIO_I2C_ADDRESS, pBuffer, Size) != 0)
  33              		.loc 1 252 3 view .LVU1
 250:Drivers/BSP/STM32F4-Discovery/stm32f4_discovery_audio.c ****   /* Call the audio Codec Play function */
ARM GAS  /var/folders/0z/tsy30v1j4xl4_7kw94k978ww0000gn/T//cclxGFm1.s 			page 6


  34              		.loc 1 250 1 is_stmt 0 view .LVU2
  35 0000 10B5     		push	{r4, lr}
  36              		.cfi_def_cfa_offset 8
  37              		.cfi_offset 4, -8
  38              		.cfi_offset 14, -4
  39              		.loc 1 252 15 view .LVU3
  40 0002 0E4B     		ldr	r3, .L8
 250:Drivers/BSP/STM32F4-Discovery/stm32f4_discovery_audio.c ****   /* Call the audio Codec Play function */
  41              		.loc 1 250 1 view .LVU4
  42 0004 82B0     		sub	sp, sp, #8
  43              		.cfi_def_cfa_offset 16
  44              		.loc 1 252 15 view .LVU5
  45 0006 1B68     		ldr	r3, [r3]
  46              		.loc 1 252 6 view .LVU6
  47 0008 0190     		str	r0, [sp, #4]
 250:Drivers/BSP/STM32F4-Discovery/stm32f4_discovery_audio.c ****   /* Call the audio Codec Play function */
  48              		.loc 1 250 1 view .LVU7
  49 000a 0C46     		mov	r4, r1
  50              		.loc 1 252 6 view .LVU8
  51 000c DB68     		ldr	r3, [r3, #12]
 250:Drivers/BSP/STM32F4-Discovery/stm32f4_discovery_audio.c ****   /* Call the audio Codec Play function */
  52              		.loc 1 250 1 view .LVU9
  53 000e 0146     		mov	r1, r0
  54              	.LVL1:
  55              		.loc 1 252 6 view .LVU10
  56 0010 A2B2     		uxth	r2, r4
  57 0012 9420     		movs	r0, #148
  58              	.LVL2:
  59              		.loc 1 252 6 view .LVU11
  60 0014 9847     		blx	r3
  61              	.LVL3:
  62              		.loc 1 252 5 view .LVU12
  63 0016 68B9     		cbnz	r0, .L4
 253:Drivers/BSP/STM32F4-Discovery/stm32f4_discovery_audio.c ****   {
 254:Drivers/BSP/STM32F4-Discovery/stm32f4_discovery_audio.c ****     return AUDIO_ERROR;
 255:Drivers/BSP/STM32F4-Discovery/stm32f4_discovery_audio.c ****   }
 256:Drivers/BSP/STM32F4-Discovery/stm32f4_discovery_audio.c ****   else 
 257:Drivers/BSP/STM32F4-Discovery/stm32f4_discovery_audio.c ****   {
 258:Drivers/BSP/STM32F4-Discovery/stm32f4_discovery_audio.c ****     /* Update the Media layer and enable it for play */  
 259:Drivers/BSP/STM32F4-Discovery/stm32f4_discovery_audio.c ****     HAL_I2S_Transmit_DMA(&hAudioOutI2s, pBuffer, DMA_MAX(Size/AUDIODATA_SIZE)); 
  64              		.loc 1 259 5 is_stmt 1 view .LVU13
  65 0018 B4F5003F 		cmp	r4, #131072
  66 001c 0199     		ldr	r1, [sp, #4]
  67 001e 0848     		ldr	r0, .L8+4
  68 0020 34BF     		ite	cc
  69 0022 C4F34F02 		ubfxcc	r2, r4, #1, #16
  70 0026 4FF6FF72 		movwcs	r2, #65535
  71 002a FFF7FEFF 		bl	HAL_I2S_Transmit_DMA
  72              	.LVL4:
 260:Drivers/BSP/STM32F4-Discovery/stm32f4_discovery_audio.c ****     
 261:Drivers/BSP/STM32F4-Discovery/stm32f4_discovery_audio.c ****     /* Return AUDIO_OK when all operations are correctly done */
 262:Drivers/BSP/STM32F4-Discovery/stm32f4_discovery_audio.c ****     return AUDIO_OK;
  73              		.loc 1 262 5 view .LVU14
  74              		.loc 1 262 12 is_stmt 0 view .LVU15
  75 002e 0020     		movs	r0, #0
 263:Drivers/BSP/STM32F4-Discovery/stm32f4_discovery_audio.c ****   }
 264:Drivers/BSP/STM32F4-Discovery/stm32f4_discovery_audio.c **** }
ARM GAS  /var/folders/0z/tsy30v1j4xl4_7kw94k978ww0000gn/T//cclxGFm1.s 			page 7


  76              		.loc 1 264 1 view .LVU16
  77 0030 02B0     		add	sp, sp, #8
  78              		.cfi_remember_state
  79              		.cfi_def_cfa_offset 8
  80              		@ sp needed
  81 0032 10BD     		pop	{r4, pc}
  82              	.LVL5:
  83              	.L4:
  84              		.cfi_restore_state
 254:Drivers/BSP/STM32F4-Discovery/stm32f4_discovery_audio.c ****   }
  85              		.loc 1 254 12 view .LVU17
  86 0034 0120     		movs	r0, #1
  87              		.loc 1 264 1 view .LVU18
  88 0036 02B0     		add	sp, sp, #8
  89              		.cfi_def_cfa_offset 8
  90              		@ sp needed
  91 0038 10BD     		pop	{r4, pc}
  92              	.LVL6:
  93              	.L9:
  94              		.loc 1 264 1 view .LVU19
  95 003a 00BF     		.align	2
  96              	.L8:
  97 003c 00000000 		.word	.LANCHOR0
  98 0040 00000000 		.word	.LANCHOR1
  99              		.cfi_endproc
 100              	.LFE131:
 102              		.section	.text.BSP_AUDIO_OUT_ChangeBuffer,"ax",%progbits
 103              		.align	1
 104              		.p2align 2,,3
 105              		.global	BSP_AUDIO_OUT_ChangeBuffer
 106              		.syntax unified
 107              		.thumb
 108              		.thumb_func
 110              	BSP_AUDIO_OUT_ChangeBuffer:
 111              	.LVL7:
 112              	.LFB132:
 265:Drivers/BSP/STM32F4-Discovery/stm32f4_discovery_audio.c **** 
 266:Drivers/BSP/STM32F4-Discovery/stm32f4_discovery_audio.c **** /**
 267:Drivers/BSP/STM32F4-Discovery/stm32f4_discovery_audio.c ****   * @brief  Sends n-Bytes on the I2S interface.
 268:Drivers/BSP/STM32F4-Discovery/stm32f4_discovery_audio.c ****   * @param  pData: Pointer to data address 
 269:Drivers/BSP/STM32F4-Discovery/stm32f4_discovery_audio.c ****   * @param  Size: Number of data to be written
 270:Drivers/BSP/STM32F4-Discovery/stm32f4_discovery_audio.c ****   */
 271:Drivers/BSP/STM32F4-Discovery/stm32f4_discovery_audio.c **** void BSP_AUDIO_OUT_ChangeBuffer(uint16_t *pData, uint16_t Size)
 272:Drivers/BSP/STM32F4-Discovery/stm32f4_discovery_audio.c **** {
 113              		.loc 1 272 1 is_stmt 1 view -0
 114              		.cfi_startproc
 115              		@ args = 0, pretend = 0, frame = 0
 116              		@ frame_needed = 0, uses_anonymous_args = 0
 117              		@ link register save eliminated.
 273:Drivers/BSP/STM32F4-Discovery/stm32f4_discovery_audio.c ****   HAL_I2S_Transmit_DMA(&hAudioOutI2s, pData, Size); 
 118              		.loc 1 273 3 view .LVU21
 272:Drivers/BSP/STM32F4-Discovery/stm32f4_discovery_audio.c ****   HAL_I2S_Transmit_DMA(&hAudioOutI2s, pData, Size); 
 119              		.loc 1 272 1 is_stmt 0 view .LVU22
 120 0000 0346     		mov	r3, r0
 121 0002 0A46     		mov	r2, r1
 122              		.loc 1 273 3 view .LVU23
 123 0004 0148     		ldr	r0, .L11
ARM GAS  /var/folders/0z/tsy30v1j4xl4_7kw94k978ww0000gn/T//cclxGFm1.s 			page 8


 124              	.LVL8:
 125              		.loc 1 273 3 view .LVU24
 126 0006 1946     		mov	r1, r3
 127              	.LVL9:
 128              		.loc 1 273 3 view .LVU25
 129 0008 FFF7FEBF 		b	HAL_I2S_Transmit_DMA
 130              	.LVL10:
 131              	.L12:
 132              		.loc 1 273 3 view .LVU26
 133              		.align	2
 134              	.L11:
 135 000c 00000000 		.word	.LANCHOR1
 136              		.cfi_endproc
 137              	.LFE132:
 139              		.section	.text.BSP_AUDIO_OUT_Pause,"ax",%progbits
 140              		.align	1
 141              		.p2align 2,,3
 142              		.global	BSP_AUDIO_OUT_Pause
 143              		.syntax unified
 144              		.thumb
 145              		.thumb_func
 147              	BSP_AUDIO_OUT_Pause:
 148              	.LFB133:
 274:Drivers/BSP/STM32F4-Discovery/stm32f4_discovery_audio.c **** }
 275:Drivers/BSP/STM32F4-Discovery/stm32f4_discovery_audio.c **** 
 276:Drivers/BSP/STM32F4-Discovery/stm32f4_discovery_audio.c **** /**
 277:Drivers/BSP/STM32F4-Discovery/stm32f4_discovery_audio.c ****   * @brief   Pauses the audio file stream. In case of using DMA, the DMA Pause
 278:Drivers/BSP/STM32F4-Discovery/stm32f4_discovery_audio.c ****   *          feature is used.
 279:Drivers/BSP/STM32F4-Discovery/stm32f4_discovery_audio.c ****   * WARNING: When calling BSP_AUDIO_OUT_Pause() function for pause, only the
 280:Drivers/BSP/STM32F4-Discovery/stm32f4_discovery_audio.c ****   *          BSP_AUDIO_OUT_Resume() function should be called for resume (use of BSP_AUDIO_OUT_Play
 281:Drivers/BSP/STM32F4-Discovery/stm32f4_discovery_audio.c ****   *          function for resume could lead to unexpected behavior).
 282:Drivers/BSP/STM32F4-Discovery/stm32f4_discovery_audio.c ****   * @retval  AUDIO_OK if correct communication, else wrong communication
 283:Drivers/BSP/STM32F4-Discovery/stm32f4_discovery_audio.c ****   */
 284:Drivers/BSP/STM32F4-Discovery/stm32f4_discovery_audio.c **** uint8_t BSP_AUDIO_OUT_Pause(void)
 285:Drivers/BSP/STM32F4-Discovery/stm32f4_discovery_audio.c **** {    
 149              		.loc 1 285 1 is_stmt 1 view -0
 150              		.cfi_startproc
 151              		@ args = 0, pretend = 0, frame = 0
 152              		@ frame_needed = 0, uses_anonymous_args = 0
 286:Drivers/BSP/STM32F4-Discovery/stm32f4_discovery_audio.c ****   /* Call the Audio Codec Pause/Resume function */
 287:Drivers/BSP/STM32F4-Discovery/stm32f4_discovery_audio.c ****   if(pAudioDrv->Pause(AUDIO_I2C_ADDRESS) != 0)
 153              		.loc 1 287 3 view .LVU28
 154              		.loc 1 287 15 is_stmt 0 view .LVU29
 155 0000 074B     		ldr	r3, .L18
 156 0002 1B68     		ldr	r3, [r3]
 285:Drivers/BSP/STM32F4-Discovery/stm32f4_discovery_audio.c ****   /* Call the Audio Codec Pause/Resume function */
 157              		.loc 1 285 1 view .LVU30
 158 0004 10B5     		push	{r4, lr}
 159              		.cfi_def_cfa_offset 8
 160              		.cfi_offset 4, -8
 161              		.cfi_offset 14, -4
 162              		.loc 1 287 6 view .LVU31
 163 0006 1B69     		ldr	r3, [r3, #16]
 164 0008 9420     		movs	r0, #148
 165 000a 9847     		blx	r3
 166              	.LVL11:
 167              		.loc 1 287 5 view .LVU32
ARM GAS  /var/folders/0z/tsy30v1j4xl4_7kw94k978ww0000gn/T//cclxGFm1.s 			page 9


 168 000c 08B1     		cbz	r0, .L17
 288:Drivers/BSP/STM32F4-Discovery/stm32f4_discovery_audio.c ****   {
 289:Drivers/BSP/STM32F4-Discovery/stm32f4_discovery_audio.c ****     return AUDIO_ERROR;
 169              		.loc 1 289 12 view .LVU33
 170 000e 0120     		movs	r0, #1
 290:Drivers/BSP/STM32F4-Discovery/stm32f4_discovery_audio.c ****   }
 291:Drivers/BSP/STM32F4-Discovery/stm32f4_discovery_audio.c ****   else
 292:Drivers/BSP/STM32F4-Discovery/stm32f4_discovery_audio.c ****   {
 293:Drivers/BSP/STM32F4-Discovery/stm32f4_discovery_audio.c ****     /* Call the Media layer pause function */
 294:Drivers/BSP/STM32F4-Discovery/stm32f4_discovery_audio.c ****     HAL_I2S_DMAPause(&hAudioOutI2s);
 295:Drivers/BSP/STM32F4-Discovery/stm32f4_discovery_audio.c ****     
 296:Drivers/BSP/STM32F4-Discovery/stm32f4_discovery_audio.c ****     /* Return AUDIO_OK when all operations are correctly done */
 297:Drivers/BSP/STM32F4-Discovery/stm32f4_discovery_audio.c ****     return AUDIO_OK;
 298:Drivers/BSP/STM32F4-Discovery/stm32f4_discovery_audio.c ****   }
 299:Drivers/BSP/STM32F4-Discovery/stm32f4_discovery_audio.c **** }
 171              		.loc 1 299 1 view .LVU34
 172 0010 10BD     		pop	{r4, pc}
 173              	.L17:
 174 0012 0446     		mov	r4, r0
 294:Drivers/BSP/STM32F4-Discovery/stm32f4_discovery_audio.c ****     
 175              		.loc 1 294 5 is_stmt 1 view .LVU35
 176 0014 0348     		ldr	r0, .L18+4
 177 0016 FFF7FEFF 		bl	HAL_I2S_DMAPause
 178              	.LVL12:
 297:Drivers/BSP/STM32F4-Discovery/stm32f4_discovery_audio.c ****   }
 179              		.loc 1 297 5 view .LVU36
 297:Drivers/BSP/STM32F4-Discovery/stm32f4_discovery_audio.c ****   }
 180              		.loc 1 297 12 is_stmt 0 view .LVU37
 181 001a 2046     		mov	r0, r4
 182              		.loc 1 299 1 view .LVU38
 183 001c 10BD     		pop	{r4, pc}
 184              	.L19:
 185 001e 00BF     		.align	2
 186              	.L18:
 187 0020 00000000 		.word	.LANCHOR0
 188 0024 00000000 		.word	.LANCHOR1
 189              		.cfi_endproc
 190              	.LFE133:
 192              		.section	.text.BSP_AUDIO_OUT_Resume,"ax",%progbits
 193              		.align	1
 194              		.p2align 2,,3
 195              		.global	BSP_AUDIO_OUT_Resume
 196              		.syntax unified
 197              		.thumb
 198              		.thumb_func
 200              	BSP_AUDIO_OUT_Resume:
 201              	.LFB134:
 300:Drivers/BSP/STM32F4-Discovery/stm32f4_discovery_audio.c **** 
 301:Drivers/BSP/STM32F4-Discovery/stm32f4_discovery_audio.c **** /**
 302:Drivers/BSP/STM32F4-Discovery/stm32f4_discovery_audio.c ****   * @brief   Resumes the audio file streaming.  
 303:Drivers/BSP/STM32F4-Discovery/stm32f4_discovery_audio.c ****   * WARNING: When calling BSP_AUDIO_OUT_Pause() function for pause, only
 304:Drivers/BSP/STM32F4-Discovery/stm32f4_discovery_audio.c ****   *          BSP_AUDIO_OUT_Resume() function should be called for resume (use of BSP_AUDIO_OUT_Play
 305:Drivers/BSP/STM32F4-Discovery/stm32f4_discovery_audio.c ****   *          function for resume could lead to unexpected behavior).
 306:Drivers/BSP/STM32F4-Discovery/stm32f4_discovery_audio.c ****   * @retval  AUDIO_OK if correct communication, else wrong communication
 307:Drivers/BSP/STM32F4-Discovery/stm32f4_discovery_audio.c ****   */
 308:Drivers/BSP/STM32F4-Discovery/stm32f4_discovery_audio.c **** uint8_t BSP_AUDIO_OUT_Resume(void)
 309:Drivers/BSP/STM32F4-Discovery/stm32f4_discovery_audio.c **** {    
ARM GAS  /var/folders/0z/tsy30v1j4xl4_7kw94k978ww0000gn/T//cclxGFm1.s 			page 10


 202              		.loc 1 309 1 is_stmt 1 view -0
 203              		.cfi_startproc
 204              		@ args = 0, pretend = 0, frame = 0
 205              		@ frame_needed = 0, uses_anonymous_args = 0
 310:Drivers/BSP/STM32F4-Discovery/stm32f4_discovery_audio.c ****   /* Call the Audio Codec Pause/Resume function */
 311:Drivers/BSP/STM32F4-Discovery/stm32f4_discovery_audio.c ****   if(pAudioDrv->Resume(AUDIO_I2C_ADDRESS) != 0)
 206              		.loc 1 311 3 view .LVU40
 207              		.loc 1 311 15 is_stmt 0 view .LVU41
 208 0000 074B     		ldr	r3, .L25
 209 0002 1B68     		ldr	r3, [r3]
 309:Drivers/BSP/STM32F4-Discovery/stm32f4_discovery_audio.c ****   /* Call the Audio Codec Pause/Resume function */
 210              		.loc 1 309 1 view .LVU42
 211 0004 10B5     		push	{r4, lr}
 212              		.cfi_def_cfa_offset 8
 213              		.cfi_offset 4, -8
 214              		.cfi_offset 14, -4
 215              		.loc 1 311 6 view .LVU43
 216 0006 5B69     		ldr	r3, [r3, #20]
 217 0008 9420     		movs	r0, #148
 218 000a 9847     		blx	r3
 219              	.LVL13:
 220              		.loc 1 311 5 view .LVU44
 221 000c 08B1     		cbz	r0, .L24
 312:Drivers/BSP/STM32F4-Discovery/stm32f4_discovery_audio.c ****   {
 313:Drivers/BSP/STM32F4-Discovery/stm32f4_discovery_audio.c ****     return AUDIO_ERROR;
 222              		.loc 1 313 12 view .LVU45
 223 000e 0120     		movs	r0, #1
 314:Drivers/BSP/STM32F4-Discovery/stm32f4_discovery_audio.c ****   }
 315:Drivers/BSP/STM32F4-Discovery/stm32f4_discovery_audio.c ****   else
 316:Drivers/BSP/STM32F4-Discovery/stm32f4_discovery_audio.c ****   {
 317:Drivers/BSP/STM32F4-Discovery/stm32f4_discovery_audio.c ****     /* Call the Media layer resume function */
 318:Drivers/BSP/STM32F4-Discovery/stm32f4_discovery_audio.c ****     HAL_I2S_DMAResume(&hAudioOutI2s);
 319:Drivers/BSP/STM32F4-Discovery/stm32f4_discovery_audio.c ****     
 320:Drivers/BSP/STM32F4-Discovery/stm32f4_discovery_audio.c ****     /* Return AUDIO_OK when all operations are correctly done */
 321:Drivers/BSP/STM32F4-Discovery/stm32f4_discovery_audio.c ****     return AUDIO_OK;
 322:Drivers/BSP/STM32F4-Discovery/stm32f4_discovery_audio.c ****   }
 323:Drivers/BSP/STM32F4-Discovery/stm32f4_discovery_audio.c **** }
 224              		.loc 1 323 1 view .LVU46
 225 0010 10BD     		pop	{r4, pc}
 226              	.L24:
 227 0012 0446     		mov	r4, r0
 318:Drivers/BSP/STM32F4-Discovery/stm32f4_discovery_audio.c ****     
 228              		.loc 1 318 5 is_stmt 1 view .LVU47
 229 0014 0348     		ldr	r0, .L25+4
 230 0016 FFF7FEFF 		bl	HAL_I2S_DMAResume
 231              	.LVL14:
 321:Drivers/BSP/STM32F4-Discovery/stm32f4_discovery_audio.c ****   }
 232              		.loc 1 321 5 view .LVU48
 321:Drivers/BSP/STM32F4-Discovery/stm32f4_discovery_audio.c ****   }
 233              		.loc 1 321 12 is_stmt 0 view .LVU49
 234 001a 2046     		mov	r0, r4
 235              		.loc 1 323 1 view .LVU50
 236 001c 10BD     		pop	{r4, pc}
 237              	.L26:
 238 001e 00BF     		.align	2
 239              	.L25:
 240 0020 00000000 		.word	.LANCHOR0
ARM GAS  /var/folders/0z/tsy30v1j4xl4_7kw94k978ww0000gn/T//cclxGFm1.s 			page 11


 241 0024 00000000 		.word	.LANCHOR1
 242              		.cfi_endproc
 243              	.LFE134:
 245              		.section	.text.BSP_AUDIO_OUT_Stop,"ax",%progbits
 246              		.align	1
 247              		.p2align 2,,3
 248              		.global	BSP_AUDIO_OUT_Stop
 249              		.syntax unified
 250              		.thumb
 251              		.thumb_func
 253              	BSP_AUDIO_OUT_Stop:
 254              	.LVL15:
 255              	.LFB135:
 324:Drivers/BSP/STM32F4-Discovery/stm32f4_discovery_audio.c **** 
 325:Drivers/BSP/STM32F4-Discovery/stm32f4_discovery_audio.c **** /**
 326:Drivers/BSP/STM32F4-Discovery/stm32f4_discovery_audio.c ****   * @brief  Stops audio playing and Power down the Audio Codec. 
 327:Drivers/BSP/STM32F4-Discovery/stm32f4_discovery_audio.c ****   * @param  Option: could be one of the following parameters 
 328:Drivers/BSP/STM32F4-Discovery/stm32f4_discovery_audio.c ****   *           - CODEC_PDWN_HW: completely shut down the codec (physically). 
 329:Drivers/BSP/STM32F4-Discovery/stm32f4_discovery_audio.c ****   *                            Then need to reconfigure the Codec after power on.  
 330:Drivers/BSP/STM32F4-Discovery/stm32f4_discovery_audio.c ****   * @retval AUDIO_OK if correct communication, else wrong communication
 331:Drivers/BSP/STM32F4-Discovery/stm32f4_discovery_audio.c ****   */
 332:Drivers/BSP/STM32F4-Discovery/stm32f4_discovery_audio.c **** uint8_t BSP_AUDIO_OUT_Stop(uint32_t Option)
 333:Drivers/BSP/STM32F4-Discovery/stm32f4_discovery_audio.c **** {
 256              		.loc 1 333 1 is_stmt 1 view -0
 257              		.cfi_startproc
 258              		@ args = 0, pretend = 0, frame = 0
 259              		@ frame_needed = 0, uses_anonymous_args = 0
 334:Drivers/BSP/STM32F4-Discovery/stm32f4_discovery_audio.c ****   /* Call DMA Stop to disable DMA stream before stopping codec */
 335:Drivers/BSP/STM32F4-Discovery/stm32f4_discovery_audio.c ****   HAL_I2S_DMAStop(&hAudioOutI2s);
 260              		.loc 1 335 3 view .LVU52
 333:Drivers/BSP/STM32F4-Discovery/stm32f4_discovery_audio.c ****   /* Call DMA Stop to disable DMA stream before stopping codec */
 261              		.loc 1 333 1 is_stmt 0 view .LVU53
 262 0000 38B5     		push	{r3, r4, r5, lr}
 263              		.cfi_def_cfa_offset 16
 264              		.cfi_offset 3, -16
 265              		.cfi_offset 4, -12
 266              		.cfi_offset 5, -8
 267              		.cfi_offset 14, -4
 333:Drivers/BSP/STM32F4-Discovery/stm32f4_discovery_audio.c ****   /* Call DMA Stop to disable DMA stream before stopping codec */
 268              		.loc 1 333 1 view .LVU54
 269 0002 0546     		mov	r5, r0
 270              		.loc 1 335 3 view .LVU55
 271 0004 0C48     		ldr	r0, .L33
 272              	.LVL16:
 273              		.loc 1 335 3 view .LVU56
 274 0006 FFF7FEFF 		bl	HAL_I2S_DMAStop
 275              	.LVL17:
 336:Drivers/BSP/STM32F4-Discovery/stm32f4_discovery_audio.c ****   
 337:Drivers/BSP/STM32F4-Discovery/stm32f4_discovery_audio.c ****   /* Call Audio Codec Stop function */
 338:Drivers/BSP/STM32F4-Discovery/stm32f4_discovery_audio.c ****   if(pAudioDrv->Stop(AUDIO_I2C_ADDRESS, Option) != 0)
 276              		.loc 1 338 3 is_stmt 1 view .LVU57
 277              		.loc 1 338 15 is_stmt 0 view .LVU58
 278 000a 0C4B     		ldr	r3, .L33+4
 279 000c 1B68     		ldr	r3, [r3]
 280              		.loc 1 338 6 view .LVU59
 281 000e 2946     		mov	r1, r5
 282 0010 9B69     		ldr	r3, [r3, #24]
ARM GAS  /var/folders/0z/tsy30v1j4xl4_7kw94k978ww0000gn/T//cclxGFm1.s 			page 12


 283 0012 9420     		movs	r0, #148
 284 0014 9847     		blx	r3
 285              	.LVL18:
 286              		.loc 1 338 5 view .LVU60
 287 0016 18B9     		cbnz	r0, .L29
 339:Drivers/BSP/STM32F4-Discovery/stm32f4_discovery_audio.c ****   {
 340:Drivers/BSP/STM32F4-Discovery/stm32f4_discovery_audio.c ****     return AUDIO_ERROR;
 341:Drivers/BSP/STM32F4-Discovery/stm32f4_discovery_audio.c ****   }
 342:Drivers/BSP/STM32F4-Discovery/stm32f4_discovery_audio.c ****   else
 343:Drivers/BSP/STM32F4-Discovery/stm32f4_discovery_audio.c ****   {
 344:Drivers/BSP/STM32F4-Discovery/stm32f4_discovery_audio.c ****     if(Option == CODEC_PDWN_HW)
 288              		.loc 1 344 7 view .LVU61
 289 0018 012D     		cmp	r5, #1
 290 001a 0446     		mov	r4, r0
 291              		.loc 1 344 5 is_stmt 1 view .LVU62
 292              		.loc 1 344 7 is_stmt 0 view .LVU63
 293 001c 02D0     		beq	.L32
 345:Drivers/BSP/STM32F4-Discovery/stm32f4_discovery_audio.c ****     { 
 346:Drivers/BSP/STM32F4-Discovery/stm32f4_discovery_audio.c ****       /* Wait at least 1ms */
 347:Drivers/BSP/STM32F4-Discovery/stm32f4_discovery_audio.c ****       HAL_Delay(1);
 348:Drivers/BSP/STM32F4-Discovery/stm32f4_discovery_audio.c ****       
 349:Drivers/BSP/STM32F4-Discovery/stm32f4_discovery_audio.c ****       /* Reset the pin */
 350:Drivers/BSP/STM32F4-Discovery/stm32f4_discovery_audio.c ****       HAL_GPIO_WritePin(AUDIO_RESET_GPIO, AUDIO_RESET_PIN, GPIO_PIN_RESET);
 351:Drivers/BSP/STM32F4-Discovery/stm32f4_discovery_audio.c ****     }
 352:Drivers/BSP/STM32F4-Discovery/stm32f4_discovery_audio.c ****     
 353:Drivers/BSP/STM32F4-Discovery/stm32f4_discovery_audio.c ****     /* Return AUDIO_OK when all operations are correctly done */
 354:Drivers/BSP/STM32F4-Discovery/stm32f4_discovery_audio.c ****     return AUDIO_OK;
 355:Drivers/BSP/STM32F4-Discovery/stm32f4_discovery_audio.c ****   }
 356:Drivers/BSP/STM32F4-Discovery/stm32f4_discovery_audio.c **** }
 294              		.loc 1 356 1 view .LVU64
 295 001e 38BD     		pop	{r3, r4, r5, pc}
 296              	.LVL19:
 297              	.L29:
 340:Drivers/BSP/STM32F4-Discovery/stm32f4_discovery_audio.c ****   }
 298              		.loc 1 340 12 view .LVU65
 299 0020 0120     		movs	r0, #1
 300              		.loc 1 356 1 view .LVU66
 301 0022 38BD     		pop	{r3, r4, r5, pc}
 302              	.LVL20:
 303              	.L32:
 347:Drivers/BSP/STM32F4-Discovery/stm32f4_discovery_audio.c ****       
 304              		.loc 1 347 7 is_stmt 1 view .LVU67
 305 0024 2846     		mov	r0, r5
 306 0026 FFF7FEFF 		bl	HAL_Delay
 307              	.LVL21:
 350:Drivers/BSP/STM32F4-Discovery/stm32f4_discovery_audio.c ****     }
 308              		.loc 1 350 7 view .LVU68
 309 002a 0548     		ldr	r0, .L33+8
 310 002c 2246     		mov	r2, r4
 311 002e 1021     		movs	r1, #16
 312 0030 FFF7FEFF 		bl	HAL_GPIO_WritePin
 313              	.LVL22:
 354:Drivers/BSP/STM32F4-Discovery/stm32f4_discovery_audio.c ****   }
 314              		.loc 1 354 12 is_stmt 0 view .LVU69
 315 0034 2046     		mov	r0, r4
 316              		.loc 1 356 1 view .LVU70
 317 0036 38BD     		pop	{r3, r4, r5, pc}
ARM GAS  /var/folders/0z/tsy30v1j4xl4_7kw94k978ww0000gn/T//cclxGFm1.s 			page 13


 318              	.LVL23:
 319              	.L34:
 320              		.loc 1 356 1 view .LVU71
 321              		.align	2
 322              	.L33:
 323 0038 00000000 		.word	.LANCHOR1
 324 003c 00000000 		.word	.LANCHOR0
 325 0040 000C0240 		.word	1073875968
 326              		.cfi_endproc
 327              	.LFE135:
 329              		.section	.text.BSP_AUDIO_OUT_SetVolume,"ax",%progbits
 330              		.align	1
 331              		.p2align 2,,3
 332              		.global	BSP_AUDIO_OUT_SetVolume
 333              		.syntax unified
 334              		.thumb
 335              		.thumb_func
 337              	BSP_AUDIO_OUT_SetVolume:
 338              	.LVL24:
 339              	.LFB136:
 357:Drivers/BSP/STM32F4-Discovery/stm32f4_discovery_audio.c **** 
 358:Drivers/BSP/STM32F4-Discovery/stm32f4_discovery_audio.c **** /**
 359:Drivers/BSP/STM32F4-Discovery/stm32f4_discovery_audio.c ****   * @brief  Controls the current audio volume level. 
 360:Drivers/BSP/STM32F4-Discovery/stm32f4_discovery_audio.c ****   * @param  Volume: Volume level to be set in percentage from 0% to 100% (0 for 
 361:Drivers/BSP/STM32F4-Discovery/stm32f4_discovery_audio.c ****   *         Mute and 100 for Max volume level).
 362:Drivers/BSP/STM32F4-Discovery/stm32f4_discovery_audio.c ****   * @retval AUDIO_OK if correct communication, else wrong communication
 363:Drivers/BSP/STM32F4-Discovery/stm32f4_discovery_audio.c ****   */
 364:Drivers/BSP/STM32F4-Discovery/stm32f4_discovery_audio.c **** uint8_t BSP_AUDIO_OUT_SetVolume(uint8_t Volume)
 365:Drivers/BSP/STM32F4-Discovery/stm32f4_discovery_audio.c **** {
 340              		.loc 1 365 1 is_stmt 1 view -0
 341              		.cfi_startproc
 342              		@ args = 0, pretend = 0, frame = 0
 343              		@ frame_needed = 0, uses_anonymous_args = 0
 366:Drivers/BSP/STM32F4-Discovery/stm32f4_discovery_audio.c ****   /* Call the codec volume control function with converted volume value */
 367:Drivers/BSP/STM32F4-Discovery/stm32f4_discovery_audio.c ****   if(pAudioDrv->SetVolume(AUDIO_I2C_ADDRESS, Volume) != 0)
 344              		.loc 1 367 3 view .LVU73
 365:Drivers/BSP/STM32F4-Discovery/stm32f4_discovery_audio.c ****   /* Call the codec volume control function with converted volume value */
 345              		.loc 1 365 1 is_stmt 0 view .LVU74
 346 0000 08B5     		push	{r3, lr}
 347              		.cfi_def_cfa_offset 8
 348              		.cfi_offset 3, -8
 349              		.cfi_offset 14, -4
 350              		.loc 1 367 15 view .LVU75
 351 0002 054B     		ldr	r3, .L37
 352 0004 1B68     		ldr	r3, [r3]
 365:Drivers/BSP/STM32F4-Discovery/stm32f4_discovery_audio.c ****   /* Call the codec volume control function with converted volume value */
 353              		.loc 1 365 1 view .LVU76
 354 0006 0146     		mov	r1, r0
 355              		.loc 1 367 6 view .LVU77
 356 0008 1B6A     		ldr	r3, [r3, #32]
 357 000a 9420     		movs	r0, #148
 358              	.LVL25:
 359              		.loc 1 367 6 view .LVU78
 360 000c 9847     		blx	r3
 361              	.LVL26:
 368:Drivers/BSP/STM32F4-Discovery/stm32f4_discovery_audio.c ****   {
 369:Drivers/BSP/STM32F4-Discovery/stm32f4_discovery_audio.c ****     return AUDIO_ERROR;
ARM GAS  /var/folders/0z/tsy30v1j4xl4_7kw94k978ww0000gn/T//cclxGFm1.s 			page 14


 370:Drivers/BSP/STM32F4-Discovery/stm32f4_discovery_audio.c ****   }
 371:Drivers/BSP/STM32F4-Discovery/stm32f4_discovery_audio.c ****   else
 372:Drivers/BSP/STM32F4-Discovery/stm32f4_discovery_audio.c ****   {
 373:Drivers/BSP/STM32F4-Discovery/stm32f4_discovery_audio.c ****     /* Return AUDIO_OK when all operations are correctly done */
 374:Drivers/BSP/STM32F4-Discovery/stm32f4_discovery_audio.c ****     return AUDIO_OK;
 375:Drivers/BSP/STM32F4-Discovery/stm32f4_discovery_audio.c ****   }
 376:Drivers/BSP/STM32F4-Discovery/stm32f4_discovery_audio.c **** }
 362              		.loc 1 376 1 view .LVU79
 363 000e 0038     		subs	r0, r0, #0
 364 0010 18BF     		it	ne
 365 0012 0120     		movne	r0, #1
 366 0014 08BD     		pop	{r3, pc}
 367              	.L38:
 368 0016 00BF     		.align	2
 369              	.L37:
 370 0018 00000000 		.word	.LANCHOR0
 371              		.cfi_endproc
 372              	.LFE136:
 374              		.section	.text.BSP_AUDIO_OUT_SetMute,"ax",%progbits
 375              		.align	1
 376              		.p2align 2,,3
 377              		.global	BSP_AUDIO_OUT_SetMute
 378              		.syntax unified
 379              		.thumb
 380              		.thumb_func
 382              	BSP_AUDIO_OUT_SetMute:
 383              	.LVL27:
 384              	.LFB137:
 377:Drivers/BSP/STM32F4-Discovery/stm32f4_discovery_audio.c **** 
 378:Drivers/BSP/STM32F4-Discovery/stm32f4_discovery_audio.c **** /**
 379:Drivers/BSP/STM32F4-Discovery/stm32f4_discovery_audio.c ****   * @brief  Enables or disables the MUTE mode by software 
 380:Drivers/BSP/STM32F4-Discovery/stm32f4_discovery_audio.c ****   * @param  Cmd: could be AUDIO_MUTE_ON to mute sound or AUDIO_MUTE_OFF to 
 381:Drivers/BSP/STM32F4-Discovery/stm32f4_discovery_audio.c ****   *         unmute the codec and restore previous volume level.
 382:Drivers/BSP/STM32F4-Discovery/stm32f4_discovery_audio.c ****   * @retval AUDIO_OK if correct communication, else wrong communication
 383:Drivers/BSP/STM32F4-Discovery/stm32f4_discovery_audio.c ****   */
 384:Drivers/BSP/STM32F4-Discovery/stm32f4_discovery_audio.c **** uint8_t BSP_AUDIO_OUT_SetMute(uint32_t Cmd)
 385:Drivers/BSP/STM32F4-Discovery/stm32f4_discovery_audio.c **** { 
 385              		.loc 1 385 1 is_stmt 1 view -0
 386              		.cfi_startproc
 387              		@ args = 0, pretend = 0, frame = 0
 388              		@ frame_needed = 0, uses_anonymous_args = 0
 386:Drivers/BSP/STM32F4-Discovery/stm32f4_discovery_audio.c ****   /* Call the Codec Mute function */
 387:Drivers/BSP/STM32F4-Discovery/stm32f4_discovery_audio.c ****   if(pAudioDrv->SetMute(AUDIO_I2C_ADDRESS, Cmd) != 0)
 389              		.loc 1 387 3 view .LVU81
 385:Drivers/BSP/STM32F4-Discovery/stm32f4_discovery_audio.c ****   /* Call the Codec Mute function */
 390              		.loc 1 385 1 is_stmt 0 view .LVU82
 391 0000 08B5     		push	{r3, lr}
 392              		.cfi_def_cfa_offset 8
 393              		.cfi_offset 3, -8
 394              		.cfi_offset 14, -4
 395              		.loc 1 387 15 view .LVU83
 396 0002 054B     		ldr	r3, .L41
 397 0004 1B68     		ldr	r3, [r3]
 385:Drivers/BSP/STM32F4-Discovery/stm32f4_discovery_audio.c ****   /* Call the Codec Mute function */
 398              		.loc 1 385 1 view .LVU84
 399 0006 0146     		mov	r1, r0
 400              		.loc 1 387 6 view .LVU85
ARM GAS  /var/folders/0z/tsy30v1j4xl4_7kw94k978ww0000gn/T//cclxGFm1.s 			page 15


 401 0008 5B6A     		ldr	r3, [r3, #36]
 402 000a 9420     		movs	r0, #148
 403              	.LVL28:
 404              		.loc 1 387 6 view .LVU86
 405 000c 9847     		blx	r3
 406              	.LVL29:
 388:Drivers/BSP/STM32F4-Discovery/stm32f4_discovery_audio.c ****   {
 389:Drivers/BSP/STM32F4-Discovery/stm32f4_discovery_audio.c ****     return AUDIO_ERROR;
 390:Drivers/BSP/STM32F4-Discovery/stm32f4_discovery_audio.c ****   }
 391:Drivers/BSP/STM32F4-Discovery/stm32f4_discovery_audio.c ****   else
 392:Drivers/BSP/STM32F4-Discovery/stm32f4_discovery_audio.c ****   {
 393:Drivers/BSP/STM32F4-Discovery/stm32f4_discovery_audio.c ****     /* Return AUDIO_OK when all operations are correctly done */
 394:Drivers/BSP/STM32F4-Discovery/stm32f4_discovery_audio.c ****     return AUDIO_OK;
 395:Drivers/BSP/STM32F4-Discovery/stm32f4_discovery_audio.c ****   }
 396:Drivers/BSP/STM32F4-Discovery/stm32f4_discovery_audio.c **** }
 407              		.loc 1 396 1 view .LVU87
 408 000e 0038     		subs	r0, r0, #0
 409 0010 18BF     		it	ne
 410 0012 0120     		movne	r0, #1
 411 0014 08BD     		pop	{r3, pc}
 412              	.L42:
 413 0016 00BF     		.align	2
 414              	.L41:
 415 0018 00000000 		.word	.LANCHOR0
 416              		.cfi_endproc
 417              	.LFE137:
 419              		.section	.text.BSP_AUDIO_OUT_SetOutputMode,"ax",%progbits
 420              		.align	1
 421              		.p2align 2,,3
 422              		.global	BSP_AUDIO_OUT_SetOutputMode
 423              		.syntax unified
 424              		.thumb
 425              		.thumb_func
 427              	BSP_AUDIO_OUT_SetOutputMode:
 428              	.LVL30:
 429              	.LFB138:
 397:Drivers/BSP/STM32F4-Discovery/stm32f4_discovery_audio.c **** 
 398:Drivers/BSP/STM32F4-Discovery/stm32f4_discovery_audio.c **** /**
 399:Drivers/BSP/STM32F4-Discovery/stm32f4_discovery_audio.c ****   * @brief  Switch dynamically (while audio file is played) the output target 
 400:Drivers/BSP/STM32F4-Discovery/stm32f4_discovery_audio.c ****   *         (speaker or headphone).
 401:Drivers/BSP/STM32F4-Discovery/stm32f4_discovery_audio.c ****   * @note   This function modifies a global variable of the audio codec driver: OutputDev.
 402:Drivers/BSP/STM32F4-Discovery/stm32f4_discovery_audio.c ****   * @param  Output: specifies the audio output target: OUTPUT_DEVICE_SPEAKER,
 403:Drivers/BSP/STM32F4-Discovery/stm32f4_discovery_audio.c ****   *         OUTPUT_DEVICE_HEADPHONE, OUTPUT_DEVICE_BOTH or OUTPUT_DEVICE_AUTO 
 404:Drivers/BSP/STM32F4-Discovery/stm32f4_discovery_audio.c ****   * @retval AUDIO_OK if correct communication, else wrong communication
 405:Drivers/BSP/STM32F4-Discovery/stm32f4_discovery_audio.c ****   */
 406:Drivers/BSP/STM32F4-Discovery/stm32f4_discovery_audio.c **** uint8_t BSP_AUDIO_OUT_SetOutputMode(uint8_t Output)
 407:Drivers/BSP/STM32F4-Discovery/stm32f4_discovery_audio.c **** {
 430              		.loc 1 407 1 is_stmt 1 view -0
 431              		.cfi_startproc
 432              		@ args = 0, pretend = 0, frame = 0
 433              		@ frame_needed = 0, uses_anonymous_args = 0
 408:Drivers/BSP/STM32F4-Discovery/stm32f4_discovery_audio.c ****   /* Call the Codec output Device function */
 409:Drivers/BSP/STM32F4-Discovery/stm32f4_discovery_audio.c ****   if(pAudioDrv->SetOutputMode(AUDIO_I2C_ADDRESS, Output) != 0)
 434              		.loc 1 409 3 view .LVU89
 407:Drivers/BSP/STM32F4-Discovery/stm32f4_discovery_audio.c ****   /* Call the Codec output Device function */
 435              		.loc 1 407 1 is_stmt 0 view .LVU90
 436 0000 08B5     		push	{r3, lr}
ARM GAS  /var/folders/0z/tsy30v1j4xl4_7kw94k978ww0000gn/T//cclxGFm1.s 			page 16


 437              		.cfi_def_cfa_offset 8
 438              		.cfi_offset 3, -8
 439              		.cfi_offset 14, -4
 440              		.loc 1 409 15 view .LVU91
 441 0002 054B     		ldr	r3, .L45
 442 0004 1B68     		ldr	r3, [r3]
 407:Drivers/BSP/STM32F4-Discovery/stm32f4_discovery_audio.c ****   /* Call the Codec output Device function */
 443              		.loc 1 407 1 view .LVU92
 444 0006 0146     		mov	r1, r0
 445              		.loc 1 409 6 view .LVU93
 446 0008 9B6A     		ldr	r3, [r3, #40]
 447 000a 9420     		movs	r0, #148
 448              	.LVL31:
 449              		.loc 1 409 6 view .LVU94
 450 000c 9847     		blx	r3
 451              	.LVL32:
 410:Drivers/BSP/STM32F4-Discovery/stm32f4_discovery_audio.c ****   {
 411:Drivers/BSP/STM32F4-Discovery/stm32f4_discovery_audio.c ****     return AUDIO_ERROR;
 412:Drivers/BSP/STM32F4-Discovery/stm32f4_discovery_audio.c ****   }
 413:Drivers/BSP/STM32F4-Discovery/stm32f4_discovery_audio.c ****   else
 414:Drivers/BSP/STM32F4-Discovery/stm32f4_discovery_audio.c ****   {
 415:Drivers/BSP/STM32F4-Discovery/stm32f4_discovery_audio.c ****     /* Return AUDIO_OK when all operations are correctly done */
 416:Drivers/BSP/STM32F4-Discovery/stm32f4_discovery_audio.c ****     return AUDIO_OK;
 417:Drivers/BSP/STM32F4-Discovery/stm32f4_discovery_audio.c ****   }
 418:Drivers/BSP/STM32F4-Discovery/stm32f4_discovery_audio.c **** }
 452              		.loc 1 418 1 view .LVU95
 453 000e 0038     		subs	r0, r0, #0
 454 0010 18BF     		it	ne
 455 0012 0120     		movne	r0, #1
 456 0014 08BD     		pop	{r3, pc}
 457              	.L46:
 458 0016 00BF     		.align	2
 459              	.L45:
 460 0018 00000000 		.word	.LANCHOR0
 461              		.cfi_endproc
 462              	.LFE138:
 464              		.section	.text.BSP_AUDIO_OUT_ClockConfig,"ax",%progbits
 465              		.align	1
 466              		.p2align 2,,3
 467              		.weak	BSP_AUDIO_OUT_ClockConfig
 468              		.syntax unified
 469              		.thumb
 470              		.thumb_func
 472              	BSP_AUDIO_OUT_ClockConfig:
 473              	.LVL33:
 474              	.LFB142:
 419:Drivers/BSP/STM32F4-Discovery/stm32f4_discovery_audio.c **** 
 420:Drivers/BSP/STM32F4-Discovery/stm32f4_discovery_audio.c **** /**
 421:Drivers/BSP/STM32F4-Discovery/stm32f4_discovery_audio.c ****   * @brief  Update the audio frequency.
 422:Drivers/BSP/STM32F4-Discovery/stm32f4_discovery_audio.c ****   * @param  AudioFreq: Audio frequency used to play the audio stream.
 423:Drivers/BSP/STM32F4-Discovery/stm32f4_discovery_audio.c ****   * @note   This API should be called after the BSP_AUDIO_OUT_Init() to adjust the
 424:Drivers/BSP/STM32F4-Discovery/stm32f4_discovery_audio.c ****   *         audio frequency. 
 425:Drivers/BSP/STM32F4-Discovery/stm32f4_discovery_audio.c ****   */
 426:Drivers/BSP/STM32F4-Discovery/stm32f4_discovery_audio.c **** void BSP_AUDIO_OUT_SetFrequency(uint32_t AudioFreq)
 427:Drivers/BSP/STM32F4-Discovery/stm32f4_discovery_audio.c **** {
 428:Drivers/BSP/STM32F4-Discovery/stm32f4_discovery_audio.c ****   /* PLL clock is set depending by the AudioFreq (44.1khz vs 48khz groups) */ 
 429:Drivers/BSP/STM32F4-Discovery/stm32f4_discovery_audio.c ****   BSP_AUDIO_OUT_ClockConfig(&hAudioOutI2s, AudioFreq, NULL);
ARM GAS  /var/folders/0z/tsy30v1j4xl4_7kw94k978ww0000gn/T//cclxGFm1.s 			page 17


 430:Drivers/BSP/STM32F4-Discovery/stm32f4_discovery_audio.c ****   
 431:Drivers/BSP/STM32F4-Discovery/stm32f4_discovery_audio.c ****   /* Update the I2S audio frequency configuration */
 432:Drivers/BSP/STM32F4-Discovery/stm32f4_discovery_audio.c ****   I2S3_Init(AudioFreq);
 433:Drivers/BSP/STM32F4-Discovery/stm32f4_discovery_audio.c **** }
 434:Drivers/BSP/STM32F4-Discovery/stm32f4_discovery_audio.c **** 
 435:Drivers/BSP/STM32F4-Discovery/stm32f4_discovery_audio.c **** /**
 436:Drivers/BSP/STM32F4-Discovery/stm32f4_discovery_audio.c ****   * @brief  Tx Transfer completed callbacks.
 437:Drivers/BSP/STM32F4-Discovery/stm32f4_discovery_audio.c ****   * @param  hi2s: I2S handle
 438:Drivers/BSP/STM32F4-Discovery/stm32f4_discovery_audio.c ****   */
 439:Drivers/BSP/STM32F4-Discovery/stm32f4_discovery_audio.c **** void HAL_I2S_TxCpltCallback(I2S_HandleTypeDef *hi2s)
 440:Drivers/BSP/STM32F4-Discovery/stm32f4_discovery_audio.c **** {
 441:Drivers/BSP/STM32F4-Discovery/stm32f4_discovery_audio.c ****   if(hi2s->Instance == I2S3)
 442:Drivers/BSP/STM32F4-Discovery/stm32f4_discovery_audio.c ****   {
 443:Drivers/BSP/STM32F4-Discovery/stm32f4_discovery_audio.c ****     /* Call the user function which will manage directly transfer complete */  
 444:Drivers/BSP/STM32F4-Discovery/stm32f4_discovery_audio.c ****     BSP_AUDIO_OUT_TransferComplete_CallBack();       
 445:Drivers/BSP/STM32F4-Discovery/stm32f4_discovery_audio.c ****   }
 446:Drivers/BSP/STM32F4-Discovery/stm32f4_discovery_audio.c **** }
 447:Drivers/BSP/STM32F4-Discovery/stm32f4_discovery_audio.c **** 
 448:Drivers/BSP/STM32F4-Discovery/stm32f4_discovery_audio.c **** /**
 449:Drivers/BSP/STM32F4-Discovery/stm32f4_discovery_audio.c ****   * @brief  Tx Half Transfer completed callbacks.
 450:Drivers/BSP/STM32F4-Discovery/stm32f4_discovery_audio.c ****   * @param  hi2s: I2S handle
 451:Drivers/BSP/STM32F4-Discovery/stm32f4_discovery_audio.c ****   */
 452:Drivers/BSP/STM32F4-Discovery/stm32f4_discovery_audio.c **** void HAL_I2S_TxHalfCpltCallback(I2S_HandleTypeDef *hi2s)
 453:Drivers/BSP/STM32F4-Discovery/stm32f4_discovery_audio.c **** {
 454:Drivers/BSP/STM32F4-Discovery/stm32f4_discovery_audio.c ****   if(hi2s->Instance == I2S3)
 455:Drivers/BSP/STM32F4-Discovery/stm32f4_discovery_audio.c ****   {
 456:Drivers/BSP/STM32F4-Discovery/stm32f4_discovery_audio.c ****     /* Manage the remaining file size and new address offset: This function should
 457:Drivers/BSP/STM32F4-Discovery/stm32f4_discovery_audio.c ****        be coded by user (its prototype is already declared in stm32f4_discovery_audio.h) */  
 458:Drivers/BSP/STM32F4-Discovery/stm32f4_discovery_audio.c ****     BSP_AUDIO_OUT_HalfTransfer_CallBack();
 459:Drivers/BSP/STM32F4-Discovery/stm32f4_discovery_audio.c ****   }
 460:Drivers/BSP/STM32F4-Discovery/stm32f4_discovery_audio.c **** }
 461:Drivers/BSP/STM32F4-Discovery/stm32f4_discovery_audio.c **** 
 462:Drivers/BSP/STM32F4-Discovery/stm32f4_discovery_audio.c **** /**
 463:Drivers/BSP/STM32F4-Discovery/stm32f4_discovery_audio.c ****   * @brief  Clock Config.
 464:Drivers/BSP/STM32F4-Discovery/stm32f4_discovery_audio.c ****   * @param  hi2s: might be required to set audio peripheral predivider if any.
 465:Drivers/BSP/STM32F4-Discovery/stm32f4_discovery_audio.c ****   * @param  AudioFreq: Audio frequency used to play the audio stream.
 466:Drivers/BSP/STM32F4-Discovery/stm32f4_discovery_audio.c ****   * @note   This API is called by BSP_AUDIO_OUT_Init() and BSP_AUDIO_OUT_SetFrequency()
 467:Drivers/BSP/STM32F4-Discovery/stm32f4_discovery_audio.c ****   *         Being __weak it can be overwritten by the application     
 468:Drivers/BSP/STM32F4-Discovery/stm32f4_discovery_audio.c ****   * @param  Params : pointer on additional configuration parameters, can be NULL.
 469:Drivers/BSP/STM32F4-Discovery/stm32f4_discovery_audio.c ****   */
 470:Drivers/BSP/STM32F4-Discovery/stm32f4_discovery_audio.c **** __weak void BSP_AUDIO_OUT_ClockConfig(I2S_HandleTypeDef *hi2s, uint32_t AudioFreq, void *Params)
 471:Drivers/BSP/STM32F4-Discovery/stm32f4_discovery_audio.c **** { 
 475              		.loc 1 471 1 is_stmt 1 view -0
 476              		.cfi_startproc
 477              		@ args = 0, pretend = 0, frame = 24
 478              		@ frame_needed = 0, uses_anonymous_args = 0
 472:Drivers/BSP/STM32F4-Discovery/stm32f4_discovery_audio.c ****   RCC_PeriphCLKInitTypeDef rccclkinit;
 479              		.loc 1 472 3 view .LVU97
 473:Drivers/BSP/STM32F4-Discovery/stm32f4_discovery_audio.c ****   uint8_t index = 0, freqindex = 0xFF;
 480              		.loc 1 473 3 view .LVU98
 474:Drivers/BSP/STM32F4-Discovery/stm32f4_discovery_audio.c ****   
 475:Drivers/BSP/STM32F4-Discovery/stm32f4_discovery_audio.c ****   for(index = 0; index < 8; index++)
 481              		.loc 1 475 3 view .LVU99
 482              		.loc 1 475 24 view .LVU100
 476:Drivers/BSP/STM32F4-Discovery/stm32f4_discovery_audio.c ****   {
 477:Drivers/BSP/STM32F4-Discovery/stm32f4_discovery_audio.c ****     if(I2SFreq[index] == AudioFreq)
 483              		.loc 1 477 5 view .LVU101
ARM GAS  /var/folders/0z/tsy30v1j4xl4_7kw94k978ww0000gn/T//cclxGFm1.s 			page 18


 471:Drivers/BSP/STM32F4-Discovery/stm32f4_discovery_audio.c ****   RCC_PeriphCLKInitTypeDef rccclkinit;
 484              		.loc 1 471 1 is_stmt 0 view .LVU102
 485 0000 10B5     		push	{r4, lr}
 486              		.cfi_def_cfa_offset 8
 487              		.cfi_offset 4, -8
 488              		.cfi_offset 14, -4
 489              		.loc 1 477 7 view .LVU103
 490 0002 B1F5FA5F 		cmp	r1, #8000
 471:Drivers/BSP/STM32F4-Discovery/stm32f4_discovery_audio.c ****   RCC_PeriphCLKInitTypeDef rccclkinit;
 491              		.loc 1 471 1 view .LVU104
 492 0006 86B0     		sub	sp, sp, #24
 493              		.cfi_def_cfa_offset 32
 494              		.loc 1 477 7 view .LVU105
 495 0008 47D0     		beq	.L58
 475:Drivers/BSP/STM32F4-Discovery/stm32f4_discovery_audio.c ****   {
 496              		.loc 1 475 34 is_stmt 1 view .LVU106
 497              	.LVL34:
 475:Drivers/BSP/STM32F4-Discovery/stm32f4_discovery_audio.c ****   {
 498              		.loc 1 475 24 view .LVU107
 499              		.loc 1 477 5 view .LVU108
 500              		.loc 1 477 7 is_stmt 0 view .LVU109
 501 000a 42F61133 		movw	r3, #11025
 502 000e 9942     		cmp	r1, r3
 503 0010 1BD1     		bne	.L65
 475:Drivers/BSP/STM32F4-Discovery/stm32f4_discovery_audio.c ****   {
 504              		.loc 1 475 34 view .LVU110
 505 0012 0124     		movs	r4, #1
 506              	.LVL35:
 507              	.L49:
 475:Drivers/BSP/STM32F4-Discovery/stm32f4_discovery_audio.c ****   {
 508              		.loc 1 475 34 is_stmt 1 view .LVU111
 475:Drivers/BSP/STM32F4-Discovery/stm32f4_discovery_audio.c ****   {
 509              		.loc 1 475 24 view .LVU112
 510              		.loc 1 477 5 view .LVU113
 511              		.loc 1 477 7 is_stmt 0 view .LVU114
 512 0014 45F22263 		movw	r3, #22050
 513 0018 9942     		cmp	r1, r3
 514 001a 38D0     		beq	.L61
 475:Drivers/BSP/STM32F4-Discovery/stm32f4_discovery_audio.c ****   {
 515              		.loc 1 475 34 is_stmt 1 view .LVU115
 516              	.LVL36:
 475:Drivers/BSP/STM32F4-Discovery/stm32f4_discovery_audio.c ****   {
 517              		.loc 1 475 24 view .LVU116
 518              		.loc 1 477 5 view .LVU117
 519              		.loc 1 477 7 is_stmt 0 view .LVU118
 520 001c B1F5FA4F 		cmp	r1, #32000
 475:Drivers/BSP/STM32F4-Discovery/stm32f4_discovery_audio.c ****   {
 521              		.loc 1 475 34 view .LVU119
 522 0020 08BF     		it	eq
 523 0022 0424     		moveq	r4, #4
 524              	.LVL37:
 525              		.loc 1 477 7 view .LVU120
 526 0024 17D1     		bne	.L50
 527              	.LVL38:
 528              	.L52:
 475:Drivers/BSP/STM32F4-Discovery/stm32f4_discovery_audio.c ****   {
 529              		.loc 1 475 34 is_stmt 1 view .LVU121
ARM GAS  /var/folders/0z/tsy30v1j4xl4_7kw94k978ww0000gn/T//cclxGFm1.s 			page 19


 475:Drivers/BSP/STM32F4-Discovery/stm32f4_discovery_audio.c ****   {
 530              		.loc 1 475 24 view .LVU122
 531              		.loc 1 477 5 view .LVU123
 532              		.loc 1 477 7 is_stmt 0 view .LVU124
 533 0026 204B     		ldr	r3, .L66+8
 534 0028 9942     		cmp	r1, r3
 535 002a 1AD1     		bne	.L53
 536              	.LVL39:
 537              	.L54:
 478:Drivers/BSP/STM32F4-Discovery/stm32f4_discovery_audio.c ****     {
 479:Drivers/BSP/STM32F4-Discovery/stm32f4_discovery_audio.c ****       freqindex = index;
 538              		.loc 1 479 7 is_stmt 1 view .LVU125
 475:Drivers/BSP/STM32F4-Discovery/stm32f4_discovery_audio.c ****   {
 539              		.loc 1 475 34 view .LVU126
 475:Drivers/BSP/STM32F4-Discovery/stm32f4_discovery_audio.c ****   {
 540              		.loc 1 475 24 view .LVU127
 477:Drivers/BSP/STM32F4-Discovery/stm32f4_discovery_audio.c ****     {
 541              		.loc 1 477 5 view .LVU128
 475:Drivers/BSP/STM32F4-Discovery/stm32f4_discovery_audio.c ****   {
 542              		.loc 1 475 34 view .LVU129
 475:Drivers/BSP/STM32F4-Discovery/stm32f4_discovery_audio.c ****   {
 543              		.loc 1 475 24 view .LVU130
 480:Drivers/BSP/STM32F4-Discovery/stm32f4_discovery_audio.c ****     }
 481:Drivers/BSP/STM32F4-Discovery/stm32f4_discovery_audio.c ****   }
 482:Drivers/BSP/STM32F4-Discovery/stm32f4_discovery_audio.c ****   /* Enable PLLI2S clock */
 483:Drivers/BSP/STM32F4-Discovery/stm32f4_discovery_audio.c ****   HAL_RCCEx_GetPeriphCLKConfig(&rccclkinit);
 544              		.loc 1 483 3 view .LVU131
 545 002c 02A8     		add	r0, sp, #8
 546              	.LVL40:
 547              		.loc 1 483 3 is_stmt 0 view .LVU132
 548 002e 0190     		str	r0, [sp, #4]
 549 0030 FFF7FEFF 		bl	HAL_RCCEx_GetPeriphCLKConfig
 550              	.LVL41:
 484:Drivers/BSP/STM32F4-Discovery/stm32f4_discovery_audio.c ****   /* PLLI2S_VCO Input = HSE_VALUE/PLL_M = 1 Mhz */
 485:Drivers/BSP/STM32F4-Discovery/stm32f4_discovery_audio.c ****   if ((freqindex & 0x7) == 0)
 551              		.loc 1 485 3 is_stmt 1 view .LVU133
 552 0034 0198     		ldr	r0, [sp, #4]
 553              	.LVL42:
 554              	.L56:
 486:Drivers/BSP/STM32F4-Discovery/stm32f4_discovery_audio.c ****   {
 487:Drivers/BSP/STM32F4-Discovery/stm32f4_discovery_audio.c ****     /* I2S clock config 
 488:Drivers/BSP/STM32F4-Discovery/stm32f4_discovery_audio.c ****     PLLI2S_VCO = f(VCO clock) = f(PLLI2S clock input)  (PLLI2SN/PLLM)
 489:Drivers/BSP/STM32F4-Discovery/stm32f4_discovery_audio.c ****     I2SCLK = f(PLLI2S clock output) = f(VCO clock) / PLLI2SR */
 490:Drivers/BSP/STM32F4-Discovery/stm32f4_discovery_audio.c ****     rccclkinit.PeriphClockSelection = RCC_PERIPHCLK_I2S;
 491:Drivers/BSP/STM32F4-Discovery/stm32f4_discovery_audio.c ****     rccclkinit.PLLI2S.PLLI2SN = I2SPLLN[freqindex];
 492:Drivers/BSP/STM32F4-Discovery/stm32f4_discovery_audio.c ****     rccclkinit.PLLI2S.PLLI2SR = I2SPLLR[freqindex];
 493:Drivers/BSP/STM32F4-Discovery/stm32f4_discovery_audio.c ****     HAL_RCCEx_PeriphCLKConfig(&rccclkinit);
 494:Drivers/BSP/STM32F4-Discovery/stm32f4_discovery_audio.c ****   }
 495:Drivers/BSP/STM32F4-Discovery/stm32f4_discovery_audio.c ****   else 
 496:Drivers/BSP/STM32F4-Discovery/stm32f4_discovery_audio.c ****   {
 497:Drivers/BSP/STM32F4-Discovery/stm32f4_discovery_audio.c ****     /* I2S clock config 
 498:Drivers/BSP/STM32F4-Discovery/stm32f4_discovery_audio.c ****     PLLI2S_VCO = f(VCO clock) = f(PLLI2S clock input)  (PLLI2SN/PLLM)
 499:Drivers/BSP/STM32F4-Discovery/stm32f4_discovery_audio.c ****     I2SCLK = f(PLLI2S clock output) = f(VCO clock) / PLLI2SR */
 500:Drivers/BSP/STM32F4-Discovery/stm32f4_discovery_audio.c ****     rccclkinit.PeriphClockSelection = RCC_PERIPHCLK_I2S;
 555              		.loc 1 500 5 view .LVU134
 501:Drivers/BSP/STM32F4-Discovery/stm32f4_discovery_audio.c ****     rccclkinit.PLLI2S.PLLI2SN = 293;
 556              		.loc 1 501 5 view .LVU135
ARM GAS  /var/folders/0z/tsy30v1j4xl4_7kw94k978ww0000gn/T//cclxGFm1.s 			page 20


 500:Drivers/BSP/STM32F4-Discovery/stm32f4_discovery_audio.c ****     rccclkinit.PLLI2S.PLLI2SN = 293;
 557              		.loc 1 500 37 is_stmt 0 view .LVU136
 558 0036 9FED1A7B 		vldr.64	d7, .L66	@ int
 502:Drivers/BSP/STM32F4-Discovery/stm32f4_discovery_audio.c ****     rccclkinit.PLLI2S.PLLI2SR = 2;
 559              		.loc 1 502 31 view .LVU137
 560 003a 0223     		movs	r3, #2
 500:Drivers/BSP/STM32F4-Discovery/stm32f4_discovery_audio.c ****     rccclkinit.PLLI2S.PLLI2SN = 293;
 561              		.loc 1 500 37 view .LVU138
 562 003c 8DED027B 		vstr.64	d7, [sp, #8]	@ int
 563              		.loc 1 502 5 is_stmt 1 view .LVU139
 564              		.loc 1 502 31 is_stmt 0 view .LVU140
 565 0040 0493     		str	r3, [sp, #16]
 503:Drivers/BSP/STM32F4-Discovery/stm32f4_discovery_audio.c ****     HAL_RCCEx_PeriphCLKConfig(&rccclkinit);
 566              		.loc 1 503 5 is_stmt 1 view .LVU141
 567 0042 FFF7FEFF 		bl	HAL_RCCEx_PeriphCLKConfig
 568              	.LVL43:
 504:Drivers/BSP/STM32F4-Discovery/stm32f4_discovery_audio.c ****   }
 505:Drivers/BSP/STM32F4-Discovery/stm32f4_discovery_audio.c **** }
 569              		.loc 1 505 1 is_stmt 0 view .LVU142
 570 0046 06B0     		add	sp, sp, #24
 571              		.cfi_remember_state
 572              		.cfi_def_cfa_offset 8
 573              		@ sp needed
 574 0048 10BD     		pop	{r4, pc}
 575              	.LVL44:
 576              	.L65:
 577              		.cfi_restore_state
 475:Drivers/BSP/STM32F4-Discovery/stm32f4_discovery_audio.c ****   {
 578              		.loc 1 475 34 is_stmt 1 view .LVU143
 475:Drivers/BSP/STM32F4-Discovery/stm32f4_discovery_audio.c ****   {
 579              		.loc 1 475 24 view .LVU144
 477:Drivers/BSP/STM32F4-Discovery/stm32f4_discovery_audio.c ****     {
 580              		.loc 1 477 5 view .LVU145
 477:Drivers/BSP/STM32F4-Discovery/stm32f4_discovery_audio.c ****     {
 581              		.loc 1 477 7 is_stmt 0 view .LVU146
 582 004a B1F57A5F 		cmp	r1, #16000
 473:Drivers/BSP/STM32F4-Discovery/stm32f4_discovery_audio.c ****   
 583              		.loc 1 473 22 view .LVU147
 584 004e 18BF     		it	ne
 585 0050 FF24     		movne	r4, #255
 477:Drivers/BSP/STM32F4-Discovery/stm32f4_discovery_audio.c ****     {
 586              		.loc 1 477 7 view .LVU148
 587 0052 DFD1     		bne	.L49
 475:Drivers/BSP/STM32F4-Discovery/stm32f4_discovery_audio.c ****   {
 588              		.loc 1 475 34 view .LVU149
 589 0054 0224     		movs	r4, #2
 590              	.LVL45:
 591              	.L50:
 475:Drivers/BSP/STM32F4-Discovery/stm32f4_discovery_audio.c ****   {
 592              		.loc 1 475 34 is_stmt 1 view .LVU150
 475:Drivers/BSP/STM32F4-Discovery/stm32f4_discovery_audio.c ****   {
 593              		.loc 1 475 24 view .LVU151
 477:Drivers/BSP/STM32F4-Discovery/stm32f4_discovery_audio.c ****     {
 594              		.loc 1 477 5 view .LVU152
 477:Drivers/BSP/STM32F4-Discovery/stm32f4_discovery_audio.c ****     {
 595              		.loc 1 477 7 is_stmt 0 view .LVU153
 596 0056 4AF64443 		movw	r3, #44100
ARM GAS  /var/folders/0z/tsy30v1j4xl4_7kw94k978ww0000gn/T//cclxGFm1.s 			page 21


 597 005a 9942     		cmp	r1, r3
 475:Drivers/BSP/STM32F4-Discovery/stm32f4_discovery_audio.c ****   {
 598              		.loc 1 475 34 view .LVU154
 599 005c 08BF     		it	eq
 600 005e 0524     		moveq	r4, #5
 601              	.LVL46:
 477:Drivers/BSP/STM32F4-Discovery/stm32f4_discovery_audio.c ****     {
 602              		.loc 1 477 7 view .LVU155
 603 0060 16D1     		bne	.L51
 604              	.LVL47:
 605              	.L53:
 475:Drivers/BSP/STM32F4-Discovery/stm32f4_discovery_audio.c ****   {
 606              		.loc 1 475 34 is_stmt 1 view .LVU156
 475:Drivers/BSP/STM32F4-Discovery/stm32f4_discovery_audio.c ****   {
 607              		.loc 1 475 24 view .LVU157
 483:Drivers/BSP/STM32F4-Discovery/stm32f4_discovery_audio.c ****   /* PLLI2S_VCO Input = HSE_VALUE/PLL_M = 1 Mhz */
 608              		.loc 1 483 3 view .LVU158
 609 0062 02A8     		add	r0, sp, #8
 610              	.LVL48:
 483:Drivers/BSP/STM32F4-Discovery/stm32f4_discovery_audio.c ****   /* PLLI2S_VCO Input = HSE_VALUE/PLL_M = 1 Mhz */
 611              		.loc 1 483 3 is_stmt 0 view .LVU159
 612 0064 0190     		str	r0, [sp, #4]
 613 0066 FFF7FEFF 		bl	HAL_RCCEx_GetPeriphCLKConfig
 614              	.LVL49:
 485:Drivers/BSP/STM32F4-Discovery/stm32f4_discovery_audio.c ****   {
 615              		.loc 1 485 3 is_stmt 1 view .LVU160
 485:Drivers/BSP/STM32F4-Discovery/stm32f4_discovery_audio.c ****   {
 616              		.loc 1 485 6 is_stmt 0 view .LVU161
 617 006a 14F0070F 		tst	r4, #7
 618 006e 0198     		ldr	r0, [sp, #4]
 619 0070 E1D1     		bne	.L56
 490:Drivers/BSP/STM32F4-Discovery/stm32f4_discovery_audio.c ****     rccclkinit.PLLI2S.PLLI2SN = I2SPLLN[freqindex];
 620              		.loc 1 490 5 is_stmt 1 view .LVU162
 491:Drivers/BSP/STM32F4-Discovery/stm32f4_discovery_audio.c ****     rccclkinit.PLLI2S.PLLI2SR = I2SPLLR[freqindex];
 621              		.loc 1 491 40 is_stmt 0 view .LVU163
 622 0072 0E4A     		ldr	r2, .L66+12
 492:Drivers/BSP/STM32F4-Discovery/stm32f4_discovery_audio.c ****     HAL_RCCEx_PeriphCLKConfig(&rccclkinit);
 623              		.loc 1 492 40 view .LVU164
 624 0074 0E4B     		ldr	r3, .L66+16
 491:Drivers/BSP/STM32F4-Discovery/stm32f4_discovery_audio.c ****     rccclkinit.PLLI2S.PLLI2SR = I2SPLLR[freqindex];
 625              		.loc 1 491 31 view .LVU165
 626 0076 52F82420 		ldr	r2, [r2, r4, lsl #2]
 492:Drivers/BSP/STM32F4-Discovery/stm32f4_discovery_audio.c ****     HAL_RCCEx_PeriphCLKConfig(&rccclkinit);
 627              		.loc 1 492 31 view .LVU166
 628 007a 53F82430 		ldr	r3, [r3, r4, lsl #2]
 629 007e 0493     		str	r3, [sp, #16]
 490:Drivers/BSP/STM32F4-Discovery/stm32f4_discovery_audio.c ****     rccclkinit.PLLI2S.PLLI2SN = I2SPLLN[freqindex];
 630              		.loc 1 490 37 view .LVU167
 631 0080 0121     		movs	r1, #1
 491:Drivers/BSP/STM32F4-Discovery/stm32f4_discovery_audio.c ****     rccclkinit.PLLI2S.PLLI2SR = I2SPLLR[freqindex];
 632              		.loc 1 491 31 view .LVU168
 633 0082 CDE90212 		strd	r1, r2, [sp, #8]
 492:Drivers/BSP/STM32F4-Discovery/stm32f4_discovery_audio.c ****     HAL_RCCEx_PeriphCLKConfig(&rccclkinit);
 634              		.loc 1 492 5 is_stmt 1 view .LVU169
 493:Drivers/BSP/STM32F4-Discovery/stm32f4_discovery_audio.c ****   }
 635              		.loc 1 493 5 view .LVU170
 636 0086 FFF7FEFF 		bl	HAL_RCCEx_PeriphCLKConfig
ARM GAS  /var/folders/0z/tsy30v1j4xl4_7kw94k978ww0000gn/T//cclxGFm1.s 			page 22


 637              	.LVL50:
 638              		.loc 1 505 1 is_stmt 0 view .LVU171
 639 008a 06B0     		add	sp, sp, #24
 640              		.cfi_remember_state
 641              		.cfi_def_cfa_offset 8
 642              		@ sp needed
 643 008c 10BD     		pop	{r4, pc}
 644              	.LVL51:
 645              	.L61:
 646              		.cfi_restore_state
 475:Drivers/BSP/STM32F4-Discovery/stm32f4_discovery_audio.c ****   {
 647              		.loc 1 475 34 view .LVU172
 648 008e 0324     		movs	r4, #3
 649              	.LVL52:
 650              	.L51:
 475:Drivers/BSP/STM32F4-Discovery/stm32f4_discovery_audio.c ****   {
 651              		.loc 1 475 34 is_stmt 1 view .LVU173
 475:Drivers/BSP/STM32F4-Discovery/stm32f4_discovery_audio.c ****   {
 652              		.loc 1 475 24 view .LVU174
 477:Drivers/BSP/STM32F4-Discovery/stm32f4_discovery_audio.c ****     {
 653              		.loc 1 477 5 view .LVU175
 477:Drivers/BSP/STM32F4-Discovery/stm32f4_discovery_audio.c ****     {
 654              		.loc 1 477 7 is_stmt 0 view .LVU176
 655 0090 4BF68033 		movw	r3, #48000
 656 0094 9942     		cmp	r1, r3
 657 0096 C9D0     		beq	.L54
 658 0098 C5E7     		b	.L52
 659              	.LVL53:
 660              	.L58:
 475:Drivers/BSP/STM32F4-Discovery/stm32f4_discovery_audio.c ****   {
 661              		.loc 1 475 13 view .LVU177
 662 009a 0024     		movs	r4, #0
 663              	.LVL54:
 475:Drivers/BSP/STM32F4-Discovery/stm32f4_discovery_audio.c ****   {
 664              		.loc 1 475 13 view .LVU178
 665 009c BAE7     		b	.L49
 666              	.L67:
 667 009e 00BF     		.align	3
 668              	.L66:
 669 00a0 01000000 		.word	1
 670 00a4 25010000 		.word	293
 671 00a8 00770100 		.word	96000
 672 00ac 00000000 		.word	.LANCHOR2
 673 00b0 00000000 		.word	.LANCHOR3
 674              		.cfi_endproc
 675              	.LFE142:
 677              		.section	.text.BSP_AUDIO_OUT_SetFrequency,"ax",%progbits
 678              		.align	1
 679              		.p2align 2,,3
 680              		.global	BSP_AUDIO_OUT_SetFrequency
 681              		.syntax unified
 682              		.thumb
 683              		.thumb_func
 685              	BSP_AUDIO_OUT_SetFrequency:
 686              	.LVL55:
 687              	.LFB139:
 427:Drivers/BSP/STM32F4-Discovery/stm32f4_discovery_audio.c ****   /* PLL clock is set depending by the AudioFreq (44.1khz vs 48khz groups) */ 
ARM GAS  /var/folders/0z/tsy30v1j4xl4_7kw94k978ww0000gn/T//cclxGFm1.s 			page 23


 688              		.loc 1 427 1 is_stmt 1 view -0
 689              		.cfi_startproc
 690              		@ args = 0, pretend = 0, frame = 0
 691              		@ frame_needed = 0, uses_anonymous_args = 0
 429:Drivers/BSP/STM32F4-Discovery/stm32f4_discovery_audio.c ****   
 692              		.loc 1 429 3 view .LVU180
 427:Drivers/BSP/STM32F4-Discovery/stm32f4_discovery_audio.c ****   /* PLL clock is set depending by the AudioFreq (44.1khz vs 48khz groups) */ 
 693              		.loc 1 427 1 is_stmt 0 view .LVU181
 694 0000 38B5     		push	{r3, r4, r5, lr}
 695              		.cfi_def_cfa_offset 16
 696              		.cfi_offset 3, -16
 697              		.cfi_offset 4, -12
 698              		.cfi_offset 5, -8
 699              		.cfi_offset 14, -4
 429:Drivers/BSP/STM32F4-Discovery/stm32f4_discovery_audio.c ****   
 700              		.loc 1 429 3 view .LVU182
 701 0002 0E4C     		ldr	r4, .L70
 427:Drivers/BSP/STM32F4-Discovery/stm32f4_discovery_audio.c ****   /* PLL clock is set depending by the AudioFreq (44.1khz vs 48khz groups) */ 
 702              		.loc 1 427 1 view .LVU183
 703 0004 0546     		mov	r5, r0
 429:Drivers/BSP/STM32F4-Discovery/stm32f4_discovery_audio.c ****   
 704              		.loc 1 429 3 view .LVU184
 705 0006 2946     		mov	r1, r5
 706 0008 2046     		mov	r0, r4
 707              	.LVL56:
 429:Drivers/BSP/STM32F4-Discovery/stm32f4_discovery_audio.c ****   
 708              		.loc 1 429 3 view .LVU185
 709 000a 0022     		movs	r2, #0
 710 000c FFF7FEFF 		bl	BSP_AUDIO_OUT_ClockConfig
 711              	.LVL57:
 432:Drivers/BSP/STM32F4-Discovery/stm32f4_discovery_audio.c **** }
 712              		.loc 1 432 3 is_stmt 1 view .LVU186
 713              	.LBB4:
 714              	.LBI4:
 506:Drivers/BSP/STM32F4-Discovery/stm32f4_discovery_audio.c **** 
 507:Drivers/BSP/STM32F4-Discovery/stm32f4_discovery_audio.c **** /**
 508:Drivers/BSP/STM32F4-Discovery/stm32f4_discovery_audio.c ****   * @brief  AUDIO OUT I2S MSP Init.
 509:Drivers/BSP/STM32F4-Discovery/stm32f4_discovery_audio.c ****   * @param  hi2s: might be required to set audio peripheral predivider if any.
 510:Drivers/BSP/STM32F4-Discovery/stm32f4_discovery_audio.c ****   * @param  Params : pointer on additional configuration parameters, can be NULL.
 511:Drivers/BSP/STM32F4-Discovery/stm32f4_discovery_audio.c ****   */
 512:Drivers/BSP/STM32F4-Discovery/stm32f4_discovery_audio.c **** __weak void BSP_AUDIO_OUT_MspInit(I2S_HandleTypeDef *hi2s, void *Params)
 513:Drivers/BSP/STM32F4-Discovery/stm32f4_discovery_audio.c **** {
 514:Drivers/BSP/STM32F4-Discovery/stm32f4_discovery_audio.c ****   static DMA_HandleTypeDef hdma_i2sTx;
 515:Drivers/BSP/STM32F4-Discovery/stm32f4_discovery_audio.c ****   GPIO_InitTypeDef  GPIO_InitStruct;
 516:Drivers/BSP/STM32F4-Discovery/stm32f4_discovery_audio.c ****   
 517:Drivers/BSP/STM32F4-Discovery/stm32f4_discovery_audio.c ****   /* Enable I2S3 clock */
 518:Drivers/BSP/STM32F4-Discovery/stm32f4_discovery_audio.c ****   I2S3_CLK_ENABLE();
 519:Drivers/BSP/STM32F4-Discovery/stm32f4_discovery_audio.c ****   
 520:Drivers/BSP/STM32F4-Discovery/stm32f4_discovery_audio.c ****   /*** Configure the GPIOs ***/  
 521:Drivers/BSP/STM32F4-Discovery/stm32f4_discovery_audio.c ****   /* Enable I2S GPIO clocks */
 522:Drivers/BSP/STM32F4-Discovery/stm32f4_discovery_audio.c ****   I2S3_SCK_SD_CLK_ENABLE();
 523:Drivers/BSP/STM32F4-Discovery/stm32f4_discovery_audio.c ****   I2S3_WS_CLK_ENABLE();
 524:Drivers/BSP/STM32F4-Discovery/stm32f4_discovery_audio.c ****   
 525:Drivers/BSP/STM32F4-Discovery/stm32f4_discovery_audio.c ****   /* I2S3 pins configuration: WS, SCK and SD pins ----------------------------*/
 526:Drivers/BSP/STM32F4-Discovery/stm32f4_discovery_audio.c ****   GPIO_InitStruct.Pin         = I2S3_SCK_PIN | I2S3_SD_PIN; 
 527:Drivers/BSP/STM32F4-Discovery/stm32f4_discovery_audio.c ****   GPIO_InitStruct.Mode        = GPIO_MODE_AF_PP;
 528:Drivers/BSP/STM32F4-Discovery/stm32f4_discovery_audio.c ****   GPIO_InitStruct.Pull        = GPIO_NOPULL;
ARM GAS  /var/folders/0z/tsy30v1j4xl4_7kw94k978ww0000gn/T//cclxGFm1.s 			page 24


 529:Drivers/BSP/STM32F4-Discovery/stm32f4_discovery_audio.c ****   GPIO_InitStruct.Speed       = GPIO_SPEED_FAST;
 530:Drivers/BSP/STM32F4-Discovery/stm32f4_discovery_audio.c ****   GPIO_InitStruct.Alternate   = I2S3_SCK_SD_WS_AF;
 531:Drivers/BSP/STM32F4-Discovery/stm32f4_discovery_audio.c ****   HAL_GPIO_Init(I2S3_SCK_SD_GPIO_PORT, &GPIO_InitStruct);
 532:Drivers/BSP/STM32F4-Discovery/stm32f4_discovery_audio.c ****   
 533:Drivers/BSP/STM32F4-Discovery/stm32f4_discovery_audio.c ****   GPIO_InitStruct.Pin         = I2S3_WS_PIN ;
 534:Drivers/BSP/STM32F4-Discovery/stm32f4_discovery_audio.c ****   HAL_GPIO_Init(I2S3_WS_GPIO_PORT, &GPIO_InitStruct); 
 535:Drivers/BSP/STM32F4-Discovery/stm32f4_discovery_audio.c ****   
 536:Drivers/BSP/STM32F4-Discovery/stm32f4_discovery_audio.c ****   /* I2S3 pins configuration: MCK pin */
 537:Drivers/BSP/STM32F4-Discovery/stm32f4_discovery_audio.c ****   I2S3_MCK_CLK_ENABLE();
 538:Drivers/BSP/STM32F4-Discovery/stm32f4_discovery_audio.c ****   GPIO_InitStruct.Pin         = I2S3_MCK_PIN; 
 539:Drivers/BSP/STM32F4-Discovery/stm32f4_discovery_audio.c ****   HAL_GPIO_Init(I2S3_MCK_GPIO_PORT, &GPIO_InitStruct);   
 540:Drivers/BSP/STM32F4-Discovery/stm32f4_discovery_audio.c ****   
 541:Drivers/BSP/STM32F4-Discovery/stm32f4_discovery_audio.c ****   /* Enable the I2S DMA clock */
 542:Drivers/BSP/STM32F4-Discovery/stm32f4_discovery_audio.c ****   I2S3_DMAx_CLK_ENABLE(); 
 543:Drivers/BSP/STM32F4-Discovery/stm32f4_discovery_audio.c ****   
 544:Drivers/BSP/STM32F4-Discovery/stm32f4_discovery_audio.c ****   if(hi2s->Instance == I2S3)
 545:Drivers/BSP/STM32F4-Discovery/stm32f4_discovery_audio.c ****   {
 546:Drivers/BSP/STM32F4-Discovery/stm32f4_discovery_audio.c ****     /* Configure the hdma_i2sTx handle parameters */   
 547:Drivers/BSP/STM32F4-Discovery/stm32f4_discovery_audio.c ****     hdma_i2sTx.Init.Channel             = I2S3_DMAx_CHANNEL;  
 548:Drivers/BSP/STM32F4-Discovery/stm32f4_discovery_audio.c ****     hdma_i2sTx.Init.Direction           = DMA_MEMORY_TO_PERIPH;
 549:Drivers/BSP/STM32F4-Discovery/stm32f4_discovery_audio.c ****     hdma_i2sTx.Init.PeriphInc           = DMA_PINC_DISABLE;
 550:Drivers/BSP/STM32F4-Discovery/stm32f4_discovery_audio.c ****     hdma_i2sTx.Init.MemInc              = DMA_MINC_ENABLE;
 551:Drivers/BSP/STM32F4-Discovery/stm32f4_discovery_audio.c ****     hdma_i2sTx.Init.PeriphDataAlignment = I2S3_DMAx_PERIPH_DATA_SIZE;
 552:Drivers/BSP/STM32F4-Discovery/stm32f4_discovery_audio.c ****     hdma_i2sTx.Init.MemDataAlignment    = I2S3_DMAx_MEM_DATA_SIZE;
 553:Drivers/BSP/STM32F4-Discovery/stm32f4_discovery_audio.c **** 
 554:Drivers/BSP/STM32F4-Discovery/stm32f4_discovery_audio.c ****     /*************************** ACTIVATING DMA in CIRCULAR MODE !!! *****************************/
 555:Drivers/BSP/STM32F4-Discovery/stm32f4_discovery_audio.c ****     // hdma_i2sTx.Init.Mode                = DMA_NORMAL;
 556:Drivers/BSP/STM32F4-Discovery/stm32f4_discovery_audio.c ****     hdma_i2sTx.Init.Mode                = DMA_CIRCULAR;
 557:Drivers/BSP/STM32F4-Discovery/stm32f4_discovery_audio.c ****     /*************************** ACTIVATING DMA in CIRCULAR MODE !!! *****************************/
 558:Drivers/BSP/STM32F4-Discovery/stm32f4_discovery_audio.c **** 
 559:Drivers/BSP/STM32F4-Discovery/stm32f4_discovery_audio.c **** 
 560:Drivers/BSP/STM32F4-Discovery/stm32f4_discovery_audio.c ****     hdma_i2sTx.Init.Priority            = DMA_PRIORITY_HIGH;
 561:Drivers/BSP/STM32F4-Discovery/stm32f4_discovery_audio.c ****     hdma_i2sTx.Init.FIFOMode            = DMA_FIFOMODE_ENABLE;         
 562:Drivers/BSP/STM32F4-Discovery/stm32f4_discovery_audio.c ****     hdma_i2sTx.Init.FIFOThreshold       = DMA_FIFO_THRESHOLD_FULL;
 563:Drivers/BSP/STM32F4-Discovery/stm32f4_discovery_audio.c ****     hdma_i2sTx.Init.MemBurst            = DMA_MBURST_SINGLE;
 564:Drivers/BSP/STM32F4-Discovery/stm32f4_discovery_audio.c ****     hdma_i2sTx.Init.PeriphBurst         = DMA_PBURST_SINGLE; 
 565:Drivers/BSP/STM32F4-Discovery/stm32f4_discovery_audio.c ****     
 566:Drivers/BSP/STM32F4-Discovery/stm32f4_discovery_audio.c ****     hdma_i2sTx.Instance                 = I2S3_DMAx_STREAM;
 567:Drivers/BSP/STM32F4-Discovery/stm32f4_discovery_audio.c ****     
 568:Drivers/BSP/STM32F4-Discovery/stm32f4_discovery_audio.c ****     /* Associate the DMA handle */
 569:Drivers/BSP/STM32F4-Discovery/stm32f4_discovery_audio.c ****     __HAL_LINKDMA(hi2s, hdmatx, hdma_i2sTx);
 570:Drivers/BSP/STM32F4-Discovery/stm32f4_discovery_audio.c ****     
 571:Drivers/BSP/STM32F4-Discovery/stm32f4_discovery_audio.c ****     /* Deinitialize the Stream for new transfer */
 572:Drivers/BSP/STM32F4-Discovery/stm32f4_discovery_audio.c ****     HAL_DMA_DeInit(&hdma_i2sTx);
 573:Drivers/BSP/STM32F4-Discovery/stm32f4_discovery_audio.c ****     
 574:Drivers/BSP/STM32F4-Discovery/stm32f4_discovery_audio.c ****     /* Configure the DMA Stream */
 575:Drivers/BSP/STM32F4-Discovery/stm32f4_discovery_audio.c ****     HAL_DMA_Init(&hdma_i2sTx);
 576:Drivers/BSP/STM32F4-Discovery/stm32f4_discovery_audio.c ****   }
 577:Drivers/BSP/STM32F4-Discovery/stm32f4_discovery_audio.c ****   
 578:Drivers/BSP/STM32F4-Discovery/stm32f4_discovery_audio.c ****   /* I2S DMA IRQ Channel configuration */
 579:Drivers/BSP/STM32F4-Discovery/stm32f4_discovery_audio.c ****   HAL_NVIC_SetPriority(I2S3_DMAx_IRQ, AUDIO_OUT_IRQ_PREPRIO, 0);
 580:Drivers/BSP/STM32F4-Discovery/stm32f4_discovery_audio.c ****   HAL_NVIC_EnableIRQ(I2S3_DMAx_IRQ); 
 581:Drivers/BSP/STM32F4-Discovery/stm32f4_discovery_audio.c **** }
 582:Drivers/BSP/STM32F4-Discovery/stm32f4_discovery_audio.c **** 
 583:Drivers/BSP/STM32F4-Discovery/stm32f4_discovery_audio.c **** /**
 584:Drivers/BSP/STM32F4-Discovery/stm32f4_discovery_audio.c ****   * @brief  De-Initializes BSP_AUDIO_OUT MSP.
 585:Drivers/BSP/STM32F4-Discovery/stm32f4_discovery_audio.c ****   * @param  hi2s: might be required to set audio peripheral predivider if any.
ARM GAS  /var/folders/0z/tsy30v1j4xl4_7kw94k978ww0000gn/T//cclxGFm1.s 			page 25


 586:Drivers/BSP/STM32F4-Discovery/stm32f4_discovery_audio.c ****   * @param  Params : pointer on additional configuration parameters, can be NULL.
 587:Drivers/BSP/STM32F4-Discovery/stm32f4_discovery_audio.c ****   */
 588:Drivers/BSP/STM32F4-Discovery/stm32f4_discovery_audio.c **** __weak void BSP_AUDIO_OUT_MspDeInit(I2S_HandleTypeDef *hi2s, void *Params)
 589:Drivers/BSP/STM32F4-Discovery/stm32f4_discovery_audio.c **** {  
 590:Drivers/BSP/STM32F4-Discovery/stm32f4_discovery_audio.c ****   GPIO_InitTypeDef  GPIO_InitStruct;
 591:Drivers/BSP/STM32F4-Discovery/stm32f4_discovery_audio.c **** 
 592:Drivers/BSP/STM32F4-Discovery/stm32f4_discovery_audio.c ****   /* I2S DMA IRQ Channel deactivation */
 593:Drivers/BSP/STM32F4-Discovery/stm32f4_discovery_audio.c ****   HAL_NVIC_DisableIRQ(I2S3_DMAx_IRQ); 
 594:Drivers/BSP/STM32F4-Discovery/stm32f4_discovery_audio.c ****   
 595:Drivers/BSP/STM32F4-Discovery/stm32f4_discovery_audio.c ****   if(hi2s->Instance == I2S3)
 596:Drivers/BSP/STM32F4-Discovery/stm32f4_discovery_audio.c ****   {
 597:Drivers/BSP/STM32F4-Discovery/stm32f4_discovery_audio.c ****     /* Deinitialize the Stream for new transfer */
 598:Drivers/BSP/STM32F4-Discovery/stm32f4_discovery_audio.c ****     HAL_DMA_DeInit(hi2s->hdmatx);
 599:Drivers/BSP/STM32F4-Discovery/stm32f4_discovery_audio.c ****   }
 600:Drivers/BSP/STM32F4-Discovery/stm32f4_discovery_audio.c **** 
 601:Drivers/BSP/STM32F4-Discovery/stm32f4_discovery_audio.c ****  /* Disable I2S block */
 602:Drivers/BSP/STM32F4-Discovery/stm32f4_discovery_audio.c ****   __HAL_I2S_DISABLE(hi2s);
 603:Drivers/BSP/STM32F4-Discovery/stm32f4_discovery_audio.c **** 
 604:Drivers/BSP/STM32F4-Discovery/stm32f4_discovery_audio.c ****   /* CODEC_I2S pins configuration: SCK and SD pins */
 605:Drivers/BSP/STM32F4-Discovery/stm32f4_discovery_audio.c ****   GPIO_InitStruct.Pin = I2S3_SCK_PIN | I2S3_SD_PIN;
 606:Drivers/BSP/STM32F4-Discovery/stm32f4_discovery_audio.c ****   HAL_GPIO_DeInit(I2S3_SCK_SD_GPIO_PORT, GPIO_InitStruct.Pin);
 607:Drivers/BSP/STM32F4-Discovery/stm32f4_discovery_audio.c ****   
 608:Drivers/BSP/STM32F4-Discovery/stm32f4_discovery_audio.c ****   /* CODEC_I2S pins configuration: WS pin */
 609:Drivers/BSP/STM32F4-Discovery/stm32f4_discovery_audio.c ****   GPIO_InitStruct.Pin = I2S3_WS_PIN;
 610:Drivers/BSP/STM32F4-Discovery/stm32f4_discovery_audio.c ****   HAL_GPIO_DeInit(I2S3_WS_GPIO_PORT, GPIO_InitStruct.Pin);
 611:Drivers/BSP/STM32F4-Discovery/stm32f4_discovery_audio.c ****   
 612:Drivers/BSP/STM32F4-Discovery/stm32f4_discovery_audio.c ****   /* CODEC_I2S pins configuration: MCK pin */
 613:Drivers/BSP/STM32F4-Discovery/stm32f4_discovery_audio.c ****   GPIO_InitStruct.Pin = I2S3_MCK_PIN;
 614:Drivers/BSP/STM32F4-Discovery/stm32f4_discovery_audio.c ****   HAL_GPIO_DeInit(I2S3_MCK_GPIO_PORT, GPIO_InitStruct.Pin); 
 615:Drivers/BSP/STM32F4-Discovery/stm32f4_discovery_audio.c **** 
 616:Drivers/BSP/STM32F4-Discovery/stm32f4_discovery_audio.c ****   /* Disable I2S clock */
 617:Drivers/BSP/STM32F4-Discovery/stm32f4_discovery_audio.c ****   I2S3_CLK_DISABLE();
 618:Drivers/BSP/STM32F4-Discovery/stm32f4_discovery_audio.c **** 
 619:Drivers/BSP/STM32F4-Discovery/stm32f4_discovery_audio.c ****   /* GPIO pins clock and DMA clock can be shut down in the applic 
 620:Drivers/BSP/STM32F4-Discovery/stm32f4_discovery_audio.c ****      by surcgarging this __weak function */   
 621:Drivers/BSP/STM32F4-Discovery/stm32f4_discovery_audio.c **** }
 622:Drivers/BSP/STM32F4-Discovery/stm32f4_discovery_audio.c **** 
 623:Drivers/BSP/STM32F4-Discovery/stm32f4_discovery_audio.c **** /**
 624:Drivers/BSP/STM32F4-Discovery/stm32f4_discovery_audio.c ****   * @brief  Manages the DMA full Transfer complete event.
 625:Drivers/BSP/STM32F4-Discovery/stm32f4_discovery_audio.c ****   */
 626:Drivers/BSP/STM32F4-Discovery/stm32f4_discovery_audio.c **** __weak void BSP_AUDIO_OUT_TransferComplete_CallBack(void)
 627:Drivers/BSP/STM32F4-Discovery/stm32f4_discovery_audio.c **** {
 628:Drivers/BSP/STM32F4-Discovery/stm32f4_discovery_audio.c **** }
 629:Drivers/BSP/STM32F4-Discovery/stm32f4_discovery_audio.c **** 
 630:Drivers/BSP/STM32F4-Discovery/stm32f4_discovery_audio.c **** /**
 631:Drivers/BSP/STM32F4-Discovery/stm32f4_discovery_audio.c ****   * @brief  Manages the DMA Half Transfer complete event.
 632:Drivers/BSP/STM32F4-Discovery/stm32f4_discovery_audio.c ****   */
 633:Drivers/BSP/STM32F4-Discovery/stm32f4_discovery_audio.c **** __weak void BSP_AUDIO_OUT_HalfTransfer_CallBack(void)
 634:Drivers/BSP/STM32F4-Discovery/stm32f4_discovery_audio.c **** {
 635:Drivers/BSP/STM32F4-Discovery/stm32f4_discovery_audio.c **** }
 636:Drivers/BSP/STM32F4-Discovery/stm32f4_discovery_audio.c **** 
 637:Drivers/BSP/STM32F4-Discovery/stm32f4_discovery_audio.c **** /**
 638:Drivers/BSP/STM32F4-Discovery/stm32f4_discovery_audio.c ****   * @brief  Manages the DMA FIFO error event.
 639:Drivers/BSP/STM32F4-Discovery/stm32f4_discovery_audio.c ****   */
 640:Drivers/BSP/STM32F4-Discovery/stm32f4_discovery_audio.c **** __weak void BSP_AUDIO_OUT_Error_CallBack(void)
 641:Drivers/BSP/STM32F4-Discovery/stm32f4_discovery_audio.c **** {
 642:Drivers/BSP/STM32F4-Discovery/stm32f4_discovery_audio.c **** }
ARM GAS  /var/folders/0z/tsy30v1j4xl4_7kw94k978ww0000gn/T//cclxGFm1.s 			page 26


 643:Drivers/BSP/STM32F4-Discovery/stm32f4_discovery_audio.c **** 
 644:Drivers/BSP/STM32F4-Discovery/stm32f4_discovery_audio.c **** /*******************************************************************************
 645:Drivers/BSP/STM32F4-Discovery/stm32f4_discovery_audio.c ****                             Static Functions
 646:Drivers/BSP/STM32F4-Discovery/stm32f4_discovery_audio.c **** *******************************************************************************/
 647:Drivers/BSP/STM32F4-Discovery/stm32f4_discovery_audio.c **** 
 648:Drivers/BSP/STM32F4-Discovery/stm32f4_discovery_audio.c **** /**
 649:Drivers/BSP/STM32F4-Discovery/stm32f4_discovery_audio.c ****   * @brief  Initializes the Audio Codec audio interface (I2S).
 650:Drivers/BSP/STM32F4-Discovery/stm32f4_discovery_audio.c ****   * @param  AudioFreq: Audio frequency to be configured for the I2S peripheral. 
 651:Drivers/BSP/STM32F4-Discovery/stm32f4_discovery_audio.c ****   */
 652:Drivers/BSP/STM32F4-Discovery/stm32f4_discovery_audio.c **** static uint8_t I2S3_Init(uint32_t AudioFreq)
 715              		.loc 1 652 16 view .LVU187
 716              	.LBB5:
 653:Drivers/BSP/STM32F4-Discovery/stm32f4_discovery_audio.c **** {
 654:Drivers/BSP/STM32F4-Discovery/stm32f4_discovery_audio.c ****   /* Initialize the hAudioOutI2s Instance parameter */
 655:Drivers/BSP/STM32F4-Discovery/stm32f4_discovery_audio.c ****   hAudioOutI2s.Instance         = I2S3;
 717              		.loc 1 655 3 view .LVU188
 718              		.loc 1 655 33 is_stmt 0 view .LVU189
 719 0010 0B4A     		ldr	r2, .L70+4
 720 0012 2260     		str	r2, [r4]
 656:Drivers/BSP/STM32F4-Discovery/stm32f4_discovery_audio.c **** 
 657:Drivers/BSP/STM32F4-Discovery/stm32f4_discovery_audio.c ****  /* Disable I2S block */
 658:Drivers/BSP/STM32F4-Discovery/stm32f4_discovery_audio.c ****   __HAL_I2S_DISABLE(&hAudioOutI2s);
 721              		.loc 1 658 3 is_stmt 1 view .LVU190
 722 0014 D169     		ldr	r1, [r2, #28]
 723 0016 21F48061 		bic	r1, r1, #1024
 724 001a D161     		str	r1, [r2, #28]
 659:Drivers/BSP/STM32F4-Discovery/stm32f4_discovery_audio.c ****   
 660:Drivers/BSP/STM32F4-Discovery/stm32f4_discovery_audio.c ****   /* I2S3 peripheral configuration */
 661:Drivers/BSP/STM32F4-Discovery/stm32f4_discovery_audio.c ****   hAudioOutI2s.Init.AudioFreq   = AudioFreq;
 725              		.loc 1 661 3 view .LVU191
 662:Drivers/BSP/STM32F4-Discovery/stm32f4_discovery_audio.c ****   hAudioOutI2s.Init.ClockSource = I2S_CLOCK_PLL;
 726              		.loc 1 662 33 is_stmt 0 view .LVU192
 727 001c 0023     		movs	r3, #0
 663:Drivers/BSP/STM32F4-Discovery/stm32f4_discovery_audio.c ****   hAudioOutI2s.Init.CPOL        = I2S_CPOL_LOW;
 664:Drivers/BSP/STM32F4-Discovery/stm32f4_discovery_audio.c ****   hAudioOutI2s.Init.DataFormat  = I2S_DATAFORMAT_16B;
 665:Drivers/BSP/STM32F4-Discovery/stm32f4_discovery_audio.c ****   hAudioOutI2s.Init.MCLKOutput  = I2S_MCLKOUTPUT_ENABLE;
 728              		.loc 1 665 33 view .LVU193
 729 001e 4FF40072 		mov	r2, #512
 663:Drivers/BSP/STM32F4-Discovery/stm32f4_discovery_audio.c ****   hAudioOutI2s.Init.CPOL        = I2S_CPOL_LOW;
 730              		.loc 1 663 33 view .LVU194
 731 0022 C4E90633 		strd	r3, r3, [r4, #24]
 732              		.loc 1 665 33 view .LVU195
 733 0026 C4E90332 		strd	r3, r2, [r4, #12]
 666:Drivers/BSP/STM32F4-Discovery/stm32f4_discovery_audio.c ****   hAudioOutI2s.Init.Mode        = I2S_MODE_MASTER_TX;
 667:Drivers/BSP/STM32F4-Discovery/stm32f4_discovery_audio.c ****   hAudioOutI2s.Init.Standard    = I2S_STANDARD;
 734              		.loc 1 667 33 view .LVU196
 735 002a C4E90123 		strd	r2, r3, [r4, #4]
 668:Drivers/BSP/STM32F4-Discovery/stm32f4_discovery_audio.c ****   /* Initialize the I2S peripheral with the structure above */  
 669:Drivers/BSP/STM32F4-Discovery/stm32f4_discovery_audio.c ****   if(HAL_I2S_Init(&hAudioOutI2s) != HAL_OK)
 736              		.loc 1 669 6 view .LVU197
 737 002e 2046     		mov	r0, r4
 661:Drivers/BSP/STM32F4-Discovery/stm32f4_discovery_audio.c ****   hAudioOutI2s.Init.ClockSource = I2S_CLOCK_PLL;
 738              		.loc 1 661 33 view .LVU198
 739 0030 6561     		str	r5, [r4, #20]
 662:Drivers/BSP/STM32F4-Discovery/stm32f4_discovery_audio.c ****   hAudioOutI2s.Init.CPOL        = I2S_CPOL_LOW;
 740              		.loc 1 662 3 is_stmt 1 view .LVU199
 664:Drivers/BSP/STM32F4-Discovery/stm32f4_discovery_audio.c ****   hAudioOutI2s.Init.MCLKOutput  = I2S_MCLKOUTPUT_ENABLE;
ARM GAS  /var/folders/0z/tsy30v1j4xl4_7kw94k978ww0000gn/T//cclxGFm1.s 			page 27


 741              		.loc 1 664 3 view .LVU200
 666:Drivers/BSP/STM32F4-Discovery/stm32f4_discovery_audio.c ****   hAudioOutI2s.Init.Standard    = I2S_STANDARD;
 742              		.loc 1 666 3 view .LVU201
 743              		.loc 1 669 3 view .LVU202
 744              	.LBE5:
 745              	.LBE4:
 433:Drivers/BSP/STM32F4-Discovery/stm32f4_discovery_audio.c **** 
 746              		.loc 1 433 1 is_stmt 0 view .LVU203
 747 0032 BDE83840 		pop	{r3, r4, r5, lr}
 748              		.cfi_restore 14
 749              		.cfi_restore 5
 750              		.cfi_restore 4
 751              		.cfi_restore 3
 752              		.cfi_def_cfa_offset 0
 753              	.LVL58:
 754              	.LBB7:
 755              	.LBB6:
 756              		.loc 1 669 6 view .LVU204
 757 0036 FFF7FEBF 		b	HAL_I2S_Init
 758              	.LVL59:
 759              	.L71:
 760              		.loc 1 669 6 view .LVU205
 761 003a 00BF     		.align	2
 762              	.L70:
 763 003c 00000000 		.word	.LANCHOR1
 764 0040 003C0040 		.word	1073757184
 765              	.LBE6:
 766              	.LBE7:
 767              		.cfi_endproc
 768              	.LFE139:
 770              		.section	.text.BSP_AUDIO_OUT_MspInit,"ax",%progbits
 771              		.align	1
 772              		.p2align 2,,3
 773              		.weak	BSP_AUDIO_OUT_MspInit
 774              		.syntax unified
 775              		.thumb
 776              		.thumb_func
 778              	BSP_AUDIO_OUT_MspInit:
 779              	.LVL60:
 780              	.LFB143:
 513:Drivers/BSP/STM32F4-Discovery/stm32f4_discovery_audio.c ****   static DMA_HandleTypeDef hdma_i2sTx;
 781              		.loc 1 513 1 is_stmt 1 view -0
 782              		.cfi_startproc
 783              		@ args = 0, pretend = 0, frame = 48
 784              		@ frame_needed = 0, uses_anonymous_args = 0
 514:Drivers/BSP/STM32F4-Discovery/stm32f4_discovery_audio.c ****   GPIO_InitTypeDef  GPIO_InitStruct;
 785              		.loc 1 514 3 view .LVU207
 515:Drivers/BSP/STM32F4-Discovery/stm32f4_discovery_audio.c ****   
 786              		.loc 1 515 3 view .LVU208
 518:Drivers/BSP/STM32F4-Discovery/stm32f4_discovery_audio.c ****   
 787              		.loc 1 518 3 view .LVU209
 788              	.LBB8:
 518:Drivers/BSP/STM32F4-Discovery/stm32f4_discovery_audio.c ****   
 789              		.loc 1 518 3 view .LVU210
 790              	.LBE8:
 513:Drivers/BSP/STM32F4-Discovery/stm32f4_discovery_audio.c ****   static DMA_HandleTypeDef hdma_i2sTx;
 791              		.loc 1 513 1 is_stmt 0 view .LVU211
ARM GAS  /var/folders/0z/tsy30v1j4xl4_7kw94k978ww0000gn/T//cclxGFm1.s 			page 28


 792 0000 70B5     		push	{r4, r5, r6, lr}
 793              		.cfi_def_cfa_offset 16
 794              		.cfi_offset 4, -16
 795              		.cfi_offset 5, -12
 796              		.cfi_offset 6, -8
 797              		.cfi_offset 14, -4
 798 0002 8CB0     		sub	sp, sp, #48
 799              		.cfi_def_cfa_offset 64
 800              	.LBB9:
 518:Drivers/BSP/STM32F4-Discovery/stm32f4_discovery_audio.c ****   
 801              		.loc 1 518 3 view .LVU212
 802 0004 414C     		ldr	r4, .L76
 803 0006 0025     		movs	r5, #0
 804 0008 0195     		str	r5, [sp, #4]
 518:Drivers/BSP/STM32F4-Discovery/stm32f4_discovery_audio.c ****   
 805              		.loc 1 518 3 is_stmt 1 view .LVU213
 806 000a 236C     		ldr	r3, [r4, #64]
 807 000c 43F40043 		orr	r3, r3, #32768
 808 0010 2364     		str	r3, [r4, #64]
 518:Drivers/BSP/STM32F4-Discovery/stm32f4_discovery_audio.c ****   
 809              		.loc 1 518 3 view .LVU214
 810 0012 236C     		ldr	r3, [r4, #64]
 811 0014 03F40043 		and	r3, r3, #32768
 812 0018 0193     		str	r3, [sp, #4]
 518:Drivers/BSP/STM32F4-Discovery/stm32f4_discovery_audio.c ****   
 813              		.loc 1 518 3 view .LVU215
 814 001a 019B     		ldr	r3, [sp, #4]
 815              	.LBE9:
 518:Drivers/BSP/STM32F4-Discovery/stm32f4_discovery_audio.c ****   
 816              		.loc 1 518 3 view .LVU216
 522:Drivers/BSP/STM32F4-Discovery/stm32f4_discovery_audio.c ****   I2S3_WS_CLK_ENABLE();
 817              		.loc 1 522 3 view .LVU217
 818              	.LBB10:
 522:Drivers/BSP/STM32F4-Discovery/stm32f4_discovery_audio.c ****   I2S3_WS_CLK_ENABLE();
 819              		.loc 1 522 3 view .LVU218
 820 001c 0295     		str	r5, [sp, #8]
 522:Drivers/BSP/STM32F4-Discovery/stm32f4_discovery_audio.c ****   I2S3_WS_CLK_ENABLE();
 821              		.loc 1 522 3 view .LVU219
 822 001e 236B     		ldr	r3, [r4, #48]
 823 0020 43F00403 		orr	r3, r3, #4
 824 0024 2363     		str	r3, [r4, #48]
 522:Drivers/BSP/STM32F4-Discovery/stm32f4_discovery_audio.c ****   I2S3_WS_CLK_ENABLE();
 825              		.loc 1 522 3 view .LVU220
 826 0026 236B     		ldr	r3, [r4, #48]
 827 0028 03F00403 		and	r3, r3, #4
 828 002c 0293     		str	r3, [sp, #8]
 522:Drivers/BSP/STM32F4-Discovery/stm32f4_discovery_audio.c ****   I2S3_WS_CLK_ENABLE();
 829              		.loc 1 522 3 view .LVU221
 830 002e 029B     		ldr	r3, [sp, #8]
 831              	.LBE10:
 522:Drivers/BSP/STM32F4-Discovery/stm32f4_discovery_audio.c ****   I2S3_WS_CLK_ENABLE();
 832              		.loc 1 522 3 view .LVU222
 523:Drivers/BSP/STM32F4-Discovery/stm32f4_discovery_audio.c ****   
 833              		.loc 1 523 3 view .LVU223
 834              	.LBB11:
 523:Drivers/BSP/STM32F4-Discovery/stm32f4_discovery_audio.c ****   
 835              		.loc 1 523 3 view .LVU224
ARM GAS  /var/folders/0z/tsy30v1j4xl4_7kw94k978ww0000gn/T//cclxGFm1.s 			page 29


 836 0030 0395     		str	r5, [sp, #12]
 523:Drivers/BSP/STM32F4-Discovery/stm32f4_discovery_audio.c ****   
 837              		.loc 1 523 3 view .LVU225
 838 0032 236B     		ldr	r3, [r4, #48]
 839 0034 43F00103 		orr	r3, r3, #1
 840 0038 2363     		str	r3, [r4, #48]
 523:Drivers/BSP/STM32F4-Discovery/stm32f4_discovery_audio.c ****   
 841              		.loc 1 523 3 view .LVU226
 842 003a 236B     		ldr	r3, [r4, #48]
 843 003c 03F00103 		and	r3, r3, #1
 844 0040 0393     		str	r3, [sp, #12]
 523:Drivers/BSP/STM32F4-Discovery/stm32f4_discovery_audio.c ****   
 845              		.loc 1 523 3 view .LVU227
 846              	.LBE11:
 526:Drivers/BSP/STM32F4-Discovery/stm32f4_discovery_audio.c ****   GPIO_InitStruct.Mode        = GPIO_MODE_AF_PP;
 847              		.loc 1 526 31 is_stmt 0 view .LVU228
 848 0042 4FF4A052 		mov	r2, #5120
 849 0046 0223     		movs	r3, #2
 850 0048 CDE90623 		strd	r2, [sp, #24]
 851 004c 0022     		movs	r2, #0
 852 004e 0223     		movs	r3, #2
 853 0050 CDE90823 		strd	r2, [sp, #32]
 513:Drivers/BSP/STM32F4-Discovery/stm32f4_discovery_audio.c ****   static DMA_HandleTypeDef hdma_i2sTx;
 854              		.loc 1 513 1 view .LVU229
 855 0054 0646     		mov	r6, r0
 531:Drivers/BSP/STM32F4-Discovery/stm32f4_discovery_audio.c ****   
 856              		.loc 1 531 3 view .LVU230
 857 0056 06A9     		add	r1, sp, #24
 858              	.LVL61:
 531:Drivers/BSP/STM32F4-Discovery/stm32f4_discovery_audio.c ****   
 859              		.loc 1 531 3 view .LVU231
 860 0058 2D48     		ldr	r0, .L76+4
 861              	.LVL62:
 530:Drivers/BSP/STM32F4-Discovery/stm32f4_discovery_audio.c ****   HAL_GPIO_Init(I2S3_SCK_SD_GPIO_PORT, &GPIO_InitStruct);
 862              		.loc 1 530 31 view .LVU232
 863 005a 0623     		movs	r3, #6
 864 005c 0A93     		str	r3, [sp, #40]
 865              	.LBB12:
 523:Drivers/BSP/STM32F4-Discovery/stm32f4_discovery_audio.c ****   
 866              		.loc 1 523 3 view .LVU233
 867 005e 039B     		ldr	r3, [sp, #12]
 868              	.LBE12:
 523:Drivers/BSP/STM32F4-Discovery/stm32f4_discovery_audio.c ****   
 869              		.loc 1 523 3 is_stmt 1 view .LVU234
 526:Drivers/BSP/STM32F4-Discovery/stm32f4_discovery_audio.c ****   GPIO_InitStruct.Mode        = GPIO_MODE_AF_PP;
 870              		.loc 1 526 3 view .LVU235
 527:Drivers/BSP/STM32F4-Discovery/stm32f4_discovery_audio.c ****   GPIO_InitStruct.Pull        = GPIO_NOPULL;
 871              		.loc 1 527 3 view .LVU236
 528:Drivers/BSP/STM32F4-Discovery/stm32f4_discovery_audio.c ****   GPIO_InitStruct.Speed       = GPIO_SPEED_FAST;
 872              		.loc 1 528 3 view .LVU237
 529:Drivers/BSP/STM32F4-Discovery/stm32f4_discovery_audio.c ****   GPIO_InitStruct.Alternate   = I2S3_SCK_SD_WS_AF;
 873              		.loc 1 529 3 view .LVU238
 530:Drivers/BSP/STM32F4-Discovery/stm32f4_discovery_audio.c ****   HAL_GPIO_Init(I2S3_SCK_SD_GPIO_PORT, &GPIO_InitStruct);
 874              		.loc 1 530 3 view .LVU239
 531:Drivers/BSP/STM32F4-Discovery/stm32f4_discovery_audio.c ****   
 875              		.loc 1 531 3 view .LVU240
 876 0060 FFF7FEFF 		bl	HAL_GPIO_Init
ARM GAS  /var/folders/0z/tsy30v1j4xl4_7kw94k978ww0000gn/T//cclxGFm1.s 			page 30


 877              	.LVL63:
 533:Drivers/BSP/STM32F4-Discovery/stm32f4_discovery_audio.c ****   HAL_GPIO_Init(I2S3_WS_GPIO_PORT, &GPIO_InitStruct); 
 878              		.loc 1 533 3 view .LVU241
 533:Drivers/BSP/STM32F4-Discovery/stm32f4_discovery_audio.c ****   HAL_GPIO_Init(I2S3_WS_GPIO_PORT, &GPIO_InitStruct); 
 879              		.loc 1 533 31 is_stmt 0 view .LVU242
 880 0064 1023     		movs	r3, #16
 534:Drivers/BSP/STM32F4-Discovery/stm32f4_discovery_audio.c ****   
 881              		.loc 1 534 3 view .LVU243
 882 0066 2B48     		ldr	r0, .L76+8
 533:Drivers/BSP/STM32F4-Discovery/stm32f4_discovery_audio.c ****   HAL_GPIO_Init(I2S3_WS_GPIO_PORT, &GPIO_InitStruct); 
 883              		.loc 1 533 31 view .LVU244
 884 0068 0693     		str	r3, [sp, #24]
 534:Drivers/BSP/STM32F4-Discovery/stm32f4_discovery_audio.c ****   
 885              		.loc 1 534 3 is_stmt 1 view .LVU245
 886 006a 06A9     		add	r1, sp, #24
 887 006c FFF7FEFF 		bl	HAL_GPIO_Init
 888              	.LVL64:
 537:Drivers/BSP/STM32F4-Discovery/stm32f4_discovery_audio.c ****   GPIO_InitStruct.Pin         = I2S3_MCK_PIN; 
 889              		.loc 1 537 3 view .LVU246
 890              	.LBB13:
 537:Drivers/BSP/STM32F4-Discovery/stm32f4_discovery_audio.c ****   GPIO_InitStruct.Pin         = I2S3_MCK_PIN; 
 891              		.loc 1 537 3 view .LVU247
 892 0070 0495     		str	r5, [sp, #16]
 537:Drivers/BSP/STM32F4-Discovery/stm32f4_discovery_audio.c ****   GPIO_InitStruct.Pin         = I2S3_MCK_PIN; 
 893              		.loc 1 537 3 view .LVU248
 894 0072 236B     		ldr	r3, [r4, #48]
 895              	.LBE13:
 539:Drivers/BSP/STM32F4-Discovery/stm32f4_discovery_audio.c ****   
 896              		.loc 1 539 3 is_stmt 0 view .LVU249
 897 0074 2648     		ldr	r0, .L76+4
 898              	.LBB14:
 537:Drivers/BSP/STM32F4-Discovery/stm32f4_discovery_audio.c ****   GPIO_InitStruct.Pin         = I2S3_MCK_PIN; 
 899              		.loc 1 537 3 view .LVU250
 900 0076 43F00403 		orr	r3, r3, #4
 901 007a 2363     		str	r3, [r4, #48]
 537:Drivers/BSP/STM32F4-Discovery/stm32f4_discovery_audio.c ****   GPIO_InitStruct.Pin         = I2S3_MCK_PIN; 
 902              		.loc 1 537 3 is_stmt 1 view .LVU251
 903 007c 236B     		ldr	r3, [r4, #48]
 904 007e 03F00403 		and	r3, r3, #4
 905 0082 0493     		str	r3, [sp, #16]
 537:Drivers/BSP/STM32F4-Discovery/stm32f4_discovery_audio.c ****   GPIO_InitStruct.Pin         = I2S3_MCK_PIN; 
 906              		.loc 1 537 3 view .LVU252
 907              	.LBE14:
 539:Drivers/BSP/STM32F4-Discovery/stm32f4_discovery_audio.c ****   
 908              		.loc 1 539 3 is_stmt 0 view .LVU253
 909 0084 06A9     		add	r1, sp, #24
 538:Drivers/BSP/STM32F4-Discovery/stm32f4_discovery_audio.c ****   HAL_GPIO_Init(I2S3_MCK_GPIO_PORT, &GPIO_InitStruct);   
 910              		.loc 1 538 31 view .LVU254
 911 0086 8023     		movs	r3, #128
 912              	.LBB15:
 537:Drivers/BSP/STM32F4-Discovery/stm32f4_discovery_audio.c ****   GPIO_InitStruct.Pin         = I2S3_MCK_PIN; 
 913              		.loc 1 537 3 view .LVU255
 914 0088 049A     		ldr	r2, [sp, #16]
 915              	.LBE15:
 537:Drivers/BSP/STM32F4-Discovery/stm32f4_discovery_audio.c ****   GPIO_InitStruct.Pin         = I2S3_MCK_PIN; 
 916              		.loc 1 537 3 is_stmt 1 view .LVU256
 538:Drivers/BSP/STM32F4-Discovery/stm32f4_discovery_audio.c ****   HAL_GPIO_Init(I2S3_MCK_GPIO_PORT, &GPIO_InitStruct);   
ARM GAS  /var/folders/0z/tsy30v1j4xl4_7kw94k978ww0000gn/T//cclxGFm1.s 			page 31


 917              		.loc 1 538 3 view .LVU257
 538:Drivers/BSP/STM32F4-Discovery/stm32f4_discovery_audio.c ****   HAL_GPIO_Init(I2S3_MCK_GPIO_PORT, &GPIO_InitStruct);   
 918              		.loc 1 538 31 is_stmt 0 view .LVU258
 919 008a 0693     		str	r3, [sp, #24]
 539:Drivers/BSP/STM32F4-Discovery/stm32f4_discovery_audio.c ****   
 920              		.loc 1 539 3 is_stmt 1 view .LVU259
 921 008c FFF7FEFF 		bl	HAL_GPIO_Init
 922              	.LVL65:
 542:Drivers/BSP/STM32F4-Discovery/stm32f4_discovery_audio.c ****   
 923              		.loc 1 542 3 view .LVU260
 924              	.LBB16:
 542:Drivers/BSP/STM32F4-Discovery/stm32f4_discovery_audio.c ****   
 925              		.loc 1 542 3 view .LVU261
 926 0090 0595     		str	r5, [sp, #20]
 542:Drivers/BSP/STM32F4-Discovery/stm32f4_discovery_audio.c ****   
 927              		.loc 1 542 3 view .LVU262
 928 0092 236B     		ldr	r3, [r4, #48]
 929              	.LBE16:
 544:Drivers/BSP/STM32F4-Discovery/stm32f4_discovery_audio.c ****   {
 930              		.loc 1 544 5 is_stmt 0 view .LVU263
 931 0094 204A     		ldr	r2, .L76+12
 932              	.LBB17:
 542:Drivers/BSP/STM32F4-Discovery/stm32f4_discovery_audio.c ****   
 933              		.loc 1 542 3 view .LVU264
 934 0096 43F40013 		orr	r3, r3, #2097152
 935 009a 2363     		str	r3, [r4, #48]
 542:Drivers/BSP/STM32F4-Discovery/stm32f4_discovery_audio.c ****   
 936              		.loc 1 542 3 is_stmt 1 view .LVU265
 937 009c 236B     		ldr	r3, [r4, #48]
 938 009e 03F40013 		and	r3, r3, #2097152
 939 00a2 0593     		str	r3, [sp, #20]
 542:Drivers/BSP/STM32F4-Discovery/stm32f4_discovery_audio.c ****   
 940              		.loc 1 542 3 view .LVU266
 941              	.LBE17:
 544:Drivers/BSP/STM32F4-Discovery/stm32f4_discovery_audio.c ****   {
 942              		.loc 1 544 5 is_stmt 0 view .LVU267
 943 00a4 3368     		ldr	r3, [r6]
 944              	.LBB18:
 542:Drivers/BSP/STM32F4-Discovery/stm32f4_discovery_audio.c ****   
 945              		.loc 1 542 3 view .LVU268
 946 00a6 0599     		ldr	r1, [sp, #20]
 947              	.LBE18:
 542:Drivers/BSP/STM32F4-Discovery/stm32f4_discovery_audio.c ****   
 948              		.loc 1 542 3 is_stmt 1 view .LVU269
 544:Drivers/BSP/STM32F4-Discovery/stm32f4_discovery_audio.c ****   {
 949              		.loc 1 544 3 view .LVU270
 544:Drivers/BSP/STM32F4-Discovery/stm32f4_discovery_audio.c ****   {
 950              		.loc 1 544 5 is_stmt 0 view .LVU271
 951 00a8 9342     		cmp	r3, r2
 952 00aa 09D0     		beq	.L75
 953              	.L73:
 579:Drivers/BSP/STM32F4-Discovery/stm32f4_discovery_audio.c ****   HAL_NVIC_EnableIRQ(I2S3_DMAx_IRQ); 
 954              		.loc 1 579 3 is_stmt 1 view .LVU272
 955 00ac 0022     		movs	r2, #0
 956 00ae 0E21     		movs	r1, #14
 957 00b0 2F20     		movs	r0, #47
 958 00b2 FFF7FEFF 		bl	HAL_NVIC_SetPriority
ARM GAS  /var/folders/0z/tsy30v1j4xl4_7kw94k978ww0000gn/T//cclxGFm1.s 			page 32


 959              	.LVL66:
 580:Drivers/BSP/STM32F4-Discovery/stm32f4_discovery_audio.c **** }
 960              		.loc 1 580 3 view .LVU273
 961 00b6 2F20     		movs	r0, #47
 962 00b8 FFF7FEFF 		bl	HAL_NVIC_EnableIRQ
 963              	.LVL67:
 581:Drivers/BSP/STM32F4-Discovery/stm32f4_discovery_audio.c **** 
 964              		.loc 1 581 1 is_stmt 0 view .LVU274
 965 00bc 0CB0     		add	sp, sp, #48
 966              		.cfi_remember_state
 967              		.cfi_def_cfa_offset 16
 968              		@ sp needed
 969 00be 70BD     		pop	{r4, r5, r6, pc}
 970              	.LVL68:
 971              	.L75:
 972              		.cfi_restore_state
 547:Drivers/BSP/STM32F4-Discovery/stm32f4_discovery_audio.c ****     hdma_i2sTx.Init.Direction           = DMA_MEMORY_TO_PERIPH;
 973              		.loc 1 547 5 is_stmt 1 view .LVU275
 547:Drivers/BSP/STM32F4-Discovery/stm32f4_discovery_audio.c ****     hdma_i2sTx.Init.Direction           = DMA_MEMORY_TO_PERIPH;
 974              		.loc 1 547 41 is_stmt 0 view .LVU276
 975 00c0 164C     		ldr	r4, .L76+16
 566:Drivers/BSP/STM32F4-Discovery/stm32f4_discovery_audio.c ****     
 976              		.loc 1 566 41 view .LVU277
 977 00c2 174B     		ldr	r3, .L76+20
 569:Drivers/BSP/STM32F4-Discovery/stm32f4_discovery_audio.c ****     
 978              		.loc 1 569 5 view .LVU278
 979 00c4 B463     		str	r4, [r6, #56]
 548:Drivers/BSP/STM32F4-Discovery/stm32f4_discovery_audio.c ****     hdma_i2sTx.Init.PeriphInc           = DMA_PINC_DISABLE;
 980              		.loc 1 548 41 view .LVU279
 981 00c6 4022     		movs	r2, #64
 982 00c8 C4E90152 		strd	r5, r2, [r4, #4]
 549:Drivers/BSP/STM32F4-Discovery/stm32f4_discovery_audio.c ****     hdma_i2sTx.Init.MemInc              = DMA_MINC_ENABLE;
 983              		.loc 1 549 5 is_stmt 1 view .LVU280
 550:Drivers/BSP/STM32F4-Discovery/stm32f4_discovery_audio.c ****     hdma_i2sTx.Init.PeriphDataAlignment = I2S3_DMAx_PERIPH_DATA_SIZE;
 984              		.loc 1 550 41 is_stmt 0 view .LVU281
 985 00cc 4FF48062 		mov	r2, #1024
 986 00d0 C4E90352 		strd	r5, r2, [r4, #12]
 551:Drivers/BSP/STM32F4-Discovery/stm32f4_discovery_audio.c ****     hdma_i2sTx.Init.MemDataAlignment    = I2S3_DMAx_MEM_DATA_SIZE;
 987              		.loc 1 551 5 is_stmt 1 view .LVU282
 552:Drivers/BSP/STM32F4-Discovery/stm32f4_discovery_audio.c **** 
 988              		.loc 1 552 41 is_stmt 0 view .LVU283
 989 00d4 4FF40061 		mov	r1, #2048
 990 00d8 4FF40052 		mov	r2, #8192
 991 00dc C4E90512 		strd	r1, r2, [r4, #20]
 556:Drivers/BSP/STM32F4-Discovery/stm32f4_discovery_audio.c ****     /*************************** ACTIVATING DMA in CIRCULAR MODE !!! *****************************/
 992              		.loc 1 556 5 is_stmt 1 view .LVU284
 560:Drivers/BSP/STM32F4-Discovery/stm32f4_discovery_audio.c ****     hdma_i2sTx.Init.FIFOMode            = DMA_FIFOMODE_ENABLE;         
 993              		.loc 1 560 41 is_stmt 0 view .LVU285
 994 00e0 4FF48070 		mov	r0, #256
 995 00e4 4FF40032 		mov	r2, #131072
 996 00e8 C4E90702 		strd	r0, r2, [r4, #28]
 561:Drivers/BSP/STM32F4-Discovery/stm32f4_discovery_audio.c ****     hdma_i2sTx.Init.FIFOThreshold       = DMA_FIFO_THRESHOLD_FULL;
 997              		.loc 1 561 5 is_stmt 1 view .LVU286
 562:Drivers/BSP/STM32F4-Discovery/stm32f4_discovery_audio.c ****     hdma_i2sTx.Init.MemBurst            = DMA_MBURST_SINGLE;
 998              		.loc 1 562 41 is_stmt 0 view .LVU287
 999 00ec 4FF0040C 		mov	ip, #4
 1000 00f0 0322     		movs	r2, #3
ARM GAS  /var/folders/0z/tsy30v1j4xl4_7kw94k978ww0000gn/T//cclxGFm1.s 			page 33


 572:Drivers/BSP/STM32F4-Discovery/stm32f4_discovery_audio.c ****     
 1001              		.loc 1 572 5 view .LVU288
 1002 00f2 2046     		mov	r0, r4
 562:Drivers/BSP/STM32F4-Discovery/stm32f4_discovery_audio.c ****     hdma_i2sTx.Init.MemBurst            = DMA_MBURST_SINGLE;
 1003              		.loc 1 562 41 view .LVU289
 1004 00f4 C4E909C2 		strd	ip, r2, [r4, #36]
 563:Drivers/BSP/STM32F4-Discovery/stm32f4_discovery_audio.c ****     hdma_i2sTx.Init.PeriphBurst         = DMA_PBURST_SINGLE; 
 1005              		.loc 1 563 5 is_stmt 1 view .LVU290
 564:Drivers/BSP/STM32F4-Discovery/stm32f4_discovery_audio.c ****     
 1006              		.loc 1 564 41 is_stmt 0 view .LVU291
 1007 00f8 C4E90B55 		strd	r5, r5, [r4, #44]
 566:Drivers/BSP/STM32F4-Discovery/stm32f4_discovery_audio.c ****     
 1008              		.loc 1 566 5 is_stmt 1 view .LVU292
 566:Drivers/BSP/STM32F4-Discovery/stm32f4_discovery_audio.c ****     
 1009              		.loc 1 566 41 is_stmt 0 view .LVU293
 1010 00fc 2360     		str	r3, [r4]
 569:Drivers/BSP/STM32F4-Discovery/stm32f4_discovery_audio.c ****     
 1011              		.loc 1 569 5 is_stmt 1 view .LVU294
 569:Drivers/BSP/STM32F4-Discovery/stm32f4_discovery_audio.c ****     
 1012              		.loc 1 569 5 view .LVU295
 569:Drivers/BSP/STM32F4-Discovery/stm32f4_discovery_audio.c ****     
 1013              		.loc 1 569 5 view .LVU296
 1014 00fe A663     		str	r6, [r4, #56]
 569:Drivers/BSP/STM32F4-Discovery/stm32f4_discovery_audio.c ****     
 1015              		.loc 1 569 5 view .LVU297
 572:Drivers/BSP/STM32F4-Discovery/stm32f4_discovery_audio.c ****     
 1016              		.loc 1 572 5 view .LVU298
 1017 0100 FFF7FEFF 		bl	HAL_DMA_DeInit
 1018              	.LVL69:
 575:Drivers/BSP/STM32F4-Discovery/stm32f4_discovery_audio.c ****   }
 1019              		.loc 1 575 5 view .LVU299
 1020 0104 2046     		mov	r0, r4
 1021 0106 FFF7FEFF 		bl	HAL_DMA_Init
 1022              	.LVL70:
 1023 010a CFE7     		b	.L73
 1024              	.L77:
 1025              		.align	2
 1026              	.L76:
 1027 010c 00380240 		.word	1073887232
 1028 0110 00080240 		.word	1073874944
 1029 0114 00000240 		.word	1073872896
 1030 0118 003C0040 		.word	1073757184
 1031 011c 00000000 		.word	.LANCHOR4
 1032 0120 B8600240 		.word	1073897656
 1033              		.cfi_endproc
 1034              	.LFE143:
 1036              		.section	.text.BSP_AUDIO_OUT_Init,"ax",%progbits
 1037              		.align	1
 1038              		.p2align 2,,3
 1039              		.global	BSP_AUDIO_OUT_Init
 1040              		.syntax unified
 1041              		.thumb
 1042              		.thumb_func
 1044              	BSP_AUDIO_OUT_Init:
 1045              	.LVL71:
 1046              	.LFB130:
 198:Drivers/BSP/STM32F4-Discovery/stm32f4_discovery_audio.c ****   uint8_t ret = AUDIO_OK;
ARM GAS  /var/folders/0z/tsy30v1j4xl4_7kw94k978ww0000gn/T//cclxGFm1.s 			page 34


 1047              		.loc 1 198 1 view -0
 1048              		.cfi_startproc
 1049              		@ args = 0, pretend = 0, frame = 0
 1050              		@ frame_needed = 0, uses_anonymous_args = 0
 199:Drivers/BSP/STM32F4-Discovery/stm32f4_discovery_audio.c ****   
 1051              		.loc 1 199 3 view .LVU301
 202:Drivers/BSP/STM32F4-Discovery/stm32f4_discovery_audio.c ****   
 1052              		.loc 1 202 3 view .LVU302
 198:Drivers/BSP/STM32F4-Discovery/stm32f4_discovery_audio.c ****   uint8_t ret = AUDIO_OK;
 1053              		.loc 1 198 1 is_stmt 0 view .LVU303
 1054 0000 2DE9F041 		push	{r4, r5, r6, r7, r8, lr}
 1055              		.cfi_def_cfa_offset 24
 1056              		.cfi_offset 4, -24
 1057              		.cfi_offset 5, -20
 1058              		.cfi_offset 6, -16
 1059              		.cfi_offset 7, -12
 1060              		.cfi_offset 8, -8
 1061              		.cfi_offset 14, -4
 202:Drivers/BSP/STM32F4-Discovery/stm32f4_discovery_audio.c ****   
 1062              		.loc 1 202 3 view .LVU304
 1063 0004 214C     		ldr	r4, .L86
 198:Drivers/BSP/STM32F4-Discovery/stm32f4_discovery_audio.c ****   uint8_t ret = AUDIO_OK;
 1064              		.loc 1 198 1 view .LVU305
 1065 0006 1546     		mov	r5, r2
 1066 0008 0646     		mov	r6, r0
 202:Drivers/BSP/STM32F4-Discovery/stm32f4_discovery_audio.c ****   
 1067              		.loc 1 202 3 view .LVU306
 1068 000a 0022     		movs	r2, #0
 1069              	.LVL72:
 202:Drivers/BSP/STM32F4-Discovery/stm32f4_discovery_audio.c ****   
 1070              		.loc 1 202 3 view .LVU307
 1071 000c 2046     		mov	r0, r4
 1072              	.LVL73:
 198:Drivers/BSP/STM32F4-Discovery/stm32f4_discovery_audio.c ****   uint8_t ret = AUDIO_OK;
 1073              		.loc 1 198 1 view .LVU308
 1074 000e 0F46     		mov	r7, r1
 202:Drivers/BSP/STM32F4-Discovery/stm32f4_discovery_audio.c ****   
 1075              		.loc 1 202 3 view .LVU309
 1076 0010 2946     		mov	r1, r5
 1077              	.LVL74:
 202:Drivers/BSP/STM32F4-Discovery/stm32f4_discovery_audio.c ****   
 1078              		.loc 1 202 3 view .LVU310
 1079 0012 FFF7FEFF 		bl	BSP_AUDIO_OUT_ClockConfig
 1080              	.LVL75:
 206:Drivers/BSP/STM32F4-Discovery/stm32f4_discovery_audio.c ****   if(HAL_I2S_GetState(&hAudioOutI2s) == HAL_I2S_STATE_RESET)
 1081              		.loc 1 206 3 is_stmt 1 view .LVU311
 206:Drivers/BSP/STM32F4-Discovery/stm32f4_discovery_audio.c ****   if(HAL_I2S_GetState(&hAudioOutI2s) == HAL_I2S_STATE_RESET)
 1082              		.loc 1 206 25 is_stmt 0 view .LVU312
 1083 0016 1E4B     		ldr	r3, .L86+4
 1084 0018 2360     		str	r3, [r4]
 207:Drivers/BSP/STM32F4-Discovery/stm32f4_discovery_audio.c ****   {
 1085              		.loc 1 207 3 is_stmt 1 view .LVU313
 207:Drivers/BSP/STM32F4-Discovery/stm32f4_discovery_audio.c ****   {
 1086              		.loc 1 207 6 is_stmt 0 view .LVU314
 1087 001a 2046     		mov	r0, r4
 1088 001c FFF7FEFF 		bl	HAL_I2S_GetState
 1089              	.LVL76:
ARM GAS  /var/folders/0z/tsy30v1j4xl4_7kw94k978ww0000gn/T//cclxGFm1.s 			page 35


 207:Drivers/BSP/STM32F4-Discovery/stm32f4_discovery_audio.c ****   {
 1090              		.loc 1 207 5 view .LVU315
 1091 0020 78B3     		cbz	r0, .L84
 1092              	.L79:
 216:Drivers/BSP/STM32F4-Discovery/stm32f4_discovery_audio.c ****   {
 1093              		.loc 1 216 3 is_stmt 1 view .LVU316
 1094              	.LVL77:
 1095              	.LBB21:
 1096              	.LBI21:
 652:Drivers/BSP/STM32F4-Discovery/stm32f4_discovery_audio.c **** {
 1097              		.loc 1 652 16 view .LVU317
 1098              	.LBB22:
 655:Drivers/BSP/STM32F4-Discovery/stm32f4_discovery_audio.c **** 
 1099              		.loc 1 655 3 view .LVU318
 655:Drivers/BSP/STM32F4-Discovery/stm32f4_discovery_audio.c **** 
 1100              		.loc 1 655 33 is_stmt 0 view .LVU319
 1101 0022 1B4B     		ldr	r3, .L86+4
 661:Drivers/BSP/STM32F4-Discovery/stm32f4_discovery_audio.c ****   hAudioOutI2s.Init.ClockSource = I2S_CLOCK_PLL;
 1102              		.loc 1 661 33 view .LVU320
 1103 0024 6561     		str	r5, [r4, #20]
 658:Drivers/BSP/STM32F4-Discovery/stm32f4_discovery_audio.c ****   
 1104              		.loc 1 658 3 view .LVU321
 1105 0026 DA69     		ldr	r2, [r3, #28]
 655:Drivers/BSP/STM32F4-Discovery/stm32f4_discovery_audio.c **** 
 1106              		.loc 1 655 33 view .LVU322
 1107 0028 2360     		str	r3, [r4]
 658:Drivers/BSP/STM32F4-Discovery/stm32f4_discovery_audio.c ****   
 1108              		.loc 1 658 3 is_stmt 1 view .LVU323
 1109 002a 22F48062 		bic	r2, r2, #1024
 1110 002e DA61     		str	r2, [r3, #28]
 661:Drivers/BSP/STM32F4-Discovery/stm32f4_discovery_audio.c ****   hAudioOutI2s.Init.ClockSource = I2S_CLOCK_PLL;
 1111              		.loc 1 661 3 view .LVU324
 662:Drivers/BSP/STM32F4-Discovery/stm32f4_discovery_audio.c ****   hAudioOutI2s.Init.CPOL        = I2S_CPOL_LOW;
 1112              		.loc 1 662 3 view .LVU325
 662:Drivers/BSP/STM32F4-Discovery/stm32f4_discovery_audio.c ****   hAudioOutI2s.Init.CPOL        = I2S_CPOL_LOW;
 1113              		.loc 1 662 33 is_stmt 0 view .LVU326
 1114 0030 0023     		movs	r3, #0
 663:Drivers/BSP/STM32F4-Discovery/stm32f4_discovery_audio.c ****   hAudioOutI2s.Init.DataFormat  = I2S_DATAFORMAT_16B;
 1115              		.loc 1 663 33 view .LVU327
 1116 0032 C4E90633 		strd	r3, r3, [r4, #24]
 664:Drivers/BSP/STM32F4-Discovery/stm32f4_discovery_audio.c ****   hAudioOutI2s.Init.MCLKOutput  = I2S_MCLKOUTPUT_ENABLE;
 1117              		.loc 1 664 3 is_stmt 1 view .LVU328
 667:Drivers/BSP/STM32F4-Discovery/stm32f4_discovery_audio.c ****   /* Initialize the I2S peripheral with the structure above */  
 1118              		.loc 1 667 33 is_stmt 0 view .LVU329
 1119 0036 C4E90233 		strd	r3, r3, [r4, #8]
 1120              		.loc 1 669 6 view .LVU330
 1121 003a 1448     		ldr	r0, .L86
 665:Drivers/BSP/STM32F4-Discovery/stm32f4_discovery_audio.c ****   hAudioOutI2s.Init.Mode        = I2S_MODE_MASTER_TX;
 1122              		.loc 1 665 33 view .LVU331
 1123 003c 4FF40073 		mov	r3, #512
 1124 0040 2361     		str	r3, [r4, #16]
 666:Drivers/BSP/STM32F4-Discovery/stm32f4_discovery_audio.c ****   hAudioOutI2s.Init.Standard    = I2S_STANDARD;
 1125              		.loc 1 666 3 is_stmt 1 view .LVU332
 666:Drivers/BSP/STM32F4-Discovery/stm32f4_discovery_audio.c ****   hAudioOutI2s.Init.Standard    = I2S_STANDARD;
 1126              		.loc 1 666 33 is_stmt 0 view .LVU333
 1127 0042 6360     		str	r3, [r4, #4]
 667:Drivers/BSP/STM32F4-Discovery/stm32f4_discovery_audio.c ****   /* Initialize the I2S peripheral with the structure above */  
ARM GAS  /var/folders/0z/tsy30v1j4xl4_7kw94k978ww0000gn/T//cclxGFm1.s 			page 36


 1128              		.loc 1 667 3 is_stmt 1 view .LVU334
 1129              		.loc 1 669 3 view .LVU335
 1130              		.loc 1 669 6 is_stmt 0 view .LVU336
 1131 0044 FFF7FEFF 		bl	HAL_I2S_Init
 1132              	.LVL78:
 1133              		.loc 1 669 5 view .LVU337
 1134 0048 0446     		mov	r4, r0
 1135 004a 48B9     		cbnz	r0, .L82
 670:Drivers/BSP/STM32F4-Discovery/stm32f4_discovery_audio.c ****   {
 671:Drivers/BSP/STM32F4-Discovery/stm32f4_discovery_audio.c ****     return AUDIO_ERROR;
 672:Drivers/BSP/STM32F4-Discovery/stm32f4_discovery_audio.c ****   }
 673:Drivers/BSP/STM32F4-Discovery/stm32f4_discovery_audio.c ****   else
 674:Drivers/BSP/STM32F4-Discovery/stm32f4_discovery_audio.c ****   {
 675:Drivers/BSP/STM32F4-Discovery/stm32f4_discovery_audio.c ****     return AUDIO_OK;
 1136              		.loc 1 675 5 is_stmt 1 view .LVU338
 1137              	.LVL79:
 1138              		.loc 1 675 5 is_stmt 0 view .LVU339
 1139              	.LBE22:
 1140              	.LBE21:
 221:Drivers/BSP/STM32F4-Discovery/stm32f4_discovery_audio.c ****   {
 1141              		.loc 1 221 3 is_stmt 1 view .LVU340
 224:Drivers/BSP/STM32F4-Discovery/stm32f4_discovery_audio.c ****     {  
 1142              		.loc 1 224 5 view .LVU341
 224:Drivers/BSP/STM32F4-Discovery/stm32f4_discovery_audio.c ****     {  
 1143              		.loc 1 224 21 is_stmt 0 view .LVU342
 1144 004c DFF84880 		ldr	r8, .L86+12
 224:Drivers/BSP/STM32F4-Discovery/stm32f4_discovery_audio.c ****     {  
 1145              		.loc 1 224 10 view .LVU343
 1146 0050 9420     		movs	r0, #148
 1147 0052 D8F80830 		ldr	r3, [r8, #8]
 1148 0056 9847     		blx	r3
 1149              	.LVL80:
 224:Drivers/BSP/STM32F4-Discovery/stm32f4_discovery_audio.c ****     {  
 1150              		.loc 1 224 49 view .LVU344
 1151 0058 00F0F800 		and	r0, r0, #248
 224:Drivers/BSP/STM32F4-Discovery/stm32f4_discovery_audio.c ****     {  
 1152              		.loc 1 224 7 view .LVU345
 1153 005c E028     		cmp	r0, #224
 1154 005e 03D0     		beq	.L85
 1155              	.L82:
 198:Drivers/BSP/STM32F4-Discovery/stm32f4_discovery_audio.c ****   uint8_t ret = AUDIO_OK;
 1156              		.loc 1 198 1 view .LVU346
 1157 0060 0124     		movs	r4, #1
 1158              	.LVL81:
 240:Drivers/BSP/STM32F4-Discovery/stm32f4_discovery_audio.c **** }
 1159              		.loc 1 240 3 is_stmt 1 view .LVU347
 241:Drivers/BSP/STM32F4-Discovery/stm32f4_discovery_audio.c **** 
 1160              		.loc 1 241 1 is_stmt 0 view .LVU348
 1161 0062 2046     		mov	r0, r4
 1162 0064 BDE8F081 		pop	{r4, r5, r6, r7, r8, pc}
 1163              	.LVL82:
 1164              	.L85:
 227:Drivers/BSP/STM32F4-Discovery/stm32f4_discovery_audio.c ****     }
 1165              		.loc 1 227 7 is_stmt 1 view .LVU349
 227:Drivers/BSP/STM32F4-Discovery/stm32f4_discovery_audio.c ****     }
 1166              		.loc 1 227 17 is_stmt 0 view .LVU350
 1167 0068 0A48     		ldr	r0, .L86+8
ARM GAS  /var/folders/0z/tsy30v1j4xl4_7kw94k978ww0000gn/T//cclxGFm1.s 			page 37


 237:Drivers/BSP/STM32F4-Discovery/stm32f4_discovery_audio.c ****   }
 1168              		.loc 1 237 5 view .LVU351
 1169 006a 2B46     		mov	r3, r5
 227:Drivers/BSP/STM32F4-Discovery/stm32f4_discovery_audio.c ****     }
 1170              		.loc 1 227 17 view .LVU352
 1171 006c C0F80080 		str	r8, [r0]
 235:Drivers/BSP/STM32F4-Discovery/stm32f4_discovery_audio.c ****   {
 1172              		.loc 1 235 3 is_stmt 1 view .LVU353
 237:Drivers/BSP/STM32F4-Discovery/stm32f4_discovery_audio.c ****   }
 1173              		.loc 1 237 5 view .LVU354
 1174 0070 D8F80050 		ldr	r5, [r8]
 1175              	.LVL83:
 237:Drivers/BSP/STM32F4-Discovery/stm32f4_discovery_audio.c ****   }
 1176              		.loc 1 237 5 is_stmt 0 view .LVU355
 1177 0074 3A46     		mov	r2, r7
 1178 0076 3146     		mov	r1, r6
 1179 0078 9420     		movs	r0, #148
 1180 007a A847     		blx	r5
 1181              	.LVL84:
 240:Drivers/BSP/STM32F4-Discovery/stm32f4_discovery_audio.c **** }
 1182              		.loc 1 240 3 is_stmt 1 view .LVU356
 241:Drivers/BSP/STM32F4-Discovery/stm32f4_discovery_audio.c **** 
 1183              		.loc 1 241 1 is_stmt 0 view .LVU357
 1184 007c 2046     		mov	r0, r4
 1185 007e BDE8F081 		pop	{r4, r5, r6, r7, r8, pc}
 1186              	.LVL85:
 1187              	.L84:
 210:Drivers/BSP/STM32F4-Discovery/stm32f4_discovery_audio.c ****   }
 1188              		.loc 1 210 5 is_stmt 1 view .LVU358
 1189 0082 0146     		mov	r1, r0
 1190 0084 2046     		mov	r0, r4
 1191 0086 FFF7FEFF 		bl	BSP_AUDIO_OUT_MspInit
 1192              	.LVL86:
 1193 008a CAE7     		b	.L79
 1194              	.L87:
 1195              		.align	2
 1196              	.L86:
 1197 008c 00000000 		.word	.LANCHOR1
 1198 0090 003C0040 		.word	1073757184
 1199 0094 00000000 		.word	.LANCHOR0
 1200 0098 00000000 		.word	cs43l22_drv
 1201              		.cfi_endproc
 1202              	.LFE130:
 1204              		.section	.text.BSP_AUDIO_OUT_MspDeInit,"ax",%progbits
 1205              		.align	1
 1206              		.p2align 2,,3
 1207              		.weak	BSP_AUDIO_OUT_MspDeInit
 1208              		.syntax unified
 1209              		.thumb
 1210              		.thumb_func
 1212              	BSP_AUDIO_OUT_MspDeInit:
 1213              	.LVL87:
 1214              	.LFB144:
 589:Drivers/BSP/STM32F4-Discovery/stm32f4_discovery_audio.c ****   GPIO_InitTypeDef  GPIO_InitStruct;
 1215              		.loc 1 589 1 view -0
 1216              		.cfi_startproc
 1217              		@ args = 0, pretend = 0, frame = 0
ARM GAS  /var/folders/0z/tsy30v1j4xl4_7kw94k978ww0000gn/T//cclxGFm1.s 			page 38


 1218              		@ frame_needed = 0, uses_anonymous_args = 0
 590:Drivers/BSP/STM32F4-Discovery/stm32f4_discovery_audio.c **** 
 1219              		.loc 1 590 3 view .LVU360
 593:Drivers/BSP/STM32F4-Discovery/stm32f4_discovery_audio.c ****   
 1220              		.loc 1 593 3 view .LVU361
 589:Drivers/BSP/STM32F4-Discovery/stm32f4_discovery_audio.c ****   GPIO_InitTypeDef  GPIO_InitStruct;
 1221              		.loc 1 589 1 is_stmt 0 view .LVU362
 1222 0000 10B5     		push	{r4, lr}
 1223              		.cfi_def_cfa_offset 8
 1224              		.cfi_offset 4, -8
 1225              		.cfi_offset 14, -4
 589:Drivers/BSP/STM32F4-Discovery/stm32f4_discovery_audio.c ****   GPIO_InitTypeDef  GPIO_InitStruct;
 1226              		.loc 1 589 1 view .LVU363
 1227 0002 0446     		mov	r4, r0
 593:Drivers/BSP/STM32F4-Discovery/stm32f4_discovery_audio.c ****   
 1228              		.loc 1 593 3 view .LVU364
 1229 0004 2F20     		movs	r0, #47
 1230              	.LVL88:
 593:Drivers/BSP/STM32F4-Discovery/stm32f4_discovery_audio.c ****   
 1231              		.loc 1 593 3 view .LVU365
 1232 0006 FFF7FEFF 		bl	HAL_NVIC_DisableIRQ
 1233              	.LVL89:
 595:Drivers/BSP/STM32F4-Discovery/stm32f4_discovery_audio.c ****   {
 1234              		.loc 1 595 3 is_stmt 1 view .LVU366
 595:Drivers/BSP/STM32F4-Discovery/stm32f4_discovery_audio.c ****   {
 1235              		.loc 1 595 10 is_stmt 0 view .LVU367
 1236 000a 2368     		ldr	r3, [r4]
 595:Drivers/BSP/STM32F4-Discovery/stm32f4_discovery_audio.c ****   {
 1237              		.loc 1 595 5 view .LVU368
 1238 000c 0F4A     		ldr	r2, .L92
 1239 000e 9342     		cmp	r3, r2
 1240 0010 16D0     		beq	.L91
 1241              	.L89:
 602:Drivers/BSP/STM32F4-Discovery/stm32f4_discovery_audio.c **** 
 1242              		.loc 1 602 3 is_stmt 1 view .LVU369
 1243 0012 DA69     		ldr	r2, [r3, #28]
 606:Drivers/BSP/STM32F4-Discovery/stm32f4_discovery_audio.c ****   
 1244              		.loc 1 606 3 is_stmt 0 view .LVU370
 1245 0014 0E48     		ldr	r0, .L92+4
 602:Drivers/BSP/STM32F4-Discovery/stm32f4_discovery_audio.c **** 
 1246              		.loc 1 602 3 view .LVU371
 1247 0016 22F48062 		bic	r2, r2, #1024
 1248 001a DA61     		str	r2, [r3, #28]
 605:Drivers/BSP/STM32F4-Discovery/stm32f4_discovery_audio.c ****   HAL_GPIO_DeInit(I2S3_SCK_SD_GPIO_PORT, GPIO_InitStruct.Pin);
 1249              		.loc 1 605 3 is_stmt 1 view .LVU372
 1250              	.LVL90:
 606:Drivers/BSP/STM32F4-Discovery/stm32f4_discovery_audio.c ****   
 1251              		.loc 1 606 3 view .LVU373
 1252 001c 4FF4A051 		mov	r1, #5120
 1253 0020 FFF7FEFF 		bl	HAL_GPIO_DeInit
 1254              	.LVL91:
 609:Drivers/BSP/STM32F4-Discovery/stm32f4_discovery_audio.c ****   HAL_GPIO_DeInit(I2S3_WS_GPIO_PORT, GPIO_InitStruct.Pin);
 1255              		.loc 1 609 3 view .LVU374
 610:Drivers/BSP/STM32F4-Discovery/stm32f4_discovery_audio.c ****   
 1256              		.loc 1 610 3 view .LVU375
 1257 0024 0B48     		ldr	r0, .L92+8
 1258 0026 1021     		movs	r1, #16
ARM GAS  /var/folders/0z/tsy30v1j4xl4_7kw94k978ww0000gn/T//cclxGFm1.s 			page 39


 1259 0028 FFF7FEFF 		bl	HAL_GPIO_DeInit
 1260              	.LVL92:
 613:Drivers/BSP/STM32F4-Discovery/stm32f4_discovery_audio.c ****   HAL_GPIO_DeInit(I2S3_MCK_GPIO_PORT, GPIO_InitStruct.Pin); 
 1261              		.loc 1 613 3 view .LVU376
 614:Drivers/BSP/STM32F4-Discovery/stm32f4_discovery_audio.c **** 
 1262              		.loc 1 614 3 view .LVU377
 1263 002c 0848     		ldr	r0, .L92+4
 1264 002e 8021     		movs	r1, #128
 1265 0030 FFF7FEFF 		bl	HAL_GPIO_DeInit
 1266              	.LVL93:
 617:Drivers/BSP/STM32F4-Discovery/stm32f4_discovery_audio.c **** 
 1267              		.loc 1 617 3 view .LVU378
 1268 0034 084A     		ldr	r2, .L92+12
 1269 0036 136C     		ldr	r3, [r2, #64]
 1270 0038 23F40043 		bic	r3, r3, #32768
 1271 003c 1364     		str	r3, [r2, #64]
 621:Drivers/BSP/STM32F4-Discovery/stm32f4_discovery_audio.c **** 
 1272              		.loc 1 621 1 is_stmt 0 view .LVU379
 1273 003e 10BD     		pop	{r4, pc}
 1274              	.LVL94:
 1275              	.L91:
 598:Drivers/BSP/STM32F4-Discovery/stm32f4_discovery_audio.c ****   }
 1276              		.loc 1 598 5 is_stmt 1 view .LVU380
 1277 0040 A06B     		ldr	r0, [r4, #56]
 1278 0042 FFF7FEFF 		bl	HAL_DMA_DeInit
 1279              	.LVL95:
 602:Drivers/BSP/STM32F4-Discovery/stm32f4_discovery_audio.c **** 
 1280              		.loc 1 602 3 is_stmt 0 view .LVU381
 1281 0046 2368     		ldr	r3, [r4]
 1282 0048 E3E7     		b	.L89
 1283              	.L93:
 1284 004a 00BF     		.align	2
 1285              	.L92:
 1286 004c 003C0040 		.word	1073757184
 1287 0050 00080240 		.word	1073874944
 1288 0054 00000240 		.word	1073872896
 1289 0058 00380240 		.word	1073887232
 1290              		.cfi_endproc
 1291              	.LFE144:
 1293              		.section	.text.BSP_AUDIO_OUT_TransferComplete_CallBack,"ax",%progbits
 1294              		.align	1
 1295              		.p2align 2,,3
 1296              		.weak	BSP_AUDIO_OUT_TransferComplete_CallBack
 1297              		.syntax unified
 1298              		.thumb
 1299              		.thumb_func
 1301              	BSP_AUDIO_OUT_TransferComplete_CallBack:
 1302              	.LFB145:
 627:Drivers/BSP/STM32F4-Discovery/stm32f4_discovery_audio.c **** }
 1303              		.loc 1 627 1 is_stmt 1 view -0
 1304              		.cfi_startproc
 1305              		@ args = 0, pretend = 0, frame = 0
 1306              		@ frame_needed = 0, uses_anonymous_args = 0
 1307              		@ link register save eliminated.
 628:Drivers/BSP/STM32F4-Discovery/stm32f4_discovery_audio.c **** 
 1308              		.loc 1 628 1 view .LVU383
 1309 0000 7047     		bx	lr
ARM GAS  /var/folders/0z/tsy30v1j4xl4_7kw94k978ww0000gn/T//cclxGFm1.s 			page 40


 1310              		.cfi_endproc
 1311              	.LFE145:
 1313 0002 00BF     		.section	.text.HAL_I2S_TxCpltCallback,"ax",%progbits
 1314              		.align	1
 1315              		.p2align 2,,3
 1316              		.global	HAL_I2S_TxCpltCallback
 1317              		.syntax unified
 1318              		.thumb
 1319              		.thumb_func
 1321              	HAL_I2S_TxCpltCallback:
 1322              	.LVL96:
 1323              	.LFB140:
 440:Drivers/BSP/STM32F4-Discovery/stm32f4_discovery_audio.c ****   if(hi2s->Instance == I2S3)
 1324              		.loc 1 440 1 view -0
 1325              		.cfi_startproc
 1326              		@ args = 0, pretend = 0, frame = 0
 1327              		@ frame_needed = 0, uses_anonymous_args = 0
 441:Drivers/BSP/STM32F4-Discovery/stm32f4_discovery_audio.c ****   {
 1328              		.loc 1 441 3 view .LVU385
 440:Drivers/BSP/STM32F4-Discovery/stm32f4_discovery_audio.c ****   if(hi2s->Instance == I2S3)
 1329              		.loc 1 440 1 is_stmt 0 view .LVU386
 1330 0000 08B5     		push	{r3, lr}
 1331              		.cfi_def_cfa_offset 8
 1332              		.cfi_offset 3, -8
 1333              		.cfi_offset 14, -4
 441:Drivers/BSP/STM32F4-Discovery/stm32f4_discovery_audio.c ****   {
 1334              		.loc 1 441 5 view .LVU387
 1335 0002 0268     		ldr	r2, [r0]
 1336 0004 034B     		ldr	r3, .L99
 1337 0006 9A42     		cmp	r2, r3
 1338 0008 00D0     		beq	.L98
 446:Drivers/BSP/STM32F4-Discovery/stm32f4_discovery_audio.c **** 
 1339              		.loc 1 446 1 view .LVU388
 1340 000a 08BD     		pop	{r3, pc}
 1341              	.L98:
 444:Drivers/BSP/STM32F4-Discovery/stm32f4_discovery_audio.c ****   }
 1342              		.loc 1 444 5 is_stmt 1 view .LVU389
 1343 000c FFF7FEFF 		bl	BSP_AUDIO_OUT_TransferComplete_CallBack
 1344              	.LVL97:
 446:Drivers/BSP/STM32F4-Discovery/stm32f4_discovery_audio.c **** 
 1345              		.loc 1 446 1 is_stmt 0 view .LVU390
 1346 0010 08BD     		pop	{r3, pc}
 1347              	.L100:
 1348 0012 00BF     		.align	2
 1349              	.L99:
 1350 0014 003C0040 		.word	1073757184
 1351              		.cfi_endproc
 1352              	.LFE140:
 1354              		.section	.text.BSP_AUDIO_OUT_HalfTransfer_CallBack,"ax",%progbits
 1355              		.align	1
 1356              		.p2align 2,,3
 1357              		.weak	BSP_AUDIO_OUT_HalfTransfer_CallBack
 1358              		.syntax unified
 1359              		.thumb
 1360              		.thumb_func
 1362              	BSP_AUDIO_OUT_HalfTransfer_CallBack:
 1363              	.LFB168:
ARM GAS  /var/folders/0z/tsy30v1j4xl4_7kw94k978ww0000gn/T//cclxGFm1.s 			page 41


 1364              		.cfi_startproc
 1365              		@ args = 0, pretend = 0, frame = 0
 1366              		@ frame_needed = 0, uses_anonymous_args = 0
 1367              		@ link register save eliminated.
 1368 0000 7047     		bx	lr
 1369              		.cfi_endproc
 1370              	.LFE168:
 1372 0002 00BF     		.section	.text.HAL_I2S_TxHalfCpltCallback,"ax",%progbits
 1373              		.align	1
 1374              		.p2align 2,,3
 1375              		.global	HAL_I2S_TxHalfCpltCallback
 1376              		.syntax unified
 1377              		.thumb
 1378              		.thumb_func
 1380              	HAL_I2S_TxHalfCpltCallback:
 1381              	.LVL98:
 1382              	.LFB141:
 453:Drivers/BSP/STM32F4-Discovery/stm32f4_discovery_audio.c ****   if(hi2s->Instance == I2S3)
 1383              		.loc 1 453 1 is_stmt 1 view -0
 1384              		.cfi_startproc
 1385              		@ args = 0, pretend = 0, frame = 0
 1386              		@ frame_needed = 0, uses_anonymous_args = 0
 454:Drivers/BSP/STM32F4-Discovery/stm32f4_discovery_audio.c ****   {
 1387              		.loc 1 454 3 view .LVU392
 453:Drivers/BSP/STM32F4-Discovery/stm32f4_discovery_audio.c ****   if(hi2s->Instance == I2S3)
 1388              		.loc 1 453 1 is_stmt 0 view .LVU393
 1389 0000 08B5     		push	{r3, lr}
 1390              		.cfi_def_cfa_offset 8
 1391              		.cfi_offset 3, -8
 1392              		.cfi_offset 14, -4
 454:Drivers/BSP/STM32F4-Discovery/stm32f4_discovery_audio.c ****   {
 1393              		.loc 1 454 5 view .LVU394
 1394 0002 0268     		ldr	r2, [r0]
 1395 0004 034B     		ldr	r3, .L106
 1396 0006 9A42     		cmp	r2, r3
 1397 0008 00D0     		beq	.L105
 460:Drivers/BSP/STM32F4-Discovery/stm32f4_discovery_audio.c **** 
 1398              		.loc 1 460 1 view .LVU395
 1399 000a 08BD     		pop	{r3, pc}
 1400              	.L105:
 458:Drivers/BSP/STM32F4-Discovery/stm32f4_discovery_audio.c ****   }
 1401              		.loc 1 458 5 is_stmt 1 view .LVU396
 1402 000c FFF7FEFF 		bl	BSP_AUDIO_OUT_HalfTransfer_CallBack
 1403              	.LVL99:
 460:Drivers/BSP/STM32F4-Discovery/stm32f4_discovery_audio.c **** 
 1404              		.loc 1 460 1 is_stmt 0 view .LVU397
 1405 0010 08BD     		pop	{r3, pc}
 1406              	.L107:
 1407 0012 00BF     		.align	2
 1408              	.L106:
 1409 0014 003C0040 		.word	1073757184
 1410              		.cfi_endproc
 1411              	.LFE141:
 1413              		.section	.text.BSP_AUDIO_OUT_Error_CallBack,"ax",%progbits
 1414              		.align	1
 1415              		.p2align 2,,3
 1416              		.weak	BSP_AUDIO_OUT_Error_CallBack
ARM GAS  /var/folders/0z/tsy30v1j4xl4_7kw94k978ww0000gn/T//cclxGFm1.s 			page 42


 1417              		.syntax unified
 1418              		.thumb
 1419              		.thumb_func
 1421              	BSP_AUDIO_OUT_Error_CallBack:
 1422              	.LFB170:
 1423              		.cfi_startproc
 1424              		@ args = 0, pretend = 0, frame = 0
 1425              		@ frame_needed = 0, uses_anonymous_args = 0
 1426              		@ link register save eliminated.
 1427 0000 7047     		bx	lr
 1428              		.cfi_endproc
 1429              	.LFE170:
 1431 0002 00BF     		.section	.text.BSP_AUDIO_IN_Record,"ax",%progbits
 1432              		.align	1
 1433              		.p2align 2,,3
 1434              		.global	BSP_AUDIO_IN_Record
 1435              		.syntax unified
 1436              		.thumb
 1437              		.thumb_func
 1439              	BSP_AUDIO_IN_Record:
 1440              	.LVL100:
 1441              	.LFB150:
 676:Drivers/BSP/STM32F4-Discovery/stm32f4_discovery_audio.c ****   }
 677:Drivers/BSP/STM32F4-Discovery/stm32f4_discovery_audio.c **** }
 678:Drivers/BSP/STM32F4-Discovery/stm32f4_discovery_audio.c ****   
 679:Drivers/BSP/STM32F4-Discovery/stm32f4_discovery_audio.c **** /**
 680:Drivers/BSP/STM32F4-Discovery/stm32f4_discovery_audio.c ****   * @}
 681:Drivers/BSP/STM32F4-Discovery/stm32f4_discovery_audio.c ****   */ 
 682:Drivers/BSP/STM32F4-Discovery/stm32f4_discovery_audio.c ****   
 683:Drivers/BSP/STM32F4-Discovery/stm32f4_discovery_audio.c **** /** @defgroup STM32F4_DISCOVERY_AUDIO_IN_Private_Functions STM32F4 DISCOVERY AUDIO IN Private Funct
 684:Drivers/BSP/STM32F4-Discovery/stm32f4_discovery_audio.c ****   * @{
 685:Drivers/BSP/STM32F4-Discovery/stm32f4_discovery_audio.c ****   */ 
 686:Drivers/BSP/STM32F4-Discovery/stm32f4_discovery_audio.c ****   
 687:Drivers/BSP/STM32F4-Discovery/stm32f4_discovery_audio.c **** /**
 688:Drivers/BSP/STM32F4-Discovery/stm32f4_discovery_audio.c ****   * @brief  Initializes wave recording.
 689:Drivers/BSP/STM32F4-Discovery/stm32f4_discovery_audio.c ****   * @param  AudioFreq: Audio frequency to be configured for the I2S peripheral. 
 690:Drivers/BSP/STM32F4-Discovery/stm32f4_discovery_audio.c ****   * @param  BitRes: Audio frequency to be configured for the I2S peripheral.
 691:Drivers/BSP/STM32F4-Discovery/stm32f4_discovery_audio.c ****   * @param  ChnlNbr: Audio frequency to be configured for the I2S peripheral.
 692:Drivers/BSP/STM32F4-Discovery/stm32f4_discovery_audio.c ****   * @retval AUDIO_OK if correct communication, else wrong communication
 693:Drivers/BSP/STM32F4-Discovery/stm32f4_discovery_audio.c ****   */
 694:Drivers/BSP/STM32F4-Discovery/stm32f4_discovery_audio.c **** uint8_t BSP_AUDIO_IN_Init(uint32_t AudioFreq, uint32_t BitRes, uint32_t ChnlNbr)
 695:Drivers/BSP/STM32F4-Discovery/stm32f4_discovery_audio.c **** {
 696:Drivers/BSP/STM32F4-Discovery/stm32f4_discovery_audio.c ****   
 697:Drivers/BSP/STM32F4-Discovery/stm32f4_discovery_audio.c ****   /* Configure PLL clock */ 
 698:Drivers/BSP/STM32F4-Discovery/stm32f4_discovery_audio.c ****   BSP_AUDIO_IN_ClockConfig(&hAudioInI2s, AudioFreq, NULL);
 699:Drivers/BSP/STM32F4-Discovery/stm32f4_discovery_audio.c ****   
 700:Drivers/BSP/STM32F4-Discovery/stm32f4_discovery_audio.c ****   /* Configure the PDM library */
 701:Drivers/BSP/STM32F4-Discovery/stm32f4_discovery_audio.c ****   /* On STM32F4-Discovery a single microphone is mounted, samples are duplicated
 702:Drivers/BSP/STM32F4-Discovery/stm32f4_discovery_audio.c ****      to make stereo audio streams */
 703:Drivers/BSP/STM32F4-Discovery/stm32f4_discovery_audio.c ****   PDMDecoder_Init(AudioFreq, ChnlNbr, 2);
 704:Drivers/BSP/STM32F4-Discovery/stm32f4_discovery_audio.c **** 
 705:Drivers/BSP/STM32F4-Discovery/stm32f4_discovery_audio.c ****   /* Configure the I2S peripheral */
 706:Drivers/BSP/STM32F4-Discovery/stm32f4_discovery_audio.c ****   hAudioInI2s.Instance = I2S2;
 707:Drivers/BSP/STM32F4-Discovery/stm32f4_discovery_audio.c ****   if(HAL_I2S_GetState(&hAudioInI2s) == HAL_I2S_STATE_RESET)
 708:Drivers/BSP/STM32F4-Discovery/stm32f4_discovery_audio.c ****   { 
 709:Drivers/BSP/STM32F4-Discovery/stm32f4_discovery_audio.c ****     /* Initialize the I2S Msp: this __weak function can be rewritten by the application */
 710:Drivers/BSP/STM32F4-Discovery/stm32f4_discovery_audio.c ****     BSP_AUDIO_IN_MspInit(&hAudioInI2s, NULL);
ARM GAS  /var/folders/0z/tsy30v1j4xl4_7kw94k978ww0000gn/T//cclxGFm1.s 			page 43


 711:Drivers/BSP/STM32F4-Discovery/stm32f4_discovery_audio.c ****   }
 712:Drivers/BSP/STM32F4-Discovery/stm32f4_discovery_audio.c ****   
 713:Drivers/BSP/STM32F4-Discovery/stm32f4_discovery_audio.c ****   /* Configure the I2S2 */
 714:Drivers/BSP/STM32F4-Discovery/stm32f4_discovery_audio.c ****   I2S2_Init(AudioFreq);
 715:Drivers/BSP/STM32F4-Discovery/stm32f4_discovery_audio.c ****   
 716:Drivers/BSP/STM32F4-Discovery/stm32f4_discovery_audio.c ****   /* Return AUDIO_OK when all operations are correctly done */
 717:Drivers/BSP/STM32F4-Discovery/stm32f4_discovery_audio.c ****   return AUDIO_OK;
 718:Drivers/BSP/STM32F4-Discovery/stm32f4_discovery_audio.c **** }
 719:Drivers/BSP/STM32F4-Discovery/stm32f4_discovery_audio.c **** 
 720:Drivers/BSP/STM32F4-Discovery/stm32f4_discovery_audio.c **** /**
 721:Drivers/BSP/STM32F4-Discovery/stm32f4_discovery_audio.c ****   * @brief  Starts audio recording.
 722:Drivers/BSP/STM32F4-Discovery/stm32f4_discovery_audio.c ****   * @param  pbuf: Main buffer pointer for the recorded data storing  
 723:Drivers/BSP/STM32F4-Discovery/stm32f4_discovery_audio.c ****   * @param  size: Current size of the recorded buffer
 724:Drivers/BSP/STM32F4-Discovery/stm32f4_discovery_audio.c ****   * @retval AUDIO_OK if correct communication, else wrong communication
 725:Drivers/BSP/STM32F4-Discovery/stm32f4_discovery_audio.c ****   */
 726:Drivers/BSP/STM32F4-Discovery/stm32f4_discovery_audio.c **** uint8_t BSP_AUDIO_IN_Record(uint16_t* pbuf, uint32_t size)
 727:Drivers/BSP/STM32F4-Discovery/stm32f4_discovery_audio.c **** {
 1442              		.loc 1 727 1 is_stmt 1 view -0
 1443              		.cfi_startproc
 1444              		@ args = 0, pretend = 0, frame = 0
 1445              		@ frame_needed = 0, uses_anonymous_args = 0
 728:Drivers/BSP/STM32F4-Discovery/stm32f4_discovery_audio.c ****   uint32_t ret = AUDIO_ERROR;
 1446              		.loc 1 728 3 view .LVU399
 729:Drivers/BSP/STM32F4-Discovery/stm32f4_discovery_audio.c ****   
 730:Drivers/BSP/STM32F4-Discovery/stm32f4_discovery_audio.c ****   /* Start the process receive DMA */
 731:Drivers/BSP/STM32F4-Discovery/stm32f4_discovery_audio.c ****   HAL_I2S_Receive_DMA(&hAudioInI2s, pbuf, size);
 1447              		.loc 1 731 3 view .LVU400
 727:Drivers/BSP/STM32F4-Discovery/stm32f4_discovery_audio.c ****   uint32_t ret = AUDIO_ERROR;
 1448              		.loc 1 727 1 is_stmt 0 view .LVU401
 1449 0000 08B5     		push	{r3, lr}
 1450              		.cfi_def_cfa_offset 8
 1451              		.cfi_offset 3, -8
 1452              		.cfi_offset 14, -4
 727:Drivers/BSP/STM32F4-Discovery/stm32f4_discovery_audio.c ****   uint32_t ret = AUDIO_ERROR;
 1453              		.loc 1 727 1 view .LVU402
 1454 0002 0346     		mov	r3, r0
 1455              		.loc 1 731 3 view .LVU403
 1456 0004 8AB2     		uxth	r2, r1
 1457 0006 0348     		ldr	r0, .L111
 1458              	.LVL101:
 1459              		.loc 1 731 3 view .LVU404
 1460 0008 1946     		mov	r1, r3
 1461              	.LVL102:
 1462              		.loc 1 731 3 view .LVU405
 1463 000a FFF7FEFF 		bl	HAL_I2S_Receive_DMA
 1464              	.LVL103:
 732:Drivers/BSP/STM32F4-Discovery/stm32f4_discovery_audio.c ****   
 733:Drivers/BSP/STM32F4-Discovery/stm32f4_discovery_audio.c ****   /* Return AUDIO_OK when all operations are correctly done */
 734:Drivers/BSP/STM32F4-Discovery/stm32f4_discovery_audio.c ****   ret = AUDIO_OK;
 1465              		.loc 1 734 3 is_stmt 1 view .LVU406
 735:Drivers/BSP/STM32F4-Discovery/stm32f4_discovery_audio.c ****   
 736:Drivers/BSP/STM32F4-Discovery/stm32f4_discovery_audio.c ****   return ret;
 1466              		.loc 1 736 3 view .LVU407
 737:Drivers/BSP/STM32F4-Discovery/stm32f4_discovery_audio.c **** }
 1467              		.loc 1 737 1 is_stmt 0 view .LVU408
 1468 000e 0020     		movs	r0, #0
 1469 0010 08BD     		pop	{r3, pc}
ARM GAS  /var/folders/0z/tsy30v1j4xl4_7kw94k978ww0000gn/T//cclxGFm1.s 			page 44


 1470              	.L112:
 1471 0012 00BF     		.align	2
 1472              	.L111:
 1473 0014 00000000 		.word	.LANCHOR5
 1474              		.cfi_endproc
 1475              	.LFE150:
 1477              		.section	.text.BSP_AUDIO_IN_Stop,"ax",%progbits
 1478              		.align	1
 1479              		.p2align 2,,3
 1480              		.global	BSP_AUDIO_IN_Stop
 1481              		.syntax unified
 1482              		.thumb
 1483              		.thumb_func
 1485              	BSP_AUDIO_IN_Stop:
 1486              	.LFB151:
 738:Drivers/BSP/STM32F4-Discovery/stm32f4_discovery_audio.c **** 
 739:Drivers/BSP/STM32F4-Discovery/stm32f4_discovery_audio.c **** /**
 740:Drivers/BSP/STM32F4-Discovery/stm32f4_discovery_audio.c ****   * @brief  Stops audio recording.
 741:Drivers/BSP/STM32F4-Discovery/stm32f4_discovery_audio.c ****   * @retval AUDIO_OK if correct communication, else wrong communication
 742:Drivers/BSP/STM32F4-Discovery/stm32f4_discovery_audio.c ****   */
 743:Drivers/BSP/STM32F4-Discovery/stm32f4_discovery_audio.c **** uint8_t BSP_AUDIO_IN_Stop(void)
 744:Drivers/BSP/STM32F4-Discovery/stm32f4_discovery_audio.c **** {
 1487              		.loc 1 744 1 is_stmt 1 view -0
 1488              		.cfi_startproc
 1489              		@ args = 0, pretend = 0, frame = 0
 1490              		@ frame_needed = 0, uses_anonymous_args = 0
 745:Drivers/BSP/STM32F4-Discovery/stm32f4_discovery_audio.c ****   uint32_t ret = AUDIO_ERROR;
 1491              		.loc 1 745 3 view .LVU410
 1492              	.LVL104:
 746:Drivers/BSP/STM32F4-Discovery/stm32f4_discovery_audio.c ****   
 747:Drivers/BSP/STM32F4-Discovery/stm32f4_discovery_audio.c ****   /* Call the Media layer pause function */
 748:Drivers/BSP/STM32F4-Discovery/stm32f4_discovery_audio.c ****   HAL_I2S_DMAStop(&hAudioInI2s);  
 1493              		.loc 1 748 3 view .LVU411
 744:Drivers/BSP/STM32F4-Discovery/stm32f4_discovery_audio.c ****   uint32_t ret = AUDIO_ERROR;
 1494              		.loc 1 744 1 is_stmt 0 view .LVU412
 1495 0000 08B5     		push	{r3, lr}
 1496              		.cfi_def_cfa_offset 8
 1497              		.cfi_offset 3, -8
 1498              		.cfi_offset 14, -4
 1499              		.loc 1 748 3 view .LVU413
 1500 0002 0248     		ldr	r0, .L115
 1501 0004 FFF7FEFF 		bl	HAL_I2S_DMAStop
 1502              	.LVL105:
 749:Drivers/BSP/STM32F4-Discovery/stm32f4_discovery_audio.c ****   
 750:Drivers/BSP/STM32F4-Discovery/stm32f4_discovery_audio.c ****   /* Return AUDIO_OK when all operations are correctly done */
 751:Drivers/BSP/STM32F4-Discovery/stm32f4_discovery_audio.c ****   ret = AUDIO_OK;
 1503              		.loc 1 751 3 is_stmt 1 view .LVU414
 752:Drivers/BSP/STM32F4-Discovery/stm32f4_discovery_audio.c ****   
 753:Drivers/BSP/STM32F4-Discovery/stm32f4_discovery_audio.c ****   return ret;
 1504              		.loc 1 753 3 view .LVU415
 754:Drivers/BSP/STM32F4-Discovery/stm32f4_discovery_audio.c **** }
 1505              		.loc 1 754 1 is_stmt 0 view .LVU416
 1506 0008 0020     		movs	r0, #0
 1507 000a 08BD     		pop	{r3, pc}
 1508              	.L116:
 1509              		.align	2
 1510              	.L115:
ARM GAS  /var/folders/0z/tsy30v1j4xl4_7kw94k978ww0000gn/T//cclxGFm1.s 			page 45


 1511 000c 00000000 		.word	.LANCHOR5
 1512              		.cfi_endproc
 1513              	.LFE151:
 1515              		.section	.text.BSP_AUDIO_IN_Pause,"ax",%progbits
 1516              		.align	1
 1517              		.p2align 2,,3
 1518              		.global	BSP_AUDIO_IN_Pause
 1519              		.syntax unified
 1520              		.thumb
 1521              		.thumb_func
 1523              	BSP_AUDIO_IN_Pause:
 1524              	.LFB152:
 755:Drivers/BSP/STM32F4-Discovery/stm32f4_discovery_audio.c **** 
 756:Drivers/BSP/STM32F4-Discovery/stm32f4_discovery_audio.c **** /**
 757:Drivers/BSP/STM32F4-Discovery/stm32f4_discovery_audio.c ****   * @brief  Pauses the audio file stream.
 758:Drivers/BSP/STM32F4-Discovery/stm32f4_discovery_audio.c ****   * @retval AUDIO_OK if correct communication, else wrong communication
 759:Drivers/BSP/STM32F4-Discovery/stm32f4_discovery_audio.c ****   */
 760:Drivers/BSP/STM32F4-Discovery/stm32f4_discovery_audio.c **** uint8_t BSP_AUDIO_IN_Pause(void)
 761:Drivers/BSP/STM32F4-Discovery/stm32f4_discovery_audio.c **** {    
 1525              		.loc 1 761 1 is_stmt 1 view -0
 1526              		.cfi_startproc
 1527              		@ args = 0, pretend = 0, frame = 0
 1528              		@ frame_needed = 0, uses_anonymous_args = 0
 762:Drivers/BSP/STM32F4-Discovery/stm32f4_discovery_audio.c ****   /* Call the Media layer pause function */
 763:Drivers/BSP/STM32F4-Discovery/stm32f4_discovery_audio.c ****   HAL_I2S_DMAPause(&hAudioInI2s);
 1529              		.loc 1 763 3 view .LVU418
 761:Drivers/BSP/STM32F4-Discovery/stm32f4_discovery_audio.c ****   /* Call the Media layer pause function */
 1530              		.loc 1 761 1 is_stmt 0 view .LVU419
 1531 0000 08B5     		push	{r3, lr}
 1532              		.cfi_def_cfa_offset 8
 1533              		.cfi_offset 3, -8
 1534              		.cfi_offset 14, -4
 1535              		.loc 1 763 3 view .LVU420
 1536 0002 0248     		ldr	r0, .L119
 1537 0004 FFF7FEFF 		bl	HAL_I2S_DMAPause
 1538              	.LVL106:
 764:Drivers/BSP/STM32F4-Discovery/stm32f4_discovery_audio.c ****   
 765:Drivers/BSP/STM32F4-Discovery/stm32f4_discovery_audio.c ****   /* Return AUDIO_OK when all operations are correctly done */
 766:Drivers/BSP/STM32F4-Discovery/stm32f4_discovery_audio.c ****   return AUDIO_OK;
 1539              		.loc 1 766 3 is_stmt 1 view .LVU421
 767:Drivers/BSP/STM32F4-Discovery/stm32f4_discovery_audio.c **** }
 1540              		.loc 1 767 1 is_stmt 0 view .LVU422
 1541 0008 0020     		movs	r0, #0
 1542 000a 08BD     		pop	{r3, pc}
 1543              	.L120:
 1544              		.align	2
 1545              	.L119:
 1546 000c 00000000 		.word	.LANCHOR5
 1547              		.cfi_endproc
 1548              	.LFE152:
 1550              		.section	.text.BSP_AUDIO_IN_Resume,"ax",%progbits
 1551              		.align	1
 1552              		.p2align 2,,3
 1553              		.global	BSP_AUDIO_IN_Resume
 1554              		.syntax unified
 1555              		.thumb
 1556              		.thumb_func
ARM GAS  /var/folders/0z/tsy30v1j4xl4_7kw94k978ww0000gn/T//cclxGFm1.s 			page 46


 1558              	BSP_AUDIO_IN_Resume:
 1559              	.LFB153:
 768:Drivers/BSP/STM32F4-Discovery/stm32f4_discovery_audio.c **** 
 769:Drivers/BSP/STM32F4-Discovery/stm32f4_discovery_audio.c **** /**
 770:Drivers/BSP/STM32F4-Discovery/stm32f4_discovery_audio.c ****   * @brief  Resumes the audio file stream.    
 771:Drivers/BSP/STM32F4-Discovery/stm32f4_discovery_audio.c ****   * @retval AUDIO_OK if correct communication, else wrong communication
 772:Drivers/BSP/STM32F4-Discovery/stm32f4_discovery_audio.c ****   */
 773:Drivers/BSP/STM32F4-Discovery/stm32f4_discovery_audio.c **** uint8_t BSP_AUDIO_IN_Resume(void)
 774:Drivers/BSP/STM32F4-Discovery/stm32f4_discovery_audio.c **** {    
 1560              		.loc 1 774 1 is_stmt 1 view -0
 1561              		.cfi_startproc
 1562              		@ args = 0, pretend = 0, frame = 0
 1563              		@ frame_needed = 0, uses_anonymous_args = 0
 775:Drivers/BSP/STM32F4-Discovery/stm32f4_discovery_audio.c ****   /* Call the Media layer pause/resume function */
 776:Drivers/BSP/STM32F4-Discovery/stm32f4_discovery_audio.c ****   HAL_I2S_DMAResume(&hAudioInI2s);
 1564              		.loc 1 776 3 view .LVU424
 774:Drivers/BSP/STM32F4-Discovery/stm32f4_discovery_audio.c ****   /* Call the Media layer pause/resume function */
 1565              		.loc 1 774 1 is_stmt 0 view .LVU425
 1566 0000 08B5     		push	{r3, lr}
 1567              		.cfi_def_cfa_offset 8
 1568              		.cfi_offset 3, -8
 1569              		.cfi_offset 14, -4
 1570              		.loc 1 776 3 view .LVU426
 1571 0002 0248     		ldr	r0, .L123
 1572 0004 FFF7FEFF 		bl	HAL_I2S_DMAResume
 1573              	.LVL107:
 777:Drivers/BSP/STM32F4-Discovery/stm32f4_discovery_audio.c ****   
 778:Drivers/BSP/STM32F4-Discovery/stm32f4_discovery_audio.c ****   /* Return AUDIO_OK when all operations are correctly done */
 779:Drivers/BSP/STM32F4-Discovery/stm32f4_discovery_audio.c ****   return AUDIO_OK;
 1574              		.loc 1 779 3 is_stmt 1 view .LVU427
 780:Drivers/BSP/STM32F4-Discovery/stm32f4_discovery_audio.c **** }
 1575              		.loc 1 780 1 is_stmt 0 view .LVU428
 1576 0008 0020     		movs	r0, #0
 1577 000a 08BD     		pop	{r3, pc}
 1578              	.L124:
 1579              		.align	2
 1580              	.L123:
 1581 000c 00000000 		.word	.LANCHOR5
 1582              		.cfi_endproc
 1583              	.LFE153:
 1585              		.section	.text.BSP_AUDIO_IN_SetVolume,"ax",%progbits
 1586              		.align	1
 1587              		.p2align 2,,3
 1588              		.global	BSP_AUDIO_IN_SetVolume
 1589              		.syntax unified
 1590              		.thumb
 1591              		.thumb_func
 1593              	BSP_AUDIO_IN_SetVolume:
 1594              	.LVL108:
 1595              	.LFB154:
 781:Drivers/BSP/STM32F4-Discovery/stm32f4_discovery_audio.c **** 
 782:Drivers/BSP/STM32F4-Discovery/stm32f4_discovery_audio.c **** /**
 783:Drivers/BSP/STM32F4-Discovery/stm32f4_discovery_audio.c ****   * @brief  Controls the audio in volume level. 
 784:Drivers/BSP/STM32F4-Discovery/stm32f4_discovery_audio.c ****   * @param  Volume: Volume level to be set in percentage from 0% to 100% (0 for 
 785:Drivers/BSP/STM32F4-Discovery/stm32f4_discovery_audio.c ****   *         Mute and 100 for Max volume level).
 786:Drivers/BSP/STM32F4-Discovery/stm32f4_discovery_audio.c ****   * @retval AUDIO_OK if correct communication, else wrong communication
 787:Drivers/BSP/STM32F4-Discovery/stm32f4_discovery_audio.c ****   */
ARM GAS  /var/folders/0z/tsy30v1j4xl4_7kw94k978ww0000gn/T//cclxGFm1.s 			page 47


 788:Drivers/BSP/STM32F4-Discovery/stm32f4_discovery_audio.c **** uint8_t BSP_AUDIO_IN_SetVolume(uint8_t Volume)
 789:Drivers/BSP/STM32F4-Discovery/stm32f4_discovery_audio.c **** {
 1596              		.loc 1 789 1 is_stmt 1 view -0
 1597              		.cfi_startproc
 1598              		@ args = 0, pretend = 0, frame = 0
 1599              		@ frame_needed = 0, uses_anonymous_args = 0
 1600              		@ link register save eliminated.
 790:Drivers/BSP/STM32F4-Discovery/stm32f4_discovery_audio.c ****   /* Set the Global variable AudioInVolume */
 791:Drivers/BSP/STM32F4-Discovery/stm32f4_discovery_audio.c ****   AudioInVolume = Volume; 
 1601              		.loc 1 791 3 view .LVU430
 1602              		.loc 1 791 17 is_stmt 0 view .LVU431
 1603 0000 014B     		ldr	r3, .L126
 1604 0002 1880     		strh	r0, [r3]	@ movhi
 792:Drivers/BSP/STM32F4-Discovery/stm32f4_discovery_audio.c ****   
 793:Drivers/BSP/STM32F4-Discovery/stm32f4_discovery_audio.c ****   /* Return AUDIO_OK when all operations are correctly done */
 794:Drivers/BSP/STM32F4-Discovery/stm32f4_discovery_audio.c ****   return AUDIO_OK;
 1605              		.loc 1 794 3 is_stmt 1 view .LVU432
 795:Drivers/BSP/STM32F4-Discovery/stm32f4_discovery_audio.c **** }
 1606              		.loc 1 795 1 is_stmt 0 view .LVU433
 1607 0004 0020     		movs	r0, #0
 1608              	.LVL109:
 1609              		.loc 1 795 1 view .LVU434
 1610 0006 7047     		bx	lr
 1611              	.L127:
 1612              		.align	2
 1613              	.L126:
 1614 0008 00000000 		.word	.LANCHOR6
 1615              		.cfi_endproc
 1616              	.LFE154:
 1618              		.section	.text.BSP_AUDIO_IN_PDMToPCM,"ax",%progbits
 1619              		.align	1
 1620              		.p2align 2,,3
 1621              		.global	BSP_AUDIO_IN_PDMToPCM
 1622              		.syntax unified
 1623              		.thumb
 1624              		.thumb_func
 1626              	BSP_AUDIO_IN_PDMToPCM:
 1627              	.LVL110:
 1628              	.LFB155:
 796:Drivers/BSP/STM32F4-Discovery/stm32f4_discovery_audio.c **** 
 797:Drivers/BSP/STM32F4-Discovery/stm32f4_discovery_audio.c **** /**
 798:Drivers/BSP/STM32F4-Discovery/stm32f4_discovery_audio.c ****   * @brief  Converts audio format from PDM to PCM.
 799:Drivers/BSP/STM32F4-Discovery/stm32f4_discovery_audio.c ****   * @param  PDMBuf: Pointer to data PDM buffer
 800:Drivers/BSP/STM32F4-Discovery/stm32f4_discovery_audio.c ****   * @param  PCMBuf: Pointer to data PCM buffer
 801:Drivers/BSP/STM32F4-Discovery/stm32f4_discovery_audio.c ****   * @retval AUDIO_OK if correct communication, else wrong communication
 802:Drivers/BSP/STM32F4-Discovery/stm32f4_discovery_audio.c ****   */
 803:Drivers/BSP/STM32F4-Discovery/stm32f4_discovery_audio.c **** uint8_t BSP_AUDIO_IN_PDMToPCM(uint16_t *PDMBuf, uint16_t *PCMBuf)
 804:Drivers/BSP/STM32F4-Discovery/stm32f4_discovery_audio.c **** {
 1629              		.loc 1 804 1 is_stmt 1 view -0
 1630              		.cfi_startproc
 1631              		@ args = 0, pretend = 0, frame = 128
 1632              		@ frame_needed = 0, uses_anonymous_args = 0
 805:Drivers/BSP/STM32F4-Discovery/stm32f4_discovery_audio.c ****   uint16_t AppPDM[INTERNAL_BUFF_SIZE/2];
 1633              		.loc 1 805 3 view .LVU436
 806:Drivers/BSP/STM32F4-Discovery/stm32f4_discovery_audio.c ****   uint32_t index = 0; 
 1634              		.loc 1 806 3 view .LVU437
 807:Drivers/BSP/STM32F4-Discovery/stm32f4_discovery_audio.c ****   
ARM GAS  /var/folders/0z/tsy30v1j4xl4_7kw94k978ww0000gn/T//cclxGFm1.s 			page 48


 808:Drivers/BSP/STM32F4-Discovery/stm32f4_discovery_audio.c ****   /* PDM Demux */
 809:Drivers/BSP/STM32F4-Discovery/stm32f4_discovery_audio.c ****   for(index = 0; index<INTERNAL_BUFF_SIZE/2; index++)
 1635              		.loc 1 809 3 view .LVU438
 1636              		.loc 1 809 23 view .LVU439
 804:Drivers/BSP/STM32F4-Discovery/stm32f4_discovery_audio.c ****   uint16_t AppPDM[INTERNAL_BUFF_SIZE/2];
 1637              		.loc 1 804 1 is_stmt 0 view .LVU440
 1638 0000 10B5     		push	{r4, lr}
 1639              		.cfi_def_cfa_offset 8
 1640              		.cfi_offset 4, -8
 1641              		.cfi_offset 14, -4
 1642 0002 A0B0     		sub	sp, sp, #128
 1643              		.cfi_def_cfa_offset 136
 804:Drivers/BSP/STM32F4-Discovery/stm32f4_discovery_audio.c ****   uint16_t AppPDM[INTERNAL_BUFF_SIZE/2];
 1644              		.loc 1 804 1 view .LVU441
 1645 0004 0C46     		mov	r4, r1
 1646 0006 0238     		subs	r0, r0, #2
 1647              	.LVL111:
 804:Drivers/BSP/STM32F4-Discovery/stm32f4_discovery_audio.c ****   uint16_t AppPDM[INTERNAL_BUFF_SIZE/2];
 1648              		.loc 1 804 1 view .LVU442
 1649 0008 6A46     		mov	r2, sp
 1650 000a 0DF1800C 		add	ip, sp, #128
 1651              	.LVL112:
 1652              	.L129:
 810:Drivers/BSP/STM32F4-Discovery/stm32f4_discovery_audio.c ****   {
 811:Drivers/BSP/STM32F4-Discovery/stm32f4_discovery_audio.c ****     AppPDM[index] = HTONS(PDMBuf[index]);
 1653              		.loc 1 811 5 is_stmt 1 discriminator 3 view .LVU443
 1654              		.loc 1 811 19 is_stmt 0 discriminator 3 view .LVU444
 1655 000e 30F8023F 		ldrh	r3, [r0, #2]!
 1656 0012 5BBA     		rev16	r3, r3
 1657 0014 22F8023B 		strh	r3, [r2], #2	@ movhi
 809:Drivers/BSP/STM32F4-Discovery/stm32f4_discovery_audio.c ****   {
 1658              		.loc 1 809 51 is_stmt 1 discriminator 3 view .LVU445
 809:Drivers/BSP/STM32F4-Discovery/stm32f4_discovery_audio.c ****   {
 1659              		.loc 1 809 23 discriminator 3 view .LVU446
 1660 0018 6245     		cmp	r2, ip
 1661 001a F8D1     		bne	.L129
 1662              	.LVL113:
 812:Drivers/BSP/STM32F4-Discovery/stm32f4_discovery_audio.c ****   }
 813:Drivers/BSP/STM32F4-Discovery/stm32f4_discovery_audio.c ****   
 814:Drivers/BSP/STM32F4-Discovery/stm32f4_discovery_audio.c ****   for(index = 0; index < DEFAULT_AUDIO_IN_CHANNEL_NBR; index++)
 1663              		.loc 1 814 24 discriminator 1 view .LVU447
 815:Drivers/BSP/STM32F4-Discovery/stm32f4_discovery_audio.c ****   {
 816:Drivers/BSP/STM32F4-Discovery/stm32f4_discovery_audio.c ****     /* PDM to PCM filter */
 817:Drivers/BSP/STM32F4-Discovery/stm32f4_discovery_audio.c **** 	PDM_Filter((uint8_t*)&AppPDM[index], (uint16_t*)&(PCMBuf[index]), &PDM_FilterHandler[index]);
 1664              		.loc 1 817 2 discriminator 1 view .LVU448
 1665 001c 2146     		mov	r1, r4
 1666              	.LVL114:
 1667              		.loc 1 817 2 is_stmt 0 discriminator 1 view .LVU449
 1668 001e 134A     		ldr	r2, .L132
 1669 0020 6846     		mov	r0, sp
 1670 0022 FFF7FEFF 		bl	PDM_Filter
 1671              	.LVL115:
 814:Drivers/BSP/STM32F4-Discovery/stm32f4_discovery_audio.c ****   {
 1672              		.loc 1 814 61 is_stmt 1 discriminator 1 view .LVU450
 814:Drivers/BSP/STM32F4-Discovery/stm32f4_discovery_audio.c ****   {
 1673              		.loc 1 814 24 discriminator 1 view .LVU451
 818:Drivers/BSP/STM32F4-Discovery/stm32f4_discovery_audio.c ****   }
ARM GAS  /var/folders/0z/tsy30v1j4xl4_7kw94k978ww0000gn/T//cclxGFm1.s 			page 49


 819:Drivers/BSP/STM32F4-Discovery/stm32f4_discovery_audio.c ****   /* Duplicate samples since a single microphone in mounted on STM32F4-Discovery */
 820:Drivers/BSP/STM32F4-Discovery/stm32f4_discovery_audio.c ****   for(index = 0; index < PCM_OUT_SIZE; index++)
 1674              		.loc 1 820 24 discriminator 1 view .LVU452
 821:Drivers/BSP/STM32F4-Discovery/stm32f4_discovery_audio.c ****   {
 822:Drivers/BSP/STM32F4-Discovery/stm32f4_discovery_audio.c ****     PCMBuf[(index<<1)+1] = PCMBuf[index<<1];
 1675              		.loc 1 822 5 discriminator 1 view .LVU453
 1676              		.loc 1 822 26 is_stmt 0 discriminator 1 view .LVU454
 1677 0026 2088     		ldrh	r0, [r4]
 1678 0028 A188     		ldrh	r1, [r4, #4]
 1679 002a 2289     		ldrh	r2, [r4, #8]
 1680 002c A389     		ldrh	r3, [r4, #12]
 1681 002e 6080     		strh	r0, [r4, #2]	@ movhi
 820:Drivers/BSP/STM32F4-Discovery/stm32f4_discovery_audio.c ****   {
 1682              		.loc 1 820 45 is_stmt 1 discriminator 1 view .LVU455
 1683              	.LVL116:
 820:Drivers/BSP/STM32F4-Discovery/stm32f4_discovery_audio.c ****   {
 1684              		.loc 1 820 24 discriminator 1 view .LVU456
 1685              		.loc 1 822 5 discriminator 1 view .LVU457
 1686              		.loc 1 822 26 is_stmt 0 discriminator 1 view .LVU458
 1687 0030 E180     		strh	r1, [r4, #6]	@ movhi
 820:Drivers/BSP/STM32F4-Discovery/stm32f4_discovery_audio.c ****   {
 1688              		.loc 1 820 45 is_stmt 1 discriminator 1 view .LVU459
 1689              	.LVL117:
 820:Drivers/BSP/STM32F4-Discovery/stm32f4_discovery_audio.c ****   {
 1690              		.loc 1 820 24 discriminator 1 view .LVU460
 1691              		.loc 1 822 5 discriminator 1 view .LVU461
 1692              		.loc 1 822 26 is_stmt 0 discriminator 1 view .LVU462
 1693 0032 208A     		ldrh	r0, [r4, #16]
 1694 0034 A18A     		ldrh	r1, [r4, #20]
 1695 0036 6281     		strh	r2, [r4, #10]	@ movhi
 820:Drivers/BSP/STM32F4-Discovery/stm32f4_discovery_audio.c ****   {
 1696              		.loc 1 820 45 is_stmt 1 discriminator 1 view .LVU463
 1697              	.LVL118:
 820:Drivers/BSP/STM32F4-Discovery/stm32f4_discovery_audio.c ****   {
 1698              		.loc 1 820 24 discriminator 1 view .LVU464
 1699              		.loc 1 822 5 discriminator 1 view .LVU465
 1700              		.loc 1 822 26 is_stmt 0 discriminator 1 view .LVU466
 1701 0038 E381     		strh	r3, [r4, #14]	@ movhi
 820:Drivers/BSP/STM32F4-Discovery/stm32f4_discovery_audio.c ****   {
 1702              		.loc 1 820 45 is_stmt 1 discriminator 1 view .LVU467
 1703              	.LVL119:
 820:Drivers/BSP/STM32F4-Discovery/stm32f4_discovery_audio.c ****   {
 1704              		.loc 1 820 24 discriminator 1 view .LVU468
 1705              		.loc 1 822 5 discriminator 1 view .LVU469
 1706              		.loc 1 822 26 is_stmt 0 discriminator 1 view .LVU470
 1707 003a 228B     		ldrh	r2, [r4, #24]
 1708 003c A38B     		ldrh	r3, [r4, #28]
 1709 003e 6082     		strh	r0, [r4, #18]	@ movhi
 820:Drivers/BSP/STM32F4-Discovery/stm32f4_discovery_audio.c ****   {
 1710              		.loc 1 820 45 is_stmt 1 discriminator 1 view .LVU471
 1711              	.LVL120:
 820:Drivers/BSP/STM32F4-Discovery/stm32f4_discovery_audio.c ****   {
 1712              		.loc 1 820 24 discriminator 1 view .LVU472
 1713              		.loc 1 822 5 discriminator 1 view .LVU473
 1714              		.loc 1 822 26 is_stmt 0 discriminator 1 view .LVU474
 1715 0040 E182     		strh	r1, [r4, #22]	@ movhi
 820:Drivers/BSP/STM32F4-Discovery/stm32f4_discovery_audio.c ****   {
ARM GAS  /var/folders/0z/tsy30v1j4xl4_7kw94k978ww0000gn/T//cclxGFm1.s 			page 50


 1716              		.loc 1 820 45 is_stmt 1 discriminator 1 view .LVU475
 1717              	.LVL121:
 820:Drivers/BSP/STM32F4-Discovery/stm32f4_discovery_audio.c ****   {
 1718              		.loc 1 820 24 discriminator 1 view .LVU476
 1719              		.loc 1 822 5 discriminator 1 view .LVU477
 1720              		.loc 1 822 26 is_stmt 0 discriminator 1 view .LVU478
 1721 0042 208C     		ldrh	r0, [r4, #32]
 1722 0044 A18C     		ldrh	r1, [r4, #36]
 1723 0046 6283     		strh	r2, [r4, #26]	@ movhi
 820:Drivers/BSP/STM32F4-Discovery/stm32f4_discovery_audio.c ****   {
 1724              		.loc 1 820 45 is_stmt 1 discriminator 1 view .LVU479
 1725              	.LVL122:
 820:Drivers/BSP/STM32F4-Discovery/stm32f4_discovery_audio.c ****   {
 1726              		.loc 1 820 24 discriminator 1 view .LVU480
 1727              		.loc 1 822 5 discriminator 1 view .LVU481
 1728              		.loc 1 822 26 is_stmt 0 discriminator 1 view .LVU482
 1729 0048 E383     		strh	r3, [r4, #30]	@ movhi
 820:Drivers/BSP/STM32F4-Discovery/stm32f4_discovery_audio.c ****   {
 1730              		.loc 1 820 45 is_stmt 1 discriminator 1 view .LVU483
 1731              	.LVL123:
 820:Drivers/BSP/STM32F4-Discovery/stm32f4_discovery_audio.c ****   {
 1732              		.loc 1 820 24 discriminator 1 view .LVU484
 1733              		.loc 1 822 5 discriminator 1 view .LVU485
 1734              		.loc 1 822 26 is_stmt 0 discriminator 1 view .LVU486
 1735 004a 228D     		ldrh	r2, [r4, #40]
 1736 004c A38D     		ldrh	r3, [r4, #44]
 1737 004e 6084     		strh	r0, [r4, #34]	@ movhi
 820:Drivers/BSP/STM32F4-Discovery/stm32f4_discovery_audio.c ****   {
 1738              		.loc 1 820 45 is_stmt 1 discriminator 1 view .LVU487
 1739              	.LVL124:
 820:Drivers/BSP/STM32F4-Discovery/stm32f4_discovery_audio.c ****   {
 1740              		.loc 1 820 24 discriminator 1 view .LVU488
 1741              		.loc 1 822 5 discriminator 1 view .LVU489
 1742              		.loc 1 822 26 is_stmt 0 discriminator 1 view .LVU490
 1743 0050 E184     		strh	r1, [r4, #38]	@ movhi
 820:Drivers/BSP/STM32F4-Discovery/stm32f4_discovery_audio.c ****   {
 1744              		.loc 1 820 45 is_stmt 1 discriminator 1 view .LVU491
 1745              	.LVL125:
 820:Drivers/BSP/STM32F4-Discovery/stm32f4_discovery_audio.c ****   {
 1746              		.loc 1 820 24 discriminator 1 view .LVU492
 1747              		.loc 1 822 5 discriminator 1 view .LVU493
 1748              		.loc 1 822 26 is_stmt 0 discriminator 1 view .LVU494
 1749 0052 208E     		ldrh	r0, [r4, #48]
 1750 0054 A18E     		ldrh	r1, [r4, #52]
 1751 0056 6285     		strh	r2, [r4, #42]	@ movhi
 820:Drivers/BSP/STM32F4-Discovery/stm32f4_discovery_audio.c ****   {
 1752              		.loc 1 820 45 is_stmt 1 discriminator 1 view .LVU495
 1753              	.LVL126:
 820:Drivers/BSP/STM32F4-Discovery/stm32f4_discovery_audio.c ****   {
 1754              		.loc 1 820 24 discriminator 1 view .LVU496
 1755              		.loc 1 822 5 discriminator 1 view .LVU497
 1756              		.loc 1 822 26 is_stmt 0 discriminator 1 view .LVU498
 1757 0058 E385     		strh	r3, [r4, #46]	@ movhi
 820:Drivers/BSP/STM32F4-Discovery/stm32f4_discovery_audio.c ****   {
 1758              		.loc 1 820 45 is_stmt 1 discriminator 1 view .LVU499
 1759              	.LVL127:
 820:Drivers/BSP/STM32F4-Discovery/stm32f4_discovery_audio.c ****   {
ARM GAS  /var/folders/0z/tsy30v1j4xl4_7kw94k978ww0000gn/T//cclxGFm1.s 			page 51


 1760              		.loc 1 820 24 discriminator 1 view .LVU500
 1761              		.loc 1 822 5 discriminator 1 view .LVU501
 1762              		.loc 1 822 26 is_stmt 0 discriminator 1 view .LVU502
 1763 005a 228F     		ldrh	r2, [r4, #56]
 1764 005c A38F     		ldrh	r3, [r4, #60]
 1765 005e 6086     		strh	r0, [r4, #50]	@ movhi
 820:Drivers/BSP/STM32F4-Discovery/stm32f4_discovery_audio.c ****   {
 1766              		.loc 1 820 45 is_stmt 1 discriminator 1 view .LVU503
 1767              	.LVL128:
 820:Drivers/BSP/STM32F4-Discovery/stm32f4_discovery_audio.c ****   {
 1768              		.loc 1 820 24 discriminator 1 view .LVU504
 1769              		.loc 1 822 5 discriminator 1 view .LVU505
 823:Drivers/BSP/STM32F4-Discovery/stm32f4_discovery_audio.c ****   }
 824:Drivers/BSP/STM32F4-Discovery/stm32f4_discovery_audio.c ****   
 825:Drivers/BSP/STM32F4-Discovery/stm32f4_discovery_audio.c ****   /* Return AUDIO_OK when all operations are correctly done */
 826:Drivers/BSP/STM32F4-Discovery/stm32f4_discovery_audio.c ****   return AUDIO_OK; 
 827:Drivers/BSP/STM32F4-Discovery/stm32f4_discovery_audio.c **** }
 1770              		.loc 1 827 1 is_stmt 0 discriminator 1 view .LVU506
 1771 0060 0020     		movs	r0, #0
 822:Drivers/BSP/STM32F4-Discovery/stm32f4_discovery_audio.c ****   }
 1772              		.loc 1 822 26 discriminator 1 view .LVU507
 1773 0062 E186     		strh	r1, [r4, #54]	@ movhi
 820:Drivers/BSP/STM32F4-Discovery/stm32f4_discovery_audio.c ****   {
 1774              		.loc 1 820 45 is_stmt 1 discriminator 1 view .LVU508
 1775              	.LVL129:
 820:Drivers/BSP/STM32F4-Discovery/stm32f4_discovery_audio.c ****   {
 1776              		.loc 1 820 24 discriminator 1 view .LVU509
 822:Drivers/BSP/STM32F4-Discovery/stm32f4_discovery_audio.c ****   }
 1777              		.loc 1 822 5 discriminator 1 view .LVU510
 822:Drivers/BSP/STM32F4-Discovery/stm32f4_discovery_audio.c ****   }
 1778              		.loc 1 822 26 is_stmt 0 discriminator 1 view .LVU511
 1779 0064 6287     		strh	r2, [r4, #58]	@ movhi
 820:Drivers/BSP/STM32F4-Discovery/stm32f4_discovery_audio.c ****   {
 1780              		.loc 1 820 45 is_stmt 1 discriminator 1 view .LVU512
 1781              	.LVL130:
 820:Drivers/BSP/STM32F4-Discovery/stm32f4_discovery_audio.c ****   {
 1782              		.loc 1 820 24 discriminator 1 view .LVU513
 822:Drivers/BSP/STM32F4-Discovery/stm32f4_discovery_audio.c ****   }
 1783              		.loc 1 822 5 discriminator 1 view .LVU514
 822:Drivers/BSP/STM32F4-Discovery/stm32f4_discovery_audio.c ****   }
 1784              		.loc 1 822 26 is_stmt 0 discriminator 1 view .LVU515
 1785 0066 E387     		strh	r3, [r4, #62]	@ movhi
 820:Drivers/BSP/STM32F4-Discovery/stm32f4_discovery_audio.c ****   {
 1786              		.loc 1 820 45 is_stmt 1 discriminator 1 view .LVU516
 1787              	.LVL131:
 820:Drivers/BSP/STM32F4-Discovery/stm32f4_discovery_audio.c ****   {
 1788              		.loc 1 820 24 discriminator 1 view .LVU517
 826:Drivers/BSP/STM32F4-Discovery/stm32f4_discovery_audio.c **** }
 1789              		.loc 1 826 3 discriminator 1 view .LVU518
 1790              		.loc 1 827 1 is_stmt 0 discriminator 1 view .LVU519
 1791 0068 20B0     		add	sp, sp, #128
 1792              		.cfi_def_cfa_offset 8
 1793              		@ sp needed
 1794 006a 10BD     		pop	{r4, pc}
 1795              	.LVL132:
 1796              	.L133:
 1797              		.loc 1 827 1 discriminator 1 view .LVU520
ARM GAS  /var/folders/0z/tsy30v1j4xl4_7kw94k978ww0000gn/T//cclxGFm1.s 			page 52


 1798              		.align	2
 1799              	.L132:
 1800 006c 00000000 		.word	.LANCHOR7
 1801              		.cfi_endproc
 1802              	.LFE155:
 1804              		.section	.text.BSP_AUDIO_IN_ClockConfig,"ax",%progbits
 1805              		.align	1
 1806              		.p2align 2,,3
 1807              		.weak	BSP_AUDIO_IN_ClockConfig
 1808              		.syntax unified
 1809              		.thumb
 1810              		.thumb_func
 1812              	BSP_AUDIO_IN_ClockConfig:
 1813              	.LVL133:
 1814              	.LFB158:
 828:Drivers/BSP/STM32F4-Discovery/stm32f4_discovery_audio.c **** 
 829:Drivers/BSP/STM32F4-Discovery/stm32f4_discovery_audio.c **** /**
 830:Drivers/BSP/STM32F4-Discovery/stm32f4_discovery_audio.c ****   * @brief  Rx Transfer completed callbacks
 831:Drivers/BSP/STM32F4-Discovery/stm32f4_discovery_audio.c ****   * @param  hi2s: I2S handle
 832:Drivers/BSP/STM32F4-Discovery/stm32f4_discovery_audio.c ****   */
 833:Drivers/BSP/STM32F4-Discovery/stm32f4_discovery_audio.c **** void HAL_I2S_RxCpltCallback(I2S_HandleTypeDef *hi2s)
 834:Drivers/BSP/STM32F4-Discovery/stm32f4_discovery_audio.c **** {
 835:Drivers/BSP/STM32F4-Discovery/stm32f4_discovery_audio.c ****   /* Call the record update function to get the next buffer to fill and its size (size is ignored) 
 836:Drivers/BSP/STM32F4-Discovery/stm32f4_discovery_audio.c ****   BSP_AUDIO_IN_TransferComplete_CallBack();
 837:Drivers/BSP/STM32F4-Discovery/stm32f4_discovery_audio.c **** }
 838:Drivers/BSP/STM32F4-Discovery/stm32f4_discovery_audio.c **** 
 839:Drivers/BSP/STM32F4-Discovery/stm32f4_discovery_audio.c **** /**
 840:Drivers/BSP/STM32F4-Discovery/stm32f4_discovery_audio.c ****   * @brief  Rx Half Transfer completed callbacks.
 841:Drivers/BSP/STM32F4-Discovery/stm32f4_discovery_audio.c ****   * @param  hi2s: I2S handle
 842:Drivers/BSP/STM32F4-Discovery/stm32f4_discovery_audio.c ****   */
 843:Drivers/BSP/STM32F4-Discovery/stm32f4_discovery_audio.c **** void HAL_I2S_RxHalfCpltCallback(I2S_HandleTypeDef *hi2s)
 844:Drivers/BSP/STM32F4-Discovery/stm32f4_discovery_audio.c **** {
 845:Drivers/BSP/STM32F4-Discovery/stm32f4_discovery_audio.c ****   /* Manage the remaining file size and new address offset: This function 
 846:Drivers/BSP/STM32F4-Discovery/stm32f4_discovery_audio.c ****      should be coded by user (its prototype is already declared in stm32f4_discovery_audio.h) */
 847:Drivers/BSP/STM32F4-Discovery/stm32f4_discovery_audio.c ****   BSP_AUDIO_IN_HalfTransfer_CallBack();
 848:Drivers/BSP/STM32F4-Discovery/stm32f4_discovery_audio.c **** }
 849:Drivers/BSP/STM32F4-Discovery/stm32f4_discovery_audio.c **** 
 850:Drivers/BSP/STM32F4-Discovery/stm32f4_discovery_audio.c **** /**
 851:Drivers/BSP/STM32F4-Discovery/stm32f4_discovery_audio.c ****   * @brief  Audio In Clock Config.
 852:Drivers/BSP/STM32F4-Discovery/stm32f4_discovery_audio.c ****   * @param  hi2s: I2S handle
 853:Drivers/BSP/STM32F4-Discovery/stm32f4_discovery_audio.c ****   * @param  AudioFreq: Audio frequency used to record the audio stream.  
 854:Drivers/BSP/STM32F4-Discovery/stm32f4_discovery_audio.c ****   * @param  Params : pointer on additional configuration parameters, can be NULL.   
 855:Drivers/BSP/STM32F4-Discovery/stm32f4_discovery_audio.c ****   * @note   This API is called by BSP_AUDIO_IN_Init()
 856:Drivers/BSP/STM32F4-Discovery/stm32f4_discovery_audio.c ****   *         Being __weak it can be overwritten by the application
 857:Drivers/BSP/STM32F4-Discovery/stm32f4_discovery_audio.c ****   */
 858:Drivers/BSP/STM32F4-Discovery/stm32f4_discovery_audio.c **** __weak void BSP_AUDIO_IN_ClockConfig(I2S_HandleTypeDef *hi2s, uint32_t AudioFreq, void *Params)
 859:Drivers/BSP/STM32F4-Discovery/stm32f4_discovery_audio.c **** {
 1815              		.loc 1 859 1 is_stmt 1 view -0
 1816              		.cfi_startproc
 1817              		@ args = 0, pretend = 0, frame = 16
 1818              		@ frame_needed = 0, uses_anonymous_args = 0
 860:Drivers/BSP/STM32F4-Discovery/stm32f4_discovery_audio.c ****   RCC_PeriphCLKInitTypeDef rccclkinit;
 1819              		.loc 1 860 3 view .LVU522
 861:Drivers/BSP/STM32F4-Discovery/stm32f4_discovery_audio.c **** 
 862:Drivers/BSP/STM32F4-Discovery/stm32f4_discovery_audio.c ****   /*Enable PLLI2S clock*/
 863:Drivers/BSP/STM32F4-Discovery/stm32f4_discovery_audio.c ****   HAL_RCCEx_GetPeriphCLKConfig(&rccclkinit);
 1820              		.loc 1 863 3 view .LVU523
ARM GAS  /var/folders/0z/tsy30v1j4xl4_7kw94k978ww0000gn/T//cclxGFm1.s 			page 53


 859:Drivers/BSP/STM32F4-Discovery/stm32f4_discovery_audio.c ****   RCC_PeriphCLKInitTypeDef rccclkinit;
 1821              		.loc 1 859 1 is_stmt 0 view .LVU524
 1822 0000 10B5     		push	{r4, lr}
 1823              		.cfi_def_cfa_offset 8
 1824              		.cfi_offset 4, -8
 1825              		.cfi_offset 14, -4
 1826 0002 84B0     		sub	sp, sp, #16
 1827              		.cfi_def_cfa_offset 24
 859:Drivers/BSP/STM32F4-Discovery/stm32f4_discovery_audio.c ****   RCC_PeriphCLKInitTypeDef rccclkinit;
 1828              		.loc 1 859 1 view .LVU525
 1829 0004 0C46     		mov	r4, r1
 1830              		.loc 1 863 3 view .LVU526
 1831 0006 6846     		mov	r0, sp
 1832              	.LVL134:
 1833              		.loc 1 863 3 view .LVU527
 1834 0008 FFF7FEFF 		bl	HAL_RCCEx_GetPeriphCLKConfig
 1835              	.LVL135:
 864:Drivers/BSP/STM32F4-Discovery/stm32f4_discovery_audio.c ****   /* PLLI2S_VCO Input = HSE_VALUE/PLL_M = 1 Mhz */
 865:Drivers/BSP/STM32F4-Discovery/stm32f4_discovery_audio.c ****   if ((AudioFreq & 0x7) == 0)
 1836              		.loc 1 865 3 is_stmt 1 view .LVU528
 1837              		.loc 1 865 6 is_stmt 0 view .LVU529
 1838 000c 6307     		lsls	r3, r4, #29
 866:Drivers/BSP/STM32F4-Discovery/stm32f4_discovery_audio.c ****   {
 867:Drivers/BSP/STM32F4-Discovery/stm32f4_discovery_audio.c ****     /* Audio frequency multiple of 8 (8/16/32/48/96/192)*/
 868:Drivers/BSP/STM32F4-Discovery/stm32f4_discovery_audio.c ****     /* PLLI2S_VCO Output = PLLI2S_VCO Input * PLLI2SN = 192 Mhz */
 869:Drivers/BSP/STM32F4-Discovery/stm32f4_discovery_audio.c ****     /* I2SCLK = PLLI2S_VCO Output/PLLI2SR = 192/6 = 32 Mhz */
 870:Drivers/BSP/STM32F4-Discovery/stm32f4_discovery_audio.c ****     rccclkinit.PeriphClockSelection = RCC_PERIPHCLK_I2S;
 1839              		.loc 1 870 5 is_stmt 1 view .LVU530
 871:Drivers/BSP/STM32F4-Discovery/stm32f4_discovery_audio.c ****     rccclkinit.PLLI2S.PLLI2SN = 192;
 1840              		.loc 1 871 5 view .LVU531
 870:Drivers/BSP/STM32F4-Discovery/stm32f4_discovery_audio.c ****     rccclkinit.PLLI2S.PLLI2SN = 192;
 1841              		.loc 1 870 37 is_stmt 0 view .LVU532
 1842 000e 0BBF     		itete	eq
 1843 0010 9FED077B 		vldreq.64	d7, .L138	@ int
 872:Drivers/BSP/STM32F4-Discovery/stm32f4_discovery_audio.c ****     rccclkinit.PLLI2S.PLLI2SR = 6;
 873:Drivers/BSP/STM32F4-Discovery/stm32f4_discovery_audio.c ****     HAL_RCCEx_PeriphCLKConfig(&rccclkinit);
 874:Drivers/BSP/STM32F4-Discovery/stm32f4_discovery_audio.c ****   }
 875:Drivers/BSP/STM32F4-Discovery/stm32f4_discovery_audio.c ****   else
 876:Drivers/BSP/STM32F4-Discovery/stm32f4_discovery_audio.c ****   {
 877:Drivers/BSP/STM32F4-Discovery/stm32f4_discovery_audio.c ****     /* Other Frequency (11.025/22.500/44.100) */
 878:Drivers/BSP/STM32F4-Discovery/stm32f4_discovery_audio.c ****     /* PLLI2S_VCO Output = PLLI2S_VCO Input * PLLI2SN = 290 Mhz */
 879:Drivers/BSP/STM32F4-Discovery/stm32f4_discovery_audio.c ****     /* I2SCLK = PLLI2S_VCO Output/PLLI2SR = 290/2 = 145 Mhz */
 880:Drivers/BSP/STM32F4-Discovery/stm32f4_discovery_audio.c ****     rccclkinit.PeriphClockSelection = RCC_PERIPHCLK_I2S;
 1844              		.loc 1 880 37 view .LVU533
 1845 0014 9FED087B 		vldrne.64	d7, .L138+8	@ int
 872:Drivers/BSP/STM32F4-Discovery/stm32f4_discovery_audio.c ****     rccclkinit.PLLI2S.PLLI2SR = 6;
 1846              		.loc 1 872 31 view .LVU534
 1847 0018 0623     		moveq	r3, #6
 1848              		.loc 1 880 5 is_stmt 1 view .LVU535
 881:Drivers/BSP/STM32F4-Discovery/stm32f4_discovery_audio.c ****     rccclkinit.PLLI2S.PLLI2SN = 290;
 1849              		.loc 1 881 5 view .LVU536
 882:Drivers/BSP/STM32F4-Discovery/stm32f4_discovery_audio.c ****     rccclkinit.PLLI2S.PLLI2SR = 2;
 1850              		.loc 1 882 31 is_stmt 0 view .LVU537
 1851 001a 0223     		movne	r3, #2
 883:Drivers/BSP/STM32F4-Discovery/stm32f4_discovery_audio.c ****     HAL_RCCEx_PeriphCLKConfig(&rccclkinit);
 1852              		.loc 1 883 5 view .LVU538
 1853 001c 6846     		mov	r0, sp
ARM GAS  /var/folders/0z/tsy30v1j4xl4_7kw94k978ww0000gn/T//cclxGFm1.s 			page 54


 880:Drivers/BSP/STM32F4-Discovery/stm32f4_discovery_audio.c ****     rccclkinit.PLLI2S.PLLI2SN = 290;
 1854              		.loc 1 880 37 view .LVU539
 1855 001e 8DED007B 		vstr.64	d7, [sp]	@ int
 882:Drivers/BSP/STM32F4-Discovery/stm32f4_discovery_audio.c ****     rccclkinit.PLLI2S.PLLI2SR = 2;
 1856              		.loc 1 882 5 is_stmt 1 view .LVU540
 882:Drivers/BSP/STM32F4-Discovery/stm32f4_discovery_audio.c ****     rccclkinit.PLLI2S.PLLI2SR = 2;
 1857              		.loc 1 882 31 is_stmt 0 view .LVU541
 1858 0022 0293     		str	r3, [sp, #8]
 1859              		.loc 1 883 5 is_stmt 1 view .LVU542
 1860 0024 FFF7FEFF 		bl	HAL_RCCEx_PeriphCLKConfig
 1861              	.LVL136:
 884:Drivers/BSP/STM32F4-Discovery/stm32f4_discovery_audio.c ****   }
 885:Drivers/BSP/STM32F4-Discovery/stm32f4_discovery_audio.c **** }
 1862              		.loc 1 885 1 is_stmt 0 view .LVU543
 1863 0028 04B0     		add	sp, sp, #16
 1864              		.cfi_def_cfa_offset 8
 1865              		@ sp needed
 1866 002a 10BD     		pop	{r4, pc}
 1867              	.LVL137:
 1868              	.L139:
 1869              		.loc 1 885 1 view .LVU544
 1870 002c AFF30080 		.align	3
 1871              	.L138:
 1872 0030 01000000 		.word	1
 1873 0034 C0000000 		.word	192
 1874 0038 01000000 		.word	1
 1875 003c 22010000 		.word	290
 1876              		.cfi_endproc
 1877              	.LFE158:
 1879              		.section	.text.BSP_AUDIO_IN_MspInit,"ax",%progbits
 1880              		.align	1
 1881              		.p2align 2,,3
 1882              		.weak	BSP_AUDIO_IN_MspInit
 1883              		.syntax unified
 1884              		.thumb
 1885              		.thumb_func
 1887              	BSP_AUDIO_IN_MspInit:
 1888              	.LVL138:
 1889              	.LFB159:
 886:Drivers/BSP/STM32F4-Discovery/stm32f4_discovery_audio.c **** 
 887:Drivers/BSP/STM32F4-Discovery/stm32f4_discovery_audio.c **** /**
 888:Drivers/BSP/STM32F4-Discovery/stm32f4_discovery_audio.c ****   * @brief  BSP AUDIO IN MSP Init.
 889:Drivers/BSP/STM32F4-Discovery/stm32f4_discovery_audio.c ****   * @param  hi2s: I2S handle
 890:Drivers/BSP/STM32F4-Discovery/stm32f4_discovery_audio.c ****   * @param  Params : pointer on additional configuration parameters, can be NULL.
 891:Drivers/BSP/STM32F4-Discovery/stm32f4_discovery_audio.c ****   */
 892:Drivers/BSP/STM32F4-Discovery/stm32f4_discovery_audio.c **** __weak void BSP_AUDIO_IN_MspInit(I2S_HandleTypeDef *hi2s, void *Params)
 893:Drivers/BSP/STM32F4-Discovery/stm32f4_discovery_audio.c **** {
 1890              		.loc 1 893 1 is_stmt 1 view -0
 1891              		.cfi_startproc
 1892              		@ args = 0, pretend = 0, frame = 40
 1893              		@ frame_needed = 0, uses_anonymous_args = 0
 894:Drivers/BSP/STM32F4-Discovery/stm32f4_discovery_audio.c ****   static DMA_HandleTypeDef hdma_i2sRx;
 1894              		.loc 1 894 3 view .LVU546
 895:Drivers/BSP/STM32F4-Discovery/stm32f4_discovery_audio.c ****   GPIO_InitTypeDef  GPIO_InitStruct;
 1895              		.loc 1 895 3 view .LVU547
 896:Drivers/BSP/STM32F4-Discovery/stm32f4_discovery_audio.c ****   
 897:Drivers/BSP/STM32F4-Discovery/stm32f4_discovery_audio.c ****   /* Enable the I2S2 peripheral clock */
ARM GAS  /var/folders/0z/tsy30v1j4xl4_7kw94k978ww0000gn/T//cclxGFm1.s 			page 55


 898:Drivers/BSP/STM32F4-Discovery/stm32f4_discovery_audio.c ****   I2S2_CLK_ENABLE();
 1896              		.loc 1 898 3 view .LVU548
 1897              	.LBB23:
 1898              		.loc 1 898 3 view .LVU549
 1899              	.LBE23:
 893:Drivers/BSP/STM32F4-Discovery/stm32f4_discovery_audio.c ****   static DMA_HandleTypeDef hdma_i2sRx;
 1900              		.loc 1 893 1 is_stmt 0 view .LVU550
 1901 0000 F0B5     		push	{r4, r5, r6, r7, lr}
 1902              		.cfi_def_cfa_offset 20
 1903              		.cfi_offset 4, -20
 1904              		.cfi_offset 5, -16
 1905              		.cfi_offset 6, -12
 1906              		.cfi_offset 7, -8
 1907              		.cfi_offset 14, -4
 1908 0002 8BB0     		sub	sp, sp, #44
 1909              		.cfi_def_cfa_offset 64
 1910              	.LBB24:
 1911              		.loc 1 898 3 view .LVU551
 1912 0004 384C     		ldr	r4, .L144
 1913 0006 0025     		movs	r5, #0
 1914 0008 0095     		str	r5, [sp]
 1915              		.loc 1 898 3 is_stmt 1 view .LVU552
 1916 000a 236C     		ldr	r3, [r4, #64]
 1917 000c 43F48043 		orr	r3, r3, #16384
 1918 0010 2364     		str	r3, [r4, #64]
 1919              		.loc 1 898 3 view .LVU553
 1920 0012 236C     		ldr	r3, [r4, #64]
 1921 0014 03F48043 		and	r3, r3, #16384
 1922 0018 0093     		str	r3, [sp]
 1923              		.loc 1 898 3 view .LVU554
 1924 001a 009B     		ldr	r3, [sp]
 1925              	.LBE24:
 1926              		.loc 1 898 3 view .LVU555
 899:Drivers/BSP/STM32F4-Discovery/stm32f4_discovery_audio.c **** 
 900:Drivers/BSP/STM32F4-Discovery/stm32f4_discovery_audio.c ****   /* Enable I2S GPIO clocks */
 901:Drivers/BSP/STM32F4-Discovery/stm32f4_discovery_audio.c ****   I2S2_SCK_GPIO_CLK_ENABLE();
 1927              		.loc 1 901 3 view .LVU556
 1928              	.LBB25:
 1929              		.loc 1 901 3 view .LVU557
 1930 001c 0195     		str	r5, [sp, #4]
 1931              		.loc 1 901 3 view .LVU558
 1932 001e 236B     		ldr	r3, [r4, #48]
 1933 0020 43F00203 		orr	r3, r3, #2
 1934 0024 2363     		str	r3, [r4, #48]
 1935              		.loc 1 901 3 view .LVU559
 1936 0026 236B     		ldr	r3, [r4, #48]
 1937 0028 03F00203 		and	r3, r3, #2
 1938 002c 0193     		str	r3, [sp, #4]
 1939              		.loc 1 901 3 view .LVU560
 1940 002e 019B     		ldr	r3, [sp, #4]
 1941              	.LBE25:
 1942              		.loc 1 901 3 view .LVU561
 902:Drivers/BSP/STM32F4-Discovery/stm32f4_discovery_audio.c ****   I2S2_MOSI_GPIO_CLK_ENABLE();
 1943              		.loc 1 902 3 view .LVU562
 1944              	.LBB26:
 1945              		.loc 1 902 3 view .LVU563
 1946 0030 0295     		str	r5, [sp, #8]
ARM GAS  /var/folders/0z/tsy30v1j4xl4_7kw94k978ww0000gn/T//cclxGFm1.s 			page 56


 1947              		.loc 1 902 3 view .LVU564
 1948 0032 236B     		ldr	r3, [r4, #48]
 1949 0034 43F00403 		orr	r3, r3, #4
 1950 0038 2363     		str	r3, [r4, #48]
 1951              		.loc 1 902 3 view .LVU565
 1952 003a 236B     		ldr	r3, [r4, #48]
 1953 003c 03F00403 		and	r3, r3, #4
 1954 0040 0293     		str	r3, [sp, #8]
 1955              		.loc 1 902 3 view .LVU566
 1956              	.LBE26:
 903:Drivers/BSP/STM32F4-Discovery/stm32f4_discovery_audio.c ****   
 904:Drivers/BSP/STM32F4-Discovery/stm32f4_discovery_audio.c ****   /* I2S2 pins configuration: SCK and MOSI pins ------------------------------*/
 905:Drivers/BSP/STM32F4-Discovery/stm32f4_discovery_audio.c ****   GPIO_InitStruct.Mode      = GPIO_MODE_AF_PP;
 906:Drivers/BSP/STM32F4-Discovery/stm32f4_discovery_audio.c ****   GPIO_InitStruct.Pull      = GPIO_NOPULL;
 907:Drivers/BSP/STM32F4-Discovery/stm32f4_discovery_audio.c ****   GPIO_InitStruct.Speed     = GPIO_SPEED_FAST;
 908:Drivers/BSP/STM32F4-Discovery/stm32f4_discovery_audio.c **** 
 909:Drivers/BSP/STM32F4-Discovery/stm32f4_discovery_audio.c ****   GPIO_InitStruct.Pin       = I2S2_SCK_PIN; 
 1957              		.loc 1 909 29 is_stmt 0 view .LVU567
 1958 0042 4FF48062 		mov	r2, #1024
 1959 0046 0223     		movs	r3, #2
 1960 0048 CDE90423 		strd	r2, [sp, #16]
 893:Drivers/BSP/STM32F4-Discovery/stm32f4_discovery_audio.c ****   static DMA_HandleTypeDef hdma_i2sRx;
 1961              		.loc 1 893 1 view .LVU568
 1962 004c 0646     		mov	r6, r0
 1963              		.loc 1 909 29 view .LVU569
 1964 004e 0022     		movs	r2, #0
 910:Drivers/BSP/STM32F4-Discovery/stm32f4_discovery_audio.c ****   GPIO_InitStruct.Alternate = I2S2_SCK_AF;
 911:Drivers/BSP/STM32F4-Discovery/stm32f4_discovery_audio.c ****   HAL_GPIO_Init(I2S2_SCK_GPIO_PORT, &GPIO_InitStruct);
 1965              		.loc 1 911 3 view .LVU570
 1966 0050 2648     		ldr	r0, .L144+4
 1967              	.LVL139:
 909:Drivers/BSP/STM32F4-Discovery/stm32f4_discovery_audio.c ****   GPIO_InitStruct.Alternate = I2S2_SCK_AF;
 1968              		.loc 1 909 29 view .LVU571
 1969 0052 0223     		movs	r3, #2
 910:Drivers/BSP/STM32F4-Discovery/stm32f4_discovery_audio.c ****   GPIO_InitStruct.Alternate = I2S2_SCK_AF;
 1970              		.loc 1 910 29 view .LVU572
 1971 0054 0527     		movs	r7, #5
 1972              		.loc 1 911 3 view .LVU573
 1973 0056 04A9     		add	r1, sp, #16
 1974              	.LVL140:
 909:Drivers/BSP/STM32F4-Discovery/stm32f4_discovery_audio.c ****   GPIO_InitStruct.Alternate = I2S2_SCK_AF;
 1975              		.loc 1 909 29 view .LVU574
 1976 0058 CDE90623 		strd	r2, [sp, #24]
 910:Drivers/BSP/STM32F4-Discovery/stm32f4_discovery_audio.c ****   GPIO_InitStruct.Alternate = I2S2_SCK_AF;
 1977              		.loc 1 910 29 view .LVU575
 1978 005c 0897     		str	r7, [sp, #32]
 1979              	.LBB27:
 902:Drivers/BSP/STM32F4-Discovery/stm32f4_discovery_audio.c ****   
 1980              		.loc 1 902 3 view .LVU576
 1981 005e 029B     		ldr	r3, [sp, #8]
 1982              	.LBE27:
 902:Drivers/BSP/STM32F4-Discovery/stm32f4_discovery_audio.c ****   
 1983              		.loc 1 902 3 is_stmt 1 view .LVU577
 905:Drivers/BSP/STM32F4-Discovery/stm32f4_discovery_audio.c ****   GPIO_InitStruct.Pull      = GPIO_NOPULL;
 1984              		.loc 1 905 3 view .LVU578
 906:Drivers/BSP/STM32F4-Discovery/stm32f4_discovery_audio.c ****   GPIO_InitStruct.Speed     = GPIO_SPEED_FAST;
 1985              		.loc 1 906 3 view .LVU579
ARM GAS  /var/folders/0z/tsy30v1j4xl4_7kw94k978ww0000gn/T//cclxGFm1.s 			page 57


 907:Drivers/BSP/STM32F4-Discovery/stm32f4_discovery_audio.c **** 
 1986              		.loc 1 907 3 view .LVU580
 909:Drivers/BSP/STM32F4-Discovery/stm32f4_discovery_audio.c ****   GPIO_InitStruct.Alternate = I2S2_SCK_AF;
 1987              		.loc 1 909 3 view .LVU581
 910:Drivers/BSP/STM32F4-Discovery/stm32f4_discovery_audio.c ****   HAL_GPIO_Init(I2S2_SCK_GPIO_PORT, &GPIO_InitStruct);
 1988              		.loc 1 910 3 view .LVU582
 1989              		.loc 1 911 3 view .LVU583
 1990 0060 FFF7FEFF 		bl	HAL_GPIO_Init
 1991              	.LVL141:
 912:Drivers/BSP/STM32F4-Discovery/stm32f4_discovery_audio.c ****   
 913:Drivers/BSP/STM32F4-Discovery/stm32f4_discovery_audio.c ****   GPIO_InitStruct.Pin       = I2S2_MOSI_PIN ;
 1992              		.loc 1 913 3 view .LVU584
 1993              		.loc 1 913 29 is_stmt 0 view .LVU585
 1994 0064 0823     		movs	r3, #8
 914:Drivers/BSP/STM32F4-Discovery/stm32f4_discovery_audio.c ****   GPIO_InitStruct.Alternate = I2S2_MOSI_AF;
 915:Drivers/BSP/STM32F4-Discovery/stm32f4_discovery_audio.c ****   HAL_GPIO_Init(I2S2_MOSI_GPIO_PORT, &GPIO_InitStruct); 
 1995              		.loc 1 915 3 view .LVU586
 1996 0066 04A9     		add	r1, sp, #16
 1997 0068 2148     		ldr	r0, .L144+8
 913:Drivers/BSP/STM32F4-Discovery/stm32f4_discovery_audio.c ****   GPIO_InitStruct.Alternate = I2S2_MOSI_AF;
 1998              		.loc 1 913 29 view .LVU587
 1999 006a 0493     		str	r3, [sp, #16]
 914:Drivers/BSP/STM32F4-Discovery/stm32f4_discovery_audio.c ****   GPIO_InitStruct.Alternate = I2S2_MOSI_AF;
 2000              		.loc 1 914 3 is_stmt 1 view .LVU588
 2001              		.loc 1 915 3 view .LVU589
 914:Drivers/BSP/STM32F4-Discovery/stm32f4_discovery_audio.c ****   GPIO_InitStruct.Alternate = I2S2_MOSI_AF;
 2002              		.loc 1 914 29 is_stmt 0 view .LVU590
 2003 006c 0897     		str	r7, [sp, #32]
 2004              		.loc 1 915 3 view .LVU591
 2005 006e FFF7FEFF 		bl	HAL_GPIO_Init
 2006              	.LVL142:
 916:Drivers/BSP/STM32F4-Discovery/stm32f4_discovery_audio.c **** 
 917:Drivers/BSP/STM32F4-Discovery/stm32f4_discovery_audio.c ****   /* Enable the DMA clock */
 918:Drivers/BSP/STM32F4-Discovery/stm32f4_discovery_audio.c ****   I2S2_DMAx_CLK_ENABLE();
 2007              		.loc 1 918 3 is_stmt 1 view .LVU592
 2008              	.LBB28:
 2009              		.loc 1 918 3 view .LVU593
 2010 0072 0395     		str	r5, [sp, #12]
 2011              		.loc 1 918 3 view .LVU594
 2012 0074 236B     		ldr	r3, [r4, #48]
 2013              	.LBE28:
 919:Drivers/BSP/STM32F4-Discovery/stm32f4_discovery_audio.c ****     
 920:Drivers/BSP/STM32F4-Discovery/stm32f4_discovery_audio.c ****   if(hi2s->Instance == I2S2)
 2014              		.loc 1 920 5 is_stmt 0 view .LVU595
 2015 0076 1F4A     		ldr	r2, .L144+12
 2016              	.LBB29:
 918:Drivers/BSP/STM32F4-Discovery/stm32f4_discovery_audio.c ****     
 2017              		.loc 1 918 3 view .LVU596
 2018 0078 43F40013 		orr	r3, r3, #2097152
 2019 007c 2363     		str	r3, [r4, #48]
 918:Drivers/BSP/STM32F4-Discovery/stm32f4_discovery_audio.c ****     
 2020              		.loc 1 918 3 is_stmt 1 view .LVU597
 2021 007e 236B     		ldr	r3, [r4, #48]
 2022 0080 03F40013 		and	r3, r3, #2097152
 2023 0084 0393     		str	r3, [sp, #12]
 918:Drivers/BSP/STM32F4-Discovery/stm32f4_discovery_audio.c ****     
 2024              		.loc 1 918 3 view .LVU598
ARM GAS  /var/folders/0z/tsy30v1j4xl4_7kw94k978ww0000gn/T//cclxGFm1.s 			page 58


 2025              	.LBE29:
 2026              		.loc 1 920 5 is_stmt 0 view .LVU599
 2027 0086 3368     		ldr	r3, [r6]
 2028              	.LBB30:
 918:Drivers/BSP/STM32F4-Discovery/stm32f4_discovery_audio.c ****     
 2029              		.loc 1 918 3 view .LVU600
 2030 0088 0399     		ldr	r1, [sp, #12]
 2031              	.LBE30:
 918:Drivers/BSP/STM32F4-Discovery/stm32f4_discovery_audio.c ****     
 2032              		.loc 1 918 3 is_stmt 1 view .LVU601
 2033              		.loc 1 920 3 view .LVU602
 2034              		.loc 1 920 5 is_stmt 0 view .LVU603
 2035 008a 9342     		cmp	r3, r2
 2036 008c 09D0     		beq	.L143
 2037              	.L141:
 921:Drivers/BSP/STM32F4-Discovery/stm32f4_discovery_audio.c ****   {
 922:Drivers/BSP/STM32F4-Discovery/stm32f4_discovery_audio.c ****     /* Configure the hdma_i2sRx handle parameters */   
 923:Drivers/BSP/STM32F4-Discovery/stm32f4_discovery_audio.c ****     hdma_i2sRx.Init.Channel             = I2S2_DMAx_CHANNEL;
 924:Drivers/BSP/STM32F4-Discovery/stm32f4_discovery_audio.c ****     hdma_i2sRx.Init.Direction           = DMA_PERIPH_TO_MEMORY;
 925:Drivers/BSP/STM32F4-Discovery/stm32f4_discovery_audio.c ****     hdma_i2sRx.Init.PeriphInc           = DMA_PINC_DISABLE;
 926:Drivers/BSP/STM32F4-Discovery/stm32f4_discovery_audio.c ****     hdma_i2sRx.Init.MemInc              = DMA_MINC_ENABLE;
 927:Drivers/BSP/STM32F4-Discovery/stm32f4_discovery_audio.c ****     hdma_i2sRx.Init.PeriphDataAlignment = I2S2_DMAx_PERIPH_DATA_SIZE;
 928:Drivers/BSP/STM32F4-Discovery/stm32f4_discovery_audio.c ****     hdma_i2sRx.Init.MemDataAlignment    = I2S2_DMAx_MEM_DATA_SIZE;
 929:Drivers/BSP/STM32F4-Discovery/stm32f4_discovery_audio.c ****     hdma_i2sRx.Init.Mode                = DMA_CIRCULAR;
 930:Drivers/BSP/STM32F4-Discovery/stm32f4_discovery_audio.c ****     hdma_i2sRx.Init.Priority            = DMA_PRIORITY_HIGH;
 931:Drivers/BSP/STM32F4-Discovery/stm32f4_discovery_audio.c ****     hdma_i2sRx.Init.FIFOMode            = DMA_FIFOMODE_DISABLE;         
 932:Drivers/BSP/STM32F4-Discovery/stm32f4_discovery_audio.c ****     hdma_i2sRx.Init.FIFOThreshold       = DMA_FIFO_THRESHOLD_FULL;
 933:Drivers/BSP/STM32F4-Discovery/stm32f4_discovery_audio.c ****     hdma_i2sRx.Init.MemBurst            = DMA_MBURST_SINGLE;
 934:Drivers/BSP/STM32F4-Discovery/stm32f4_discovery_audio.c ****     hdma_i2sRx.Init.PeriphBurst         = DMA_MBURST_SINGLE; 
 935:Drivers/BSP/STM32F4-Discovery/stm32f4_discovery_audio.c ****     
 936:Drivers/BSP/STM32F4-Discovery/stm32f4_discovery_audio.c ****     hdma_i2sRx.Instance = I2S2_DMAx_STREAM;
 937:Drivers/BSP/STM32F4-Discovery/stm32f4_discovery_audio.c ****     
 938:Drivers/BSP/STM32F4-Discovery/stm32f4_discovery_audio.c ****     /* Associate the DMA handle */
 939:Drivers/BSP/STM32F4-Discovery/stm32f4_discovery_audio.c ****     __HAL_LINKDMA(hi2s, hdmarx, hdma_i2sRx);
 940:Drivers/BSP/STM32F4-Discovery/stm32f4_discovery_audio.c ****     
 941:Drivers/BSP/STM32F4-Discovery/stm32f4_discovery_audio.c ****     /* Deinitialize the Stream for new transfer */
 942:Drivers/BSP/STM32F4-Discovery/stm32f4_discovery_audio.c ****     HAL_DMA_DeInit(&hdma_i2sRx);
 943:Drivers/BSP/STM32F4-Discovery/stm32f4_discovery_audio.c ****     
 944:Drivers/BSP/STM32F4-Discovery/stm32f4_discovery_audio.c ****     /* Configure the DMA Stream */
 945:Drivers/BSP/STM32F4-Discovery/stm32f4_discovery_audio.c ****     HAL_DMA_Init(&hdma_i2sRx);      
 946:Drivers/BSP/STM32F4-Discovery/stm32f4_discovery_audio.c ****   }
 947:Drivers/BSP/STM32F4-Discovery/stm32f4_discovery_audio.c ****   
 948:Drivers/BSP/STM32F4-Discovery/stm32f4_discovery_audio.c ****   /* I2S DMA IRQ Channel configuration */
 949:Drivers/BSP/STM32F4-Discovery/stm32f4_discovery_audio.c ****   HAL_NVIC_SetPriority(I2S2_DMAx_IRQ, AUDIO_IN_IRQ_PREPRIO, 0);
 2038              		.loc 1 949 3 is_stmt 1 view .LVU604
 2039 008e 0022     		movs	r2, #0
 2040 0090 0F21     		movs	r1, #15
 2041 0092 0E20     		movs	r0, #14
 2042 0094 FFF7FEFF 		bl	HAL_NVIC_SetPriority
 2043              	.LVL143:
 950:Drivers/BSP/STM32F4-Discovery/stm32f4_discovery_audio.c ****   HAL_NVIC_EnableIRQ(I2S2_DMAx_IRQ); 
 2044              		.loc 1 950 3 view .LVU605
 2045 0098 0E20     		movs	r0, #14
 2046 009a FFF7FEFF 		bl	HAL_NVIC_EnableIRQ
 2047              	.LVL144:
 951:Drivers/BSP/STM32F4-Discovery/stm32f4_discovery_audio.c **** }
 2048              		.loc 1 951 1 is_stmt 0 view .LVU606
ARM GAS  /var/folders/0z/tsy30v1j4xl4_7kw94k978ww0000gn/T//cclxGFm1.s 			page 59


 2049 009e 0BB0     		add	sp, sp, #44
 2050              		.cfi_remember_state
 2051              		.cfi_def_cfa_offset 20
 2052              		@ sp needed
 2053 00a0 F0BD     		pop	{r4, r5, r6, r7, pc}
 2054              	.LVL145:
 2055              	.L143:
 2056              		.cfi_restore_state
 923:Drivers/BSP/STM32F4-Discovery/stm32f4_discovery_audio.c ****     hdma_i2sRx.Init.Direction           = DMA_PERIPH_TO_MEMORY;
 2057              		.loc 1 923 5 is_stmt 1 view .LVU607
 923:Drivers/BSP/STM32F4-Discovery/stm32f4_discovery_audio.c ****     hdma_i2sRx.Init.Direction           = DMA_PERIPH_TO_MEMORY;
 2058              		.loc 1 923 41 is_stmt 0 view .LVU608
 2059 00a2 154C     		ldr	r4, .L144+16
 936:Drivers/BSP/STM32F4-Discovery/stm32f4_discovery_audio.c ****     
 2060              		.loc 1 936 25 view .LVU609
 2061 00a4 154B     		ldr	r3, .L144+20
 939:Drivers/BSP/STM32F4-Discovery/stm32f4_discovery_audio.c ****     
 2062              		.loc 1 939 5 view .LVU610
 2063 00a6 F463     		str	r4, [r6, #60]
 926:Drivers/BSP/STM32F4-Discovery/stm32f4_discovery_audio.c ****     hdma_i2sRx.Init.PeriphDataAlignment = I2S2_DMAx_PERIPH_DATA_SIZE;
 2064              		.loc 1 926 41 view .LVU611
 2065 00a8 4FF48062 		mov	r2, #1024
 2066 00ac C4E90352 		strd	r5, r2, [r4, #12]
 928:Drivers/BSP/STM32F4-Discovery/stm32f4_discovery_audio.c ****     hdma_i2sRx.Init.Mode                = DMA_CIRCULAR;
 2067              		.loc 1 928 41 view .LVU612
 2068 00b0 4FF40061 		mov	r1, #2048
 2069 00b4 4FF40052 		mov	r2, #8192
 2070 00b8 C4E90512 		strd	r1, r2, [r4, #20]
 930:Drivers/BSP/STM32F4-Discovery/stm32f4_discovery_audio.c ****     hdma_i2sRx.Init.FIFOMode            = DMA_FIFOMODE_DISABLE;         
 2071              		.loc 1 930 41 view .LVU613
 2072 00bc 4FF48070 		mov	r0, #256
 2073 00c0 4FF40032 		mov	r2, #131072
 2074 00c4 C4E90702 		strd	r0, r2, [r4, #28]
 932:Drivers/BSP/STM32F4-Discovery/stm32f4_discovery_audio.c ****     hdma_i2sRx.Init.MemBurst            = DMA_MBURST_SINGLE;
 2075              		.loc 1 932 41 view .LVU614
 2076 00c8 0322     		movs	r2, #3
 942:Drivers/BSP/STM32F4-Discovery/stm32f4_discovery_audio.c ****     
 2077              		.loc 1 942 5 view .LVU615
 2078 00ca 2046     		mov	r0, r4
 924:Drivers/BSP/STM32F4-Discovery/stm32f4_discovery_audio.c ****     hdma_i2sRx.Init.PeriphInc           = DMA_PINC_DISABLE;
 2079              		.loc 1 924 41 view .LVU616
 2080 00cc C4E90155 		strd	r5, r5, [r4, #4]
 925:Drivers/BSP/STM32F4-Discovery/stm32f4_discovery_audio.c ****     hdma_i2sRx.Init.MemInc              = DMA_MINC_ENABLE;
 2081              		.loc 1 925 5 is_stmt 1 view .LVU617
 927:Drivers/BSP/STM32F4-Discovery/stm32f4_discovery_audio.c ****     hdma_i2sRx.Init.MemDataAlignment    = I2S2_DMAx_MEM_DATA_SIZE;
 2082              		.loc 1 927 5 view .LVU618
 929:Drivers/BSP/STM32F4-Discovery/stm32f4_discovery_audio.c ****     hdma_i2sRx.Init.Priority            = DMA_PRIORITY_HIGH;
 2083              		.loc 1 929 5 view .LVU619
 931:Drivers/BSP/STM32F4-Discovery/stm32f4_discovery_audio.c ****     hdma_i2sRx.Init.FIFOThreshold       = DMA_FIFO_THRESHOLD_FULL;
 2084              		.loc 1 931 5 view .LVU620
 932:Drivers/BSP/STM32F4-Discovery/stm32f4_discovery_audio.c ****     hdma_i2sRx.Init.MemBurst            = DMA_MBURST_SINGLE;
 2085              		.loc 1 932 41 is_stmt 0 view .LVU621
 2086 00d0 C4E90952 		strd	r5, r2, [r4, #36]
 933:Drivers/BSP/STM32F4-Discovery/stm32f4_discovery_audio.c ****     hdma_i2sRx.Init.PeriphBurst         = DMA_MBURST_SINGLE; 
 2087              		.loc 1 933 5 is_stmt 1 view .LVU622
 934:Drivers/BSP/STM32F4-Discovery/stm32f4_discovery_audio.c ****     
 2088              		.loc 1 934 41 is_stmt 0 view .LVU623
ARM GAS  /var/folders/0z/tsy30v1j4xl4_7kw94k978ww0000gn/T//cclxGFm1.s 			page 60


 2089 00d4 C4E90B55 		strd	r5, r5, [r4, #44]
 936:Drivers/BSP/STM32F4-Discovery/stm32f4_discovery_audio.c ****     
 2090              		.loc 1 936 5 is_stmt 1 view .LVU624
 936:Drivers/BSP/STM32F4-Discovery/stm32f4_discovery_audio.c ****     
 2091              		.loc 1 936 25 is_stmt 0 view .LVU625
 2092 00d8 2360     		str	r3, [r4]
 939:Drivers/BSP/STM32F4-Discovery/stm32f4_discovery_audio.c ****     
 2093              		.loc 1 939 5 is_stmt 1 view .LVU626
 939:Drivers/BSP/STM32F4-Discovery/stm32f4_discovery_audio.c ****     
 2094              		.loc 1 939 5 view .LVU627
 939:Drivers/BSP/STM32F4-Discovery/stm32f4_discovery_audio.c ****     
 2095              		.loc 1 939 5 view .LVU628
 2096 00da A663     		str	r6, [r4, #56]
 939:Drivers/BSP/STM32F4-Discovery/stm32f4_discovery_audio.c ****     
 2097              		.loc 1 939 5 view .LVU629
 942:Drivers/BSP/STM32F4-Discovery/stm32f4_discovery_audio.c ****     
 2098              		.loc 1 942 5 view .LVU630
 2099 00dc FFF7FEFF 		bl	HAL_DMA_DeInit
 2100              	.LVL146:
 945:Drivers/BSP/STM32F4-Discovery/stm32f4_discovery_audio.c ****   }
 2101              		.loc 1 945 5 view .LVU631
 2102 00e0 2046     		mov	r0, r4
 2103 00e2 FFF7FEFF 		bl	HAL_DMA_Init
 2104              	.LVL147:
 2105 00e6 D2E7     		b	.L141
 2106              	.L145:
 2107              		.align	2
 2108              	.L144:
 2109 00e8 00380240 		.word	1073887232
 2110 00ec 00040240 		.word	1073873920
 2111 00f0 00080240 		.word	1073874944
 2112 00f4 00380040 		.word	1073756160
 2113 00f8 00000000 		.word	.LANCHOR8
 2114 00fc 58600240 		.word	1073897560
 2115              		.cfi_endproc
 2116              	.LFE159:
 2118              		.section	.text.BSP_AUDIO_IN_Init,"ax",%progbits
 2119              		.align	1
 2120              		.p2align 2,,3
 2121              		.global	BSP_AUDIO_IN_Init
 2122              		.syntax unified
 2123              		.thumb
 2124              		.thumb_func
 2126              	BSP_AUDIO_IN_Init:
 2127              	.LVL148:
 2128              	.LFB149:
 695:Drivers/BSP/STM32F4-Discovery/stm32f4_discovery_audio.c ****   
 2129              		.loc 1 695 1 view -0
 2130              		.cfi_startproc
 2131              		@ args = 0, pretend = 0, frame = 8
 2132              		@ frame_needed = 0, uses_anonymous_args = 0
 698:Drivers/BSP/STM32F4-Discovery/stm32f4_discovery_audio.c ****   
 2133              		.loc 1 698 3 view .LVU633
 695:Drivers/BSP/STM32F4-Discovery/stm32f4_discovery_audio.c ****   
 2134              		.loc 1 695 1 is_stmt 0 view .LVU634
 2135 0000 2DE9F04F 		push	{r4, r5, r6, r7, r8, r9, r10, fp, lr}
 2136              		.cfi_def_cfa_offset 36
ARM GAS  /var/folders/0z/tsy30v1j4xl4_7kw94k978ww0000gn/T//cclxGFm1.s 			page 61


 2137              		.cfi_offset 4, -36
 2138              		.cfi_offset 5, -32
 2139              		.cfi_offset 6, -28
 2140              		.cfi_offset 7, -24
 2141              		.cfi_offset 8, -20
 2142              		.cfi_offset 9, -16
 2143              		.cfi_offset 10, -12
 2144              		.cfi_offset 11, -8
 2145              		.cfi_offset 14, -4
 2146 0004 0546     		mov	r5, r0
 2147 0006 83B0     		sub	sp, sp, #12
 2148              		.cfi_def_cfa_offset 48
 698:Drivers/BSP/STM32F4-Discovery/stm32f4_discovery_audio.c ****   
 2149              		.loc 1 698 3 view .LVU635
 2150 0008 2946     		mov	r1, r5
 2151              	.LVL149:
 698:Drivers/BSP/STM32F4-Discovery/stm32f4_discovery_audio.c ****   
 2152              		.loc 1 698 3 view .LVU636
 2153 000a 3148     		ldr	r0, .L155
 2154              	.LVL150:
 695:Drivers/BSP/STM32F4-Discovery/stm32f4_discovery_audio.c ****   
 2155              		.loc 1 695 1 view .LVU637
 2156 000c 1646     		mov	r6, r2
 698:Drivers/BSP/STM32F4-Discovery/stm32f4_discovery_audio.c ****   
 2157              		.loc 1 698 3 view .LVU638
 2158 000e 0022     		movs	r2, #0
 2159              	.LVL151:
 698:Drivers/BSP/STM32F4-Discovery/stm32f4_discovery_audio.c ****   
 2160              		.loc 1 698 3 view .LVU639
 2161 0010 FFF7FEFF 		bl	BSP_AUDIO_IN_ClockConfig
 2162              	.LVL152:
 703:Drivers/BSP/STM32F4-Discovery/stm32f4_discovery_audio.c **** 
 2163              		.loc 1 703 3 is_stmt 1 view .LVU640
 2164              	.LBB37:
 2165              	.LBI37:
 952:Drivers/BSP/STM32F4-Discovery/stm32f4_discovery_audio.c **** 
 953:Drivers/BSP/STM32F4-Discovery/stm32f4_discovery_audio.c **** /**
 954:Drivers/BSP/STM32F4-Discovery/stm32f4_discovery_audio.c ****   * @brief  DeInitializes BSP_AUDIO_IN MSP.
 955:Drivers/BSP/STM32F4-Discovery/stm32f4_discovery_audio.c ****   * @param  hi2s: I2S handle
 956:Drivers/BSP/STM32F4-Discovery/stm32f4_discovery_audio.c ****   * @param  Params : pointer on additional configuration parameters, can be NULL.
 957:Drivers/BSP/STM32F4-Discovery/stm32f4_discovery_audio.c ****   */
 958:Drivers/BSP/STM32F4-Discovery/stm32f4_discovery_audio.c **** __weak void BSP_AUDIO_IN_MspDeInit(I2S_HandleTypeDef *hi2s, void *Params)
 959:Drivers/BSP/STM32F4-Discovery/stm32f4_discovery_audio.c **** {
 960:Drivers/BSP/STM32F4-Discovery/stm32f4_discovery_audio.c ****   GPIO_InitTypeDef  gpio_init_structure;
 961:Drivers/BSP/STM32F4-Discovery/stm32f4_discovery_audio.c **** 
 962:Drivers/BSP/STM32F4-Discovery/stm32f4_discovery_audio.c ****   /* I2S DMA IRQ Channel deactivation */
 963:Drivers/BSP/STM32F4-Discovery/stm32f4_discovery_audio.c ****   HAL_NVIC_DisableIRQ(I2S2_DMAx_IRQ); 
 964:Drivers/BSP/STM32F4-Discovery/stm32f4_discovery_audio.c ****   
 965:Drivers/BSP/STM32F4-Discovery/stm32f4_discovery_audio.c ****   if(hi2s->Instance == I2S2)
 966:Drivers/BSP/STM32F4-Discovery/stm32f4_discovery_audio.c ****   {
 967:Drivers/BSP/STM32F4-Discovery/stm32f4_discovery_audio.c ****     /* Deinitialize the Stream for new transfer */
 968:Drivers/BSP/STM32F4-Discovery/stm32f4_discovery_audio.c ****     HAL_DMA_DeInit(hi2s->hdmarx);
 969:Drivers/BSP/STM32F4-Discovery/stm32f4_discovery_audio.c ****   }
 970:Drivers/BSP/STM32F4-Discovery/stm32f4_discovery_audio.c **** 
 971:Drivers/BSP/STM32F4-Discovery/stm32f4_discovery_audio.c ****  /* Disable I2S block */
 972:Drivers/BSP/STM32F4-Discovery/stm32f4_discovery_audio.c ****   __HAL_I2S_DISABLE(hi2s);
 973:Drivers/BSP/STM32F4-Discovery/stm32f4_discovery_audio.c **** 
ARM GAS  /var/folders/0z/tsy30v1j4xl4_7kw94k978ww0000gn/T//cclxGFm1.s 			page 62


 974:Drivers/BSP/STM32F4-Discovery/stm32f4_discovery_audio.c ****   /* Disable pins: SCK and SD pins */
 975:Drivers/BSP/STM32F4-Discovery/stm32f4_discovery_audio.c ****   gpio_init_structure.Pin = I2S2_SCK_PIN;
 976:Drivers/BSP/STM32F4-Discovery/stm32f4_discovery_audio.c ****   HAL_GPIO_DeInit(I2S2_SCK_GPIO_PORT, gpio_init_structure.Pin);
 977:Drivers/BSP/STM32F4-Discovery/stm32f4_discovery_audio.c ****   gpio_init_structure.Pin = I2S2_MOSI_PIN;
 978:Drivers/BSP/STM32F4-Discovery/stm32f4_discovery_audio.c ****   HAL_GPIO_DeInit(I2S2_MOSI_GPIO_PORT, gpio_init_structure.Pin); 
 979:Drivers/BSP/STM32F4-Discovery/stm32f4_discovery_audio.c **** 
 980:Drivers/BSP/STM32F4-Discovery/stm32f4_discovery_audio.c ****   /* Disable I2S clock */
 981:Drivers/BSP/STM32F4-Discovery/stm32f4_discovery_audio.c ****   I2S2_CLK_DISABLE();
 982:Drivers/BSP/STM32F4-Discovery/stm32f4_discovery_audio.c **** 
 983:Drivers/BSP/STM32F4-Discovery/stm32f4_discovery_audio.c ****   /* GPIO pins clock and DMA clock can be shut down in the applic 
 984:Drivers/BSP/STM32F4-Discovery/stm32f4_discovery_audio.c ****      by surcgarging this __weak function */ 
 985:Drivers/BSP/STM32F4-Discovery/stm32f4_discovery_audio.c **** }
 986:Drivers/BSP/STM32F4-Discovery/stm32f4_discovery_audio.c **** 
 987:Drivers/BSP/STM32F4-Discovery/stm32f4_discovery_audio.c **** /**
 988:Drivers/BSP/STM32F4-Discovery/stm32f4_discovery_audio.c ****   * @brief  User callback when record buffer is filled.
 989:Drivers/BSP/STM32F4-Discovery/stm32f4_discovery_audio.c ****   */
 990:Drivers/BSP/STM32F4-Discovery/stm32f4_discovery_audio.c **** __weak void BSP_AUDIO_IN_TransferComplete_CallBack(void)
 991:Drivers/BSP/STM32F4-Discovery/stm32f4_discovery_audio.c **** {
 992:Drivers/BSP/STM32F4-Discovery/stm32f4_discovery_audio.c ****   /* This function should be implemented by the user application.
 993:Drivers/BSP/STM32F4-Discovery/stm32f4_discovery_audio.c ****      It is called into this driver when the current buffer is filled
 994:Drivers/BSP/STM32F4-Discovery/stm32f4_discovery_audio.c ****      to prepare the next buffer pointer and its size. */
 995:Drivers/BSP/STM32F4-Discovery/stm32f4_discovery_audio.c **** }
 996:Drivers/BSP/STM32F4-Discovery/stm32f4_discovery_audio.c **** 
 997:Drivers/BSP/STM32F4-Discovery/stm32f4_discovery_audio.c **** /**
 998:Drivers/BSP/STM32F4-Discovery/stm32f4_discovery_audio.c ****   * @brief  Manages the DMA Half Transfer complete event.
 999:Drivers/BSP/STM32F4-Discovery/stm32f4_discovery_audio.c ****   */
1000:Drivers/BSP/STM32F4-Discovery/stm32f4_discovery_audio.c **** __weak void BSP_AUDIO_IN_HalfTransfer_CallBack(void)
1001:Drivers/BSP/STM32F4-Discovery/stm32f4_discovery_audio.c **** {
1002:Drivers/BSP/STM32F4-Discovery/stm32f4_discovery_audio.c ****   /* This function should be implemented by the user application.
1003:Drivers/BSP/STM32F4-Discovery/stm32f4_discovery_audio.c ****      It is called into this driver when the current buffer is filled
1004:Drivers/BSP/STM32F4-Discovery/stm32f4_discovery_audio.c ****      to prepare the next buffer pointer and its size. */
1005:Drivers/BSP/STM32F4-Discovery/stm32f4_discovery_audio.c **** }
1006:Drivers/BSP/STM32F4-Discovery/stm32f4_discovery_audio.c **** 
1007:Drivers/BSP/STM32F4-Discovery/stm32f4_discovery_audio.c **** /**
1008:Drivers/BSP/STM32F4-Discovery/stm32f4_discovery_audio.c ****   * @brief  Audio IN Error callback function.
1009:Drivers/BSP/STM32F4-Discovery/stm32f4_discovery_audio.c ****   */
1010:Drivers/BSP/STM32F4-Discovery/stm32f4_discovery_audio.c **** __weak void BSP_AUDIO_IN_Error_Callback(void)
1011:Drivers/BSP/STM32F4-Discovery/stm32f4_discovery_audio.c **** {   
1012:Drivers/BSP/STM32F4-Discovery/stm32f4_discovery_audio.c ****   /* This function is called when an Interrupt due to transfer error on or peripheral
1013:Drivers/BSP/STM32F4-Discovery/stm32f4_discovery_audio.c ****      error occurs. */
1014:Drivers/BSP/STM32F4-Discovery/stm32f4_discovery_audio.c **** }
1015:Drivers/BSP/STM32F4-Discovery/stm32f4_discovery_audio.c **** 
1016:Drivers/BSP/STM32F4-Discovery/stm32f4_discovery_audio.c **** /*******************************************************************************
1017:Drivers/BSP/STM32F4-Discovery/stm32f4_discovery_audio.c ****                             Static Functions
1018:Drivers/BSP/STM32F4-Discovery/stm32f4_discovery_audio.c **** *******************************************************************************/
1019:Drivers/BSP/STM32F4-Discovery/stm32f4_discovery_audio.c **** 
1020:Drivers/BSP/STM32F4-Discovery/stm32f4_discovery_audio.c **** /**
1021:Drivers/BSP/STM32F4-Discovery/stm32f4_discovery_audio.c ****   * @brief  Initializes the PDM library.
1022:Drivers/BSP/STM32F4-Discovery/stm32f4_discovery_audio.c ****   * @param  AudioFreq: Audio sampling frequency
1023:Drivers/BSP/STM32F4-Discovery/stm32f4_discovery_audio.c ****   * @param  ChnlNbrIn: Number of input audio channels in the PDM buffer
1024:Drivers/BSP/STM32F4-Discovery/stm32f4_discovery_audio.c ****   * @param  ChnlNbrOut: Number of desired output audio channels in the  resulting PCM buffer
1025:Drivers/BSP/STM32F4-Discovery/stm32f4_discovery_audio.c ****   *         Number of audio channels (1: mono; 2: stereo)
1026:Drivers/BSP/STM32F4-Discovery/stm32f4_discovery_audio.c ****   */
1027:Drivers/BSP/STM32F4-Discovery/stm32f4_discovery_audio.c **** static void PDMDecoder_Init(uint32_t AudioFreq, uint32_t ChnlNbrIn, uint32_t ChnlNbrOut)
 2166              		.loc 1 1027 13 view .LVU641
 2167              	.LBB38:
1028:Drivers/BSP/STM32F4-Discovery/stm32f4_discovery_audio.c **** {
ARM GAS  /var/folders/0z/tsy30v1j4xl4_7kw94k978ww0000gn/T//cclxGFm1.s 			page 63


1029:Drivers/BSP/STM32F4-Discovery/stm32f4_discovery_audio.c ****   uint32_t index = 0;
 2168              		.loc 1 1029 3 view .LVU642
1030:Drivers/BSP/STM32F4-Discovery/stm32f4_discovery_audio.c **** 
1031:Drivers/BSP/STM32F4-Discovery/stm32f4_discovery_audio.c ****   /* Enable CRC peripheral to unlock the PDM library */
1032:Drivers/BSP/STM32F4-Discovery/stm32f4_discovery_audio.c ****   __HAL_RCC_CRC_CLK_ENABLE();
 2169              		.loc 1 1032 3 view .LVU643
 2170              	.LBB39:
 2171              		.loc 1 1032 3 view .LVU644
 2172 0014 2F4A     		ldr	r2, .L155+4
 2173 0016 0023     		movs	r3, #0
 2174 0018 0193     		str	r3, [sp, #4]
 2175              		.loc 1 1032 3 view .LVU645
 2176 001a 116B     		ldr	r1, [r2, #48]
 2177 001c 41F48051 		orr	r1, r1, #4096
 2178 0020 1163     		str	r1, [r2, #48]
 2179              		.loc 1 1032 3 view .LVU646
 2180 0022 126B     		ldr	r2, [r2, #48]
 2181 0024 02F48052 		and	r2, r2, #4096
 2182 0028 0192     		str	r2, [sp, #4]
 2183              		.loc 1 1032 3 view .LVU647
 2184 002a 019A     		ldr	r2, [sp, #4]
 2185              	.LBE39:
 2186              		.loc 1 1032 3 view .LVU648
1033:Drivers/BSP/STM32F4-Discovery/stm32f4_discovery_audio.c **** 
1034:Drivers/BSP/STM32F4-Discovery/stm32f4_discovery_audio.c ****   for(index = 0; index < ChnlNbrIn; index++)
 2187              		.loc 1 1034 3 view .LVU649
 2188              		.loc 1 1034 24 view .LVU650
 2189 002c 56B3     		cbz	r6, .L151
1035:Drivers/BSP/STM32F4-Discovery/stm32f4_discovery_audio.c ****   {
1036:Drivers/BSP/STM32F4-Discovery/stm32f4_discovery_audio.c ****     /* Init PDM filters */
1037:Drivers/BSP/STM32F4-Discovery/stm32f4_discovery_audio.c ****     PDM_FilterHandler[index].bit_order  = PDM_FILTER_BIT_ORDER_LSB;
1038:Drivers/BSP/STM32F4-Discovery/stm32f4_discovery_audio.c ****     PDM_FilterHandler[index].endianness = PDM_FILTER_ENDIANNESS_LE;
1039:Drivers/BSP/STM32F4-Discovery/stm32f4_discovery_audio.c ****     PDM_FilterHandler[index].high_pass_tap = 2122358088;
1040:Drivers/BSP/STM32F4-Discovery/stm32f4_discovery_audio.c ****     PDM_FilterHandler[index].out_ptr_channels = ChnlNbrOut;
1041:Drivers/BSP/STM32F4-Discovery/stm32f4_discovery_audio.c ****     PDM_FilterHandler[index].in_ptr_channels  = ChnlNbrIn;
1042:Drivers/BSP/STM32F4-Discovery/stm32f4_discovery_audio.c ****     PDM_Filter_Init((PDM_Filter_Handler_t *)(&PDM_FilterHandler[index]));
1043:Drivers/BSP/STM32F4-Discovery/stm32f4_discovery_audio.c **** 
1044:Drivers/BSP/STM32F4-Discovery/stm32f4_discovery_audio.c ****     /* PDM lib config phase */
1045:Drivers/BSP/STM32F4-Discovery/stm32f4_discovery_audio.c ****     PDM_FilterConfig[index].output_samples_number = AudioFreq/1000;
 2190              		.loc 1 1045 62 is_stmt 0 view .LVU651
 2191 002e 2A4F     		ldr	r7, .L155+8
 2192 0030 2A4C     		ldr	r4, .L155+12
 2193 0032 DFF8B490 		ldr	r9, .L155+24
 2194 0036 A7FB0527 		umull	r2, r7, r7, r5
1034:Drivers/BSP/STM32F4-Discovery/stm32f4_discovery_audio.c ****   {
 2195              		.loc 1 1034 13 view .LVU652
 2196 003a 9A46     		mov	r10, r3
 2197              		.loc 1 1045 51 view .LVU653
 2198 003c C7F38F17 		ubfx	r7, r7, #6, #16
1041:Drivers/BSP/STM32F4-Discovery/stm32f4_discovery_audio.c ****     PDM_Filter_Init((PDM_Filter_Handler_t *)(&PDM_FilterHandler[index]));
 2199              		.loc 1 1041 47 view .LVU654
 2200 0040 1FFA86FB 		uxth	fp, r6
1040:Drivers/BSP/STM32F4-Discovery/stm32f4_discovery_audio.c ****     PDM_FilterHandler[index].in_ptr_channels  = ChnlNbrIn;
 2201              		.loc 1 1040 47 view .LVU655
 2202 0044 4FF00208 		mov	r8, #2
 2203              	.LVL153:
 2204              	.L150:
ARM GAS  /var/folders/0z/tsy30v1j4xl4_7kw94k978ww0000gn/T//cclxGFm1.s 			page 64


1037:Drivers/BSP/STM32F4-Discovery/stm32f4_discovery_audio.c ****     PDM_FilterHandler[index].endianness = PDM_FILTER_ENDIANNESS_LE;
 2205              		.loc 1 1037 5 is_stmt 1 view .LVU656
1038:Drivers/BSP/STM32F4-Discovery/stm32f4_discovery_audio.c ****     PDM_FilterHandler[index].high_pass_tap = 2122358088;
 2206              		.loc 1 1038 5 view .LVU657
1039:Drivers/BSP/STM32F4-Discovery/stm32f4_discovery_audio.c ****     PDM_FilterHandler[index].out_ptr_channels = ChnlNbrOut;
 2207              		.loc 1 1039 44 is_stmt 0 view .LVU658
 2208 0048 254B     		ldr	r3, .L155+16
1040:Drivers/BSP/STM32F4-Discovery/stm32f4_discovery_audio.c ****     PDM_FilterHandler[index].in_ptr_channels  = ChnlNbrIn;
 2209              		.loc 1 1040 47 view .LVU659
 2210 004a A4F80A80 		strh	r8, [r4, #10]	@ movhi
1039:Drivers/BSP/STM32F4-Discovery/stm32f4_discovery_audio.c ****     PDM_FilterHandler[index].out_ptr_channels = ChnlNbrOut;
 2211              		.loc 1 1039 44 view .LVU660
 2212 004e 0022     		movs	r2, #0
 2213 0050 C4E90023 		strd	r2, r3, [r4]
1040:Drivers/BSP/STM32F4-Discovery/stm32f4_discovery_audio.c ****     PDM_FilterHandler[index].in_ptr_channels  = ChnlNbrIn;
 2214              		.loc 1 1040 5 is_stmt 1 view .LVU661
1041:Drivers/BSP/STM32F4-Discovery/stm32f4_discovery_audio.c ****     PDM_Filter_Init((PDM_Filter_Handler_t *)(&PDM_FilterHandler[index]));
 2215              		.loc 1 1041 5 view .LVU662
1041:Drivers/BSP/STM32F4-Discovery/stm32f4_discovery_audio.c ****     PDM_Filter_Init((PDM_Filter_Handler_t *)(&PDM_FilterHandler[index]));
 2216              		.loc 1 1041 47 is_stmt 0 view .LVU663
 2217 0054 A4F808B0 		strh	fp, [r4, #8]	@ movhi
1042:Drivers/BSP/STM32F4-Discovery/stm32f4_discovery_audio.c **** 
 2218              		.loc 1 1042 5 is_stmt 1 view .LVU664
 2219 0058 2046     		mov	r0, r4
 2220 005a FFF7FEFF 		bl	PDM_Filter_Init
 2221              	.LVL154:
 2222              		.loc 1 1045 5 view .LVU665
1034:Drivers/BSP/STM32F4-Discovery/stm32f4_discovery_audio.c ****   {
 2223              		.loc 1 1034 42 is_stmt 0 view .LVU666
 2224 005e 0AF1010A 		add	r10, r10, #1
 2225              	.LVL155:
1046:Drivers/BSP/STM32F4-Discovery/stm32f4_discovery_audio.c ****     PDM_FilterConfig[index].mic_gain = 24;
1047:Drivers/BSP/STM32F4-Discovery/stm32f4_discovery_audio.c ****     PDM_FilterConfig[index].decimation_factor = PDM_FILTER_DEC_FACTOR_64;
1048:Drivers/BSP/STM32F4-Discovery/stm32f4_discovery_audio.c ****     PDM_Filter_setConfig((PDM_Filter_Handler_t *)&PDM_FilterHandler[index], &PDM_FilterConfig[index
 2226              		.loc 1 1048 5 view .LVU667
 2227 0062 4946     		mov	r1, r9
 2228 0064 2046     		mov	r0, r4
1046:Drivers/BSP/STM32F4-Discovery/stm32f4_discovery_audio.c ****     PDM_FilterConfig[index].mic_gain = 24;
 2229              		.loc 1 1046 38 view .LVU668
 2230 0066 1822     		movs	r2, #24
1045:Drivers/BSP/STM32F4-Discovery/stm32f4_discovery_audio.c ****     PDM_FilterConfig[index].mic_gain = 24;
 2231              		.loc 1 1045 51 view .LVU669
 2232 0068 A9F80270 		strh	r7, [r9, #2]	@ movhi
1046:Drivers/BSP/STM32F4-Discovery/stm32f4_discovery_audio.c ****     PDM_FilterConfig[index].mic_gain = 24;
 2233              		.loc 1 1046 5 is_stmt 1 view .LVU670
1047:Drivers/BSP/STM32F4-Discovery/stm32f4_discovery_audio.c ****     PDM_Filter_setConfig((PDM_Filter_Handler_t *)&PDM_FilterHandler[index], &PDM_FilterConfig[index
 2234              		.loc 1 1047 47 is_stmt 0 view .LVU671
 2235 006c A9F80080 		strh	r8, [r9]	@ movhi
1046:Drivers/BSP/STM32F4-Discovery/stm32f4_discovery_audio.c ****     PDM_FilterConfig[index].mic_gain = 24;
 2236              		.loc 1 1046 38 view .LVU672
 2237 0070 A9F80420 		strh	r2, [r9, #4]	@ movhi
1047:Drivers/BSP/STM32F4-Discovery/stm32f4_discovery_audio.c ****     PDM_Filter_setConfig((PDM_Filter_Handler_t *)&PDM_FilterHandler[index], &PDM_FilterConfig[index
 2238              		.loc 1 1047 5 is_stmt 1 view .LVU673
 2239              		.loc 1 1048 5 view .LVU674
 2240 0074 FFF7FEFF 		bl	PDM_Filter_setConfig
 2241              	.LVL156:
1034:Drivers/BSP/STM32F4-Discovery/stm32f4_discovery_audio.c ****   {
ARM GAS  /var/folders/0z/tsy30v1j4xl4_7kw94k978ww0000gn/T//cclxGFm1.s 			page 65


 2242              		.loc 1 1034 42 view .LVU675
1034:Drivers/BSP/STM32F4-Discovery/stm32f4_discovery_audio.c ****   {
 2243              		.loc 1 1034 24 view .LVU676
 2244 0078 5645     		cmp	r6, r10
 2245 007a 04F14C04 		add	r4, r4, #76
 2246 007e 09F10609 		add	r9, r9, #6
 2247 0082 E1D1     		bne	.L150
 2248              	.LVL157:
 2249              	.L151:
1034:Drivers/BSP/STM32F4-Discovery/stm32f4_discovery_audio.c ****   {
 2250              		.loc 1 1034 24 is_stmt 0 view .LVU677
 2251              	.LBE38:
 2252              	.LBE37:
 706:Drivers/BSP/STM32F4-Discovery/stm32f4_discovery_audio.c ****   if(HAL_I2S_GetState(&hAudioInI2s) == HAL_I2S_STATE_RESET)
 2253              		.loc 1 706 3 is_stmt 1 view .LVU678
 706:Drivers/BSP/STM32F4-Discovery/stm32f4_discovery_audio.c ****   if(HAL_I2S_GetState(&hAudioInI2s) == HAL_I2S_STATE_RESET)
 2254              		.loc 1 706 24 is_stmt 0 view .LVU679
 2255 0084 124C     		ldr	r4, .L155
 2256 0086 174B     		ldr	r3, .L155+20
 2257 0088 2360     		str	r3, [r4]
 707:Drivers/BSP/STM32F4-Discovery/stm32f4_discovery_audio.c ****   { 
 2258              		.loc 1 707 3 is_stmt 1 view .LVU680
 707:Drivers/BSP/STM32F4-Discovery/stm32f4_discovery_audio.c ****   { 
 2259              		.loc 1 707 6 is_stmt 0 view .LVU681
 2260 008a 2046     		mov	r0, r4
 2261 008c FFF7FEFF 		bl	HAL_I2S_GetState
 2262              	.LVL158:
 707:Drivers/BSP/STM32F4-Discovery/stm32f4_discovery_audio.c ****   { 
 2263              		.loc 1 707 5 view .LVU682
 2264 0090 C8B1     		cbz	r0, .L154
 2265              	.L149:
 714:Drivers/BSP/STM32F4-Discovery/stm32f4_discovery_audio.c ****   
 2266              		.loc 1 714 3 is_stmt 1 view .LVU683
 2267              	.LVL159:
 2268              	.LBB40:
 2269              	.LBI40:
1049:Drivers/BSP/STM32F4-Discovery/stm32f4_discovery_audio.c ****   }
1050:Drivers/BSP/STM32F4-Discovery/stm32f4_discovery_audio.c **** }
1051:Drivers/BSP/STM32F4-Discovery/stm32f4_discovery_audio.c **** 
1052:Drivers/BSP/STM32F4-Discovery/stm32f4_discovery_audio.c **** /**
1053:Drivers/BSP/STM32F4-Discovery/stm32f4_discovery_audio.c ****   * @brief  Initializes the Audio Codec audio interface (I2S)
1054:Drivers/BSP/STM32F4-Discovery/stm32f4_discovery_audio.c ****   * @note   This function assumes that the I2S input clock (through PLL_R in 
1055:Drivers/BSP/STM32F4-Discovery/stm32f4_discovery_audio.c ****   *         Devices RevA/Z and through dedicated PLLI2S_R in Devices RevB/Y)
1056:Drivers/BSP/STM32F4-Discovery/stm32f4_discovery_audio.c ****   *         is already configured and ready to be used.    
1057:Drivers/BSP/STM32F4-Discovery/stm32f4_discovery_audio.c ****   * @param  AudioFreq: Audio frequency to be configured for the I2S peripheral. 
1058:Drivers/BSP/STM32F4-Discovery/stm32f4_discovery_audio.c ****   */
1059:Drivers/BSP/STM32F4-Discovery/stm32f4_discovery_audio.c **** static uint8_t I2S2_Init(uint32_t AudioFreq)
 2270              		.loc 1 1059 16 view .LVU684
 2271              	.LBB41:
1060:Drivers/BSP/STM32F4-Discovery/stm32f4_discovery_audio.c **** {
1061:Drivers/BSP/STM32F4-Discovery/stm32f4_discovery_audio.c ****   /* Initialize the hAudioInI2s Instance parameter */
1062:Drivers/BSP/STM32F4-Discovery/stm32f4_discovery_audio.c ****   hAudioInI2s.Instance          = I2S2;
 2272              		.loc 1 1062 3 view .LVU685
 2273              		.loc 1 1062 33 is_stmt 0 view .LVU686
 2274 0092 144B     		ldr	r3, .L155+20
 2275 0094 2360     		str	r3, [r4]
1063:Drivers/BSP/STM32F4-Discovery/stm32f4_discovery_audio.c ****   
ARM GAS  /var/folders/0z/tsy30v1j4xl4_7kw94k978ww0000gn/T//cclxGFm1.s 			page 66


1064:Drivers/BSP/STM32F4-Discovery/stm32f4_discovery_audio.c ****   /* Disable I2S block */
1065:Drivers/BSP/STM32F4-Discovery/stm32f4_discovery_audio.c ****   __HAL_I2S_DISABLE(&hAudioInI2s);
 2276              		.loc 1 1065 3 is_stmt 1 view .LVU687
 2277 0096 DA69     		ldr	r2, [r3, #28]
1066:Drivers/BSP/STM32F4-Discovery/stm32f4_discovery_audio.c ****   
1067:Drivers/BSP/STM32F4-Discovery/stm32f4_discovery_audio.c ****   /* I2S2 peripheral configuration */
1068:Drivers/BSP/STM32F4-Discovery/stm32f4_discovery_audio.c ****   hAudioInI2s.Init.AudioFreq    = 2 * AudioFreq;
1069:Drivers/BSP/STM32F4-Discovery/stm32f4_discovery_audio.c ****   hAudioInI2s.Init.ClockSource  = I2S_CLOCK_PLL;
1070:Drivers/BSP/STM32F4-Discovery/stm32f4_discovery_audio.c ****   hAudioInI2s.Init.CPOL         = I2S_CPOL_HIGH;
1071:Drivers/BSP/STM32F4-Discovery/stm32f4_discovery_audio.c ****   hAudioInI2s.Init.DataFormat   = I2S_DATAFORMAT_16B;
1072:Drivers/BSP/STM32F4-Discovery/stm32f4_discovery_audio.c ****   hAudioInI2s.Init.MCLKOutput   = I2S_MCLKOUTPUT_DISABLE;
1073:Drivers/BSP/STM32F4-Discovery/stm32f4_discovery_audio.c ****   hAudioInI2s.Init.Mode         = I2S_MODE_MASTER_RX;
1074:Drivers/BSP/STM32F4-Discovery/stm32f4_discovery_audio.c ****   hAudioInI2s.Init.Standard     = I2S_STANDARD_LSB;
1075:Drivers/BSP/STM32F4-Discovery/stm32f4_discovery_audio.c **** 
1076:Drivers/BSP/STM32F4-Discovery/stm32f4_discovery_audio.c ****   /* Initialize the I2S peripheral with the structure above */  
1077:Drivers/BSP/STM32F4-Discovery/stm32f4_discovery_audio.c ****   if(HAL_I2S_Init(&hAudioInI2s) != HAL_OK)
 2278              		.loc 1 1077 6 is_stmt 0 view .LVU688
 2279 0098 0D48     		ldr	r0, .L155
1065:Drivers/BSP/STM32F4-Discovery/stm32f4_discovery_audio.c ****   
 2280              		.loc 1 1065 3 view .LVU689
 2281 009a 22F48062 		bic	r2, r2, #1024
 2282 009e DA61     		str	r2, [r3, #28]
1068:Drivers/BSP/STM32F4-Discovery/stm32f4_discovery_audio.c ****   hAudioInI2s.Init.ClockSource  = I2S_CLOCK_PLL;
 2283              		.loc 1 1068 3 is_stmt 1 view .LVU690
1073:Drivers/BSP/STM32F4-Discovery/stm32f4_discovery_audio.c ****   hAudioInI2s.Init.Standard     = I2S_STANDARD_LSB;
 2284              		.loc 1 1073 33 is_stmt 0 view .LVU691
 2285 00a0 4FF44073 		mov	r3, #768
1069:Drivers/BSP/STM32F4-Discovery/stm32f4_discovery_audio.c ****   hAudioInI2s.Init.CPOL         = I2S_CPOL_HIGH;
 2286              		.loc 1 1069 33 view .LVU692
 2287 00a4 0026     		movs	r6, #0
 2288              	.LVL160:
1070:Drivers/BSP/STM32F4-Discovery/stm32f4_discovery_audio.c ****   hAudioInI2s.Init.DataFormat   = I2S_DATAFORMAT_16B;
 2289              		.loc 1 1070 33 view .LVU693
 2290 00a6 0822     		movs	r2, #8
1073:Drivers/BSP/STM32F4-Discovery/stm32f4_discovery_audio.c ****   hAudioInI2s.Init.Standard     = I2S_STANDARD_LSB;
 2291              		.loc 1 1073 33 view .LVU694
 2292 00a8 6360     		str	r3, [r4, #4]
1068:Drivers/BSP/STM32F4-Discovery/stm32f4_discovery_audio.c ****   hAudioInI2s.Init.ClockSource  = I2S_CLOCK_PLL;
 2293              		.loc 1 1068 37 view .LVU695
 2294 00aa 6D00     		lsls	r5, r5, #1
 2295              	.LVL161:
1074:Drivers/BSP/STM32F4-Discovery/stm32f4_discovery_audio.c **** 
 2296              		.loc 1 1074 33 view .LVU696
 2297 00ac 2023     		movs	r3, #32
1070:Drivers/BSP/STM32F4-Discovery/stm32f4_discovery_audio.c ****   hAudioInI2s.Init.DataFormat   = I2S_DATAFORMAT_16B;
 2298              		.loc 1 1070 33 view .LVU697
 2299 00ae C4E90626 		strd	r2, r6, [r4, #24]
1072:Drivers/BSP/STM32F4-Discovery/stm32f4_discovery_audio.c ****   hAudioInI2s.Init.Mode         = I2S_MODE_MASTER_RX;
 2300              		.loc 1 1072 33 view .LVU698
 2301 00b2 C4E90366 		strd	r6, r6, [r4, #12]
1068:Drivers/BSP/STM32F4-Discovery/stm32f4_discovery_audio.c ****   hAudioInI2s.Init.ClockSource  = I2S_CLOCK_PLL;
 2302              		.loc 1 1068 33 view .LVU699
 2303 00b6 6561     		str	r5, [r4, #20]
1069:Drivers/BSP/STM32F4-Discovery/stm32f4_discovery_audio.c ****   hAudioInI2s.Init.CPOL         = I2S_CPOL_HIGH;
 2304              		.loc 1 1069 3 is_stmt 1 view .LVU700
1071:Drivers/BSP/STM32F4-Discovery/stm32f4_discovery_audio.c ****   hAudioInI2s.Init.MCLKOutput   = I2S_MCLKOUTPUT_DISABLE;
 2305              		.loc 1 1071 3 view .LVU701
ARM GAS  /var/folders/0z/tsy30v1j4xl4_7kw94k978ww0000gn/T//cclxGFm1.s 			page 67


1073:Drivers/BSP/STM32F4-Discovery/stm32f4_discovery_audio.c ****   hAudioInI2s.Init.Standard     = I2S_STANDARD_LSB;
 2306              		.loc 1 1073 3 view .LVU702
1074:Drivers/BSP/STM32F4-Discovery/stm32f4_discovery_audio.c **** 
 2307              		.loc 1 1074 3 view .LVU703
1074:Drivers/BSP/STM32F4-Discovery/stm32f4_discovery_audio.c **** 
 2308              		.loc 1 1074 33 is_stmt 0 view .LVU704
 2309 00b8 A360     		str	r3, [r4, #8]
 2310              		.loc 1 1077 3 is_stmt 1 view .LVU705
 2311              		.loc 1 1077 6 is_stmt 0 view .LVU706
 2312 00ba FFF7FEFF 		bl	HAL_I2S_Init
 2313              	.LVL162:
 2314              		.loc 1 1077 6 view .LVU707
 2315              	.LBE41:
 2316              	.LBE40:
 717:Drivers/BSP/STM32F4-Discovery/stm32f4_discovery_audio.c **** }
 2317              		.loc 1 717 3 is_stmt 1 view .LVU708
 718:Drivers/BSP/STM32F4-Discovery/stm32f4_discovery_audio.c **** 
 2318              		.loc 1 718 1 is_stmt 0 view .LVU709
 2319 00be 3046     		mov	r0, r6
 2320 00c0 03B0     		add	sp, sp, #12
 2321              		.cfi_remember_state
 2322              		.cfi_def_cfa_offset 36
 2323              		@ sp needed
 2324 00c2 BDE8F08F 		pop	{r4, r5, r6, r7, r8, r9, r10, fp, pc}
 2325              	.LVL163:
 2326              	.L154:
 2327              		.cfi_restore_state
 710:Drivers/BSP/STM32F4-Discovery/stm32f4_discovery_audio.c ****   }
 2328              		.loc 1 710 5 is_stmt 1 view .LVU710
 2329 00c6 0146     		mov	r1, r0
 2330 00c8 2046     		mov	r0, r4
 2331 00ca FFF7FEFF 		bl	BSP_AUDIO_IN_MspInit
 2332              	.LVL164:
 2333 00ce E0E7     		b	.L149
 2334              	.L156:
 2335              		.align	2
 2336              	.L155:
 2337 00d0 00000000 		.word	.LANCHOR5
 2338 00d4 00380240 		.word	1073887232
 2339 00d8 D34D6210 		.word	274877907
 2340 00dc 00000000 		.word	.LANCHOR7
 2341 00e0 489D807E 		.word	2122358088
 2342 00e4 00380040 		.word	1073756160
 2343 00e8 00000000 		.word	.LANCHOR9
 2344              		.cfi_endproc
 2345              	.LFE149:
 2347              		.section	.text.BSP_AUDIO_IN_MspDeInit,"ax",%progbits
 2348              		.align	1
 2349              		.p2align 2,,3
 2350              		.weak	BSP_AUDIO_IN_MspDeInit
 2351              		.syntax unified
 2352              		.thumb
 2353              		.thumb_func
 2355              	BSP_AUDIO_IN_MspDeInit:
 2356              	.LVL165:
 2357              	.LFB160:
 959:Drivers/BSP/STM32F4-Discovery/stm32f4_discovery_audio.c ****   GPIO_InitTypeDef  gpio_init_structure;
ARM GAS  /var/folders/0z/tsy30v1j4xl4_7kw94k978ww0000gn/T//cclxGFm1.s 			page 68


 2358              		.loc 1 959 1 view -0
 2359              		.cfi_startproc
 2360              		@ args = 0, pretend = 0, frame = 0
 2361              		@ frame_needed = 0, uses_anonymous_args = 0
 960:Drivers/BSP/STM32F4-Discovery/stm32f4_discovery_audio.c **** 
 2362              		.loc 1 960 3 view .LVU712
 963:Drivers/BSP/STM32F4-Discovery/stm32f4_discovery_audio.c ****   
 2363              		.loc 1 963 3 view .LVU713
 959:Drivers/BSP/STM32F4-Discovery/stm32f4_discovery_audio.c ****   GPIO_InitTypeDef  gpio_init_structure;
 2364              		.loc 1 959 1 is_stmt 0 view .LVU714
 2365 0000 10B5     		push	{r4, lr}
 2366              		.cfi_def_cfa_offset 8
 2367              		.cfi_offset 4, -8
 2368              		.cfi_offset 14, -4
 959:Drivers/BSP/STM32F4-Discovery/stm32f4_discovery_audio.c ****   GPIO_InitTypeDef  gpio_init_structure;
 2369              		.loc 1 959 1 view .LVU715
 2370 0002 0446     		mov	r4, r0
 963:Drivers/BSP/STM32F4-Discovery/stm32f4_discovery_audio.c ****   
 2371              		.loc 1 963 3 view .LVU716
 2372 0004 0E20     		movs	r0, #14
 2373              	.LVL166:
 963:Drivers/BSP/STM32F4-Discovery/stm32f4_discovery_audio.c ****   
 2374              		.loc 1 963 3 view .LVU717
 2375 0006 FFF7FEFF 		bl	HAL_NVIC_DisableIRQ
 2376              	.LVL167:
 965:Drivers/BSP/STM32F4-Discovery/stm32f4_discovery_audio.c ****   {
