ARM GAS  /var/folders/0z/tsy30v1j4xl4_7kw94k978ww0000gn/T//ccsgo8Ff.s 			page 1


   1              		.cpu cortex-m4
   2              		.arch armv7e-m
   3              		.fpu fpv4-sp-d16
   4              		.eabi_attribute 27, 1
   5              		.eabi_attribute 28, 1
   6              		.eabi_attribute 20, 1
   7              		.eabi_attribute 21, 1
   8              		.eabi_attribute 23, 3
   9              		.eabi_attribute 24, 1
  10              		.eabi_attribute 25, 1
  11              		.eabi_attribute 26, 1
  12              		.eabi_attribute 30, 2
  13              		.eabi_attribute 34, 1
  14              		.eabi_attribute 18, 4
  15              		.file	"stmpe1600.c"
  16              		.text
  17              	.Ltext0:
  18              		.cfi_sections	.debug_frame
  19              		.section	.text.stmpe1600_Start,"ax",%progbits
  20              		.align	1
  21              		.p2align 2,,3
  22              		.global	stmpe1600_Start
  23              		.syntax unified
  24              		.thumb
  25              		.thumb_func
  27              	stmpe1600_Start:
  28              	.LVL0:
  29              	.LFB1:
  30              		.file 1 "Drivers/BSP/Components/stmpe1600/stmpe1600.c"
   1:Drivers/BSP/Components/stmpe1600/stmpe1600.c **** /**
   2:Drivers/BSP/Components/stmpe1600/stmpe1600.c ****   ******************************************************************************
   3:Drivers/BSP/Components/stmpe1600/stmpe1600.c ****   * @file    stmpe1600.c
   4:Drivers/BSP/Components/stmpe1600/stmpe1600.c ****   * @author  MCD Application Team
   5:Drivers/BSP/Components/stmpe1600/stmpe1600.c ****   * @version V1.1.0
   6:Drivers/BSP/Components/stmpe1600/stmpe1600.c ****   * @date    10-February-2015
   7:Drivers/BSP/Components/stmpe1600/stmpe1600.c ****   * @brief   This file provides a set of functions needed to manage the STMPE1600
   8:Drivers/BSP/Components/stmpe1600/stmpe1600.c ****   *          IO Expander devices.
   9:Drivers/BSP/Components/stmpe1600/stmpe1600.c ****   ******************************************************************************
  10:Drivers/BSP/Components/stmpe1600/stmpe1600.c ****   * @attention
  11:Drivers/BSP/Components/stmpe1600/stmpe1600.c ****   *
  12:Drivers/BSP/Components/stmpe1600/stmpe1600.c ****   * <h2><center>&copy; COPYRIGHT(c) 2015 STMicroelectronics</center></h2>
  13:Drivers/BSP/Components/stmpe1600/stmpe1600.c ****   *
  14:Drivers/BSP/Components/stmpe1600/stmpe1600.c ****   * Redistribution and use in source and binary forms, with or without modification,
  15:Drivers/BSP/Components/stmpe1600/stmpe1600.c ****   * are permitted provided that the following conditions are met:
  16:Drivers/BSP/Components/stmpe1600/stmpe1600.c ****   *   1. Redistributions of source code must retain the above copyright notice,
  17:Drivers/BSP/Components/stmpe1600/stmpe1600.c ****   *      this list of conditions and the following disclaimer.
  18:Drivers/BSP/Components/stmpe1600/stmpe1600.c ****   *   2. Redistributions in binary form must reproduce the above copyright notice,
  19:Drivers/BSP/Components/stmpe1600/stmpe1600.c ****   *      this list of conditions and the following disclaimer in the documentation
  20:Drivers/BSP/Components/stmpe1600/stmpe1600.c ****   *      and/or other materials provided with the distribution.
  21:Drivers/BSP/Components/stmpe1600/stmpe1600.c ****   *   3. Neither the name of STMicroelectronics nor the names of its contributors
  22:Drivers/BSP/Components/stmpe1600/stmpe1600.c ****   *      may be used to endorse or promote products derived from this software
  23:Drivers/BSP/Components/stmpe1600/stmpe1600.c ****   *      without specific prior written permission.
  24:Drivers/BSP/Components/stmpe1600/stmpe1600.c ****   *
  25:Drivers/BSP/Components/stmpe1600/stmpe1600.c ****   * THIS SOFTWARE IS PROVIDED BY THE COPYRIGHT HOLDERS AND CONTRIBUTORS "AS IS"
  26:Drivers/BSP/Components/stmpe1600/stmpe1600.c ****   * AND ANY EXPRESS OR IMPLIED WARRANTIES, INCLUDING, BUT NOT LIMITED TO, THE
  27:Drivers/BSP/Components/stmpe1600/stmpe1600.c ****   * IMPLIED WARRANTIES OF MERCHANTABILITY AND FITNESS FOR A PARTICULAR PURPOSE ARE
  28:Drivers/BSP/Components/stmpe1600/stmpe1600.c ****   * DISCLAIMED. IN NO EVENT SHALL THE COPYRIGHT HOLDER OR CONTRIBUTORS BE LIABLE
ARM GAS  /var/folders/0z/tsy30v1j4xl4_7kw94k978ww0000gn/T//ccsgo8Ff.s 			page 2


  29:Drivers/BSP/Components/stmpe1600/stmpe1600.c ****   * FOR ANY DIRECT, INDIRECT, INCIDENTAL, SPECIAL, EXEMPLARY, OR CONSEQUENTIAL
  30:Drivers/BSP/Components/stmpe1600/stmpe1600.c ****   * DAMAGES (INCLUDING, BUT NOT LIMITED TO, PROCUREMENT OF SUBSTITUTE GOODS OR
  31:Drivers/BSP/Components/stmpe1600/stmpe1600.c ****   * SERVICES; LOSS OF USE, DATA, OR PROFITS; OR BUSINESS INTERRUPTION) HOWEVER
  32:Drivers/BSP/Components/stmpe1600/stmpe1600.c ****   * CAUSED AND ON ANY THEORY OF LIABILITY, WHETHER IN CONTRACT, STRICT LIABILITY,
  33:Drivers/BSP/Components/stmpe1600/stmpe1600.c ****   * OR TORT (INCLUDING NEGLIGENCE OR OTHERWISE) ARISING IN ANY WAY OUT OF THE USE
  34:Drivers/BSP/Components/stmpe1600/stmpe1600.c ****   * OF THIS SOFTWARE, EVEN IF ADVISED OF THE POSSIBILITY OF SUCH DAMAGE.
  35:Drivers/BSP/Components/stmpe1600/stmpe1600.c ****   *
  36:Drivers/BSP/Components/stmpe1600/stmpe1600.c ****   ******************************************************************************
  37:Drivers/BSP/Components/stmpe1600/stmpe1600.c ****   */ 
  38:Drivers/BSP/Components/stmpe1600/stmpe1600.c **** 
  39:Drivers/BSP/Components/stmpe1600/stmpe1600.c **** /* Includes ------------------------------------------------------------------*/
  40:Drivers/BSP/Components/stmpe1600/stmpe1600.c **** #include "stmpe1600.h"
  41:Drivers/BSP/Components/stmpe1600/stmpe1600.c **** 
  42:Drivers/BSP/Components/stmpe1600/stmpe1600.c **** /** @addtogroup BSP
  43:Drivers/BSP/Components/stmpe1600/stmpe1600.c ****   * @{
  44:Drivers/BSP/Components/stmpe1600/stmpe1600.c ****   */
  45:Drivers/BSP/Components/stmpe1600/stmpe1600.c **** 
  46:Drivers/BSP/Components/stmpe1600/stmpe1600.c **** /** @addtogroup Components
  47:Drivers/BSP/Components/stmpe1600/stmpe1600.c ****   * @{
  48:Drivers/BSP/Components/stmpe1600/stmpe1600.c ****   */ 
  49:Drivers/BSP/Components/stmpe1600/stmpe1600.c ****   
  50:Drivers/BSP/Components/stmpe1600/stmpe1600.c **** /** @defgroup STMPE1600
  51:Drivers/BSP/Components/stmpe1600/stmpe1600.c ****   * @{
  52:Drivers/BSP/Components/stmpe1600/stmpe1600.c ****   */   
  53:Drivers/BSP/Components/stmpe1600/stmpe1600.c ****   
  54:Drivers/BSP/Components/stmpe1600/stmpe1600.c **** /* Private typedef -----------------------------------------------------------*/
  55:Drivers/BSP/Components/stmpe1600/stmpe1600.c **** 
  56:Drivers/BSP/Components/stmpe1600/stmpe1600.c **** /** @defgroup STMPE1600_Private_Types_Definitions
  57:Drivers/BSP/Components/stmpe1600/stmpe1600.c ****   * @{
  58:Drivers/BSP/Components/stmpe1600/stmpe1600.c ****   */ 
  59:Drivers/BSP/Components/stmpe1600/stmpe1600.c ****   
  60:Drivers/BSP/Components/stmpe1600/stmpe1600.c **** /* Private define ------------------------------------------------------------*/
  61:Drivers/BSP/Components/stmpe1600/stmpe1600.c **** 
  62:Drivers/BSP/Components/stmpe1600/stmpe1600.c **** /** @defgroup STMPE1600_Private_Defines
  63:Drivers/BSP/Components/stmpe1600/stmpe1600.c ****   * @{
  64:Drivers/BSP/Components/stmpe1600/stmpe1600.c ****   */ 
  65:Drivers/BSP/Components/stmpe1600/stmpe1600.c **** #define STMPE1600_MAX_INSTANCE        2
  66:Drivers/BSP/Components/stmpe1600/stmpe1600.c **** 
  67:Drivers/BSP/Components/stmpe1600/stmpe1600.c **** /* Private macro -------------------------------------------------------------*/
  68:Drivers/BSP/Components/stmpe1600/stmpe1600.c **** 
  69:Drivers/BSP/Components/stmpe1600/stmpe1600.c **** /** @defgroup STMPE1600_Private_Macros
  70:Drivers/BSP/Components/stmpe1600/stmpe1600.c ****   * @{
  71:Drivers/BSP/Components/stmpe1600/stmpe1600.c ****   */ 
  72:Drivers/BSP/Components/stmpe1600/stmpe1600.c ****   
  73:Drivers/BSP/Components/stmpe1600/stmpe1600.c **** /* Private variables ---------------------------------------------------------*/
  74:Drivers/BSP/Components/stmpe1600/stmpe1600.c **** static uint16_t tmp = 0;
  75:Drivers/BSP/Components/stmpe1600/stmpe1600.c **** 
  76:Drivers/BSP/Components/stmpe1600/stmpe1600.c **** /** @defgroup STMPE1600_Private_Variables
  77:Drivers/BSP/Components/stmpe1600/stmpe1600.c ****   * @{
  78:Drivers/BSP/Components/stmpe1600/stmpe1600.c ****   */ 
  79:Drivers/BSP/Components/stmpe1600/stmpe1600.c **** /* IO driver structure initialization */  
  80:Drivers/BSP/Components/stmpe1600/stmpe1600.c **** IO_DrvTypeDef stmpe1600_io_drv = 
  81:Drivers/BSP/Components/stmpe1600/stmpe1600.c **** {
  82:Drivers/BSP/Components/stmpe1600/stmpe1600.c ****   stmpe1600_Init,
  83:Drivers/BSP/Components/stmpe1600/stmpe1600.c ****   stmpe1600_ReadID,
  84:Drivers/BSP/Components/stmpe1600/stmpe1600.c ****   stmpe1600_Reset,
  85:Drivers/BSP/Components/stmpe1600/stmpe1600.c ****   stmpe1600_Start,
ARM GAS  /var/folders/0z/tsy30v1j4xl4_7kw94k978ww0000gn/T//ccsgo8Ff.s 			page 3


  86:Drivers/BSP/Components/stmpe1600/stmpe1600.c ****   stmpe1600_IO_Config,
  87:Drivers/BSP/Components/stmpe1600/stmpe1600.c ****   stmpe1600_IO_WritePin,
  88:Drivers/BSP/Components/stmpe1600/stmpe1600.c ****   stmpe1600_IO_ReadPin,
  89:Drivers/BSP/Components/stmpe1600/stmpe1600.c ****   0,
  90:Drivers/BSP/Components/stmpe1600/stmpe1600.c ****   0,
  91:Drivers/BSP/Components/stmpe1600/stmpe1600.c ****   stmpe1600_IO_ITStatus,
  92:Drivers/BSP/Components/stmpe1600/stmpe1600.c ****   stmpe1600_IO_ClearIT,
  93:Drivers/BSP/Components/stmpe1600/stmpe1600.c **** };
  94:Drivers/BSP/Components/stmpe1600/stmpe1600.c **** 
  95:Drivers/BSP/Components/stmpe1600/stmpe1600.c **** uint8_t stmpe1600[STMPE1600_MAX_INSTANCE] = {0};
  96:Drivers/BSP/Components/stmpe1600/stmpe1600.c **** /**
  97:Drivers/BSP/Components/stmpe1600/stmpe1600.c ****   * @}
  98:Drivers/BSP/Components/stmpe1600/stmpe1600.c ****   */ 
  99:Drivers/BSP/Components/stmpe1600/stmpe1600.c ****     
 100:Drivers/BSP/Components/stmpe1600/stmpe1600.c **** /* Private function prototypes -----------------------------------------------*/
 101:Drivers/BSP/Components/stmpe1600/stmpe1600.c **** 
 102:Drivers/BSP/Components/stmpe1600/stmpe1600.c **** /** @defgroup STMPE1600_Private_Function_Prototypes
 103:Drivers/BSP/Components/stmpe1600/stmpe1600.c ****   * @{
 104:Drivers/BSP/Components/stmpe1600/stmpe1600.c ****   */
 105:Drivers/BSP/Components/stmpe1600/stmpe1600.c **** static uint8_t stmpe1600_GetInstance(uint16_t DeviceAddr);
 106:Drivers/BSP/Components/stmpe1600/stmpe1600.c **** 
 107:Drivers/BSP/Components/stmpe1600/stmpe1600.c **** /* Private functions ---------------------------------------------------------*/
 108:Drivers/BSP/Components/stmpe1600/stmpe1600.c **** 
 109:Drivers/BSP/Components/stmpe1600/stmpe1600.c **** /** @defgroup STMPE1600_Private_Functions
 110:Drivers/BSP/Components/stmpe1600/stmpe1600.c ****   * @{
 111:Drivers/BSP/Components/stmpe1600/stmpe1600.c ****   */ 
 112:Drivers/BSP/Components/stmpe1600/stmpe1600.c **** 
 113:Drivers/BSP/Components/stmpe1600/stmpe1600.c **** /**
 114:Drivers/BSP/Components/stmpe1600/stmpe1600.c ****   * @brief  Initialize the stmpe1600 and configure the needed hardware resources
 115:Drivers/BSP/Components/stmpe1600/stmpe1600.c ****   * @param  DeviceAddr: Device address on communication Bus.  
 116:Drivers/BSP/Components/stmpe1600/stmpe1600.c ****   * @retval None
 117:Drivers/BSP/Components/stmpe1600/stmpe1600.c ****   */
 118:Drivers/BSP/Components/stmpe1600/stmpe1600.c **** void stmpe1600_Init(uint16_t DeviceAddr)
 119:Drivers/BSP/Components/stmpe1600/stmpe1600.c **** {
 120:Drivers/BSP/Components/stmpe1600/stmpe1600.c ****   uint8_t instance;
 121:Drivers/BSP/Components/stmpe1600/stmpe1600.c ****   uint8_t empty;
 122:Drivers/BSP/Components/stmpe1600/stmpe1600.c ****   
 123:Drivers/BSP/Components/stmpe1600/stmpe1600.c ****   /* Check if device instance already exists */
 124:Drivers/BSP/Components/stmpe1600/stmpe1600.c ****   instance = stmpe1600_GetInstance(DeviceAddr);
 125:Drivers/BSP/Components/stmpe1600/stmpe1600.c ****   
 126:Drivers/BSP/Components/stmpe1600/stmpe1600.c ****   if(instance == 0xFF)
 127:Drivers/BSP/Components/stmpe1600/stmpe1600.c ****   {
 128:Drivers/BSP/Components/stmpe1600/stmpe1600.c ****     /* Look for empty instance */
 129:Drivers/BSP/Components/stmpe1600/stmpe1600.c ****     empty = stmpe1600_GetInstance(0);
 130:Drivers/BSP/Components/stmpe1600/stmpe1600.c ****     
 131:Drivers/BSP/Components/stmpe1600/stmpe1600.c ****     if(empty < STMPE1600_MAX_INSTANCE)
 132:Drivers/BSP/Components/stmpe1600/stmpe1600.c ****     {
 133:Drivers/BSP/Components/stmpe1600/stmpe1600.c ****       /* Register the current device instance */
 134:Drivers/BSP/Components/stmpe1600/stmpe1600.c ****       stmpe1600[empty] = DeviceAddr;
 135:Drivers/BSP/Components/stmpe1600/stmpe1600.c ****       
 136:Drivers/BSP/Components/stmpe1600/stmpe1600.c ****       /* Initialize IO BUS layer */
 137:Drivers/BSP/Components/stmpe1600/stmpe1600.c ****       IOE_Init(); 
 138:Drivers/BSP/Components/stmpe1600/stmpe1600.c ****       
 139:Drivers/BSP/Components/stmpe1600/stmpe1600.c ****       /* Generate stmpe1600 Software reset */
 140:Drivers/BSP/Components/stmpe1600/stmpe1600.c ****       stmpe1600_Reset(DeviceAddr);
 141:Drivers/BSP/Components/stmpe1600/stmpe1600.c ****     }
 142:Drivers/BSP/Components/stmpe1600/stmpe1600.c ****   } 
ARM GAS  /var/folders/0z/tsy30v1j4xl4_7kw94k978ww0000gn/T//ccsgo8Ff.s 			page 4


 143:Drivers/BSP/Components/stmpe1600/stmpe1600.c **** }
 144:Drivers/BSP/Components/stmpe1600/stmpe1600.c **** 
 145:Drivers/BSP/Components/stmpe1600/stmpe1600.c **** /**
 146:Drivers/BSP/Components/stmpe1600/stmpe1600.c ****   * @brief  Configures the touch Screen Controller (Single point detection)
 147:Drivers/BSP/Components/stmpe1600/stmpe1600.c ****   * @param  DeviceAddr: Device address on communication Bus.
 148:Drivers/BSP/Components/stmpe1600/stmpe1600.c ****   * @retval None.
 149:Drivers/BSP/Components/stmpe1600/stmpe1600.c ****   */
 150:Drivers/BSP/Components/stmpe1600/stmpe1600.c **** void stmpe1600_Start(uint16_t DeviceAddr, uint32_t IO_Pin)
 151:Drivers/BSP/Components/stmpe1600/stmpe1600.c **** {
  31              		.loc 1 151 1 view -0
  32              		.cfi_startproc
  33              		@ args = 0, pretend = 0, frame = 0
  34              		@ frame_needed = 0, uses_anonymous_args = 0
  35              		@ link register save eliminated.
 152:Drivers/BSP/Components/stmpe1600/stmpe1600.c ****   /*Configuration already done during the initialization */ 
 153:Drivers/BSP/Components/stmpe1600/stmpe1600.c **** }
  36              		.loc 1 153 1 view .LVU1
  37 0000 7047     		bx	lr
  38              		.cfi_endproc
  39              	.LFE1:
  41 0002 00BF     		.section	.text.stmpe1600_Reset,"ax",%progbits
  42              		.align	1
  43              		.p2align 2,,3
  44              		.global	stmpe1600_Reset
  45              		.syntax unified
  46              		.thumb
  47              		.thumb_func
  49              	stmpe1600_Reset:
  50              	.LVL1:
  51              	.LFB2:
 154:Drivers/BSP/Components/stmpe1600/stmpe1600.c **** 
 155:Drivers/BSP/Components/stmpe1600/stmpe1600.c **** /**
 156:Drivers/BSP/Components/stmpe1600/stmpe1600.c ****   * @brief  Reset the stmpe1600 by Software.
 157:Drivers/BSP/Components/stmpe1600/stmpe1600.c ****   * @param  DeviceAddr: Device address on communication Bus.  
 158:Drivers/BSP/Components/stmpe1600/stmpe1600.c ****   * @retval None
 159:Drivers/BSP/Components/stmpe1600/stmpe1600.c ****   */
 160:Drivers/BSP/Components/stmpe1600/stmpe1600.c **** void stmpe1600_Reset(uint16_t DeviceAddr)
 161:Drivers/BSP/Components/stmpe1600/stmpe1600.c **** {
  52              		.loc 1 161 1 view -0
  53              		.cfi_startproc
  54              		@ args = 0, pretend = 0, frame = 0
  55              		@ frame_needed = 0, uses_anonymous_args = 0
 162:Drivers/BSP/Components/stmpe1600/stmpe1600.c ****   /* Power Down the stmpe1600 */
 163:Drivers/BSP/Components/stmpe1600/stmpe1600.c ****   IOE_Write(DeviceAddr, STMPE1600_REG_SYS_CTRL, (uint16_t)0x80);
  56              		.loc 1 163 3 view .LVU3
 161:Drivers/BSP/Components/stmpe1600/stmpe1600.c ****   /* Power Down the stmpe1600 */
  57              		.loc 1 161 1 is_stmt 0 view .LVU4
  58 0000 10B5     		push	{r4, lr}
  59              		.cfi_def_cfa_offset 8
  60              		.cfi_offset 4, -8
  61              		.cfi_offset 14, -4
  62              		.loc 1 163 3 view .LVU5
  63 0002 C4B2     		uxtb	r4, r0
  64 0004 8022     		movs	r2, #128
  65 0006 0321     		movs	r1, #3
  66 0008 2046     		mov	r0, r4
  67              	.LVL2:
ARM GAS  /var/folders/0z/tsy30v1j4xl4_7kw94k978ww0000gn/T//ccsgo8Ff.s 			page 5


  68              		.loc 1 163 3 view .LVU6
  69 000a FFF7FEFF 		bl	IOE_Write
  70              	.LVL3:
 164:Drivers/BSP/Components/stmpe1600/stmpe1600.c **** 
 165:Drivers/BSP/Components/stmpe1600/stmpe1600.c ****   /* Wait for a delay to ensure registers erasing */
 166:Drivers/BSP/Components/stmpe1600/stmpe1600.c ****   IOE_Delay(2); 
  71              		.loc 1 166 3 is_stmt 1 view .LVU7
  72 000e 0220     		movs	r0, #2
  73 0010 FFF7FEFF 		bl	IOE_Delay
  74              	.LVL4:
 167:Drivers/BSP/Components/stmpe1600/stmpe1600.c ****   
 168:Drivers/BSP/Components/stmpe1600/stmpe1600.c ****   /* Power On the Codec after the power off: all registers are reinitialized */
 169:Drivers/BSP/Components/stmpe1600/stmpe1600.c ****   IOE_Write(DeviceAddr, STMPE1600_REG_SYS_CTRL, (uint16_t)0x00); 
  75              		.loc 1 169 3 view .LVU8
  76 0014 2046     		mov	r0, r4
  77 0016 0022     		movs	r2, #0
  78 0018 0321     		movs	r1, #3
  79 001a FFF7FEFF 		bl	IOE_Write
  80              	.LVL5:
 170:Drivers/BSP/Components/stmpe1600/stmpe1600.c ****   
 171:Drivers/BSP/Components/stmpe1600/stmpe1600.c ****   /* Wait for a delay to ensure registers erasing */
 172:Drivers/BSP/Components/stmpe1600/stmpe1600.c ****   IOE_Delay(2); 
  81              		.loc 1 172 3 view .LVU9
 173:Drivers/BSP/Components/stmpe1600/stmpe1600.c **** }
  82              		.loc 1 173 1 is_stmt 0 view .LVU10
  83 001e BDE81040 		pop	{r4, lr}
  84              		.cfi_restore 14
  85              		.cfi_restore 4
  86              		.cfi_def_cfa_offset 0
 172:Drivers/BSP/Components/stmpe1600/stmpe1600.c **** }
  87              		.loc 1 172 3 view .LVU11
  88 0022 0220     		movs	r0, #2
  89 0024 FFF7FEBF 		b	IOE_Delay
  90              	.LVL6:
  91              		.cfi_endproc
  92              	.LFE2:
  94              		.section	.text.stmpe1600_ReadID,"ax",%progbits
  95              		.align	1
  96              		.p2align 2,,3
  97              		.global	stmpe1600_ReadID
  98              		.syntax unified
  99              		.thumb
 100              		.thumb_func
 102              	stmpe1600_ReadID:
 103              	.LVL7:
 104              	.LFB3:
 174:Drivers/BSP/Components/stmpe1600/stmpe1600.c **** 
 175:Drivers/BSP/Components/stmpe1600/stmpe1600.c **** /**
 176:Drivers/BSP/Components/stmpe1600/stmpe1600.c ****   * @brief  Read the stmpe1600 device ID.
 177:Drivers/BSP/Components/stmpe1600/stmpe1600.c ****   * @param  DeviceAddr: Device address on communication Bus.  
 178:Drivers/BSP/Components/stmpe1600/stmpe1600.c ****   * @retval The Device ID (two bytes).
 179:Drivers/BSP/Components/stmpe1600/stmpe1600.c ****   */
 180:Drivers/BSP/Components/stmpe1600/stmpe1600.c **** uint16_t stmpe1600_ReadID(uint16_t DeviceAddr)
 181:Drivers/BSP/Components/stmpe1600/stmpe1600.c **** {
 105              		.loc 1 181 1 is_stmt 1 view -0
 106              		.cfi_startproc
 107              		@ args = 0, pretend = 0, frame = 8
ARM GAS  /var/folders/0z/tsy30v1j4xl4_7kw94k978ww0000gn/T//ccsgo8Ff.s 			page 6


 108              		@ frame_needed = 0, uses_anonymous_args = 0
 182:Drivers/BSP/Components/stmpe1600/stmpe1600.c ****   uint8_t tmpData[2] = {0 , 0};
 109              		.loc 1 182 3 view .LVU13
 181:Drivers/BSP/Components/stmpe1600/stmpe1600.c ****   uint8_t tmpData[2] = {0 , 0};
 110              		.loc 1 181 1 is_stmt 0 view .LVU14
 111 0000 30B5     		push	{r4, r5, lr}
 112              		.cfi_def_cfa_offset 12
 113              		.cfi_offset 4, -12
 114              		.cfi_offset 5, -8
 115              		.cfi_offset 14, -4
 116 0002 83B0     		sub	sp, sp, #12
 117              		.cfi_def_cfa_offset 24
 181:Drivers/BSP/Components/stmpe1600/stmpe1600.c ****   uint8_t tmpData[2] = {0 , 0};
 118              		.loc 1 181 1 view .LVU15
 119 0004 0446     		mov	r4, r0
 120              		.loc 1 182 11 view .LVU16
 121 0006 0025     		movs	r5, #0
 122 0008 ADF80450 		strh	r5, [sp, #4]	@ movhi
 183:Drivers/BSP/Components/stmpe1600/stmpe1600.c **** 
 184:Drivers/BSP/Components/stmpe1600/stmpe1600.c ****   /* Initialize IO BUS layer */
 185:Drivers/BSP/Components/stmpe1600/stmpe1600.c ****   IOE_Init(); 
 123              		.loc 1 185 3 is_stmt 1 view .LVU17
 124 000c FFF7FEFF 		bl	IOE_Init
 125              	.LVL8:
 186:Drivers/BSP/Components/stmpe1600/stmpe1600.c ****   
 187:Drivers/BSP/Components/stmpe1600/stmpe1600.c ****   /* Read the stmpe1600 device ID */
 188:Drivers/BSP/Components/stmpe1600/stmpe1600.c ****   IOE_ReadMultiple(DeviceAddr, STMPE1600_REG_CHP_ID, tmpData, 2);
 126              		.loc 1 188 3 view .LVU18
 127 0010 0223     		movs	r3, #2
 128 0012 01AA     		add	r2, sp, #4
 129 0014 2946     		mov	r1, r5
 130 0016 E0B2     		uxtb	r0, r4
 131 0018 FFF7FEFF 		bl	IOE_ReadMultiple
 132              	.LVL9:
 189:Drivers/BSP/Components/stmpe1600/stmpe1600.c ****   
 190:Drivers/BSP/Components/stmpe1600/stmpe1600.c ****   /* Return the device ID value */
 191:Drivers/BSP/Components/stmpe1600/stmpe1600.c ****   return((uint16_t)tmpData[0] | (((uint16_t)tmpData[1]) << 8));
 133              		.loc 1 191 3 view .LVU19
 192:Drivers/BSP/Components/stmpe1600/stmpe1600.c **** }
 134              		.loc 1 192 1 is_stmt 0 view .LVU20
 135 001c BDF80400 		ldrh	r0, [sp, #4]
 136 0020 03B0     		add	sp, sp, #12
 137              		.cfi_def_cfa_offset 12
 138              		@ sp needed
 139 0022 30BD     		pop	{r4, r5, pc}
 140              		.cfi_endproc
 141              	.LFE3:
 143              		.section	.text.stmpe1600_IO_ReadPin,"ax",%progbits
 144              		.align	1
 145              		.p2align 2,,3
 146              		.global	stmpe1600_IO_ReadPin
 147              		.syntax unified
 148              		.thumb
 149              		.thumb_func
 151              	stmpe1600_IO_ReadPin:
 152              	.LVL10:
 153              	.LFB12:
ARM GAS  /var/folders/0z/tsy30v1j4xl4_7kw94k978ww0000gn/T//ccsgo8Ff.s 			page 7


 193:Drivers/BSP/Components/stmpe1600/stmpe1600.c **** 
 194:Drivers/BSP/Components/stmpe1600/stmpe1600.c **** /**
 195:Drivers/BSP/Components/stmpe1600/stmpe1600.c ****   * @brief  Set the global interrupt Polarity.
 196:Drivers/BSP/Components/stmpe1600/stmpe1600.c ****   * @param  DeviceAddr: Device address on communication Bus.  
 197:Drivers/BSP/Components/stmpe1600/stmpe1600.c ****   * @param  Polarity: could be one of these values; 
 198:Drivers/BSP/Components/stmpe1600/stmpe1600.c ****   *   @arg  STMPE1600_POLARITY_LOW: Interrupt line is active Low/Falling edge      
 199:Drivers/BSP/Components/stmpe1600/stmpe1600.c ****   *   @arg  STMPE1600_POLARITY_HIGH: Interrupt line is active High/Rising edge               
 200:Drivers/BSP/Components/stmpe1600/stmpe1600.c ****   * @retval None
 201:Drivers/BSP/Components/stmpe1600/stmpe1600.c ****   */
 202:Drivers/BSP/Components/stmpe1600/stmpe1600.c **** void stmpe1600_SetITPolarity(uint16_t DeviceAddr, uint8_t Polarity)
 203:Drivers/BSP/Components/stmpe1600/stmpe1600.c **** {
 204:Drivers/BSP/Components/stmpe1600/stmpe1600.c ****   uint8_t tmp = 0;
 205:Drivers/BSP/Components/stmpe1600/stmpe1600.c ****   
 206:Drivers/BSP/Components/stmpe1600/stmpe1600.c ****   /* Get the current register value */ 
 207:Drivers/BSP/Components/stmpe1600/stmpe1600.c ****   tmp = IOE_Read(DeviceAddr, STMPE1600_REG_SYS_CTRL);
 208:Drivers/BSP/Components/stmpe1600/stmpe1600.c ****   
 209:Drivers/BSP/Components/stmpe1600/stmpe1600.c ****   /* Mask the polarity bit */
 210:Drivers/BSP/Components/stmpe1600/stmpe1600.c ****   tmp &= ~(uint16_t)0x01;
 211:Drivers/BSP/Components/stmpe1600/stmpe1600.c ****     
 212:Drivers/BSP/Components/stmpe1600/stmpe1600.c ****   /* Set the Interrupt Output line polarity */
 213:Drivers/BSP/Components/stmpe1600/stmpe1600.c ****   tmp |= (uint8_t)Polarity;
 214:Drivers/BSP/Components/stmpe1600/stmpe1600.c ****   
 215:Drivers/BSP/Components/stmpe1600/stmpe1600.c ****   /* Set the new register value */
 216:Drivers/BSP/Components/stmpe1600/stmpe1600.c ****   IOE_Write(DeviceAddr, STMPE1600_REG_SYS_CTRL, tmp);
 217:Drivers/BSP/Components/stmpe1600/stmpe1600.c **** }
 218:Drivers/BSP/Components/stmpe1600/stmpe1600.c **** 
 219:Drivers/BSP/Components/stmpe1600/stmpe1600.c **** /**
 220:Drivers/BSP/Components/stmpe1600/stmpe1600.c ****   * @brief  Enable the Global interrupt.
 221:Drivers/BSP/Components/stmpe1600/stmpe1600.c ****   * @param  DeviceAddr: Device address on communication Bus.        
 222:Drivers/BSP/Components/stmpe1600/stmpe1600.c ****   * @retval None
 223:Drivers/BSP/Components/stmpe1600/stmpe1600.c ****   */
 224:Drivers/BSP/Components/stmpe1600/stmpe1600.c **** void stmpe1600_EnableGlobalIT(uint16_t DeviceAddr)
 225:Drivers/BSP/Components/stmpe1600/stmpe1600.c **** {
 226:Drivers/BSP/Components/stmpe1600/stmpe1600.c ****   uint8_t tmpData[2] = {0 , 0};
 227:Drivers/BSP/Components/stmpe1600/stmpe1600.c **** 
 228:Drivers/BSP/Components/stmpe1600/stmpe1600.c ****   /* Configure NVIC IT for IOE */
 229:Drivers/BSP/Components/stmpe1600/stmpe1600.c ****   IOE_ITConfig();
 230:Drivers/BSP/Components/stmpe1600/stmpe1600.c ****   
 231:Drivers/BSP/Components/stmpe1600/stmpe1600.c ****   /* Get the current register value */
 232:Drivers/BSP/Components/stmpe1600/stmpe1600.c ****   IOE_ReadMultiple(DeviceAddr, STMPE1600_REG_SYS_CTRL, tmpData, 2);
 233:Drivers/BSP/Components/stmpe1600/stmpe1600.c ****   
 234:Drivers/BSP/Components/stmpe1600/stmpe1600.c ****   tmp = ((uint16_t)tmpData[0] | (((uint16_t)tmpData[1]) << 8));
 235:Drivers/BSP/Components/stmpe1600/stmpe1600.c ****   
 236:Drivers/BSP/Components/stmpe1600/stmpe1600.c ****   /* Set the global interrupts to be Enabled */    
 237:Drivers/BSP/Components/stmpe1600/stmpe1600.c ****   tmp |= (uint16_t)STMPE1600_IT_ENABLE;
 238:Drivers/BSP/Components/stmpe1600/stmpe1600.c ****   
 239:Drivers/BSP/Components/stmpe1600/stmpe1600.c ****   /* Write Back the Interrupt Control register */
 240:Drivers/BSP/Components/stmpe1600/stmpe1600.c ****   IOE_WriteMultiple(DeviceAddr, STMPE1600_REG_SYS_CTRL, (uint8_t *)&tmp, 2); 
 241:Drivers/BSP/Components/stmpe1600/stmpe1600.c **** }
 242:Drivers/BSP/Components/stmpe1600/stmpe1600.c **** 
 243:Drivers/BSP/Components/stmpe1600/stmpe1600.c **** /**
 244:Drivers/BSP/Components/stmpe1600/stmpe1600.c ****   * @brief  Disable the Global interrupt.
 245:Drivers/BSP/Components/stmpe1600/stmpe1600.c ****   * @param  DeviceAddr: Device address on communication Bus.        
 246:Drivers/BSP/Components/stmpe1600/stmpe1600.c ****   * @retval None
 247:Drivers/BSP/Components/stmpe1600/stmpe1600.c ****   */
 248:Drivers/BSP/Components/stmpe1600/stmpe1600.c **** void stmpe1600_DisableGlobalIT(uint16_t DeviceAddr)
 249:Drivers/BSP/Components/stmpe1600/stmpe1600.c **** { 
ARM GAS  /var/folders/0z/tsy30v1j4xl4_7kw94k978ww0000gn/T//ccsgo8Ff.s 			page 8


 250:Drivers/BSP/Components/stmpe1600/stmpe1600.c ****   uint8_t tmpData[2] = {0 , 0};
 251:Drivers/BSP/Components/stmpe1600/stmpe1600.c **** 
 252:Drivers/BSP/Components/stmpe1600/stmpe1600.c ****   /* Get the current register value */
 253:Drivers/BSP/Components/stmpe1600/stmpe1600.c ****   IOE_ReadMultiple(DeviceAddr, STMPE1600_REG_SYS_CTRL, tmpData, 2);
 254:Drivers/BSP/Components/stmpe1600/stmpe1600.c ****   
 255:Drivers/BSP/Components/stmpe1600/stmpe1600.c ****   tmp = ((uint16_t)tmpData[0] | (((uint16_t)tmpData[1]) << 8));
 256:Drivers/BSP/Components/stmpe1600/stmpe1600.c ****   
 257:Drivers/BSP/Components/stmpe1600/stmpe1600.c ****   /* Set the global interrupts to be Enabled */    
 258:Drivers/BSP/Components/stmpe1600/stmpe1600.c ****   tmp &= ~(uint16_t)STMPE1600_IT_ENABLE;
 259:Drivers/BSP/Components/stmpe1600/stmpe1600.c ****   
 260:Drivers/BSP/Components/stmpe1600/stmpe1600.c ****   /* Write Back the Interrupt Control register */
 261:Drivers/BSP/Components/stmpe1600/stmpe1600.c ****   IOE_WriteMultiple(DeviceAddr, STMPE1600_REG_SYS_CTRL, (uint8_t *)&tmp, 2); 
 262:Drivers/BSP/Components/stmpe1600/stmpe1600.c **** }
 263:Drivers/BSP/Components/stmpe1600/stmpe1600.c **** 
 264:Drivers/BSP/Components/stmpe1600/stmpe1600.c **** /**
 265:Drivers/BSP/Components/stmpe1600/stmpe1600.c ****   * @brief  Initialize the selected pin(s) direction.
 266:Drivers/BSP/Components/stmpe1600/stmpe1600.c ****   * @param  DeviceAddr: Device address on communication Bus.   
 267:Drivers/BSP/Components/stmpe1600/stmpe1600.c ****   * @param  IO_Pin: IO pin(s) to be configured. 
 268:Drivers/BSP/Components/stmpe1600/stmpe1600.c ****   *         This parameter could be any combination of the following values:
 269:Drivers/BSP/Components/stmpe1600/stmpe1600.c ****   *   @arg  STMPE1600_PIN_x: where x can be from 0 to 15.  
 270:Drivers/BSP/Components/stmpe1600/stmpe1600.c ****   * @param  Direction: could be STMPE1600_DIRECTION_IN or STMPE1600_DIRECTION_OUT.      
 271:Drivers/BSP/Components/stmpe1600/stmpe1600.c ****   * @retval None
 272:Drivers/BSP/Components/stmpe1600/stmpe1600.c ****   */
 273:Drivers/BSP/Components/stmpe1600/stmpe1600.c **** void stmpe1600_IO_InitPin(uint16_t DeviceAddr, uint32_t IO_Pin, uint8_t Direction)
 274:Drivers/BSP/Components/stmpe1600/stmpe1600.c **** {
 275:Drivers/BSP/Components/stmpe1600/stmpe1600.c ****   uint8_t tmpData[2] = {0 , 0};
 276:Drivers/BSP/Components/stmpe1600/stmpe1600.c ****   
 277:Drivers/BSP/Components/stmpe1600/stmpe1600.c ****   /* Get the current register value */
 278:Drivers/BSP/Components/stmpe1600/stmpe1600.c ****   IOE_ReadMultiple(DeviceAddr, STMPE1600_REG_GPDR, tmpData, 2);
 279:Drivers/BSP/Components/stmpe1600/stmpe1600.c **** 
 280:Drivers/BSP/Components/stmpe1600/stmpe1600.c ****   tmp = ((uint16_t)tmpData[0] | (((uint16_t)tmpData[1]) << 8));
 281:Drivers/BSP/Components/stmpe1600/stmpe1600.c ****   
 282:Drivers/BSP/Components/stmpe1600/stmpe1600.c ****   /* Set the Pin direction */
 283:Drivers/BSP/Components/stmpe1600/stmpe1600.c ****   if (Direction != STMPE1600_DIRECTION_IN)
 284:Drivers/BSP/Components/stmpe1600/stmpe1600.c ****   {
 285:Drivers/BSP/Components/stmpe1600/stmpe1600.c ****     tmp |= (uint16_t)IO_Pin;
 286:Drivers/BSP/Components/stmpe1600/stmpe1600.c ****   }  
 287:Drivers/BSP/Components/stmpe1600/stmpe1600.c ****   else 
 288:Drivers/BSP/Components/stmpe1600/stmpe1600.c ****   {
 289:Drivers/BSP/Components/stmpe1600/stmpe1600.c ****     tmp &= ~(uint16_t)IO_Pin;
 290:Drivers/BSP/Components/stmpe1600/stmpe1600.c ****   }
 291:Drivers/BSP/Components/stmpe1600/stmpe1600.c ****     
 292:Drivers/BSP/Components/stmpe1600/stmpe1600.c ****   /* Set the new register value */
 293:Drivers/BSP/Components/stmpe1600/stmpe1600.c ****   IOE_WriteMultiple(DeviceAddr, STMPE1600_REG_GPDR, (uint8_t *)&tmp, 2);      
 294:Drivers/BSP/Components/stmpe1600/stmpe1600.c **** }
 295:Drivers/BSP/Components/stmpe1600/stmpe1600.c **** 
 296:Drivers/BSP/Components/stmpe1600/stmpe1600.c **** /**
 297:Drivers/BSP/Components/stmpe1600/stmpe1600.c ****   * @brief  Configure the IO pin(s) according to IO mode structure value.
 298:Drivers/BSP/Components/stmpe1600/stmpe1600.c ****   * @param  DeviceAddr: Device address on communication Bus.  
 299:Drivers/BSP/Components/stmpe1600/stmpe1600.c ****   * @param  IO_Pin: The output pin to be set or reset. This parameter can be one 
 300:Drivers/BSP/Components/stmpe1600/stmpe1600.c ****   *         of the following values:   
 301:Drivers/BSP/Components/stmpe1600/stmpe1600.c ****   *   @arg  STMPE1600_PIN_x: where x can be from 0 to 7.
 302:Drivers/BSP/Components/stmpe1600/stmpe1600.c ****   * @param  IO_Mode: The IO pin mode to configure, could be one of the following values:
 303:Drivers/BSP/Components/stmpe1600/stmpe1600.c ****   *   @arg  IO_MODE_INPUT
 304:Drivers/BSP/Components/stmpe1600/stmpe1600.c ****   *   @arg  IO_MODE_OUTPUT
 305:Drivers/BSP/Components/stmpe1600/stmpe1600.c ****   *   @arg  IO_MODE_IT_RISING_EDGE
 306:Drivers/BSP/Components/stmpe1600/stmpe1600.c ****   *   @arg  IO_MODE_IT_FALLING_EDGE         
ARM GAS  /var/folders/0z/tsy30v1j4xl4_7kw94k978ww0000gn/T//ccsgo8Ff.s 			page 9


 307:Drivers/BSP/Components/stmpe1600/stmpe1600.c ****   * @retval 0 if no error, IO_Mode if error
 308:Drivers/BSP/Components/stmpe1600/stmpe1600.c ****   */
 309:Drivers/BSP/Components/stmpe1600/stmpe1600.c **** uint8_t stmpe1600_IO_Config(uint16_t DeviceAddr, uint32_t IO_Pin, IO_ModeTypedef IO_Mode)
 310:Drivers/BSP/Components/stmpe1600/stmpe1600.c **** {
 311:Drivers/BSP/Components/stmpe1600/stmpe1600.c ****   uint8_t error_code = 0;
 312:Drivers/BSP/Components/stmpe1600/stmpe1600.c ****     uint8_t buffer[2] = {0,0};  
 313:Drivers/BSP/Components/stmpe1600/stmpe1600.c ****     
 314:Drivers/BSP/Components/stmpe1600/stmpe1600.c ****   /* Configure IO pin according to selected IO mode */
 315:Drivers/BSP/Components/stmpe1600/stmpe1600.c ****   switch(IO_Mode)
 316:Drivers/BSP/Components/stmpe1600/stmpe1600.c ****   {
 317:Drivers/BSP/Components/stmpe1600/stmpe1600.c ****   case IO_MODE_INPUT: /* Input mode */
 318:Drivers/BSP/Components/stmpe1600/stmpe1600.c ****     stmpe1600_IO_DisablePinIT(DeviceAddr, IO_Pin);
 319:Drivers/BSP/Components/stmpe1600/stmpe1600.c ****     stmpe1600_IO_InitPin(DeviceAddr, IO_Pin, STMPE1600_DIRECTION_IN);
 320:Drivers/BSP/Components/stmpe1600/stmpe1600.c ****     break;
 321:Drivers/BSP/Components/stmpe1600/stmpe1600.c ****     
 322:Drivers/BSP/Components/stmpe1600/stmpe1600.c ****   case IO_MODE_OUTPUT: /* Output mode */
 323:Drivers/BSP/Components/stmpe1600/stmpe1600.c ****     stmpe1600_IO_DisablePinIT(DeviceAddr, IO_Pin);
 324:Drivers/BSP/Components/stmpe1600/stmpe1600.c ****     stmpe1600_IO_InitPin(DeviceAddr, IO_Pin, STMPE1600_DIRECTION_OUT);
 325:Drivers/BSP/Components/stmpe1600/stmpe1600.c ****     break;
 326:Drivers/BSP/Components/stmpe1600/stmpe1600.c ****   
 327:Drivers/BSP/Components/stmpe1600/stmpe1600.c ****   case IO_MODE_IT_RISING_EDGE: /* Interrupt rising edge mode */
 328:Drivers/BSP/Components/stmpe1600/stmpe1600.c ****     stmpe1600_SetITPolarity(DeviceAddr, STMPE1600_POLARITY_HIGH);
 329:Drivers/BSP/Components/stmpe1600/stmpe1600.c ****     stmpe1600_IO_EnablePinIT(DeviceAddr, IO_Pin);
 330:Drivers/BSP/Components/stmpe1600/stmpe1600.c ****     stmpe1600_IO_InitPin(DeviceAddr, IO_Pin, STMPE1600_DIRECTION_IN); 
 331:Drivers/BSP/Components/stmpe1600/stmpe1600.c ****     /* Clear all IO IT pending bits if any */
 332:Drivers/BSP/Components/stmpe1600/stmpe1600.c ****     stmpe1600_IO_ClearIT(DeviceAddr, IO_Pin);
 333:Drivers/BSP/Components/stmpe1600/stmpe1600.c ****     
 334:Drivers/BSP/Components/stmpe1600/stmpe1600.c ****     /* Read GMPR to enable interrupt */
 335:Drivers/BSP/Components/stmpe1600/stmpe1600.c ****     IOE_ReadMultiple(DeviceAddr , STMPE1600_REG_GPMR, buffer, 2);
 336:Drivers/BSP/Components/stmpe1600/stmpe1600.c ****     break; 
 337:Drivers/BSP/Components/stmpe1600/stmpe1600.c ****     
 338:Drivers/BSP/Components/stmpe1600/stmpe1600.c ****   case IO_MODE_IT_FALLING_EDGE: /* Interrupt falling edge mode */
 339:Drivers/BSP/Components/stmpe1600/stmpe1600.c ****     stmpe1600_SetITPolarity(DeviceAddr, STMPE1600_POLARITY_LOW);
 340:Drivers/BSP/Components/stmpe1600/stmpe1600.c ****     stmpe1600_IO_EnablePinIT(DeviceAddr, IO_Pin);
 341:Drivers/BSP/Components/stmpe1600/stmpe1600.c ****     stmpe1600_IO_InitPin(DeviceAddr, IO_Pin, STMPE1600_DIRECTION_IN); 
 342:Drivers/BSP/Components/stmpe1600/stmpe1600.c ****     
 343:Drivers/BSP/Components/stmpe1600/stmpe1600.c ****     /* Clear all IO IT pending bits if any */
 344:Drivers/BSP/Components/stmpe1600/stmpe1600.c ****     stmpe1600_IO_ClearIT(DeviceAddr, IO_Pin);
 345:Drivers/BSP/Components/stmpe1600/stmpe1600.c ****     
 346:Drivers/BSP/Components/stmpe1600/stmpe1600.c ****     /* Read GMPR to enable interrupt */
 347:Drivers/BSP/Components/stmpe1600/stmpe1600.c ****     IOE_ReadMultiple(DeviceAddr , STMPE1600_REG_GPMR, buffer, 2);    
 348:Drivers/BSP/Components/stmpe1600/stmpe1600.c ****     break;
 349:Drivers/BSP/Components/stmpe1600/stmpe1600.c **** 
 350:Drivers/BSP/Components/stmpe1600/stmpe1600.c ****   default:
 351:Drivers/BSP/Components/stmpe1600/stmpe1600.c ****     error_code = (uint8_t) IO_Mode;
 352:Drivers/BSP/Components/stmpe1600/stmpe1600.c **** 	break;
 353:Drivers/BSP/Components/stmpe1600/stmpe1600.c ****   } 
 354:Drivers/BSP/Components/stmpe1600/stmpe1600.c ****   return error_code;
 355:Drivers/BSP/Components/stmpe1600/stmpe1600.c **** }
 356:Drivers/BSP/Components/stmpe1600/stmpe1600.c **** 
 357:Drivers/BSP/Components/stmpe1600/stmpe1600.c **** /**
 358:Drivers/BSP/Components/stmpe1600/stmpe1600.c ****   * @brief  Enable polarity inversion of the selected IO pin(s).
 359:Drivers/BSP/Components/stmpe1600/stmpe1600.c ****   * @param  DeviceAddr: Device address on communication Bus.    
 360:Drivers/BSP/Components/stmpe1600/stmpe1600.c ****   * @param  IO_Pin: IO pin(s) to be configured.  
 361:Drivers/BSP/Components/stmpe1600/stmpe1600.c ****   *         This parameter could be any combination of the following values:
 362:Drivers/BSP/Components/stmpe1600/stmpe1600.c ****   *   @arg  STMPE1600_PIN_x: where x can be from 0 to 15. 
 363:Drivers/BSP/Components/stmpe1600/stmpe1600.c ****   * @retval None
ARM GAS  /var/folders/0z/tsy30v1j4xl4_7kw94k978ww0000gn/T//ccsgo8Ff.s 			page 10


 364:Drivers/BSP/Components/stmpe1600/stmpe1600.c ****   */ 
 365:Drivers/BSP/Components/stmpe1600/stmpe1600.c **** void stmpe1600_IO_PolarityInv_Enable(uint16_t DeviceAddr, uint32_t IO_Pin)
 366:Drivers/BSP/Components/stmpe1600/stmpe1600.c **** {
 367:Drivers/BSP/Components/stmpe1600/stmpe1600.c ****   uint8_t tmpData[2] = {0 , 0};
 368:Drivers/BSP/Components/stmpe1600/stmpe1600.c ****   
 369:Drivers/BSP/Components/stmpe1600/stmpe1600.c ****   /* Get the current register value */
 370:Drivers/BSP/Components/stmpe1600/stmpe1600.c ****   IOE_ReadMultiple(DeviceAddr, STMPE1600_REG_GPPIR, tmpData, 2);
 371:Drivers/BSP/Components/stmpe1600/stmpe1600.c ****   
 372:Drivers/BSP/Components/stmpe1600/stmpe1600.c ****   tmp = ((uint16_t)tmpData[0] | (((uint16_t)tmpData[1]) << 8));  
 373:Drivers/BSP/Components/stmpe1600/stmpe1600.c **** 
 374:Drivers/BSP/Components/stmpe1600/stmpe1600.c ****   /* Enable pin polarity inversion */
 375:Drivers/BSP/Components/stmpe1600/stmpe1600.c ****   tmp |= (uint16_t)IO_Pin;
 376:Drivers/BSP/Components/stmpe1600/stmpe1600.c ****     
 377:Drivers/BSP/Components/stmpe1600/stmpe1600.c ****   /* Set the new register value */  
 378:Drivers/BSP/Components/stmpe1600/stmpe1600.c ****   IOE_WriteMultiple(DeviceAddr, STMPE1600_REG_GPPIR, (uint8_t *)&tmp, 2);
 379:Drivers/BSP/Components/stmpe1600/stmpe1600.c **** }
 380:Drivers/BSP/Components/stmpe1600/stmpe1600.c **** 
 381:Drivers/BSP/Components/stmpe1600/stmpe1600.c **** /**
 382:Drivers/BSP/Components/stmpe1600/stmpe1600.c ****   * @brief  Disable polarity inversion of the selected IO pins.
 383:Drivers/BSP/Components/stmpe1600/stmpe1600.c ****   * @param  DeviceAddr: Device address on communication Bus.    
 384:Drivers/BSP/Components/stmpe1600/stmpe1600.c ****   * @param  IO_Pin: IO pin(s) to be configured. 
 385:Drivers/BSP/Components/stmpe1600/stmpe1600.c ****   *         This parameter could be any combination of the following values:
 386:Drivers/BSP/Components/stmpe1600/stmpe1600.c ****   *   @arg  STMPE1600_PIN_x: where x can be from 0 to 15.
 387:Drivers/BSP/Components/stmpe1600/stmpe1600.c ****   * @retval None
 388:Drivers/BSP/Components/stmpe1600/stmpe1600.c ****   */ 
 389:Drivers/BSP/Components/stmpe1600/stmpe1600.c **** void stmpe1600_IO_PolarityInv_Disable(uint16_t DeviceAddr, uint32_t IO_Pin)
 390:Drivers/BSP/Components/stmpe1600/stmpe1600.c **** {
 391:Drivers/BSP/Components/stmpe1600/stmpe1600.c ****   uint8_t tmpData[2] = {0 , 0};
 392:Drivers/BSP/Components/stmpe1600/stmpe1600.c ****   
 393:Drivers/BSP/Components/stmpe1600/stmpe1600.c ****   /* Get the current register value */
 394:Drivers/BSP/Components/stmpe1600/stmpe1600.c ****   IOE_ReadMultiple(DeviceAddr, STMPE1600_REG_GPPIR, tmpData, 2);
 395:Drivers/BSP/Components/stmpe1600/stmpe1600.c ****   
 396:Drivers/BSP/Components/stmpe1600/stmpe1600.c ****   tmp = ((uint16_t)tmpData[0] | (((uint16_t)tmpData[1]) << 8));  
 397:Drivers/BSP/Components/stmpe1600/stmpe1600.c **** 
 398:Drivers/BSP/Components/stmpe1600/stmpe1600.c ****   /* Disable pin polarity inversion */
 399:Drivers/BSP/Components/stmpe1600/stmpe1600.c ****    tmp &= ~ (uint16_t)IO_Pin;
 400:Drivers/BSP/Components/stmpe1600/stmpe1600.c ****     
 401:Drivers/BSP/Components/stmpe1600/stmpe1600.c ****   /* Set the new register value */  
 402:Drivers/BSP/Components/stmpe1600/stmpe1600.c ****   IOE_WriteMultiple(DeviceAddr, STMPE1600_REG_GPPIR, (uint8_t *)&tmp, 2);  
 403:Drivers/BSP/Components/stmpe1600/stmpe1600.c **** }
 404:Drivers/BSP/Components/stmpe1600/stmpe1600.c **** 
 405:Drivers/BSP/Components/stmpe1600/stmpe1600.c **** /**
 406:Drivers/BSP/Components/stmpe1600/stmpe1600.c ****   * @brief  Set the value of the selected IO pins.
 407:Drivers/BSP/Components/stmpe1600/stmpe1600.c ****   * @param  DeviceAddr: Device address on communication Bus.  
 408:Drivers/BSP/Components/stmpe1600/stmpe1600.c ****   * @param  IO_Pin: IO pin(s) to be set.
 409:Drivers/BSP/Components/stmpe1600/stmpe1600.c ****   *         This parameter could be any combination of the following values:
 410:Drivers/BSP/Components/stmpe1600/stmpe1600.c ****   *   @arg  STMPE1600_PIN_x: where x can be from 0 to 15.
 411:Drivers/BSP/Components/stmpe1600/stmpe1600.c ****   * @param  PinState: The value to be set. 
 412:Drivers/BSP/Components/stmpe1600/stmpe1600.c ****   * @retval None
 413:Drivers/BSP/Components/stmpe1600/stmpe1600.c ****   */
 414:Drivers/BSP/Components/stmpe1600/stmpe1600.c **** void stmpe1600_IO_WritePin(uint16_t DeviceAddr, uint32_t IO_Pin, uint8_t PinState)
 415:Drivers/BSP/Components/stmpe1600/stmpe1600.c **** {
 416:Drivers/BSP/Components/stmpe1600/stmpe1600.c ****   uint8_t tmpData[2] = {0 , 0};
 417:Drivers/BSP/Components/stmpe1600/stmpe1600.c ****   
 418:Drivers/BSP/Components/stmpe1600/stmpe1600.c ****   /* Get the current register value */
 419:Drivers/BSP/Components/stmpe1600/stmpe1600.c ****   IOE_ReadMultiple(DeviceAddr, STMPE1600_REG_GPMR, tmpData, 2);
 420:Drivers/BSP/Components/stmpe1600/stmpe1600.c ****   
ARM GAS  /var/folders/0z/tsy30v1j4xl4_7kw94k978ww0000gn/T//ccsgo8Ff.s 			page 11


 421:Drivers/BSP/Components/stmpe1600/stmpe1600.c ****   tmp = ((uint16_t)tmpData[0] | (((uint16_t)tmpData[1]) << 8));  
 422:Drivers/BSP/Components/stmpe1600/stmpe1600.c ****   
 423:Drivers/BSP/Components/stmpe1600/stmpe1600.c ****   /* Set the pin state */
 424:Drivers/BSP/Components/stmpe1600/stmpe1600.c ****   if(PinState != 0)
 425:Drivers/BSP/Components/stmpe1600/stmpe1600.c ****   {
 426:Drivers/BSP/Components/stmpe1600/stmpe1600.c ****     tmp |= (uint16_t)IO_Pin;
 427:Drivers/BSP/Components/stmpe1600/stmpe1600.c ****   }  
 428:Drivers/BSP/Components/stmpe1600/stmpe1600.c ****   else 
 429:Drivers/BSP/Components/stmpe1600/stmpe1600.c ****   {
 430:Drivers/BSP/Components/stmpe1600/stmpe1600.c ****     tmp &= ~(uint16_t)IO_Pin;
 431:Drivers/BSP/Components/stmpe1600/stmpe1600.c ****   }
 432:Drivers/BSP/Components/stmpe1600/stmpe1600.c ****     
 433:Drivers/BSP/Components/stmpe1600/stmpe1600.c ****   /* Set the new register value */  
 434:Drivers/BSP/Components/stmpe1600/stmpe1600.c ****   IOE_WriteMultiple(DeviceAddr, STMPE1600_REG_GPSR, (uint8_t *)&tmp, 2);
 435:Drivers/BSP/Components/stmpe1600/stmpe1600.c **** }
 436:Drivers/BSP/Components/stmpe1600/stmpe1600.c **** 
 437:Drivers/BSP/Components/stmpe1600/stmpe1600.c **** /**
 438:Drivers/BSP/Components/stmpe1600/stmpe1600.c ****   * @brief  Read the state of the selected IO pin(s).
 439:Drivers/BSP/Components/stmpe1600/stmpe1600.c ****   * @param  DeviceAddr: Device address on communication Bus. 
 440:Drivers/BSP/Components/stmpe1600/stmpe1600.c ****   * @param  IO_Pin: IO pin(s) to be read.  
 441:Drivers/BSP/Components/stmpe1600/stmpe1600.c ****   *         This parameter could be any combination of the following values:
 442:Drivers/BSP/Components/stmpe1600/stmpe1600.c ****   *   @arg  STMPE1600_PIN_x: where x can be from 0 to 15.
 443:Drivers/BSP/Components/stmpe1600/stmpe1600.c ****   * @retval State of the selected IO pin(s).
 444:Drivers/BSP/Components/stmpe1600/stmpe1600.c ****   */
 445:Drivers/BSP/Components/stmpe1600/stmpe1600.c **** uint32_t stmpe1600_IO_ReadPin(uint16_t DeviceAddr, uint32_t IO_Pin)
 446:Drivers/BSP/Components/stmpe1600/stmpe1600.c **** {
 154              		.loc 1 446 1 is_stmt 1 view -0
 155              		.cfi_startproc
 156              		@ args = 0, pretend = 0, frame = 8
 157              		@ frame_needed = 0, uses_anonymous_args = 0
 447:Drivers/BSP/Components/stmpe1600/stmpe1600.c ****   uint8_t tmpData[2] = {0 , 0};
 158              		.loc 1 447 3 view .LVU22
 446:Drivers/BSP/Components/stmpe1600/stmpe1600.c ****   uint8_t tmpData[2] = {0 , 0};
 159              		.loc 1 446 1 is_stmt 0 view .LVU23
 160 0000 10B5     		push	{r4, lr}
 161              		.cfi_def_cfa_offset 8
 162              		.cfi_offset 4, -8
 163              		.cfi_offset 14, -4
 164 0002 82B0     		sub	sp, sp, #8
 165              		.cfi_def_cfa_offset 16
 166              		.loc 1 447 11 view .LVU24
 167 0004 4FF0000C 		mov	ip, #0
 448:Drivers/BSP/Components/stmpe1600/stmpe1600.c ****   
 449:Drivers/BSP/Components/stmpe1600/stmpe1600.c ****   /* Get the register value */
 450:Drivers/BSP/Components/stmpe1600/stmpe1600.c ****   IOE_ReadMultiple(DeviceAddr, STMPE1600_REG_GPMR, tmpData, 2);
 168              		.loc 1 450 3 view .LVU25
 169 0008 01AA     		add	r2, sp, #4
 446:Drivers/BSP/Components/stmpe1600/stmpe1600.c ****   uint8_t tmpData[2] = {0 , 0};
 170              		.loc 1 446 1 view .LVU26
 171 000a 0C46     		mov	r4, r1
 172              		.loc 1 450 3 view .LVU27
 173 000c 0223     		movs	r3, #2
 174 000e 1021     		movs	r1, #16
 175              	.LVL11:
 176              		.loc 1 450 3 view .LVU28
 177 0010 C0B2     		uxtb	r0, r0
 178              	.LVL12:
ARM GAS  /var/folders/0z/tsy30v1j4xl4_7kw94k978ww0000gn/T//ccsgo8Ff.s 			page 12


 447:Drivers/BSP/Components/stmpe1600/stmpe1600.c ****   
 179              		.loc 1 447 11 view .LVU29
 180 0012 ADF804C0 		strh	ip, [sp, #4]	@ movhi
 181              		.loc 1 450 3 is_stmt 1 view .LVU30
 182 0016 FFF7FEFF 		bl	IOE_ReadMultiple
 183              	.LVL13:
 451:Drivers/BSP/Components/stmpe1600/stmpe1600.c ****   
 452:Drivers/BSP/Components/stmpe1600/stmpe1600.c ****   tmp = ((uint16_t)tmpData[0] | (((uint16_t)tmpData[1]) << 8));
 184              		.loc 1 452 3 view .LVU31
 185 001a BDF80430 		ldrh	r3, [sp, #4]
 186              		.loc 1 452 7 is_stmt 0 view .LVU32
 187 001e 034A     		ldr	r2, .L9
 453:Drivers/BSP/Components/stmpe1600/stmpe1600.c ****   
 454:Drivers/BSP/Components/stmpe1600/stmpe1600.c ****   /* Return the pin(s) state */
 455:Drivers/BSP/Components/stmpe1600/stmpe1600.c ****   return(tmp & IO_Pin);  
 456:Drivers/BSP/Components/stmpe1600/stmpe1600.c **** }
 188              		.loc 1 456 1 view .LVU33
 189 0020 03EA0400 		and	r0, r3, r4
 452:Drivers/BSP/Components/stmpe1600/stmpe1600.c ****   
 190              		.loc 1 452 7 view .LVU34
 191 0024 1380     		strh	r3, [r2]	@ movhi
 455:Drivers/BSP/Components/stmpe1600/stmpe1600.c **** }
 192              		.loc 1 455 3 is_stmt 1 view .LVU35
 193              		.loc 1 456 1 is_stmt 0 view .LVU36
 194 0026 02B0     		add	sp, sp, #8
 195              		.cfi_def_cfa_offset 8
 196              		@ sp needed
 197 0028 10BD     		pop	{r4, pc}
 198              	.LVL14:
 199              	.L10:
 200              		.loc 1 456 1 view .LVU37
 201 002a 00BF     		.align	2
 202              	.L9:
 203 002c 00000000 		.word	.LANCHOR0
 204              		.cfi_endproc
 205              	.LFE12:
 207              		.section	.text.stmpe1600_IO_ITStatus,"ax",%progbits
 208              		.align	1
 209              		.p2align 2,,3
 210              		.global	stmpe1600_IO_ITStatus
 211              		.syntax unified
 212              		.thumb
 213              		.thumb_func
 215              	stmpe1600_IO_ITStatus:
 216              	.LVL15:
 217              	.LFB15:
 457:Drivers/BSP/Components/stmpe1600/stmpe1600.c **** 
 458:Drivers/BSP/Components/stmpe1600/stmpe1600.c **** /**
 459:Drivers/BSP/Components/stmpe1600/stmpe1600.c ****   * @brief  Enable the interrupt mode for the selected IO pin(s).
 460:Drivers/BSP/Components/stmpe1600/stmpe1600.c ****   * @param  DeviceAddr: Device address on communication Bus.     
 461:Drivers/BSP/Components/stmpe1600/stmpe1600.c ****   * @param  IO_Pin: IO pin(s) to be configured.  
 462:Drivers/BSP/Components/stmpe1600/stmpe1600.c ****   *         This parameter could be any combination of the following values:
 463:Drivers/BSP/Components/stmpe1600/stmpe1600.c ****   *   @arg  STMPE1600_PIN_x: where x can be from 0 to 15. 
 464:Drivers/BSP/Components/stmpe1600/stmpe1600.c ****   * @retval None
 465:Drivers/BSP/Components/stmpe1600/stmpe1600.c ****   */
 466:Drivers/BSP/Components/stmpe1600/stmpe1600.c **** void stmpe1600_IO_EnablePinIT(uint16_t DeviceAddr, uint32_t IO_Pin)
 467:Drivers/BSP/Components/stmpe1600/stmpe1600.c **** {
ARM GAS  /var/folders/0z/tsy30v1j4xl4_7kw94k978ww0000gn/T//ccsgo8Ff.s 			page 13


 468:Drivers/BSP/Components/stmpe1600/stmpe1600.c ****   uint8_t tmpData[2] = {0 , 0};
 469:Drivers/BSP/Components/stmpe1600/stmpe1600.c ****     
 470:Drivers/BSP/Components/stmpe1600/stmpe1600.c ****   /* Enable global interrupt */
 471:Drivers/BSP/Components/stmpe1600/stmpe1600.c ****   stmpe1600_EnableGlobalIT(DeviceAddr);
 472:Drivers/BSP/Components/stmpe1600/stmpe1600.c **** 
 473:Drivers/BSP/Components/stmpe1600/stmpe1600.c ****   /* Get the current register value */
 474:Drivers/BSP/Components/stmpe1600/stmpe1600.c ****   IOE_ReadMultiple(DeviceAddr, STMPE1600_REG_IEGPIOR, tmpData, 2);
 475:Drivers/BSP/Components/stmpe1600/stmpe1600.c ****   
 476:Drivers/BSP/Components/stmpe1600/stmpe1600.c ****   tmp = ((uint16_t)tmpData[0] | (((uint16_t)tmpData[1]) << 8));  
 477:Drivers/BSP/Components/stmpe1600/stmpe1600.c ****   
 478:Drivers/BSP/Components/stmpe1600/stmpe1600.c ****   /* Put pin in IT mode */
 479:Drivers/BSP/Components/stmpe1600/stmpe1600.c ****   tmp |= (uint16_t)IO_Pin;
 480:Drivers/BSP/Components/stmpe1600/stmpe1600.c ****     
 481:Drivers/BSP/Components/stmpe1600/stmpe1600.c ****   /* Write the new register value */
 482:Drivers/BSP/Components/stmpe1600/stmpe1600.c ****   IOE_WriteMultiple(DeviceAddr, STMPE1600_REG_IEGPIOR, (uint8_t *)&tmp, 2);
 483:Drivers/BSP/Components/stmpe1600/stmpe1600.c **** }
 484:Drivers/BSP/Components/stmpe1600/stmpe1600.c **** 
 485:Drivers/BSP/Components/stmpe1600/stmpe1600.c **** /**
 486:Drivers/BSP/Components/stmpe1600/stmpe1600.c ****   * @brief  Disable the interrupt mode for the selected IO pin(s).
 487:Drivers/BSP/Components/stmpe1600/stmpe1600.c ****   * @param  DeviceAddr: Device address on communication Bus.    
 488:Drivers/BSP/Components/stmpe1600/stmpe1600.c ****   * @param  IO_Pin: IO pin(s) to be configured.  
 489:Drivers/BSP/Components/stmpe1600/stmpe1600.c ****   *         This parameter could be any combination of the following values:
 490:Drivers/BSP/Components/stmpe1600/stmpe1600.c ****   *   @arg  STMPE1600_PIN_x: where x can be from 0 to 15. 
 491:Drivers/BSP/Components/stmpe1600/stmpe1600.c ****   * @retval None
 492:Drivers/BSP/Components/stmpe1600/stmpe1600.c ****   */
 493:Drivers/BSP/Components/stmpe1600/stmpe1600.c **** void stmpe1600_IO_DisablePinIT(uint16_t DeviceAddr, uint32_t IO_Pin)
 494:Drivers/BSP/Components/stmpe1600/stmpe1600.c **** {
 495:Drivers/BSP/Components/stmpe1600/stmpe1600.c ****   uint8_t tmpData[2] = {0 , 0};
 496:Drivers/BSP/Components/stmpe1600/stmpe1600.c ****   
 497:Drivers/BSP/Components/stmpe1600/stmpe1600.c ****   /* Get the current register value */
 498:Drivers/BSP/Components/stmpe1600/stmpe1600.c ****   IOE_ReadMultiple(DeviceAddr, STMPE1600_REG_IEGPIOR, tmpData, 2);
 499:Drivers/BSP/Components/stmpe1600/stmpe1600.c ****   
 500:Drivers/BSP/Components/stmpe1600/stmpe1600.c ****   tmp = ((uint16_t)tmpData[0] | (((uint16_t)tmpData[1]) << 8));  
 501:Drivers/BSP/Components/stmpe1600/stmpe1600.c ****   
 502:Drivers/BSP/Components/stmpe1600/stmpe1600.c ****   /* Disable the IT pin mode */
 503:Drivers/BSP/Components/stmpe1600/stmpe1600.c ****   tmp &= ~(uint16_t)IO_Pin;
 504:Drivers/BSP/Components/stmpe1600/stmpe1600.c ****     
 505:Drivers/BSP/Components/stmpe1600/stmpe1600.c ****   /* Set the new register value */
 506:Drivers/BSP/Components/stmpe1600/stmpe1600.c ****   IOE_WriteMultiple(DeviceAddr, STMPE1600_REG_IEGPIOR, (uint8_t *)&tmp, 2); 
 507:Drivers/BSP/Components/stmpe1600/stmpe1600.c **** }
 508:Drivers/BSP/Components/stmpe1600/stmpe1600.c **** 
 509:Drivers/BSP/Components/stmpe1600/stmpe1600.c **** /**
 510:Drivers/BSP/Components/stmpe1600/stmpe1600.c ****   * @brief  Read the IT status of the selected IO pin(s)
 511:Drivers/BSP/Components/stmpe1600/stmpe1600.c ****   *         (clears all the pending bits if any). 
 512:Drivers/BSP/Components/stmpe1600/stmpe1600.c ****   * @param  DeviceAddr: Device address on communication Bus.  
 513:Drivers/BSP/Components/stmpe1600/stmpe1600.c ****   * @param  IO_Pin: IO pin(s) to be checked.  
 514:Drivers/BSP/Components/stmpe1600/stmpe1600.c ****   *         This parameter could be any combination of the following values:
 515:Drivers/BSP/Components/stmpe1600/stmpe1600.c ****   *   @arg  STMPE1600_PIN_x: where x can be from 0 to 15.           
 516:Drivers/BSP/Components/stmpe1600/stmpe1600.c ****   * @retval IT Status of the selected IO pin(s).
 517:Drivers/BSP/Components/stmpe1600/stmpe1600.c ****   */
 518:Drivers/BSP/Components/stmpe1600/stmpe1600.c **** uint32_t stmpe1600_IO_ITStatus(uint16_t DeviceAddr, uint32_t IO_Pin)
 519:Drivers/BSP/Components/stmpe1600/stmpe1600.c **** {
 218              		.loc 1 519 1 is_stmt 1 view -0
 219              		.cfi_startproc
 220              		@ args = 0, pretend = 0, frame = 8
 221              		@ frame_needed = 0, uses_anonymous_args = 0
 520:Drivers/BSP/Components/stmpe1600/stmpe1600.c ****   uint8_t tmpData[2] = {0 , 0};
ARM GAS  /var/folders/0z/tsy30v1j4xl4_7kw94k978ww0000gn/T//ccsgo8Ff.s 			page 14


 222              		.loc 1 520 3 view .LVU39
 519:Drivers/BSP/Components/stmpe1600/stmpe1600.c ****   uint8_t tmpData[2] = {0 , 0};
 223              		.loc 1 519 1 is_stmt 0 view .LVU40
 224 0000 10B5     		push	{r4, lr}
 225              		.cfi_def_cfa_offset 8
 226              		.cfi_offset 4, -8
 227              		.cfi_offset 14, -4
 228 0002 82B0     		sub	sp, sp, #8
 229              		.cfi_def_cfa_offset 16
 230              		.loc 1 520 11 view .LVU41
 231 0004 4FF0000C 		mov	ip, #0
 521:Drivers/BSP/Components/stmpe1600/stmpe1600.c ****   
 522:Drivers/BSP/Components/stmpe1600/stmpe1600.c ****   /* Get the register value */
 523:Drivers/BSP/Components/stmpe1600/stmpe1600.c ****   IOE_ReadMultiple(DeviceAddr, STMPE1600_REG_ISGPIOR, tmpData, 2);
 232              		.loc 1 523 3 view .LVU42
 233 0008 01AA     		add	r2, sp, #4
 519:Drivers/BSP/Components/stmpe1600/stmpe1600.c ****   uint8_t tmpData[2] = {0 , 0};
 234              		.loc 1 519 1 view .LVU43
 235 000a 0C46     		mov	r4, r1
 236              		.loc 1 523 3 view .LVU44
 237 000c 0223     		movs	r3, #2
 238 000e 0A21     		movs	r1, #10
 239              	.LVL16:
 240              		.loc 1 523 3 view .LVU45
 241 0010 C0B2     		uxtb	r0, r0
 242              	.LVL17:
 520:Drivers/BSP/Components/stmpe1600/stmpe1600.c ****   
 243              		.loc 1 520 11 view .LVU46
 244 0012 ADF804C0 		strh	ip, [sp, #4]	@ movhi
 245              		.loc 1 523 3 is_stmt 1 view .LVU47
 246 0016 FFF7FEFF 		bl	IOE_ReadMultiple
 247              	.LVL18:
 524:Drivers/BSP/Components/stmpe1600/stmpe1600.c ****   
 525:Drivers/BSP/Components/stmpe1600/stmpe1600.c ****   tmp = ((uint16_t)tmpData[0] | (((uint16_t)tmpData[1]) << 8));
 248              		.loc 1 525 3 view .LVU48
 249 001a BDF80430 		ldrh	r3, [sp, #4]
 250              		.loc 1 525 7 is_stmt 0 view .LVU49
 251 001e 044A     		ldr	r2, .L13
 526:Drivers/BSP/Components/stmpe1600/stmpe1600.c ****   
 527:Drivers/BSP/Components/stmpe1600/stmpe1600.c ****   /* Return the pin IT status */
 528:Drivers/BSP/Components/stmpe1600/stmpe1600.c ****   return((tmp & IO_Pin) == IO_Pin);  
 252              		.loc 1 528 25 view .LVU50
 253 0020 9C43     		bics	r4, r4, r3
 254              	.LVL19:
 529:Drivers/BSP/Components/stmpe1600/stmpe1600.c **** }
 255              		.loc 1 529 1 view .LVU51
 256 0022 0CBF     		ite	eq
 257 0024 0120     		moveq	r0, #1
 258 0026 0020     		movne	r0, #0
 525:Drivers/BSP/Components/stmpe1600/stmpe1600.c ****   
 259              		.loc 1 525 7 view .LVU52
 260 0028 1380     		strh	r3, [r2]	@ movhi
 528:Drivers/BSP/Components/stmpe1600/stmpe1600.c **** }
 261              		.loc 1 528 3 is_stmt 1 view .LVU53
 262              		.loc 1 529 1 is_stmt 0 view .LVU54
 263 002a 02B0     		add	sp, sp, #8
 264              		.cfi_def_cfa_offset 8
ARM GAS  /var/folders/0z/tsy30v1j4xl4_7kw94k978ww0000gn/T//ccsgo8Ff.s 			page 15


 265              		@ sp needed
 266 002c 10BD     		pop	{r4, pc}
 267              	.L14:
 268 002e 00BF     		.align	2
 269              	.L13:
 270 0030 00000000 		.word	.LANCHOR0
 271              		.cfi_endproc
 272              	.LFE15:
 274              		.section	.text.stmpe1600_IO_ClearIT,"ax",%progbits
 275              		.align	1
 276              		.p2align 2,,3
 277              		.global	stmpe1600_IO_ClearIT
 278              		.syntax unified
 279              		.thumb
 280              		.thumb_func
 282              	stmpe1600_IO_ClearIT:
 283              	.LVL20:
 284              	.LFB17:
 530:Drivers/BSP/Components/stmpe1600/stmpe1600.c **** 
 531:Drivers/BSP/Components/stmpe1600/stmpe1600.c **** /**
 532:Drivers/BSP/Components/stmpe1600/stmpe1600.c ****   * @brief  Detect an IT pending bit from the selected IO pin(s).
 533:Drivers/BSP/Components/stmpe1600/stmpe1600.c ****   *         (clears all the pending bits if any).
 534:Drivers/BSP/Components/stmpe1600/stmpe1600.c ****   * @param  DeviceAddr: Device address on communication Bus.  
 535:Drivers/BSP/Components/stmpe1600/stmpe1600.c ****   * @param  IO_Pin: IO pin(s) to be checked.  
 536:Drivers/BSP/Components/stmpe1600/stmpe1600.c ****   *         This parameter could be any combination of the following values:
 537:Drivers/BSP/Components/stmpe1600/stmpe1600.c ****   *   @arg  STMPE1600_PIN_x: where x can be from 0 to 15.           
 538:Drivers/BSP/Components/stmpe1600/stmpe1600.c ****   * @retval IT pending bit detection status.
 539:Drivers/BSP/Components/stmpe1600/stmpe1600.c ****   */
 540:Drivers/BSP/Components/stmpe1600/stmpe1600.c **** uint8_t stmpe1600_IO_ReadIT(uint16_t DeviceAddr, uint32_t IO_Pin)
 541:Drivers/BSP/Components/stmpe1600/stmpe1600.c **** {
 542:Drivers/BSP/Components/stmpe1600/stmpe1600.c ****   uint8_t tmpData[2] = {0 , 0};
 543:Drivers/BSP/Components/stmpe1600/stmpe1600.c ****   
 544:Drivers/BSP/Components/stmpe1600/stmpe1600.c ****   /* Get the register value */
 545:Drivers/BSP/Components/stmpe1600/stmpe1600.c ****   IOE_ReadMultiple(DeviceAddr, STMPE1600_REG_ISGPIOR, tmpData, 2);
 546:Drivers/BSP/Components/stmpe1600/stmpe1600.c ****   
 547:Drivers/BSP/Components/stmpe1600/stmpe1600.c ****   tmp = ((uint16_t)tmpData[0] | (((uint16_t)tmpData[1]) << 8));
 548:Drivers/BSP/Components/stmpe1600/stmpe1600.c ****   
 549:Drivers/BSP/Components/stmpe1600/stmpe1600.c ****   /* Return if there is an IT pending bit or not */
 550:Drivers/BSP/Components/stmpe1600/stmpe1600.c ****   return(tmp & IO_Pin);
 551:Drivers/BSP/Components/stmpe1600/stmpe1600.c **** }
 552:Drivers/BSP/Components/stmpe1600/stmpe1600.c **** 
 553:Drivers/BSP/Components/stmpe1600/stmpe1600.c **** /**
 554:Drivers/BSP/Components/stmpe1600/stmpe1600.c ****   * @brief  Clear all the IT pending bits if any. 
 555:Drivers/BSP/Components/stmpe1600/stmpe1600.c ****   * @param  DeviceAddr: Device address on communication Bus.            
 556:Drivers/BSP/Components/stmpe1600/stmpe1600.c ****   * @retval None
 557:Drivers/BSP/Components/stmpe1600/stmpe1600.c ****   */
 558:Drivers/BSP/Components/stmpe1600/stmpe1600.c **** void stmpe1600_IO_ClearIT(uint16_t DeviceAddr, uint32_t IO_Pin)
 559:Drivers/BSP/Components/stmpe1600/stmpe1600.c **** {
 285              		.loc 1 559 1 is_stmt 1 view -0
 286              		.cfi_startproc
 287              		@ args = 0, pretend = 0, frame = 8
 288              		@ frame_needed = 0, uses_anonymous_args = 0
 560:Drivers/BSP/Components/stmpe1600/stmpe1600.c ****   uint8_t tmpData[2] = {0 , 0};
 289              		.loc 1 560 3 view .LVU56
 559:Drivers/BSP/Components/stmpe1600/stmpe1600.c ****   uint8_t tmpData[2] = {0 , 0};
 290              		.loc 1 559 1 is_stmt 0 view .LVU57
 291 0000 00B5     		push	{lr}
ARM GAS  /var/folders/0z/tsy30v1j4xl4_7kw94k978ww0000gn/T//ccsgo8Ff.s 			page 16


 292              		.cfi_def_cfa_offset 4
 293              		.cfi_offset 14, -4
 294 0002 83B0     		sub	sp, sp, #12
 295              		.cfi_def_cfa_offset 16
 296              		.loc 1 560 11 view .LVU58
 297 0004 4FF0000C 		mov	ip, #0
 561:Drivers/BSP/Components/stmpe1600/stmpe1600.c ****     
 562:Drivers/BSP/Components/stmpe1600/stmpe1600.c ****   /* Get the register value to clear all pending bits */
 563:Drivers/BSP/Components/stmpe1600/stmpe1600.c ****   IOE_ReadMultiple(DeviceAddr, STMPE1600_REG_ISGPIOR, tmpData, 2);
 298              		.loc 1 563 3 view .LVU59
 299 0008 0223     		movs	r3, #2
 300 000a 01AA     		add	r2, sp, #4
 301 000c 0A21     		movs	r1, #10
 302              	.LVL21:
 303              		.loc 1 563 3 view .LVU60
 304 000e C0B2     		uxtb	r0, r0
 305              	.LVL22:
 560:Drivers/BSP/Components/stmpe1600/stmpe1600.c ****     
 306              		.loc 1 560 11 view .LVU61
 307 0010 ADF804C0 		strh	ip, [sp, #4]	@ movhi
 308              		.loc 1 563 3 is_stmt 1 view .LVU62
 309 0014 FFF7FEFF 		bl	IOE_ReadMultiple
 310              	.LVL23:
 564:Drivers/BSP/Components/stmpe1600/stmpe1600.c **** }
 311              		.loc 1 564 1 is_stmt 0 view .LVU63
 312 0018 03B0     		add	sp, sp, #12
 313              		.cfi_def_cfa_offset 4
 314              		@ sp needed
 315 001a 5DF804FB 		ldr	pc, [sp], #4
 316              		.cfi_endproc
 317              	.LFE17:
 319 001e 00BF     		.section	.text.stmpe1600_IO_WritePin,"ax",%progbits
 320              		.align	1
 321              		.p2align 2,,3
 322              		.global	stmpe1600_IO_WritePin
 323              		.syntax unified
 324              		.thumb
 325              		.thumb_func
 327              	stmpe1600_IO_WritePin:
 328              	.LVL24:
 329              	.LFB11:
 415:Drivers/BSP/Components/stmpe1600/stmpe1600.c ****   uint8_t tmpData[2] = {0 , 0};
 330              		.loc 1 415 1 is_stmt 1 view -0
 331              		.cfi_startproc
 332              		@ args = 0, pretend = 0, frame = 8
 333              		@ frame_needed = 0, uses_anonymous_args = 0
 416:Drivers/BSP/Components/stmpe1600/stmpe1600.c ****   
 334              		.loc 1 416 3 view .LVU65
 415:Drivers/BSP/Components/stmpe1600/stmpe1600.c ****   uint8_t tmpData[2] = {0 , 0};
 335              		.loc 1 415 1 is_stmt 0 view .LVU66
 336 0000 70B5     		push	{r4, r5, r6, lr}
 337              		.cfi_def_cfa_offset 16
 338              		.cfi_offset 4, -16
 339              		.cfi_offset 5, -12
 340              		.cfi_offset 6, -8
 341              		.cfi_offset 14, -4
 342 0002 82B0     		sub	sp, sp, #8
ARM GAS  /var/folders/0z/tsy30v1j4xl4_7kw94k978ww0000gn/T//ccsgo8Ff.s 			page 17


 343              		.cfi_def_cfa_offset 24
 419:Drivers/BSP/Components/stmpe1600/stmpe1600.c ****   
 344              		.loc 1 419 3 view .LVU67
 345 0004 C4B2     		uxtb	r4, r0
 415:Drivers/BSP/Components/stmpe1600/stmpe1600.c ****   uint8_t tmpData[2] = {0 , 0};
 346              		.loc 1 415 1 view .LVU68
 347 0006 1646     		mov	r6, r2
 416:Drivers/BSP/Components/stmpe1600/stmpe1600.c ****   
 348              		.loc 1 416 11 view .LVU69
 349 0008 0022     		movs	r2, #0
 350              	.LVL25:
 419:Drivers/BSP/Components/stmpe1600/stmpe1600.c ****   
 351              		.loc 1 419 3 view .LVU70
 352 000a 0223     		movs	r3, #2
 416:Drivers/BSP/Components/stmpe1600/stmpe1600.c ****   
 353              		.loc 1 416 11 view .LVU71
 354 000c ADF80420 		strh	r2, [sp, #4]	@ movhi
 419:Drivers/BSP/Components/stmpe1600/stmpe1600.c ****   
 355              		.loc 1 419 3 is_stmt 1 view .LVU72
 415:Drivers/BSP/Components/stmpe1600/stmpe1600.c ****   uint8_t tmpData[2] = {0 , 0};
 356              		.loc 1 415 1 is_stmt 0 view .LVU73
 357 0010 0D46     		mov	r5, r1
 419:Drivers/BSP/Components/stmpe1600/stmpe1600.c ****   
 358              		.loc 1 419 3 view .LVU74
 359 0012 01AA     		add	r2, sp, #4
 360 0014 1021     		movs	r1, #16
 361              	.LVL26:
 419:Drivers/BSP/Components/stmpe1600/stmpe1600.c ****   
 362              		.loc 1 419 3 view .LVU75
 363 0016 2046     		mov	r0, r4
 364              	.LVL27:
 419:Drivers/BSP/Components/stmpe1600/stmpe1600.c ****   
 365              		.loc 1 419 3 view .LVU76
 366 0018 FFF7FEFF 		bl	IOE_ReadMultiple
 367              	.LVL28:
 421:Drivers/BSP/Components/stmpe1600/stmpe1600.c ****   
 368              		.loc 1 421 3 is_stmt 1 view .LVU77
 369 001c BDF80430 		ldrh	r3, [sp, #4]
 424:Drivers/BSP/Components/stmpe1600/stmpe1600.c ****   {
 370              		.loc 1 424 3 view .LVU78
 424:Drivers/BSP/Components/stmpe1600/stmpe1600.c ****   {
 371              		.loc 1 424 5 is_stmt 0 view .LVU79
 372 0020 5EB1     		cbz	r6, .L18
 426:Drivers/BSP/Components/stmpe1600/stmpe1600.c ****   }  
 373              		.loc 1 426 5 is_stmt 1 view .LVU80
 426:Drivers/BSP/Components/stmpe1600/stmpe1600.c ****   }  
 374              		.loc 1 426 9 is_stmt 0 view .LVU81
 375 0022 43EA0501 		orr	r1, r3, r5
 376 0026 89B2     		uxth	r1, r1
 377              	.L19:
 378 0028 054A     		ldr	r2, .L21
 434:Drivers/BSP/Components/stmpe1600/stmpe1600.c **** }
 379              		.loc 1 434 3 view .LVU82
 380 002a 0223     		movs	r3, #2
 381 002c 1180     		strh	r1, [r2]	@ movhi
 434:Drivers/BSP/Components/stmpe1600/stmpe1600.c **** }
 382              		.loc 1 434 3 is_stmt 1 view .LVU83
ARM GAS  /var/folders/0z/tsy30v1j4xl4_7kw94k978ww0000gn/T//ccsgo8Ff.s 			page 18


 383 002e 2046     		mov	r0, r4
 384 0030 1221     		movs	r1, #18
 385 0032 FFF7FEFF 		bl	IOE_WriteMultiple
 386              	.LVL29:
 435:Drivers/BSP/Components/stmpe1600/stmpe1600.c **** 
 387              		.loc 1 435 1 is_stmt 0 view .LVU84
 388 0036 02B0     		add	sp, sp, #8
 389              		.cfi_remember_state
 390              		.cfi_def_cfa_offset 16
 391              		@ sp needed
 392 0038 70BD     		pop	{r4, r5, r6, pc}
 393              	.LVL30:
 394              	.L18:
 395              		.cfi_restore_state
 430:Drivers/BSP/Components/stmpe1600/stmpe1600.c ****   }
 396              		.loc 1 430 5 is_stmt 1 view .LVU85
 430:Drivers/BSP/Components/stmpe1600/stmpe1600.c ****   }
 397              		.loc 1 430 9 is_stmt 0 view .LVU86
 398 003a 23EA0501 		bic	r1, r3, r5
 399 003e F3E7     		b	.L19
 400              	.L22:
 401              		.align	2
 402              	.L21:
 403 0040 00000000 		.word	.LANCHOR0
 404              		.cfi_endproc
 405              	.LFE11:
 407              		.section	.text.stmpe1600_Init,"ax",%progbits
 408              		.align	1
 409              		.p2align 2,,3
 410              		.global	stmpe1600_Init
 411              		.syntax unified
 412              		.thumb
 413              		.thumb_func
 415              	stmpe1600_Init:
 416              	.LVL31:
 417              	.LFB0:
 119:Drivers/BSP/Components/stmpe1600/stmpe1600.c ****   uint8_t instance;
 418              		.loc 1 119 1 is_stmt 1 view -0
 419              		.cfi_startproc
 420              		@ args = 0, pretend = 0, frame = 0
 421              		@ frame_needed = 0, uses_anonymous_args = 0
 120:Drivers/BSP/Components/stmpe1600/stmpe1600.c ****   uint8_t empty;
 422              		.loc 1 120 3 view .LVU88
 121:Drivers/BSP/Components/stmpe1600/stmpe1600.c ****   
 423              		.loc 1 121 3 view .LVU89
 124:Drivers/BSP/Components/stmpe1600/stmpe1600.c ****   
 424              		.loc 1 124 3 view .LVU90
 425              	.LBB26:
 426              	.LBI26:
 565:Drivers/BSP/Components/stmpe1600/stmpe1600.c **** 
 566:Drivers/BSP/Components/stmpe1600/stmpe1600.c **** /**
 567:Drivers/BSP/Components/stmpe1600/stmpe1600.c ****   * @brief  Check if the device instance of the selected address is already registered
 568:Drivers/BSP/Components/stmpe1600/stmpe1600.c ****   *         and return its index 
 569:Drivers/BSP/Components/stmpe1600/stmpe1600.c ****   * @param  DeviceAddr: Device address on communication Bus.
 570:Drivers/BSP/Components/stmpe1600/stmpe1600.c ****   * @retval Index of the device instance if registered, 0xFF if not.
 571:Drivers/BSP/Components/stmpe1600/stmpe1600.c ****   */
 572:Drivers/BSP/Components/stmpe1600/stmpe1600.c **** static uint8_t stmpe1600_GetInstance(uint16_t DeviceAddr)
ARM GAS  /var/folders/0z/tsy30v1j4xl4_7kw94k978ww0000gn/T//ccsgo8Ff.s 			page 19


 427              		.loc 1 572 16 view .LVU91
 428              	.LBB27:
 573:Drivers/BSP/Components/stmpe1600/stmpe1600.c **** {
 574:Drivers/BSP/Components/stmpe1600/stmpe1600.c ****   uint8_t idx = 0;
 429              		.loc 1 574 3 view .LVU92
 575:Drivers/BSP/Components/stmpe1600/stmpe1600.c ****   
 576:Drivers/BSP/Components/stmpe1600/stmpe1600.c ****   /* Check all the registered instances */
 577:Drivers/BSP/Components/stmpe1600/stmpe1600.c ****   for(idx = 0; idx < STMPE1600_MAX_INSTANCE ; idx ++)
 430              		.loc 1 577 3 view .LVU93
 431              		.loc 1 577 20 view .LVU94
 578:Drivers/BSP/Components/stmpe1600/stmpe1600.c ****   {
 579:Drivers/BSP/Components/stmpe1600/stmpe1600.c ****     /* Return index if there is address match */
 580:Drivers/BSP/Components/stmpe1600/stmpe1600.c ****     if(stmpe1600[idx] == DeviceAddr)
 432              		.loc 1 580 5 view .LVU95
 433              		.loc 1 580 17 is_stmt 0 view .LVU96
 434 0000 104A     		ldr	r2, .L30
 435 0002 1378     		ldrb	r3, [r2]	@ zero_extendqisi2
 436              		.loc 1 580 7 view .LVU97
 437 0004 9842     		cmp	r0, r3
 438 0006 04D0     		beq	.L23
 577:Drivers/BSP/Components/stmpe1600/stmpe1600.c ****   {
 439              		.loc 1 577 51 is_stmt 1 view .LVU98
 440              	.LVL32:
 577:Drivers/BSP/Components/stmpe1600/stmpe1600.c ****   {
 441              		.loc 1 577 20 view .LVU99
 442              		.loc 1 580 5 view .LVU100
 443              		.loc 1 580 17 is_stmt 0 view .LVU101
 444 0008 5178     		ldrb	r1, [r2, #1]	@ zero_extendqisi2
 445              		.loc 1 580 7 view .LVU102
 446 000a 8842     		cmp	r0, r1
 447 000c 01D0     		beq	.L23
 577:Drivers/BSP/Components/stmpe1600/stmpe1600.c ****   {
 448              		.loc 1 577 51 is_stmt 1 view .LVU103
 449              	.LVL33:
 577:Drivers/BSP/Components/stmpe1600/stmpe1600.c ****   {
 450              		.loc 1 577 20 view .LVU104
 577:Drivers/BSP/Components/stmpe1600/stmpe1600.c ****   {
 451              		.loc 1 577 20 is_stmt 0 view .LVU105
 452              	.LBE27:
 453              	.LBE26:
 126:Drivers/BSP/Components/stmpe1600/stmpe1600.c ****   {
 454              		.loc 1 126 3 is_stmt 1 view .LVU106
 455              	.LBB28:
 456              	.LBI28:
 118:Drivers/BSP/Components/stmpe1600/stmpe1600.c **** {
 457              		.loc 1 118 6 view .LVU107
 458              	.LBB29:
 459              	.LBB30:
 460              	.LBB31:
 577:Drivers/BSP/Components/stmpe1600/stmpe1600.c ****   {
 461              		.loc 1 577 20 view .LVU108
 462              		.loc 1 580 5 view .LVU109
 463              		.loc 1 580 7 is_stmt 0 view .LVU110
 464 000e 13B1     		cbz	r3, .L25
 577:Drivers/BSP/Components/stmpe1600/stmpe1600.c ****   {
 465              		.loc 1 577 51 is_stmt 1 view .LVU111
 466              	.LVL34:
ARM GAS  /var/folders/0z/tsy30v1j4xl4_7kw94k978ww0000gn/T//ccsgo8Ff.s 			page 20


 577:Drivers/BSP/Components/stmpe1600/stmpe1600.c ****   {
 467              		.loc 1 577 20 view .LVU112
 468              		.loc 1 580 5 view .LVU113
 469              		.loc 1 580 7 is_stmt 0 view .LVU114
 470 0010 01B1     		cbz	r1, .L29
 471              	.LVL35:
 472              	.L23:
 473              		.loc 1 580 7 view .LVU115
 474 0012 7047     		bx	lr
 475              	.LVL36:
 476              	.L29:
 477              		.loc 1 580 7 view .LVU116
 478 0014 0123     		movs	r3, #1
 479              	.LVL37:
 480              	.L25:
 481              		.loc 1 580 7 view .LVU117
 482              	.LBE31:
 483              	.LBE30:
 134:Drivers/BSP/Components/stmpe1600/stmpe1600.c ****       
 484              		.loc 1 134 7 is_stmt 1 view .LVU118
 485              	.LBE29:
 486              	.LBE28:
 119:Drivers/BSP/Components/stmpe1600/stmpe1600.c ****   uint8_t instance;
 487              		.loc 1 119 1 is_stmt 0 view .LVU119
 488 0016 10B5     		push	{r4, lr}
 489              		.cfi_def_cfa_offset 8
 490              		.cfi_offset 4, -8
 491              		.cfi_offset 14, -4
 492              	.LBB38:
 493              	.LBB36:
 134:Drivers/BSP/Components/stmpe1600/stmpe1600.c ****       
 494              		.loc 1 134 24 view .LVU120
 495 0018 C4B2     		uxtb	r4, r0
 496 001a D454     		strb	r4, [r2, r3]
 137:Drivers/BSP/Components/stmpe1600/stmpe1600.c ****       
 497              		.loc 1 137 7 is_stmt 1 view .LVU121
 498 001c FFF7FEFF 		bl	IOE_Init
 499              	.LVL38:
 140:Drivers/BSP/Components/stmpe1600/stmpe1600.c ****     }
 500              		.loc 1 140 7 view .LVU122
 501              	.LBB32:
 502              	.LBI32:
 160:Drivers/BSP/Components/stmpe1600/stmpe1600.c **** {
 503              		.loc 1 160 6 view .LVU123
 504              	.LBB33:
 163:Drivers/BSP/Components/stmpe1600/stmpe1600.c **** 
 505              		.loc 1 163 3 view .LVU124
 506 0020 8022     		movs	r2, #128
 507 0022 0321     		movs	r1, #3
 508 0024 2046     		mov	r0, r4
 509 0026 FFF7FEFF 		bl	IOE_Write
 510              	.LVL39:
 166:Drivers/BSP/Components/stmpe1600/stmpe1600.c ****   
 511              		.loc 1 166 3 view .LVU125
 512 002a 0220     		movs	r0, #2
 513 002c FFF7FEFF 		bl	IOE_Delay
 514              	.LVL40:
ARM GAS  /var/folders/0z/tsy30v1j4xl4_7kw94k978ww0000gn/T//ccsgo8Ff.s 			page 21


 169:Drivers/BSP/Components/stmpe1600/stmpe1600.c ****   
 515              		.loc 1 169 3 view .LVU126
 516 0030 2046     		mov	r0, r4
 517 0032 0022     		movs	r2, #0
 518 0034 0321     		movs	r1, #3
 519 0036 FFF7FEFF 		bl	IOE_Write
 520              	.LVL41:
 172:Drivers/BSP/Components/stmpe1600/stmpe1600.c **** }
 521              		.loc 1 172 3 view .LVU127
 522              	.LBE33:
 523              	.LBE32:
 524              	.LBE36:
 525              	.LBE38:
 143:Drivers/BSP/Components/stmpe1600/stmpe1600.c **** 
 526              		.loc 1 143 1 is_stmt 0 view .LVU128
 527 003a BDE81040 		pop	{r4, lr}
 528              		.cfi_restore 14
 529              		.cfi_restore 4
 530              		.cfi_def_cfa_offset 0
 531              	.LBB39:
 532              	.LBB37:
 533              	.LBB35:
 534              	.LBB34:
 172:Drivers/BSP/Components/stmpe1600/stmpe1600.c **** }
 535              		.loc 1 172 3 view .LVU129
 536 003e 0220     		movs	r0, #2
 537 0040 FFF7FEBF 		b	IOE_Delay
 538              	.LVL42:
 539              	.L31:
 540              		.align	2
 541              	.L30:
 542 0044 00000000 		.word	.LANCHOR1
 543              	.LBE34:
 544              	.LBE35:
 545              	.LBE37:
 546              	.LBE39:
 547              		.cfi_endproc
 548              	.LFE0:
 550              		.section	.text.stmpe1600_SetITPolarity,"ax",%progbits
 551              		.align	1
 552              		.p2align 2,,3
 553              		.global	stmpe1600_SetITPolarity
 554              		.syntax unified
 555              		.thumb
 556              		.thumb_func
 558              	stmpe1600_SetITPolarity:
 559              	.LVL43:
 560              	.LFB4:
 203:Drivers/BSP/Components/stmpe1600/stmpe1600.c ****   uint8_t tmp = 0;
 561              		.loc 1 203 1 is_stmt 1 view -0
 562              		.cfi_startproc
 563              		@ args = 0, pretend = 0, frame = 0
 564              		@ frame_needed = 0, uses_anonymous_args = 0
 204:Drivers/BSP/Components/stmpe1600/stmpe1600.c ****   
 565              		.loc 1 204 3 view .LVU131
 207:Drivers/BSP/Components/stmpe1600/stmpe1600.c ****   
 566              		.loc 1 207 3 view .LVU132
ARM GAS  /var/folders/0z/tsy30v1j4xl4_7kw94k978ww0000gn/T//ccsgo8Ff.s 			page 22


 203:Drivers/BSP/Components/stmpe1600/stmpe1600.c ****   uint8_t tmp = 0;
 567              		.loc 1 203 1 is_stmt 0 view .LVU133
 568 0000 38B5     		push	{r3, r4, r5, lr}
 569              		.cfi_def_cfa_offset 16
 570              		.cfi_offset 3, -16
 571              		.cfi_offset 4, -12
 572              		.cfi_offset 5, -8
 573              		.cfi_offset 14, -4
 207:Drivers/BSP/Components/stmpe1600/stmpe1600.c ****   
 574              		.loc 1 207 9 view .LVU134
 575 0002 C4B2     		uxtb	r4, r0
 203:Drivers/BSP/Components/stmpe1600/stmpe1600.c ****   uint8_t tmp = 0;
 576              		.loc 1 203 1 view .LVU135
 577 0004 0D46     		mov	r5, r1
 207:Drivers/BSP/Components/stmpe1600/stmpe1600.c ****   
 578              		.loc 1 207 9 view .LVU136
 579 0006 2046     		mov	r0, r4
 580              	.LVL44:
 207:Drivers/BSP/Components/stmpe1600/stmpe1600.c ****   
 581              		.loc 1 207 9 view .LVU137
 582 0008 0321     		movs	r1, #3
 583              	.LVL45:
 207:Drivers/BSP/Components/stmpe1600/stmpe1600.c ****   
 584              		.loc 1 207 9 view .LVU138
 585 000a FFF7FEFF 		bl	IOE_Read
 586              	.LVL46:
 210:Drivers/BSP/Components/stmpe1600/stmpe1600.c ****     
 587              		.loc 1 210 3 is_stmt 1 view .LVU139
 210:Drivers/BSP/Components/stmpe1600/stmpe1600.c ****     
 588              		.loc 1 210 7 is_stmt 0 view .LVU140
 589 000e 00F0FE00 		and	r0, r0, #254
 590              	.LVL47:
 213:Drivers/BSP/Components/stmpe1600/stmpe1600.c ****   
 591              		.loc 1 213 3 is_stmt 1 view .LVU141
 216:Drivers/BSP/Components/stmpe1600/stmpe1600.c **** }
 592              		.loc 1 216 3 view .LVU142
 593 0012 40EA0502 		orr	r2, r0, r5
 594 0016 0321     		movs	r1, #3
 595 0018 2046     		mov	r0, r4
 596              	.LVL48:
 217:Drivers/BSP/Components/stmpe1600/stmpe1600.c **** 
 597              		.loc 1 217 1 is_stmt 0 view .LVU143
 598 001a BDE83840 		pop	{r3, r4, r5, lr}
 599              		.cfi_restore 14
 600              		.cfi_restore 5
 601              		.cfi_restore 4
 602              		.cfi_restore 3
 603              		.cfi_def_cfa_offset 0
 216:Drivers/BSP/Components/stmpe1600/stmpe1600.c **** }
 604              		.loc 1 216 3 view .LVU144
 605 001e FFF7FEBF 		b	IOE_Write
 606              	.LVL49:
 607              		.cfi_endproc
 608              	.LFE4:
 610 0022 00BF     		.section	.text.stmpe1600_EnableGlobalIT,"ax",%progbits
 611              		.align	1
 612              		.p2align 2,,3
ARM GAS  /var/folders/0z/tsy30v1j4xl4_7kw94k978ww0000gn/T//ccsgo8Ff.s 			page 23


 613              		.global	stmpe1600_EnableGlobalIT
 614              		.syntax unified
 615              		.thumb
 616              		.thumb_func
 618              	stmpe1600_EnableGlobalIT:
 619              	.LVL50:
 620              	.LFB5:
 225:Drivers/BSP/Components/stmpe1600/stmpe1600.c ****   uint8_t tmpData[2] = {0 , 0};
 621              		.loc 1 225 1 is_stmt 1 view -0
 622              		.cfi_startproc
 623              		@ args = 0, pretend = 0, frame = 8
 624              		@ frame_needed = 0, uses_anonymous_args = 0
 226:Drivers/BSP/Components/stmpe1600/stmpe1600.c **** 
 625              		.loc 1 226 3 view .LVU146
 225:Drivers/BSP/Components/stmpe1600/stmpe1600.c ****   uint8_t tmpData[2] = {0 , 0};
 626              		.loc 1 225 1 is_stmt 0 view .LVU147
 627 0000 10B5     		push	{r4, lr}
 628              		.cfi_def_cfa_offset 8
 629              		.cfi_offset 4, -8
 630              		.cfi_offset 14, -4
 631 0002 82B0     		sub	sp, sp, #8
 632              		.cfi_def_cfa_offset 16
 232:Drivers/BSP/Components/stmpe1600/stmpe1600.c ****   
 633              		.loc 1 232 3 view .LVU148
 634 0004 C4B2     		uxtb	r4, r0
 226:Drivers/BSP/Components/stmpe1600/stmpe1600.c **** 
 635              		.loc 1 226 11 view .LVU149
 636 0006 0023     		movs	r3, #0
 637 0008 ADF80430 		strh	r3, [sp, #4]	@ movhi
 229:Drivers/BSP/Components/stmpe1600/stmpe1600.c ****   
 638              		.loc 1 229 3 is_stmt 1 view .LVU150
 639 000c FFF7FEFF 		bl	IOE_ITConfig
 640              	.LVL51:
 232:Drivers/BSP/Components/stmpe1600/stmpe1600.c ****   
 641              		.loc 1 232 3 view .LVU151
 642 0010 01AA     		add	r2, sp, #4
 643 0012 0223     		movs	r3, #2
 644 0014 0321     		movs	r1, #3
 645 0016 2046     		mov	r0, r4
 646 0018 FFF7FEFF 		bl	IOE_ReadMultiple
 647              	.LVL52:
 234:Drivers/BSP/Components/stmpe1600/stmpe1600.c ****   
 648              		.loc 1 234 3 view .LVU152
 237:Drivers/BSP/Components/stmpe1600/stmpe1600.c ****   
 649              		.loc 1 237 3 view .LVU153
 237:Drivers/BSP/Components/stmpe1600/stmpe1600.c ****   
 650              		.loc 1 237 7 is_stmt 0 view .LVU154
 651 001c BDF80410 		ldrh	r1, [sp, #4]
 652 0020 054A     		ldr	r2, .L36
 653 0022 41F00401 		orr	r1, r1, #4
 654 0026 1180     		strh	r1, [r2]	@ movhi
 240:Drivers/BSP/Components/stmpe1600/stmpe1600.c **** }
 655              		.loc 1 240 3 is_stmt 1 view .LVU155
 656 0028 0223     		movs	r3, #2
 657 002a 2046     		mov	r0, r4
 658 002c 0321     		movs	r1, #3
 659 002e FFF7FEFF 		bl	IOE_WriteMultiple
ARM GAS  /var/folders/0z/tsy30v1j4xl4_7kw94k978ww0000gn/T//ccsgo8Ff.s 			page 24


 660              	.LVL53:
 241:Drivers/BSP/Components/stmpe1600/stmpe1600.c **** 
 661              		.loc 1 241 1 is_stmt 0 view .LVU156
 662 0032 02B0     		add	sp, sp, #8
 663              		.cfi_def_cfa_offset 8
 664              		@ sp needed
 665 0034 10BD     		pop	{r4, pc}
 666              	.L37:
 667 0036 00BF     		.align	2
 668              	.L36:
 669 0038 00000000 		.word	.LANCHOR0
 670              		.cfi_endproc
 671              	.LFE5:
 673              		.section	.text.stmpe1600_DisableGlobalIT,"ax",%progbits
 674              		.align	1
 675              		.p2align 2,,3
 676              		.global	stmpe1600_DisableGlobalIT
 677              		.syntax unified
 678              		.thumb
 679              		.thumb_func
 681              	stmpe1600_DisableGlobalIT:
 682              	.LVL54:
 683              	.LFB6:
 249:Drivers/BSP/Components/stmpe1600/stmpe1600.c ****   uint8_t tmpData[2] = {0 , 0};
 684              		.loc 1 249 1 is_stmt 1 view -0
 685              		.cfi_startproc
 686              		@ args = 0, pretend = 0, frame = 8
 687              		@ frame_needed = 0, uses_anonymous_args = 0
 250:Drivers/BSP/Components/stmpe1600/stmpe1600.c **** 
 688              		.loc 1 250 3 view .LVU158
 249:Drivers/BSP/Components/stmpe1600/stmpe1600.c ****   uint8_t tmpData[2] = {0 , 0};
 689              		.loc 1 249 1 is_stmt 0 view .LVU159
 690 0000 10B5     		push	{r4, lr}
 691              		.cfi_def_cfa_offset 8
 692              		.cfi_offset 4, -8
 693              		.cfi_offset 14, -4
 694 0002 82B0     		sub	sp, sp, #8
 695              		.cfi_def_cfa_offset 16
 253:Drivers/BSP/Components/stmpe1600/stmpe1600.c ****   
 696              		.loc 1 253 3 view .LVU160
 697 0004 C4B2     		uxtb	r4, r0
 250:Drivers/BSP/Components/stmpe1600/stmpe1600.c **** 
 698              		.loc 1 250 11 view .LVU161
 699 0006 0020     		movs	r0, #0
 700              	.LVL55:
 253:Drivers/BSP/Components/stmpe1600/stmpe1600.c ****   
 701              		.loc 1 253 3 view .LVU162
 702 0008 01AA     		add	r2, sp, #4
 250:Drivers/BSP/Components/stmpe1600/stmpe1600.c **** 
 703              		.loc 1 250 11 view .LVU163
 704 000a ADF80400 		strh	r0, [sp, #4]	@ movhi
 253:Drivers/BSP/Components/stmpe1600/stmpe1600.c ****   
 705              		.loc 1 253 3 is_stmt 1 view .LVU164
 706 000e 0223     		movs	r3, #2
 707 0010 0321     		movs	r1, #3
 708 0012 2046     		mov	r0, r4
 709 0014 FFF7FEFF 		bl	IOE_ReadMultiple
ARM GAS  /var/folders/0z/tsy30v1j4xl4_7kw94k978ww0000gn/T//ccsgo8Ff.s 			page 25


 710              	.LVL56:
 255:Drivers/BSP/Components/stmpe1600/stmpe1600.c ****   
 711              		.loc 1 255 3 view .LVU165
 258:Drivers/BSP/Components/stmpe1600/stmpe1600.c ****   
 712              		.loc 1 258 3 view .LVU166
 258:Drivers/BSP/Components/stmpe1600/stmpe1600.c ****   
 713              		.loc 1 258 7 is_stmt 0 view .LVU167
 714 0018 BDF80410 		ldrh	r1, [sp, #4]
 715 001c 054A     		ldr	r2, .L40
 716 001e 21F00401 		bic	r1, r1, #4
 717 0022 1180     		strh	r1, [r2]	@ movhi
 261:Drivers/BSP/Components/stmpe1600/stmpe1600.c **** }
 718              		.loc 1 261 3 is_stmt 1 view .LVU168
 719 0024 0223     		movs	r3, #2
 720 0026 2046     		mov	r0, r4
 721 0028 0321     		movs	r1, #3
 722 002a FFF7FEFF 		bl	IOE_WriteMultiple
 723              	.LVL57:
 262:Drivers/BSP/Components/stmpe1600/stmpe1600.c **** 
 724              		.loc 1 262 1 is_stmt 0 view .LVU169
 725 002e 02B0     		add	sp, sp, #8
 726              		.cfi_def_cfa_offset 8
 727              		@ sp needed
 728 0030 10BD     		pop	{r4, pc}
 729              	.L41:
 730 0032 00BF     		.align	2
 731              	.L40:
 732 0034 00000000 		.word	.LANCHOR0
 733              		.cfi_endproc
 734              	.LFE6:
 736              		.section	.text.stmpe1600_IO_InitPin,"ax",%progbits
 737              		.align	1
 738              		.p2align 2,,3
 739              		.global	stmpe1600_IO_InitPin
 740              		.syntax unified
 741              		.thumb
 742              		.thumb_func
 744              	stmpe1600_IO_InitPin:
 745              	.LVL58:
 746              	.LFB7:
 274:Drivers/BSP/Components/stmpe1600/stmpe1600.c ****   uint8_t tmpData[2] = {0 , 0};
 747              		.loc 1 274 1 is_stmt 1 view -0
 748              		.cfi_startproc
 749              		@ args = 0, pretend = 0, frame = 8
 750              		@ frame_needed = 0, uses_anonymous_args = 0
 275:Drivers/BSP/Components/stmpe1600/stmpe1600.c ****   
 751              		.loc 1 275 3 view .LVU171
 274:Drivers/BSP/Components/stmpe1600/stmpe1600.c ****   uint8_t tmpData[2] = {0 , 0};
 752              		.loc 1 274 1 is_stmt 0 view .LVU172
 753 0000 70B5     		push	{r4, r5, r6, lr}
 754              		.cfi_def_cfa_offset 16
 755              		.cfi_offset 4, -16
 756              		.cfi_offset 5, -12
 757              		.cfi_offset 6, -8
 758              		.cfi_offset 14, -4
 759 0002 82B0     		sub	sp, sp, #8
 760              		.cfi_def_cfa_offset 24
ARM GAS  /var/folders/0z/tsy30v1j4xl4_7kw94k978ww0000gn/T//ccsgo8Ff.s 			page 26


 278:Drivers/BSP/Components/stmpe1600/stmpe1600.c **** 
 761              		.loc 1 278 3 view .LVU173
 762 0004 C4B2     		uxtb	r4, r0
 274:Drivers/BSP/Components/stmpe1600/stmpe1600.c ****   uint8_t tmpData[2] = {0 , 0};
 763              		.loc 1 274 1 view .LVU174
 764 0006 1646     		mov	r6, r2
 275:Drivers/BSP/Components/stmpe1600/stmpe1600.c ****   
 765              		.loc 1 275 11 view .LVU175
 766 0008 0022     		movs	r2, #0
 767              	.LVL59:
 278:Drivers/BSP/Components/stmpe1600/stmpe1600.c **** 
 768              		.loc 1 278 3 view .LVU176
 769 000a 0223     		movs	r3, #2
 275:Drivers/BSP/Components/stmpe1600/stmpe1600.c ****   
 770              		.loc 1 275 11 view .LVU177
 771 000c ADF80420 		strh	r2, [sp, #4]	@ movhi
 278:Drivers/BSP/Components/stmpe1600/stmpe1600.c **** 
 772              		.loc 1 278 3 is_stmt 1 view .LVU178
 274:Drivers/BSP/Components/stmpe1600/stmpe1600.c ****   uint8_t tmpData[2] = {0 , 0};
 773              		.loc 1 274 1 is_stmt 0 view .LVU179
 774 0010 0D46     		mov	r5, r1
 278:Drivers/BSP/Components/stmpe1600/stmpe1600.c **** 
 775              		.loc 1 278 3 view .LVU180
 776 0012 01AA     		add	r2, sp, #4
 777 0014 1421     		movs	r1, #20
 778              	.LVL60:
 278:Drivers/BSP/Components/stmpe1600/stmpe1600.c **** 
 779              		.loc 1 278 3 view .LVU181
 780 0016 2046     		mov	r0, r4
 781              	.LVL61:
 278:Drivers/BSP/Components/stmpe1600/stmpe1600.c **** 
 782              		.loc 1 278 3 view .LVU182
 783 0018 FFF7FEFF 		bl	IOE_ReadMultiple
 784              	.LVL62:
 280:Drivers/BSP/Components/stmpe1600/stmpe1600.c ****   
 785              		.loc 1 280 3 is_stmt 1 view .LVU183
 786 001c BDF80430 		ldrh	r3, [sp, #4]
 283:Drivers/BSP/Components/stmpe1600/stmpe1600.c ****   {
 787              		.loc 1 283 3 view .LVU184
 283:Drivers/BSP/Components/stmpe1600/stmpe1600.c ****   {
 788              		.loc 1 283 6 is_stmt 0 view .LVU185
 789 0020 5EB1     		cbz	r6, .L43
 285:Drivers/BSP/Components/stmpe1600/stmpe1600.c ****   }  
 790              		.loc 1 285 5 is_stmt 1 view .LVU186
 285:Drivers/BSP/Components/stmpe1600/stmpe1600.c ****   }  
 791              		.loc 1 285 9 is_stmt 0 view .LVU187
 792 0022 43EA0501 		orr	r1, r3, r5
 793 0026 89B2     		uxth	r1, r1
 794              	.L44:
 795 0028 054A     		ldr	r2, .L46
 293:Drivers/BSP/Components/stmpe1600/stmpe1600.c **** }
 796              		.loc 1 293 3 view .LVU188
 797 002a 0223     		movs	r3, #2
 798 002c 1180     		strh	r1, [r2]	@ movhi
 293:Drivers/BSP/Components/stmpe1600/stmpe1600.c **** }
 799              		.loc 1 293 3 is_stmt 1 view .LVU189
 800 002e 2046     		mov	r0, r4
ARM GAS  /var/folders/0z/tsy30v1j4xl4_7kw94k978ww0000gn/T//ccsgo8Ff.s 			page 27


 801 0030 1421     		movs	r1, #20
 802 0032 FFF7FEFF 		bl	IOE_WriteMultiple
 803              	.LVL63:
 294:Drivers/BSP/Components/stmpe1600/stmpe1600.c **** 
 804              		.loc 1 294 1 is_stmt 0 view .LVU190
 805 0036 02B0     		add	sp, sp, #8
 806              		.cfi_remember_state
 807              		.cfi_def_cfa_offset 16
 808              		@ sp needed
 809 0038 70BD     		pop	{r4, r5, r6, pc}
 810              	.LVL64:
 811              	.L43:
 812              		.cfi_restore_state
 289:Drivers/BSP/Components/stmpe1600/stmpe1600.c ****   }
 813              		.loc 1 289 5 is_stmt 1 view .LVU191
 289:Drivers/BSP/Components/stmpe1600/stmpe1600.c ****   }
 814              		.loc 1 289 9 is_stmt 0 view .LVU192
 815 003a 23EA0501 		bic	r1, r3, r5
 816 003e F3E7     		b	.L44
 817              	.L47:
 818              		.align	2
 819              	.L46:
 820 0040 00000000 		.word	.LANCHOR0
 821              		.cfi_endproc
 822              	.LFE7:
 824              		.section	.text.stmpe1600_IO_PolarityInv_Enable,"ax",%progbits
 825              		.align	1
 826              		.p2align 2,,3
 827              		.global	stmpe1600_IO_PolarityInv_Enable
 828              		.syntax unified
 829              		.thumb
 830              		.thumb_func
 832              	stmpe1600_IO_PolarityInv_Enable:
 833              	.LVL65:
 834              	.LFB9:
 366:Drivers/BSP/Components/stmpe1600/stmpe1600.c ****   uint8_t tmpData[2] = {0 , 0};
 835              		.loc 1 366 1 is_stmt 1 view -0
 836              		.cfi_startproc
 837              		@ args = 0, pretend = 0, frame = 8
 838              		@ frame_needed = 0, uses_anonymous_args = 0
 367:Drivers/BSP/Components/stmpe1600/stmpe1600.c ****   
 839              		.loc 1 367 3 view .LVU194
 366:Drivers/BSP/Components/stmpe1600/stmpe1600.c ****   uint8_t tmpData[2] = {0 , 0};
 840              		.loc 1 366 1 is_stmt 0 view .LVU195
 841 0000 30B5     		push	{r4, r5, lr}
 842              		.cfi_def_cfa_offset 12
 843              		.cfi_offset 4, -12
 844              		.cfi_offset 5, -8
 845              		.cfi_offset 14, -4
 846 0002 83B0     		sub	sp, sp, #12
 847              		.cfi_def_cfa_offset 24
 370:Drivers/BSP/Components/stmpe1600/stmpe1600.c ****   
 848              		.loc 1 370 3 view .LVU196
 849 0004 C5B2     		uxtb	r5, r0
 367:Drivers/BSP/Components/stmpe1600/stmpe1600.c ****   
 850              		.loc 1 367 11 view .LVU197
 851 0006 0020     		movs	r0, #0
ARM GAS  /var/folders/0z/tsy30v1j4xl4_7kw94k978ww0000gn/T//ccsgo8Ff.s 			page 28


 852              	.LVL66:
 370:Drivers/BSP/Components/stmpe1600/stmpe1600.c ****   
 853              		.loc 1 370 3 view .LVU198
 854 0008 01AA     		add	r2, sp, #4
 367:Drivers/BSP/Components/stmpe1600/stmpe1600.c ****   
 855              		.loc 1 367 11 view .LVU199
 856 000a ADF80400 		strh	r0, [sp, #4]	@ movhi
 370:Drivers/BSP/Components/stmpe1600/stmpe1600.c ****   
 857              		.loc 1 370 3 is_stmt 1 view .LVU200
 366:Drivers/BSP/Components/stmpe1600/stmpe1600.c ****   uint8_t tmpData[2] = {0 , 0};
 858              		.loc 1 366 1 is_stmt 0 view .LVU201
 859 000e 0C46     		mov	r4, r1
 370:Drivers/BSP/Components/stmpe1600/stmpe1600.c ****   
 860              		.loc 1 370 3 view .LVU202
 861 0010 0223     		movs	r3, #2
 862 0012 1621     		movs	r1, #22
 863              	.LVL67:
 370:Drivers/BSP/Components/stmpe1600/stmpe1600.c ****   
 864              		.loc 1 370 3 view .LVU203
 865 0014 2846     		mov	r0, r5
 866 0016 FFF7FEFF 		bl	IOE_ReadMultiple
 867              	.LVL68:
 372:Drivers/BSP/Components/stmpe1600/stmpe1600.c **** 
 868              		.loc 1 372 3 is_stmt 1 view .LVU204
 375:Drivers/BSP/Components/stmpe1600/stmpe1600.c ****     
 869              		.loc 1 375 3 view .LVU205
 375:Drivers/BSP/Components/stmpe1600/stmpe1600.c ****     
 870              		.loc 1 375 7 is_stmt 0 view .LVU206
 871 001a BDF80410 		ldrh	r1, [sp, #4]
 872 001e 054A     		ldr	r2, .L50
 873 0020 0C43     		orrs	r4, r4, r1
 874              	.LVL69:
 378:Drivers/BSP/Components/stmpe1600/stmpe1600.c **** }
 875              		.loc 1 378 3 view .LVU207
 876 0022 0223     		movs	r3, #2
 877 0024 2846     		mov	r0, r5
 878 0026 1621     		movs	r1, #22
 375:Drivers/BSP/Components/stmpe1600/stmpe1600.c ****     
 879              		.loc 1 375 7 view .LVU208
 880 0028 1480     		strh	r4, [r2]	@ movhi
 378:Drivers/BSP/Components/stmpe1600/stmpe1600.c **** }
 881              		.loc 1 378 3 is_stmt 1 view .LVU209
 882 002a FFF7FEFF 		bl	IOE_WriteMultiple
 883              	.LVL70:
 379:Drivers/BSP/Components/stmpe1600/stmpe1600.c **** 
 884              		.loc 1 379 1 is_stmt 0 view .LVU210
 885 002e 03B0     		add	sp, sp, #12
 886              		.cfi_def_cfa_offset 12
 887              		@ sp needed
 888 0030 30BD     		pop	{r4, r5, pc}
 889              	.L51:
 890 0032 00BF     		.align	2
 891              	.L50:
 892 0034 00000000 		.word	.LANCHOR0
 893              		.cfi_endproc
 894              	.LFE9:
 896              		.section	.text.stmpe1600_IO_PolarityInv_Disable,"ax",%progbits
ARM GAS  /var/folders/0z/tsy30v1j4xl4_7kw94k978ww0000gn/T//ccsgo8Ff.s 			page 29


 897              		.align	1
 898              		.p2align 2,,3
 899              		.global	stmpe1600_IO_PolarityInv_Disable
 900              		.syntax unified
 901              		.thumb
 902              		.thumb_func
 904              	stmpe1600_IO_PolarityInv_Disable:
 905              	.LVL71:
 906              	.LFB10:
 390:Drivers/BSP/Components/stmpe1600/stmpe1600.c ****   uint8_t tmpData[2] = {0 , 0};
 907              		.loc 1 390 1 is_stmt 1 view -0
 908              		.cfi_startproc
 909              		@ args = 0, pretend = 0, frame = 8
 910              		@ frame_needed = 0, uses_anonymous_args = 0
 391:Drivers/BSP/Components/stmpe1600/stmpe1600.c ****   
 911              		.loc 1 391 3 view .LVU212
 390:Drivers/BSP/Components/stmpe1600/stmpe1600.c ****   uint8_t tmpData[2] = {0 , 0};
 912              		.loc 1 390 1 is_stmt 0 view .LVU213
 913 0000 30B5     		push	{r4, r5, lr}
 914              		.cfi_def_cfa_offset 12
 915              		.cfi_offset 4, -12
 916              		.cfi_offset 5, -8
 917              		.cfi_offset 14, -4
 918 0002 83B0     		sub	sp, sp, #12
 919              		.cfi_def_cfa_offset 24
 394:Drivers/BSP/Components/stmpe1600/stmpe1600.c ****   
 920              		.loc 1 394 3 view .LVU214
 921 0004 C4B2     		uxtb	r4, r0
 391:Drivers/BSP/Components/stmpe1600/stmpe1600.c ****   
 922              		.loc 1 391 11 view .LVU215
 923 0006 0020     		movs	r0, #0
 924              	.LVL72:
 390:Drivers/BSP/Components/stmpe1600/stmpe1600.c ****   uint8_t tmpData[2] = {0 , 0};
 925              		.loc 1 390 1 view .LVU216
 926 0008 0D46     		mov	r5, r1
 394:Drivers/BSP/Components/stmpe1600/stmpe1600.c ****   
 927              		.loc 1 394 3 view .LVU217
 928 000a 01AA     		add	r2, sp, #4
 391:Drivers/BSP/Components/stmpe1600/stmpe1600.c ****   
 929              		.loc 1 391 11 view .LVU218
 930 000c ADF80400 		strh	r0, [sp, #4]	@ movhi
 394:Drivers/BSP/Components/stmpe1600/stmpe1600.c ****   
 931              		.loc 1 394 3 is_stmt 1 view .LVU219
 932 0010 0223     		movs	r3, #2
 933 0012 1621     		movs	r1, #22
 934              	.LVL73:
 394:Drivers/BSP/Components/stmpe1600/stmpe1600.c ****   
 935              		.loc 1 394 3 is_stmt 0 view .LVU220
 936 0014 2046     		mov	r0, r4
 937 0016 FFF7FEFF 		bl	IOE_ReadMultiple
 938              	.LVL74:
 396:Drivers/BSP/Components/stmpe1600/stmpe1600.c **** 
 939              		.loc 1 396 3 is_stmt 1 view .LVU221
 399:Drivers/BSP/Components/stmpe1600/stmpe1600.c ****     
 940              		.loc 1 399 4 view .LVU222
 399:Drivers/BSP/Components/stmpe1600/stmpe1600.c ****     
 941              		.loc 1 399 8 is_stmt 0 view .LVU223
ARM GAS  /var/folders/0z/tsy30v1j4xl4_7kw94k978ww0000gn/T//ccsgo8Ff.s 			page 30


 942 001a BDF80400 		ldrh	r0, [sp, #4]
 943 001e 054A     		ldr	r2, .L54
 944 0020 20EA0501 		bic	r1, r0, r5
 945 0024 1180     		strh	r1, [r2]	@ movhi
 402:Drivers/BSP/Components/stmpe1600/stmpe1600.c **** }
 946              		.loc 1 402 3 is_stmt 1 view .LVU224
 947 0026 0223     		movs	r3, #2
 948 0028 2046     		mov	r0, r4
 949 002a 1621     		movs	r1, #22
 950 002c FFF7FEFF 		bl	IOE_WriteMultiple
 951              	.LVL75:
 403:Drivers/BSP/Components/stmpe1600/stmpe1600.c **** 
 952              		.loc 1 403 1 is_stmt 0 view .LVU225
 953 0030 03B0     		add	sp, sp, #12
 954              		.cfi_def_cfa_offset 12
 955              		@ sp needed
 956 0032 30BD     		pop	{r4, r5, pc}
 957              	.LVL76:
 958              	.L55:
 403:Drivers/BSP/Components/stmpe1600/stmpe1600.c **** 
 959              		.loc 1 403 1 view .LVU226
 960              		.align	2
 961              	.L54:
 962 0034 00000000 		.word	.LANCHOR0
 963              		.cfi_endproc
 964              	.LFE10:
 966              		.section	.text.stmpe1600_IO_EnablePinIT,"ax",%progbits
 967              		.align	1
 968              		.p2align 2,,3
 969              		.global	stmpe1600_IO_EnablePinIT
 970              		.syntax unified
 971              		.thumb
 972              		.thumb_func
 974              	stmpe1600_IO_EnablePinIT:
 975              	.LVL77:
 976              	.LFB13:
 467:Drivers/BSP/Components/stmpe1600/stmpe1600.c ****   uint8_t tmpData[2] = {0 , 0};
 977              		.loc 1 467 1 is_stmt 1 view -0
 978              		.cfi_startproc
 979              		@ args = 0, pretend = 0, frame = 8
 980              		@ frame_needed = 0, uses_anonymous_args = 0
 468:Drivers/BSP/Components/stmpe1600/stmpe1600.c ****     
 981              		.loc 1 468 3 view .LVU228
 467:Drivers/BSP/Components/stmpe1600/stmpe1600.c ****   uint8_t tmpData[2] = {0 , 0};
 982              		.loc 1 467 1 is_stmt 0 view .LVU229
 983 0000 70B5     		push	{r4, r5, r6, lr}
 984              		.cfi_def_cfa_offset 16
 985              		.cfi_offset 4, -16
 986              		.cfi_offset 5, -12
 987              		.cfi_offset 6, -8
 988              		.cfi_offset 14, -4
 989 0002 82B0     		sub	sp, sp, #8
 990              		.cfi_def_cfa_offset 24
 991              	.LBB42:
 992              	.LBB43:
 232:Drivers/BSP/Components/stmpe1600/stmpe1600.c ****   
 993              		.loc 1 232 3 view .LVU230
ARM GAS  /var/folders/0z/tsy30v1j4xl4_7kw94k978ww0000gn/T//ccsgo8Ff.s 			page 31


 994 0004 C4B2     		uxtb	r4, r0
 995              	.LBE43:
 996              	.LBE42:
 468:Drivers/BSP/Components/stmpe1600/stmpe1600.c ****     
 997              		.loc 1 468 11 view .LVU231
 998 0006 0023     		movs	r3, #0
 467:Drivers/BSP/Components/stmpe1600/stmpe1600.c ****   uint8_t tmpData[2] = {0 , 0};
 999              		.loc 1 467 1 view .LVU232
 1000 0008 0D46     		mov	r5, r1
 468:Drivers/BSP/Components/stmpe1600/stmpe1600.c ****     
 1001              		.loc 1 468 11 view .LVU233
 1002 000a ADF80030 		strh	r3, [sp]	@ movhi
 471:Drivers/BSP/Components/stmpe1600/stmpe1600.c **** 
 1003              		.loc 1 471 3 is_stmt 1 view .LVU234
 1004              	.LVL78:
 1005              	.LBB45:
 1006              	.LBI42:
 224:Drivers/BSP/Components/stmpe1600/stmpe1600.c **** {
 1007              		.loc 1 224 6 view .LVU235
 1008              	.LBB44:
 226:Drivers/BSP/Components/stmpe1600/stmpe1600.c **** 
 1009              		.loc 1 226 3 view .LVU236
 226:Drivers/BSP/Components/stmpe1600/stmpe1600.c **** 
 1010              		.loc 1 226 11 is_stmt 0 view .LVU237
 1011 000e ADF80430 		strh	r3, [sp, #4]	@ movhi
 229:Drivers/BSP/Components/stmpe1600/stmpe1600.c ****   
 1012              		.loc 1 229 3 is_stmt 1 view .LVU238
 1013 0012 FFF7FEFF 		bl	IOE_ITConfig
 1014              	.LVL79:
 232:Drivers/BSP/Components/stmpe1600/stmpe1600.c ****   
 1015              		.loc 1 232 3 view .LVU239
 1016 0016 01AA     		add	r2, sp, #4
 1017 0018 0223     		movs	r3, #2
 1018 001a 0321     		movs	r1, #3
 1019 001c 2046     		mov	r0, r4
 1020 001e FFF7FEFF 		bl	IOE_ReadMultiple
 1021              	.LVL80:
 234:Drivers/BSP/Components/stmpe1600/stmpe1600.c ****   
 1022              		.loc 1 234 3 view .LVU240
 237:Drivers/BSP/Components/stmpe1600/stmpe1600.c ****   
 1023              		.loc 1 237 3 view .LVU241
 237:Drivers/BSP/Components/stmpe1600/stmpe1600.c ****   
 1024              		.loc 1 237 7 is_stmt 0 view .LVU242
 1025 0022 BDF80420 		ldrh	r2, [sp, #4]
 1026 0026 0E4E     		ldr	r6, .L58
 1027 0028 42F00402 		orr	r2, r2, #4
 1028 002c 3280     		strh	r2, [r6]	@ movhi
 240:Drivers/BSP/Components/stmpe1600/stmpe1600.c **** }
 1029              		.loc 1 240 3 is_stmt 1 view .LVU243
 1030 002e 2046     		mov	r0, r4
 1031 0030 3246     		mov	r2, r6
 1032 0032 0223     		movs	r3, #2
 1033 0034 0321     		movs	r1, #3
 1034 0036 FFF7FEFF 		bl	IOE_WriteMultiple
 1035              	.LVL81:
 240:Drivers/BSP/Components/stmpe1600/stmpe1600.c **** }
 1036              		.loc 1 240 3 is_stmt 0 view .LVU244
ARM GAS  /var/folders/0z/tsy30v1j4xl4_7kw94k978ww0000gn/T//ccsgo8Ff.s 			page 32


 1037              	.LBE44:
 1038              	.LBE45:
 474:Drivers/BSP/Components/stmpe1600/stmpe1600.c ****   
 1039              		.loc 1 474 3 is_stmt 1 view .LVU245
 1040 003a 6A46     		mov	r2, sp
 1041 003c 0223     		movs	r3, #2
 1042 003e 0821     		movs	r1, #8
 1043 0040 2046     		mov	r0, r4
 1044 0042 FFF7FEFF 		bl	IOE_ReadMultiple
 1045              	.LVL82:
 476:Drivers/BSP/Components/stmpe1600/stmpe1600.c ****   
 1046              		.loc 1 476 3 view .LVU246
 479:Drivers/BSP/Components/stmpe1600/stmpe1600.c ****     
 1047              		.loc 1 479 3 view .LVU247
 479:Drivers/BSP/Components/stmpe1600/stmpe1600.c ****     
 1048              		.loc 1 479 7 is_stmt 0 view .LVU248
 1049 0046 BDF80020 		ldrh	r2, [sp]
 482:Drivers/BSP/Components/stmpe1600/stmpe1600.c **** }
 1050              		.loc 1 482 3 view .LVU249
 1051 004a 0223     		movs	r3, #2
 479:Drivers/BSP/Components/stmpe1600/stmpe1600.c ****     
 1052              		.loc 1 479 7 view .LVU250
 1053 004c 1543     		orrs	r5, r5, r2
 1054              	.LVL83:
 482:Drivers/BSP/Components/stmpe1600/stmpe1600.c **** }
 1055              		.loc 1 482 3 view .LVU251
 1056 004e 2046     		mov	r0, r4
 1057 0050 3246     		mov	r2, r6
 1058 0052 0821     		movs	r1, #8
 479:Drivers/BSP/Components/stmpe1600/stmpe1600.c ****     
 1059              		.loc 1 479 7 view .LVU252
 1060 0054 3580     		strh	r5, [r6]	@ movhi
 482:Drivers/BSP/Components/stmpe1600/stmpe1600.c **** }
 1061              		.loc 1 482 3 is_stmt 1 view .LVU253
 1062 0056 FFF7FEFF 		bl	IOE_WriteMultiple
 1063              	.LVL84:
 483:Drivers/BSP/Components/stmpe1600/stmpe1600.c **** 
 1064              		.loc 1 483 1 is_stmt 0 view .LVU254
 1065 005a 02B0     		add	sp, sp, #8
 1066              		.cfi_def_cfa_offset 16
 1067              		@ sp needed
 1068 005c 70BD     		pop	{r4, r5, r6, pc}
 1069              	.L59:
 1070 005e 00BF     		.align	2
 1071              	.L58:
 1072 0060 00000000 		.word	.LANCHOR0
 1073              		.cfi_endproc
 1074              	.LFE13:
 1076              		.section	.text.stmpe1600_IO_Config,"ax",%progbits
 1077              		.align	1
 1078              		.p2align 2,,3
 1079              		.global	stmpe1600_IO_Config
 1080              		.syntax unified
 1081              		.thumb
 1082              		.thumb_func
 1084              	stmpe1600_IO_Config:
 1085              	.LVL85:
ARM GAS  /var/folders/0z/tsy30v1j4xl4_7kw94k978ww0000gn/T//ccsgo8Ff.s 			page 33


 1086              	.LFB8:
 310:Drivers/BSP/Components/stmpe1600/stmpe1600.c ****   uint8_t error_code = 0;
 1087              		.loc 1 310 1 is_stmt 1 view -0
 1088              		.cfi_startproc
 1089              		@ args = 0, pretend = 0, frame = 8
 1090              		@ frame_needed = 0, uses_anonymous_args = 0
 310:Drivers/BSP/Components/stmpe1600/stmpe1600.c ****   uint8_t error_code = 0;
 1091              		.loc 1 310 1 is_stmt 0 view .LVU256
 1092 0000 2DE9F041 		push	{r4, r5, r6, r7, r8, lr}
 1093              		.cfi_def_cfa_offset 24
 1094              		.cfi_offset 4, -24
 1095              		.cfi_offset 5, -20
 1096              		.cfi_offset 6, -16
 1097              		.cfi_offset 7, -12
 1098              		.cfi_offset 8, -8
 1099              		.cfi_offset 14, -4
 1100 0004 82B0     		sub	sp, sp, #8
 1101              		.cfi_def_cfa_offset 32
 312:Drivers/BSP/Components/stmpe1600/stmpe1600.c ****     
 1102              		.loc 1 312 13 view .LVU257
 1103 0006 0023     		movs	r3, #0
 310:Drivers/BSP/Components/stmpe1600/stmpe1600.c ****   uint8_t error_code = 0;
 1104              		.loc 1 310 1 view .LVU258
 1105 0008 1446     		mov	r4, r2
 1106 000a 0546     		mov	r5, r0
 311:Drivers/BSP/Components/stmpe1600/stmpe1600.c ****     uint8_t buffer[2] = {0,0};  
 1107              		.loc 1 311 3 is_stmt 1 view .LVU259
 1108              	.LVL86:
 312:Drivers/BSP/Components/stmpe1600/stmpe1600.c ****     
 1109              		.loc 1 312 5 view .LVU260
 310:Drivers/BSP/Components/stmpe1600/stmpe1600.c ****   uint8_t error_code = 0;
 1110              		.loc 1 310 1 is_stmt 0 view .LVU261
 1111 000c 0E46     		mov	r6, r1
 312:Drivers/BSP/Components/stmpe1600/stmpe1600.c ****     
 1112              		.loc 1 312 13 view .LVU262
 1113 000e ADF80030 		strh	r3, [sp]	@ movhi
 315:Drivers/BSP/Components/stmpe1600/stmpe1600.c ****   {
 1114              		.loc 1 315 3 is_stmt 1 view .LVU263
 1115 0012 032A     		cmp	r2, #3
 1116 0014 00F29D80 		bhi	.L67
 1117 0018 DFE802F0 		tbb	[pc, r2]
 1118              	.L63:
 1119 001c 6D       		.byte	(.L66-.L63)/2
 1120 001d 41       		.byte	(.L65-.L63)/2
 1121 001e 37       		.byte	(.L64-.L63)/2
 1122 001f 02       		.byte	(.L62-.L63)/2
 1123              		.p2align 1
 1124              	.L62:
 339:Drivers/BSP/Components/stmpe1600/stmpe1600.c ****     stmpe1600_IO_EnablePinIT(DeviceAddr, IO_Pin);
 1125              		.loc 1 339 5 view .LVU264
 1126              	.LVL87:
 1127              	.LBB66:
 1128              	.LBI66:
 202:Drivers/BSP/Components/stmpe1600/stmpe1600.c **** {
 1129              		.loc 1 202 6 view .LVU265
 1130              	.LBB67:
 204:Drivers/BSP/Components/stmpe1600/stmpe1600.c ****   
ARM GAS  /var/folders/0z/tsy30v1j4xl4_7kw94k978ww0000gn/T//ccsgo8Ff.s 			page 34


 1131              		.loc 1 204 3 view .LVU266
 207:Drivers/BSP/Components/stmpe1600/stmpe1600.c ****   
 1132              		.loc 1 207 3 view .LVU267
 207:Drivers/BSP/Components/stmpe1600/stmpe1600.c ****   
 1133              		.loc 1 207 9 is_stmt 0 view .LVU268
 1134 0020 C7B2     		uxtb	r7, r0
 1135 0022 0321     		movs	r1, #3
 1136              	.LVL88:
 207:Drivers/BSP/Components/stmpe1600/stmpe1600.c ****   
 1137              		.loc 1 207 9 view .LVU269
 1138 0024 3846     		mov	r0, r7
 1139              	.LVL89:
 207:Drivers/BSP/Components/stmpe1600/stmpe1600.c ****   
 1140              		.loc 1 207 9 view .LVU270
 1141 0026 FFF7FEFF 		bl	IOE_Read
 1142              	.LVL90:
 210:Drivers/BSP/Components/stmpe1600/stmpe1600.c ****     
 1143              		.loc 1 210 3 is_stmt 1 view .LVU271
 213:Drivers/BSP/Components/stmpe1600/stmpe1600.c ****   
 1144              		.loc 1 213 3 view .LVU272
 216:Drivers/BSP/Components/stmpe1600/stmpe1600.c **** }
 1145              		.loc 1 216 3 view .LVU273
 1146 002a 00F0FE02 		and	r2, r0, #254
 1147              	.LVL91:
 1148              	.L69:
 216:Drivers/BSP/Components/stmpe1600/stmpe1600.c **** }
 1149              		.loc 1 216 3 is_stmt 0 view .LVU274
 1150 002e 0321     		movs	r1, #3
 1151 0030 3846     		mov	r0, r7
 1152 0032 FFF7FEFF 		bl	IOE_Write
 1153              	.LVL92:
 1154              	.LBE67:
 1155              	.LBE66:
 340:Drivers/BSP/Components/stmpe1600/stmpe1600.c ****     stmpe1600_IO_InitPin(DeviceAddr, IO_Pin, STMPE1600_DIRECTION_IN); 
 1156              		.loc 1 340 5 is_stmt 1 view .LVU275
 1157 0036 3146     		mov	r1, r6
 1158 0038 2846     		mov	r0, r5
 1159 003a FFF7FEFF 		bl	stmpe1600_IO_EnablePinIT
 1160              	.LVL93:
 341:Drivers/BSP/Components/stmpe1600/stmpe1600.c ****     
 1161              		.loc 1 341 5 view .LVU276
 1162              	.LBB68:
 1163              	.LBI68:
 273:Drivers/BSP/Components/stmpe1600/stmpe1600.c **** {
 1164              		.loc 1 273 6 view .LVU277
 1165              	.LBB69:
 275:Drivers/BSP/Components/stmpe1600/stmpe1600.c ****   
 1166              		.loc 1 275 3 view .LVU278
 275:Drivers/BSP/Components/stmpe1600/stmpe1600.c ****   
 1167              		.loc 1 275 11 is_stmt 0 view .LVU279
 1168 003e 0024     		movs	r4, #0
 278:Drivers/BSP/Components/stmpe1600/stmpe1600.c **** 
 1169              		.loc 1 278 3 view .LVU280
 1170 0040 0223     		movs	r3, #2
 1171 0042 01AA     		add	r2, sp, #4
 1172 0044 1421     		movs	r1, #20
 1173 0046 3846     		mov	r0, r7
ARM GAS  /var/folders/0z/tsy30v1j4xl4_7kw94k978ww0000gn/T//ccsgo8Ff.s 			page 35


 275:Drivers/BSP/Components/stmpe1600/stmpe1600.c ****   
 1174              		.loc 1 275 11 view .LVU281
 1175 0048 ADF80440 		strh	r4, [sp, #4]	@ movhi
 278:Drivers/BSP/Components/stmpe1600/stmpe1600.c **** 
 1176              		.loc 1 278 3 is_stmt 1 view .LVU282
 1177 004c FFF7FEFF 		bl	IOE_ReadMultiple
 1178              	.LVL94:
 280:Drivers/BSP/Components/stmpe1600/stmpe1600.c ****   
 1179              		.loc 1 280 3 view .LVU283
 283:Drivers/BSP/Components/stmpe1600/stmpe1600.c ****   {
 1180              		.loc 1 283 3 view .LVU284
 289:Drivers/BSP/Components/stmpe1600/stmpe1600.c ****   }
 1181              		.loc 1 289 5 view .LVU285
 289:Drivers/BSP/Components/stmpe1600/stmpe1600.c ****   }
 1182              		.loc 1 289 9 is_stmt 0 view .LVU286
 1183 0050 BDF80430 		ldrh	r3, [sp, #4]
 1184 0054 404A     		ldr	r2, .L70
 1185 0056 23EA0603 		bic	r3, r3, r6
 1186 005a 1380     		strh	r3, [r2]	@ movhi
 293:Drivers/BSP/Components/stmpe1600/stmpe1600.c **** }
 1187              		.loc 1 293 3 is_stmt 1 view .LVU287
 1188 005c 1421     		movs	r1, #20
 1189 005e 0223     		movs	r3, #2
 1190 0060 3846     		mov	r0, r7
 1191 0062 FFF7FEFF 		bl	IOE_WriteMultiple
 1192              	.LVL95:
 293:Drivers/BSP/Components/stmpe1600/stmpe1600.c **** }
 1193              		.loc 1 293 3 is_stmt 0 view .LVU288
 1194              	.LBE69:
 1195              	.LBE68:
 344:Drivers/BSP/Components/stmpe1600/stmpe1600.c ****     
 1196              		.loc 1 344 5 is_stmt 1 view .LVU289
 1197              	.LBB70:
 1198              	.LBI70:
 558:Drivers/BSP/Components/stmpe1600/stmpe1600.c **** {
 1199              		.loc 1 558 6 view .LVU290
 1200              	.LBB71:
 560:Drivers/BSP/Components/stmpe1600/stmpe1600.c ****     
 1201              		.loc 1 560 3 view .LVU291
 563:Drivers/BSP/Components/stmpe1600/stmpe1600.c **** }
 1202              		.loc 1 563 3 is_stmt 0 view .LVU292
 1203 0066 0223     		movs	r3, #2
 1204 0068 01AA     		add	r2, sp, #4
 1205 006a 0A21     		movs	r1, #10
 1206 006c 3846     		mov	r0, r7
 560:Drivers/BSP/Components/stmpe1600/stmpe1600.c ****     
 1207              		.loc 1 560 11 view .LVU293
 1208 006e ADF80440 		strh	r4, [sp, #4]	@ movhi
 563:Drivers/BSP/Components/stmpe1600/stmpe1600.c **** }
 1209              		.loc 1 563 3 is_stmt 1 view .LVU294
 1210 0072 FFF7FEFF 		bl	IOE_ReadMultiple
 1211              	.LVL96:
 563:Drivers/BSP/Components/stmpe1600/stmpe1600.c **** }
 1212              		.loc 1 563 3 is_stmt 0 view .LVU295
 1213              	.LBE71:
 1214              	.LBE70:
 347:Drivers/BSP/Components/stmpe1600/stmpe1600.c ****     break;
ARM GAS  /var/folders/0z/tsy30v1j4xl4_7kw94k978ww0000gn/T//ccsgo8Ff.s 			page 36


 1215              		.loc 1 347 5 is_stmt 1 view .LVU296
 1216 0076 0223     		movs	r3, #2
 1217 0078 6A46     		mov	r2, sp
 1218 007a 1021     		movs	r1, #16
 1219 007c 3846     		mov	r0, r7
 1220 007e FFF7FEFF 		bl	IOE_ReadMultiple
 1221              	.LVL97:
 348:Drivers/BSP/Components/stmpe1600/stmpe1600.c **** 
 1222              		.loc 1 348 5 view .LVU297
 311:Drivers/BSP/Components/stmpe1600/stmpe1600.c ****     uint8_t buffer[2] = {0,0};  
 1223              		.loc 1 311 11 is_stmt 0 view .LVU298
 1224 0082 2046     		mov	r0, r4
 1225              	.L61:
 1226              	.LVL98:
 354:Drivers/BSP/Components/stmpe1600/stmpe1600.c **** }
 1227              		.loc 1 354 3 is_stmt 1 view .LVU299
 355:Drivers/BSP/Components/stmpe1600/stmpe1600.c **** 
 1228              		.loc 1 355 1 is_stmt 0 view .LVU300
 1229 0084 02B0     		add	sp, sp, #8
 1230              		.cfi_remember_state
 1231              		.cfi_def_cfa_offset 24
 1232              		@ sp needed
 1233 0086 BDE8F081 		pop	{r4, r5, r6, r7, r8, pc}
 1234              	.LVL99:
 1235              	.L64:
 1236              		.cfi_restore_state
 328:Drivers/BSP/Components/stmpe1600/stmpe1600.c ****     stmpe1600_IO_EnablePinIT(DeviceAddr, IO_Pin);
 1237              		.loc 1 328 5 is_stmt 1 view .LVU301
 1238              	.LBB72:
 1239              	.LBI72:
 202:Drivers/BSP/Components/stmpe1600/stmpe1600.c **** {
 1240              		.loc 1 202 6 view .LVU302
 1241              	.LBB73:
 204:Drivers/BSP/Components/stmpe1600/stmpe1600.c ****   
 1242              		.loc 1 204 3 view .LVU303
 207:Drivers/BSP/Components/stmpe1600/stmpe1600.c ****   
 1243              		.loc 1 207 3 view .LVU304
 207:Drivers/BSP/Components/stmpe1600/stmpe1600.c ****   
 1244              		.loc 1 207 9 is_stmt 0 view .LVU305
 1245 008a C7B2     		uxtb	r7, r0
 1246 008c 0321     		movs	r1, #3
 1247              	.LVL100:
 207:Drivers/BSP/Components/stmpe1600/stmpe1600.c ****   
 1248              		.loc 1 207 9 view .LVU306
 1249 008e 3846     		mov	r0, r7
 1250              	.LVL101:
 207:Drivers/BSP/Components/stmpe1600/stmpe1600.c ****   
 1251              		.loc 1 207 9 view .LVU307
 1252 0090 FFF7FEFF 		bl	IOE_Read
 1253              	.LVL102:
 210:Drivers/BSP/Components/stmpe1600/stmpe1600.c ****     
 1254              		.loc 1 210 3 is_stmt 1 view .LVU308
 210:Drivers/BSP/Components/stmpe1600/stmpe1600.c ****     
 1255              		.loc 1 210 7 is_stmt 0 view .LVU309
 1256 0094 00F0FE00 		and	r0, r0, #254
 1257              	.LVL103:
 213:Drivers/BSP/Components/stmpe1600/stmpe1600.c ****   
ARM GAS  /var/folders/0z/tsy30v1j4xl4_7kw94k978ww0000gn/T//ccsgo8Ff.s 			page 37


 1258              		.loc 1 213 3 is_stmt 1 view .LVU310
 216:Drivers/BSP/Components/stmpe1600/stmpe1600.c **** }
 1259              		.loc 1 216 3 view .LVU311
 1260 0098 40F00102 		orr	r2, r0, #1
 1261 009c C7E7     		b	.L69
 1262              	.LVL104:
 1263              	.L65:
 216:Drivers/BSP/Components/stmpe1600/stmpe1600.c **** }
 1264              		.loc 1 216 3 is_stmt 0 view .LVU312
 1265              	.LBE73:
 1266              	.LBE72:
 323:Drivers/BSP/Components/stmpe1600/stmpe1600.c ****     stmpe1600_IO_InitPin(DeviceAddr, IO_Pin, STMPE1600_DIRECTION_OUT);
 1267              		.loc 1 323 5 is_stmt 1 view .LVU313
 1268              	.LBB74:
 1269              	.LBI74:
 493:Drivers/BSP/Components/stmpe1600/stmpe1600.c **** {
 1270              		.loc 1 493 6 view .LVU314
 1271              	.LBB75:
 495:Drivers/BSP/Components/stmpe1600/stmpe1600.c ****   
 1272              		.loc 1 495 3 view .LVU315
 498:Drivers/BSP/Components/stmpe1600/stmpe1600.c ****   
 1273              		.loc 1 498 3 is_stmt 0 view .LVU316
 1274 009e C5B2     		uxtb	r5, r0
 495:Drivers/BSP/Components/stmpe1600/stmpe1600.c ****   
 1275              		.loc 1 495 11 view .LVU317
 1276 00a0 0024     		movs	r4, #0
 498:Drivers/BSP/Components/stmpe1600/stmpe1600.c ****   
 1277              		.loc 1 498 3 view .LVU318
 1278 00a2 01AA     		add	r2, sp, #4
 1279              	.LVL105:
 498:Drivers/BSP/Components/stmpe1600/stmpe1600.c ****   
 1280              		.loc 1 498 3 view .LVU319
 1281 00a4 0223     		movs	r3, #2
 1282 00a6 0821     		movs	r1, #8
 1283              	.LVL106:
 498:Drivers/BSP/Components/stmpe1600/stmpe1600.c ****   
 1284              		.loc 1 498 3 view .LVU320
 1285 00a8 2846     		mov	r0, r5
 1286              	.LVL107:
 495:Drivers/BSP/Components/stmpe1600/stmpe1600.c ****   
 1287              		.loc 1 495 11 view .LVU321
 1288 00aa ADF80440 		strh	r4, [sp, #4]	@ movhi
 498:Drivers/BSP/Components/stmpe1600/stmpe1600.c ****   
 1289              		.loc 1 498 3 is_stmt 1 view .LVU322
 1290 00ae FFF7FEFF 		bl	IOE_ReadMultiple
 1291              	.LVL108:
 500:Drivers/BSP/Components/stmpe1600/stmpe1600.c ****   
 1292              		.loc 1 500 3 view .LVU323
 503:Drivers/BSP/Components/stmpe1600/stmpe1600.c ****     
 1293              		.loc 1 503 3 view .LVU324
 503:Drivers/BSP/Components/stmpe1600/stmpe1600.c ****     
 1294              		.loc 1 503 7 is_stmt 0 view .LVU325
 1295 00b2 BDF80430 		ldrh	r3, [sp, #4]
 1296 00b6 284F     		ldr	r7, .L70
 1297 00b8 23EA0603 		bic	r3, r3, r6
 1298 00bc 3B80     		strh	r3, [r7]	@ movhi
 506:Drivers/BSP/Components/stmpe1600/stmpe1600.c **** }
ARM GAS  /var/folders/0z/tsy30v1j4xl4_7kw94k978ww0000gn/T//ccsgo8Ff.s 			page 38


 1299              		.loc 1 506 3 is_stmt 1 view .LVU326
 1300 00be 3A46     		mov	r2, r7
 1301 00c0 2846     		mov	r0, r5
 1302 00c2 0223     		movs	r3, #2
 1303 00c4 0821     		movs	r1, #8
 1304 00c6 FFF7FEFF 		bl	IOE_WriteMultiple
 1305              	.LVL109:
 506:Drivers/BSP/Components/stmpe1600/stmpe1600.c **** }
 1306              		.loc 1 506 3 is_stmt 0 view .LVU327
 1307              	.LBE75:
 1308              	.LBE74:
 324:Drivers/BSP/Components/stmpe1600/stmpe1600.c ****     break;
 1309              		.loc 1 324 5 is_stmt 1 view .LVU328
 1310              	.LBB76:
 1311              	.LBI76:
 273:Drivers/BSP/Components/stmpe1600/stmpe1600.c **** {
 1312              		.loc 1 273 6 view .LVU329
 1313              	.LBB77:
 275:Drivers/BSP/Components/stmpe1600/stmpe1600.c ****   
 1314              		.loc 1 275 3 view .LVU330
 278:Drivers/BSP/Components/stmpe1600/stmpe1600.c **** 
 1315              		.loc 1 278 3 is_stmt 0 view .LVU331
 1316 00ca 01AA     		add	r2, sp, #4
 1317 00cc 0223     		movs	r3, #2
 1318 00ce 1421     		movs	r1, #20
 1319 00d0 2846     		mov	r0, r5
 275:Drivers/BSP/Components/stmpe1600/stmpe1600.c ****   
 1320              		.loc 1 275 11 view .LVU332
 1321 00d2 ADF80440 		strh	r4, [sp, #4]	@ movhi
 278:Drivers/BSP/Components/stmpe1600/stmpe1600.c **** 
 1322              		.loc 1 278 3 is_stmt 1 view .LVU333
 1323 00d6 FFF7FEFF 		bl	IOE_ReadMultiple
 1324              	.LVL110:
 280:Drivers/BSP/Components/stmpe1600/stmpe1600.c ****   
 1325              		.loc 1 280 3 view .LVU334
 283:Drivers/BSP/Components/stmpe1600/stmpe1600.c ****   {
 1326              		.loc 1 283 3 view .LVU335
 285:Drivers/BSP/Components/stmpe1600/stmpe1600.c ****   }  
 1327              		.loc 1 285 5 view .LVU336
 285:Drivers/BSP/Components/stmpe1600/stmpe1600.c ****   }  
 1328              		.loc 1 285 9 is_stmt 0 view .LVU337
 1329 00da BDF80420 		ldrh	r2, [sp, #4]
 1330 00de 3243     		orrs	r2, r2, r6
 293:Drivers/BSP/Components/stmpe1600/stmpe1600.c **** }
 1331              		.loc 1 293 3 view .LVU338
 1332 00e0 2846     		mov	r0, r5
 285:Drivers/BSP/Components/stmpe1600/stmpe1600.c ****   }  
 1333              		.loc 1 285 9 view .LVU339
 1334 00e2 3A80     		strh	r2, [r7]	@ movhi
 293:Drivers/BSP/Components/stmpe1600/stmpe1600.c **** }
 1335              		.loc 1 293 3 is_stmt 1 view .LVU340
 1336 00e4 0223     		movs	r3, #2
 1337 00e6 3A46     		mov	r2, r7
 1338 00e8 1421     		movs	r1, #20
 1339 00ea FFF7FEFF 		bl	IOE_WriteMultiple
 1340              	.LVL111:
 1341              	.LBE77:
ARM GAS  /var/folders/0z/tsy30v1j4xl4_7kw94k978ww0000gn/T//ccsgo8Ff.s 			page 39


 1342              	.LBE76:
 311:Drivers/BSP/Components/stmpe1600/stmpe1600.c ****     uint8_t buffer[2] = {0,0};  
 1343              		.loc 1 311 11 is_stmt 0 view .LVU341
 1344 00ee 2046     		mov	r0, r4
 1345              	.LVL112:
 354:Drivers/BSP/Components/stmpe1600/stmpe1600.c **** }
 1346              		.loc 1 354 3 is_stmt 1 view .LVU342
 355:Drivers/BSP/Components/stmpe1600/stmpe1600.c **** 
 1347              		.loc 1 355 1 is_stmt 0 view .LVU343
 1348 00f0 02B0     		add	sp, sp, #8
 1349              		.cfi_remember_state
 1350              		.cfi_def_cfa_offset 24
 1351              		@ sp needed
 1352 00f2 BDE8F081 		pop	{r4, r5, r6, r7, r8, pc}
 1353              	.LVL113:
 1354              	.L66:
 1355              		.cfi_restore_state
 318:Drivers/BSP/Components/stmpe1600/stmpe1600.c ****     stmpe1600_IO_InitPin(DeviceAddr, IO_Pin, STMPE1600_DIRECTION_IN);
 1356              		.loc 1 318 5 is_stmt 1 view .LVU344
 1357              	.LBB78:
 1358              	.LBI78:
 493:Drivers/BSP/Components/stmpe1600/stmpe1600.c **** {
 1359              		.loc 1 493 6 view .LVU345
 1360              	.LBB79:
 495:Drivers/BSP/Components/stmpe1600/stmpe1600.c ****   
 1361              		.loc 1 495 3 view .LVU346
 498:Drivers/BSP/Components/stmpe1600/stmpe1600.c ****   
 1362              		.loc 1 498 3 is_stmt 0 view .LVU347
 1363 00f6 C5B2     		uxtb	r5, r0
 495:Drivers/BSP/Components/stmpe1600/stmpe1600.c ****   
 1364              		.loc 1 495 11 view .LVU348
 1365 00f8 4FF00008 		mov	r8, #0
 498:Drivers/BSP/Components/stmpe1600/stmpe1600.c ****   
 1366              		.loc 1 498 3 view .LVU349
 1367 00fc 01AA     		add	r2, sp, #4
 1368              	.LVL114:
 498:Drivers/BSP/Components/stmpe1600/stmpe1600.c ****   
 1369              		.loc 1 498 3 view .LVU350
 1370 00fe 0223     		movs	r3, #2
 1371 0100 0821     		movs	r1, #8
 1372              	.LVL115:
 498:Drivers/BSP/Components/stmpe1600/stmpe1600.c ****   
 1373              		.loc 1 498 3 view .LVU351
 1374 0102 2846     		mov	r0, r5
 1375              	.LVL116:
 495:Drivers/BSP/Components/stmpe1600/stmpe1600.c ****   
 1376              		.loc 1 495 11 view .LVU352
 1377 0104 ADF80480 		strh	r8, [sp, #4]	@ movhi
 498:Drivers/BSP/Components/stmpe1600/stmpe1600.c ****   
 1378              		.loc 1 498 3 is_stmt 1 view .LVU353
 503:Drivers/BSP/Components/stmpe1600/stmpe1600.c ****     
 1379              		.loc 1 503 7 is_stmt 0 view .LVU354
 1380 0108 F643     		mvns	r6, r6
 1381              	.LVL117:
 498:Drivers/BSP/Components/stmpe1600/stmpe1600.c ****   
 1382              		.loc 1 498 3 view .LVU355
 1383 010a FFF7FEFF 		bl	IOE_ReadMultiple
ARM GAS  /var/folders/0z/tsy30v1j4xl4_7kw94k978ww0000gn/T//ccsgo8Ff.s 			page 40


 1384              	.LVL118:
 500:Drivers/BSP/Components/stmpe1600/stmpe1600.c ****   
 1385              		.loc 1 500 3 is_stmt 1 view .LVU356
 503:Drivers/BSP/Components/stmpe1600/stmpe1600.c ****     
 1386              		.loc 1 503 3 view .LVU357
 503:Drivers/BSP/Components/stmpe1600/stmpe1600.c ****     
 1387              		.loc 1 503 7 is_stmt 0 view .LVU358
 1388 010e BDF80430 		ldrh	r3, [sp, #4]
 1389 0112 114F     		ldr	r7, .L70
 1390 0114 36B2     		sxth	r6, r6
 1391              	.LVL119:
 503:Drivers/BSP/Components/stmpe1600/stmpe1600.c ****     
 1392              		.loc 1 503 7 view .LVU359
 1393 0116 3340     		ands	r3, r3, r6
 1394 0118 3B80     		strh	r3, [r7]	@ movhi
 506:Drivers/BSP/Components/stmpe1600/stmpe1600.c **** }
 1395              		.loc 1 506 3 is_stmt 1 view .LVU360
 1396 011a 3A46     		mov	r2, r7
 1397 011c 2846     		mov	r0, r5
 1398 011e 0223     		movs	r3, #2
 1399 0120 0821     		movs	r1, #8
 1400 0122 FFF7FEFF 		bl	IOE_WriteMultiple
 1401              	.LVL120:
 506:Drivers/BSP/Components/stmpe1600/stmpe1600.c **** }
 1402              		.loc 1 506 3 is_stmt 0 view .LVU361
 1403              	.LBE79:
 1404              	.LBE78:
 319:Drivers/BSP/Components/stmpe1600/stmpe1600.c ****     break;
 1405              		.loc 1 319 5 is_stmt 1 view .LVU362
 1406              	.LBB80:
 1407              	.LBI80:
 273:Drivers/BSP/Components/stmpe1600/stmpe1600.c **** {
 1408              		.loc 1 273 6 view .LVU363
 1409              	.LBB81:
 275:Drivers/BSP/Components/stmpe1600/stmpe1600.c ****   
 1410              		.loc 1 275 3 view .LVU364
 278:Drivers/BSP/Components/stmpe1600/stmpe1600.c **** 
 1411              		.loc 1 278 3 is_stmt 0 view .LVU365
 1412 0126 01AA     		add	r2, sp, #4
 1413 0128 0223     		movs	r3, #2
 1414 012a 1421     		movs	r1, #20
 1415 012c 2846     		mov	r0, r5
 275:Drivers/BSP/Components/stmpe1600/stmpe1600.c ****   
 1416              		.loc 1 275 11 view .LVU366
 1417 012e ADF80480 		strh	r8, [sp, #4]	@ movhi
 278:Drivers/BSP/Components/stmpe1600/stmpe1600.c **** 
 1418              		.loc 1 278 3 is_stmt 1 view .LVU367
 1419 0132 FFF7FEFF 		bl	IOE_ReadMultiple
 1420              	.LVL121:
 280:Drivers/BSP/Components/stmpe1600/stmpe1600.c ****   
 1421              		.loc 1 280 3 view .LVU368
 283:Drivers/BSP/Components/stmpe1600/stmpe1600.c ****   {
 1422              		.loc 1 283 3 view .LVU369
 289:Drivers/BSP/Components/stmpe1600/stmpe1600.c ****   }
 1423              		.loc 1 289 5 view .LVU370
 289:Drivers/BSP/Components/stmpe1600/stmpe1600.c ****   }
 1424              		.loc 1 289 9 is_stmt 0 view .LVU371
ARM GAS  /var/folders/0z/tsy30v1j4xl4_7kw94k978ww0000gn/T//ccsgo8Ff.s 			page 41


 1425 0136 BDF80430 		ldrh	r3, [sp, #4]
 293:Drivers/BSP/Components/stmpe1600/stmpe1600.c **** }
 1426              		.loc 1 293 3 view .LVU372
 1427 013a 2846     		mov	r0, r5
 289:Drivers/BSP/Components/stmpe1600/stmpe1600.c ****   }
 1428              		.loc 1 289 9 view .LVU373
 1429 013c 1E40     		ands	r6, r6, r3
 293:Drivers/BSP/Components/stmpe1600/stmpe1600.c **** }
 1430              		.loc 1 293 3 view .LVU374
 1431 013e 3A46     		mov	r2, r7
 1432 0140 0223     		movs	r3, #2
 1433 0142 1421     		movs	r1, #20
 289:Drivers/BSP/Components/stmpe1600/stmpe1600.c ****   }
 1434              		.loc 1 289 9 view .LVU375
 1435 0144 3E80     		strh	r6, [r7]	@ movhi
 293:Drivers/BSP/Components/stmpe1600/stmpe1600.c **** }
 1436              		.loc 1 293 3 is_stmt 1 view .LVU376
 1437 0146 FFF7FEFF 		bl	IOE_WriteMultiple
 1438              	.LVL122:
 1439              	.LBE81:
 1440              	.LBE80:
 311:Drivers/BSP/Components/stmpe1600/stmpe1600.c ****     uint8_t buffer[2] = {0,0};  
 1441              		.loc 1 311 11 is_stmt 0 view .LVU377
 1442 014a 2046     		mov	r0, r4
 1443              	.LVL123:
 354:Drivers/BSP/Components/stmpe1600/stmpe1600.c **** }
 1444              		.loc 1 354 3 is_stmt 1 view .LVU378
 355:Drivers/BSP/Components/stmpe1600/stmpe1600.c **** 
 1445              		.loc 1 355 1 is_stmt 0 view .LVU379
 1446 014c 02B0     		add	sp, sp, #8
 1447              		.cfi_remember_state
 1448              		.cfi_def_cfa_offset 24
 1449              		@ sp needed
 1450 014e BDE8F081 		pop	{r4, r5, r6, r7, r8, pc}
 1451              	.LVL124:
 1452              	.L67:
 1453              		.cfi_restore_state
 315:Drivers/BSP/Components/stmpe1600/stmpe1600.c ****   {
 1454              		.loc 1 315 3 view .LVU380
 1455 0152 1046     		mov	r0, r2
 1456              	.LVL125:
 315:Drivers/BSP/Components/stmpe1600/stmpe1600.c ****   {
 1457              		.loc 1 315 3 view .LVU381
 1458 0154 96E7     		b	.L61
 1459              	.L71:
 1460 0156 00BF     		.align	2
 1461              	.L70:
 1462 0158 00000000 		.word	.LANCHOR0
 1463              		.cfi_endproc
 1464              	.LFE8:
 1466              		.section	.text.stmpe1600_IO_DisablePinIT,"ax",%progbits
 1467              		.align	1
 1468              		.p2align 2,,3
 1469              		.global	stmpe1600_IO_DisablePinIT
 1470              		.syntax unified
 1471              		.thumb
 1472              		.thumb_func
ARM GAS  /var/folders/0z/tsy30v1j4xl4_7kw94k978ww0000gn/T//ccsgo8Ff.s 			page 42


 1474              	stmpe1600_IO_DisablePinIT:
 1475              	.LVL126:
 1476              	.LFB14:
 494:Drivers/BSP/Components/stmpe1600/stmpe1600.c ****   uint8_t tmpData[2] = {0 , 0};
 1477              		.loc 1 494 1 is_stmt 1 view -0
 1478              		.cfi_startproc
 1479              		@ args = 0, pretend = 0, frame = 8
 1480              		@ frame_needed = 0, uses_anonymous_args = 0
 495:Drivers/BSP/Components/stmpe1600/stmpe1600.c ****   
 1481              		.loc 1 495 3 view .LVU383
 494:Drivers/BSP/Components/stmpe1600/stmpe1600.c ****   uint8_t tmpData[2] = {0 , 0};
 1482              		.loc 1 494 1 is_stmt 0 view .LVU384
 1483 0000 30B5     		push	{r4, r5, lr}
 1484              		.cfi_def_cfa_offset 12
 1485              		.cfi_offset 4, -12
 1486              		.cfi_offset 5, -8
 1487              		.cfi_offset 14, -4
 1488 0002 83B0     		sub	sp, sp, #12
 1489              		.cfi_def_cfa_offset 24
 498:Drivers/BSP/Components/stmpe1600/stmpe1600.c ****   
 1490              		.loc 1 498 3 view .LVU385
 1491 0004 C4B2     		uxtb	r4, r0
 495:Drivers/BSP/Components/stmpe1600/stmpe1600.c ****   
 1492              		.loc 1 495 11 view .LVU386
 1493 0006 0020     		movs	r0, #0
 1494              	.LVL127:
 494:Drivers/BSP/Components/stmpe1600/stmpe1600.c ****   uint8_t tmpData[2] = {0 , 0};
 1495              		.loc 1 494 1 view .LVU387
 1496 0008 0D46     		mov	r5, r1
 498:Drivers/BSP/Components/stmpe1600/stmpe1600.c ****   
 1497              		.loc 1 498 3 view .LVU388
 1498 000a 01AA     		add	r2, sp, #4
 495:Drivers/BSP/Components/stmpe1600/stmpe1600.c ****   
 1499              		.loc 1 495 11 view .LVU389
 1500 000c ADF80400 		strh	r0, [sp, #4]	@ movhi
 498:Drivers/BSP/Components/stmpe1600/stmpe1600.c ****   
 1501              		.loc 1 498 3 is_stmt 1 view .LVU390
 1502 0010 0223     		movs	r3, #2
 1503 0012 0821     		movs	r1, #8
 1504              	.LVL128:
 498:Drivers/BSP/Components/stmpe1600/stmpe1600.c ****   
 1505              		.loc 1 498 3 is_stmt 0 view .LVU391
 1506 0014 2046     		mov	r0, r4
 1507 0016 FFF7FEFF 		bl	IOE_ReadMultiple
 1508              	.LVL129:
 500:Drivers/BSP/Components/stmpe1600/stmpe1600.c ****   
 1509              		.loc 1 500 3 is_stmt 1 view .LVU392
 503:Drivers/BSP/Components/stmpe1600/stmpe1600.c ****     
 1510              		.loc 1 503 3 view .LVU393
 503:Drivers/BSP/Components/stmpe1600/stmpe1600.c ****     
 1511              		.loc 1 503 7 is_stmt 0 view .LVU394
 1512 001a BDF80400 		ldrh	r0, [sp, #4]
 1513 001e 054A     		ldr	r2, .L74
 1514 0020 20EA0501 		bic	r1, r0, r5
 1515 0024 1180     		strh	r1, [r2]	@ movhi
 506:Drivers/BSP/Components/stmpe1600/stmpe1600.c **** }
 1516              		.loc 1 506 3 is_stmt 1 view .LVU395
ARM GAS  /var/folders/0z/tsy30v1j4xl4_7kw94k978ww0000gn/T//ccsgo8Ff.s 			page 43


 1517 0026 0223     		movs	r3, #2
 1518 0028 2046     		mov	r0, r4
 1519 002a 0821     		movs	r1, #8
 1520 002c FFF7FEFF 		bl	IOE_WriteMultiple
 1521              	.LVL130:
 507:Drivers/BSP/Components/stmpe1600/stmpe1600.c **** 
 1522              		.loc 1 507 1 is_stmt 0 view .LVU396
 1523 0030 03B0     		add	sp, sp, #12
 1524              		.cfi_def_cfa_offset 12
 1525              		@ sp needed
 1526 0032 30BD     		pop	{r4, r5, pc}
 1527              	.LVL131:
 1528              	.L75:
 507:Drivers/BSP/Components/stmpe1600/stmpe1600.c **** 
 1529              		.loc 1 507 1 view .LVU397
 1530              		.align	2
 1531              	.L74:
 1532 0034 00000000 		.word	.LANCHOR0
 1533              		.cfi_endproc
 1534              	.LFE14:
 1536              		.section	.text.stmpe1600_IO_ReadIT,"ax",%progbits
 1537              		.align	1
 1538              		.p2align 2,,3
 1539              		.global	stmpe1600_IO_ReadIT
 1540              		.syntax unified
 1541              		.thumb
 1542              		.thumb_func
 1544              	stmpe1600_IO_ReadIT:
 1545              	.LVL132:
 1546              	.LFB16:
 541:Drivers/BSP/Components/stmpe1600/stmpe1600.c ****   uint8_t tmpData[2] = {0 , 0};
 1547              		.loc 1 541 1 is_stmt 1 view -0
 1548              		.cfi_startproc
 1549              		@ args = 0, pretend = 0, frame = 8
 1550              		@ frame_needed = 0, uses_anonymous_args = 0
 542:Drivers/BSP/Components/stmpe1600/stmpe1600.c ****   
 1551              		.loc 1 542 3 view .LVU399
 541:Drivers/BSP/Components/stmpe1600/stmpe1600.c ****   uint8_t tmpData[2] = {0 , 0};
 1552              		.loc 1 541 1 is_stmt 0 view .LVU400
 1553 0000 10B5     		push	{r4, lr}
 1554              		.cfi_def_cfa_offset 8
 1555              		.cfi_offset 4, -8
 1556              		.cfi_offset 14, -4
 1557 0002 82B0     		sub	sp, sp, #8
 1558              		.cfi_def_cfa_offset 16
 542:Drivers/BSP/Components/stmpe1600/stmpe1600.c ****   
 1559              		.loc 1 542 11 view .LVU401
 1560 0004 4FF0000C 		mov	ip, #0
 545:Drivers/BSP/Components/stmpe1600/stmpe1600.c ****   
 1561              		.loc 1 545 3 view .LVU402
 1562 0008 01AA     		add	r2, sp, #4
 541:Drivers/BSP/Components/stmpe1600/stmpe1600.c ****   uint8_t tmpData[2] = {0 , 0};
 1563              		.loc 1 541 1 view .LVU403
 1564 000a 0C46     		mov	r4, r1
 545:Drivers/BSP/Components/stmpe1600/stmpe1600.c ****   
 1565              		.loc 1 545 3 view .LVU404
 1566 000c 0223     		movs	r3, #2
ARM GAS  /var/folders/0z/tsy30v1j4xl4_7kw94k978ww0000gn/T//ccsgo8Ff.s 			page 44


 1567 000e 0A21     		movs	r1, #10
 1568              	.LVL133:
 545:Drivers/BSP/Components/stmpe1600/stmpe1600.c ****   
 1569              		.loc 1 545 3 view .LVU405
 1570 0010 C0B2     		uxtb	r0, r0
 1571              	.LVL134:
 542:Drivers/BSP/Components/stmpe1600/stmpe1600.c ****   
 1572              		.loc 1 542 11 view .LVU406
 1573 0012 ADF804C0 		strh	ip, [sp, #4]	@ movhi
 545:Drivers/BSP/Components/stmpe1600/stmpe1600.c ****   
 1574              		.loc 1 545 3 is_stmt 1 view .LVU407
 1575 0016 FFF7FEFF 		bl	IOE_ReadMultiple
 1576              	.LVL135:
 547:Drivers/BSP/Components/stmpe1600/stmpe1600.c ****   
 1577              		.loc 1 547 3 view .LVU408
 1578 001a BDF80430 		ldrh	r3, [sp, #4]
 547:Drivers/BSP/Components/stmpe1600/stmpe1600.c ****   
 1579              		.loc 1 547 7 is_stmt 0 view .LVU409
 1580 001e 034A     		ldr	r2, .L78
 550:Drivers/BSP/Components/stmpe1600/stmpe1600.c **** }
 1581              		.loc 1 550 14 view .LVU410
 1582 0020 03EA0400 		and	r0, r3, r4
 551:Drivers/BSP/Components/stmpe1600/stmpe1600.c **** 
 1583              		.loc 1 551 1 view .LVU411
 1584 0024 C0B2     		uxtb	r0, r0
 547:Drivers/BSP/Components/stmpe1600/stmpe1600.c ****   
 1585              		.loc 1 547 7 view .LVU412
 1586 0026 1380     		strh	r3, [r2]	@ movhi
 550:Drivers/BSP/Components/stmpe1600/stmpe1600.c **** }
 1587              		.loc 1 550 3 is_stmt 1 view .LVU413
 551:Drivers/BSP/Components/stmpe1600/stmpe1600.c **** 
 1588              		.loc 1 551 1 is_stmt 0 view .LVU414
 1589 0028 02B0     		add	sp, sp, #8
 1590              		.cfi_def_cfa_offset 8
 1591              		@ sp needed
 1592 002a 10BD     		pop	{r4, pc}
 1593              	.LVL136:
 1594              	.L79:
 551:Drivers/BSP/Components/stmpe1600/stmpe1600.c **** 
 1595              		.loc 1 551 1 view .LVU415
 1596              		.align	2
 1597              	.L78:
 1598 002c 00000000 		.word	.LANCHOR0
 1599              		.cfi_endproc
 1600              	.LFE16:
 1602              		.global	stmpe1600
 1603              		.global	stmpe1600_io_drv
 1604              		.section	.bss.stmpe1600,"aw",%nobits
 1605              		.align	2
 1606              		.set	.LANCHOR1,. + 0
 1609              	stmpe1600:
 1610 0000 0000     		.space	2
 1611              		.section	.bss.tmp,"aw",%nobits
 1612              		.align	1
 1613              		.set	.LANCHOR0,. + 0
 1616              	tmp:
 1617 0000 0000     		.space	2
ARM GAS  /var/folders/0z/tsy30v1j4xl4_7kw94k978ww0000gn/T//ccsgo8Ff.s 			page 45


 1618              		.section	.data.stmpe1600_io_drv,"aw"
 1619              		.align	2
 1622              	stmpe1600_io_drv:
 1623 0000 00000000 		.word	stmpe1600_Init
 1624 0004 00000000 		.word	stmpe1600_ReadID
 1625 0008 00000000 		.word	stmpe1600_Reset
 1626 000c 00000000 		.word	stmpe1600_Start
 1627 0010 00000000 		.word	stmpe1600_IO_Config
 1628 0014 00000000 		.word	stmpe1600_IO_WritePin
 1629 0018 00000000 		.word	stmpe1600_IO_ReadPin
 1630 001c 00000000 		.word	0
 1631 0020 00000000 		.word	0
 1632 0024 00000000 		.word	stmpe1600_IO_ITStatus
 1633 0028 00000000 		.word	stmpe1600_IO_ClearIT
 1634              		.text
 1635              	.Letext0:
 1636              		.file 2 "/Users/johannes/Library/Application Support/Code/User/globalStorage/bmd.stm32-for-vscode/
 1637              		.file 3 "/Users/johannes/Library/Application Support/Code/User/globalStorage/bmd.stm32-for-vscode/
 1638              		.file 4 "Drivers/BSP/Components/stmpe1600/../Common/io.h"
 1639              		.file 5 "Drivers/BSP/Components/stmpe1600/stmpe1600.h"
ARM GAS  /var/folders/0z/tsy30v1j4xl4_7kw94k978ww0000gn/T//ccsgo8Ff.s 			page 46

