ARM GAS  /var/folders/0z/tsy30v1j4xl4_7kw94k978ww0000gn/T//cciDu2Vr.s 			page 1


   1              		.cpu cortex-m4
   2              		.arch armv7e-m
   3              		.fpu fpv4-sp-d16
   4              		.eabi_attribute 27, 1
   5              		.eabi_attribute 28, 1
   6              		.eabi_attribute 20, 1
   7              		.eabi_attribute 21, 1
   8              		.eabi_attribute 23, 3
   9              		.eabi_attribute 24, 1
  10              		.eabi_attribute 25, 1
  11              		.eabi_attribute 26, 1
  12              		.eabi_attribute 30, 2
  13              		.eabi_attribute 34, 1
  14              		.eabi_attribute 18, 4
  15              		.file	"UI_LCD.c"
  16              		.text
  17              	.Ltext0:
  18              		.cfi_sections	.debug_frame
  19              		.section	.text.create_arcs,"ax",%progbits
  20              		.align	1
  21              		.p2align 2,,3
  22              		.global	create_arcs
  23              		.syntax unified
  24              		.thumb
  25              		.thumb_func
  27              	create_arcs:
  28              	.LFB446:
  29              		.file 1 "Core/Src/UI_LCD.c"
   1:Core/Src/UI_LCD.c **** 
   2:Core/Src/UI_LCD.c **** #include "UI_LCD.h"
   3:Core/Src/UI_LCD.c **** #include "LCDController.h"
   4:Core/Src/UI_LCD.c **** #include "st7789v.h"
   5:Core/Src/UI_LCD.c **** 
   6:Core/Src/UI_LCD.c **** 
   7:Core/Src/UI_LCD.c **** static void value_changed_event_cb(lv_event_t * e);
   8:Core/Src/UI_LCD.c **** extern float pot1_norm, pot2_norm;
   9:Core/Src/UI_LCD.c **** extern float current_count;
  10:Core/Src/UI_LCD.c **** 
  11:Core/Src/UI_LCD.c **** lv_obj_t *pot1, *pot2, *tabview;
  12:Core/Src/UI_LCD.c **** 
  13:Core/Src/UI_LCD.c **** 
  14:Core/Src/UI_LCD.c **** void create_arcs(void){
  30              		.loc 1 14 23 view -0
  31              		.cfi_startproc
  32              		@ args = 0, pretend = 0, frame = 0
  33              		@ frame_needed = 0, uses_anonymous_args = 0
  15:Core/Src/UI_LCD.c ****     /*Create 2 Arcs for the 2 pots*/
  16:Core/Src/UI_LCD.c ****     pot1 = lv_arc_create(lv_scr_act());
  34              		.loc 1 16 5 view .LVU1
  35              	.LBB8:
  36              	.LBI8:
  37              		.file 2 "Drivers/lvgl/src/core/lv_disp.h"
   1:Drivers/lvgl/src/core/lv_disp.h **** /**
   2:Drivers/lvgl/src/core/lv_disp.h ****  * @file lv_disp.h
   3:Drivers/lvgl/src/core/lv_disp.h ****  *
   4:Drivers/lvgl/src/core/lv_disp.h ****  */
   5:Drivers/lvgl/src/core/lv_disp.h **** 
ARM GAS  /var/folders/0z/tsy30v1j4xl4_7kw94k978ww0000gn/T//cciDu2Vr.s 			page 2


   6:Drivers/lvgl/src/core/lv_disp.h **** #ifndef LV_DISP_H
   7:Drivers/lvgl/src/core/lv_disp.h **** #define LV_DISP_H
   8:Drivers/lvgl/src/core/lv_disp.h **** 
   9:Drivers/lvgl/src/core/lv_disp.h **** #ifdef __cplusplus
  10:Drivers/lvgl/src/core/lv_disp.h **** extern "C" {
  11:Drivers/lvgl/src/core/lv_disp.h **** #endif
  12:Drivers/lvgl/src/core/lv_disp.h **** 
  13:Drivers/lvgl/src/core/lv_disp.h **** /*********************
  14:Drivers/lvgl/src/core/lv_disp.h ****  *      INCLUDES
  15:Drivers/lvgl/src/core/lv_disp.h ****  *********************/
  16:Drivers/lvgl/src/core/lv_disp.h **** #include "../hal/lv_hal.h"
  17:Drivers/lvgl/src/core/lv_disp.h **** #include "lv_obj.h"
  18:Drivers/lvgl/src/core/lv_disp.h **** #include "lv_theme.h"
  19:Drivers/lvgl/src/core/lv_disp.h **** 
  20:Drivers/lvgl/src/core/lv_disp.h **** /*********************
  21:Drivers/lvgl/src/core/lv_disp.h ****  *      DEFINES
  22:Drivers/lvgl/src/core/lv_disp.h ****  *********************/
  23:Drivers/lvgl/src/core/lv_disp.h **** 
  24:Drivers/lvgl/src/core/lv_disp.h **** /**********************
  25:Drivers/lvgl/src/core/lv_disp.h ****  *      TYPEDEFS
  26:Drivers/lvgl/src/core/lv_disp.h ****  **********************/
  27:Drivers/lvgl/src/core/lv_disp.h **** 
  28:Drivers/lvgl/src/core/lv_disp.h **** typedef enum {
  29:Drivers/lvgl/src/core/lv_disp.h ****     LV_SCR_LOAD_ANIM_NONE,
  30:Drivers/lvgl/src/core/lv_disp.h ****     LV_SCR_LOAD_ANIM_OVER_LEFT,
  31:Drivers/lvgl/src/core/lv_disp.h ****     LV_SCR_LOAD_ANIM_OVER_RIGHT,
  32:Drivers/lvgl/src/core/lv_disp.h ****     LV_SCR_LOAD_ANIM_OVER_TOP,
  33:Drivers/lvgl/src/core/lv_disp.h ****     LV_SCR_LOAD_ANIM_OVER_BOTTOM,
  34:Drivers/lvgl/src/core/lv_disp.h ****     LV_SCR_LOAD_ANIM_MOVE_LEFT,
  35:Drivers/lvgl/src/core/lv_disp.h ****     LV_SCR_LOAD_ANIM_MOVE_RIGHT,
  36:Drivers/lvgl/src/core/lv_disp.h ****     LV_SCR_LOAD_ANIM_MOVE_TOP,
  37:Drivers/lvgl/src/core/lv_disp.h ****     LV_SCR_LOAD_ANIM_MOVE_BOTTOM,
  38:Drivers/lvgl/src/core/lv_disp.h ****     LV_SCR_LOAD_ANIM_FADE_IN,
  39:Drivers/lvgl/src/core/lv_disp.h ****     LV_SCR_LOAD_ANIM_FADE_ON = LV_SCR_LOAD_ANIM_FADE_IN, /*For backward compatibility*/
  40:Drivers/lvgl/src/core/lv_disp.h ****     LV_SCR_LOAD_ANIM_FADE_OUT,
  41:Drivers/lvgl/src/core/lv_disp.h ****     LV_SCR_LOAD_ANIM_OUT_LEFT,
  42:Drivers/lvgl/src/core/lv_disp.h ****     LV_SCR_LOAD_ANIM_OUT_RIGHT,
  43:Drivers/lvgl/src/core/lv_disp.h ****     LV_SCR_LOAD_ANIM_OUT_TOP,
  44:Drivers/lvgl/src/core/lv_disp.h ****     LV_SCR_LOAD_ANIM_OUT_BOTTOM,
  45:Drivers/lvgl/src/core/lv_disp.h **** } lv_scr_load_anim_t;
  46:Drivers/lvgl/src/core/lv_disp.h **** 
  47:Drivers/lvgl/src/core/lv_disp.h **** /**********************
  48:Drivers/lvgl/src/core/lv_disp.h ****  * GLOBAL PROTOTYPES
  49:Drivers/lvgl/src/core/lv_disp.h ****  **********************/
  50:Drivers/lvgl/src/core/lv_disp.h **** 
  51:Drivers/lvgl/src/core/lv_disp.h **** /**
  52:Drivers/lvgl/src/core/lv_disp.h ****  * Return with a pointer to the active screen
  53:Drivers/lvgl/src/core/lv_disp.h ****  * @param disp pointer to display which active screen should be get. (NULL to use the default
  54:Drivers/lvgl/src/core/lv_disp.h ****  * screen)
  55:Drivers/lvgl/src/core/lv_disp.h ****  * @return pointer to the active screen object (loaded by 'lv_scr_load()')
  56:Drivers/lvgl/src/core/lv_disp.h ****  */
  57:Drivers/lvgl/src/core/lv_disp.h **** lv_obj_t * lv_disp_get_scr_act(lv_disp_t * disp);
  58:Drivers/lvgl/src/core/lv_disp.h **** 
  59:Drivers/lvgl/src/core/lv_disp.h **** /**
  60:Drivers/lvgl/src/core/lv_disp.h ****  * Return with a pointer to the previous screen. Only used during screen transitions.
  61:Drivers/lvgl/src/core/lv_disp.h ****  * @param disp pointer to display which previous screen should be get. (NULL to use the default
  62:Drivers/lvgl/src/core/lv_disp.h ****  * screen)
ARM GAS  /var/folders/0z/tsy30v1j4xl4_7kw94k978ww0000gn/T//cciDu2Vr.s 			page 3


  63:Drivers/lvgl/src/core/lv_disp.h ****  * @return pointer to the previous screen object or NULL if not used now
  64:Drivers/lvgl/src/core/lv_disp.h ****  */
  65:Drivers/lvgl/src/core/lv_disp.h **** lv_obj_t * lv_disp_get_scr_prev(lv_disp_t * disp);
  66:Drivers/lvgl/src/core/lv_disp.h **** 
  67:Drivers/lvgl/src/core/lv_disp.h **** /**
  68:Drivers/lvgl/src/core/lv_disp.h ****  * Make a screen active
  69:Drivers/lvgl/src/core/lv_disp.h ****  * @param scr pointer to a screen
  70:Drivers/lvgl/src/core/lv_disp.h ****  */
  71:Drivers/lvgl/src/core/lv_disp.h **** void lv_disp_load_scr(lv_obj_t * scr);
  72:Drivers/lvgl/src/core/lv_disp.h **** 
  73:Drivers/lvgl/src/core/lv_disp.h **** /**
  74:Drivers/lvgl/src/core/lv_disp.h ****  * Return with the top layer. (Same on every screen and it is above the normal screen layer)
  75:Drivers/lvgl/src/core/lv_disp.h ****  * @param disp pointer to display which top layer should be get. (NULL to use the default screen)
  76:Drivers/lvgl/src/core/lv_disp.h ****  * @return pointer to the top layer object (transparent screen sized lv_obj)
  77:Drivers/lvgl/src/core/lv_disp.h ****  */
  78:Drivers/lvgl/src/core/lv_disp.h **** lv_obj_t * lv_disp_get_layer_top(lv_disp_t * disp);
  79:Drivers/lvgl/src/core/lv_disp.h **** 
  80:Drivers/lvgl/src/core/lv_disp.h **** /**
  81:Drivers/lvgl/src/core/lv_disp.h ****  * Return with the sys. layer. (Same on every screen and it is above the normal screen and the top
  82:Drivers/lvgl/src/core/lv_disp.h ****  * layer)
  83:Drivers/lvgl/src/core/lv_disp.h ****  * @param disp pointer to display which sys. layer should be retrieved. (NULL to use the default sc
  84:Drivers/lvgl/src/core/lv_disp.h ****  * @return pointer to the sys layer object (transparent screen sized lv_obj)
  85:Drivers/lvgl/src/core/lv_disp.h ****  */
  86:Drivers/lvgl/src/core/lv_disp.h **** lv_obj_t * lv_disp_get_layer_sys(lv_disp_t * disp);
  87:Drivers/lvgl/src/core/lv_disp.h **** 
  88:Drivers/lvgl/src/core/lv_disp.h **** /**
  89:Drivers/lvgl/src/core/lv_disp.h ****  * Set the theme of a display
  90:Drivers/lvgl/src/core/lv_disp.h ****  * @param disp pointer to a display
  91:Drivers/lvgl/src/core/lv_disp.h ****  */
  92:Drivers/lvgl/src/core/lv_disp.h **** void lv_disp_set_theme(lv_disp_t * disp, lv_theme_t * th);
  93:Drivers/lvgl/src/core/lv_disp.h **** 
  94:Drivers/lvgl/src/core/lv_disp.h **** /**
  95:Drivers/lvgl/src/core/lv_disp.h ****  * Get the theme of a display
  96:Drivers/lvgl/src/core/lv_disp.h ****  * @param disp pointer to a display
  97:Drivers/lvgl/src/core/lv_disp.h ****  * @return the display's theme (can be NULL)
  98:Drivers/lvgl/src/core/lv_disp.h ****  */
  99:Drivers/lvgl/src/core/lv_disp.h **** lv_theme_t * lv_disp_get_theme(lv_disp_t * disp);
 100:Drivers/lvgl/src/core/lv_disp.h **** 
 101:Drivers/lvgl/src/core/lv_disp.h **** /**
 102:Drivers/lvgl/src/core/lv_disp.h ****  * Set the background color of a display
 103:Drivers/lvgl/src/core/lv_disp.h ****  * @param disp pointer to a display
 104:Drivers/lvgl/src/core/lv_disp.h ****  * @param color color of the background
 105:Drivers/lvgl/src/core/lv_disp.h ****  */
 106:Drivers/lvgl/src/core/lv_disp.h **** void lv_disp_set_bg_color(lv_disp_t * disp, lv_color_t color);
 107:Drivers/lvgl/src/core/lv_disp.h **** 
 108:Drivers/lvgl/src/core/lv_disp.h **** /**
 109:Drivers/lvgl/src/core/lv_disp.h ****  * Set the background image of a display
 110:Drivers/lvgl/src/core/lv_disp.h ****  * @param disp pointer to a display
 111:Drivers/lvgl/src/core/lv_disp.h ****  * @param img_src path to file or pointer to an `lv_img_dsc_t` variable
 112:Drivers/lvgl/src/core/lv_disp.h ****  */
 113:Drivers/lvgl/src/core/lv_disp.h **** void lv_disp_set_bg_image(lv_disp_t * disp, const void  * img_src);
 114:Drivers/lvgl/src/core/lv_disp.h **** 
 115:Drivers/lvgl/src/core/lv_disp.h **** /**
 116:Drivers/lvgl/src/core/lv_disp.h ****  * Set opacity of the background
 117:Drivers/lvgl/src/core/lv_disp.h ****  * @param disp pointer to a display
 118:Drivers/lvgl/src/core/lv_disp.h ****  * @param opa opacity (0..255)
 119:Drivers/lvgl/src/core/lv_disp.h ****  */
ARM GAS  /var/folders/0z/tsy30v1j4xl4_7kw94k978ww0000gn/T//cciDu2Vr.s 			page 4


 120:Drivers/lvgl/src/core/lv_disp.h **** void lv_disp_set_bg_opa(lv_disp_t * disp, lv_opa_t opa);
 121:Drivers/lvgl/src/core/lv_disp.h **** 
 122:Drivers/lvgl/src/core/lv_disp.h **** /**
 123:Drivers/lvgl/src/core/lv_disp.h ****  * Switch screen with animation
 124:Drivers/lvgl/src/core/lv_disp.h ****  * @param scr pointer to the new screen to load
 125:Drivers/lvgl/src/core/lv_disp.h ****  * @param anim_type type of the animation from `lv_scr_load_anim_t`, e.g. `LV_SCR_LOAD_ANIM_MOVE_LE
 126:Drivers/lvgl/src/core/lv_disp.h ****  * @param time time of the animation
 127:Drivers/lvgl/src/core/lv_disp.h ****  * @param delay delay before the transition
 128:Drivers/lvgl/src/core/lv_disp.h ****  * @param auto_del true: automatically delete the old screen
 129:Drivers/lvgl/src/core/lv_disp.h ****  */
 130:Drivers/lvgl/src/core/lv_disp.h **** void lv_scr_load_anim(lv_obj_t * scr, lv_scr_load_anim_t anim_type, uint32_t time, uint32_t delay, 
 131:Drivers/lvgl/src/core/lv_disp.h **** 
 132:Drivers/lvgl/src/core/lv_disp.h **** /**
 133:Drivers/lvgl/src/core/lv_disp.h ****  * Get elapsed time since last user activity on a display (e.g. click)
 134:Drivers/lvgl/src/core/lv_disp.h ****  * @param disp pointer to a display (NULL to get the overall smallest inactivity)
 135:Drivers/lvgl/src/core/lv_disp.h ****  * @return elapsed ticks (milliseconds) since the last activity
 136:Drivers/lvgl/src/core/lv_disp.h ****  */
 137:Drivers/lvgl/src/core/lv_disp.h **** uint32_t lv_disp_get_inactive_time(const lv_disp_t * disp);
 138:Drivers/lvgl/src/core/lv_disp.h **** 
 139:Drivers/lvgl/src/core/lv_disp.h **** /**
 140:Drivers/lvgl/src/core/lv_disp.h ****  * Manually trigger an activity on a display
 141:Drivers/lvgl/src/core/lv_disp.h ****  * @param disp pointer to a display (NULL to use the default display)
 142:Drivers/lvgl/src/core/lv_disp.h ****  */
 143:Drivers/lvgl/src/core/lv_disp.h **** void lv_disp_trig_activity(lv_disp_t * disp);
 144:Drivers/lvgl/src/core/lv_disp.h **** 
 145:Drivers/lvgl/src/core/lv_disp.h **** /**
 146:Drivers/lvgl/src/core/lv_disp.h ****  * Clean any CPU cache that is related to the display.
 147:Drivers/lvgl/src/core/lv_disp.h ****  * @param disp pointer to a display (NULL to use the default display)
 148:Drivers/lvgl/src/core/lv_disp.h ****  */
 149:Drivers/lvgl/src/core/lv_disp.h **** void lv_disp_clean_dcache(lv_disp_t * disp);
 150:Drivers/lvgl/src/core/lv_disp.h **** 
 151:Drivers/lvgl/src/core/lv_disp.h **** /**
 152:Drivers/lvgl/src/core/lv_disp.h ****  * Temporarily enable and disable the invalidation of the display.
 153:Drivers/lvgl/src/core/lv_disp.h ****  * @param disp pointer to a display (NULL to use the default display)
 154:Drivers/lvgl/src/core/lv_disp.h ****  * @param en true: enable invalidation; false: invalidation
 155:Drivers/lvgl/src/core/lv_disp.h ****  */
 156:Drivers/lvgl/src/core/lv_disp.h **** void lv_disp_enable_invalidation(lv_disp_t * disp, bool en);
 157:Drivers/lvgl/src/core/lv_disp.h **** 
 158:Drivers/lvgl/src/core/lv_disp.h **** /**
 159:Drivers/lvgl/src/core/lv_disp.h ****  * Get display invalidation is enabled.
 160:Drivers/lvgl/src/core/lv_disp.h ****  * @param disp pointer to a display (NULL to use the default display)
 161:Drivers/lvgl/src/core/lv_disp.h ****  * @return return true if invalidation is enabled
 162:Drivers/lvgl/src/core/lv_disp.h ****  */
 163:Drivers/lvgl/src/core/lv_disp.h **** bool lv_disp_is_invalidation_enabled(lv_disp_t * disp);
 164:Drivers/lvgl/src/core/lv_disp.h **** 
 165:Drivers/lvgl/src/core/lv_disp.h **** /**
 166:Drivers/lvgl/src/core/lv_disp.h ****  * Get a pointer to the screen refresher timer to
 167:Drivers/lvgl/src/core/lv_disp.h ****  * modify its parameters with `lv_timer_...` functions.
 168:Drivers/lvgl/src/core/lv_disp.h ****  * @param disp pointer to a display
 169:Drivers/lvgl/src/core/lv_disp.h ****  * @return pointer to the display refresher timer. (NULL on error)
 170:Drivers/lvgl/src/core/lv_disp.h ****  */
 171:Drivers/lvgl/src/core/lv_disp.h **** lv_timer_t * _lv_disp_get_refr_timer(lv_disp_t * disp);
 172:Drivers/lvgl/src/core/lv_disp.h **** 
 173:Drivers/lvgl/src/core/lv_disp.h **** /*------------------------------------------------
 174:Drivers/lvgl/src/core/lv_disp.h ****  * To improve backward compatibility
 175:Drivers/lvgl/src/core/lv_disp.h ****  * Recommended only if you have one display
 176:Drivers/lvgl/src/core/lv_disp.h ****  *------------------------------------------------*/
ARM GAS  /var/folders/0z/tsy30v1j4xl4_7kw94k978ww0000gn/T//cciDu2Vr.s 			page 5


 177:Drivers/lvgl/src/core/lv_disp.h **** 
 178:Drivers/lvgl/src/core/lv_disp.h **** /**
 179:Drivers/lvgl/src/core/lv_disp.h ****  * Get the active screen of the default display
 180:Drivers/lvgl/src/core/lv_disp.h ****  * @return pointer to the active screen
 181:Drivers/lvgl/src/core/lv_disp.h ****  */
 182:Drivers/lvgl/src/core/lv_disp.h **** static inline lv_obj_t * lv_scr_act(void)
  38              		.loc 2 182 26 view .LVU2
  39              	.LBB9:
 183:Drivers/lvgl/src/core/lv_disp.h **** {
 184:Drivers/lvgl/src/core/lv_disp.h ****     return lv_disp_get_scr_act(lv_disp_get_default());
  40              		.loc 2 184 5 view .LVU3
  41              	.LBE9:
  42              	.LBE8:
  14:Core/Src/UI_LCD.c ****     /*Create 2 Arcs for the 2 pots*/
  43              		.loc 1 14 23 is_stmt 0 view .LVU4
  44 0000 38B5     		push	{r3, r4, r5, lr}
  45              		.cfi_def_cfa_offset 16
  46              		.cfi_offset 3, -16
  47              		.cfi_offset 4, -12
  48              		.cfi_offset 5, -8
  49              		.cfi_offset 14, -4
  50              	.LBB11:
  51              	.LBB10:
  52              		.loc 2 184 12 view .LVU5
  53 0002 FFF7FEFF 		bl	lv_disp_get_default
  54              	.LVL0:
  55 0006 FFF7FEFF 		bl	lv_disp_get_scr_act
  56              	.LVL1:
  57              	.LBE10:
  58              	.LBE11:
  59              		.loc 1 16 12 view .LVU6
  60 000a FFF7FEFF 		bl	lv_arc_create
  61              	.LVL2:
  62              		.loc 1 16 10 view .LVU7
  63 000e 244D     		ldr	r5, .L4
  17:Core/Src/UI_LCD.c ****     lv_obj_set_size(pot1, 80, 80);
  18:Core/Src/UI_LCD.c **** 	lv_obj_align(pot1, LV_ALIGN_CENTER, -70, 0);
  19:Core/Src/UI_LCD.c ****     pot2 = lv_arc_create(lv_scr_act());
  64              		.loc 1 19 10 view .LVU8
  65 0010 244C     		ldr	r4, .L4+4
  16:Core/Src/UI_LCD.c ****     lv_obj_set_size(pot1, 80, 80);
  66              		.loc 1 16 10 view .LVU9
  67 0012 2860     		str	r0, [r5]
  17:Core/Src/UI_LCD.c ****     lv_obj_set_size(pot1, 80, 80);
  68              		.loc 1 17 5 is_stmt 1 view .LVU10
  69 0014 5022     		movs	r2, #80
  70 0016 1146     		mov	r1, r2
  71 0018 FFF7FEFF 		bl	lv_obj_set_size
  72              	.LVL3:
  18:Core/Src/UI_LCD.c ****     pot2 = lv_arc_create(lv_scr_act());
  73              		.loc 1 18 2 view .LVU11
  74 001c 0023     		movs	r3, #0
  75 001e 6FF04502 		mvn	r2, #69
  76 0022 0921     		movs	r1, #9
  77 0024 2868     		ldr	r0, [r5]
  78 0026 FFF7FEFF 		bl	lv_obj_align
  79              	.LVL4:
ARM GAS  /var/folders/0z/tsy30v1j4xl4_7kw94k978ww0000gn/T//cciDu2Vr.s 			page 6


  80              		.loc 1 19 5 view .LVU12
  81              	.LBB12:
  82              	.LBI12:
 182:Drivers/lvgl/src/core/lv_disp.h **** {
  83              		.loc 2 182 26 view .LVU13
  84              	.LBB13:
  85              		.loc 2 184 5 view .LVU14
  86              		.loc 2 184 12 is_stmt 0 view .LVU15
  87 002a FFF7FEFF 		bl	lv_disp_get_default
  88              	.LVL5:
  89 002e FFF7FEFF 		bl	lv_disp_get_scr_act
  90              	.LVL6:
  91              	.LBE13:
  92              	.LBE12:
  93              		.loc 1 19 12 view .LVU16
  94 0032 FFF7FEFF 		bl	lv_arc_create
  95              	.LVL7:
  20:Core/Src/UI_LCD.c ****     lv_obj_set_size(pot2, 80, 80);
  96              		.loc 1 20 5 view .LVU17
  97 0036 5022     		movs	r2, #80
  98 0038 1146     		mov	r1, r2
  19:Core/Src/UI_LCD.c ****     lv_obj_set_size(pot2, 80, 80);
  99              		.loc 1 19 10 view .LVU18
 100 003a 2060     		str	r0, [r4]
 101              		.loc 1 20 5 is_stmt 1 view .LVU19
 102 003c FFF7FEFF 		bl	lv_obj_set_size
 103              	.LVL8:
  21:Core/Src/UI_LCD.c **** 	lv_obj_align(pot2, LV_ALIGN_CENTER, 70, 0);
 104              		.loc 1 21 2 view .LVU20
 105 0040 0023     		movs	r3, #0
 106 0042 2068     		ldr	r0, [r4]
 107 0044 4622     		movs	r2, #70
 108 0046 0921     		movs	r1, #9
 109 0048 FFF7FEFF 		bl	lv_obj_align
 110              	.LVL9:
  22:Core/Src/UI_LCD.c ****    
  23:Core/Src/UI_LCD.c ****     lv_arc_set_rotation(pot1, 135);
 111              		.loc 1 23 5 view .LVU21
 112 004c 2868     		ldr	r0, [r5]
 113 004e 8721     		movs	r1, #135
 114 0050 FFF7FEFF 		bl	lv_arc_set_rotation
 115              	.LVL10:
  24:Core/Src/UI_LCD.c ****     lv_arc_set_bg_angles(pot1, 0, 270);
 116              		.loc 1 24 5 view .LVU22
 117 0054 2868     		ldr	r0, [r5]
 118 0056 4FF48772 		mov	r2, #270
 119 005a 0021     		movs	r1, #0
 120 005c FFF7FEFF 		bl	lv_arc_set_bg_angles
 121              	.LVL11:
  25:Core/Src/UI_LCD.c ****     lv_arc_set_rotation(pot2, 135);
 122              		.loc 1 25 5 view .LVU23
 123 0060 2068     		ldr	r0, [r4]
 124 0062 8721     		movs	r1, #135
 125 0064 FFF7FEFF 		bl	lv_arc_set_rotation
 126              	.LVL12:
  26:Core/Src/UI_LCD.c ****     lv_arc_set_bg_angles(pot2, 0, 270);
 127              		.loc 1 26 5 view .LVU24
ARM GAS  /var/folders/0z/tsy30v1j4xl4_7kw94k978ww0000gn/T//cciDu2Vr.s 			page 7


 128 0068 2068     		ldr	r0, [r4]
 129 006a 4FF48772 		mov	r2, #270
 130 006e 0021     		movs	r1, #0
 131 0070 FFF7FEFF 		bl	lv_arc_set_bg_angles
 132              	.LVL13:
  27:Core/Src/UI_LCD.c ****     
  28:Core/Src/UI_LCD.c ****     /*Make them unclickable, and without knob*/
  29:Core/Src/UI_LCD.c ****     lv_obj_remove_style(pot1, NULL, LV_PART_KNOB);
 133              		.loc 1 29 5 view .LVU25
 134 0074 2868     		ldr	r0, [r5]
 135 0076 4FF44032 		mov	r2, #196608
 136 007a 0021     		movs	r1, #0
 137 007c FFF7FEFF 		bl	lv_obj_remove_style
 138              	.LVL14:
  30:Core/Src/UI_LCD.c ****     lv_obj_clear_flag(pot1, LV_OBJ_FLAG_CLICKABLE);
 139              		.loc 1 30 5 view .LVU26
 140 0080 2868     		ldr	r0, [r5]
 141 0082 0221     		movs	r1, #2
 142 0084 FFF7FEFF 		bl	lv_obj_clear_flag
 143              	.LVL15:
  31:Core/Src/UI_LCD.c ****     lv_obj_remove_style(pot2, NULL, LV_PART_KNOB);
 144              		.loc 1 31 5 view .LVU27
 145 0088 2068     		ldr	r0, [r4]
 146 008a 0021     		movs	r1, #0
 147 008c 4FF44032 		mov	r2, #196608
 148 0090 FFF7FEFF 		bl	lv_obj_remove_style
 149              	.LVL16:
  32:Core/Src/UI_LCD.c ****     lv_obj_clear_flag(pot2, LV_OBJ_FLAG_CLICKABLE);
 150              		.loc 1 32 5 view .LVU28
 151 0094 2068     		ldr	r0, [r4]
 152 0096 0221     		movs	r1, #2
  33:Core/Src/UI_LCD.c **** 
  34:Core/Src/UI_LCD.c ****     // /*Create labels for potentiometers*/
  35:Core/Src/UI_LCD.c ****     // lv_obj_t * label1 = lv_label_create(lv_scr_act());
  36:Core/Src/UI_LCD.c ****     // lv_label_set_text_static(label1, "cutoff");
  37:Core/Src/UI_LCD.c **** 
  38:Core/Src/UI_LCD.c ****     // lv_obj_t * label2 = lv_label_create(lv_scr_act());
  39:Core/Src/UI_LCD.c ****     // lv_label_set_text_static(label2, "resonance");
  40:Core/Src/UI_LCD.c ****     
  41:Core/Src/UI_LCD.c ****     // lv_obj_align_to(label1, pot1, LV_ALIGN_BOTTOM_MID, 0, +15);
  42:Core/Src/UI_LCD.c ****     // lv_obj_align_to(label2, pot2, LV_ALIGN_BOTTOM_MID, 0, +15);
  43:Core/Src/UI_LCD.c **** }
 153              		.loc 1 43 1 is_stmt 0 view .LVU29
 154 0098 BDE83840 		pop	{r3, r4, r5, lr}
 155              		.cfi_restore 14
 156              		.cfi_restore 5
 157              		.cfi_restore 4
 158              		.cfi_restore 3
 159              		.cfi_def_cfa_offset 0
  32:Core/Src/UI_LCD.c ****     lv_obj_clear_flag(pot2, LV_OBJ_FLAG_CLICKABLE);
 160              		.loc 1 32 5 view .LVU30
 161 009c FFF7FEBF 		b	lv_obj_clear_flag
 162              	.LVL17:
 163              	.L5:
 164              		.align	2
 165              	.L4:
 166 00a0 00000000 		.word	.LANCHOR0
ARM GAS  /var/folders/0z/tsy30v1j4xl4_7kw94k978ww0000gn/T//cciDu2Vr.s 			page 8


 167 00a4 00000000 		.word	.LANCHOR1
 168              		.cfi_endproc
 169              	.LFE446:
 171              		.section	.rodata.create_tabs.str1.4,"aMS",%progbits,1
 172              		.align	2
 173              	.LC0:
 174 0000 6F736300 		.ascii	"osc\000"
 175              		.align	2
 176              	.LC1:
 177 0004 66696C74 		.ascii	"filter\000"
 177      657200
 178 000b 00       		.align	2
 179              	.LC2:
 180 000c 64656C61 		.ascii	"delay\000"
 180      7900
 181 0012 0000     		.align	2
 182              	.LC3:
 183 0014 6375746F 		.ascii	"cutoff\000"
 183      666600
 184 001b 00       		.align	2
 185              	.LC4:
 186 001c 7265736F 		.ascii	"resonance\000"
 186      6E616E63 
 186      6500
 187 0026 0000     		.align	2
 188              	.LC5:
 189 0028 5365636F 		.ascii	"Second tab\000"
 189      6E642074 
 189      616200
 190 0033 00       		.align	2
 191              	.LC6:
 192 0034 74696D65 		.ascii	"time\000"
 192      00
 193 0039 000000   		.align	2
 194              	.LC7:
 195 003c 66656564 		.ascii	"feedback\000"
 195      6261636B 
 195      00
 196              		.section	.text.create_tabs,"ax",%progbits
 197              		.align	1
 198              		.p2align 2,,3
 199              		.global	create_tabs
 200              		.syntax unified
 201              		.thumb
 202              		.thumb_func
 204              	create_tabs:
 205              	.LFB447:
  44:Core/Src/UI_LCD.c **** 
  45:Core/Src/UI_LCD.c **** 
  46:Core/Src/UI_LCD.c **** void create_tabs(void){
 206              		.loc 1 46 23 is_stmt 1 view -0
 207              		.cfi_startproc
 208              		@ args = 0, pretend = 0, frame = 0
 209              		@ frame_needed = 0, uses_anonymous_args = 0
  47:Core/Src/UI_LCD.c ****       /*Create a Tab view object*/
  48:Core/Src/UI_LCD.c ****     lv_obj_t * tabview;
 210              		.loc 1 48 5 view .LVU32
ARM GAS  /var/folders/0z/tsy30v1j4xl4_7kw94k978ww0000gn/T//cciDu2Vr.s 			page 9


  49:Core/Src/UI_LCD.c ****     tabview = lv_tabview_create(lv_scr_act(), LV_DIR_TOP, 40);
 211              		.loc 1 49 5 view .LVU33
 212              	.LBB14:
 213              	.LBI14:
 182:Drivers/lvgl/src/core/lv_disp.h **** {
 214              		.loc 2 182 26 view .LVU34
 215              	.LBB15:
 216              		.loc 2 184 5 view .LVU35
 217              	.LBE15:
 218              	.LBE14:
  46:Core/Src/UI_LCD.c ****       /*Create a Tab view object*/
 219              		.loc 1 46 23 is_stmt 0 view .LVU36
 220 0000 F0B5     		push	{r4, r5, r6, r7, lr}
 221              		.cfi_def_cfa_offset 20
 222              		.cfi_offset 4, -20
 223              		.cfi_offset 5, -16
 224              		.cfi_offset 6, -12
 225              		.cfi_offset 7, -8
 226              		.cfi_offset 14, -4
 227 0002 83B0     		sub	sp, sp, #12
 228              		.cfi_def_cfa_offset 32
 229              	.LBB17:
 230              	.LBB16:
 231              		.loc 2 184 12 view .LVU37
 232 0004 FFF7FEFF 		bl	lv_disp_get_default
 233              	.LVL18:
 234 0008 FFF7FEFF 		bl	lv_disp_get_scr_act
 235              	.LVL19:
 236              	.LBE16:
 237              	.LBE17:
 238              		.loc 1 49 15 view .LVU38
 239 000c 2822     		movs	r2, #40
 240 000e 0421     		movs	r1, #4
 241 0010 FFF7FEFF 		bl	lv_tabview_create
 242              	.LVL20:
  50:Core/Src/UI_LCD.c **** 
  51:Core/Src/UI_LCD.c ****     /*Add 3 tabs (the tabs are page (lv_page) and can be scrolled*/
  52:Core/Src/UI_LCD.c ****     lv_obj_t * tab1 = lv_tabview_add_tab(tabview, "osc");
 243              		.loc 1 52 23 view .LVU39
 244 0014 2349     		ldr	r1, .L8
  49:Core/Src/UI_LCD.c **** 
 245              		.loc 1 49 15 view .LVU40
 246 0016 0446     		mov	r4, r0
 247              	.LVL21:
 248              		.loc 1 52 5 is_stmt 1 view .LVU41
 249              		.loc 1 52 23 is_stmt 0 view .LVU42
 250 0018 FFF7FEFF 		bl	lv_tabview_add_tab
 251              	.LVL22:
  53:Core/Src/UI_LCD.c ****     lv_obj_t * tab2 = lv_tabview_add_tab(tabview, "filter");
 252              		.loc 1 53 23 view .LVU43
 253 001c 2249     		ldr	r1, .L8+4
  52:Core/Src/UI_LCD.c ****     lv_obj_t * tab2 = lv_tabview_add_tab(tabview, "filter");
 254              		.loc 1 52 23 view .LVU44
 255 001e 0546     		mov	r5, r0
 256              		.loc 1 53 23 view .LVU45
 257 0020 2046     		mov	r0, r4
 258              	.LVL23:
ARM GAS  /var/folders/0z/tsy30v1j4xl4_7kw94k978ww0000gn/T//cciDu2Vr.s 			page 10


 259              		.loc 1 53 5 is_stmt 1 view .LVU46
 260              		.loc 1 53 23 is_stmt 0 view .LVU47
 261 0022 FFF7FEFF 		bl	lv_tabview_add_tab
 262              	.LVL24:
  54:Core/Src/UI_LCD.c ****     lv_obj_t * tab3 = lv_tabview_add_tab(tabview, "delay");
 263              		.loc 1 54 23 view .LVU48
 264 0026 2149     		ldr	r1, .L8+8
  53:Core/Src/UI_LCD.c ****     lv_obj_t * tab2 = lv_tabview_add_tab(tabview, "filter");
 265              		.loc 1 53 23 view .LVU49
 266 0028 0646     		mov	r6, r0
 267              		.loc 1 54 23 view .LVU50
 268 002a 2046     		mov	r0, r4
 269              	.LVL25:
 270              		.loc 1 54 5 is_stmt 1 view .LVU51
 271              		.loc 1 54 23 is_stmt 0 view .LVU52
 272 002c FFF7FEFF 		bl	lv_tabview_add_tab
 273              	.LVL26:
 274 0030 0446     		mov	r4, r0
 275              	.LVL27:
  55:Core/Src/UI_LCD.c **** 
  56:Core/Src/UI_LCD.c ****     /*Add content to the tabs*/
  57:Core/Src/UI_LCD.c ****     lv_obj_t * label1 = lv_label_create(tab1);
 276              		.loc 1 57 25 view .LVU53
 277 0032 2846     		mov	r0, r5
 278              	.LVL28:
 279              		.loc 1 57 5 is_stmt 1 view .LVU54
 280              		.loc 1 57 25 is_stmt 0 view .LVU55
 281 0034 FFF7FEFF 		bl	lv_label_create
 282              	.LVL29:
  58:Core/Src/UI_LCD.c ****     lv_label_set_text_static(label1, "cutoff");
 283              		.loc 1 58 5 view .LVU56
 284 0038 1D49     		ldr	r1, .L8+12
  57:Core/Src/UI_LCD.c ****     lv_label_set_text_static(label1, "cutoff");
 285              		.loc 1 57 25 view .LVU57
 286 003a 0746     		mov	r7, r0
 287              	.LVL30:
 288              		.loc 1 58 5 is_stmt 1 view .LVU58
 289 003c FFF7FEFF 		bl	lv_label_set_text_static
 290              	.LVL31:
  59:Core/Src/UI_LCD.c **** 
  60:Core/Src/UI_LCD.c ****     lv_obj_t * label2 = lv_label_create(tab1);
 291              		.loc 1 60 5 view .LVU59
 292              		.loc 1 60 25 is_stmt 0 view .LVU60
 293 0040 2846     		mov	r0, r5
 294 0042 FFF7FEFF 		bl	lv_label_create
 295              	.LVL32:
  61:Core/Src/UI_LCD.c ****     lv_label_set_text_static(label2, "resonance");
 296              		.loc 1 61 5 view .LVU61
 297 0046 1B49     		ldr	r1, .L8+16
  60:Core/Src/UI_LCD.c ****     lv_label_set_text_static(label2, "resonance");
 298              		.loc 1 60 25 view .LVU62
 299 0048 0546     		mov	r5, r0
 300              	.LVL33:
 301              		.loc 1 61 5 is_stmt 1 view .LVU63
 302 004a FFF7FEFF 		bl	lv_label_set_text_static
 303              	.LVL34:
  62:Core/Src/UI_LCD.c ****     
ARM GAS  /var/folders/0z/tsy30v1j4xl4_7kw94k978ww0000gn/T//cciDu2Vr.s 			page 11


  63:Core/Src/UI_LCD.c ****     lv_obj_align_to(label1, pot1, LV_ALIGN_BOTTOM_MID, 0, +15);
 304              		.loc 1 63 5 view .LVU64
 305 004e 1A4B     		ldr	r3, .L8+20
 306 0050 3846     		mov	r0, r7
 307 0052 0F27     		movs	r7, #15
 308              	.LVL35:
 309              		.loc 1 63 5 is_stmt 0 view .LVU65
 310 0054 1968     		ldr	r1, [r3]
 311 0056 0097     		str	r7, [sp]
 312 0058 0023     		movs	r3, #0
 313 005a 0522     		movs	r2, #5
 314 005c FFF7FEFF 		bl	lv_obj_align_to
 315              	.LVL36:
  64:Core/Src/UI_LCD.c ****     lv_obj_align_to(label2, pot2, LV_ALIGN_BOTTOM_MID, 0, +15);;
 316              		.loc 1 64 5 is_stmt 1 view .LVU66
 317 0060 164A     		ldr	r2, .L8+24
 318 0062 0097     		str	r7, [sp]
 319 0064 0023     		movs	r3, #0
 320 0066 1168     		ldr	r1, [r2]
 321 0068 2846     		mov	r0, r5
 322 006a 0522     		movs	r2, #5
 323 006c FFF7FEFF 		bl	lv_obj_align_to
 324              	.LVL37:
 325              		.loc 1 64 64 view .LVU67
  65:Core/Src/UI_LCD.c **** 
  66:Core/Src/UI_LCD.c ****     label1 = lv_label_create(tab2);
 326              		.loc 1 66 5 view .LVU68
 327              		.loc 1 66 14 is_stmt 0 view .LVU69
 328 0070 3046     		mov	r0, r6
 329 0072 FFF7FEFF 		bl	lv_label_create
 330              	.LVL38:
  67:Core/Src/UI_LCD.c ****     lv_label_set_text(label1, "Second tab");
 331              		.loc 1 67 5 is_stmt 1 view .LVU70
 332 0076 1249     		ldr	r1, .L8+28
 333 0078 FFF7FEFF 		bl	lv_label_set_text
 334              	.LVL39:
  68:Core/Src/UI_LCD.c **** 
  69:Core/Src/UI_LCD.c ****     label1 = lv_label_create(tab3);
 335              		.loc 1 69 5 view .LVU71
 336              		.loc 1 69 14 is_stmt 0 view .LVU72
 337 007c 2046     		mov	r0, r4
 338 007e FFF7FEFF 		bl	lv_label_create
 339              	.LVL40:
 340 0082 0546     		mov	r5, r0
 341              	.LVL41:
  70:Core/Src/UI_LCD.c ****     label2 = lv_label_create(tab3);
 342              		.loc 1 70 14 view .LVU73
 343 0084 2046     		mov	r0, r4
 344              	.LVL42:
 345              		.loc 1 70 5 is_stmt 1 view .LVU74
 346              		.loc 1 70 14 is_stmt 0 view .LVU75
 347 0086 FFF7FEFF 		bl	lv_label_create
 348              	.LVL43:
  71:Core/Src/UI_LCD.c ****     lv_label_set_text_static(label1, "time");
 349              		.loc 1 71 5 view .LVU76
 350 008a 0E49     		ldr	r1, .L8+32
  70:Core/Src/UI_LCD.c ****     label2 = lv_label_create(tab3);
ARM GAS  /var/folders/0z/tsy30v1j4xl4_7kw94k978ww0000gn/T//cciDu2Vr.s 			page 12


 351              		.loc 1 70 14 view .LVU77
 352 008c 0446     		mov	r4, r0
 353              	.LVL44:
 354              		.loc 1 71 5 is_stmt 1 view .LVU78
 355 008e 2846     		mov	r0, r5
 356              	.LVL45:
 357              		.loc 1 71 5 is_stmt 0 view .LVU79
 358 0090 FFF7FEFF 		bl	lv_label_set_text_static
 359              	.LVL46:
  72:Core/Src/UI_LCD.c ****     lv_label_set_text_static(label2, "feedback");
 360              		.loc 1 72 5 is_stmt 1 view .LVU80
 361 0094 0C49     		ldr	r1, .L8+36
 362 0096 2046     		mov	r0, r4
  73:Core/Src/UI_LCD.c **** 
  74:Core/Src/UI_LCD.c **** }
 363              		.loc 1 74 1 is_stmt 0 view .LVU81
 364 0098 03B0     		add	sp, sp, #12
 365              		.cfi_def_cfa_offset 20
 366              		@ sp needed
 367 009a BDE8F040 		pop	{r4, r5, r6, r7, lr}
 368              		.cfi_restore 14
 369              		.cfi_restore 7
 370              		.cfi_restore 6
 371              		.cfi_restore 5
 372              		.cfi_restore 4
 373              		.cfi_def_cfa_offset 0
 374              	.LVL47:
  72:Core/Src/UI_LCD.c ****     lv_label_set_text_static(label2, "feedback");
 375              		.loc 1 72 5 view .LVU82
 376 009e FFF7FEBF 		b	lv_label_set_text_static
 377              	.LVL48:
 378              	.L9:
  72:Core/Src/UI_LCD.c ****     lv_label_set_text_static(label2, "feedback");
 379              		.loc 1 72 5 view .LVU83
 380 00a2 00BF     		.align	2
 381              	.L8:
 382 00a4 00000000 		.word	.LC0
 383 00a8 04000000 		.word	.LC1
 384 00ac 0C000000 		.word	.LC2
 385 00b0 14000000 		.word	.LC3
 386 00b4 1C000000 		.word	.LC4
 387 00b8 00000000 		.word	.LANCHOR0
 388 00bc 00000000 		.word	.LANCHOR1
 389 00c0 28000000 		.word	.LC5
 390 00c4 34000000 		.word	.LC6
 391 00c8 3C000000 		.word	.LC7
 392              		.cfi_endproc
 393              	.LFE447:
 395              		.section	.text.UI_LCD_init,"ax",%progbits
 396              		.align	1
 397              		.p2align 2,,3
 398              		.global	UI_LCD_init
 399              		.syntax unified
 400              		.thumb
 401              		.thumb_func
 403              	UI_LCD_init:
 404              	.LFB448:
ARM GAS  /var/folders/0z/tsy30v1j4xl4_7kw94k978ww0000gn/T//cciDu2Vr.s 			page 13


  75:Core/Src/UI_LCD.c **** 
  76:Core/Src/UI_LCD.c **** void UI_LCD_init(void){
 405              		.loc 1 76 23 is_stmt 1 view -0
 406              		.cfi_startproc
 407              		@ args = 0, pretend = 0, frame = 0
 408              		@ frame_needed = 0, uses_anonymous_args = 0
  77:Core/Src/UI_LCD.c ****     create_tabs();
 409              		.loc 1 77 5 view .LVU85
  76:Core/Src/UI_LCD.c ****     create_tabs();
 410              		.loc 1 76 23 is_stmt 0 view .LVU86
 411 0000 08B5     		push	{r3, lr}
 412              		.cfi_def_cfa_offset 8
 413              		.cfi_offset 3, -8
 414              		.cfi_offset 14, -4
 415              		.loc 1 77 5 view .LVU87
 416 0002 FFF7FEFF 		bl	create_tabs
 417              	.LVL49:
  78:Core/Src/UI_LCD.c ****     //lv_obj_set_style_bg_color(lv_scr_act(), lv_color_hex(0x003a57), LV_PART_MAIN);
  79:Core/Src/UI_LCD.c **** 	//lv_obj_set_style_text_color(lv_scr_act(), lv_color_hex(0xffffff), LV_PART_MAIN);
  80:Core/Src/UI_LCD.c ****     create_arcs();
 418              		.loc 1 80 5 is_stmt 1 view .LVU88
  81:Core/Src/UI_LCD.c **** }
 419              		.loc 1 81 1 is_stmt 0 view .LVU89
 420 0006 BDE80840 		pop	{r3, lr}
 421              		.cfi_restore 14
 422              		.cfi_restore 3
 423              		.cfi_def_cfa_offset 0
  80:Core/Src/UI_LCD.c **** }
 424              		.loc 1 80 5 view .LVU90
 425 000a FFF7FEBF 		b	create_arcs
 426              	.LVL50:
 427              		.cfi_endproc
 428              	.LFE448:
 430 000e 00BF     		.section	.text.UI_LCD_process,"ax",%progbits
 431              		.align	1
 432              		.p2align 2,,3
 433              		.global	UI_LCD_process
 434              		.syntax unified
 435              		.thumb
 436              		.thumb_func
 438              	UI_LCD_process:
 439              	.LFB449:
  82:Core/Src/UI_LCD.c **** 
  83:Core/Src/UI_LCD.c **** void UI_LCD_process(void){
 440              		.loc 1 83 26 is_stmt 1 view -0
 441              		.cfi_startproc
 442              		@ args = 0, pretend = 0, frame = 0
 443              		@ frame_needed = 0, uses_anonymous_args = 0
  84:Core/Src/UI_LCD.c ****     lv_arc_set_angles(pot1, 0, 270 * pot1_norm);
 444              		.loc 1 84 5 view .LVU92
  83:Core/Src/UI_LCD.c ****     lv_arc_set_angles(pot1, 0, 270 * pot1_norm);
 445              		.loc 1 83 26 is_stmt 0 view .LVU93
 446 0000 08B5     		push	{r3, lr}
 447              		.cfi_def_cfa_offset 8
 448              		.cfi_offset 3, -8
 449              		.cfi_offset 14, -4
 450              		.loc 1 84 36 view .LVU94
ARM GAS  /var/folders/0z/tsy30v1j4xl4_7kw94k978ww0000gn/T//cciDu2Vr.s 			page 14


 451 0002 134B     		ldr	r3, .L14
  83:Core/Src/UI_LCD.c ****     lv_arc_set_angles(pot1, 0, 270 * pot1_norm);
 452              		.loc 1 83 26 view .LVU95
 453 0004 2DED028B 		vpush.64	{d8}
 454              		.cfi_def_cfa_offset 16
 455              		.cfi_offset 80, -16
 456              		.cfi_offset 81, -12
 457              		.loc 1 84 36 view .LVU96
 458 0008 D3ED007A 		vldr.32	s15, [r3]
 459 000c 9FED118A 		vldr.32	s16, .L14+4
 460              		.loc 1 84 5 view .LVU97
 461 0010 114B     		ldr	r3, .L14+8
 462              		.loc 1 84 36 view .LVU98
 463 0012 67EE887A 		vmul.f32	s15, s15, s16
 464              		.loc 1 84 5 view .LVU99
 465 0016 1868     		ldr	r0, [r3]
 466 0018 FCEEE77A 		vcvt.u32.f32	s15, s15
 467 001c 0021     		movs	r1, #0
 468 001e 17EE903A 		vmov	r3, s15	@ int
 469 0022 9AB2     		uxth	r2, r3
 470 0024 FFF7FEFF 		bl	lv_arc_set_angles
 471              	.LVL51:
  85:Core/Src/UI_LCD.c ****     lv_arc_set_angles(pot2, 0, 270 * pot2_norm);    
 472              		.loc 1 85 5 is_stmt 1 view .LVU100
 473              		.loc 1 85 36 is_stmt 0 view .LVU101
 474 0028 0C4A     		ldr	r2, .L14+12
 475              		.loc 1 85 5 view .LVU102
 476 002a 0D4B     		ldr	r3, .L14+16
 477              		.loc 1 85 36 view .LVU103
 478 002c D2ED007A 		vldr.32	s15, [r2]
 479              		.loc 1 85 5 view .LVU104
 480 0030 1868     		ldr	r0, [r3]
 481              		.loc 1 85 36 view .LVU105
 482 0032 67EE887A 		vmul.f32	s15, s15, s16
  86:Core/Src/UI_LCD.c **** }
 483              		.loc 1 86 1 view .LVU106
 484 0036 BDEC028B 		vldm	sp!, {d8}
 485              		.cfi_restore 80
 486              		.cfi_restore 81
 487              		.cfi_def_cfa_offset 8
  85:Core/Src/UI_LCD.c ****     lv_arc_set_angles(pot2, 0, 270 * pot2_norm);    
 488              		.loc 1 85 5 view .LVU107
 489 003a FCEEE77A 		vcvt.u32.f32	s15, s15
 490 003e 0021     		movs	r1, #0
 491 0040 17EE903A 		vmov	r3, s15	@ int
 492 0044 9AB2     		uxth	r2, r3
 493              		.loc 1 86 1 view .LVU108
 494 0046 BDE80840 		pop	{r3, lr}
 495              		.cfi_restore 14
 496              		.cfi_restore 3
 497              		.cfi_def_cfa_offset 0
  85:Core/Src/UI_LCD.c ****     lv_arc_set_angles(pot2, 0, 270 * pot2_norm);    
 498              		.loc 1 85 5 view .LVU109
 499 004a FFF7FEBF 		b	lv_arc_set_angles
 500              	.LVL52:
 501              	.L15:
 502 004e 00BF     		.align	2
ARM GAS  /var/folders/0z/tsy30v1j4xl4_7kw94k978ww0000gn/T//cciDu2Vr.s 			page 15


 503              	.L14:
 504 0050 00000000 		.word	pot1_norm
 505 0054 00008743 		.word	1132920832
 506 0058 00000000 		.word	.LANCHOR0
 507 005c 00000000 		.word	pot2_norm
 508 0060 00000000 		.word	.LANCHOR1
 509              		.cfi_endproc
 510              	.LFE449:
 512              		.global	tabview
 513              		.global	pot2
 514              		.global	pot1
 515              		.section	.bss.pot1,"aw",%nobits
 516              		.align	2
 517              		.set	.LANCHOR0,. + 0
 520              	pot1:
 521 0000 00000000 		.space	4
 522              		.section	.bss.pot2,"aw",%nobits
 523              		.align	2
 524              		.set	.LANCHOR1,. + 0
 527              	pot2:
 528 0000 00000000 		.space	4
 529              		.section	.bss.tabview,"aw",%nobits
 530              		.align	2
 533              	tabview:
 534 0000 00000000 		.space	4
 535              		.text
 536              	.Letext0:
 537              		.file 3 "/Users/johannes/Library/Application Support/Code/User/globalStorage/bmd.stm32-for-vscode/
 538              		.file 4 "/Users/johannes/Library/Application Support/Code/User/globalStorage/bmd.stm32-for-vscode/
 539              		.file 5 "Drivers/lvgl/src/misc/lv_types.h"
 540              		.file 6 "Drivers/lvgl/src/misc/lv_timer.h"
 541              		.file 7 "/Users/johannes/Library/Application Support/Code/User/globalStorage/bmd.stm32-for-vscode/
 542              		.file 8 "Drivers/lvgl/src/hal/../draw/../misc/../font/../misc/lv_area.h"
 543              		.file 9 "Drivers/lvgl/src/hal/../draw/../misc/../font/lv_font.h"
 544              		.file 10 "Drivers/lvgl/src/hal/../draw/../misc/lv_color.h"
 545              		.file 11 "Drivers/lvgl/src/hal/../draw/../misc/lv_txt.h"
 546              		.file 12 "Drivers/lvgl/src/hal/../draw/../misc/lv_bidi.h"
 547              		.file 13 "Drivers/lvgl/src/hal/../draw/../misc/lv_style.h"
 548              		.file 14 "Drivers/lvgl/src/hal/../draw/lv_img_buf.h"
 549              		.file 15 "Drivers/lvgl/src/core/lv_obj.h"
 550              		.file 16 "Drivers/lvgl/src/hal/../draw/lv_draw_rect.h"
 551              		.file 17 "Drivers/lvgl/src/hal/../draw/lv_draw_label.h"
 552              		.file 18 "Drivers/lvgl/src/hal/../draw/lv_draw_img.h"
 553              		.file 19 "Drivers/lvgl/src/hal/../draw/lv_draw_line.h"
 554              		.file 20 "Drivers/lvgl/src/hal/../draw/lv_draw_arc.h"
 555              		.file 21 "Drivers/lvgl/src/hal/../draw/lv_draw_layer.h"
 556              		.file 22 "Drivers/lvgl/src/hal/../draw/lv_draw.h"
 557              		.file 23 "Drivers/lvgl/src/hal/../misc/lv_ll.h"
 558              		.file 24 "Drivers/lvgl/src/hal/lv_hal_disp.h"
 559              		.file 25 "Drivers/lvgl/src/core/lv_theme.h"
 560              		.file 26 "Drivers/lvgl/src/core/lv_group.h"
 561              		.file 27 "Drivers/lvgl/src/core/lv_obj_scroll.h"
 562              		.file 28 "Drivers/lvgl/src/core/lv_obj_style.h"
 563              		.file 29 "Drivers/lvgl/src/core/lv_obj_class.h"
 564              		.file 30 "Drivers/lvgl/src/core/lv_event.h"
 565              		.file 31 "Drivers/lvgl/src/widgets/lv_bar.h"
 566              		.file 32 "Drivers/lvgl/src/extra/widgets/imgbtn/lv_imgbtn.h"
ARM GAS  /var/folders/0z/tsy30v1j4xl4_7kw94k978ww0000gn/T//cciDu2Vr.s 			page 16


 567              		.file 33 "Drivers/lvgl/src/widgets/lv_arc.h"
 568              		.file 34 "Drivers/lvgl/src/widgets/lv_label.h"
 569              		.file 35 "Drivers/lvgl/src/hal/../draw/sw/../../core/lv_obj_pos.h"
 570              		.file 36 "Drivers/lvgl/src/extra/widgets/tabview/lv_tabview.h"
ARM GAS  /var/folders/0z/tsy30v1j4xl4_7kw94k978ww0000gn/T//cciDu2Vr.s 			page 17


DEFINED SYMBOLS
                            *ABS*:0000000000000000 UI_LCD.c
/var/folders/0z/tsy30v1j4xl4_7kw94k978ww0000gn/T//cciDu2Vr.s:20     .text.create_arcs:0000000000000000 $t
/var/folders/0z/tsy30v1j4xl4_7kw94k978ww0000gn/T//cciDu2Vr.s:27     .text.create_arcs:0000000000000000 create_arcs
/var/folders/0z/tsy30v1j4xl4_7kw94k978ww0000gn/T//cciDu2Vr.s:166    .text.create_arcs:00000000000000a0 $d
/var/folders/0z/tsy30v1j4xl4_7kw94k978ww0000gn/T//cciDu2Vr.s:172    .rodata.create_tabs.str1.4:0000000000000000 $d
/var/folders/0z/tsy30v1j4xl4_7kw94k978ww0000gn/T//cciDu2Vr.s:197    .text.create_tabs:0000000000000000 $t
/var/folders/0z/tsy30v1j4xl4_7kw94k978ww0000gn/T//cciDu2Vr.s:204    .text.create_tabs:0000000000000000 create_tabs
/var/folders/0z/tsy30v1j4xl4_7kw94k978ww0000gn/T//cciDu2Vr.s:382    .text.create_tabs:00000000000000a4 $d
/var/folders/0z/tsy30v1j4xl4_7kw94k978ww0000gn/T//cciDu2Vr.s:396    .text.UI_LCD_init:0000000000000000 $t
/var/folders/0z/tsy30v1j4xl4_7kw94k978ww0000gn/T//cciDu2Vr.s:403    .text.UI_LCD_init:0000000000000000 UI_LCD_init
/var/folders/0z/tsy30v1j4xl4_7kw94k978ww0000gn/T//cciDu2Vr.s:431    .text.UI_LCD_process:0000000000000000 $t
/var/folders/0z/tsy30v1j4xl4_7kw94k978ww0000gn/T//cciDu2Vr.s:438    .text.UI_LCD_process:0000000000000000 UI_LCD_process
/var/folders/0z/tsy30v1j4xl4_7kw94k978ww0000gn/T//cciDu2Vr.s:504    .text.UI_LCD_process:0000000000000050 $d
/var/folders/0z/tsy30v1j4xl4_7kw94k978ww0000gn/T//cciDu2Vr.s:533    .bss.tabview:0000000000000000 tabview
/var/folders/0z/tsy30v1j4xl4_7kw94k978ww0000gn/T//cciDu2Vr.s:527    .bss.pot2:0000000000000000 pot2
/var/folders/0z/tsy30v1j4xl4_7kw94k978ww0000gn/T//cciDu2Vr.s:520    .bss.pot1:0000000000000000 pot1
/var/folders/0z/tsy30v1j4xl4_7kw94k978ww0000gn/T//cciDu2Vr.s:516    .bss.pot1:0000000000000000 $d
/var/folders/0z/tsy30v1j4xl4_7kw94k978ww0000gn/T//cciDu2Vr.s:523    .bss.pot2:0000000000000000 $d
/var/folders/0z/tsy30v1j4xl4_7kw94k978ww0000gn/T//cciDu2Vr.s:530    .bss.tabview:0000000000000000 $d

UNDEFINED SYMBOLS
lv_disp_get_default
lv_disp_get_scr_act
lv_arc_create
lv_obj_set_size
lv_obj_align
lv_arc_set_rotation
lv_arc_set_bg_angles
lv_obj_remove_style
lv_obj_clear_flag
lv_tabview_create
lv_tabview_add_tab
lv_label_create
lv_label_set_text_static
lv_obj_align_to
lv_label_set_text
lv_arc_set_angles
pot1_norm
pot2_norm
