ARM GAS  /var/folders/lp/x54gwt890xv47sdkqj1k04q40000gn/T//cczqSNj3.s 			page 1


   1              		.cpu cortex-m4
   2              		.arch armv7e-m
   3              		.fpu fpv4-sp-d16
   4              		.eabi_attribute 27, 1
   5              		.eabi_attribute 28, 1
   6              		.eabi_attribute 20, 1
   7              		.eabi_attribute 21, 1
   8              		.eabi_attribute 23, 3
   9              		.eabi_attribute 24, 1
  10              		.eabi_attribute 25, 1
  11              		.eabi_attribute 26, 1
  12              		.eabi_attribute 30, 2
  13              		.eabi_attribute 34, 1
  14              		.eabi_attribute 18, 4
  15              		.file	"UI_LCD.c"
  16              		.text
  17              	.Ltext0:
  18              		.cfi_sections	.debug_frame
  19              		.file 1 "Core/Src/UI_LCD.c"
  20              		.section	.rodata.create_arcs.str1.4,"aMS",%progbits,1
  21              		.align	2
  22              	.LC0:
  23 0000 4D455320 		.ascii	"MES MiniSynth\000"
  23      4D696E69 
  23      53796E74 
  23      6800
  24 000e 0000     		.align	2
  25              	.LC1:
  26 0010 76697274 		.ascii	"virtual analog\000"
  26      75616C20 
  26      616E616C 
  26      6F6700
  27 001f 00       		.align	2
  28              	.LC2:
  29 0020 6375746F 		.ascii	"cutoff\000"
  29      666600
  30 0027 00       		.align	2
  31              	.LC3:
  32 0028 64656361 		.ascii	"decay\000"
  32      7900
  33 002e 0000     		.align	2
  34              	.LC4:
  35 0030 64656C61 		.ascii	"delay\000"
  35      7900
  36              		.section	.text.create_arcs,"ax",%progbits
  37              		.align	1
  38              		.p2align 2,,3
  39              		.global	create_arcs
  40              		.syntax unified
  41              		.thumb
  42              		.thumb_func
  44              	create_arcs:
  45              	.LFB446:
   1:Core/Src/UI_LCD.c **** /**
   2:Core/Src/UI_LCD.c ****  * @file UI_LCD.c
   3:Core/Src/UI_LCD.c ****  * @author johannes regnier
   4:Core/Src/UI_LCD.c ****  * @brief A simple graphical user interface. Basic for now.
ARM GAS  /var/folders/lp/x54gwt890xv47sdkqj1k04q40000gn/T//cczqSNj3.s 			page 2


   5:Core/Src/UI_LCD.c ****  * @version 0.1
   6:Core/Src/UI_LCD.c ****  * @date 2024-01-08
   7:Core/Src/UI_LCD.c ****  * 
   8:Core/Src/UI_LCD.c ****  * @copyright Copyright (c) 2024
   9:Core/Src/UI_LCD.c ****  * 
  10:Core/Src/UI_LCD.c ****  */
  11:Core/Src/UI_LCD.c **** 
  12:Core/Src/UI_LCD.c **** #include "UI_LCD.h"
  13:Core/Src/UI_LCD.c **** 
  14:Core/Src/UI_LCD.c **** #include "st7789v.h"
  15:Core/Src/UI_LCD.c **** #include "tim.h"
  16:Core/Src/UI_LCD.c **** #include "SEGGER_RTT.h"
  17:Core/Src/UI_LCD.c **** 
  18:Core/Src/UI_LCD.c **** 
  19:Core/Src/UI_LCD.c **** 
  20:Core/Src/UI_LCD.c **** 
  21:Core/Src/UI_LCD.c **** 
  22:Core/Src/UI_LCD.c **** extern float pot1_norm, pot2_norm, pot3_norm;
  23:Core/Src/UI_LCD.c **** extern uint16_t current_count, current_btn;
  24:Core/Src/UI_LCD.c **** extern int8_t enc_diff;
  25:Core/Src/UI_LCD.c **** extern uint8_t btn_pressed;
  26:Core/Src/UI_LCD.c **** 
  27:Core/Src/UI_LCD.c **** lv_obj_t *pot1, *pot2, *pot3, *tabview;
  28:Core/Src/UI_LCD.c **** lv_group_t* g; 
  29:Core/Src/UI_LCD.c **** lv_indev_t * my_indev;
  30:Core/Src/UI_LCD.c **** lv_obj_t * osc_txt;
  31:Core/Src/UI_LCD.c **** 
  32:Core/Src/UI_LCD.c **** /**
  33:Core/Src/UI_LCD.c ****  * @brief Create the 3 arcs displaying the states of the 3 potentiometers, with labels
  34:Core/Src/UI_LCD.c ****  * 
  35:Core/Src/UI_LCD.c ****  */
  36:Core/Src/UI_LCD.c **** void create_arcs(void){
  46              		.loc 1 36 23 view -0
  47              		.cfi_startproc
  48              		@ args = 0, pretend = 0, frame = 0
  49              		@ frame_needed = 0, uses_anonymous_args = 0
  37:Core/Src/UI_LCD.c ****     /* Create text*/
  38:Core/Src/UI_LCD.c ****     lv_obj_t * title = lv_label_create(lv_scr_act());
  50              		.loc 1 38 5 view .LVU1
  51              	.LBB22:
  52              	.LBI22:
  53              		.file 2 "Drivers/lvgl/src/core/lv_disp.h"
   1:Drivers/lvgl/src/core/lv_disp.h **** /**
   2:Drivers/lvgl/src/core/lv_disp.h ****  * @file lv_disp.h
   3:Drivers/lvgl/src/core/lv_disp.h ****  *
   4:Drivers/lvgl/src/core/lv_disp.h ****  */
   5:Drivers/lvgl/src/core/lv_disp.h **** 
   6:Drivers/lvgl/src/core/lv_disp.h **** #ifndef LV_DISP_H
   7:Drivers/lvgl/src/core/lv_disp.h **** #define LV_DISP_H
   8:Drivers/lvgl/src/core/lv_disp.h **** 
   9:Drivers/lvgl/src/core/lv_disp.h **** #ifdef __cplusplus
  10:Drivers/lvgl/src/core/lv_disp.h **** extern "C" {
  11:Drivers/lvgl/src/core/lv_disp.h **** #endif
  12:Drivers/lvgl/src/core/lv_disp.h **** 
  13:Drivers/lvgl/src/core/lv_disp.h **** /*********************
  14:Drivers/lvgl/src/core/lv_disp.h ****  *      INCLUDES
  15:Drivers/lvgl/src/core/lv_disp.h ****  *********************/
ARM GAS  /var/folders/lp/x54gwt890xv47sdkqj1k04q40000gn/T//cczqSNj3.s 			page 3


  16:Drivers/lvgl/src/core/lv_disp.h **** #include "../hal/lv_hal.h"
  17:Drivers/lvgl/src/core/lv_disp.h **** #include "lv_obj.h"
  18:Drivers/lvgl/src/core/lv_disp.h **** #include "lv_theme.h"
  19:Drivers/lvgl/src/core/lv_disp.h **** 
  20:Drivers/lvgl/src/core/lv_disp.h **** /*********************
  21:Drivers/lvgl/src/core/lv_disp.h ****  *      DEFINES
  22:Drivers/lvgl/src/core/lv_disp.h ****  *********************/
  23:Drivers/lvgl/src/core/lv_disp.h **** 
  24:Drivers/lvgl/src/core/lv_disp.h **** /**********************
  25:Drivers/lvgl/src/core/lv_disp.h ****  *      TYPEDEFS
  26:Drivers/lvgl/src/core/lv_disp.h ****  **********************/
  27:Drivers/lvgl/src/core/lv_disp.h **** 
  28:Drivers/lvgl/src/core/lv_disp.h **** typedef enum {
  29:Drivers/lvgl/src/core/lv_disp.h ****     LV_SCR_LOAD_ANIM_NONE,
  30:Drivers/lvgl/src/core/lv_disp.h ****     LV_SCR_LOAD_ANIM_OVER_LEFT,
  31:Drivers/lvgl/src/core/lv_disp.h ****     LV_SCR_LOAD_ANIM_OVER_RIGHT,
  32:Drivers/lvgl/src/core/lv_disp.h ****     LV_SCR_LOAD_ANIM_OVER_TOP,
  33:Drivers/lvgl/src/core/lv_disp.h ****     LV_SCR_LOAD_ANIM_OVER_BOTTOM,
  34:Drivers/lvgl/src/core/lv_disp.h ****     LV_SCR_LOAD_ANIM_MOVE_LEFT,
  35:Drivers/lvgl/src/core/lv_disp.h ****     LV_SCR_LOAD_ANIM_MOVE_RIGHT,
  36:Drivers/lvgl/src/core/lv_disp.h ****     LV_SCR_LOAD_ANIM_MOVE_TOP,
  37:Drivers/lvgl/src/core/lv_disp.h ****     LV_SCR_LOAD_ANIM_MOVE_BOTTOM,
  38:Drivers/lvgl/src/core/lv_disp.h ****     LV_SCR_LOAD_ANIM_FADE_IN,
  39:Drivers/lvgl/src/core/lv_disp.h ****     LV_SCR_LOAD_ANIM_FADE_ON = LV_SCR_LOAD_ANIM_FADE_IN, /*For backward compatibility*/
  40:Drivers/lvgl/src/core/lv_disp.h ****     LV_SCR_LOAD_ANIM_FADE_OUT,
  41:Drivers/lvgl/src/core/lv_disp.h ****     LV_SCR_LOAD_ANIM_OUT_LEFT,
  42:Drivers/lvgl/src/core/lv_disp.h ****     LV_SCR_LOAD_ANIM_OUT_RIGHT,
  43:Drivers/lvgl/src/core/lv_disp.h ****     LV_SCR_LOAD_ANIM_OUT_TOP,
  44:Drivers/lvgl/src/core/lv_disp.h ****     LV_SCR_LOAD_ANIM_OUT_BOTTOM,
  45:Drivers/lvgl/src/core/lv_disp.h **** } lv_scr_load_anim_t;
  46:Drivers/lvgl/src/core/lv_disp.h **** 
  47:Drivers/lvgl/src/core/lv_disp.h **** /**********************
  48:Drivers/lvgl/src/core/lv_disp.h ****  * GLOBAL PROTOTYPES
  49:Drivers/lvgl/src/core/lv_disp.h ****  **********************/
  50:Drivers/lvgl/src/core/lv_disp.h **** 
  51:Drivers/lvgl/src/core/lv_disp.h **** /**
  52:Drivers/lvgl/src/core/lv_disp.h ****  * Return with a pointer to the active screen
  53:Drivers/lvgl/src/core/lv_disp.h ****  * @param disp pointer to display which active screen should be get. (NULL to use the default
  54:Drivers/lvgl/src/core/lv_disp.h ****  * screen)
  55:Drivers/lvgl/src/core/lv_disp.h ****  * @return pointer to the active screen object (loaded by 'lv_scr_load()')
  56:Drivers/lvgl/src/core/lv_disp.h ****  */
  57:Drivers/lvgl/src/core/lv_disp.h **** lv_obj_t * lv_disp_get_scr_act(lv_disp_t * disp);
  58:Drivers/lvgl/src/core/lv_disp.h **** 
  59:Drivers/lvgl/src/core/lv_disp.h **** /**
  60:Drivers/lvgl/src/core/lv_disp.h ****  * Return with a pointer to the previous screen. Only used during screen transitions.
  61:Drivers/lvgl/src/core/lv_disp.h ****  * @param disp pointer to display which previous screen should be get. (NULL to use the default
  62:Drivers/lvgl/src/core/lv_disp.h ****  * screen)
  63:Drivers/lvgl/src/core/lv_disp.h ****  * @return pointer to the previous screen object or NULL if not used now
  64:Drivers/lvgl/src/core/lv_disp.h ****  */
  65:Drivers/lvgl/src/core/lv_disp.h **** lv_obj_t * lv_disp_get_scr_prev(lv_disp_t * disp);
  66:Drivers/lvgl/src/core/lv_disp.h **** 
  67:Drivers/lvgl/src/core/lv_disp.h **** /**
  68:Drivers/lvgl/src/core/lv_disp.h ****  * Make a screen active
  69:Drivers/lvgl/src/core/lv_disp.h ****  * @param scr pointer to a screen
  70:Drivers/lvgl/src/core/lv_disp.h ****  */
  71:Drivers/lvgl/src/core/lv_disp.h **** void lv_disp_load_scr(lv_obj_t * scr);
  72:Drivers/lvgl/src/core/lv_disp.h **** 
ARM GAS  /var/folders/lp/x54gwt890xv47sdkqj1k04q40000gn/T//cczqSNj3.s 			page 4


  73:Drivers/lvgl/src/core/lv_disp.h **** /**
  74:Drivers/lvgl/src/core/lv_disp.h ****  * Return with the top layer. (Same on every screen and it is above the normal screen layer)
  75:Drivers/lvgl/src/core/lv_disp.h ****  * @param disp pointer to display which top layer should be get. (NULL to use the default screen)
  76:Drivers/lvgl/src/core/lv_disp.h ****  * @return pointer to the top layer object (transparent screen sized lv_obj)
  77:Drivers/lvgl/src/core/lv_disp.h ****  */
  78:Drivers/lvgl/src/core/lv_disp.h **** lv_obj_t * lv_disp_get_layer_top(lv_disp_t * disp);
  79:Drivers/lvgl/src/core/lv_disp.h **** 
  80:Drivers/lvgl/src/core/lv_disp.h **** /**
  81:Drivers/lvgl/src/core/lv_disp.h ****  * Return with the sys. layer. (Same on every screen and it is above the normal screen and the top
  82:Drivers/lvgl/src/core/lv_disp.h ****  * layer)
  83:Drivers/lvgl/src/core/lv_disp.h ****  * @param disp pointer to display which sys. layer should be retrieved. (NULL to use the default sc
  84:Drivers/lvgl/src/core/lv_disp.h ****  * @return pointer to the sys layer object (transparent screen sized lv_obj)
  85:Drivers/lvgl/src/core/lv_disp.h ****  */
  86:Drivers/lvgl/src/core/lv_disp.h **** lv_obj_t * lv_disp_get_layer_sys(lv_disp_t * disp);
  87:Drivers/lvgl/src/core/lv_disp.h **** 
  88:Drivers/lvgl/src/core/lv_disp.h **** /**
  89:Drivers/lvgl/src/core/lv_disp.h ****  * Set the theme of a display
  90:Drivers/lvgl/src/core/lv_disp.h ****  * @param disp pointer to a display
  91:Drivers/lvgl/src/core/lv_disp.h ****  */
  92:Drivers/lvgl/src/core/lv_disp.h **** void lv_disp_set_theme(lv_disp_t * disp, lv_theme_t * th);
  93:Drivers/lvgl/src/core/lv_disp.h **** 
  94:Drivers/lvgl/src/core/lv_disp.h **** /**
  95:Drivers/lvgl/src/core/lv_disp.h ****  * Get the theme of a display
  96:Drivers/lvgl/src/core/lv_disp.h ****  * @param disp pointer to a display
  97:Drivers/lvgl/src/core/lv_disp.h ****  * @return the display's theme (can be NULL)
  98:Drivers/lvgl/src/core/lv_disp.h ****  */
  99:Drivers/lvgl/src/core/lv_disp.h **** lv_theme_t * lv_disp_get_theme(lv_disp_t * disp);
 100:Drivers/lvgl/src/core/lv_disp.h **** 
 101:Drivers/lvgl/src/core/lv_disp.h **** /**
 102:Drivers/lvgl/src/core/lv_disp.h ****  * Set the background color of a display
 103:Drivers/lvgl/src/core/lv_disp.h ****  * @param disp pointer to a display
 104:Drivers/lvgl/src/core/lv_disp.h ****  * @param color color of the background
 105:Drivers/lvgl/src/core/lv_disp.h ****  */
 106:Drivers/lvgl/src/core/lv_disp.h **** void lv_disp_set_bg_color(lv_disp_t * disp, lv_color_t color);
 107:Drivers/lvgl/src/core/lv_disp.h **** 
 108:Drivers/lvgl/src/core/lv_disp.h **** /**
 109:Drivers/lvgl/src/core/lv_disp.h ****  * Set the background image of a display
 110:Drivers/lvgl/src/core/lv_disp.h ****  * @param disp pointer to a display
 111:Drivers/lvgl/src/core/lv_disp.h ****  * @param img_src path to file or pointer to an `lv_img_dsc_t` variable
 112:Drivers/lvgl/src/core/lv_disp.h ****  */
 113:Drivers/lvgl/src/core/lv_disp.h **** void lv_disp_set_bg_image(lv_disp_t * disp, const void  * img_src);
 114:Drivers/lvgl/src/core/lv_disp.h **** 
 115:Drivers/lvgl/src/core/lv_disp.h **** /**
 116:Drivers/lvgl/src/core/lv_disp.h ****  * Set opacity of the background
 117:Drivers/lvgl/src/core/lv_disp.h ****  * @param disp pointer to a display
 118:Drivers/lvgl/src/core/lv_disp.h ****  * @param opa opacity (0..255)
 119:Drivers/lvgl/src/core/lv_disp.h ****  */
 120:Drivers/lvgl/src/core/lv_disp.h **** void lv_disp_set_bg_opa(lv_disp_t * disp, lv_opa_t opa);
 121:Drivers/lvgl/src/core/lv_disp.h **** 
 122:Drivers/lvgl/src/core/lv_disp.h **** /**
 123:Drivers/lvgl/src/core/lv_disp.h ****  * Switch screen with animation
 124:Drivers/lvgl/src/core/lv_disp.h ****  * @param scr pointer to the new screen to load
 125:Drivers/lvgl/src/core/lv_disp.h ****  * @param anim_type type of the animation from `lv_scr_load_anim_t`, e.g. `LV_SCR_LOAD_ANIM_MOVE_LE
 126:Drivers/lvgl/src/core/lv_disp.h ****  * @param time time of the animation
 127:Drivers/lvgl/src/core/lv_disp.h ****  * @param delay delay before the transition
 128:Drivers/lvgl/src/core/lv_disp.h ****  * @param auto_del true: automatically delete the old screen
 129:Drivers/lvgl/src/core/lv_disp.h ****  */
ARM GAS  /var/folders/lp/x54gwt890xv47sdkqj1k04q40000gn/T//cczqSNj3.s 			page 5


 130:Drivers/lvgl/src/core/lv_disp.h **** void lv_scr_load_anim(lv_obj_t * scr, lv_scr_load_anim_t anim_type, uint32_t time, uint32_t delay, 
 131:Drivers/lvgl/src/core/lv_disp.h **** 
 132:Drivers/lvgl/src/core/lv_disp.h **** /**
 133:Drivers/lvgl/src/core/lv_disp.h ****  * Get elapsed time since last user activity on a display (e.g. click)
 134:Drivers/lvgl/src/core/lv_disp.h ****  * @param disp pointer to a display (NULL to get the overall smallest inactivity)
 135:Drivers/lvgl/src/core/lv_disp.h ****  * @return elapsed ticks (milliseconds) since the last activity
 136:Drivers/lvgl/src/core/lv_disp.h ****  */
 137:Drivers/lvgl/src/core/lv_disp.h **** uint32_t lv_disp_get_inactive_time(const lv_disp_t * disp);
 138:Drivers/lvgl/src/core/lv_disp.h **** 
 139:Drivers/lvgl/src/core/lv_disp.h **** /**
 140:Drivers/lvgl/src/core/lv_disp.h ****  * Manually trigger an activity on a display
 141:Drivers/lvgl/src/core/lv_disp.h ****  * @param disp pointer to a display (NULL to use the default display)
 142:Drivers/lvgl/src/core/lv_disp.h ****  */
 143:Drivers/lvgl/src/core/lv_disp.h **** void lv_disp_trig_activity(lv_disp_t * disp);
 144:Drivers/lvgl/src/core/lv_disp.h **** 
 145:Drivers/lvgl/src/core/lv_disp.h **** /**
 146:Drivers/lvgl/src/core/lv_disp.h ****  * Clean any CPU cache that is related to the display.
 147:Drivers/lvgl/src/core/lv_disp.h ****  * @param disp pointer to a display (NULL to use the default display)
 148:Drivers/lvgl/src/core/lv_disp.h ****  */
 149:Drivers/lvgl/src/core/lv_disp.h **** void lv_disp_clean_dcache(lv_disp_t * disp);
 150:Drivers/lvgl/src/core/lv_disp.h **** 
 151:Drivers/lvgl/src/core/lv_disp.h **** /**
 152:Drivers/lvgl/src/core/lv_disp.h ****  * Temporarily enable and disable the invalidation of the display.
 153:Drivers/lvgl/src/core/lv_disp.h ****  * @param disp pointer to a display (NULL to use the default display)
 154:Drivers/lvgl/src/core/lv_disp.h ****  * @param en true: enable invalidation; false: invalidation
 155:Drivers/lvgl/src/core/lv_disp.h ****  */
 156:Drivers/lvgl/src/core/lv_disp.h **** void lv_disp_enable_invalidation(lv_disp_t * disp, bool en);
 157:Drivers/lvgl/src/core/lv_disp.h **** 
 158:Drivers/lvgl/src/core/lv_disp.h **** /**
 159:Drivers/lvgl/src/core/lv_disp.h ****  * Get display invalidation is enabled.
 160:Drivers/lvgl/src/core/lv_disp.h ****  * @param disp pointer to a display (NULL to use the default display)
 161:Drivers/lvgl/src/core/lv_disp.h ****  * @return return true if invalidation is enabled
 162:Drivers/lvgl/src/core/lv_disp.h ****  */
 163:Drivers/lvgl/src/core/lv_disp.h **** bool lv_disp_is_invalidation_enabled(lv_disp_t * disp);
 164:Drivers/lvgl/src/core/lv_disp.h **** 
 165:Drivers/lvgl/src/core/lv_disp.h **** /**
 166:Drivers/lvgl/src/core/lv_disp.h ****  * Get a pointer to the screen refresher timer to
 167:Drivers/lvgl/src/core/lv_disp.h ****  * modify its parameters with `lv_timer_...` functions.
 168:Drivers/lvgl/src/core/lv_disp.h ****  * @param disp pointer to a display
 169:Drivers/lvgl/src/core/lv_disp.h ****  * @return pointer to the display refresher timer. (NULL on error)
 170:Drivers/lvgl/src/core/lv_disp.h ****  */
 171:Drivers/lvgl/src/core/lv_disp.h **** lv_timer_t * _lv_disp_get_refr_timer(lv_disp_t * disp);
 172:Drivers/lvgl/src/core/lv_disp.h **** 
 173:Drivers/lvgl/src/core/lv_disp.h **** /*------------------------------------------------
 174:Drivers/lvgl/src/core/lv_disp.h ****  * To improve backward compatibility
 175:Drivers/lvgl/src/core/lv_disp.h ****  * Recommended only if you have one display
 176:Drivers/lvgl/src/core/lv_disp.h ****  *------------------------------------------------*/
 177:Drivers/lvgl/src/core/lv_disp.h **** 
 178:Drivers/lvgl/src/core/lv_disp.h **** /**
 179:Drivers/lvgl/src/core/lv_disp.h ****  * Get the active screen of the default display
 180:Drivers/lvgl/src/core/lv_disp.h ****  * @return pointer to the active screen
 181:Drivers/lvgl/src/core/lv_disp.h ****  */
 182:Drivers/lvgl/src/core/lv_disp.h **** static inline lv_obj_t * lv_scr_act(void)
  54              		.loc 2 182 26 view .LVU2
  55              	.LBB23:
 183:Drivers/lvgl/src/core/lv_disp.h **** {
 184:Drivers/lvgl/src/core/lv_disp.h ****     return lv_disp_get_scr_act(lv_disp_get_default());
ARM GAS  /var/folders/lp/x54gwt890xv47sdkqj1k04q40000gn/T//cczqSNj3.s 			page 6


  56              		.loc 2 184 5 view .LVU3
  57              	.LBE23:
  58              	.LBE22:
  36:Core/Src/UI_LCD.c ****     /* Create text*/
  59              		.loc 1 36 23 is_stmt 0 view .LVU4
  60 0000 2DE9F043 		push	{r4, r5, r6, r7, r8, r9, lr}
  61              		.cfi_def_cfa_offset 28
  62              		.cfi_offset 4, -28
  63              		.cfi_offset 5, -24
  64              		.cfi_offset 6, -20
  65              		.cfi_offset 7, -16
  66              		.cfi_offset 8, -12
  67              		.cfi_offset 9, -8
  68              		.cfi_offset 14, -4
  69 0004 83B0     		sub	sp, sp, #12
  70              		.cfi_def_cfa_offset 40
  71              	.LBB25:
  72              	.LBB24:
  73              		.loc 2 184 12 view .LVU5
  74 0006 FFF7FEFF 		bl	lv_disp_get_default
  75              	.LVL0:
  76              		.loc 2 184 12 discriminator 1 view .LVU6
  77 000a FFF7FEFF 		bl	lv_disp_get_scr_act
  78              	.LVL1:
  79              	.LBE24:
  80              	.LBE25:
  81              		.loc 1 38 24 discriminator 1 view .LVU7
  82 000e FFF7FEFF 		bl	lv_label_create
  83              	.LVL2:
  39:Core/Src/UI_LCD.c ****     lv_label_set_text(title, "MES MiniSynth");
  84              		.loc 1 39 5 view .LVU8
  85 0012 6D49     		ldr	r1, .L4
  40:Core/Src/UI_LCD.c ****     lv_obj_set_style_text_font(title, &lv_font_montserrat_18, 0);
  41:Core/Src/UI_LCD.c ****     lv_obj_set_style_text_align(title, LV_TEXT_ALIGN_CENTER, 0);
  42:Core/Src/UI_LCD.c ****     lv_obj_align(title, LV_ALIGN_TOP_MID, 0, 10);
  43:Core/Src/UI_LCD.c **** 
  44:Core/Src/UI_LCD.c **** 
  45:Core/Src/UI_LCD.c ****      /* Create text*/
  46:Core/Src/UI_LCD.c ****     osc_txt = lv_label_create(lv_scr_act());
  47:Core/Src/UI_LCD.c ****     lv_label_set_text(osc_txt, "virtual analog");
  48:Core/Src/UI_LCD.c ****     lv_obj_set_style_text_font(osc_txt, &lv_font_montserrat_16, 0);
  49:Core/Src/UI_LCD.c ****     lv_obj_set_style_text_align(osc_txt, LV_TEXT_ALIGN_CENTER, 0);
  50:Core/Src/UI_LCD.c ****     lv_obj_align(osc_txt, LV_ALIGN_TOP_MID, 0, 40);
  51:Core/Src/UI_LCD.c **** 
  52:Core/Src/UI_LCD.c **** 
  53:Core/Src/UI_LCD.c ****     /*Create Arcs for the 3 pots*/
  54:Core/Src/UI_LCD.c ****     pot1 = lv_arc_create(lv_scr_act());
  86              		.loc 1 54 10 discriminator 2 view .LVU9
  87 0014 6D4E     		ldr	r6, .L4+4
  55:Core/Src/UI_LCD.c ****     lv_obj_set_size(pot1, 72, 72);
  56:Core/Src/UI_LCD.c **** 	lv_obj_align(pot1, LV_ALIGN_CENTER, -90, -10);
  57:Core/Src/UI_LCD.c ****     pot2 = lv_arc_create(lv_scr_act());
  88              		.loc 1 57 10 discriminator 2 view .LVU10
  89 0016 6E4D     		ldr	r5, .L4+8
  38:Core/Src/UI_LCD.c ****     lv_label_set_text(title, "MES MiniSynth");
  90              		.loc 1 38 24 discriminator 1 view .LVU11
  91 0018 0446     		mov	r4, r0
ARM GAS  /var/folders/lp/x54gwt890xv47sdkqj1k04q40000gn/T//cczqSNj3.s 			page 7


  92              	.LVL3:
  39:Core/Src/UI_LCD.c ****     lv_obj_set_style_text_font(title, &lv_font_montserrat_18, 0);
  93              		.loc 1 39 5 is_stmt 1 view .LVU12
  94 001a FFF7FEFF 		bl	lv_label_set_text
  95              	.LVL4:
  40:Core/Src/UI_LCD.c ****     lv_obj_set_style_text_align(title, LV_TEXT_ALIGN_CENTER, 0);
  96              		.loc 1 40 5 view .LVU13
  97 001e 2046     		mov	r0, r4
  98 0020 6C49     		ldr	r1, .L4+12
  99 0022 0022     		movs	r2, #0
 100 0024 FFF7FEFF 		bl	lv_obj_set_style_text_font
 101              	.LVL5:
  41:Core/Src/UI_LCD.c ****     lv_obj_align(title, LV_ALIGN_TOP_MID, 0, 10);
 102              		.loc 1 41 5 view .LVU14
 103 0028 2046     		mov	r0, r4
 104 002a 0022     		movs	r2, #0
 105 002c 0221     		movs	r1, #2
 106 002e FFF7FEFF 		bl	lv_obj_set_style_text_align
 107              	.LVL6:
  42:Core/Src/UI_LCD.c **** 
 108              		.loc 1 42 5 view .LVU15
 109 0032 0A23     		movs	r3, #10
 110 0034 0022     		movs	r2, #0
 111 0036 0221     		movs	r1, #2
 112 0038 2046     		mov	r0, r4
 113 003a FFF7FEFF 		bl	lv_obj_align
 114              	.LVL7:
  46:Core/Src/UI_LCD.c ****     lv_label_set_text(osc_txt, "virtual analog");
 115              		.loc 1 46 5 view .LVU16
 116              	.LBB26:
 117              	.LBI26:
 182:Drivers/lvgl/src/core/lv_disp.h **** {
 118              		.loc 2 182 26 view .LVU17
 119              	.LBB27:
 120              		.loc 2 184 5 view .LVU18
 121              		.loc 2 184 12 is_stmt 0 view .LVU19
 122 003e FFF7FEFF 		bl	lv_disp_get_default
 123              	.LVL8:
 124              		.loc 2 184 12 discriminator 1 view .LVU20
 125 0042 FFF7FEFF 		bl	lv_disp_get_scr_act
 126              	.LVL9:
 127              	.LBE27:
 128              	.LBE26:
  46:Core/Src/UI_LCD.c ****     lv_label_set_text(osc_txt, "virtual analog");
 129              		.loc 1 46 15 discriminator 1 view .LVU21
 130 0046 FFF7FEFF 		bl	lv_label_create
 131              	.LVL10:
  46:Core/Src/UI_LCD.c ****     lv_label_set_text(osc_txt, "virtual analog");
 132              		.loc 1 46 13 discriminator 2 view .LVU22
 133 004a 634C     		ldr	r4, .L4+16
 134              	.LVL11:
  47:Core/Src/UI_LCD.c ****     lv_obj_set_style_text_font(osc_txt, &lv_font_montserrat_16, 0);
 135              		.loc 1 47 5 view .LVU23
 136 004c 6349     		ldr	r1, .L4+20
  46:Core/Src/UI_LCD.c ****     lv_label_set_text(osc_txt, "virtual analog");
 137              		.loc 1 46 13 discriminator 2 view .LVU24
 138 004e 2060     		str	r0, [r4]
ARM GAS  /var/folders/lp/x54gwt890xv47sdkqj1k04q40000gn/T//cczqSNj3.s 			page 8


  47:Core/Src/UI_LCD.c ****     lv_obj_set_style_text_font(osc_txt, &lv_font_montserrat_16, 0);
 139              		.loc 1 47 5 is_stmt 1 view .LVU25
 140 0050 FFF7FEFF 		bl	lv_label_set_text
 141              	.LVL12:
  48:Core/Src/UI_LCD.c ****     lv_obj_set_style_text_align(osc_txt, LV_TEXT_ALIGN_CENTER, 0);
 142              		.loc 1 48 5 view .LVU26
 143 0054 2068     		ldr	r0, [r4]
 144 0056 6249     		ldr	r1, .L4+24
 145 0058 0022     		movs	r2, #0
 146 005a FFF7FEFF 		bl	lv_obj_set_style_text_font
 147              	.LVL13:
  49:Core/Src/UI_LCD.c ****     lv_obj_align(osc_txt, LV_ALIGN_TOP_MID, 0, 40);
 148              		.loc 1 49 5 view .LVU27
 149 005e 2068     		ldr	r0, [r4]
 150 0060 0022     		movs	r2, #0
 151 0062 0221     		movs	r1, #2
 152 0064 FFF7FEFF 		bl	lv_obj_set_style_text_align
 153              	.LVL14:
  50:Core/Src/UI_LCD.c **** 
 154              		.loc 1 50 5 view .LVU28
 155 0068 2823     		movs	r3, #40
 156 006a 0022     		movs	r2, #0
 157 006c 0221     		movs	r1, #2
 158 006e 2068     		ldr	r0, [r4]
  58:Core/Src/UI_LCD.c ****     lv_obj_set_size(pot2, 72, 72);
  59:Core/Src/UI_LCD.c **** 	lv_obj_align(pot2, LV_ALIGN_CENTER, 90, -10);
  60:Core/Src/UI_LCD.c ****     pot3 = lv_arc_create(lv_scr_act());
 159              		.loc 1 60 10 is_stmt 0 discriminator 2 view .LVU29
 160 0070 5C4C     		ldr	r4, .L4+28
  50:Core/Src/UI_LCD.c **** 
 161              		.loc 1 50 5 view .LVU30
 162 0072 FFF7FEFF 		bl	lv_obj_align
 163              	.LVL15:
  54:Core/Src/UI_LCD.c ****     lv_obj_set_size(pot1, 72, 72);
 164              		.loc 1 54 5 is_stmt 1 view .LVU31
 165              	.LBB28:
 166              	.LBI28:
 182:Drivers/lvgl/src/core/lv_disp.h **** {
 167              		.loc 2 182 26 view .LVU32
 168              	.LBB29:
 169              		.loc 2 184 5 view .LVU33
 170              		.loc 2 184 12 is_stmt 0 view .LVU34
 171 0076 FFF7FEFF 		bl	lv_disp_get_default
 172              	.LVL16:
 173              		.loc 2 184 12 discriminator 1 view .LVU35
 174 007a FFF7FEFF 		bl	lv_disp_get_scr_act
 175              	.LVL17:
 176              	.LBE29:
 177              	.LBE28:
  54:Core/Src/UI_LCD.c ****     lv_obj_set_size(pot1, 72, 72);
 178              		.loc 1 54 12 discriminator 1 view .LVU36
 179 007e FFF7FEFF 		bl	lv_arc_create
 180              	.LVL18:
  55:Core/Src/UI_LCD.c **** 	lv_obj_align(pot1, LV_ALIGN_CENTER, -90, -10);
 181              		.loc 1 55 5 view .LVU37
 182 0082 4822     		movs	r2, #72
 183 0084 1146     		mov	r1, r2
ARM GAS  /var/folders/lp/x54gwt890xv47sdkqj1k04q40000gn/T//cczqSNj3.s 			page 9


  54:Core/Src/UI_LCD.c ****     lv_obj_set_size(pot1, 72, 72);
 184              		.loc 1 54 10 discriminator 2 view .LVU38
 185 0086 3060     		str	r0, [r6]
  55:Core/Src/UI_LCD.c **** 	lv_obj_align(pot1, LV_ALIGN_CENTER, -90, -10);
 186              		.loc 1 55 5 is_stmt 1 view .LVU39
 187 0088 FFF7FEFF 		bl	lv_obj_set_size
 188              	.LVL19:
  56:Core/Src/UI_LCD.c ****     pot2 = lv_arc_create(lv_scr_act());
 189              		.loc 1 56 2 view .LVU40
 190 008c 6FF00903 		mvn	r3, #9
 191 0090 6FF05902 		mvn	r2, #89
 192 0094 0921     		movs	r1, #9
 193 0096 3068     		ldr	r0, [r6]
 194 0098 FFF7FEFF 		bl	lv_obj_align
 195              	.LVL20:
  57:Core/Src/UI_LCD.c ****     lv_obj_set_size(pot2, 72, 72);
 196              		.loc 1 57 5 view .LVU41
 197              	.LBB30:
 198              	.LBI30:
 182:Drivers/lvgl/src/core/lv_disp.h **** {
 199              		.loc 2 182 26 view .LVU42
 200              	.LBB31:
 201              		.loc 2 184 5 view .LVU43
 202              		.loc 2 184 12 is_stmt 0 view .LVU44
 203 009c FFF7FEFF 		bl	lv_disp_get_default
 204              	.LVL21:
 205              		.loc 2 184 12 discriminator 1 view .LVU45
 206 00a0 FFF7FEFF 		bl	lv_disp_get_scr_act
 207              	.LVL22:
 208              	.LBE31:
 209              	.LBE30:
  57:Core/Src/UI_LCD.c ****     lv_obj_set_size(pot2, 72, 72);
 210              		.loc 1 57 12 discriminator 1 view .LVU46
 211 00a4 FFF7FEFF 		bl	lv_arc_create
 212              	.LVL23:
  58:Core/Src/UI_LCD.c **** 	lv_obj_align(pot2, LV_ALIGN_CENTER, 90, -10);
 213              		.loc 1 58 5 view .LVU47
 214 00a8 4822     		movs	r2, #72
 215 00aa 1146     		mov	r1, r2
  57:Core/Src/UI_LCD.c ****     lv_obj_set_size(pot2, 72, 72);
 216              		.loc 1 57 10 discriminator 2 view .LVU48
 217 00ac 2860     		str	r0, [r5]
  58:Core/Src/UI_LCD.c **** 	lv_obj_align(pot2, LV_ALIGN_CENTER, 90, -10);
 218              		.loc 1 58 5 is_stmt 1 view .LVU49
 219 00ae FFF7FEFF 		bl	lv_obj_set_size
 220              	.LVL24:
  59:Core/Src/UI_LCD.c ****     pot3 = lv_arc_create(lv_scr_act());
 221              		.loc 1 59 2 view .LVU50
 222 00b2 6FF00903 		mvn	r3, #9
 223 00b6 5A22     		movs	r2, #90
 224 00b8 0921     		movs	r1, #9
 225 00ba 2868     		ldr	r0, [r5]
 226 00bc FFF7FEFF 		bl	lv_obj_align
 227              	.LVL25:
 228              		.loc 1 60 5 view .LVU51
 229              	.LBB32:
 230              	.LBI32:
ARM GAS  /var/folders/lp/x54gwt890xv47sdkqj1k04q40000gn/T//cczqSNj3.s 			page 10


 182:Drivers/lvgl/src/core/lv_disp.h **** {
 231              		.loc 2 182 26 view .LVU52
 232              	.LBB33:
 233              		.loc 2 184 5 view .LVU53
 234              		.loc 2 184 12 is_stmt 0 view .LVU54
 235 00c0 FFF7FEFF 		bl	lv_disp_get_default
 236              	.LVL26:
 237              		.loc 2 184 12 discriminator 1 view .LVU55
 238 00c4 FFF7FEFF 		bl	lv_disp_get_scr_act
 239              	.LVL27:
 240              	.LBE33:
 241              	.LBE32:
 242              		.loc 1 60 12 discriminator 1 view .LVU56
 243 00c8 FFF7FEFF 		bl	lv_arc_create
 244              	.LVL28:
  61:Core/Src/UI_LCD.c ****     lv_obj_set_size(pot3, 72, 72);
 245              		.loc 1 61 5 view .LVU57
 246 00cc 4822     		movs	r2, #72
 247 00ce 1146     		mov	r1, r2
  60:Core/Src/UI_LCD.c ****     lv_obj_set_size(pot3, 72, 72);
 248              		.loc 1 60 10 discriminator 2 view .LVU58
 249 00d0 2060     		str	r0, [r4]
 250              		.loc 1 61 5 is_stmt 1 view .LVU59
 251 00d2 FFF7FEFF 		bl	lv_obj_set_size
 252              	.LVL29:
  62:Core/Src/UI_LCD.c **** 	lv_obj_align(pot3, LV_ALIGN_CENTER, 0, 65);
 253              		.loc 1 62 2 view .LVU60
 254 00d6 4123     		movs	r3, #65
 255 00d8 2068     		ldr	r0, [r4]
 256 00da 0022     		movs	r2, #0
 257 00dc 0921     		movs	r1, #9
 258 00de FFF7FEFF 		bl	lv_obj_align
 259              	.LVL30:
  63:Core/Src/UI_LCD.c ****    
  64:Core/Src/UI_LCD.c ****     lv_arc_set_rotation(pot1, 135);
 260              		.loc 1 64 5 view .LVU61
 261 00e2 3068     		ldr	r0, [r6]
 262 00e4 8721     		movs	r1, #135
 263 00e6 FFF7FEFF 		bl	lv_arc_set_rotation
 264              	.LVL31:
  65:Core/Src/UI_LCD.c ****     lv_arc_set_bg_angles(pot1, 0, 270);
 265              		.loc 1 65 5 view .LVU62
 266 00ea 3068     		ldr	r0, [r6]
 267 00ec 4FF48772 		mov	r2, #270
 268 00f0 0021     		movs	r1, #0
 269 00f2 FFF7FEFF 		bl	lv_arc_set_bg_angles
 270              	.LVL32:
  66:Core/Src/UI_LCD.c ****     lv_arc_set_rotation(pot2, 135);
 271              		.loc 1 66 5 view .LVU63
 272 00f6 2868     		ldr	r0, [r5]
 273 00f8 8721     		movs	r1, #135
 274 00fa FFF7FEFF 		bl	lv_arc_set_rotation
 275              	.LVL33:
  67:Core/Src/UI_LCD.c ****     lv_arc_set_bg_angles(pot2, 0, 270);
 276              		.loc 1 67 5 view .LVU64
 277 00fe 2868     		ldr	r0, [r5]
 278 0100 4FF48772 		mov	r2, #270
ARM GAS  /var/folders/lp/x54gwt890xv47sdkqj1k04q40000gn/T//cczqSNj3.s 			page 11


 279 0104 0021     		movs	r1, #0
 280 0106 FFF7FEFF 		bl	lv_arc_set_bg_angles
 281              	.LVL34:
  68:Core/Src/UI_LCD.c ****     lv_arc_set_rotation(pot3, 135);
 282              		.loc 1 68 5 view .LVU65
 283 010a 2068     		ldr	r0, [r4]
 284 010c 8721     		movs	r1, #135
 285 010e FFF7FEFF 		bl	lv_arc_set_rotation
 286              	.LVL35:
  69:Core/Src/UI_LCD.c ****     lv_arc_set_bg_angles(pot3, 0, 270);
 287              		.loc 1 69 5 view .LVU66
 288 0112 2068     		ldr	r0, [r4]
 289 0114 4FF48772 		mov	r2, #270
 290 0118 0021     		movs	r1, #0
 291 011a FFF7FEFF 		bl	lv_arc_set_bg_angles
 292              	.LVL36:
  70:Core/Src/UI_LCD.c ****     
  71:Core/Src/UI_LCD.c ****     /*Make them unclickable, and without knob*/
  72:Core/Src/UI_LCD.c ****     lv_obj_remove_style(pot1, NULL, LV_PART_KNOB);
 293              		.loc 1 72 5 view .LVU67
 294 011e 3068     		ldr	r0, [r6]
 295 0120 4FF44032 		mov	r2, #196608
 296 0124 0021     		movs	r1, #0
 297 0126 FFF7FEFF 		bl	lv_obj_remove_style
 298              	.LVL37:
  73:Core/Src/UI_LCD.c ****     lv_obj_clear_flag(pot1, LV_OBJ_FLAG_CLICKABLE);
 299              		.loc 1 73 5 view .LVU68
 300 012a 3068     		ldr	r0, [r6]
 301 012c 0221     		movs	r1, #2
 302 012e FFF7FEFF 		bl	lv_obj_clear_flag
 303              	.LVL38:
  74:Core/Src/UI_LCD.c ****     lv_obj_remove_style(pot2, NULL, LV_PART_KNOB);
 304              		.loc 1 74 5 view .LVU69
 305 0132 2868     		ldr	r0, [r5]
 306 0134 4FF44032 		mov	r2, #196608
 307 0138 0021     		movs	r1, #0
 308 013a FFF7FEFF 		bl	lv_obj_remove_style
 309              	.LVL39:
  75:Core/Src/UI_LCD.c ****     lv_obj_clear_flag(pot2, LV_OBJ_FLAG_CLICKABLE);
 310              		.loc 1 75 5 view .LVU70
 311 013e 2868     		ldr	r0, [r5]
 312 0140 0221     		movs	r1, #2
 313 0142 FFF7FEFF 		bl	lv_obj_clear_flag
 314              	.LVL40:
  76:Core/Src/UI_LCD.c ****     lv_obj_remove_style(pot3, NULL, LV_PART_KNOB);
 315              		.loc 1 76 5 view .LVU71
 316 0146 4FF44032 		mov	r2, #196608
 317 014a 2068     		ldr	r0, [r4]
 318 014c 0021     		movs	r1, #0
 319 014e FFF7FEFF 		bl	lv_obj_remove_style
 320              	.LVL41:
  77:Core/Src/UI_LCD.c ****     lv_obj_clear_flag(pot3, LV_OBJ_FLAG_CLICKABLE);
 321              		.loc 1 77 5 view .LVU72
 322 0152 0221     		movs	r1, #2
 323 0154 2068     		ldr	r0, [r4]
 324 0156 FFF7FEFF 		bl	lv_obj_clear_flag
 325              	.LVL42:
ARM GAS  /var/folders/lp/x54gwt890xv47sdkqj1k04q40000gn/T//cczqSNj3.s 			page 12


  78:Core/Src/UI_LCD.c ****     
  79:Core/Src/UI_LCD.c **** 
  80:Core/Src/UI_LCD.c ****     // /*Create labels for potentiometers*/
  81:Core/Src/UI_LCD.c ****     lv_obj_t * label1 = lv_label_create(lv_scr_act());
 326              		.loc 1 81 5 view .LVU73
 327              	.LBB34:
 328              	.LBI34:
 182:Drivers/lvgl/src/core/lv_disp.h **** {
 329              		.loc 2 182 26 view .LVU74
 330              	.LBB35:
 331              		.loc 2 184 5 view .LVU75
 332              		.loc 2 184 12 is_stmt 0 view .LVU76
 333 015a FFF7FEFF 		bl	lv_disp_get_default
 334              	.LVL43:
 335              		.loc 2 184 12 discriminator 1 view .LVU77
 336 015e FFF7FEFF 		bl	lv_disp_get_scr_act
 337              	.LVL44:
 338              	.LBE35:
 339              	.LBE34:
 340              		.loc 1 81 25 discriminator 1 view .LVU78
 341 0162 FFF7FEFF 		bl	lv_label_create
 342              	.LVL45:
  82:Core/Src/UI_LCD.c ****     lv_label_set_text_static(label1, "cutoff");
 343              		.loc 1 82 5 view .LVU79
 344 0166 2049     		ldr	r1, .L4+32
  81:Core/Src/UI_LCD.c ****     lv_label_set_text_static(label1, "cutoff");
 345              		.loc 1 81 25 discriminator 1 view .LVU80
 346 0168 8146     		mov	r9, r0
 347              	.LVL46:
 348              		.loc 1 82 5 is_stmt 1 view .LVU81
 349 016a FFF7FEFF 		bl	lv_label_set_text_static
 350              	.LVL47:
  83:Core/Src/UI_LCD.c **** 
  84:Core/Src/UI_LCD.c ****     lv_obj_t * label2 = lv_label_create(lv_scr_act());
 351              		.loc 1 84 5 view .LVU82
 352              	.LBB36:
 353              	.LBI36:
 182:Drivers/lvgl/src/core/lv_disp.h **** {
 354              		.loc 2 182 26 view .LVU83
 355              	.LBB37:
 356              		.loc 2 184 5 view .LVU84
 357              		.loc 2 184 12 is_stmt 0 view .LVU85
 358 016e FFF7FEFF 		bl	lv_disp_get_default
 359              	.LVL48:
 360              		.loc 2 184 12 discriminator 1 view .LVU86
 361 0172 FFF7FEFF 		bl	lv_disp_get_scr_act
 362              	.LVL49:
 363              	.LBE37:
 364              	.LBE36:
 365              		.loc 1 84 25 discriminator 1 view .LVU87
 366 0176 FFF7FEFF 		bl	lv_label_create
 367              	.LVL50:
  85:Core/Src/UI_LCD.c ****     lv_label_set_text_static(label2, "decay");
 368              		.loc 1 85 5 view .LVU88
 369 017a 1C49     		ldr	r1, .L4+36
  84:Core/Src/UI_LCD.c ****     lv_label_set_text_static(label2, "decay");
 370              		.loc 1 84 25 discriminator 1 view .LVU89
ARM GAS  /var/folders/lp/x54gwt890xv47sdkqj1k04q40000gn/T//cczqSNj3.s 			page 13


 371 017c 8046     		mov	r8, r0
 372              	.LVL51:
 373              		.loc 1 85 5 is_stmt 1 view .LVU90
 374 017e FFF7FEFF 		bl	lv_label_set_text_static
 375              	.LVL52:
  86:Core/Src/UI_LCD.c **** 
  87:Core/Src/UI_LCD.c ****     lv_obj_t * label3 = lv_label_create(lv_scr_act());
 376              		.loc 1 87 5 view .LVU91
 377              	.LBB38:
 378              	.LBI38:
 182:Drivers/lvgl/src/core/lv_disp.h **** {
 379              		.loc 2 182 26 view .LVU92
 380              	.LBB39:
 381              		.loc 2 184 5 view .LVU93
 382              		.loc 2 184 12 is_stmt 0 view .LVU94
 383 0182 FFF7FEFF 		bl	lv_disp_get_default
 384              	.LVL53:
 385              		.loc 2 184 12 discriminator 1 view .LVU95
 386 0186 FFF7FEFF 		bl	lv_disp_get_scr_act
 387              	.LVL54:
 388              	.LBE39:
 389              	.LBE38:
 390              		.loc 1 87 25 discriminator 1 view .LVU96
 391 018a FFF7FEFF 		bl	lv_label_create
 392              	.LVL55:
  88:Core/Src/UI_LCD.c ****     lv_label_set_text_static(label3, "delay");
 393              		.loc 1 88 5 view .LVU97
 394 018e 1849     		ldr	r1, .L4+40
  87:Core/Src/UI_LCD.c ****     lv_label_set_text_static(label3, "delay");
 395              		.loc 1 87 25 discriminator 1 view .LVU98
 396 0190 0746     		mov	r7, r0
 397              	.LVL56:
 398              		.loc 1 88 5 is_stmt 1 view .LVU99
 399 0192 FFF7FEFF 		bl	lv_label_set_text_static
 400              	.LVL57:
  89:Core/Src/UI_LCD.c ****     
  90:Core/Src/UI_LCD.c ****     lv_obj_align_to(label1, pot1, LV_ALIGN_BOTTOM_MID, 0, +15);
 401              		.loc 1 90 5 view .LVU100
 402 0196 3168     		ldr	r1, [r6]
 403 0198 0F26     		movs	r6, #15
 404 019a 4846     		mov	r0, r9
 405 019c 0096     		str	r6, [sp]
 406 019e 0023     		movs	r3, #0
 407 01a0 0522     		movs	r2, #5
 408 01a2 FFF7FEFF 		bl	lv_obj_align_to
 409              	.LVL58:
  91:Core/Src/UI_LCD.c ****     lv_obj_align_to(label2, pot2, LV_ALIGN_BOTTOM_MID, 0, +15);
 410              		.loc 1 91 5 view .LVU101
 411 01a6 2968     		ldr	r1, [r5]
 412 01a8 0096     		str	r6, [sp]
 413 01aa 4046     		mov	r0, r8
 414 01ac 0023     		movs	r3, #0
 415 01ae 0522     		movs	r2, #5
 416 01b0 FFF7FEFF 		bl	lv_obj_align_to
 417              	.LVL59:
  92:Core/Src/UI_LCD.c ****     lv_obj_align_to(label3, pot3, LV_ALIGN_BOTTOM_MID, 0, +15);
 418              		.loc 1 92 5 view .LVU102
ARM GAS  /var/folders/lp/x54gwt890xv47sdkqj1k04q40000gn/T//cczqSNj3.s 			page 14


 419 01b4 2168     		ldr	r1, [r4]
 420 01b6 0096     		str	r6, [sp]
 421 01b8 0023     		movs	r3, #0
 422 01ba 0522     		movs	r2, #5
 423 01bc 3846     		mov	r0, r7
 424 01be FFF7FEFF 		bl	lv_obj_align_to
 425              	.LVL60:
  93:Core/Src/UI_LCD.c ****     
  94:Core/Src/UI_LCD.c **** }
 426              		.loc 1 94 1 is_stmt 0 view .LVU103
 427 01c2 03B0     		add	sp, sp, #12
 428              		.cfi_def_cfa_offset 28
 429              		@ sp needed
 430 01c4 BDE8F083 		pop	{r4, r5, r6, r7, r8, r9, pc}
 431              	.LVL61:
 432              	.L5:
 433              		.loc 1 94 1 view .LVU104
 434              		.align	2
 435              	.L4:
 436 01c8 00000000 		.word	.LC0
 437 01cc 00000000 		.word	pot1
 438 01d0 00000000 		.word	pot2
 439 01d4 00000000 		.word	lv_font_montserrat_18
 440 01d8 00000000 		.word	osc_txt
 441 01dc 10000000 		.word	.LC1
 442 01e0 00000000 		.word	lv_font_montserrat_16
 443 01e4 00000000 		.word	pot3
 444 01e8 20000000 		.word	.LC2
 445 01ec 28000000 		.word	.LC3
 446 01f0 30000000 		.word	.LC4
 447              		.cfi_endproc
 448              	.LFE446:
 450              		.section	.rodata.create_tabs.str1.4,"aMS",%progbits,1
 451              		.align	2
 452              	.LC5:
 453 0000 6F736300 		.ascii	"osc\000"
 454              		.align	2
 455              	.LC6:
 456 0004 66696C74 		.ascii	"filter\000"
 456      657200
 457 000b 00       		.align	2
 458              	.LC7:
 459 000c 7265736F 		.ascii	"resonance\000"
 459      6E616E63 
 459      6500
 460 0016 0000     		.align	2
 461              	.LC8:
 462 0018 5365636F 		.ascii	"Second tab\000"
 462      6E642074 
 462      616200
 463 0023 00       		.align	2
 464              	.LC9:
 465 0024 74696D65 		.ascii	"time\000"
 465      00
 466 0029 000000   		.align	2
 467              	.LC10:
 468 002c 66656564 		.ascii	"feedback\000"
ARM GAS  /var/folders/lp/x54gwt890xv47sdkqj1k04q40000gn/T//cczqSNj3.s 			page 15


 468      6261636B 
 468      00
 469              		.section	.text.create_tabs,"ax",%progbits
 470              		.align	1
 471              		.p2align 2,,3
 472              		.global	create_tabs
 473              		.syntax unified
 474              		.thumb
 475              		.thumb_func
 477              	create_tabs:
 478              	.LFB447:
  95:Core/Src/UI_LCD.c **** 
  96:Core/Src/UI_LCD.c **** // TODO: use tabs for oscillators/ filter / amp / fx
  97:Core/Src/UI_LCD.c **** void create_tabs(void){
 479              		.loc 1 97 23 is_stmt 1 view -0
 480              		.cfi_startproc
 481              		@ args = 0, pretend = 0, frame = 0
 482              		@ frame_needed = 0, uses_anonymous_args = 0
  98:Core/Src/UI_LCD.c ****       /*Create a Tab view object*/
  99:Core/Src/UI_LCD.c ****    
 100:Core/Src/UI_LCD.c ****     tabview = lv_tabview_create(lv_scr_act(), LV_DIR_TOP, 40);
 483              		.loc 1 100 5 view .LVU106
 484              	.LBB42:
 485              	.LBI42:
 182:Drivers/lvgl/src/core/lv_disp.h **** {
 486              		.loc 2 182 26 view .LVU107
 487              	.LBB43:
 488              		.loc 2 184 5 view .LVU108
 489              	.LBE43:
 490              	.LBE42:
  97:Core/Src/UI_LCD.c ****       /*Create a Tab view object*/
 491              		.loc 1 97 23 is_stmt 0 view .LVU109
 492 0000 F0B5     		push	{r4, r5, r6, r7, lr}
 493              		.cfi_def_cfa_offset 20
 494              		.cfi_offset 4, -20
 495              		.cfi_offset 5, -16
 496              		.cfi_offset 6, -12
 497              		.cfi_offset 7, -8
 498              		.cfi_offset 14, -4
 499 0002 83B0     		sub	sp, sp, #12
 500              		.cfi_def_cfa_offset 32
 501              	.LBB45:
 502              	.LBB44:
 503              		.loc 2 184 12 view .LVU110
 504 0004 FFF7FEFF 		bl	lv_disp_get_default
 505              	.LVL62:
 506              		.loc 2 184 12 discriminator 1 view .LVU111
 507 0008 FFF7FEFF 		bl	lv_disp_get_scr_act
 508              	.LVL63:
 509              	.LBE44:
 510              	.LBE45:
 511              		.loc 1 100 15 discriminator 1 view .LVU112
 512 000c 2822     		movs	r2, #40
 513 000e 0421     		movs	r1, #4
 514 0010 FFF7FEFF 		bl	lv_tabview_create
 515              	.LVL64:
 516              		.loc 1 100 13 discriminator 2 view .LVU113
ARM GAS  /var/folders/lp/x54gwt890xv47sdkqj1k04q40000gn/T//cczqSNj3.s 			page 16


 517 0014 234C     		ldr	r4, .L8
 101:Core/Src/UI_LCD.c **** 
 102:Core/Src/UI_LCD.c ****     /*Add 3 tabs (the tabs are page (lv_page) and can be scrolled*/
 103:Core/Src/UI_LCD.c ****     lv_obj_t * tab1 = lv_tabview_add_tab(tabview, "osc");
 518              		.loc 1 103 23 view .LVU114
 519 0016 2449     		ldr	r1, .L8+4
 100:Core/Src/UI_LCD.c **** 
 520              		.loc 1 100 13 discriminator 2 view .LVU115
 521 0018 2060     		str	r0, [r4]
 522              		.loc 1 103 5 is_stmt 1 view .LVU116
 523              		.loc 1 103 23 is_stmt 0 view .LVU117
 524 001a FFF7FEFF 		bl	lv_tabview_add_tab
 525              	.LVL65:
 104:Core/Src/UI_LCD.c ****     lv_obj_t * tab2 = lv_tabview_add_tab(tabview, "filter");
 526              		.loc 1 104 23 view .LVU118
 527 001e 2349     		ldr	r1, .L8+8
 103:Core/Src/UI_LCD.c ****     lv_obj_t * tab2 = lv_tabview_add_tab(tabview, "filter");
 528              		.loc 1 103 23 view .LVU119
 529 0020 0546     		mov	r5, r0
 530              		.loc 1 104 23 view .LVU120
 531 0022 2068     		ldr	r0, [r4]
 532              	.LVL66:
 533              		.loc 1 104 5 is_stmt 1 view .LVU121
 534              		.loc 1 104 23 is_stmt 0 view .LVU122
 535 0024 FFF7FEFF 		bl	lv_tabview_add_tab
 536              	.LVL67:
 105:Core/Src/UI_LCD.c ****     lv_obj_t * tab3 = lv_tabview_add_tab(tabview, "delay");
 537              		.loc 1 105 23 view .LVU123
 538 0028 2149     		ldr	r1, .L8+12
 104:Core/Src/UI_LCD.c ****     lv_obj_t * tab2 = lv_tabview_add_tab(tabview, "filter");
 539              		.loc 1 104 23 view .LVU124
 540 002a 0646     		mov	r6, r0
 541              		.loc 1 105 23 view .LVU125
 542 002c 2068     		ldr	r0, [r4]
 543              	.LVL68:
 544              		.loc 1 105 5 is_stmt 1 view .LVU126
 545              		.loc 1 105 23 is_stmt 0 view .LVU127
 546 002e FFF7FEFF 		bl	lv_tabview_add_tab
 547              	.LVL69:
 548 0032 0446     		mov	r4, r0
 549              	.LVL70:
 106:Core/Src/UI_LCD.c **** 
 107:Core/Src/UI_LCD.c ****     /*Add content to the tabs*/
 108:Core/Src/UI_LCD.c ****     lv_obj_t * label1 = lv_label_create(tab1);
 550              		.loc 1 108 5 is_stmt 1 view .LVU128
 551              		.loc 1 108 25 is_stmt 0 view .LVU129
 552 0034 2846     		mov	r0, r5
 553              	.LVL71:
 554              		.loc 1 108 25 view .LVU130
 555 0036 FFF7FEFF 		bl	lv_label_create
 556              	.LVL72:
 109:Core/Src/UI_LCD.c ****     lv_label_set_text_static(label1, "cutoff");
 557              		.loc 1 109 5 view .LVU131
 558 003a 1E49     		ldr	r1, .L8+16
 108:Core/Src/UI_LCD.c ****     lv_label_set_text_static(label1, "cutoff");
 559              		.loc 1 108 25 view .LVU132
 560 003c 0746     		mov	r7, r0
ARM GAS  /var/folders/lp/x54gwt890xv47sdkqj1k04q40000gn/T//cczqSNj3.s 			page 17


 561              	.LVL73:
 562              		.loc 1 109 5 is_stmt 1 view .LVU133
 563 003e FFF7FEFF 		bl	lv_label_set_text_static
 564              	.LVL74:
 110:Core/Src/UI_LCD.c **** 
 111:Core/Src/UI_LCD.c ****     lv_obj_t * label2 = lv_label_create(tab1);
 565              		.loc 1 111 5 view .LVU134
 566              		.loc 1 111 25 is_stmt 0 view .LVU135
 567 0042 2846     		mov	r0, r5
 568 0044 FFF7FEFF 		bl	lv_label_create
 569              	.LVL75:
 112:Core/Src/UI_LCD.c ****     lv_label_set_text_static(label2, "resonance");
 570              		.loc 1 112 5 view .LVU136
 571 0048 1B49     		ldr	r1, .L8+20
 111:Core/Src/UI_LCD.c ****     lv_label_set_text_static(label2, "resonance");
 572              		.loc 1 111 25 view .LVU137
 573 004a 0546     		mov	r5, r0
 574              	.LVL76:
 575              		.loc 1 112 5 is_stmt 1 view .LVU138
 576 004c FFF7FEFF 		bl	lv_label_set_text_static
 577              	.LVL77:
 113:Core/Src/UI_LCD.c ****     
 114:Core/Src/UI_LCD.c ****     lv_obj_align_to(label1, pot1, LV_ALIGN_BOTTOM_MID, 0, +15);
 578              		.loc 1 114 5 view .LVU139
 579 0050 1A4B     		ldr	r3, .L8+24
 580 0052 3846     		mov	r0, r7
 581 0054 0F27     		movs	r7, #15
 582              	.LVL78:
 583              		.loc 1 114 5 is_stmt 0 view .LVU140
 584 0056 1968     		ldr	r1, [r3]
 585 0058 0097     		str	r7, [sp]
 586 005a 0023     		movs	r3, #0
 587 005c 0522     		movs	r2, #5
 588 005e FFF7FEFF 		bl	lv_obj_align_to
 589              	.LVL79:
 115:Core/Src/UI_LCD.c ****     lv_obj_align_to(label2, pot2, LV_ALIGN_BOTTOM_MID, 0, +15);;
 590              		.loc 1 115 5 is_stmt 1 view .LVU141
 591 0062 174B     		ldr	r3, .L8+28
 592 0064 0097     		str	r7, [sp]
 593 0066 0522     		movs	r2, #5
 594 0068 1968     		ldr	r1, [r3]
 595 006a 2846     		mov	r0, r5
 596 006c 0023     		movs	r3, #0
 597 006e FFF7FEFF 		bl	lv_obj_align_to
 598              	.LVL80:
 599              		.loc 1 115 64 discriminator 1 view .LVU142
 116:Core/Src/UI_LCD.c **** 
 117:Core/Src/UI_LCD.c ****     label1 = lv_label_create(tab2);
 600              		.loc 1 117 5 view .LVU143
 601              		.loc 1 117 14 is_stmt 0 view .LVU144
 602 0072 3046     		mov	r0, r6
 603 0074 FFF7FEFF 		bl	lv_label_create
 604              	.LVL81:
 118:Core/Src/UI_LCD.c ****     lv_label_set_text(label1, "Second tab");
 605              		.loc 1 118 5 is_stmt 1 view .LVU145
 606 0078 1249     		ldr	r1, .L8+32
 607 007a FFF7FEFF 		bl	lv_label_set_text
ARM GAS  /var/folders/lp/x54gwt890xv47sdkqj1k04q40000gn/T//cczqSNj3.s 			page 18


 608              	.LVL82:
 119:Core/Src/UI_LCD.c **** 
 120:Core/Src/UI_LCD.c ****     label1 = lv_label_create(tab3);
 609              		.loc 1 120 5 view .LVU146
 610              		.loc 1 120 14 is_stmt 0 view .LVU147
 611 007e 2046     		mov	r0, r4
 612 0080 FFF7FEFF 		bl	lv_label_create
 613              	.LVL83:
 614 0084 0546     		mov	r5, r0
 615              	.LVL84:
 121:Core/Src/UI_LCD.c ****     label2 = lv_label_create(tab3);
 616              		.loc 1 121 5 is_stmt 1 view .LVU148
 617              		.loc 1 121 14 is_stmt 0 view .LVU149
 618 0086 2046     		mov	r0, r4
 619              	.LVL85:
 620              		.loc 1 121 14 view .LVU150
 621 0088 FFF7FEFF 		bl	lv_label_create
 622              	.LVL86:
 122:Core/Src/UI_LCD.c ****     lv_label_set_text_static(label1, "time");
 623              		.loc 1 122 5 view .LVU151
 624 008c 0E49     		ldr	r1, .L8+36
 121:Core/Src/UI_LCD.c ****     label2 = lv_label_create(tab3);
 625              		.loc 1 121 14 view .LVU152
 626 008e 0446     		mov	r4, r0
 627              	.LVL87:
 628              		.loc 1 122 5 view .LVU153
 629 0090 2846     		mov	r0, r5
 630              	.LVL88:
 631              		.loc 1 122 5 is_stmt 1 view .LVU154
 632 0092 FFF7FEFF 		bl	lv_label_set_text_static
 633              	.LVL89:
 123:Core/Src/UI_LCD.c ****     lv_label_set_text_static(label2, "feedback");
 634              		.loc 1 123 5 view .LVU155
 635 0096 0D49     		ldr	r1, .L8+40
 636 0098 2046     		mov	r0, r4
 124:Core/Src/UI_LCD.c **** 
 125:Core/Src/UI_LCD.c ****     
 126:Core/Src/UI_LCD.c **** 
 127:Core/Src/UI_LCD.c **** }
 637              		.loc 1 127 1 is_stmt 0 view .LVU156
 638 009a 03B0     		add	sp, sp, #12
 639              		.cfi_def_cfa_offset 20
 640              		@ sp needed
 641 009c BDE8F040 		pop	{r4, r5, r6, r7, lr}
 642              		.cfi_restore 14
 643              		.cfi_restore 7
 644              		.cfi_restore 6
 645              		.cfi_restore 5
 646              		.cfi_restore 4
 647              		.cfi_def_cfa_offset 0
 648              	.LVL90:
 123:Core/Src/UI_LCD.c ****     lv_label_set_text_static(label2, "feedback");
 649              		.loc 1 123 5 view .LVU157
 650 00a0 FFF7FEBF 		b	lv_label_set_text_static
 651              	.LVL91:
 652              	.L9:
 123:Core/Src/UI_LCD.c ****     lv_label_set_text_static(label2, "feedback");
ARM GAS  /var/folders/lp/x54gwt890xv47sdkqj1k04q40000gn/T//cczqSNj3.s 			page 19


 653              		.loc 1 123 5 view .LVU158
 654              		.align	2
 655              	.L8:
 656 00a4 00000000 		.word	tabview
 657 00a8 00000000 		.word	.LC5
 658 00ac 04000000 		.word	.LC6
 659 00b0 30000000 		.word	.LC4
 660 00b4 20000000 		.word	.LC2
 661 00b8 0C000000 		.word	.LC7
 662 00bc 00000000 		.word	pot1
 663 00c0 00000000 		.word	pot2
 664 00c4 18000000 		.word	.LC8
 665 00c8 24000000 		.word	.LC9
 666 00cc 2C000000 		.word	.LC10
 667              		.cfi_endproc
 668              	.LFE447:
 670              		.section	.text.UI_LCD_init,"ax",%progbits
 671              		.align	1
 672              		.p2align 2,,3
 673              		.global	UI_LCD_init
 674              		.syntax unified
 675              		.thumb
 676              		.thumb_func
 678              	UI_LCD_init:
 679              	.LFB448:
 128:Core/Src/UI_LCD.c **** 
 129:Core/Src/UI_LCD.c **** // TODO : GUI includes encoder
 130:Core/Src/UI_LCD.c **** 
 131:Core/Src/UI_LCD.c **** // static int32_t encoder_last_value;
 132:Core/Src/UI_LCD.c **** // static lv_indev_state_t encoder_state;
 133:Core/Src/UI_LCD.c **** 
 134:Core/Src/UI_LCD.c **** // static bool encoder_read(lv_indev_drv_t * drv, lv_indev_data_t*data){
 135:Core/Src/UI_LCD.c **** //     static int32_t last_diff = 0;
 136:Core/Src/UI_LCD.c ****     
 137:Core/Src/UI_LCD.c **** 
 138:Core/Src/UI_LCD.c **** //     static int lastBtn;
 139:Core/Src/UI_LCD.c **** //     int btn_state;
 140:Core/Src/UI_LCD.c **** 
 141:Core/Src/UI_LCD.c **** //     if (HAL_GPIO_ReadPin(GPIOB, GPIO_PIN_7) == 0) {
 142:Core/Src/UI_LCD.c **** //         btn_state = LV_INDEV_STATE_PR;
 143:Core/Src/UI_LCD.c **** //     } else {
 144:Core/Src/UI_LCD.c **** //         btn_state = LV_INDEV_STATE_REL;
 145:Core/Src/UI_LCD.c **** //     }
 146:Core/Src/UI_LCD.c **** //     int encoder_value = ((TIM3->CNT)  >> 2);
 147:Core/Src/UI_LCD.c **** //     encoder_state = btn_state;
 148:Core/Src/UI_LCD.c **** //     data->enc_diff = poll_Encoder();
 149:Core/Src/UI_LCD.c **** //     data->state = encoder_state;
 150:Core/Src/UI_LCD.c **** //     encoder_last_value = encoder_value;
 151:Core/Src/UI_LCD.c **** 
 152:Core/Src/UI_LCD.c **** 
 153:Core/Src/UI_LCD.c **** 
 154:Core/Src/UI_LCD.c **** //     // int32_t diff = ((TIM3->CNT) >> 2); // read the rotary encoder position
 155:Core/Src/UI_LCD.c **** //     // int btn_state = 0 ==  HAL_GPIO_ReadPin(GPIOB, GPIO_PIN_7) ? LV_INDEV_STATE_PR : LV_INDEV_
 156:Core/Src/UI_LCD.c **** 
 157:Core/Src/UI_LCD.c **** //     // data->enc_diff = diff - last_diff;;
 158:Core/Src/UI_LCD.c **** //     // data->state = btn_state;
 159:Core/Src/UI_LCD.c ****    
ARM GAS  /var/folders/lp/x54gwt890xv47sdkqj1k04q40000gn/T//cczqSNj3.s 			page 20


 160:Core/Src/UI_LCD.c **** //     SEGGER_RTT_printf(0, "Encoder diff = %d\r\n", data->enc_diff); // debug
 161:Core/Src/UI_LCD.c **** //     SEGGER_RTT_printf(0, "btn_state = %d\r\n", btn_state); // debug
 162:Core/Src/UI_LCD.c **** 
 163:Core/Src/UI_LCD.c **** //     if (lastBtn != btn_state)
 164:Core/Src/UI_LCD.c **** //     {
 165:Core/Src/UI_LCD.c **** //         lastBtn = btn_state;
 166:Core/Src/UI_LCD.c **** //     }
 167:Core/Src/UI_LCD.c **** 
 168:Core/Src/UI_LCD.c **** //     return false;
 169:Core/Src/UI_LCD.c **** // }
 170:Core/Src/UI_LCD.c **** 
 171:Core/Src/UI_LCD.c **** 
 172:Core/Src/UI_LCD.c **** // static void event_handler(lv_event_t * e)
 173:Core/Src/UI_LCD.c **** // {
 174:Core/Src/UI_LCD.c **** //     lv_event_code_t code = lv_event_get_code(e);
 175:Core/Src/UI_LCD.c **** //     lv_obj_t * obj = lv_event_get_target(e);
 176:Core/Src/UI_LCD.c **** //     if(code == LV_EVENT_VALUE_CHANGED) {
 177:Core/Src/UI_LCD.c **** //         char buf[32];
 178:Core/Src/UI_LCD.c **** //         lv_roller_get_selected_str(obj, buf, sizeof(buf));
 179:Core/Src/UI_LCD.c **** //         LV_LOG_USER("Selected month: %s\n", buf);
 180:Core/Src/UI_LCD.c **** //     }
 181:Core/Src/UI_LCD.c **** // }
 182:Core/Src/UI_LCD.c **** 
 183:Core/Src/UI_LCD.c **** void UI_LCD_init(void){
 680              		.loc 1 183 23 is_stmt 1 view -0
 681              		.cfi_startproc
 682              		@ args = 0, pretend = 0, frame = 0
 683              		@ frame_needed = 0, uses_anonymous_args = 0
 184:Core/Src/UI_LCD.c **** 
 185:Core/Src/UI_LCD.c ****     lv_obj_set_style_bg_color(lv_scr_act(), lv_color_hex(0x003a57), LV_PART_MAIN);
 684              		.loc 1 185 5 view .LVU160
 685              	.LBB52:
 686              	.LBI52:
 182:Drivers/lvgl/src/core/lv_disp.h **** {
 687              		.loc 2 182 26 view .LVU161
 688              	.LBB53:
 689              		.loc 2 184 5 view .LVU162
 690              	.LBE53:
 691              	.LBE52:
 183:Core/Src/UI_LCD.c **** 
 692              		.loc 1 183 23 is_stmt 0 view .LVU163
 693 0000 08B5     		push	{r3, lr}
 694              		.cfi_def_cfa_offset 8
 695              		.cfi_offset 3, -8
 696              		.cfi_offset 14, -4
 697              	.LBB55:
 698              	.LBB54:
 699              		.loc 2 184 12 view .LVU164
 700 0002 FFF7FEFF 		bl	lv_disp_get_default
 701              	.LVL92:
 702              		.loc 2 184 12 discriminator 1 view .LVU165
 703 0006 FFF7FEFF 		bl	lv_disp_get_scr_act
 704              	.LVL93:
 705              		.loc 2 184 12 discriminator 1 view .LVU166
 706              	.LBE54:
 707              	.LBE55:
 708              	.LBB56:
ARM GAS  /var/folders/lp/x54gwt890xv47sdkqj1k04q40000gn/T//cczqSNj3.s 			page 21


 709              	.LBI56:
 710              		.file 3 "Drivers/lvgl/src/hal/../draw/../misc/lv_color.h"
   1:Drivers/lvgl/src/hal/../draw/../misc/lv_color.h **** /**
   2:Drivers/lvgl/src/hal/../draw/../misc/lv_color.h ****  * @file lv_color.h
   3:Drivers/lvgl/src/hal/../draw/../misc/lv_color.h ****  *
   4:Drivers/lvgl/src/hal/../draw/../misc/lv_color.h ****  */
   5:Drivers/lvgl/src/hal/../draw/../misc/lv_color.h **** 
   6:Drivers/lvgl/src/hal/../draw/../misc/lv_color.h **** #ifndef LV_COLOR_H
   7:Drivers/lvgl/src/hal/../draw/../misc/lv_color.h **** #define LV_COLOR_H
   8:Drivers/lvgl/src/hal/../draw/../misc/lv_color.h **** 
   9:Drivers/lvgl/src/hal/../draw/../misc/lv_color.h **** #ifdef __cplusplus
  10:Drivers/lvgl/src/hal/../draw/../misc/lv_color.h **** extern "C" {
  11:Drivers/lvgl/src/hal/../draw/../misc/lv_color.h **** #endif
  12:Drivers/lvgl/src/hal/../draw/../misc/lv_color.h **** 
  13:Drivers/lvgl/src/hal/../draw/../misc/lv_color.h **** /*********************
  14:Drivers/lvgl/src/hal/../draw/../misc/lv_color.h ****  *      INCLUDES
  15:Drivers/lvgl/src/hal/../draw/../misc/lv_color.h ****  *********************/
  16:Drivers/lvgl/src/hal/../draw/../misc/lv_color.h **** #include "../lv_conf_internal.h"
  17:Drivers/lvgl/src/hal/../draw/../misc/lv_color.h **** #include "lv_assert.h"
  18:Drivers/lvgl/src/hal/../draw/../misc/lv_color.h **** #include "lv_math.h"
  19:Drivers/lvgl/src/hal/../draw/../misc/lv_color.h **** #include "lv_types.h"
  20:Drivers/lvgl/src/hal/../draw/../misc/lv_color.h **** 
  21:Drivers/lvgl/src/hal/../draw/../misc/lv_color.h **** /*Error checking*/
  22:Drivers/lvgl/src/hal/../draw/../misc/lv_color.h **** #if LV_COLOR_DEPTH == 24
  23:Drivers/lvgl/src/hal/../draw/../misc/lv_color.h **** #error "LV_COLOR_DEPTH 24 is deprecated. Use LV_COLOR_DEPTH 32 instead (lv_conf.h)"
  24:Drivers/lvgl/src/hal/../draw/../misc/lv_color.h **** #endif
  25:Drivers/lvgl/src/hal/../draw/../misc/lv_color.h **** 
  26:Drivers/lvgl/src/hal/../draw/../misc/lv_color.h **** #if LV_COLOR_DEPTH != 16 && LV_COLOR_16_SWAP != 0
  27:Drivers/lvgl/src/hal/../draw/../misc/lv_color.h **** #error "LV_COLOR_16_SWAP requires LV_COLOR_DEPTH == 16. Set it in lv_conf.h"
  28:Drivers/lvgl/src/hal/../draw/../misc/lv_color.h **** #endif
  29:Drivers/lvgl/src/hal/../draw/../misc/lv_color.h **** 
  30:Drivers/lvgl/src/hal/../draw/../misc/lv_color.h **** #include <stdint.h>
  31:Drivers/lvgl/src/hal/../draw/../misc/lv_color.h **** 
  32:Drivers/lvgl/src/hal/../draw/../misc/lv_color.h **** /*********************
  33:Drivers/lvgl/src/hal/../draw/../misc/lv_color.h ****  *      DEFINES
  34:Drivers/lvgl/src/hal/../draw/../misc/lv_color.h ****  *********************/
  35:Drivers/lvgl/src/hal/../draw/../misc/lv_color.h **** LV_EXPORT_CONST_INT(LV_COLOR_DEPTH);
  36:Drivers/lvgl/src/hal/../draw/../misc/lv_color.h **** LV_EXPORT_CONST_INT(LV_COLOR_16_SWAP);
  37:Drivers/lvgl/src/hal/../draw/../misc/lv_color.h **** 
  38:Drivers/lvgl/src/hal/../draw/../misc/lv_color.h **** /**
  39:Drivers/lvgl/src/hal/../draw/../misc/lv_color.h ****  * Opacity percentages.
  40:Drivers/lvgl/src/hal/../draw/../misc/lv_color.h ****  */
  41:Drivers/lvgl/src/hal/../draw/../misc/lv_color.h **** enum {
  42:Drivers/lvgl/src/hal/../draw/../misc/lv_color.h ****     LV_OPA_TRANSP = 0,
  43:Drivers/lvgl/src/hal/../draw/../misc/lv_color.h ****     LV_OPA_0      = 0,
  44:Drivers/lvgl/src/hal/../draw/../misc/lv_color.h ****     LV_OPA_10     = 25,
  45:Drivers/lvgl/src/hal/../draw/../misc/lv_color.h ****     LV_OPA_20     = 51,
  46:Drivers/lvgl/src/hal/../draw/../misc/lv_color.h ****     LV_OPA_30     = 76,
  47:Drivers/lvgl/src/hal/../draw/../misc/lv_color.h ****     LV_OPA_40     = 102,
  48:Drivers/lvgl/src/hal/../draw/../misc/lv_color.h ****     LV_OPA_50     = 127,
  49:Drivers/lvgl/src/hal/../draw/../misc/lv_color.h ****     LV_OPA_60     = 153,
  50:Drivers/lvgl/src/hal/../draw/../misc/lv_color.h ****     LV_OPA_70     = 178,
  51:Drivers/lvgl/src/hal/../draw/../misc/lv_color.h ****     LV_OPA_80     = 204,
  52:Drivers/lvgl/src/hal/../draw/../misc/lv_color.h ****     LV_OPA_90     = 229,
  53:Drivers/lvgl/src/hal/../draw/../misc/lv_color.h ****     LV_OPA_100    = 255,
  54:Drivers/lvgl/src/hal/../draw/../misc/lv_color.h ****     LV_OPA_COVER  = 255,
  55:Drivers/lvgl/src/hal/../draw/../misc/lv_color.h **** };
ARM GAS  /var/folders/lp/x54gwt890xv47sdkqj1k04q40000gn/T//cczqSNj3.s 			page 22


  56:Drivers/lvgl/src/hal/../draw/../misc/lv_color.h **** 
  57:Drivers/lvgl/src/hal/../draw/../misc/lv_color.h **** #define LV_OPA_MIN 2    /*Opacities below this will be transparent*/
  58:Drivers/lvgl/src/hal/../draw/../misc/lv_color.h **** #define LV_OPA_MAX 253  /*Opacities above this will fully cover*/
  59:Drivers/lvgl/src/hal/../draw/../misc/lv_color.h **** 
  60:Drivers/lvgl/src/hal/../draw/../misc/lv_color.h **** #if LV_COLOR_DEPTH == 1
  61:Drivers/lvgl/src/hal/../draw/../misc/lv_color.h **** #define LV_COLOR_SIZE 8
  62:Drivers/lvgl/src/hal/../draw/../misc/lv_color.h **** #elif LV_COLOR_DEPTH == 8
  63:Drivers/lvgl/src/hal/../draw/../misc/lv_color.h **** #define LV_COLOR_SIZE 8
  64:Drivers/lvgl/src/hal/../draw/../misc/lv_color.h **** #elif LV_COLOR_DEPTH == 16
  65:Drivers/lvgl/src/hal/../draw/../misc/lv_color.h **** #define LV_COLOR_SIZE 16
  66:Drivers/lvgl/src/hal/../draw/../misc/lv_color.h **** #elif LV_COLOR_DEPTH == 32
  67:Drivers/lvgl/src/hal/../draw/../misc/lv_color.h **** #define LV_COLOR_SIZE 32
  68:Drivers/lvgl/src/hal/../draw/../misc/lv_color.h **** #else
  69:Drivers/lvgl/src/hal/../draw/../misc/lv_color.h **** #error "Invalid LV_COLOR_DEPTH in lv_conf.h! Set it to 1, 8, 16 or 32!"
  70:Drivers/lvgl/src/hal/../draw/../misc/lv_color.h **** #endif
  71:Drivers/lvgl/src/hal/../draw/../misc/lv_color.h **** 
  72:Drivers/lvgl/src/hal/../draw/../misc/lv_color.h **** #if defined(__cplusplus) && !defined(_LV_COLOR_HAS_MODERN_CPP)
  73:Drivers/lvgl/src/hal/../draw/../misc/lv_color.h **** /**
  74:Drivers/lvgl/src/hal/../draw/../misc/lv_color.h **** * MSVC compiler's definition of the __cplusplus indicating 199711L regardless to C++ standard versi
  75:Drivers/lvgl/src/hal/../draw/../misc/lv_color.h **** * see https://devblogs.microsoft.com/cppblog/msvc-now-correctly-reports-cplusplus
  76:Drivers/lvgl/src/hal/../draw/../misc/lv_color.h **** * so we use _MSC_VER macro instead of __cplusplus
  77:Drivers/lvgl/src/hal/../draw/../misc/lv_color.h **** */
  78:Drivers/lvgl/src/hal/../draw/../misc/lv_color.h **** #ifdef _MSC_VER
  79:Drivers/lvgl/src/hal/../draw/../misc/lv_color.h **** #if _MSC_VER >= 1900 /*Visual Studio 2015*/
  80:Drivers/lvgl/src/hal/../draw/../misc/lv_color.h **** #define _LV_COLOR_HAS_MODERN_CPP 1
  81:Drivers/lvgl/src/hal/../draw/../misc/lv_color.h **** #endif
  82:Drivers/lvgl/src/hal/../draw/../misc/lv_color.h **** #else
  83:Drivers/lvgl/src/hal/../draw/../misc/lv_color.h **** #if __cplusplus >= 201103L
  84:Drivers/lvgl/src/hal/../draw/../misc/lv_color.h **** #define _LV_COLOR_HAS_MODERN_CPP 1
  85:Drivers/lvgl/src/hal/../draw/../misc/lv_color.h **** #endif
  86:Drivers/lvgl/src/hal/../draw/../misc/lv_color.h **** #endif
  87:Drivers/lvgl/src/hal/../draw/../misc/lv_color.h **** #endif /*__cplusplus*/
  88:Drivers/lvgl/src/hal/../draw/../misc/lv_color.h **** 
  89:Drivers/lvgl/src/hal/../draw/../misc/lv_color.h **** #ifndef _LV_COLOR_HAS_MODERN_CPP
  90:Drivers/lvgl/src/hal/../draw/../misc/lv_color.h **** #define _LV_COLOR_HAS_MODERN_CPP 0
  91:Drivers/lvgl/src/hal/../draw/../misc/lv_color.h **** #endif
  92:Drivers/lvgl/src/hal/../draw/../misc/lv_color.h **** 
  93:Drivers/lvgl/src/hal/../draw/../misc/lv_color.h **** #if _LV_COLOR_HAS_MODERN_CPP
  94:Drivers/lvgl/src/hal/../draw/../misc/lv_color.h **** /*Fix msvc compiler error C4576 inside C++ code*/
  95:Drivers/lvgl/src/hal/../draw/../misc/lv_color.h **** #define _LV_COLOR_MAKE_TYPE_HELPER lv_color_t
  96:Drivers/lvgl/src/hal/../draw/../misc/lv_color.h **** #else
  97:Drivers/lvgl/src/hal/../draw/../misc/lv_color.h **** #define _LV_COLOR_MAKE_TYPE_HELPER (lv_color_t)
  98:Drivers/lvgl/src/hal/../draw/../misc/lv_color.h **** #endif
  99:Drivers/lvgl/src/hal/../draw/../misc/lv_color.h **** 
 100:Drivers/lvgl/src/hal/../draw/../misc/lv_color.h **** /*---------------------------------------
 101:Drivers/lvgl/src/hal/../draw/../misc/lv_color.h ****  * Macros for all existing color depths
 102:Drivers/lvgl/src/hal/../draw/../misc/lv_color.h ****  * to set/get values of the color channels
 103:Drivers/lvgl/src/hal/../draw/../misc/lv_color.h ****  *------------------------------------------*/
 104:Drivers/lvgl/src/hal/../draw/../misc/lv_color.h **** # define LV_COLOR_SET_R1(c, v) (c).ch.red = (uint8_t)((v) & 0x1)
 105:Drivers/lvgl/src/hal/../draw/../misc/lv_color.h **** # define LV_COLOR_SET_G1(c, v) (c).ch.green = (uint8_t)((v) & 0x1)
 106:Drivers/lvgl/src/hal/../draw/../misc/lv_color.h **** # define LV_COLOR_SET_B1(c, v) (c).ch.blue = (uint8_t)((v) & 0x1)
 107:Drivers/lvgl/src/hal/../draw/../misc/lv_color.h **** # define LV_COLOR_SET_A1(c, v) do {} while(0)
 108:Drivers/lvgl/src/hal/../draw/../misc/lv_color.h **** 
 109:Drivers/lvgl/src/hal/../draw/../misc/lv_color.h **** # define LV_COLOR_GET_R1(c) (c).ch.red
 110:Drivers/lvgl/src/hal/../draw/../misc/lv_color.h **** # define LV_COLOR_GET_G1(c) (c).ch.green
 111:Drivers/lvgl/src/hal/../draw/../misc/lv_color.h **** # define LV_COLOR_GET_B1(c) (c).ch.blue
 112:Drivers/lvgl/src/hal/../draw/../misc/lv_color.h **** # define LV_COLOR_GET_A1(c) 0xFF
ARM GAS  /var/folders/lp/x54gwt890xv47sdkqj1k04q40000gn/T//cczqSNj3.s 			page 23


 113:Drivers/lvgl/src/hal/../draw/../misc/lv_color.h **** 
 114:Drivers/lvgl/src/hal/../draw/../misc/lv_color.h **** # define _LV_COLOR_ZERO_INITIALIZER1 {0x00}
 115:Drivers/lvgl/src/hal/../draw/../misc/lv_color.h **** # define LV_COLOR_MAKE1(r8, g8, b8)  {(uint8_t)((b8 >> 7) | (g8 >> 7) | (r8 >> 7))}
 116:Drivers/lvgl/src/hal/../draw/../misc/lv_color.h **** 
 117:Drivers/lvgl/src/hal/../draw/../misc/lv_color.h **** # define LV_COLOR_SET_R8(c, v) (c).ch.red = (uint8_t)((v) & 0x7U)
 118:Drivers/lvgl/src/hal/../draw/../misc/lv_color.h **** # define LV_COLOR_SET_G8(c, v) (c).ch.green = (uint8_t)((v) & 0x7U)
 119:Drivers/lvgl/src/hal/../draw/../misc/lv_color.h **** # define LV_COLOR_SET_B8(c, v) (c).ch.blue = (uint8_t)((v) & 0x3U)
 120:Drivers/lvgl/src/hal/../draw/../misc/lv_color.h **** # define LV_COLOR_SET_A8(c, v) do {} while(0)
 121:Drivers/lvgl/src/hal/../draw/../misc/lv_color.h **** 
 122:Drivers/lvgl/src/hal/../draw/../misc/lv_color.h **** # define LV_COLOR_GET_R8(c) (c).ch.red
 123:Drivers/lvgl/src/hal/../draw/../misc/lv_color.h **** # define LV_COLOR_GET_G8(c) (c).ch.green
 124:Drivers/lvgl/src/hal/../draw/../misc/lv_color.h **** # define LV_COLOR_GET_B8(c) (c).ch.blue
 125:Drivers/lvgl/src/hal/../draw/../misc/lv_color.h **** # define LV_COLOR_GET_A8(c) 0xFF
 126:Drivers/lvgl/src/hal/../draw/../misc/lv_color.h **** 
 127:Drivers/lvgl/src/hal/../draw/../misc/lv_color.h **** # define _LV_COLOR_ZERO_INITIALIZER8 {{0x00, 0x00, 0x00}}
 128:Drivers/lvgl/src/hal/../draw/../misc/lv_color.h **** # define LV_COLOR_MAKE8(r8, g8, b8) {{(uint8_t)((b8 >> 6) & 0x3U), (uint8_t)((g8 >> 5) & 0x7U), (ui
 129:Drivers/lvgl/src/hal/../draw/../misc/lv_color.h **** 
 130:Drivers/lvgl/src/hal/../draw/../misc/lv_color.h **** # define LV_COLOR_SET_R16(c, v) (c).ch.red = (uint8_t)((v) & 0x1FU)
 131:Drivers/lvgl/src/hal/../draw/../misc/lv_color.h **** #if LV_COLOR_16_SWAP == 0
 132:Drivers/lvgl/src/hal/../draw/../misc/lv_color.h **** # define LV_COLOR_SET_G16(c, v) (c).ch.green = (uint8_t)((v) & 0x3FU)
 133:Drivers/lvgl/src/hal/../draw/../misc/lv_color.h **** #else
 134:Drivers/lvgl/src/hal/../draw/../misc/lv_color.h **** # define LV_COLOR_SET_G16(c, v) {(c).ch.green_h = (uint8_t)(((v) >> 3) & 0x7); (c).ch.green_l = (ui
 135:Drivers/lvgl/src/hal/../draw/../misc/lv_color.h **** #endif
 136:Drivers/lvgl/src/hal/../draw/../misc/lv_color.h **** # define LV_COLOR_SET_B16(c, v) (c).ch.blue = (uint8_t)((v) & 0x1FU)
 137:Drivers/lvgl/src/hal/../draw/../misc/lv_color.h **** # define LV_COLOR_SET_A16(c, v) do {} while(0)
 138:Drivers/lvgl/src/hal/../draw/../misc/lv_color.h **** 
 139:Drivers/lvgl/src/hal/../draw/../misc/lv_color.h **** # define LV_COLOR_GET_R16(c) (c).ch.red
 140:Drivers/lvgl/src/hal/../draw/../misc/lv_color.h **** #if LV_COLOR_16_SWAP == 0
 141:Drivers/lvgl/src/hal/../draw/../misc/lv_color.h **** # define LV_COLOR_GET_G16(c) (c).ch.green
 142:Drivers/lvgl/src/hal/../draw/../misc/lv_color.h **** #else
 143:Drivers/lvgl/src/hal/../draw/../misc/lv_color.h **** # define LV_COLOR_GET_G16(c) (((c).ch.green_h << 3) + (c).ch.green_l)
 144:Drivers/lvgl/src/hal/../draw/../misc/lv_color.h **** #endif
 145:Drivers/lvgl/src/hal/../draw/../misc/lv_color.h **** # define LV_COLOR_GET_B16(c) (c).ch.blue
 146:Drivers/lvgl/src/hal/../draw/../misc/lv_color.h **** # define LV_COLOR_GET_A16(c) 0xFF
 147:Drivers/lvgl/src/hal/../draw/../misc/lv_color.h **** 
 148:Drivers/lvgl/src/hal/../draw/../misc/lv_color.h **** #if LV_COLOR_16_SWAP == 0
 149:Drivers/lvgl/src/hal/../draw/../misc/lv_color.h **** # define _LV_COLOR_ZERO_INITIALIZER16  {{0x00, 0x00, 0x00}}
 150:Drivers/lvgl/src/hal/../draw/../misc/lv_color.h **** # define LV_COLOR_MAKE16(r8, g8, b8) {{(uint8_t)((b8 >> 3) & 0x1FU), (uint8_t)((g8 >> 2) & 0x3FU), 
 151:Drivers/lvgl/src/hal/../draw/../misc/lv_color.h **** #else
 152:Drivers/lvgl/src/hal/../draw/../misc/lv_color.h **** # define _LV_COLOR_ZERO_INITIALIZER16 {{0x00, 0x00, 0x00, 0x00}}
 153:Drivers/lvgl/src/hal/../draw/../misc/lv_color.h **** # define LV_COLOR_MAKE16(r8, g8, b8) {{(uint8_t)((g8 >> 5) & 0x7U), (uint8_t)((r8 >> 3) & 0x1FU), (
 154:Drivers/lvgl/src/hal/../draw/../misc/lv_color.h **** #endif
 155:Drivers/lvgl/src/hal/../draw/../misc/lv_color.h **** 
 156:Drivers/lvgl/src/hal/../draw/../misc/lv_color.h **** # define LV_COLOR_SET_R32(c, v) (c).ch.red = (uint8_t)((v) & 0xFF)
 157:Drivers/lvgl/src/hal/../draw/../misc/lv_color.h **** # define LV_COLOR_SET_G32(c, v) (c).ch.green = (uint8_t)((v) & 0xFF)
 158:Drivers/lvgl/src/hal/../draw/../misc/lv_color.h **** # define LV_COLOR_SET_B32(c, v) (c).ch.blue = (uint8_t)((v) & 0xFF)
 159:Drivers/lvgl/src/hal/../draw/../misc/lv_color.h **** # define LV_COLOR_SET_A32(c, v) (c).ch.alpha = (uint8_t)((v) & 0xFF)
 160:Drivers/lvgl/src/hal/../draw/../misc/lv_color.h **** 
 161:Drivers/lvgl/src/hal/../draw/../misc/lv_color.h **** # define LV_COLOR_GET_R32(c) (c).ch.red
 162:Drivers/lvgl/src/hal/../draw/../misc/lv_color.h **** # define LV_COLOR_GET_G32(c) (c).ch.green
 163:Drivers/lvgl/src/hal/../draw/../misc/lv_color.h **** # define LV_COLOR_GET_B32(c) (c).ch.blue
 164:Drivers/lvgl/src/hal/../draw/../misc/lv_color.h **** # define LV_COLOR_GET_A32(c) (c).ch.alpha
 165:Drivers/lvgl/src/hal/../draw/../misc/lv_color.h **** 
 166:Drivers/lvgl/src/hal/../draw/../misc/lv_color.h **** # define _LV_COLOR_ZERO_INITIALIZER32  {{0x00, 0x00, 0x00, 0x00}}
 167:Drivers/lvgl/src/hal/../draw/../misc/lv_color.h **** # define LV_COLOR_MAKE32(r8, g8, b8) {{b8, g8, r8, 0xff}} /*Fix 0xff alpha*/
 168:Drivers/lvgl/src/hal/../draw/../misc/lv_color.h **** 
 169:Drivers/lvgl/src/hal/../draw/../misc/lv_color.h **** /*---------------------------------------
ARM GAS  /var/folders/lp/x54gwt890xv47sdkqj1k04q40000gn/T//cczqSNj3.s 			page 24


 170:Drivers/lvgl/src/hal/../draw/../misc/lv_color.h ****  * Macros for the current color depth
 171:Drivers/lvgl/src/hal/../draw/../misc/lv_color.h ****  * to set/get values of the color channels
 172:Drivers/lvgl/src/hal/../draw/../misc/lv_color.h ****  *------------------------------------------*/
 173:Drivers/lvgl/src/hal/../draw/../misc/lv_color.h **** #define LV_COLOR_SET_R(c, v) LV_CONCAT(LV_COLOR_SET_R, LV_COLOR_DEPTH)(c, v)
 174:Drivers/lvgl/src/hal/../draw/../misc/lv_color.h **** #define LV_COLOR_SET_G(c, v) LV_CONCAT(LV_COLOR_SET_G, LV_COLOR_DEPTH)(c, v)
 175:Drivers/lvgl/src/hal/../draw/../misc/lv_color.h **** #define LV_COLOR_SET_B(c, v) LV_CONCAT(LV_COLOR_SET_B, LV_COLOR_DEPTH)(c, v)
 176:Drivers/lvgl/src/hal/../draw/../misc/lv_color.h **** #define LV_COLOR_SET_A(c, v) LV_CONCAT(LV_COLOR_SET_A, LV_COLOR_DEPTH)(c, v)
 177:Drivers/lvgl/src/hal/../draw/../misc/lv_color.h **** 
 178:Drivers/lvgl/src/hal/../draw/../misc/lv_color.h **** #define LV_COLOR_GET_R(c) LV_CONCAT(LV_COLOR_GET_R, LV_COLOR_DEPTH)(c)
 179:Drivers/lvgl/src/hal/../draw/../misc/lv_color.h **** #define LV_COLOR_GET_G(c) LV_CONCAT(LV_COLOR_GET_G, LV_COLOR_DEPTH)(c)
 180:Drivers/lvgl/src/hal/../draw/../misc/lv_color.h **** #define LV_COLOR_GET_B(c) LV_CONCAT(LV_COLOR_GET_B, LV_COLOR_DEPTH)(c)
 181:Drivers/lvgl/src/hal/../draw/../misc/lv_color.h **** #define LV_COLOR_GET_A(c) LV_CONCAT(LV_COLOR_GET_A, LV_COLOR_DEPTH)(c)
 182:Drivers/lvgl/src/hal/../draw/../misc/lv_color.h **** 
 183:Drivers/lvgl/src/hal/../draw/../misc/lv_color.h **** #define _LV_COLOR_ZERO_INITIALIZER LV_CONCAT(_LV_COLOR_ZERO_INITIALIZER, LV_COLOR_DEPTH)
 184:Drivers/lvgl/src/hal/../draw/../misc/lv_color.h **** #define LV_COLOR_MAKE(r8, g8, b8) LV_CONCAT(LV_COLOR_MAKE, LV_COLOR_DEPTH)(r8, g8, b8)
 185:Drivers/lvgl/src/hal/../draw/../misc/lv_color.h **** 
 186:Drivers/lvgl/src/hal/../draw/../misc/lv_color.h **** /**********************
 187:Drivers/lvgl/src/hal/../draw/../misc/lv_color.h ****  *      TYPEDEFS
 188:Drivers/lvgl/src/hal/../draw/../misc/lv_color.h ****  **********************/
 189:Drivers/lvgl/src/hal/../draw/../misc/lv_color.h **** 
 190:Drivers/lvgl/src/hal/../draw/../misc/lv_color.h **** typedef union {
 191:Drivers/lvgl/src/hal/../draw/../misc/lv_color.h ****     uint8_t full; /*must be declared first to set all bits of byte via initializer list*/
 192:Drivers/lvgl/src/hal/../draw/../misc/lv_color.h ****     union {
 193:Drivers/lvgl/src/hal/../draw/../misc/lv_color.h ****         uint8_t blue : 1;
 194:Drivers/lvgl/src/hal/../draw/../misc/lv_color.h ****         uint8_t green : 1;
 195:Drivers/lvgl/src/hal/../draw/../misc/lv_color.h ****         uint8_t red : 1;
 196:Drivers/lvgl/src/hal/../draw/../misc/lv_color.h ****     } ch;
 197:Drivers/lvgl/src/hal/../draw/../misc/lv_color.h **** } lv_color1_t;
 198:Drivers/lvgl/src/hal/../draw/../misc/lv_color.h **** 
 199:Drivers/lvgl/src/hal/../draw/../misc/lv_color.h **** typedef union {
 200:Drivers/lvgl/src/hal/../draw/../misc/lv_color.h ****     struct {
 201:Drivers/lvgl/src/hal/../draw/../misc/lv_color.h ****         uint8_t blue : 2;
 202:Drivers/lvgl/src/hal/../draw/../misc/lv_color.h ****         uint8_t green : 3;
 203:Drivers/lvgl/src/hal/../draw/../misc/lv_color.h ****         uint8_t red : 3;
 204:Drivers/lvgl/src/hal/../draw/../misc/lv_color.h ****     } ch;
 205:Drivers/lvgl/src/hal/../draw/../misc/lv_color.h ****     uint8_t full;
 206:Drivers/lvgl/src/hal/../draw/../misc/lv_color.h **** } lv_color8_t;
 207:Drivers/lvgl/src/hal/../draw/../misc/lv_color.h **** 
 208:Drivers/lvgl/src/hal/../draw/../misc/lv_color.h **** typedef union {
 209:Drivers/lvgl/src/hal/../draw/../misc/lv_color.h ****     struct {
 210:Drivers/lvgl/src/hal/../draw/../misc/lv_color.h **** #if LV_COLOR_16_SWAP == 0
 211:Drivers/lvgl/src/hal/../draw/../misc/lv_color.h ****         uint16_t blue : 5;
 212:Drivers/lvgl/src/hal/../draw/../misc/lv_color.h ****         uint16_t green : 6;
 213:Drivers/lvgl/src/hal/../draw/../misc/lv_color.h ****         uint16_t red : 5;
 214:Drivers/lvgl/src/hal/../draw/../misc/lv_color.h **** #else
 215:Drivers/lvgl/src/hal/../draw/../misc/lv_color.h ****         uint16_t green_h : 3;
 216:Drivers/lvgl/src/hal/../draw/../misc/lv_color.h ****         uint16_t red : 5;
 217:Drivers/lvgl/src/hal/../draw/../misc/lv_color.h ****         uint16_t blue : 5;
 218:Drivers/lvgl/src/hal/../draw/../misc/lv_color.h ****         uint16_t green_l : 3;
 219:Drivers/lvgl/src/hal/../draw/../misc/lv_color.h **** #endif
 220:Drivers/lvgl/src/hal/../draw/../misc/lv_color.h ****     } ch;
 221:Drivers/lvgl/src/hal/../draw/../misc/lv_color.h ****     uint16_t full;
 222:Drivers/lvgl/src/hal/../draw/../misc/lv_color.h **** } lv_color16_t;
 223:Drivers/lvgl/src/hal/../draw/../misc/lv_color.h **** 
 224:Drivers/lvgl/src/hal/../draw/../misc/lv_color.h **** typedef union {
 225:Drivers/lvgl/src/hal/../draw/../misc/lv_color.h ****     struct {
 226:Drivers/lvgl/src/hal/../draw/../misc/lv_color.h ****         uint8_t blue;
ARM GAS  /var/folders/lp/x54gwt890xv47sdkqj1k04q40000gn/T//cczqSNj3.s 			page 25


 227:Drivers/lvgl/src/hal/../draw/../misc/lv_color.h ****         uint8_t green;
 228:Drivers/lvgl/src/hal/../draw/../misc/lv_color.h ****         uint8_t red;
 229:Drivers/lvgl/src/hal/../draw/../misc/lv_color.h ****         uint8_t alpha;
 230:Drivers/lvgl/src/hal/../draw/../misc/lv_color.h ****     } ch;
 231:Drivers/lvgl/src/hal/../draw/../misc/lv_color.h ****     uint32_t full;
 232:Drivers/lvgl/src/hal/../draw/../misc/lv_color.h **** } lv_color32_t;
 233:Drivers/lvgl/src/hal/../draw/../misc/lv_color.h **** 
 234:Drivers/lvgl/src/hal/../draw/../misc/lv_color.h **** typedef LV_CONCAT3(uint, LV_COLOR_SIZE, _t) lv_color_int_t;
 235:Drivers/lvgl/src/hal/../draw/../misc/lv_color.h **** typedef LV_CONCAT3(lv_color, LV_COLOR_DEPTH, _t) lv_color_t;
 236:Drivers/lvgl/src/hal/../draw/../misc/lv_color.h **** 
 237:Drivers/lvgl/src/hal/../draw/../misc/lv_color.h **** typedef struct {
 238:Drivers/lvgl/src/hal/../draw/../misc/lv_color.h ****     uint16_t h;
 239:Drivers/lvgl/src/hal/../draw/../misc/lv_color.h ****     uint8_t s;
 240:Drivers/lvgl/src/hal/../draw/../misc/lv_color.h ****     uint8_t v;
 241:Drivers/lvgl/src/hal/../draw/../misc/lv_color.h **** } lv_color_hsv_t;
 242:Drivers/lvgl/src/hal/../draw/../misc/lv_color.h **** 
 243:Drivers/lvgl/src/hal/../draw/../misc/lv_color.h **** //! @cond Doxygen_Suppress
 244:Drivers/lvgl/src/hal/../draw/../misc/lv_color.h **** /*No idea where the guard is required but else throws warnings in the docs*/
 245:Drivers/lvgl/src/hal/../draw/../misc/lv_color.h **** typedef uint8_t lv_opa_t;
 246:Drivers/lvgl/src/hal/../draw/../misc/lv_color.h **** //! @endcond
 247:Drivers/lvgl/src/hal/../draw/../misc/lv_color.h **** 
 248:Drivers/lvgl/src/hal/../draw/../misc/lv_color.h **** struct _lv_color_filter_dsc_t;
 249:Drivers/lvgl/src/hal/../draw/../misc/lv_color.h **** 
 250:Drivers/lvgl/src/hal/../draw/../misc/lv_color.h **** typedef lv_color_t (*lv_color_filter_cb_t)(const struct _lv_color_filter_dsc_t *, lv_color_t, lv_op
 251:Drivers/lvgl/src/hal/../draw/../misc/lv_color.h **** 
 252:Drivers/lvgl/src/hal/../draw/../misc/lv_color.h **** typedef struct _lv_color_filter_dsc_t {
 253:Drivers/lvgl/src/hal/../draw/../misc/lv_color.h ****     lv_color_filter_cb_t filter_cb;
 254:Drivers/lvgl/src/hal/../draw/../misc/lv_color.h ****     void * user_data;
 255:Drivers/lvgl/src/hal/../draw/../misc/lv_color.h **** } lv_color_filter_dsc_t;
 256:Drivers/lvgl/src/hal/../draw/../misc/lv_color.h **** 
 257:Drivers/lvgl/src/hal/../draw/../misc/lv_color.h **** 
 258:Drivers/lvgl/src/hal/../draw/../misc/lv_color.h **** typedef enum {
 259:Drivers/lvgl/src/hal/../draw/../misc/lv_color.h ****     LV_PALETTE_RED,
 260:Drivers/lvgl/src/hal/../draw/../misc/lv_color.h ****     LV_PALETTE_PINK,
 261:Drivers/lvgl/src/hal/../draw/../misc/lv_color.h ****     LV_PALETTE_PURPLE,
 262:Drivers/lvgl/src/hal/../draw/../misc/lv_color.h ****     LV_PALETTE_DEEP_PURPLE,
 263:Drivers/lvgl/src/hal/../draw/../misc/lv_color.h ****     LV_PALETTE_INDIGO,
 264:Drivers/lvgl/src/hal/../draw/../misc/lv_color.h ****     LV_PALETTE_BLUE,
 265:Drivers/lvgl/src/hal/../draw/../misc/lv_color.h ****     LV_PALETTE_LIGHT_BLUE,
 266:Drivers/lvgl/src/hal/../draw/../misc/lv_color.h ****     LV_PALETTE_CYAN,
 267:Drivers/lvgl/src/hal/../draw/../misc/lv_color.h ****     LV_PALETTE_TEAL,
 268:Drivers/lvgl/src/hal/../draw/../misc/lv_color.h ****     LV_PALETTE_GREEN,
 269:Drivers/lvgl/src/hal/../draw/../misc/lv_color.h ****     LV_PALETTE_LIGHT_GREEN,
 270:Drivers/lvgl/src/hal/../draw/../misc/lv_color.h ****     LV_PALETTE_LIME,
 271:Drivers/lvgl/src/hal/../draw/../misc/lv_color.h ****     LV_PALETTE_YELLOW,
 272:Drivers/lvgl/src/hal/../draw/../misc/lv_color.h ****     LV_PALETTE_AMBER,
 273:Drivers/lvgl/src/hal/../draw/../misc/lv_color.h ****     LV_PALETTE_ORANGE,
 274:Drivers/lvgl/src/hal/../draw/../misc/lv_color.h ****     LV_PALETTE_DEEP_ORANGE,
 275:Drivers/lvgl/src/hal/../draw/../misc/lv_color.h ****     LV_PALETTE_BROWN,
 276:Drivers/lvgl/src/hal/../draw/../misc/lv_color.h ****     LV_PALETTE_BLUE_GREY,
 277:Drivers/lvgl/src/hal/../draw/../misc/lv_color.h ****     LV_PALETTE_GREY,
 278:Drivers/lvgl/src/hal/../draw/../misc/lv_color.h ****     _LV_PALETTE_LAST,
 279:Drivers/lvgl/src/hal/../draw/../misc/lv_color.h ****     LV_PALETTE_NONE = 0xff,
 280:Drivers/lvgl/src/hal/../draw/../misc/lv_color.h **** } lv_palette_t;
 281:Drivers/lvgl/src/hal/../draw/../misc/lv_color.h **** 
 282:Drivers/lvgl/src/hal/../draw/../misc/lv_color.h **** /**********************
 283:Drivers/lvgl/src/hal/../draw/../misc/lv_color.h ****  * GLOBAL PROTOTYPES
ARM GAS  /var/folders/lp/x54gwt890xv47sdkqj1k04q40000gn/T//cczqSNj3.s 			page 26


 284:Drivers/lvgl/src/hal/../draw/../misc/lv_color.h ****  **********************/
 285:Drivers/lvgl/src/hal/../draw/../misc/lv_color.h **** 
 286:Drivers/lvgl/src/hal/../draw/../misc/lv_color.h **** /*In color conversations:
 287:Drivers/lvgl/src/hal/../draw/../misc/lv_color.h ****  * - When converting to bigger color type the LSB weight of 1 LSB is calculated
 288:Drivers/lvgl/src/hal/../draw/../misc/lv_color.h ****  *   E.g. 16 bit Red has 5 bits
 289:Drivers/lvgl/src/hal/../draw/../misc/lv_color.h ****  *         8 bit Red has 3 bits
 290:Drivers/lvgl/src/hal/../draw/../misc/lv_color.h ****  *        ----------------------
 291:Drivers/lvgl/src/hal/../draw/../misc/lv_color.h ****  *        8 bit red LSB = (2^5 - 1) / (2^3 - 1) = 31 / 7 = 4
 292:Drivers/lvgl/src/hal/../draw/../misc/lv_color.h ****  *
 293:Drivers/lvgl/src/hal/../draw/../misc/lv_color.h ****  * - When calculating to smaller color type simply shift out the LSBs
 294:Drivers/lvgl/src/hal/../draw/../misc/lv_color.h ****  *   E.g.  8 bit Red has 3 bits
 295:Drivers/lvgl/src/hal/../draw/../misc/lv_color.h ****  *        16 bit Red has 5 bits
 296:Drivers/lvgl/src/hal/../draw/../misc/lv_color.h ****  *        ----------------------
 297:Drivers/lvgl/src/hal/../draw/../misc/lv_color.h ****  *         Shift right with 5 - 3 = 2
 298:Drivers/lvgl/src/hal/../draw/../misc/lv_color.h ****  */
 299:Drivers/lvgl/src/hal/../draw/../misc/lv_color.h **** static inline uint8_t lv_color_to1(lv_color_t color)
 300:Drivers/lvgl/src/hal/../draw/../misc/lv_color.h **** {
 301:Drivers/lvgl/src/hal/../draw/../misc/lv_color.h **** #if LV_COLOR_DEPTH == 1
 302:Drivers/lvgl/src/hal/../draw/../misc/lv_color.h ****     return color.full;
 303:Drivers/lvgl/src/hal/../draw/../misc/lv_color.h **** #elif LV_COLOR_DEPTH == 8
 304:Drivers/lvgl/src/hal/../draw/../misc/lv_color.h ****     if((LV_COLOR_GET_R(color) & 0x4) || (LV_COLOR_GET_G(color) & 0x4) || (LV_COLOR_GET_B(color) & 0
 305:Drivers/lvgl/src/hal/../draw/../misc/lv_color.h ****         return 1;
 306:Drivers/lvgl/src/hal/../draw/../misc/lv_color.h ****     }
 307:Drivers/lvgl/src/hal/../draw/../misc/lv_color.h ****     else {
 308:Drivers/lvgl/src/hal/../draw/../misc/lv_color.h ****         return 0;
 309:Drivers/lvgl/src/hal/../draw/../misc/lv_color.h ****     }
 310:Drivers/lvgl/src/hal/../draw/../misc/lv_color.h **** #elif LV_COLOR_DEPTH == 16
 311:Drivers/lvgl/src/hal/../draw/../misc/lv_color.h ****     if((LV_COLOR_GET_R(color) & 0x10) || (LV_COLOR_GET_G(color) & 0x20) || (LV_COLOR_GET_B(color) &
 312:Drivers/lvgl/src/hal/../draw/../misc/lv_color.h ****         return 1;
 313:Drivers/lvgl/src/hal/../draw/../misc/lv_color.h ****     }
 314:Drivers/lvgl/src/hal/../draw/../misc/lv_color.h ****     else {
 315:Drivers/lvgl/src/hal/../draw/../misc/lv_color.h ****         return 0;
 316:Drivers/lvgl/src/hal/../draw/../misc/lv_color.h ****     }
 317:Drivers/lvgl/src/hal/../draw/../misc/lv_color.h **** #elif LV_COLOR_DEPTH == 32
 318:Drivers/lvgl/src/hal/../draw/../misc/lv_color.h ****     if((LV_COLOR_GET_R(color) & 0x80) || (LV_COLOR_GET_G(color) & 0x80) || (LV_COLOR_GET_B(color) &
 319:Drivers/lvgl/src/hal/../draw/../misc/lv_color.h ****         return 1;
 320:Drivers/lvgl/src/hal/../draw/../misc/lv_color.h ****     }
 321:Drivers/lvgl/src/hal/../draw/../misc/lv_color.h ****     else {
 322:Drivers/lvgl/src/hal/../draw/../misc/lv_color.h ****         return 0;
 323:Drivers/lvgl/src/hal/../draw/../misc/lv_color.h ****     }
 324:Drivers/lvgl/src/hal/../draw/../misc/lv_color.h **** #endif
 325:Drivers/lvgl/src/hal/../draw/../misc/lv_color.h **** }
 326:Drivers/lvgl/src/hal/../draw/../misc/lv_color.h **** 
 327:Drivers/lvgl/src/hal/../draw/../misc/lv_color.h **** static inline uint8_t lv_color_to8(lv_color_t color)
 328:Drivers/lvgl/src/hal/../draw/../misc/lv_color.h **** {
 329:Drivers/lvgl/src/hal/../draw/../misc/lv_color.h **** #if LV_COLOR_DEPTH == 1
 330:Drivers/lvgl/src/hal/../draw/../misc/lv_color.h ****     if(color.full == 0)
 331:Drivers/lvgl/src/hal/../draw/../misc/lv_color.h ****         return 0;
 332:Drivers/lvgl/src/hal/../draw/../misc/lv_color.h ****     else
 333:Drivers/lvgl/src/hal/../draw/../misc/lv_color.h ****         return 0xFF;
 334:Drivers/lvgl/src/hal/../draw/../misc/lv_color.h **** #elif LV_COLOR_DEPTH == 8
 335:Drivers/lvgl/src/hal/../draw/../misc/lv_color.h ****     return color.full;
 336:Drivers/lvgl/src/hal/../draw/../misc/lv_color.h **** #elif LV_COLOR_DEPTH == 16
 337:Drivers/lvgl/src/hal/../draw/../misc/lv_color.h ****     lv_color8_t ret;
 338:Drivers/lvgl/src/hal/../draw/../misc/lv_color.h ****     LV_COLOR_SET_R8(ret, LV_COLOR_GET_R(color) >> 2); /*5 - 3  = 2*/
 339:Drivers/lvgl/src/hal/../draw/../misc/lv_color.h ****     LV_COLOR_SET_G8(ret, LV_COLOR_GET_G(color) >> 3); /*6 - 3  = 3*/
 340:Drivers/lvgl/src/hal/../draw/../misc/lv_color.h ****     LV_COLOR_SET_B8(ret, LV_COLOR_GET_B(color) >> 3); /*5 - 2  = 3*/
ARM GAS  /var/folders/lp/x54gwt890xv47sdkqj1k04q40000gn/T//cczqSNj3.s 			page 27


 341:Drivers/lvgl/src/hal/../draw/../misc/lv_color.h ****     return ret.full;
 342:Drivers/lvgl/src/hal/../draw/../misc/lv_color.h **** #elif LV_COLOR_DEPTH == 32
 343:Drivers/lvgl/src/hal/../draw/../misc/lv_color.h ****     lv_color8_t ret;
 344:Drivers/lvgl/src/hal/../draw/../misc/lv_color.h ****     LV_COLOR_SET_R8(ret, LV_COLOR_GET_R(color) >> 5); /*8 - 3  = 5*/
 345:Drivers/lvgl/src/hal/../draw/../misc/lv_color.h ****     LV_COLOR_SET_G8(ret, LV_COLOR_GET_G(color) >> 5); /*8 - 3  = 5*/
 346:Drivers/lvgl/src/hal/../draw/../misc/lv_color.h ****     LV_COLOR_SET_B8(ret, LV_COLOR_GET_B(color) >> 6); /*8 - 2  = 6*/
 347:Drivers/lvgl/src/hal/../draw/../misc/lv_color.h ****     return ret.full;
 348:Drivers/lvgl/src/hal/../draw/../misc/lv_color.h **** #endif
 349:Drivers/lvgl/src/hal/../draw/../misc/lv_color.h **** }
 350:Drivers/lvgl/src/hal/../draw/../misc/lv_color.h **** 
 351:Drivers/lvgl/src/hal/../draw/../misc/lv_color.h **** static inline uint16_t lv_color_to16(lv_color_t color)
 352:Drivers/lvgl/src/hal/../draw/../misc/lv_color.h **** {
 353:Drivers/lvgl/src/hal/../draw/../misc/lv_color.h **** #if LV_COLOR_DEPTH == 1
 354:Drivers/lvgl/src/hal/../draw/../misc/lv_color.h ****     if(color.full == 0)
 355:Drivers/lvgl/src/hal/../draw/../misc/lv_color.h ****         return 0;
 356:Drivers/lvgl/src/hal/../draw/../misc/lv_color.h ****     else
 357:Drivers/lvgl/src/hal/../draw/../misc/lv_color.h ****         return 0xFFFF;
 358:Drivers/lvgl/src/hal/../draw/../misc/lv_color.h **** #elif LV_COLOR_DEPTH == 8
 359:Drivers/lvgl/src/hal/../draw/../misc/lv_color.h ****     lv_color16_t ret;
 360:Drivers/lvgl/src/hal/../draw/../misc/lv_color.h ****     LV_COLOR_SET_R16(ret, LV_COLOR_GET_R(color) * 4);  /*(2^5 - 1)/(2^3 - 1) = 31/7 = 4*/
 361:Drivers/lvgl/src/hal/../draw/../misc/lv_color.h ****     LV_COLOR_SET_G16(ret, LV_COLOR_GET_G(color) * 9);  /*(2^6 - 1)/(2^3 - 1) = 63/7 = 9*/
 362:Drivers/lvgl/src/hal/../draw/../misc/lv_color.h ****     LV_COLOR_SET_B16(ret, LV_COLOR_GET_B(color) * 10); /*(2^5 - 1)/(2^2 - 1) = 31/3 = 10*/
 363:Drivers/lvgl/src/hal/../draw/../misc/lv_color.h ****     return ret.full;
 364:Drivers/lvgl/src/hal/../draw/../misc/lv_color.h **** #elif LV_COLOR_DEPTH == 16
 365:Drivers/lvgl/src/hal/../draw/../misc/lv_color.h ****     return color.full;
 366:Drivers/lvgl/src/hal/../draw/../misc/lv_color.h **** #elif LV_COLOR_DEPTH == 32
 367:Drivers/lvgl/src/hal/../draw/../misc/lv_color.h ****     lv_color16_t ret;
 368:Drivers/lvgl/src/hal/../draw/../misc/lv_color.h ****     LV_COLOR_SET_R16(ret, LV_COLOR_GET_R(color) >> 3); /*8 - 5  = 3*/
 369:Drivers/lvgl/src/hal/../draw/../misc/lv_color.h ****     LV_COLOR_SET_G16(ret, LV_COLOR_GET_G(color) >> 2); /*8 - 6  = 2*/
 370:Drivers/lvgl/src/hal/../draw/../misc/lv_color.h ****     LV_COLOR_SET_B16(ret, LV_COLOR_GET_B(color) >> 3); /*8 - 5  = 3*/
 371:Drivers/lvgl/src/hal/../draw/../misc/lv_color.h ****     return ret.full;
 372:Drivers/lvgl/src/hal/../draw/../misc/lv_color.h **** #endif
 373:Drivers/lvgl/src/hal/../draw/../misc/lv_color.h **** }
 374:Drivers/lvgl/src/hal/../draw/../misc/lv_color.h **** 
 375:Drivers/lvgl/src/hal/../draw/../misc/lv_color.h **** static inline uint32_t lv_color_to32(lv_color_t color)
 376:Drivers/lvgl/src/hal/../draw/../misc/lv_color.h **** {
 377:Drivers/lvgl/src/hal/../draw/../misc/lv_color.h **** #if LV_COLOR_DEPTH == 1
 378:Drivers/lvgl/src/hal/../draw/../misc/lv_color.h ****     if(color.full == 0)
 379:Drivers/lvgl/src/hal/../draw/../misc/lv_color.h ****         return 0xFF000000;
 380:Drivers/lvgl/src/hal/../draw/../misc/lv_color.h ****     else
 381:Drivers/lvgl/src/hal/../draw/../misc/lv_color.h ****         return 0xFFFFFFFF;
 382:Drivers/lvgl/src/hal/../draw/../misc/lv_color.h **** #elif LV_COLOR_DEPTH == 8
 383:Drivers/lvgl/src/hal/../draw/../misc/lv_color.h ****     lv_color32_t ret;
 384:Drivers/lvgl/src/hal/../draw/../misc/lv_color.h ****     LV_COLOR_SET_R32(ret, LV_COLOR_GET_R(color) * 36); /*(2^8 - 1)/(2^3 - 1) = 255/7 = 36*/
 385:Drivers/lvgl/src/hal/../draw/../misc/lv_color.h ****     LV_COLOR_SET_G32(ret, LV_COLOR_GET_G(color) * 36); /*(2^8 - 1)/(2^3 - 1) = 255/7 = 36*/
 386:Drivers/lvgl/src/hal/../draw/../misc/lv_color.h ****     LV_COLOR_SET_B32(ret, LV_COLOR_GET_B(color) * 85); /*(2^8 - 1)/(2^2 - 1) = 255/3 = 85*/
 387:Drivers/lvgl/src/hal/../draw/../misc/lv_color.h ****     LV_COLOR_SET_A32(ret, 0xFF);
 388:Drivers/lvgl/src/hal/../draw/../misc/lv_color.h ****     return ret.full;
 389:Drivers/lvgl/src/hal/../draw/../misc/lv_color.h **** #elif LV_COLOR_DEPTH == 16
 390:Drivers/lvgl/src/hal/../draw/../misc/lv_color.h ****     /**
 391:Drivers/lvgl/src/hal/../draw/../misc/lv_color.h ****      * The floating point math for conversion is:
 392:Drivers/lvgl/src/hal/../draw/../misc/lv_color.h ****      *  valueto = valuefrom * ( (2^bitsto - 1) / (float)(2^bitsfrom - 1) )
 393:Drivers/lvgl/src/hal/../draw/../misc/lv_color.h ****      * The faster integer math for conversion is:
 394:Drivers/lvgl/src/hal/../draw/../misc/lv_color.h ****      *  valueto = ( valuefrom * multiplier + adder ) >> divisor
 395:Drivers/lvgl/src/hal/../draw/../misc/lv_color.h ****      *   multiplier = FLOOR( ( (2^bitsto - 1) << divisor ) / (float)(2^bitsfrom - 1) )
 396:Drivers/lvgl/src/hal/../draw/../misc/lv_color.h ****      *
 397:Drivers/lvgl/src/hal/../draw/../misc/lv_color.h ****      * Find the first divisor where ( adder >> divisor ) <= 0
ARM GAS  /var/folders/lp/x54gwt890xv47sdkqj1k04q40000gn/T//cczqSNj3.s 			page 28


 398:Drivers/lvgl/src/hal/../draw/../misc/lv_color.h ****      *
 399:Drivers/lvgl/src/hal/../draw/../misc/lv_color.h ****      * 5-bit to 8-bit: ( 31 * multiplier + adder ) >> divisor = 255
 400:Drivers/lvgl/src/hal/../draw/../misc/lv_color.h ****      * divisor  multiplier  adder  min (0)  max (31)
 401:Drivers/lvgl/src/hal/../draw/../misc/lv_color.h ****      *       0           8      7        7       255
 402:Drivers/lvgl/src/hal/../draw/../misc/lv_color.h ****      *       1          16     14        7       255
 403:Drivers/lvgl/src/hal/../draw/../misc/lv_color.h ****      *       2          32     28        7       255
 404:Drivers/lvgl/src/hal/../draw/../misc/lv_color.h ****      *       3          65     25        3       255
 405:Drivers/lvgl/src/hal/../draw/../misc/lv_color.h ****      *       4         131     19        1       255
 406:Drivers/lvgl/src/hal/../draw/../misc/lv_color.h ****      *       5         263      7        0       255
 407:Drivers/lvgl/src/hal/../draw/../misc/lv_color.h ****      *
 408:Drivers/lvgl/src/hal/../draw/../misc/lv_color.h ****      * 6-bit to 8-bit: 255 = ( 63 * multiplier + adder ) >> divisor
 409:Drivers/lvgl/src/hal/../draw/../misc/lv_color.h ****      * divisor  multiplier  adder  min (0)  max (63)
 410:Drivers/lvgl/src/hal/../draw/../misc/lv_color.h ****      *       0           4      3        3       255
 411:Drivers/lvgl/src/hal/../draw/../misc/lv_color.h ****      *       1           8      6        3       255
 412:Drivers/lvgl/src/hal/../draw/../misc/lv_color.h ****      *       2          16     12        3       255
 413:Drivers/lvgl/src/hal/../draw/../misc/lv_color.h ****      *       3          32     24        3       255
 414:Drivers/lvgl/src/hal/../draw/../misc/lv_color.h ****      *       4          64     48        3       255
 415:Drivers/lvgl/src/hal/../draw/../misc/lv_color.h ****      *       5         129     33        1       255
 416:Drivers/lvgl/src/hal/../draw/../misc/lv_color.h ****      *       6         259      3        0       255
 417:Drivers/lvgl/src/hal/../draw/../misc/lv_color.h ****      */
 418:Drivers/lvgl/src/hal/../draw/../misc/lv_color.h **** 
 419:Drivers/lvgl/src/hal/../draw/../misc/lv_color.h ****     lv_color32_t ret;
 420:Drivers/lvgl/src/hal/../draw/../misc/lv_color.h ****     LV_COLOR_SET_R32(ret, (LV_COLOR_GET_R(color) * 263 + 7) >> 5);
 421:Drivers/lvgl/src/hal/../draw/../misc/lv_color.h ****     LV_COLOR_SET_G32(ret, (LV_COLOR_GET_G(color) * 259 + 3) >> 6);
 422:Drivers/lvgl/src/hal/../draw/../misc/lv_color.h ****     LV_COLOR_SET_B32(ret, (LV_COLOR_GET_B(color) * 263 + 7) >> 5);
 423:Drivers/lvgl/src/hal/../draw/../misc/lv_color.h ****     LV_COLOR_SET_A32(ret, 0xFF);
 424:Drivers/lvgl/src/hal/../draw/../misc/lv_color.h ****     return ret.full;
 425:Drivers/lvgl/src/hal/../draw/../misc/lv_color.h **** #elif LV_COLOR_DEPTH == 32
 426:Drivers/lvgl/src/hal/../draw/../misc/lv_color.h ****     return color.full;
 427:Drivers/lvgl/src/hal/../draw/../misc/lv_color.h **** #endif
 428:Drivers/lvgl/src/hal/../draw/../misc/lv_color.h **** }
 429:Drivers/lvgl/src/hal/../draw/../misc/lv_color.h **** 
 430:Drivers/lvgl/src/hal/../draw/../misc/lv_color.h **** //! @cond Doxygen_Suppress
 431:Drivers/lvgl/src/hal/../draw/../misc/lv_color.h **** 
 432:Drivers/lvgl/src/hal/../draw/../misc/lv_color.h **** /**
 433:Drivers/lvgl/src/hal/../draw/../misc/lv_color.h ****  * Mix two colors with a given ratio.
 434:Drivers/lvgl/src/hal/../draw/../misc/lv_color.h ****  * @param c1 the first color to mix (usually the foreground)
 435:Drivers/lvgl/src/hal/../draw/../misc/lv_color.h ****  * @param c2 the second color to mix (usually the background)
 436:Drivers/lvgl/src/hal/../draw/../misc/lv_color.h ****  * @param mix The ratio of the colors. 0: full `c2`, 255: full `c1`, 127: half `c1` and half`c2`
 437:Drivers/lvgl/src/hal/../draw/../misc/lv_color.h ****  * @return the mixed color
 438:Drivers/lvgl/src/hal/../draw/../misc/lv_color.h ****  */
 439:Drivers/lvgl/src/hal/../draw/../misc/lv_color.h **** static inline lv_color_t LV_ATTRIBUTE_FAST_MEM lv_color_mix(lv_color_t c1, lv_color_t c2, uint8_t m
 440:Drivers/lvgl/src/hal/../draw/../misc/lv_color.h **** {
 441:Drivers/lvgl/src/hal/../draw/../misc/lv_color.h ****     lv_color_t ret;
 442:Drivers/lvgl/src/hal/../draw/../misc/lv_color.h **** 
 443:Drivers/lvgl/src/hal/../draw/../misc/lv_color.h **** #if LV_COLOR_DEPTH == 16 && LV_COLOR_MIX_ROUND_OFS == 0
 444:Drivers/lvgl/src/hal/../draw/../misc/lv_color.h **** #if LV_COLOR_16_SWAP == 1
 445:Drivers/lvgl/src/hal/../draw/../misc/lv_color.h ****     c1.full = c1.full << 8 | c1.full >> 8;
 446:Drivers/lvgl/src/hal/../draw/../misc/lv_color.h ****     c2.full = c2.full << 8 | c2.full >> 8;
 447:Drivers/lvgl/src/hal/../draw/../misc/lv_color.h **** #endif
 448:Drivers/lvgl/src/hal/../draw/../misc/lv_color.h ****     /*Source: https://stackoverflow.com/a/50012418/1999969*/
 449:Drivers/lvgl/src/hal/../draw/../misc/lv_color.h ****     mix = (uint32_t)((uint32_t)mix + 4) >> 3;
 450:Drivers/lvgl/src/hal/../draw/../misc/lv_color.h ****     uint32_t bg = (uint32_t)((uint32_t)c2.full | ((uint32_t)c2.full << 16)) &
 451:Drivers/lvgl/src/hal/../draw/../misc/lv_color.h ****                   0x7E0F81F; /*0b00000111111000001111100000011111*/
 452:Drivers/lvgl/src/hal/../draw/../misc/lv_color.h ****     uint32_t fg = (uint32_t)((uint32_t)c1.full | ((uint32_t)c1.full << 16)) & 0x7E0F81F;
 453:Drivers/lvgl/src/hal/../draw/../misc/lv_color.h ****     uint32_t result = ((((fg - bg) * mix) >> 5) + bg) & 0x7E0F81F;
 454:Drivers/lvgl/src/hal/../draw/../misc/lv_color.h ****     ret.full = (uint16_t)((result >> 16) | result);
ARM GAS  /var/folders/lp/x54gwt890xv47sdkqj1k04q40000gn/T//cczqSNj3.s 			page 29


 455:Drivers/lvgl/src/hal/../draw/../misc/lv_color.h **** #if LV_COLOR_16_SWAP == 1
 456:Drivers/lvgl/src/hal/../draw/../misc/lv_color.h ****     ret.full = ret.full << 8 | ret.full >> 8;
 457:Drivers/lvgl/src/hal/../draw/../misc/lv_color.h **** #endif
 458:Drivers/lvgl/src/hal/../draw/../misc/lv_color.h **** #elif LV_COLOR_DEPTH != 1
 459:Drivers/lvgl/src/hal/../draw/../misc/lv_color.h ****     /*LV_COLOR_DEPTH == 8, 16 or 32*/
 460:Drivers/lvgl/src/hal/../draw/../misc/lv_color.h ****     LV_COLOR_SET_R(ret, LV_UDIV255((uint16_t)LV_COLOR_GET_R(c1) * mix + LV_COLOR_GET_R(c2) *
 461:Drivers/lvgl/src/hal/../draw/../misc/lv_color.h ****                                    (255 - mix) + LV_COLOR_MIX_ROUND_OFS));
 462:Drivers/lvgl/src/hal/../draw/../misc/lv_color.h ****     LV_COLOR_SET_G(ret, LV_UDIV255((uint16_t)LV_COLOR_GET_G(c1) * mix + LV_COLOR_GET_G(c2) *
 463:Drivers/lvgl/src/hal/../draw/../misc/lv_color.h ****                                    (255 - mix) + LV_COLOR_MIX_ROUND_OFS));
 464:Drivers/lvgl/src/hal/../draw/../misc/lv_color.h ****     LV_COLOR_SET_B(ret, LV_UDIV255((uint16_t)LV_COLOR_GET_B(c1) * mix + LV_COLOR_GET_B(c2) *
 465:Drivers/lvgl/src/hal/../draw/../misc/lv_color.h ****                                    (255 - mix) + LV_COLOR_MIX_ROUND_OFS));
 466:Drivers/lvgl/src/hal/../draw/../misc/lv_color.h ****     LV_COLOR_SET_A(ret, 0xFF);
 467:Drivers/lvgl/src/hal/../draw/../misc/lv_color.h **** #else
 468:Drivers/lvgl/src/hal/../draw/../misc/lv_color.h ****     /*LV_COLOR_DEPTH == 1*/
 469:Drivers/lvgl/src/hal/../draw/../misc/lv_color.h ****     ret.full = mix > LV_OPA_50 ? c1.full : c2.full;
 470:Drivers/lvgl/src/hal/../draw/../misc/lv_color.h **** #endif
 471:Drivers/lvgl/src/hal/../draw/../misc/lv_color.h **** 
 472:Drivers/lvgl/src/hal/../draw/../misc/lv_color.h ****     return ret;
 473:Drivers/lvgl/src/hal/../draw/../misc/lv_color.h **** }
 474:Drivers/lvgl/src/hal/../draw/../misc/lv_color.h **** 
 475:Drivers/lvgl/src/hal/../draw/../misc/lv_color.h **** static inline void LV_ATTRIBUTE_FAST_MEM lv_color_premult(lv_color_t c, uint8_t mix, uint16_t * out
 476:Drivers/lvgl/src/hal/../draw/../misc/lv_color.h **** {
 477:Drivers/lvgl/src/hal/../draw/../misc/lv_color.h **** #if LV_COLOR_DEPTH != 1
 478:Drivers/lvgl/src/hal/../draw/../misc/lv_color.h ****     out[0] = (uint16_t)LV_COLOR_GET_R(c) * mix;
 479:Drivers/lvgl/src/hal/../draw/../misc/lv_color.h ****     out[1] = (uint16_t)LV_COLOR_GET_G(c) * mix;
 480:Drivers/lvgl/src/hal/../draw/../misc/lv_color.h ****     out[2] = (uint16_t)LV_COLOR_GET_B(c) * mix;
 481:Drivers/lvgl/src/hal/../draw/../misc/lv_color.h **** #else
 482:Drivers/lvgl/src/hal/../draw/../misc/lv_color.h ****     (void) mix;
 483:Drivers/lvgl/src/hal/../draw/../misc/lv_color.h ****     /*Pre-multiplication can't be used with 1 bpp*/
 484:Drivers/lvgl/src/hal/../draw/../misc/lv_color.h ****     out[0] = LV_COLOR_GET_R(c);
 485:Drivers/lvgl/src/hal/../draw/../misc/lv_color.h ****     out[1] = LV_COLOR_GET_G(c);
 486:Drivers/lvgl/src/hal/../draw/../misc/lv_color.h ****     out[2] = LV_COLOR_GET_B(c);
 487:Drivers/lvgl/src/hal/../draw/../misc/lv_color.h **** #endif
 488:Drivers/lvgl/src/hal/../draw/../misc/lv_color.h **** 
 489:Drivers/lvgl/src/hal/../draw/../misc/lv_color.h **** }
 490:Drivers/lvgl/src/hal/../draw/../misc/lv_color.h **** 
 491:Drivers/lvgl/src/hal/../draw/../misc/lv_color.h **** /**
 492:Drivers/lvgl/src/hal/../draw/../misc/lv_color.h ****  * Mix two colors with a given ratio. It runs faster then `lv_color_mix` but requires some pre comp
 493:Drivers/lvgl/src/hal/../draw/../misc/lv_color.h ****  * @param premult_c1 The first color. Should be preprocessed with `lv_color_premult(c1)`
 494:Drivers/lvgl/src/hal/../draw/../misc/lv_color.h ****  * @param c2 The second color. As it is no pre computation required on it
 495:Drivers/lvgl/src/hal/../draw/../misc/lv_color.h ****  * @param mix The ratio of the colors. 0: full `c1`, 255: full `c2`, 127: half `c1` and half `c2`.
 496:Drivers/lvgl/src/hal/../draw/../misc/lv_color.h ****  *            Should be modified like mix = `255 - mix`
 497:Drivers/lvgl/src/hal/../draw/../misc/lv_color.h ****  * @return the mixed color
 498:Drivers/lvgl/src/hal/../draw/../misc/lv_color.h ****  * @note 255 won't give clearly `c1`.
 499:Drivers/lvgl/src/hal/../draw/../misc/lv_color.h ****  */
 500:Drivers/lvgl/src/hal/../draw/../misc/lv_color.h **** static inline lv_color_t LV_ATTRIBUTE_FAST_MEM lv_color_mix_premult(uint16_t * premult_c1, lv_color
 501:Drivers/lvgl/src/hal/../draw/../misc/lv_color.h **** {
 502:Drivers/lvgl/src/hal/../draw/../misc/lv_color.h ****     lv_color_t ret;
 503:Drivers/lvgl/src/hal/../draw/../misc/lv_color.h **** #if LV_COLOR_DEPTH != 1
 504:Drivers/lvgl/src/hal/../draw/../misc/lv_color.h ****     /*LV_COLOR_DEPTH == 8 or 32*/
 505:Drivers/lvgl/src/hal/../draw/../misc/lv_color.h ****     LV_COLOR_SET_R(ret, LV_UDIV255(premult_c1[0] + LV_COLOR_GET_R(c2) * mix + LV_COLOR_MIX_ROUND_OF
 506:Drivers/lvgl/src/hal/../draw/../misc/lv_color.h ****     LV_COLOR_SET_G(ret, LV_UDIV255(premult_c1[1] + LV_COLOR_GET_G(c2) * mix + LV_COLOR_MIX_ROUND_OF
 507:Drivers/lvgl/src/hal/../draw/../misc/lv_color.h ****     LV_COLOR_SET_B(ret, LV_UDIV255(premult_c1[2] + LV_COLOR_GET_B(c2) * mix + LV_COLOR_MIX_ROUND_OF
 508:Drivers/lvgl/src/hal/../draw/../misc/lv_color.h ****     LV_COLOR_SET_A(ret, 0xFF);
 509:Drivers/lvgl/src/hal/../draw/../misc/lv_color.h **** #else
 510:Drivers/lvgl/src/hal/../draw/../misc/lv_color.h ****     /*LV_COLOR_DEPTH == 1*/
 511:Drivers/lvgl/src/hal/../draw/../misc/lv_color.h ****     /*Restore color1*/
ARM GAS  /var/folders/lp/x54gwt890xv47sdkqj1k04q40000gn/T//cczqSNj3.s 			page 30


 512:Drivers/lvgl/src/hal/../draw/../misc/lv_color.h ****     lv_color_t c1;
 513:Drivers/lvgl/src/hal/../draw/../misc/lv_color.h ****     LV_COLOR_SET_R(c1, premult_c1[0]);
 514:Drivers/lvgl/src/hal/../draw/../misc/lv_color.h ****     LV_COLOR_SET_G(c1, premult_c1[1]);
 515:Drivers/lvgl/src/hal/../draw/../misc/lv_color.h ****     LV_COLOR_SET_B(c1, premult_c1[2]);
 516:Drivers/lvgl/src/hal/../draw/../misc/lv_color.h ****     ret.full = mix > LV_OPA_50 ? c2.full : c1.full;
 517:Drivers/lvgl/src/hal/../draw/../misc/lv_color.h **** #endif
 518:Drivers/lvgl/src/hal/../draw/../misc/lv_color.h **** 
 519:Drivers/lvgl/src/hal/../draw/../misc/lv_color.h ****     return ret;
 520:Drivers/lvgl/src/hal/../draw/../misc/lv_color.h **** }
 521:Drivers/lvgl/src/hal/../draw/../misc/lv_color.h **** 
 522:Drivers/lvgl/src/hal/../draw/../misc/lv_color.h **** /**
 523:Drivers/lvgl/src/hal/../draw/../misc/lv_color.h ****  * Mix two colors. Both color can have alpha value.
 524:Drivers/lvgl/src/hal/../draw/../misc/lv_color.h ****  * @param bg_color background color
 525:Drivers/lvgl/src/hal/../draw/../misc/lv_color.h ****  * @param bg_opa alpha of the background color
 526:Drivers/lvgl/src/hal/../draw/../misc/lv_color.h ****  * @param fg_color foreground color
 527:Drivers/lvgl/src/hal/../draw/../misc/lv_color.h ****  * @param fg_opa alpha of the foreground color
 528:Drivers/lvgl/src/hal/../draw/../misc/lv_color.h ****  * @param res_color the result color
 529:Drivers/lvgl/src/hal/../draw/../misc/lv_color.h ****  * @param res_opa the result opacity
 530:Drivers/lvgl/src/hal/../draw/../misc/lv_color.h ****  */
 531:Drivers/lvgl/src/hal/../draw/../misc/lv_color.h **** static inline void LV_ATTRIBUTE_FAST_MEM lv_color_mix_with_alpha(lv_color_t bg_color, lv_opa_t bg_o
 532:Drivers/lvgl/src/hal/../draw/../misc/lv_color.h ****                                                                  lv_color_t fg_color, lv_opa_t fg_o
 533:Drivers/lvgl/src/hal/../draw/../misc/lv_color.h ****                                                                  lv_color_t * res_color, lv_opa_t *
 534:Drivers/lvgl/src/hal/../draw/../misc/lv_color.h **** {
 535:Drivers/lvgl/src/hal/../draw/../misc/lv_color.h ****     /*Pick the foreground if it's fully opaque or the Background is fully transparent*/
 536:Drivers/lvgl/src/hal/../draw/../misc/lv_color.h ****     if(fg_opa >= LV_OPA_MAX || bg_opa <= LV_OPA_MIN) {
 537:Drivers/lvgl/src/hal/../draw/../misc/lv_color.h ****         res_color->full = fg_color.full;
 538:Drivers/lvgl/src/hal/../draw/../misc/lv_color.h ****         *res_opa = fg_opa;
 539:Drivers/lvgl/src/hal/../draw/../misc/lv_color.h ****     }
 540:Drivers/lvgl/src/hal/../draw/../misc/lv_color.h ****     /*Transparent foreground: use the Background*/
 541:Drivers/lvgl/src/hal/../draw/../misc/lv_color.h ****     else if(fg_opa <= LV_OPA_MIN) {
 542:Drivers/lvgl/src/hal/../draw/../misc/lv_color.h ****         res_color->full = bg_color.full;
 543:Drivers/lvgl/src/hal/../draw/../misc/lv_color.h ****         *res_opa = bg_opa;
 544:Drivers/lvgl/src/hal/../draw/../misc/lv_color.h ****     }
 545:Drivers/lvgl/src/hal/../draw/../misc/lv_color.h ****     /*Opaque background: use simple mix*/
 546:Drivers/lvgl/src/hal/../draw/../misc/lv_color.h ****     else if(bg_opa >= LV_OPA_MAX) {
 547:Drivers/lvgl/src/hal/../draw/../misc/lv_color.h ****         *res_color = lv_color_mix(fg_color, bg_color, fg_opa);
 548:Drivers/lvgl/src/hal/../draw/../misc/lv_color.h ****         *res_opa = LV_OPA_COVER;
 549:Drivers/lvgl/src/hal/../draw/../misc/lv_color.h ****     }
 550:Drivers/lvgl/src/hal/../draw/../misc/lv_color.h ****     /*Both colors have alpha. Expensive calculation need to be applied*/
 551:Drivers/lvgl/src/hal/../draw/../misc/lv_color.h ****     else {
 552:Drivers/lvgl/src/hal/../draw/../misc/lv_color.h ****         /*Save the parameters and the result. If they will be asked again don't compute again*/
 553:Drivers/lvgl/src/hal/../draw/../misc/lv_color.h ****         static lv_opa_t fg_opa_save     = 0;
 554:Drivers/lvgl/src/hal/../draw/../misc/lv_color.h ****         static lv_opa_t bg_opa_save     = 0;
 555:Drivers/lvgl/src/hal/../draw/../misc/lv_color.h ****         static lv_color_t fg_color_save = _LV_COLOR_ZERO_INITIALIZER;
 556:Drivers/lvgl/src/hal/../draw/../misc/lv_color.h ****         static lv_color_t bg_color_save = _LV_COLOR_ZERO_INITIALIZER;
 557:Drivers/lvgl/src/hal/../draw/../misc/lv_color.h ****         static lv_color_t res_color_saved = _LV_COLOR_ZERO_INITIALIZER;
 558:Drivers/lvgl/src/hal/../draw/../misc/lv_color.h ****         static lv_opa_t res_opa_saved = 0;
 559:Drivers/lvgl/src/hal/../draw/../misc/lv_color.h **** 
 560:Drivers/lvgl/src/hal/../draw/../misc/lv_color.h ****         if(fg_opa != fg_opa_save || bg_opa != bg_opa_save || fg_color.full != fg_color_save.full ||
 561:Drivers/lvgl/src/hal/../draw/../misc/lv_color.h ****            bg_color.full != bg_color_save.full) {
 562:Drivers/lvgl/src/hal/../draw/../misc/lv_color.h ****             fg_opa_save        = fg_opa;
 563:Drivers/lvgl/src/hal/../draw/../misc/lv_color.h ****             bg_opa_save        = bg_opa;
 564:Drivers/lvgl/src/hal/../draw/../misc/lv_color.h ****             fg_color_save.full = fg_color.full;
 565:Drivers/lvgl/src/hal/../draw/../misc/lv_color.h ****             bg_color_save.full = bg_color.full;
 566:Drivers/lvgl/src/hal/../draw/../misc/lv_color.h ****             /*Info:
 567:Drivers/lvgl/src/hal/../draw/../misc/lv_color.h ****              * https://en.wikipedia.org/wiki/Alpha_compositing#Analytical_derivation_of_the_over_op
 568:Drivers/lvgl/src/hal/../draw/../misc/lv_color.h ****             res_opa_saved = 255 - ((uint16_t)((uint16_t)(255 - fg_opa) * (255 - bg_opa)) >> 8);
ARM GAS  /var/folders/lp/x54gwt890xv47sdkqj1k04q40000gn/T//cczqSNj3.s 			page 31


 569:Drivers/lvgl/src/hal/../draw/../misc/lv_color.h ****             LV_ASSERT(res_opa_saved != 0);
 570:Drivers/lvgl/src/hal/../draw/../misc/lv_color.h ****             lv_opa_t ratio = (uint16_t)((uint16_t)fg_opa * 255) / res_opa_saved;
 571:Drivers/lvgl/src/hal/../draw/../misc/lv_color.h ****             res_color_saved = lv_color_mix(fg_color, bg_color, ratio);
 572:Drivers/lvgl/src/hal/../draw/../misc/lv_color.h **** 
 573:Drivers/lvgl/src/hal/../draw/../misc/lv_color.h ****         }
 574:Drivers/lvgl/src/hal/../draw/../misc/lv_color.h **** 
 575:Drivers/lvgl/src/hal/../draw/../misc/lv_color.h ****         res_color->full = res_color_saved.full;
 576:Drivers/lvgl/src/hal/../draw/../misc/lv_color.h ****         *res_opa = res_opa_saved;
 577:Drivers/lvgl/src/hal/../draw/../misc/lv_color.h ****     }
 578:Drivers/lvgl/src/hal/../draw/../misc/lv_color.h **** }
 579:Drivers/lvgl/src/hal/../draw/../misc/lv_color.h **** 
 580:Drivers/lvgl/src/hal/../draw/../misc/lv_color.h **** //! @endcond
 581:Drivers/lvgl/src/hal/../draw/../misc/lv_color.h **** 
 582:Drivers/lvgl/src/hal/../draw/../misc/lv_color.h **** /**
 583:Drivers/lvgl/src/hal/../draw/../misc/lv_color.h ****  * Get the brightness of a color
 584:Drivers/lvgl/src/hal/../draw/../misc/lv_color.h ****  * @param color a color
 585:Drivers/lvgl/src/hal/../draw/../misc/lv_color.h ****  * @return the brightness [0..255]
 586:Drivers/lvgl/src/hal/../draw/../misc/lv_color.h ****  */
 587:Drivers/lvgl/src/hal/../draw/../misc/lv_color.h **** static inline uint8_t lv_color_brightness(lv_color_t color)
 588:Drivers/lvgl/src/hal/../draw/../misc/lv_color.h **** {
 589:Drivers/lvgl/src/hal/../draw/../misc/lv_color.h ****     lv_color32_t c32;
 590:Drivers/lvgl/src/hal/../draw/../misc/lv_color.h ****     c32.full        = lv_color_to32(color);
 591:Drivers/lvgl/src/hal/../draw/../misc/lv_color.h ****     uint16_t bright = (uint16_t)(3u * LV_COLOR_GET_R32(c32) + LV_COLOR_GET_B32(c32) + 4u * LV_COLOR
 592:Drivers/lvgl/src/hal/../draw/../misc/lv_color.h ****     return (uint8_t)(bright >> 3);
 593:Drivers/lvgl/src/hal/../draw/../misc/lv_color.h **** }
 594:Drivers/lvgl/src/hal/../draw/../misc/lv_color.h **** 
 595:Drivers/lvgl/src/hal/../draw/../misc/lv_color.h **** static inline lv_color_t lv_color_make(uint8_t r, uint8_t g, uint8_t b)
 596:Drivers/lvgl/src/hal/../draw/../misc/lv_color.h **** {
 597:Drivers/lvgl/src/hal/../draw/../misc/lv_color.h ****     return _LV_COLOR_MAKE_TYPE_HELPER LV_COLOR_MAKE(r, g, b);
 598:Drivers/lvgl/src/hal/../draw/../misc/lv_color.h **** }
 599:Drivers/lvgl/src/hal/../draw/../misc/lv_color.h **** 
 600:Drivers/lvgl/src/hal/../draw/../misc/lv_color.h **** static inline lv_color_t lv_color_hex(uint32_t c)
 711              		.loc 3 600 26 is_stmt 1 view .LVU167
 601:Drivers/lvgl/src/hal/../draw/../misc/lv_color.h **** {
 602:Drivers/lvgl/src/hal/../draw/../misc/lv_color.h **** #if LV_COLOR_DEPTH == 16
 603:Drivers/lvgl/src/hal/../draw/../misc/lv_color.h ****     lv_color_t r;
 712              		.loc 3 603 5 view .LVU168
 604:Drivers/lvgl/src/hal/../draw/../misc/lv_color.h **** #if LV_COLOR_16_SWAP == 0
 605:Drivers/lvgl/src/hal/../draw/../misc/lv_color.h ****     /* Convert a 4 bytes per pixel in format ARGB32 to R5G6B5 format
 606:Drivers/lvgl/src/hal/../draw/../misc/lv_color.h ****         naive way (by calling lv_color_make with components):
 607:Drivers/lvgl/src/hal/../draw/../misc/lv_color.h ****                     r = ((c & 0xFF0000) >> 19)
 608:Drivers/lvgl/src/hal/../draw/../misc/lv_color.h ****                     g = ((c & 0xFF00) >> 10)
 609:Drivers/lvgl/src/hal/../draw/../misc/lv_color.h ****                     b = ((c & 0xFF) >> 3)
 610:Drivers/lvgl/src/hal/../draw/../misc/lv_color.h ****                     rgb565 = (r << 11) | (g << 5) | b
 611:Drivers/lvgl/src/hal/../draw/../misc/lv_color.h ****         That's 3 mask, 5 bitshift and 2 or operations
 612:Drivers/lvgl/src/hal/../draw/../misc/lv_color.h **** 
 613:Drivers/lvgl/src/hal/../draw/../misc/lv_color.h ****         A bit better:
 614:Drivers/lvgl/src/hal/../draw/../misc/lv_color.h ****                     r = ((c & 0xF80000) >> 8)
 615:Drivers/lvgl/src/hal/../draw/../misc/lv_color.h ****                     g = ((c & 0xFC00) >> 5)
 616:Drivers/lvgl/src/hal/../draw/../misc/lv_color.h ****                     b = ((c & 0xFF) >> 3)
 617:Drivers/lvgl/src/hal/../draw/../misc/lv_color.h ****                     rgb565 = r | g | b
 618:Drivers/lvgl/src/hal/../draw/../misc/lv_color.h ****         That's 3 mask, 3 bitshifts and 2 or operations */
 619:Drivers/lvgl/src/hal/../draw/../misc/lv_color.h ****     r.full = (uint16_t)(((c & 0xF80000) >> 8) | ((c & 0xFC00) >> 5) | ((c & 0xFF) >> 3));
 620:Drivers/lvgl/src/hal/../draw/../misc/lv_color.h **** #else
 621:Drivers/lvgl/src/hal/../draw/../misc/lv_color.h ****     /* We want: rrrr rrrr GGGg gggg bbbb bbbb => gggb bbbb rrrr rGGG */
 622:Drivers/lvgl/src/hal/../draw/../misc/lv_color.h ****     r.full = (uint16_t)(((c & 0xF80000) >> 16) | ((c & 0xFC00) >> 13) | ((c & 0x1C00) << 3) | ((c &
 713              		.loc 3 622 5 view .LVU169
ARM GAS  /var/folders/lp/x54gwt890xv47sdkqj1k04q40000gn/T//cczqSNj3.s 			page 32


 623:Drivers/lvgl/src/hal/../draw/../misc/lv_color.h **** #endif
 624:Drivers/lvgl/src/hal/../draw/../misc/lv_color.h ****     return r;
 714              		.loc 3 624 5 view .LVU170
 715              		.loc 3 624 5 is_stmt 0 view .LVU171
 716              	.LBE56:
 717              		.loc 1 185 5 discriminator 2 view .LVU172
 718 000a 0022     		movs	r2, #0
 719 000c 4CF60121 		movw	r1, 51713	@ movhi
 720 0010 FFF7FEFF 		bl	lv_obj_set_style_bg_color
 721              	.LVL94:
 186:Core/Src/UI_LCD.c ****     lv_obj_set_style_text_color(lv_scr_act(), lv_color_hex(0xffffff), LV_PART_MAIN);
 722              		.loc 1 186 5 is_stmt 1 view .LVU173
 723              	.LBB57:
 724              	.LBI57:
 182:Drivers/lvgl/src/core/lv_disp.h **** {
 725              		.loc 2 182 26 view .LVU174
 726              	.LBB58:
 727              		.loc 2 184 5 view .LVU175
 728              		.loc 2 184 12 is_stmt 0 view .LVU176
 729 0014 FFF7FEFF 		bl	lv_disp_get_default
 730              	.LVL95:
 731              		.loc 2 184 12 discriminator 1 view .LVU177
 732 0018 FFF7FEFF 		bl	lv_disp_get_scr_act
 733              	.LVL96:
 734              		.loc 2 184 12 discriminator 1 view .LVU178
 735              	.LBE58:
 736              	.LBE57:
 737              	.LBB59:
 738              	.LBI59:
 600:Drivers/lvgl/src/hal/../draw/../misc/lv_color.h **** {
 739              		.loc 3 600 26 is_stmt 1 view .LVU179
 603:Drivers/lvgl/src/hal/../draw/../misc/lv_color.h **** #if LV_COLOR_16_SWAP == 0
 740              		.loc 3 603 5 view .LVU180
 622:Drivers/lvgl/src/hal/../draw/../misc/lv_color.h **** #endif
 741              		.loc 3 622 5 view .LVU181
 742              		.loc 3 624 5 view .LVU182
 743              		.loc 3 624 5 is_stmt 0 view .LVU183
 744              	.LBE59:
 745              		.loc 1 186 5 discriminator 2 view .LVU184
 746 001c 0022     		movs	r2, #0
 747 001e 4FF0FF31 		mov	r1, #-1	@ movhi
 748 0022 FFF7FEFF 		bl	lv_obj_set_style_text_color
 749              	.LVL97:
 187:Core/Src/UI_LCD.c ****     create_arcs();
 750              		.loc 1 187 5 is_stmt 1 view .LVU185
 188:Core/Src/UI_LCD.c **** 
 189:Core/Src/UI_LCD.c ****     
 190:Core/Src/UI_LCD.c **** }
 751              		.loc 1 190 1 is_stmt 0 view .LVU186
 752 0026 BDE80840 		pop	{r3, lr}
 753              		.cfi_restore 14
 754              		.cfi_restore 3
 755              		.cfi_def_cfa_offset 0
 187:Core/Src/UI_LCD.c ****     create_arcs();
 756              		.loc 1 187 5 view .LVU187
 757 002a FFF7FEBF 		b	create_arcs
 758              	.LVL98:
ARM GAS  /var/folders/lp/x54gwt890xv47sdkqj1k04q40000gn/T//cczqSNj3.s 			page 33


 759              		.cfi_endproc
 760              	.LFE448:
 762 002e 00BF     		.section	.rodata.UI_LCD_process.str1.4,"aMS",%progbits,1
 763              		.align	2
 764              	.LC11:
 765 0000 464D2032 		.ascii	"FM 2 operators\000"
 765      206F7065 
 765      7261746F 
 765      727300
 766              		.section	.text.UI_LCD_process,"ax",%progbits
 767              		.align	1
 768              		.p2align 2,,3
 769              		.global	UI_LCD_process
 770              		.syntax unified
 771              		.thumb
 772              		.thumb_func
 774              	UI_LCD_process:
 775              	.LFB449:
 191:Core/Src/UI_LCD.c **** 
 192:Core/Src/UI_LCD.c **** 
 193:Core/Src/UI_LCD.c **** /**
 194:Core/Src/UI_LCD.c ****  * @brief display the state of the 3 potentiometers, and the current oscillator mode
 195:Core/Src/UI_LCD.c ****  * 
 196:Core/Src/UI_LCD.c ****  */
 197:Core/Src/UI_LCD.c **** void UI_LCD_process(void){
 776              		.loc 1 197 26 is_stmt 1 view -0
 777              		.cfi_startproc
 778              		@ args = 0, pretend = 0, frame = 0
 779              		@ frame_needed = 0, uses_anonymous_args = 0
 198:Core/Src/UI_LCD.c ****     lv_arc_set_angles(pot1, 0, 270 * pot1_norm);
 780              		.loc 1 198 5 view .LVU189
 197:Core/Src/UI_LCD.c ****     lv_arc_set_angles(pot1, 0, 270 * pot1_norm);
 781              		.loc 1 197 26 is_stmt 0 view .LVU190
 782 0000 08B5     		push	{r3, lr}
 783              		.cfi_def_cfa_offset 8
 784              		.cfi_offset 3, -8
 785              		.cfi_offset 14, -4
 786              		.loc 1 198 36 view .LVU191
 787 0002 234B     		ldr	r3, .L15
 197:Core/Src/UI_LCD.c ****     lv_arc_set_angles(pot1, 0, 270 * pot1_norm);
 788              		.loc 1 197 26 view .LVU192
 789 0004 2DED028B 		vpush.64	{d8}
 790              		.cfi_def_cfa_offset 16
 791              		.cfi_offset 80, -16
 792              		.cfi_offset 81, -12
 793              		.loc 1 198 36 view .LVU193
 794 0008 D3ED007A 		vldr.32	s15, [r3]
 795 000c 9FED218A 		vldr.32	s16, .L15+4
 796              		.loc 1 198 5 view .LVU194
 797 0010 214B     		ldr	r3, .L15+8
 798              		.loc 1 198 36 view .LVU195
 799 0012 67EE887A 		vmul.f32	s15, s15, s16
 800              		.loc 1 198 5 view .LVU196
 801 0016 1868     		ldr	r0, [r3]
 802 0018 FCEEE77A 		vcvt.u32.f32	s15, s15
 803 001c 0021     		movs	r1, #0
 804 001e 17EE903A 		vmov	r3, s15	@ int
ARM GAS  /var/folders/lp/x54gwt890xv47sdkqj1k04q40000gn/T//cczqSNj3.s 			page 34


 805 0022 9AB2     		uxth	r2, r3
 806 0024 FFF7FEFF 		bl	lv_arc_set_angles
 807              	.LVL99:
 199:Core/Src/UI_LCD.c ****     lv_arc_set_angles(pot2, 0, 270 * pot2_norm); 
 808              		.loc 1 199 5 is_stmt 1 view .LVU197
 809              		.loc 1 199 36 is_stmt 0 view .LVU198
 810 0028 1C4A     		ldr	r2, .L15+12
 811              		.loc 1 199 5 view .LVU199
 812 002a 1D4B     		ldr	r3, .L15+16
 813              		.loc 1 199 36 view .LVU200
 814 002c D2ED007A 		vldr.32	s15, [r2]
 815              		.loc 1 199 5 view .LVU201
 816 0030 1868     		ldr	r0, [r3]
 817              		.loc 1 199 36 view .LVU202
 818 0032 67EE887A 		vmul.f32	s15, s15, s16
 819              		.loc 1 199 5 view .LVU203
 820 0036 0021     		movs	r1, #0
 821 0038 FCEEE77A 		vcvt.u32.f32	s15, s15
 822 003c 17EE903A 		vmov	r3, s15	@ int
 823 0040 9AB2     		uxth	r2, r3
 824 0042 FFF7FEFF 		bl	lv_arc_set_angles
 825              	.LVL100:
 200:Core/Src/UI_LCD.c ****     lv_arc_set_angles(pot3, 0, 270 * pot3_norm);
 826              		.loc 1 200 5 is_stmt 1 view .LVU204
 827              		.loc 1 200 36 is_stmt 0 view .LVU205
 828 0046 174A     		ldr	r2, .L15+20
 829              		.loc 1 200 5 view .LVU206
 830 0048 174B     		ldr	r3, .L15+24
 831              		.loc 1 200 36 view .LVU207
 832 004a D2ED007A 		vldr.32	s15, [r2]
 833              		.loc 1 200 5 view .LVU208
 834 004e 1868     		ldr	r0, [r3]
 835              		.loc 1 200 36 view .LVU209
 836 0050 67EE887A 		vmul.f32	s15, s15, s16
 837              		.loc 1 200 5 view .LVU210
 838 0054 0021     		movs	r1, #0
 839 0056 FCEEE77A 		vcvt.u32.f32	s15, s15
 840 005a 17EE903A 		vmov	r3, s15	@ int
 841 005e 9AB2     		uxth	r2, r3
 842 0060 FFF7FEFF 		bl	lv_arc_set_angles
 843              	.LVL101:
 201:Core/Src/UI_LCD.c ****     uint8_t osc_select = current_count % 2;
 844              		.loc 1 201 5 is_stmt 1 view .LVU211
 202:Core/Src/UI_LCD.c ****     switch(osc_select){
 845              		.loc 1 202 5 view .LVU212
 201:Core/Src/UI_LCD.c ****     uint8_t osc_select = current_count % 2;
 846              		.loc 1 201 40 is_stmt 0 view .LVU213
 847 0064 114B     		ldr	r3, .L15+28
 848              	.LVL102:
 201:Core/Src/UI_LCD.c ****     uint8_t osc_select = current_count % 2;
 849              		.loc 1 201 40 view .LVU214
 850 0066 1B88     		ldrh	r3, [r3]
 851              	.LVL103:
 852              		.loc 1 202 5 view .LVU215
 853 0068 13F0010F 		tst	r3, #1
 203:Core/Src/UI_LCD.c **** 			case 0:
 204:Core/Src/UI_LCD.c **** 			// analog waveforms
ARM GAS  /var/folders/lp/x54gwt890xv47sdkqj1k04q40000gn/T//cczqSNj3.s 			page 35


 205:Core/Src/UI_LCD.c ****                 lv_label_set_text(osc_txt, "virtual analog");
 206:Core/Src/UI_LCD.c ****             break;
 207:Core/Src/UI_LCD.c **** 
 208:Core/Src/UI_LCD.c ****             case 1:
 209:Core/Src/UI_LCD.c **** 			// FM
 210:Core/Src/UI_LCD.c **** 				lv_label_set_text(osc_txt, "FM 2 operators");
 854              		.loc 1 210 5 view .LVU216
 855 006c 104B     		ldr	r3, .L15+32
 202:Core/Src/UI_LCD.c ****     switch(osc_select){
 856              		.loc 1 202 5 view .LVU217
 857 006e 07D1     		bne	.L13
 205:Core/Src/UI_LCD.c ****             break;
 858              		.loc 1 205 17 is_stmt 1 view .LVU218
 211:Core/Src/UI_LCD.c **** 				break;
 212:Core/Src/UI_LCD.c **** 		}
 213:Core/Src/UI_LCD.c **** 
 214:Core/Src/UI_LCD.c **** }
 859              		.loc 1 214 1 is_stmt 0 view .LVU219
 860 0070 BDEC028B 		vldm	sp!, {d8}
 861              		.cfi_remember_state
 862              		.cfi_restore 80
 863              		.cfi_restore 81
 864              		.cfi_def_cfa_offset 8
 205:Core/Src/UI_LCD.c ****             break;
 865              		.loc 1 205 17 view .LVU220
 866 0074 1868     		ldr	r0, [r3]
 867 0076 0F49     		ldr	r1, .L15+36
 868              		.loc 1 214 1 view .LVU221
 869 0078 BDE80840 		pop	{r3, lr}
 870              		.cfi_restore 14
 871              		.cfi_restore 3
 872              		.cfi_def_cfa_offset 0
 205:Core/Src/UI_LCD.c ****             break;
 873              		.loc 1 205 17 view .LVU222
 874 007c FFF7FEBF 		b	lv_label_set_text
 875              	.LVL104:
 876              	.L13:
 877              		.cfi_restore_state
 210:Core/Src/UI_LCD.c **** 				break;
 878              		.loc 1 210 5 is_stmt 1 view .LVU223
 879              		.loc 1 214 1 is_stmt 0 view .LVU224
 880 0080 BDEC028B 		vldm	sp!, {d8}
 881              		.cfi_restore 80
 882              		.cfi_restore 81
 883              		.cfi_def_cfa_offset 8
 210:Core/Src/UI_LCD.c **** 				break;
 884              		.loc 1 210 5 view .LVU225
 885 0084 1868     		ldr	r0, [r3]
 886 0086 0C49     		ldr	r1, .L15+40
 887              		.loc 1 214 1 view .LVU226
 888 0088 BDE80840 		pop	{r3, lr}
 889              		.cfi_restore 14
 890              		.cfi_restore 3
 891              		.cfi_def_cfa_offset 0
 210:Core/Src/UI_LCD.c **** 				break;
 892              		.loc 1 210 5 view .LVU227
 893 008c FFF7FEBF 		b	lv_label_set_text
ARM GAS  /var/folders/lp/x54gwt890xv47sdkqj1k04q40000gn/T//cczqSNj3.s 			page 36


 894              	.LVL105:
 895              	.L16:
 210:Core/Src/UI_LCD.c **** 				break;
 896              		.loc 1 210 5 view .LVU228
 897              		.align	2
 898              	.L15:
 899 0090 00000000 		.word	pot1_norm
 900 0094 00008743 		.word	1132920832
 901 0098 00000000 		.word	pot1
 902 009c 00000000 		.word	pot2_norm
 903 00a0 00000000 		.word	pot2
 904 00a4 00000000 		.word	pot3_norm
 905 00a8 00000000 		.word	pot3
 906 00ac 00000000 		.word	current_count
 907 00b0 00000000 		.word	osc_txt
 908 00b4 10000000 		.word	.LC1
 909 00b8 00000000 		.word	.LC11
 910              		.cfi_endproc
 911              	.LFE449:
 913              		.global	osc_txt
 914              		.section	.bss.osc_txt,"aw",%nobits
 915              		.align	2
 918              	osc_txt:
 919 0000 00000000 		.space	4
 920              		.global	my_indev
 921              		.section	.bss.my_indev,"aw",%nobits
 922              		.align	2
 925              	my_indev:
 926 0000 00000000 		.space	4
 927              		.global	g
 928              		.section	.bss.g,"aw",%nobits
 929              		.align	2
 932              	g:
 933 0000 00000000 		.space	4
 934              		.global	tabview
 935              		.section	.bss.tabview,"aw",%nobits
 936              		.align	2
 939              	tabview:
 940 0000 00000000 		.space	4
 941              		.global	pot3
 942              		.section	.bss.pot3,"aw",%nobits
 943              		.align	2
 946              	pot3:
 947 0000 00000000 		.space	4
 948              		.global	pot2
 949              		.section	.bss.pot2,"aw",%nobits
 950              		.align	2
 953              	pot2:
 954 0000 00000000 		.space	4
 955              		.global	pot1
 956              		.section	.bss.pot1,"aw",%nobits
 957              		.align	2
 960              	pot1:
 961 0000 00000000 		.space	4
 962              		.text
 963              	.Letext0:
 964              		.file 4 "/Users/jr/Library/Application Support/Code/User/globalStorage/bmd.stm32-for-vscode/@xpack
ARM GAS  /var/folders/lp/x54gwt890xv47sdkqj1k04q40000gn/T//cczqSNj3.s 			page 37


 965              		.file 5 "/Users/jr/Library/Application Support/Code/User/globalStorage/bmd.stm32-for-vscode/@xpack
 966              		.file 6 "Drivers/lvgl/src/misc/lv_types.h"
 967              		.file 7 "Drivers/lvgl/src/misc/lv_timer.h"
 968              		.file 8 "/Users/jr/Library/Application Support/Code/User/globalStorage/bmd.stm32-for-vscode/@xpack
 969              		.file 9 "Drivers/lvgl/src/hal/../draw/../misc/../font/../misc/lv_area.h"
 970              		.file 10 "Drivers/lvgl/src/hal/../draw/../misc/../font/lv_font.h"
 971              		.file 11 "Drivers/lvgl/src/hal/../draw/../misc/lv_txt.h"
 972              		.file 12 "Drivers/lvgl/src/hal/../draw/../misc/lv_bidi.h"
 973              		.file 13 "Drivers/lvgl/src/hal/../draw/../misc/lv_style.h"
 974              		.file 14 "Drivers/lvgl/src/hal/../draw/lv_img_buf.h"
 975              		.file 15 "Drivers/lvgl/src/core/lv_obj.h"
 976              		.file 16 "Drivers/lvgl/src/hal/../draw/lv_draw_rect.h"
 977              		.file 17 "Drivers/lvgl/src/hal/../draw/lv_draw_label.h"
 978              		.file 18 "Drivers/lvgl/src/hal/../draw/lv_draw_img.h"
 979              		.file 19 "Drivers/lvgl/src/hal/../draw/lv_draw_line.h"
 980              		.file 20 "Drivers/lvgl/src/hal/../draw/lv_draw_arc.h"
 981              		.file 21 "Drivers/lvgl/src/hal/../draw/lv_draw_layer.h"
 982              		.file 22 "Drivers/lvgl/src/hal/../draw/lv_draw.h"
 983              		.file 23 "Drivers/lvgl/src/hal/../misc/lv_ll.h"
 984              		.file 24 "Drivers/lvgl/src/hal/lv_hal_disp.h"
 985              		.file 25 "Drivers/lvgl/src/core/lv_theme.h"
 986              		.file 26 "Drivers/lvgl/src/hal/lv_hal_indev.h"
 987              		.file 27 "Drivers/lvgl/src/core/lv_group.h"
 988              		.file 28 "Drivers/lvgl/src/core/lv_obj_scroll.h"
 989              		.file 29 "Drivers/lvgl/src/core/lv_obj_style.h"
 990              		.file 30 "Drivers/lvgl/src/core/lv_obj_class.h"
 991              		.file 31 "Drivers/lvgl/src/core/lv_event.h"
 992              		.file 32 "Drivers/lvgl/src/widgets/lv_bar.h"
 993              		.file 33 "Drivers/lvgl/src/extra/widgets/imgbtn/lv_imgbtn.h"
 994              		.file 34 "Drivers/lvgl/src/widgets/lv_arc.h"
 995              		.file 35 "Drivers/lvgl/src/core/lv_obj_style_gen.h"
 996              		.file 36 "Drivers/lvgl/src/extra/widgets/tabview/lv_tabview.h"
 997              		.file 37 "Drivers/lvgl/src/hal/../draw/sw/../../core/lv_obj_pos.h"
 998              		.file 38 "Drivers/lvgl/src/widgets/lv_label.h"
ARM GAS  /var/folders/lp/x54gwt890xv47sdkqj1k04q40000gn/T//cczqSNj3.s 			page 38

