ARM GAS  /var/folders/0z/tsy30v1j4xl4_7kw94k978ww0000gn/T//cc8kw3Kj.s 			page 1


   1              		.cpu cortex-m4
   2              		.arch armv7e-m
   3              		.fpu fpv4-sp-d16
   4              		.eabi_attribute 27, 1
   5              		.eabi_attribute 28, 1
   6              		.eabi_attribute 23, 1
   7              		.eabi_attribute 24, 1
   8              		.eabi_attribute 25, 1
   9              		.eabi_attribute 26, 1
  10              		.eabi_attribute 30, 2
  11              		.eabi_attribute 34, 1
  12              		.eabi_attribute 18, 4
  13              		.file	"usbh_pipes.c"
  14              		.text
  15              	.Ltext0:
  16              		.cfi_sections	.debug_frame
  17              		.section	.text.USBH_OpenPipe,"ax",%progbits
  18              		.align	1
  19              		.p2align 2,,3
  20              		.global	USBH_OpenPipe
  21              		.syntax unified
  22              		.thumb
  23              		.thumb_func
  25              	USBH_OpenPipe:
  26              	.LVL0:
  27              	.LFB133:
  28              		.file 1 "Middlewares/ST/STM32_USB_Host_Library/Core/Src/usbh_pipes.c"
   1:Middlewares/ST/STM32_USB_Host_Library/Core/Src/usbh_pipes.c **** /**
   2:Middlewares/ST/STM32_USB_Host_Library/Core/Src/usbh_pipes.c ****   ******************************************************************************
   3:Middlewares/ST/STM32_USB_Host_Library/Core/Src/usbh_pipes.c ****   * @file    usbh_pipes.c
   4:Middlewares/ST/STM32_USB_Host_Library/Core/Src/usbh_pipes.c ****   * @author  MCD Application Team
   5:Middlewares/ST/STM32_USB_Host_Library/Core/Src/usbh_pipes.c ****   * @brief   This file implements functions for opening and closing Pipes
   6:Middlewares/ST/STM32_USB_Host_Library/Core/Src/usbh_pipes.c ****   ******************************************************************************
   7:Middlewares/ST/STM32_USB_Host_Library/Core/Src/usbh_pipes.c ****   * @attention
   8:Middlewares/ST/STM32_USB_Host_Library/Core/Src/usbh_pipes.c ****   *
   9:Middlewares/ST/STM32_USB_Host_Library/Core/Src/usbh_pipes.c ****   * <h2><center>&copy; Copyright (c) 2015 STMicroelectronics.
  10:Middlewares/ST/STM32_USB_Host_Library/Core/Src/usbh_pipes.c ****   * All rights reserved.</center></h2>
  11:Middlewares/ST/STM32_USB_Host_Library/Core/Src/usbh_pipes.c ****   *
  12:Middlewares/ST/STM32_USB_Host_Library/Core/Src/usbh_pipes.c ****   * This software component is licensed by ST under Ultimate Liberty license
  13:Middlewares/ST/STM32_USB_Host_Library/Core/Src/usbh_pipes.c ****   * SLA0044, the "License"; You may not use this file except in compliance with
  14:Middlewares/ST/STM32_USB_Host_Library/Core/Src/usbh_pipes.c ****   * the License. You may obtain a copy of the License at:
  15:Middlewares/ST/STM32_USB_Host_Library/Core/Src/usbh_pipes.c ****   *                      http://www.st.com/SLA0044
  16:Middlewares/ST/STM32_USB_Host_Library/Core/Src/usbh_pipes.c ****   *
  17:Middlewares/ST/STM32_USB_Host_Library/Core/Src/usbh_pipes.c ****   ******************************************************************************
  18:Middlewares/ST/STM32_USB_Host_Library/Core/Src/usbh_pipes.c ****   */
  19:Middlewares/ST/STM32_USB_Host_Library/Core/Src/usbh_pipes.c **** 
  20:Middlewares/ST/STM32_USB_Host_Library/Core/Src/usbh_pipes.c **** /* Includes ------------------------------------------------------------------*/
  21:Middlewares/ST/STM32_USB_Host_Library/Core/Src/usbh_pipes.c **** #include "usbh_pipes.h"
  22:Middlewares/ST/STM32_USB_Host_Library/Core/Src/usbh_pipes.c **** 
  23:Middlewares/ST/STM32_USB_Host_Library/Core/Src/usbh_pipes.c **** /** @addtogroup USBH_LIB
  24:Middlewares/ST/STM32_USB_Host_Library/Core/Src/usbh_pipes.c ****   * @{
  25:Middlewares/ST/STM32_USB_Host_Library/Core/Src/usbh_pipes.c ****   */
  26:Middlewares/ST/STM32_USB_Host_Library/Core/Src/usbh_pipes.c **** 
  27:Middlewares/ST/STM32_USB_Host_Library/Core/Src/usbh_pipes.c **** /** @addtogroup USBH_LIB_CORE
  28:Middlewares/ST/STM32_USB_Host_Library/Core/Src/usbh_pipes.c **** * @{
  29:Middlewares/ST/STM32_USB_Host_Library/Core/Src/usbh_pipes.c **** */
  30:Middlewares/ST/STM32_USB_Host_Library/Core/Src/usbh_pipes.c **** 
ARM GAS  /var/folders/0z/tsy30v1j4xl4_7kw94k978ww0000gn/T//cc8kw3Kj.s 			page 2


  31:Middlewares/ST/STM32_USB_Host_Library/Core/Src/usbh_pipes.c **** /** @defgroup USBH_PIPES
  32:Middlewares/ST/STM32_USB_Host_Library/Core/Src/usbh_pipes.c ****   * @brief This file includes opening and closing Pipes
  33:Middlewares/ST/STM32_USB_Host_Library/Core/Src/usbh_pipes.c ****   * @{
  34:Middlewares/ST/STM32_USB_Host_Library/Core/Src/usbh_pipes.c ****   */
  35:Middlewares/ST/STM32_USB_Host_Library/Core/Src/usbh_pipes.c **** 
  36:Middlewares/ST/STM32_USB_Host_Library/Core/Src/usbh_pipes.c **** /** @defgroup USBH_PIPES_Private_Defines
  37:Middlewares/ST/STM32_USB_Host_Library/Core/Src/usbh_pipes.c ****   * @{
  38:Middlewares/ST/STM32_USB_Host_Library/Core/Src/usbh_pipes.c ****   */
  39:Middlewares/ST/STM32_USB_Host_Library/Core/Src/usbh_pipes.c **** /**
  40:Middlewares/ST/STM32_USB_Host_Library/Core/Src/usbh_pipes.c ****   * @}
  41:Middlewares/ST/STM32_USB_Host_Library/Core/Src/usbh_pipes.c ****   */
  42:Middlewares/ST/STM32_USB_Host_Library/Core/Src/usbh_pipes.c **** 
  43:Middlewares/ST/STM32_USB_Host_Library/Core/Src/usbh_pipes.c **** /** @defgroup USBH_PIPES_Private_TypesDefinitions
  44:Middlewares/ST/STM32_USB_Host_Library/Core/Src/usbh_pipes.c ****   * @{
  45:Middlewares/ST/STM32_USB_Host_Library/Core/Src/usbh_pipes.c ****   */
  46:Middlewares/ST/STM32_USB_Host_Library/Core/Src/usbh_pipes.c **** /**
  47:Middlewares/ST/STM32_USB_Host_Library/Core/Src/usbh_pipes.c ****   * @}
  48:Middlewares/ST/STM32_USB_Host_Library/Core/Src/usbh_pipes.c ****   */
  49:Middlewares/ST/STM32_USB_Host_Library/Core/Src/usbh_pipes.c **** 
  50:Middlewares/ST/STM32_USB_Host_Library/Core/Src/usbh_pipes.c **** 
  51:Middlewares/ST/STM32_USB_Host_Library/Core/Src/usbh_pipes.c **** /** @defgroup USBH_PIPES_Private_Macros
  52:Middlewares/ST/STM32_USB_Host_Library/Core/Src/usbh_pipes.c ****   * @{
  53:Middlewares/ST/STM32_USB_Host_Library/Core/Src/usbh_pipes.c ****   */
  54:Middlewares/ST/STM32_USB_Host_Library/Core/Src/usbh_pipes.c **** /**
  55:Middlewares/ST/STM32_USB_Host_Library/Core/Src/usbh_pipes.c ****   * @}
  56:Middlewares/ST/STM32_USB_Host_Library/Core/Src/usbh_pipes.c ****   */
  57:Middlewares/ST/STM32_USB_Host_Library/Core/Src/usbh_pipes.c **** 
  58:Middlewares/ST/STM32_USB_Host_Library/Core/Src/usbh_pipes.c **** 
  59:Middlewares/ST/STM32_USB_Host_Library/Core/Src/usbh_pipes.c **** /** @defgroup USBH_PIPES_Private_Variables
  60:Middlewares/ST/STM32_USB_Host_Library/Core/Src/usbh_pipes.c ****   * @{
  61:Middlewares/ST/STM32_USB_Host_Library/Core/Src/usbh_pipes.c ****   */
  62:Middlewares/ST/STM32_USB_Host_Library/Core/Src/usbh_pipes.c **** 
  63:Middlewares/ST/STM32_USB_Host_Library/Core/Src/usbh_pipes.c **** /**
  64:Middlewares/ST/STM32_USB_Host_Library/Core/Src/usbh_pipes.c ****   * @}
  65:Middlewares/ST/STM32_USB_Host_Library/Core/Src/usbh_pipes.c ****   */
  66:Middlewares/ST/STM32_USB_Host_Library/Core/Src/usbh_pipes.c **** 
  67:Middlewares/ST/STM32_USB_Host_Library/Core/Src/usbh_pipes.c **** 
  68:Middlewares/ST/STM32_USB_Host_Library/Core/Src/usbh_pipes.c **** /** @defgroup USBH_PIPES_Private_Functions
  69:Middlewares/ST/STM32_USB_Host_Library/Core/Src/usbh_pipes.c ****   * @{
  70:Middlewares/ST/STM32_USB_Host_Library/Core/Src/usbh_pipes.c ****   */
  71:Middlewares/ST/STM32_USB_Host_Library/Core/Src/usbh_pipes.c **** static uint16_t USBH_GetFreePipe (USBH_HandleTypeDef *phost);
  72:Middlewares/ST/STM32_USB_Host_Library/Core/Src/usbh_pipes.c **** 
  73:Middlewares/ST/STM32_USB_Host_Library/Core/Src/usbh_pipes.c **** 
  74:Middlewares/ST/STM32_USB_Host_Library/Core/Src/usbh_pipes.c **** /**
  75:Middlewares/ST/STM32_USB_Host_Library/Core/Src/usbh_pipes.c ****   * @brief  USBH_Open_Pipe
  76:Middlewares/ST/STM32_USB_Host_Library/Core/Src/usbh_pipes.c ****   *         Open a  pipe
  77:Middlewares/ST/STM32_USB_Host_Library/Core/Src/usbh_pipes.c ****   * @param  phost: Host Handle
  78:Middlewares/ST/STM32_USB_Host_Library/Core/Src/usbh_pipes.c ****   * @param  pipe_num: Pipe Number
  79:Middlewares/ST/STM32_USB_Host_Library/Core/Src/usbh_pipes.c ****   * @param  dev_address: USB Device address allocated to attached device
  80:Middlewares/ST/STM32_USB_Host_Library/Core/Src/usbh_pipes.c ****   * @param  speed : USB device speed (Full/Low)
  81:Middlewares/ST/STM32_USB_Host_Library/Core/Src/usbh_pipes.c ****   * @param  ep_type: end point type (Bulk/int/ctl)
  82:Middlewares/ST/STM32_USB_Host_Library/Core/Src/usbh_pipes.c ****   * @param  mps: max pkt size
  83:Middlewares/ST/STM32_USB_Host_Library/Core/Src/usbh_pipes.c ****   * @retval USBH Status
  84:Middlewares/ST/STM32_USB_Host_Library/Core/Src/usbh_pipes.c ****   */
  85:Middlewares/ST/STM32_USB_Host_Library/Core/Src/usbh_pipes.c **** USBH_StatusTypeDef USBH_OpenPipe  (USBH_HandleTypeDef *phost,
  86:Middlewares/ST/STM32_USB_Host_Library/Core/Src/usbh_pipes.c ****                             uint8_t pipe_num,
  87:Middlewares/ST/STM32_USB_Host_Library/Core/Src/usbh_pipes.c ****                             uint8_t epnum,
ARM GAS  /var/folders/0z/tsy30v1j4xl4_7kw94k978ww0000gn/T//cc8kw3Kj.s 			page 3


  88:Middlewares/ST/STM32_USB_Host_Library/Core/Src/usbh_pipes.c ****                             uint8_t dev_address,
  89:Middlewares/ST/STM32_USB_Host_Library/Core/Src/usbh_pipes.c ****                             uint8_t speed,
  90:Middlewares/ST/STM32_USB_Host_Library/Core/Src/usbh_pipes.c ****                             uint8_t ep_type,
  91:Middlewares/ST/STM32_USB_Host_Library/Core/Src/usbh_pipes.c ****                             uint16_t mps)
  92:Middlewares/ST/STM32_USB_Host_Library/Core/Src/usbh_pipes.c **** {
  29              		.loc 1 92 1 view -0
  30              		.cfi_startproc
  31              		@ args = 12, pretend = 0, frame = 0
  32              		@ frame_needed = 0, uses_anonymous_args = 0
  93:Middlewares/ST/STM32_USB_Host_Library/Core/Src/usbh_pipes.c **** 
  94:Middlewares/ST/STM32_USB_Host_Library/Core/Src/usbh_pipes.c ****   USBH_LL_OpenPipe(phost,
  33              		.loc 1 94 3 view .LVU1
  92:Middlewares/ST/STM32_USB_Host_Library/Core/Src/usbh_pipes.c **** 
  34              		.loc 1 92 1 is_stmt 0 view .LVU2
  35 0000 10B5     		push	{r4, lr}
  36              		.cfi_def_cfa_offset 8
  37              		.cfi_offset 4, -8
  38              		.cfi_offset 14, -4
  39 0002 84B0     		sub	sp, sp, #16
  40              		.cfi_def_cfa_offset 24
  92:Middlewares/ST/STM32_USB_Host_Library/Core/Src/usbh_pipes.c **** 
  41              		.loc 1 92 1 view .LVU3
  42 0004 9DF81840 		ldrb	r4, [sp, #24]	@ zero_extendqisi2
  43              		.loc 1 94 3 view .LVU4
  44 0008 0094     		str	r4, [sp]
  92:Middlewares/ST/STM32_USB_Host_Library/Core/Src/usbh_pipes.c **** 
  45              		.loc 1 92 1 view .LVU5
  46 000a 9DF81C40 		ldrb	r4, [sp, #28]	@ zero_extendqisi2
  47              		.loc 1 94 3 view .LVU6
  48 000e 0194     		str	r4, [sp, #4]
  92:Middlewares/ST/STM32_USB_Host_Library/Core/Src/usbh_pipes.c **** 
  49              		.loc 1 92 1 view .LVU7
  50 0010 BDF82040 		ldrh	r4, [sp, #32]
  51              		.loc 1 94 3 view .LVU8
  52 0014 0294     		str	r4, [sp, #8]
  53 0016 FFF7FEFF 		bl	USBH_LL_OpenPipe
  54              	.LVL1:
  95:Middlewares/ST/STM32_USB_Host_Library/Core/Src/usbh_pipes.c ****                         pipe_num,
  96:Middlewares/ST/STM32_USB_Host_Library/Core/Src/usbh_pipes.c ****                         epnum,
  97:Middlewares/ST/STM32_USB_Host_Library/Core/Src/usbh_pipes.c ****                         dev_address,
  98:Middlewares/ST/STM32_USB_Host_Library/Core/Src/usbh_pipes.c ****                         speed,
  99:Middlewares/ST/STM32_USB_Host_Library/Core/Src/usbh_pipes.c ****                         ep_type,
 100:Middlewares/ST/STM32_USB_Host_Library/Core/Src/usbh_pipes.c ****                         mps);
 101:Middlewares/ST/STM32_USB_Host_Library/Core/Src/usbh_pipes.c **** 
 102:Middlewares/ST/STM32_USB_Host_Library/Core/Src/usbh_pipes.c ****   return USBH_OK;
  55              		.loc 1 102 3 is_stmt 1 view .LVU9
 103:Middlewares/ST/STM32_USB_Host_Library/Core/Src/usbh_pipes.c **** 
 104:Middlewares/ST/STM32_USB_Host_Library/Core/Src/usbh_pipes.c **** }
  56              		.loc 1 104 1 is_stmt 0 view .LVU10
  57 001a 0020     		movs	r0, #0
  58 001c 04B0     		add	sp, sp, #16
  59              		.cfi_def_cfa_offset 8
  60              		@ sp needed
  61 001e 10BD     		pop	{r4, pc}
  62              		.loc 1 104 1 view .LVU11
  63              		.cfi_endproc
  64              	.LFE133:
ARM GAS  /var/folders/0z/tsy30v1j4xl4_7kw94k978ww0000gn/T//cc8kw3Kj.s 			page 4


  66              		.section	.text.USBH_ClosePipe,"ax",%progbits
  67              		.align	1
  68              		.p2align 2,,3
  69              		.global	USBH_ClosePipe
  70              		.syntax unified
  71              		.thumb
  72              		.thumb_func
  74              	USBH_ClosePipe:
  75              	.LVL2:
  76              	.LFB134:
 105:Middlewares/ST/STM32_USB_Host_Library/Core/Src/usbh_pipes.c **** 
 106:Middlewares/ST/STM32_USB_Host_Library/Core/Src/usbh_pipes.c **** /**
 107:Middlewares/ST/STM32_USB_Host_Library/Core/Src/usbh_pipes.c ****   * @brief  USBH_ClosePipe
 108:Middlewares/ST/STM32_USB_Host_Library/Core/Src/usbh_pipes.c ****   *         Close a  pipe
 109:Middlewares/ST/STM32_USB_Host_Library/Core/Src/usbh_pipes.c ****   * @param  phost: Host Handle
 110:Middlewares/ST/STM32_USB_Host_Library/Core/Src/usbh_pipes.c ****   * @param  pipe_num: Pipe Number
 111:Middlewares/ST/STM32_USB_Host_Library/Core/Src/usbh_pipes.c ****   * @retval USBH Status
 112:Middlewares/ST/STM32_USB_Host_Library/Core/Src/usbh_pipes.c ****   */
 113:Middlewares/ST/STM32_USB_Host_Library/Core/Src/usbh_pipes.c **** USBH_StatusTypeDef USBH_ClosePipe  (USBH_HandleTypeDef *phost,
 114:Middlewares/ST/STM32_USB_Host_Library/Core/Src/usbh_pipes.c ****                             uint8_t pipe_num)
 115:Middlewares/ST/STM32_USB_Host_Library/Core/Src/usbh_pipes.c **** {
  77              		.loc 1 115 1 is_stmt 1 view -0
  78              		.cfi_startproc
  79              		@ args = 0, pretend = 0, frame = 0
  80              		@ frame_needed = 0, uses_anonymous_args = 0
 116:Middlewares/ST/STM32_USB_Host_Library/Core/Src/usbh_pipes.c **** 
 117:Middlewares/ST/STM32_USB_Host_Library/Core/Src/usbh_pipes.c ****   USBH_LL_ClosePipe(phost, pipe_num);
  81              		.loc 1 117 3 view .LVU13
 115:Middlewares/ST/STM32_USB_Host_Library/Core/Src/usbh_pipes.c **** 
  82              		.loc 1 115 1 is_stmt 0 view .LVU14
  83 0000 08B5     		push	{r3, lr}
  84              		.cfi_def_cfa_offset 8
  85              		.cfi_offset 3, -8
  86              		.cfi_offset 14, -4
  87              		.loc 1 117 3 view .LVU15
  88 0002 FFF7FEFF 		bl	USBH_LL_ClosePipe
  89              	.LVL3:
 118:Middlewares/ST/STM32_USB_Host_Library/Core/Src/usbh_pipes.c **** 
 119:Middlewares/ST/STM32_USB_Host_Library/Core/Src/usbh_pipes.c ****   return USBH_OK;
  90              		.loc 1 119 3 is_stmt 1 view .LVU16
 120:Middlewares/ST/STM32_USB_Host_Library/Core/Src/usbh_pipes.c **** 
 121:Middlewares/ST/STM32_USB_Host_Library/Core/Src/usbh_pipes.c **** }
  91              		.loc 1 121 1 is_stmt 0 view .LVU17
  92 0006 0020     		movs	r0, #0
  93 0008 08BD     		pop	{r3, pc}
  94              		.cfi_endproc
  95              	.LFE134:
  97 000a 00BF     		.section	.text.USBH_AllocPipe,"ax",%progbits
  98              		.align	1
  99              		.p2align 2,,3
 100              		.global	USBH_AllocPipe
 101              		.syntax unified
 102              		.thumb
 103              		.thumb_func
 105              	USBH_AllocPipe:
 106              	.LVL4:
 107              	.LFB135:
ARM GAS  /var/folders/0z/tsy30v1j4xl4_7kw94k978ww0000gn/T//cc8kw3Kj.s 			page 5


 122:Middlewares/ST/STM32_USB_Host_Library/Core/Src/usbh_pipes.c **** 
 123:Middlewares/ST/STM32_USB_Host_Library/Core/Src/usbh_pipes.c **** /**
 124:Middlewares/ST/STM32_USB_Host_Library/Core/Src/usbh_pipes.c ****   * @brief  USBH_Alloc_Pipe
 125:Middlewares/ST/STM32_USB_Host_Library/Core/Src/usbh_pipes.c ****   *         Allocate a new Pipe
 126:Middlewares/ST/STM32_USB_Host_Library/Core/Src/usbh_pipes.c ****   * @param  phost: Host Handle
 127:Middlewares/ST/STM32_USB_Host_Library/Core/Src/usbh_pipes.c ****   * @param  ep_addr: End point for which the Pipe to be allocated
 128:Middlewares/ST/STM32_USB_Host_Library/Core/Src/usbh_pipes.c ****   * @retval Pipe number
 129:Middlewares/ST/STM32_USB_Host_Library/Core/Src/usbh_pipes.c ****   */
 130:Middlewares/ST/STM32_USB_Host_Library/Core/Src/usbh_pipes.c **** uint8_t USBH_AllocPipe  (USBH_HandleTypeDef *phost, uint8_t ep_addr)
 131:Middlewares/ST/STM32_USB_Host_Library/Core/Src/usbh_pipes.c **** {
 108              		.loc 1 131 1 is_stmt 1 view -0
 109              		.cfi_startproc
 110              		@ args = 0, pretend = 0, frame = 0
 111              		@ frame_needed = 0, uses_anonymous_args = 0
 112              		@ link register save eliminated.
 132:Middlewares/ST/STM32_USB_Host_Library/Core/Src/usbh_pipes.c ****   uint16_t pipe;
 113              		.loc 1 132 3 view .LVU19
 133:Middlewares/ST/STM32_USB_Host_Library/Core/Src/usbh_pipes.c **** 
 134:Middlewares/ST/STM32_USB_Host_Library/Core/Src/usbh_pipes.c ****   pipe =  USBH_GetFreePipe(phost);
 114              		.loc 1 134 3 view .LVU20
 131:Middlewares/ST/STM32_USB_Host_Library/Core/Src/usbh_pipes.c ****   uint16_t pipe;
 115              		.loc 1 131 1 is_stmt 0 view .LVU21
 116 0000 0346     		mov	r3, r0
 117              	.LVL5:
 118              	.LBB4:
 119              	.LBI4:
 135:Middlewares/ST/STM32_USB_Host_Library/Core/Src/usbh_pipes.c **** 
 136:Middlewares/ST/STM32_USB_Host_Library/Core/Src/usbh_pipes.c ****   if (pipe != 0xFFFFU)
 137:Middlewares/ST/STM32_USB_Host_Library/Core/Src/usbh_pipes.c ****   {
 138:Middlewares/ST/STM32_USB_Host_Library/Core/Src/usbh_pipes.c **** 	phost->Pipes[pipe] = 0x8000U | ep_addr;
 139:Middlewares/ST/STM32_USB_Host_Library/Core/Src/usbh_pipes.c ****   }
 140:Middlewares/ST/STM32_USB_Host_Library/Core/Src/usbh_pipes.c ****   return (uint8_t)pipe;
 141:Middlewares/ST/STM32_USB_Host_Library/Core/Src/usbh_pipes.c **** }
 142:Middlewares/ST/STM32_USB_Host_Library/Core/Src/usbh_pipes.c **** 
 143:Middlewares/ST/STM32_USB_Host_Library/Core/Src/usbh_pipes.c **** /**
 144:Middlewares/ST/STM32_USB_Host_Library/Core/Src/usbh_pipes.c ****   * @brief  USBH_Free_Pipe
 145:Middlewares/ST/STM32_USB_Host_Library/Core/Src/usbh_pipes.c ****   *         Free the USB Pipe
 146:Middlewares/ST/STM32_USB_Host_Library/Core/Src/usbh_pipes.c ****   * @param  phost: Host Handle
 147:Middlewares/ST/STM32_USB_Host_Library/Core/Src/usbh_pipes.c ****   * @param  idx: Pipe number to be freed
 148:Middlewares/ST/STM32_USB_Host_Library/Core/Src/usbh_pipes.c ****   * @retval USBH Status
 149:Middlewares/ST/STM32_USB_Host_Library/Core/Src/usbh_pipes.c ****   */
 150:Middlewares/ST/STM32_USB_Host_Library/Core/Src/usbh_pipes.c **** USBH_StatusTypeDef USBH_FreePipe  (USBH_HandleTypeDef *phost, uint8_t idx)
 151:Middlewares/ST/STM32_USB_Host_Library/Core/Src/usbh_pipes.c **** {
 152:Middlewares/ST/STM32_USB_Host_Library/Core/Src/usbh_pipes.c ****    if(idx < 11U)
 153:Middlewares/ST/STM32_USB_Host_Library/Core/Src/usbh_pipes.c ****    {
 154:Middlewares/ST/STM32_USB_Host_Library/Core/Src/usbh_pipes.c **** 	 phost->Pipes[idx] &= 0x7FFFU;
 155:Middlewares/ST/STM32_USB_Host_Library/Core/Src/usbh_pipes.c ****    }
 156:Middlewares/ST/STM32_USB_Host_Library/Core/Src/usbh_pipes.c ****    return USBH_OK;
 157:Middlewares/ST/STM32_USB_Host_Library/Core/Src/usbh_pipes.c **** }
 158:Middlewares/ST/STM32_USB_Host_Library/Core/Src/usbh_pipes.c **** 
 159:Middlewares/ST/STM32_USB_Host_Library/Core/Src/usbh_pipes.c **** /**
 160:Middlewares/ST/STM32_USB_Host_Library/Core/Src/usbh_pipes.c ****   * @brief  USBH_GetFreePipe
 161:Middlewares/ST/STM32_USB_Host_Library/Core/Src/usbh_pipes.c ****   * @param  phost: Host Handle
 162:Middlewares/ST/STM32_USB_Host_Library/Core/Src/usbh_pipes.c ****   *         Get a free Pipe number for allocation to a device endpoint
 163:Middlewares/ST/STM32_USB_Host_Library/Core/Src/usbh_pipes.c ****   * @retval idx: Free Pipe number
 164:Middlewares/ST/STM32_USB_Host_Library/Core/Src/usbh_pipes.c ****   */
 165:Middlewares/ST/STM32_USB_Host_Library/Core/Src/usbh_pipes.c **** static uint16_t USBH_GetFreePipe (USBH_HandleTypeDef *phost)
ARM GAS  /var/folders/0z/tsy30v1j4xl4_7kw94k978ww0000gn/T//cc8kw3Kj.s 			page 6


 120              		.loc 1 165 17 is_stmt 1 view .LVU22
 121              	.LBB5:
 166:Middlewares/ST/STM32_USB_Host_Library/Core/Src/usbh_pipes.c **** {
 167:Middlewares/ST/STM32_USB_Host_Library/Core/Src/usbh_pipes.c ****   uint8_t idx = 0U;
 122              		.loc 1 167 3 view .LVU23
 168:Middlewares/ST/STM32_USB_Host_Library/Core/Src/usbh_pipes.c **** 
 169:Middlewares/ST/STM32_USB_Host_Library/Core/Src/usbh_pipes.c ****   for (idx = 0U ; idx < 11U ; idx++)
 123              		.loc 1 169 3 view .LVU24
 124              		.loc 1 169 23 view .LVU25
 170:Middlewares/ST/STM32_USB_Host_Library/Core/Src/usbh_pipes.c ****   {
 171:Middlewares/ST/STM32_USB_Host_Library/Core/Src/usbh_pipes.c **** 	if ((phost->Pipes[idx] & 0x8000U) == 0U)
 125              		.loc 1 171 2 view .LVU26
 126              		.loc 1 171 25 is_stmt 0 view .LVU27
 127 0002 D0F8D005 		ldr	r0, [r0, #1488]
 128              	.LVL6:
 129              		.loc 1 171 5 view .LVU28
 130 0006 10F40040 		ands	r0, r0, #32768
 131 000a 2AD0     		beq	.L20
 169:Middlewares/ST/STM32_USB_Host_Library/Core/Src/usbh_pipes.c ****   {
 132              		.loc 1 169 34 is_stmt 1 view .LVU29
 133              	.LVL7:
 169:Middlewares/ST/STM32_USB_Host_Library/Core/Src/usbh_pipes.c ****   {
 134              		.loc 1 169 23 view .LVU30
 135              		.loc 1 171 2 view .LVU31
 136              		.loc 1 171 25 is_stmt 0 view .LVU32
 137 000c D3F8D425 		ldr	r2, [r3, #1492]
 138              		.loc 1 171 5 view .LVU33
 139 0010 1004     		lsls	r0, r2, #16
 140 0012 2ED5     		bpl	.L10
 169:Middlewares/ST/STM32_USB_Host_Library/Core/Src/usbh_pipes.c ****   {
 141              		.loc 1 169 34 is_stmt 1 view .LVU34
 142              	.LVL8:
 169:Middlewares/ST/STM32_USB_Host_Library/Core/Src/usbh_pipes.c ****   {
 143              		.loc 1 169 23 view .LVU35
 144              		.loc 1 171 2 view .LVU36
 145              		.loc 1 171 25 is_stmt 0 view .LVU37
 146 0014 D3F8D825 		ldr	r2, [r3, #1496]
 147              		.loc 1 171 5 view .LVU38
 148 0018 1204     		lsls	r2, r2, #16
 149 001a 2DD5     		bpl	.L11
 169:Middlewares/ST/STM32_USB_Host_Library/Core/Src/usbh_pipes.c ****   {
 150              		.loc 1 169 34 is_stmt 1 view .LVU39
 151              	.LVL9:
 169:Middlewares/ST/STM32_USB_Host_Library/Core/Src/usbh_pipes.c ****   {
 152              		.loc 1 169 23 view .LVU40
 153              		.loc 1 171 2 view .LVU41
 154              		.loc 1 171 25 is_stmt 0 view .LVU42
 155 001c D3F8DC25 		ldr	r2, [r3, #1500]
 156              		.loc 1 171 5 view .LVU43
 157 0020 1004     		lsls	r0, r2, #16
 158 0022 2CD5     		bpl	.L12
 169:Middlewares/ST/STM32_USB_Host_Library/Core/Src/usbh_pipes.c ****   {
 159              		.loc 1 169 34 is_stmt 1 view .LVU44
 160              	.LVL10:
 169:Middlewares/ST/STM32_USB_Host_Library/Core/Src/usbh_pipes.c ****   {
 161              		.loc 1 169 23 view .LVU45
 162              		.loc 1 171 2 view .LVU46
ARM GAS  /var/folders/0z/tsy30v1j4xl4_7kw94k978ww0000gn/T//cc8kw3Kj.s 			page 7


 163              		.loc 1 171 25 is_stmt 0 view .LVU47
 164 0024 D3F8E025 		ldr	r2, [r3, #1504]
 165              		.loc 1 171 5 view .LVU48
 166 0028 1204     		lsls	r2, r2, #16
 167 002a 2BD5     		bpl	.L13
 169:Middlewares/ST/STM32_USB_Host_Library/Core/Src/usbh_pipes.c ****   {
 168              		.loc 1 169 34 is_stmt 1 view .LVU49
 169              	.LVL11:
 169:Middlewares/ST/STM32_USB_Host_Library/Core/Src/usbh_pipes.c ****   {
 170              		.loc 1 169 23 view .LVU50
 171              		.loc 1 171 2 view .LVU51
 172              		.loc 1 171 25 is_stmt 0 view .LVU52
 173 002c D3F8E425 		ldr	r2, [r3, #1508]
 174              		.loc 1 171 5 view .LVU53
 175 0030 1004     		lsls	r0, r2, #16
 176 0032 2AD5     		bpl	.L14
 169:Middlewares/ST/STM32_USB_Host_Library/Core/Src/usbh_pipes.c ****   {
 177              		.loc 1 169 34 is_stmt 1 view .LVU54
 178              	.LVL12:
 169:Middlewares/ST/STM32_USB_Host_Library/Core/Src/usbh_pipes.c ****   {
 179              		.loc 1 169 23 view .LVU55
 180              		.loc 1 171 2 view .LVU56
 181              		.loc 1 171 25 is_stmt 0 view .LVU57
 182 0034 D3F8E825 		ldr	r2, [r3, #1512]
 183              		.loc 1 171 5 view .LVU58
 184 0038 1204     		lsls	r2, r2, #16
 185 003a 29D5     		bpl	.L15
 169:Middlewares/ST/STM32_USB_Host_Library/Core/Src/usbh_pipes.c ****   {
 186              		.loc 1 169 34 is_stmt 1 view .LVU59
 187              	.LVL13:
 169:Middlewares/ST/STM32_USB_Host_Library/Core/Src/usbh_pipes.c ****   {
 188              		.loc 1 169 23 view .LVU60
 189              		.loc 1 171 2 view .LVU61
 190              		.loc 1 171 25 is_stmt 0 view .LVU62
 191 003c D3F8EC25 		ldr	r2, [r3, #1516]
 192              		.loc 1 171 5 view .LVU63
 193 0040 1004     		lsls	r0, r2, #16
 194 0042 28D5     		bpl	.L16
 169:Middlewares/ST/STM32_USB_Host_Library/Core/Src/usbh_pipes.c ****   {
 195              		.loc 1 169 34 is_stmt 1 view .LVU64
 196              	.LVL14:
 169:Middlewares/ST/STM32_USB_Host_Library/Core/Src/usbh_pipes.c ****   {
 197              		.loc 1 169 23 view .LVU65
 198              		.loc 1 171 2 view .LVU66
 199              		.loc 1 171 25 is_stmt 0 view .LVU67
 200 0044 D3F8F025 		ldr	r2, [r3, #1520]
 201              		.loc 1 171 5 view .LVU68
 202 0048 1204     		lsls	r2, r2, #16
 203 004a 27D5     		bpl	.L17
 169:Middlewares/ST/STM32_USB_Host_Library/Core/Src/usbh_pipes.c ****   {
 204              		.loc 1 169 34 is_stmt 1 view .LVU69
 205              	.LVL15:
 169:Middlewares/ST/STM32_USB_Host_Library/Core/Src/usbh_pipes.c ****   {
 206              		.loc 1 169 23 view .LVU70
 207              		.loc 1 171 2 view .LVU71
 208              		.loc 1 171 25 is_stmt 0 view .LVU72
 209 004c D3F8F425 		ldr	r2, [r3, #1524]
ARM GAS  /var/folders/0z/tsy30v1j4xl4_7kw94k978ww0000gn/T//cc8kw3Kj.s 			page 8


 210              		.loc 1 171 5 view .LVU73
 211 0050 1004     		lsls	r0, r2, #16
 212 0052 05D5     		bpl	.L18
 169:Middlewares/ST/STM32_USB_Host_Library/Core/Src/usbh_pipes.c ****   {
 213              		.loc 1 169 34 is_stmt 1 view .LVU74
 214              	.LVL16:
 169:Middlewares/ST/STM32_USB_Host_Library/Core/Src/usbh_pipes.c ****   {
 215              		.loc 1 169 23 view .LVU75
 216              		.loc 1 171 2 view .LVU76
 217              		.loc 1 171 25 is_stmt 0 view .LVU77
 218 0054 D3F8F825 		ldr	r2, [r3, #1528]
 219              		.loc 1 171 5 view .LVU78
 220 0058 1204     		lsls	r2, r2, #16
 221 005a 22D5     		bpl	.L21
 222 005c FF20     		movs	r0, #255
 223              	.LVL17:
 224              		.loc 1 171 5 view .LVU79
 225              	.LBE5:
 226              	.LBE4:
 140:Middlewares/ST/STM32_USB_Host_Library/Core/Src/usbh_pipes.c **** }
 227              		.loc 1 140 3 is_stmt 1 view .LVU80
 141:Middlewares/ST/STM32_USB_Host_Library/Core/Src/usbh_pipes.c **** 
 228              		.loc 1 141 1 is_stmt 0 view .LVU81
 229 005e 7047     		bx	lr
 230              	.LVL18:
 231              	.L18:
 232              	.LBB8:
 233              	.LBB6:
 169:Middlewares/ST/STM32_USB_Host_Library/Core/Src/usbh_pipes.c ****   {
 234              		.loc 1 169 34 view .LVU82
 235 0060 0920     		movs	r0, #9
 236              	.LVL19:
 237              	.L20:
 238              		.loc 1 171 19 view .LVU83
 239 0062 0246     		mov	r2, r0
 240              	.L7:
 172:Middlewares/ST/STM32_USB_Host_Library/Core/Src/usbh_pipes.c **** 	{
 173:Middlewares/ST/STM32_USB_Host_Library/Core/Src/usbh_pipes.c **** 	   return (uint16_t)idx;
 241              		.loc 1 173 5 is_stmt 1 view .LVU84
 242              	.LVL20:
 243              		.loc 1 173 5 is_stmt 0 view .LVU85
 244              	.LBE6:
 245              	.LBE8:
 136:Middlewares/ST/STM32_USB_Host_Library/Core/Src/usbh_pipes.c ****   {
 246              		.loc 1 136 3 is_stmt 1 view .LVU86
 138:Middlewares/ST/STM32_USB_Host_Library/Core/Src/usbh_pipes.c ****   }
 247              		.loc 1 138 2 view .LVU87
 138:Middlewares/ST/STM32_USB_Host_Library/Core/Src/usbh_pipes.c ****   }
 248              		.loc 1 138 21 is_stmt 0 view .LVU88
 249 0064 02F5BA72 		add	r2, r2, #372
 138:Middlewares/ST/STM32_USB_Host_Library/Core/Src/usbh_pipes.c ****   }
 250              		.loc 1 138 31 view .LVU89
 251 0068 41F40041 		orr	r1, r1, #32768
 252              	.LVL21:
 138:Middlewares/ST/STM32_USB_Host_Library/Core/Src/usbh_pipes.c ****   }
 253              		.loc 1 138 21 view .LVU90
 254 006c 43F82210 		str	r1, [r3, r2, lsl #2]
ARM GAS  /var/folders/0z/tsy30v1j4xl4_7kw94k978ww0000gn/T//cc8kw3Kj.s 			page 9


 255 0070 7047     		bx	lr
 256              	.LVL22:
 257              	.L10:
 258              	.LBB9:
 259              	.LBB7:
 169:Middlewares/ST/STM32_USB_Host_Library/Core/Src/usbh_pipes.c ****   {
 260              		.loc 1 169 34 view .LVU91
 261 0072 0120     		movs	r0, #1
 171:Middlewares/ST/STM32_USB_Host_Library/Core/Src/usbh_pipes.c **** 	{
 262              		.loc 1 171 19 view .LVU92
 263 0074 0246     		mov	r2, r0
 264 0076 F5E7     		b	.L7
 265              	.LVL23:
 266              	.L11:
 169:Middlewares/ST/STM32_USB_Host_Library/Core/Src/usbh_pipes.c ****   {
 267              		.loc 1 169 34 view .LVU93
 268 0078 0220     		movs	r0, #2
 171:Middlewares/ST/STM32_USB_Host_Library/Core/Src/usbh_pipes.c **** 	{
 269              		.loc 1 171 19 view .LVU94
 270 007a 0246     		mov	r2, r0
 271 007c F2E7     		b	.L7
 272              	.LVL24:
 273              	.L12:
 169:Middlewares/ST/STM32_USB_Host_Library/Core/Src/usbh_pipes.c ****   {
 274              		.loc 1 169 34 view .LVU95
 275 007e 0320     		movs	r0, #3
 171:Middlewares/ST/STM32_USB_Host_Library/Core/Src/usbh_pipes.c **** 	{
 276              		.loc 1 171 19 view .LVU96
 277 0080 0246     		mov	r2, r0
 278 0082 EFE7     		b	.L7
 279              	.LVL25:
 280              	.L13:
 169:Middlewares/ST/STM32_USB_Host_Library/Core/Src/usbh_pipes.c ****   {
 281              		.loc 1 169 34 view .LVU97
 282 0084 0420     		movs	r0, #4
 171:Middlewares/ST/STM32_USB_Host_Library/Core/Src/usbh_pipes.c **** 	{
 283              		.loc 1 171 19 view .LVU98
 284 0086 0246     		mov	r2, r0
 285 0088 ECE7     		b	.L7
 286              	.LVL26:
 287              	.L14:
 169:Middlewares/ST/STM32_USB_Host_Library/Core/Src/usbh_pipes.c ****   {
 288              		.loc 1 169 34 view .LVU99
 289 008a 0520     		movs	r0, #5
 171:Middlewares/ST/STM32_USB_Host_Library/Core/Src/usbh_pipes.c **** 	{
 290              		.loc 1 171 19 view .LVU100
 291 008c 0246     		mov	r2, r0
 292 008e E9E7     		b	.L7
 293              	.LVL27:
 294              	.L15:
 169:Middlewares/ST/STM32_USB_Host_Library/Core/Src/usbh_pipes.c ****   {
 295              		.loc 1 169 34 view .LVU101
 296 0090 0620     		movs	r0, #6
 171:Middlewares/ST/STM32_USB_Host_Library/Core/Src/usbh_pipes.c **** 	{
 297              		.loc 1 171 19 view .LVU102
 298 0092 0246     		mov	r2, r0
 299 0094 E6E7     		b	.L7
ARM GAS  /var/folders/0z/tsy30v1j4xl4_7kw94k978ww0000gn/T//cc8kw3Kj.s 			page 10


 300              	.LVL28:
 301              	.L16:
 169:Middlewares/ST/STM32_USB_Host_Library/Core/Src/usbh_pipes.c ****   {
 302              		.loc 1 169 34 view .LVU103
 303 0096 0720     		movs	r0, #7
 171:Middlewares/ST/STM32_USB_Host_Library/Core/Src/usbh_pipes.c **** 	{
 304              		.loc 1 171 19 view .LVU104
 305 0098 0246     		mov	r2, r0
 306 009a E3E7     		b	.L7
 307              	.LVL29:
 308              	.L17:
 169:Middlewares/ST/STM32_USB_Host_Library/Core/Src/usbh_pipes.c ****   {
 309              		.loc 1 169 34 view .LVU105
 310 009c 0820     		movs	r0, #8
 171:Middlewares/ST/STM32_USB_Host_Library/Core/Src/usbh_pipes.c **** 	{
 311              		.loc 1 171 19 view .LVU106
 312 009e 0246     		mov	r2, r0
 313 00a0 E0E7     		b	.L7
 314              	.LVL30:
 315              	.L21:
 169:Middlewares/ST/STM32_USB_Host_Library/Core/Src/usbh_pipes.c ****   {
 316              		.loc 1 169 34 view .LVU107
 317 00a2 0A20     		movs	r0, #10
 171:Middlewares/ST/STM32_USB_Host_Library/Core/Src/usbh_pipes.c **** 	{
 318              		.loc 1 171 19 view .LVU108
 319 00a4 0246     		mov	r2, r0
 320 00a6 DDE7     		b	.L7
 321              	.LBE7:
 322              	.LBE9:
 323              		.cfi_endproc
 324              	.LFE135:
 326              		.section	.text.USBH_FreePipe,"ax",%progbits
 327              		.align	1
 328              		.p2align 2,,3
 329              		.global	USBH_FreePipe
 330              		.syntax unified
 331              		.thumb
 332              		.thumb_func
 334              	USBH_FreePipe:
 335              	.LVL31:
 336              	.LFB136:
 151:Middlewares/ST/STM32_USB_Host_Library/Core/Src/usbh_pipes.c ****    if(idx < 11U)
 337              		.loc 1 151 1 is_stmt 1 view -0
 338              		.cfi_startproc
 339              		@ args = 0, pretend = 0, frame = 0
 340              		@ frame_needed = 0, uses_anonymous_args = 0
 341              		@ link register save eliminated.
 152:Middlewares/ST/STM32_USB_Host_Library/Core/Src/usbh_pipes.c ****    {
 342              		.loc 1 152 4 view .LVU110
 152:Middlewares/ST/STM32_USB_Host_Library/Core/Src/usbh_pipes.c ****    {
 343              		.loc 1 152 6 is_stmt 0 view .LVU111
 344 0000 0A29     		cmp	r1, #10
 345 0002 07D8     		bhi	.L23
 154:Middlewares/ST/STM32_USB_Host_Library/Core/Src/usbh_pipes.c ****    }
 346              		.loc 1 154 3 is_stmt 1 view .LVU112
 347 0004 00EB8101 		add	r1, r0, r1, lsl #2
 348              	.LVL32:
ARM GAS  /var/folders/0z/tsy30v1j4xl4_7kw94k978ww0000gn/T//cc8kw3Kj.s 			page 11


 154:Middlewares/ST/STM32_USB_Host_Library/Core/Src/usbh_pipes.c ****    }
 349              		.loc 1 154 21 is_stmt 0 view .LVU113
 350 0008 D1F8D035 		ldr	r3, [r1, #1488]
 351 000c C3F30E03 		ubfx	r3, r3, #0, #15
 352 0010 C1F8D035 		str	r3, [r1, #1488]
 353              	.L23:
 156:Middlewares/ST/STM32_USB_Host_Library/Core/Src/usbh_pipes.c **** }
 354              		.loc 1 156 4 is_stmt 1 view .LVU114
 157:Middlewares/ST/STM32_USB_Host_Library/Core/Src/usbh_pipes.c **** 
 355              		.loc 1 157 1 is_stmt 0 view .LVU115
 356 0014 0020     		movs	r0, #0
 357              	.LVL33:
 157:Middlewares/ST/STM32_USB_Host_Library/Core/Src/usbh_pipes.c **** 
 358              		.loc 1 157 1 view .LVU116
 359 0016 7047     		bx	lr
 360              		.cfi_endproc
 361              	.LFE136:
 363              		.text
 364              	.Letext0:
 365              		.file 2 "/Users/johannes/Library/Application Support/Code/User/globalStorage/bmd.stm32-for-vscode/
 366              		.file 3 "/Users/johannes/Library/Application Support/Code/User/globalStorage/bmd.stm32-for-vscode/
 367              		.file 4 "Middlewares/ST/STM32_USB_Host_Library/Core/Inc/usbh_def.h"
 368              		.file 5 "Middlewares/ST/STM32_USB_Host_Library/Core/Inc/usbh_core.h"
ARM GAS  /var/folders/0z/tsy30v1j4xl4_7kw94k978ww0000gn/T//cc8kw3Kj.s 			page 12

